

Microchip Technology PIC LITE Macro Assembler V1.12 build 49521 
                                                                                               Mon Apr  1 13:05:34 2013

HI-TECH Software Omniscient Code Generator (Lite mode) build 49521
     1  0000                     opt subtitle "HI-TECH Software Omniscient Code Generator (Lite mode) build 49521"
     2                           opt subtitle "HI-TECH Software Omniscient Code Generator (Lite mode) build 49521"
     3                           
     4                           opt pagewidth 120
     5                           
     6                           	opt lm
     7                           
     8                           	processor	16F1503
     9                           clrc	macro
    10  0000                     	endm
    11                           opt subtitle "HI-TECH Software Omniscient Code Generator (Lite mode) build 49521"
    12                           
    13  0000                     	endm
    14                           opt subtitle "HI-TECH Software Omniscient Code Generator (Lite mode) build 49521"
    15                           
    16  0000                     	endm
    17                           opt subtitle "HI-TECH Software Omniscient Code Generator (Lite mode) build 49521"
    18                           
    19  0000                     	endm
    20                           opt subtitle "HI-TECH Software Omniscient Code Generator (Lite mode) build 49521"
    21                           
    22  0000                     	endm
    23                           opt subtitle "HI-TECH Software Omniscient Code Generator (Lite mode) build 49521"
    24                           
    25  0000                     	endm
    26                           opt subtitle "HI-TECH Software Omniscient Code Generator (Lite mode) build 49521"
    27                           
    28  0000                     	endm
    29                           opt subtitle "HI-TECH Software Omniscient Code Generator (Lite mode) build 49521"
    30                           
    31  0000                     	endm
    32  0000                     indf	equ	0
    33  0000                     indf0	equ	0
    34  0001                     indf1	equ	1
    35  0002                     pc	equ	2
    36  0002                     pcl	equ	2
    37  0003                     status	equ	3
    38  0004                     fsr0l	equ	4
    39  0005                     fsr0h	equ	5
    40  0006                     fsr1l	equ	6
    41  0007                     fsr1h	equ	7
    42  0008                     bsr	equ	8
    43  0009                     wreg	equ	9
    44  000B                     intcon	equ	11
    45  0001                     c	equ	1
    46  0000                     z	equ	0
    47  000A                     pclath	equ	10
    48                           opt subtitle "HI-TECH Software Omniscient Code Generator (Lite mode) build 49521"
    49  0000                     INDF0 equ 00h ;# 
    50                           opt subtitle "HI-TECH Software Omniscient Code Generator (Lite mode) build 49521"
    51  0001                     INDF1 equ 01h ;# 
    52                           opt subtitle "HI-TECH Software Omniscient Code Generator (Lite mode) build 49521"
    53  0002                     PCL equ 02h ;# 
    54                           opt subtitle "HI-TECH Software Omniscient Code Generator (Lite mode) build 49521"
    55  0003                     STATUS equ 03h ;# 
    56                           opt subtitle "HI-TECH Software Omniscient Code Generator (Lite mode) build 49521"
    57  0004                     FSR0L equ 04h ;# 
    58                           opt subtitle "HI-TECH Software Omniscient Code Generator (Lite mode) build 49521"
    59  0005                     FSR0H equ 05h ;# 
    60                           opt subtitle "HI-TECH Software Omniscient Code Generator (Lite mode) build 49521"
    61  0006                     FSR1L equ 06h ;# 
    62                           opt subtitle "HI-TECH Software Omniscient Code Generator (Lite mode) build 49521"
    63  0007                     FSR1H equ 07h ;# 
    64                           opt subtitle "HI-TECH Software Omniscient Code Generator (Lite mode) build 49521"
    65  0008                     BSR equ 08h ;# 
    66                           opt subtitle "HI-TECH Software Omniscient Code Generator (Lite mode) build 49521"
    67  0009                     WREG equ 09h ;# 
    68                           opt subtitle "HI-TECH Software Omniscient Code Generator (Lite mode) build 49521"
    69  000A                     PCLATH equ 0Ah ;# 
    70                           opt subtitle "HI-TECH Software Omniscient Code Generator (Lite mode) build 49521"
    71  000B                     INTCON equ 0Bh ;# 
    72                           opt subtitle "HI-TECH Software Omniscient Code Generator (Lite mode) build 49521"
    73  000C                     PORTA equ 0Ch ;# 
    74                           opt subtitle "HI-TECH Software Omniscient Code Generator (Lite mode) build 49521"
    75  000E                     PORTC equ 0Eh ;# 
    76                           opt subtitle "HI-TECH Software Omniscient Code Generator (Lite mode) build 49521"
    77  0011                     PIR1 equ 011h ;# 
    78                           opt subtitle "HI-TECH Software Omniscient Code Generator (Lite mode) build 49521"
    79  0012                     PIR2 equ 012h ;# 
    80                           opt subtitle "HI-TECH Software Omniscient Code Generator (Lite mode) build 49521"
    81  0013                     PIR3 equ 013h ;# 
    82                           opt subtitle "HI-TECH Software Omniscient Code Generator (Lite mode) build 49521"
    83  0015                     TMR0 equ 015h ;# 
    84                           opt subtitle "HI-TECH Software Omniscient Code Generator (Lite mode) build 49521"
    85  0016                     TMR1 equ 016h ;# 
    86                           opt subtitle "HI-TECH Software Omniscient Code Generator (Lite mode) build 49521"
    87  0016                     TMR1L equ 016h ;# 
    88                           opt subtitle "HI-TECH Software Omniscient Code Generator (Lite mode) build 49521"
    89  0017                     TMR1H equ 017h ;# 
    90                           opt subtitle "HI-TECH Software Omniscient Code Generator (Lite mode) build 49521"
    91  0018                     T1CON equ 018h ;# 
    92                           opt subtitle "HI-TECH Software Omniscient Code Generator (Lite mode) build 49521"
    93  0019                     T1GCON equ 019h ;# 
    94                           opt subtitle "HI-TECH Software Omniscient Code Generator (Lite mode) build 49521"
    95  001A                     TMR2 equ 01Ah ;# 
    96                           opt subtitle "HI-TECH Software Omniscient Code Generator (Lite mode) build 49521"
    97  001B                     PR2 equ 01Bh ;# 
    98                           opt subtitle "HI-TECH Software Omniscient Code Generator (Lite mode) build 49521"
    99  001C                     T2CON equ 01Ch ;# 
   100                           opt subtitle "HI-TECH Software Omniscient Code Generator (Lite mode) build 49521"
   101  008C                     TRISA equ 08Ch ;# 
   102                           opt subtitle "HI-TECH Software Omniscient Code Generator (Lite mode) build 49521"
   103  008E                     TRISC equ 08Eh ;# 
   104                           opt subtitle "HI-TECH Software Omniscient Code Generator (Lite mode) build 49521"
   105  0091                     PIE1 equ 091h ;# 
   106                           opt subtitle "HI-TECH Software Omniscient Code Generator (Lite mode) build 49521"
   107  0092                     PIE2 equ 092h ;# 
   108                           opt subtitle "HI-TECH Software Omniscient Code Generator (Lite mode) build 49521"
   109  0093                     PIE3 equ 093h ;# 
   110                           opt subtitle "HI-TECH Software Omniscient Code Generator (Lite mode) build 49521"
   111  0095                     OPTION_REG equ 095h ;# 
   112                           opt subtitle "HI-TECH Software Omniscient Code Generator (Lite mode) build 49521"
   113  0096                     PCON equ 096h ;# 
   114                           opt subtitle "HI-TECH Software Omniscient Code Generator (Lite mode) build 49521"
   115  0097                     WDTCON equ 097h ;# 
   116                           opt subtitle "HI-TECH Software Omniscient Code Generator (Lite mode) build 49521"
   117  0099                     OSCCON equ 099h ;# 
   118                           opt subtitle "HI-TECH Software Omniscient Code Generator (Lite mode) build 49521"
   119  009A                     OSCSTAT equ 09Ah ;# 
   120                           opt subtitle "HI-TECH Software Omniscient Code Generator (Lite mode) build 49521"
   121  009B                     ADRES equ 09Bh ;# 
   122                           opt subtitle "HI-TECH Software Omniscient Code Generator (Lite mode) build 49521"
   123  009B                     ADRESL equ 09Bh ;# 
   124                           opt subtitle "HI-TECH Software Omniscient Code Generator (Lite mode) build 49521"
   125  009C                     ADRESH equ 09Ch ;# 
   126                           opt subtitle "HI-TECH Software Omniscient Code Generator (Lite mode) build 49521"
   127  009D                     ADCON0 equ 09Dh ;# 
   128                           opt subtitle "HI-TECH Software Omniscient Code Generator (Lite mode) build 49521"
   129  009E                     ADCON1 equ 09Eh ;# 
   130                           opt subtitle "HI-TECH Software Omniscient Code Generator (Lite mode) build 49521"
   131  009F                     ADCON2 equ 09Fh ;# 
   132                           opt subtitle "HI-TECH Software Omniscient Code Generator (Lite mode) build 49521"
   133  010C                     LATA equ 010Ch ;# 
   134                           opt subtitle "HI-TECH Software Omniscient Code Generator (Lite mode) build 49521"
   135  010E                     LATC equ 010Eh ;# 
   136                           opt subtitle "HI-TECH Software Omniscient Code Generator (Lite mode) build 49521"
   137  0111                     CM1CON0 equ 0111h ;# 
   138                           opt subtitle "HI-TECH Software Omniscient Code Generator (Lite mode) build 49521"
   139  0112                     CM1CON1 equ 0112h ;# 
   140                           opt subtitle "HI-TECH Software Omniscient Code Generator (Lite mode) build 49521"
   141  0113                     CM2CON0 equ 0113h ;# 
   142                           opt subtitle "HI-TECH Software Omniscient Code Generator (Lite mode) build 49521"
   143  0114                     CM2CON1 equ 0114h ;# 
   144                           opt subtitle "HI-TECH Software Omniscient Code Generator (Lite mode) build 49521"
   145  0115                     CMOUT equ 0115h ;# 
   146                           opt subtitle "HI-TECH Software Omniscient Code Generator (Lite mode) build 49521"
   147  0116                     BORCON equ 0116h ;# 
   148                           opt subtitle "HI-TECH Software Omniscient Code Generator (Lite mode) build 49521"
   149  0117                     FVRCON equ 0117h ;# 
   150                           opt subtitle "HI-TECH Software Omniscient Code Generator (Lite mode) build 49521"
   151  0118                     DACCON0 equ 0118h ;# 
   152                           opt subtitle "HI-TECH Software Omniscient Code Generator (Lite mode) build 49521"
   153  0119                     DACCON1 equ 0119h ;# 
   154                           opt subtitle "HI-TECH Software Omniscient Code Generator (Lite mode) build 49521"
   155  011D                     APFCON equ 011Dh ;# 
   156                           opt subtitle "HI-TECH Software Omniscient Code Generator (Lite mode) build 49521"
   157  018C                     ANSELA equ 018Ch ;# 
   158                           opt subtitle "HI-TECH Software Omniscient Code Generator (Lite mode) build 49521"
   159  018E                     ANSELC equ 018Eh ;# 
   160                           opt subtitle "HI-TECH Software Omniscient Code Generator (Lite mode) build 49521"
   161  0191                     PMADR equ 0191h ;# 
   162                           opt subtitle "HI-TECH Software Omniscient Code Generator (Lite mode) build 49521"
   163  0191                     PMADRL equ 0191h ;# 
   164                           opt subtitle "HI-TECH Software Omniscient Code Generator (Lite mode) build 49521"
   165  0192                     PMADRH equ 0192h ;# 
   166                           opt subtitle "HI-TECH Software Omniscient Code Generator (Lite mode) build 49521"
   167  0193                     PMDAT equ 0193h ;# 
   168                           opt subtitle "HI-TECH Software Omniscient Code Generator (Lite mode) build 49521"
   169  0193                     PMDATL equ 0193h ;# 
   170                           opt subtitle "HI-TECH Software Omniscient Code Generator (Lite mode) build 49521"
   171  0194                     PMDATH equ 0194h ;# 
   172                           opt subtitle "HI-TECH Software Omniscient Code Generator (Lite mode) build 49521"
   173  0195                     PMCON1 equ 0195h ;# 
   174                           opt subtitle "HI-TECH Software Omniscient Code Generator (Lite mode) build 49521"
   175  0196                     PMCON2 equ 0196h ;# 
   176                           opt subtitle "HI-TECH Software Omniscient Code Generator (Lite mode) build 49521"
   177  0197                     VREGCON equ 0197h ;# 
   178                           opt subtitle "HI-TECH Software Omniscient Code Generator (Lite mode) build 49521"
   179  020C                     WPUA equ 020Ch ;# 
   180                           opt subtitle "HI-TECH Software Omniscient Code Generator (Lite mode) build 49521"
   181  0211                     SSP1BUF equ 0211h ;# 
   182                           opt subtitle "HI-TECH Software Omniscient Code Generator (Lite mode) build 49521"
   183  0211                     SSPBUF equ 0211h ;# 
   184                           opt subtitle "HI-TECH Software Omniscient Code Generator (Lite mode) build 49521"
   185  0212                     SSP1ADD equ 0212h ;# 
   186                           opt subtitle "HI-TECH Software Omniscient Code Generator (Lite mode) build 49521"
   187  0212                     SSPADD equ 0212h ;# 
   188                           opt subtitle "HI-TECH Software Omniscient Code Generator (Lite mode) build 49521"
   189  0213                     SSP1MSK equ 0213h ;# 
   190                           opt subtitle "HI-TECH Software Omniscient Code Generator (Lite mode) build 49521"
   191  0213                     SSPMSK equ 0213h ;# 
   192                           opt subtitle "HI-TECH Software Omniscient Code Generator (Lite mode) build 49521"
   193  0214                     SSP1STAT equ 0214h ;# 
   194                           opt subtitle "HI-TECH Software Omniscient Code Generator (Lite mode) build 49521"
   195  0214                     SSPSTAT equ 0214h ;# 
   196                           opt subtitle "HI-TECH Software Omniscient Code Generator (Lite mode) build 49521"
   197  0215                     SSP1CON1 equ 0215h ;# 
   198                           opt subtitle "HI-TECH Software Omniscient Code Generator (Lite mode) build 49521"
   199  0215                     SSPCON equ 0215h ;# 
   200                           opt subtitle "HI-TECH Software Omniscient Code Generator (Lite mode) build 49521"
   201  0215                     SSPCON1 equ 0215h ;# 
   202                           opt subtitle "HI-TECH Software Omniscient Code Generator (Lite mode) build 49521"
   203  0216                     SSP1CON2 equ 0216h ;# 
   204                           opt subtitle "HI-TECH Software Omniscient Code Generator (Lite mode) build 49521"
   205  0216                     SSPCON2 equ 0216h ;# 
   206                           opt subtitle "HI-TECH Software Omniscient Code Generator (Lite mode) build 49521"
   207  0217                     SSP1CON3 equ 0217h ;# 
   208                           opt subtitle "HI-TECH Software Omniscient Code Generator (Lite mode) build 49521"
   209  0217                     SSPCON3 equ 0217h ;# 
   210                           opt subtitle "HI-TECH Software Omniscient Code Generator (Lite mode) build 49521"
   211  0391                     IOCAP equ 0391h ;# 
   212                           opt subtitle "HI-TECH Software Omniscient Code Generator (Lite mode) build 49521"
   213  0392                     IOCAN equ 0392h ;# 
   214                           opt subtitle "HI-TECH Software Omniscient Code Generator (Lite mode) build 49521"
   215  0393                     IOCAF equ 0393h ;# 
   216                           opt subtitle "HI-TECH Software Omniscient Code Generator (Lite mode) build 49521"
   217  0498                     NCO1ACC equ 0498h ;# 
   218                           opt subtitle "HI-TECH Software Omniscient Code Generator (Lite mode) build 49521"
   219  0498                     NCO1ACCL equ 0498h ;# 
   220                           opt subtitle "HI-TECH Software Omniscient Code Generator (Lite mode) build 49521"
   221  0499                     NCO1ACCH equ 0499h ;# 
   222                           opt subtitle "HI-TECH Software Omniscient Code Generator (Lite mode) build 49521"
   223  049A                     NCO1ACCU equ 049Ah ;# 
   224                           opt subtitle "HI-TECH Software Omniscient Code Generator (Lite mode) build 49521"
   225  049B                     NCO1INC equ 049Bh ;# 
   226                           opt subtitle "HI-TECH Software Omniscient Code Generator (Lite mode) build 49521"
   227  049B                     NCO1INCL equ 049Bh ;# 
   228                           opt subtitle "HI-TECH Software Omniscient Code Generator (Lite mode) build 49521"
   229  049C                     NCO1INCH equ 049Ch ;# 
   230                           opt subtitle "HI-TECH Software Omniscient Code Generator (Lite mode) build 49521"
   231  049E                     NCO1CON equ 049Eh ;# 
   232                           opt subtitle "HI-TECH Software Omniscient Code Generator (Lite mode) build 49521"
   233  049F                     NCO1CLK equ 049Fh ;# 
   234                           opt subtitle "HI-TECH Software Omniscient Code Generator (Lite mode) build 49521"
   235  0611                     PWM1DCL equ 0611h ;# 
   236                           opt subtitle "HI-TECH Software Omniscient Code Generator (Lite mode) build 49521"
   237  0612                     PWM1DCH equ 0612h ;# 
   238                           opt subtitle "HI-TECH Software Omniscient Code Generator (Lite mode) build 49521"
   239  0613                     PWM1CON equ 0613h ;# 
   240                           opt subtitle "HI-TECH Software Omniscient Code Generator (Lite mode) build 49521"
   241  0613                     PWM1CON0 equ 0613h ;# 
   242                           opt subtitle "HI-TECH Software Omniscient Code Generator (Lite mode) build 49521"
   243  0614                     PWM2DCL equ 0614h ;# 
   244                           opt subtitle "HI-TECH Software Omniscient Code Generator (Lite mode) build 49521"
   245  0615                     PWM2DCH equ 0615h ;# 
   246                           opt subtitle "HI-TECH Software Omniscient Code Generator (Lite mode) build 49521"
   247  0616                     PWM2CON equ 0616h ;# 
   248                           opt subtitle "HI-TECH Software Omniscient Code Generator (Lite mode) build 49521"
   249  0616                     PWM2CON0 equ 0616h ;# 
   250                           opt subtitle "HI-TECH Software Omniscient Code Generator (Lite mode) build 49521"
   251  0617                     PWM3DCL equ 0617h ;# 
   252                           opt subtitle "HI-TECH Software Omniscient Code Generator (Lite mode) build 49521"
   253  0618                     PWM3DCH equ 0618h ;# 
   254                           opt subtitle "HI-TECH Software Omniscient Code Generator (Lite mode) build 49521"
   255  0619                     PWM3CON equ 0619h ;# 
   256                           opt subtitle "HI-TECH Software Omniscient Code Generator (Lite mode) build 49521"
   257  0619                     PWM3CON0 equ 0619h ;# 
   258                           opt subtitle "HI-TECH Software Omniscient Code Generator (Lite mode) build 49521"
   259  061A                     PWM4DCL equ 061Ah ;# 
   260                           opt subtitle "HI-TECH Software Omniscient Code Generator (Lite mode) build 49521"
   261  061B                     PWM4DCH equ 061Bh ;# 
   262                           opt subtitle "HI-TECH Software Omniscient Code Generator (Lite mode) build 49521"
   263  061C                     PWM4CON equ 061Ch ;# 
   264                           opt subtitle "HI-TECH Software Omniscient Code Generator (Lite mode) build 49521"
   265  061C                     PWM4CON0 equ 061Ch ;# 
   266                           opt subtitle "HI-TECH Software Omniscient Code Generator (Lite mode) build 49521"
   267  0691                     CWG1DBR equ 0691h ;# 
   268                           opt subtitle "HI-TECH Software Omniscient Code Generator (Lite mode) build 49521"
   269  0692                     CWG1DBF equ 0692h ;# 
   270                           opt subtitle "HI-TECH Software Omniscient Code Generator (Lite mode) build 49521"
   271  0693                     CWG1CON0 equ 0693h ;# 
   272                           opt subtitle "HI-TECH Software Omniscient Code Generator (Lite mode) build 49521"
   273  0694                     CWG1CON1 equ 0694h ;# 
   274                           opt subtitle "HI-TECH Software Omniscient Code Generator (Lite mode) build 49521"
   275  0695                     CWG1CON2 equ 0695h ;# 
   276                           opt subtitle "HI-TECH Software Omniscient Code Generator (Lite mode) build 49521"
   277  0F0F                     CLCDATA equ 0F0Fh ;# 
   278                           opt subtitle "HI-TECH Software Omniscient Code Generator (Lite mode) build 49521"
   279  0F10                     CLC1CON equ 0F10h ;# 
   280                           opt subtitle "HI-TECH Software Omniscient Code Generator (Lite mode) build 49521"
   281  0F11                     CLC1POL equ 0F11h ;# 
   282                           opt subtitle "HI-TECH Software Omniscient Code Generator (Lite mode) build 49521"
   283  0F12                     CLC1SEL0 equ 0F12h ;# 
   284                           opt subtitle "HI-TECH Software Omniscient Code Generator (Lite mode) build 49521"
   285  0F13                     CLC1SEL1 equ 0F13h ;# 
   286                           opt subtitle "HI-TECH Software Omniscient Code Generator (Lite mode) build 49521"
   287  0F14                     CLC1GLS0 equ 0F14h ;# 
   288                           opt subtitle "HI-TECH Software Omniscient Code Generator (Lite mode) build 49521"
   289  0F15                     CLC1GLS1 equ 0F15h ;# 
   290                           opt subtitle "HI-TECH Software Omniscient Code Generator (Lite mode) build 49521"
   291  0F16                     CLC1GLS2 equ 0F16h ;# 
   292                           opt subtitle "HI-TECH Software Omniscient Code Generator (Lite mode) build 49521"
   293  0F17                     CLC1GLS3 equ 0F17h ;# 
   294                           opt subtitle "HI-TECH Software Omniscient Code Generator (Lite mode) build 49521"
   295  0F18                     CLC2CON equ 0F18h ;# 
   296                           opt subtitle "HI-TECH Software Omniscient Code Generator (Lite mode) build 49521"
   297  0F19                     CLC2POL equ 0F19h ;# 
   298                           opt subtitle "HI-TECH Software Omniscient Code Generator (Lite mode) build 49521"
   299  0F1A                     CLC2SEL0 equ 0F1Ah ;# 
   300                           opt subtitle "HI-TECH Software Omniscient Code Generator (Lite mode) build 49521"
   301  0F1B                     CLC2SEL1 equ 0F1Bh ;# 
   302                           opt subtitle "HI-TECH Software Omniscient Code Generator (Lite mode) build 49521"
   303  0F1C                     CLC2GLS0 equ 0F1Ch ;# 
   304                           opt subtitle "HI-TECH Software Omniscient Code Generator (Lite mode) build 49521"
   305  0F1D                     CLC2GLS1 equ 0F1Dh ;# 
   306                           opt subtitle "HI-TECH Software Omniscient Code Generator (Lite mode) build 49521"
   307  0F1E                     CLC2GLS2 equ 0F1Eh ;# 
   308                           opt subtitle "HI-TECH Software Omniscient Code Generator (Lite mode) build 49521"
   309  0F1F                     CLC2GLS3 equ 0F1Fh ;# 
   310                           opt subtitle "HI-TECH Software Omniscient Code Generator (Lite mode) build 49521"
   311  0FE3                     BSR_ICDSHAD equ 0FE3h ;# 
   312                           opt subtitle "HI-TECH Software Omniscient Code Generator (Lite mode) build 49521"
   313  0FE4                     STATUS_SHAD equ 0FE4h ;# 
   314                           opt subtitle "HI-TECH Software Omniscient Code Generator (Lite mode) build 49521"
   315  0FE5                     WREG_SHAD equ 0FE5h ;# 
   316                           opt subtitle "HI-TECH Software Omniscient Code Generator (Lite mode) build 49521"
   317  0FE6                     BSR_SHAD equ 0FE6h ;# 
   318                           opt subtitle "HI-TECH Software Omniscient Code Generator (Lite mode) build 49521"
   319  0FE7                     PCLATH_SHAD equ 0FE7h ;# 
   320                           opt subtitle "HI-TECH Software Omniscient Code Generator (Lite mode) build 49521"
   321  0FE8                     FSR0L_SHAD equ 0FE8h ;# 
   322                           opt subtitle "HI-TECH Software Omniscient Code Generator (Lite mode) build 49521"
   323  0FE9                     FSR0H_SHAD equ 0FE9h ;# 
   324                           opt subtitle "HI-TECH Software Omniscient Code Generator (Lite mode) build 49521"
   325  0FEA                     FSR1L_SHAD equ 0FEAh ;# 
   326                           opt subtitle "HI-TECH Software Omniscient Code Generator (Lite mode) build 49521"
   327  0FEB                     FSR1H_SHAD equ 0FEBh ;# 
   328                           opt subtitle "HI-TECH Software Omniscient Code Generator (Lite mode) build 49521"
   329  0FED                     STKPTR equ 0FEDh ;# 
   330                           opt subtitle "HI-TECH Software Omniscient Code Generator (Lite mode) build 49521"
   331  0FEE                     TOSL equ 0FEEh ;# 
   332                           opt subtitle "HI-TECH Software Omniscient Code Generator (Lite mode) build 49521"
   333  0FEF                     TOSH equ 0FEFh ;# 
   334                           opt subtitle "HI-TECH Software Omniscient Code Generator (Lite mode) build 49521"
   335                           
   336  000E                     _PORTCbits	set	0xE
   337                           opt subtitle "HI-TECH Software Omniscient Code Generator (Lite mode) build 49521"
   338  0099                     _OSCCONbits	set	0x99
   339                           opt subtitle "HI-TECH Software Omniscient Code Generator (Lite mode) build 49521"
   340  008E                     _TRISCbits	set	0x8E
   341                           opt subtitle "HI-TECH Software Omniscient Code Generator (Lite mode) build 49521"
   342  018E                     _ANSELCbits	set	0x18E
   343                           opt subtitle "HI-TECH Software Omniscient Code Generator (Lite mode) build 49521"
   344                           
   345  07D6                     __pmaintext:	;psect for function _main
   346                           opt subtitle "HI-TECH Software Omniscient Code Generator (Lite mode) build 49521"
   347                           
   348  0000                     __CFG_FOSC$INTOSC equ 0x0
   349                           opt subtitle "HI-TECH Software Omniscient Code Generator (Lite mode) build 49521"
   350  0000                     __CFG_MCLRE$ON equ 0x0
   351                           opt subtitle "HI-TECH Software Omniscient Code Generator (Lite mode) build 49521"
   352  0000                     __CFG_WDTE$OFF equ 0x0
   353                           opt subtitle "HI-TECH Software Omniscient Code Generator (Lite mode) build 49521"
   354  0000                     __CFG_CP$OFF equ 0x0
   355                           opt subtitle "HI-TECH Software Omniscient Code Generator (Lite mode) build 49521"
   356  0000                     __CFG_PWRTE$OFF equ 0x0
   357                           opt subtitle "HI-TECH Software Omniscient Code Generator (Lite mode) build 49521"
   358                           
   359                           opt pagewidth 120
   360                           
   361  07D4                     start_initialization:
   362                           opt subtitle "HI-TECH Software Omniscient Code Generator (Lite mode) build 49521"
   363                           
   364  07D4                     __initialization:
   365                           opt subtitle "HI-TECH Software Omniscient Code Generator (Lite mode) build 49521"
   366                           
   367                           opt pagewidth 120
   368                           
   369                           	opt lm
   370  07D4                     end_of_initialization:
   371  07D4                     __end_of__initialization:movlb 0
      + 07D4  0020               	movlb	0
   372  07D5  2FD6               ljmp _main	;jump to C main() function
   373                           opt subtitle "HI-TECH Software Omniscient Code Generator (Lite mode) build 49521"
   374                           
   375  0070                     __pcstackCOMMON:
   376  0070                     ?_main:	; 2 bytes @ 0x0
   377  0070                     main@argc:	; 2 bytes @ 0x0
   378  0070                     	ds	2
   379  0072                     main@argv:	; 2 bytes @ 0x2
   380  0072                     	ds	2
   381  0074                     ??_main:	; 0 bytes @ 0x4
   382  0074                     	ds	2
   383                           opt subtitle "HI-TECH Software Omniscient Code Generator (Lite mode) build 49521"
   384  0076                     main@i:	; 1 bytes @ 0x6
   385  0076                     	ds	1
   386                           opt subtitle "HI-TECH Software Omniscient Code Generator (Lite mode) build 49521"
   387                           
   388                           opt pagewidth 120
   389                           
   390                           	opt lm
   391                           
   392                           	processor	16F1503
   393                           clrc	macro
   394                           	bcf	3,0
   395                           	endm
   396                           clrz	macro
   397                           	bcf	3,2
   398                           	endm
   399                           setc	macro
   400                           	bsf	3,0
   401                           	endm
   402                           setz	macro
   403                           	bsf	3,2
   404                           	endm
   405                           skipc	macro
   406                           	btfss	3,0
   407                           	endm
   408                           skipz	macro
   409                           	btfss	3,2
   410                           	endm
   411                           skipnc	macro
   412                           	btfsc	3,0
   413                           	endm
   414                           skipnz	macro
   415                           	btfsc	3,2
   416                           	endm
   417                           indf	equ	0
   418                           indf0	equ	0
   419                           indf1	equ	1
   420                           pc	equ	2
   421                           pcl	equ	2
   422                           status	equ	3
   423                           fsr0l	equ	4
   424                           fsr0h	equ	5
   425                           fsr1l	equ	6
   426                           fsr1h	equ	7
   427                           bsr	equ	8
   428                           wreg	equ	9
   429                           intcon	equ	11
   430                           c	equ	1
   431                           z	equ	0
   432                           pclath	equ	10
   433                           # 46 "/Applications/microchip/xc8/v1.12/include/pic16f1503.h"
   434                           INDF0 equ 00h ;# 
   435                           # 65 "/Applications/microchip/xc8/v1.12/include/pic16f1503.h"
   436                           INDF1 equ 01h ;# 
   437                           # 84 "/Applications/microchip/xc8/v1.12/include/pic16f1503.h"
   438                           PCL equ 02h ;# 
   439                           # 103 "/Applications/microchip/xc8/v1.12/include/pic16f1503.h"
   440                           STATUS equ 03h ;# 
   441                           # 166 "/Applications/microchip/xc8/v1.12/include/pic16f1503.h"
   442                           FSR0L equ 04h ;# 
   443                           # 185 "/Applications/microchip/xc8/v1.12/include/pic16f1503.h"
   444                           FSR0H equ 05h ;# 
   445                           # 207 "/Applications/microchip/xc8/v1.12/include/pic16f1503.h"
   446                           FSR1L equ 06h ;# 
   447                           # 226 "/Applications/microchip/xc8/v1.12/include/pic16f1503.h"
   448                           FSR1H equ 07h ;# 
   449                           # 245 "/Applications/microchip/xc8/v1.12/include/pic16f1503.h"
   450                           BSR equ 08h ;# 
   451                           # 296 "/Applications/microchip/xc8/v1.12/include/pic16f1503.h"
   452                           WREG equ 09h ;# 
   453                           # 315 "/Applications/microchip/xc8/v1.12/include/pic16f1503.h"
   454                           PCLATH equ 0Ah ;# 
   455                           # 334 "/Applications/microchip/xc8/v1.12/include/pic16f1503.h"
   456                           INTCON equ 0Bh ;# 
   457                           # 411 "/Applications/microchip/xc8/v1.12/include/pic16f1503.h"
   458                           PORTA equ 0Ch ;# 
   459                           # 460 "/Applications/microchip/xc8/v1.12/include/pic16f1503.h"
   460                           PORTC equ 0Eh ;# 
   461                           # 509 "/Applications/microchip/xc8/v1.12/include/pic16f1503.h"
   462                           PIR1 equ 011h ;# 
   463                           # 554 "/Applications/microchip/xc8/v1.12/include/pic16f1503.h"
   464                           PIR2 equ 012h ;# 
   465                           # 593 "/Applications/microchip/xc8/v1.12/include/pic16f1503.h"
   466                           PIR3 equ 013h ;# 
   467                           # 618 "/Applications/microchip/xc8/v1.12/include/pic16f1503.h"
   468                           TMR0 equ 015h ;# 
   469                           # 637 "/Applications/microchip/xc8/v1.12/include/pic16f1503.h"
   470                           TMR1 equ 016h ;# 
   471                           # 643 "/Applications/microchip/xc8/v1.12/include/pic16f1503.h"
   472                           TMR1L equ 016h ;# 
   473                           # 662 "/Applications/microchip/xc8/v1.12/include/pic16f1503.h"
   474                           TMR1H equ 017h ;# 
   475                           # 681 "/Applications/microchip/xc8/v1.12/include/pic16f1503.h"
   476                           T1CON equ 018h ;# 
   477                           # 752 "/Applications/microchip/xc8/v1.12/include/pic16f1503.h"
   478                           T1GCON equ 019h ;# 
   479                           # 821 "/Applications/microchip/xc8/v1.12/include/pic16f1503.h"
   480                           TMR2 equ 01Ah ;# 
   481                           # 840 "/Applications/microchip/xc8/v1.12/include/pic16f1503.h"
   482                           PR2 equ 01Bh ;# 
   483                           # 859 "/Applications/microchip/xc8/v1.12/include/pic16f1503.h"
   484                           T2CON equ 01Ch ;# 
   485                           # 929 "/Applications/microchip/xc8/v1.12/include/pic16f1503.h"
   486                           TRISA equ 08Ch ;# 
   487                           # 978 "/Applications/microchip/xc8/v1.12/include/pic16f1503.h"
   488                           TRISC equ 08Eh ;# 
   489                           # 1027 "/Applications/microchip/xc8/v1.12/include/pic16f1503.h"
   490                           PIE1 equ 091h ;# 
   491                           # 1072 "/Applications/microchip/xc8/v1.12/include/pic16f1503.h"
   492                           PIE2 equ 092h ;# 
   493                           # 1111 "/Applications/microchip/xc8/v1.12/include/pic16f1503.h"
   494                           PIE3 equ 093h ;# 
   495                           # 1136 "/Applications/microchip/xc8/v1.12/include/pic16f1503.h"
   496                           OPTION_REG equ 095h ;# 
   497                           # 1218 "/Applications/microchip/xc8/v1.12/include/pic16f1503.h"
   498                           PCON equ 096h ;# 
   499                           # 1274 "/Applications/microchip/xc8/v1.12/include/pic16f1503.h"
   500                           WDTCON equ 097h ;# 
   501                           # 1332 "/Applications/microchip/xc8/v1.12/include/pic16f1503.h"
   502                           OSCCON equ 099h ;# 
   503                           # 1397 "/Applications/microchip/xc8/v1.12/include/pic16f1503.h"
   504                           OSCSTAT equ 09Ah ;# 
   505                           # 1429 "/Applications/microchip/xc8/v1.12/include/pic16f1503.h"
   506                           ADRES equ 09Bh ;# 
   507                           # 1435 "/Applications/microchip/xc8/v1.12/include/pic16f1503.h"
   508                           ADRESL equ 09Bh ;# 
   509                           # 1454 "/Applications/microchip/xc8/v1.12/include/pic16f1503.h"
   510                           ADRESH equ 09Ch ;# 
   511                           # 1473 "/Applications/microchip/xc8/v1.12/include/pic16f1503.h"
   512                           ADCON0 equ 09Dh ;# 
   513                           # 1552 "/Applications/microchip/xc8/v1.12/include/pic16f1503.h"
   514                           ADCON1 equ 09Eh ;# 
   515                           # 1598 "/Applications/microchip/xc8/v1.12/include/pic16f1503.h"
   516                           ADCON2 equ 09Fh ;# 
   517                           # 1645 "/Applications/microchip/xc8/v1.12/include/pic16f1503.h"
   518                           LATA equ 010Ch ;# 
   519                           # 1689 "/Applications/microchip/xc8/v1.12/include/pic16f1503.h"
   520                           LATC equ 010Eh ;# 
   521                           # 1738 "/Applications/microchip/xc8/v1.12/include/pic16f1503.h"
   522                           CM1CON0 equ 0111h ;# 
   523                           # 1794 "/Applications/microchip/xc8/v1.12/include/pic16f1503.h"
   524                           CM1CON1 equ 0112h ;# 
   525                           # 1865 "/Applications/microchip/xc8/v1.12/include/pic16f1503.h"
   526                           CM2CON0 equ 0113h ;# 
   527                           # 1921 "/Applications/microchip/xc8/v1.12/include/pic16f1503.h"
   528                           CM2CON1 equ 0114h ;# 
   529                           # 1992 "/Applications/microchip/xc8/v1.12/include/pic16f1503.h"
   530                           CMOUT equ 0115h ;# 
   531                           # 2017 "/Applications/microchip/xc8/v1.12/include/pic16f1503.h"
   532                           BORCON equ 0116h ;# 
   533                           # 2049 "/Applications/microchip/xc8/v1.12/include/pic16f1503.h"
   534                           FVRCON equ 0117h ;# 
   535                           # 2124 "/Applications/microchip/xc8/v1.12/include/pic16f1503.h"
   536                           DACCON0 equ 0118h ;# 
   537                           # 2164 "/Applications/microchip/xc8/v1.12/include/pic16f1503.h"
   538                           DACCON1 equ 0119h ;# 
   539                           # 2215 "/Applications/microchip/xc8/v1.12/include/pic16f1503.h"
   540                           APFCON equ 011Dh ;# 
   541                           # 2259 "/Applications/microchip/xc8/v1.12/include/pic16f1503.h"
   542                           ANSELA equ 018Ch ;# 
   543                           # 2305 "/Applications/microchip/xc8/v1.12/include/pic16f1503.h"
   544                           ANSELC equ 018Eh ;# 
   545                           # 2350 "/Applications/microchip/xc8/v1.12/include/pic16f1503.h"
   546                           PMADR equ 0191h ;# 
   547                           # 2356 "/Applications/microchip/xc8/v1.12/include/pic16f1503.h"
   548                           PMADRL equ 0191h ;# 
   549                           # 2375 "/Applications/microchip/xc8/v1.12/include/pic16f1503.h"
   550                           PMADRH equ 0192h ;# 
   551                           # 2394 "/Applications/microchip/xc8/v1.12/include/pic16f1503.h"
   552                           PMDAT equ 0193h ;# 
   553                           # 2400 "/Applications/microchip/xc8/v1.12/include/pic16f1503.h"
   554                           PMDATL equ 0193h ;# 
   555                           # 2419 "/Applications/microchip/xc8/v1.12/include/pic16f1503.h"
   556  002A                     	__size_of_main	equ	__end_of_main-_main
   557                           opt subtitle "HI-TECH Software Omniscient Code Generator (Lite mode) build 49521"
   558  07D6                     _main:	
   559                           opt subtitle "HI-TECH Software Omniscient Code Generator (Lite mode) build 49521"
   560                           
   561                           opt pagewidth 120
   562                           
   563  07D6                     l389:	
   564                           opt subtitle "HI-TECH Software Omniscient Code Generator (Lite mode) build 49521"
   565  07D6  01F6               	clrf	(main@i)
   566                           opt subtitle "HI-TECH Software Omniscient Code Generator (Lite mode) build 49521"
   567                           
   568  07D7  0023               	movlb 3	; select bank3
   569  07D8  118E               	bcf	(398)^0180h,3	;volatile
   570                           opt subtitle "HI-TECH Software Omniscient Code Generator (Lite mode) build 49521"
   571                           
   572  07D9  0021               	movlb 1	; select bank1
   573  07DA  118E               	bcf	(142)^080h,3	;volatile
   574                           opt subtitle "HI-TECH Software Omniscient Code Generator (Lite mode) build 49521"
   575                           
   576  07DB  0020               	movlb 0	; select bank0
   577  07DC  118E               	bcf	(14),3	;volatile
   578                           opt subtitle "HI-TECH Software Omniscient Code Generator (Lite mode) build 49521"
   579                           
   580  07DD                     l391:	
   581                           opt subtitle "HI-TECH Software Omniscient Code Generator (Lite mode) build 49521"
   582  07DD  0021               	movlb 1	; select bank1
   583  07DE  0819               	movf	(153)^080h,w	;volatile
   584  07DF  39FC               	andlw	not (((1<<2)-1)<<0)
   585  07E0  3802               	iorlw	(02h & ((1<<2)-1))<<0
   586  07E1  0099               	movwf	(153)^080h	;volatile
   587                           opt subtitle "HI-TECH Software Omniscient Code Generator (Lite mode) build 49521"
   588                           
   589  07E2  0819               	movf	(153)^080h,w	;volatile
   590  07E3  3987               	andlw	not (((1<<4)-1)<<3)
   591  07E4  3808               	iorlw	(01h & ((1<<4)-1))<<3
   592  07E5  0099               	movwf	(153)^080h	;volatile
   593  07E6  2FE7               	goto	l393
   594                           opt subtitle "HI-TECH Software Omniscient Code Generator (Lite mode) build 49521"
   595                           
   596                           opt pagewidth 120
   597  07E7                     l13:	
   598                           opt subtitle "HI-TECH Software Omniscient Code Generator (Lite mode) build 49521"
   599                           
   600  07E7                     l393:	
   601                           opt subtitle "HI-TECH Software Omniscient Code Generator (Lite mode) build 49521"
   602                           
   603  07E7  300A               movlw	10
   604  07E8  00F5               movwf	((??_main+0)+0+1),f
   605  07E9  3015               	movlw	21
   606  07EA  00F4               movwf	((??_main+0)+0),f
   607  07EB                     u17:
   608  07EB  0BF4               	decfsz	((??_main+0)+0),f
   609  07EC  2FEB               	goto	u17
   610  07ED  0BF5               	decfsz	((??_main+0)+0+1),f
   611  07EE  2FEB               	goto	u17
   612  07EF  2FF0               	nop2
   613                           opt subtitle "HI-TECH Software Omniscient Code Generator (Lite mode) build 49521"
   614                           
   615                           opt pagewidth 120
   616                           
   617  07F0                     l395:	
   618                           opt subtitle "HI-TECH Software Omniscient Code Generator (Lite mode) build 49521"
   619  07F0  0020               	movlb 0	; select bank0
   620  07F1  118E               	bcf	(14),3	;volatile
   621                           opt subtitle "HI-TECH Software Omniscient Code Generator (Lite mode) build 49521"
   622                           
   623  07F2                     l397:	
   624                           opt subtitle "HI-TECH Software Omniscient Code Generator (Lite mode) build 49521"
   625                           
   626  07F2  300A               movlw	10
   627  07F3  00F5               movwf	((??_main+0)+0+1),f
   628  07F4  3015               	movlw	21
   629  07F5  00F4               movwf	((??_main+0)+0),f
   630  07F6                     u27:
   631  07F6  0BF4               	decfsz	((??_main+0)+0),f
   632  07F7  2FF6               	goto	u27
   633  07F8  0BF5               	decfsz	((??_main+0)+0+1),f
   634  07F9  2FF6               	goto	u27
   635  07FA  2FFB               	nop2
   636                           opt subtitle "HI-TECH Software Omniscient Code Generator (Lite mode) build 49521"
   637                           
   638                           opt pagewidth 120
   639                           
   640  07FB                     l399:	
   641                           opt subtitle "HI-TECH Software Omniscient Code Generator (Lite mode) build 49521"
   642  07FB  0020               	movlb 0	; select bank0
   643  07FC  158E               	bsf	(14),3	;volatile
   644  07FD  2FE7               	goto	l393
   645                           opt subtitle "HI-TECH Software Omniscient Code Generator (Lite mode) build 49521"
   646                           
   647  07FE                     l14:	
   648                           opt subtitle "HI-TECH Software Omniscient Code Generator (Lite mode) build 49521"
   649  07FE  2FE7               	goto	l393
   650                           opt subtitle "HI-TECH Software Omniscient Code Generator (Lite mode) build 49521"
   651  07FF                     l15:	
   652                           opt subtitle "HI-TECH Software Omniscient Code Generator (Lite mode) build 49521"
   653                           
   654                           opt pagewidth 120
   655                           
   656                           	opt lm
   657  07FF                     l16:	
   658                           opt subtitle "HI-TECH Software Omniscient Code Generator (Lite mode) build 49521"
   659  07FF  2801               	ljmp	start
   660                           opt subtitle "HI-TECH Software Omniscient Code Generator (Lite mode) build 49521"
   661                           
   662  0800                     	__end_of_main:
   663                           opt subtitle "HI-TECH Software Omniscient Code Generator (Lite mode) build 49521"
   664                           
   665                           opt pagewidth 120
   666  007E                     	btemp set 07Eh
   667                           opt subtitle "HI-TECH Software Omniscient Code Generator (Lite mode) build 49521"
   668                           
   669                           opt pagewidth 120
   670  007E                     	wtemp0 set btemp


Data Sizes:
    Strings     0
    Constant    0
    Data        0
    BSS         0
    Persistent  0
    Stack       0

Auto Spaces:
    Space          Size  Autos    Used
    COMMON           14      7       7
    BANK0            80      0       0
    BANK1            32      0       0

Pointer List with Targets:

    None.

Critical Paths under _main in COMMON

    None.

Critical Paths under _main in BANK0

    None.

Critical Paths under _main in BANK1

    None.

Call Graph Tables:

 ---------------------------------------------------------------------------------
 (Depth) Function   	        Calls       Base Space   Used Autos Params    Refs
 ---------------------------------------------------------------------------------
 (0) _main                                                 7     3      4       0
                                              0 COMMON     7     3      4
 ---------------------------------------------------------------------------------
 Estimated maximum stack depth 0
 ---------------------------------------------------------------------------------

 Call Graph Graphs:

 _main (ROOT)

 Address spaces:
Name               Size   Autos  Total    Cost      Usage
BIGRAM              70      0       0       0        0.0%
NULL                 0      0       0       0        0.0%
CODE                 0      0       0       0        0.0%
BITCOMMON            E      0       0       1        0.0%
BITSFR0              0      0       0       1        0.0%
SFR0                 0      0       0       1        0.0%
COMMON               E      7       7       2       50.0%
BITSFR1              0      0       0       2        0.0%
SFR1                 0      0       0       2        0.0%
BITSFR2              0      0       0       3        0.0%
SFR2                 0      0       0       3        0.0%
STACK                0      0       0       3        0.0%
BITSFR3              0      0       0       4        0.0%
SFR3                 0      0       0       4        0.0%
ABS                  0      0       0       4        0.0%
BITBANK0            50      0       0       5        0.0%
BITSFR4              0      0       0       5        0.0%
SFR4                 0      0       0       5        0.0%
BANK0               50      0       0       6        0.0%
BITSFR5              0      0       0       6        0.0%
SFR5                 0      0       0       6        0.0%
BITBANK1            20      0       0       7        0.0%
BITSFR6              0      0       0       7        0.0%
SFR6                 0      0       0       7        0.0%
BANK1               20      0       0       8        0.0%
BITSFR7              0      0       0       8        0.0%
SFR7                 0      0       0       8        0.0%
BITSFR8              0      0       0       9        0.0%
SFR8                 0      0       0       9        0.0%
DATA                 0      0       0       9        0.0%
BITSFR9              0      0       0      10        0.0%
SFR9                 0      0       0      10        0.0%
BITSFR10             0      0       0      11        0.0%
SFR10                0      0       0      11        0.0%
BITSFR11             0      0       0      12        0.0%
SFR11                0      0       0      12        0.0%
BITSFR12             0      0       0      13        0.0%
SFR12                0      0       0      13        0.0%
BITSFR13             0      0       0      14        0.0%
SFR13                0      0       0      14        0.0%
BITSFR14             0      0       0      15        0.0%
SFR14                0      0       0      15        0.0%
BITSFR15             0      0       0      16        0.0%
SFR15                0      0       0      16        0.0%
BITSFR16             0      0       0      17        0.0%
SFR16                0      0       0      17        0.0%
BITSFR17             0      0       0      18        0.0%
SFR17                0      0       0      18        0.0%
BITSFR18             0      0       0      19        0.0%
SFR18                0      0       0      19        0.0%
BITSFR19             0      0       0      20        0.0%
SFR19                0      0       0      20        0.0%
BITSFR20             0      0       0      21        0.0%
SFR20                0      0       0      21        0.0%
BITSFR21             0      0       0      22        0.0%
SFR21                0      0       0      22        0.0%
BITSFR22             0      0       0      23        0.0%
SFR22                0      0       0      23        0.0%
BITSFR23             0      0       0      24        0.0%
SFR23                0      0       0      24        0.0%
BITSFR24             0      0       0      25        0.0%
SFR24                0      0       0      25        0.0%
BITSFR25             0      0       0      26        0.0%
SFR25                0      0       0      26        0.0%
BITSFR26             0      0       0      27        0.0%
SFR26                0      0       0      27        0.0%
BITSFR27             0      0       0      28        0.0%
SFR27                0      0       0      28        0.0%
BITSFR28             0      0       0      29        0.0%
SFR28                0      0       0      29        0.0%
BITSFR29             0      0       0      30        0.0%
SFR29                0      0       0      30        0.0%
BITSFR30             0      0       0      31        0.0%
SFR30                0      0       0      31        0.0%
BITSFR31             0      0       0      32        0.0%
SFR31                0      0       0      32        0.0%


Microchip Technology PIC Macro Assembler V1.12 build 49521 
Symbol Table                                                                                   Mon Apr  1 13:05:34 2013

            __CFG_CP$OFF 0000                       l13 07E7                       l14 07FE  
                     l15 07FF                       l16 07FF                       u17 07EB  
                     u27 07F6                      l391 07DD                      l393 07E7  
                    l395 07F0                      l397 07F2                      l389 07D6  
                    l399 07FB                     _main 07D6                     btemp 007E  
                   start 0001            __CFG_MCLRE$ON 0000                    ?_main 0070  
          __CFG_WDTE$OFF 0000                    main@i 0076                    wtemp0 007E  
        __initialization 07D4             __end_of_main 0800                   ??_main 0074  
         __CFG_PWRTE$OFF 0000  __end_of__initialization 07D4           __pcstackCOMMON 0070  
             __pmaintext 07D6     end_of_initialization 07D4                _PORTCbits 000E  
       __CFG_FOSC$INTOSC 0000                _TRISCbits 008E      start_initialization 07D4  
             _ANSELCbits 018E            __size_of_main 002A                 main@argc 0070  
               main@argv 0072               _OSCCONbits 0099  
