

Microchip Technology PIC LITE Macro Assembler V1.12 build 49521 
                                                                                               Wed May 29 14:09:19 2013

HI-TECH Software Omniscient Code Generator (Lite mode) build 49521
     1  0000                     opt subtitle "HI-TECH Software Omniscient Code Generator (Lite mode) build 49521"
     2                           opt subtitle "HI-TECH Software Omniscient Code Generator (Lite mode) build 49521"
     3                           
     4                           opt pagewidth 120
     5                           
     6                           	opt lm
     7                           
     8                           	processor	16LF707
     9                           clrc	macro
    10  0000                     	endm
    11                           opt subtitle "HI-TECH Software Omniscient Code Generator (Lite mode) build 49521"
    12                           
    13  0000                     	endm
    14                           opt subtitle "HI-TECH Software Omniscient Code Generator (Lite mode) build 49521"
    15                           
    16  0000                     	endm
    17                           opt subtitle "HI-TECH Software Omniscient Code Generator (Lite mode) build 49521"
    18                           
    19  0000                     	endm
    20                           opt subtitle "HI-TECH Software Omniscient Code Generator (Lite mode) build 49521"
    21                           
    22  0000                     	endm
    23                           opt subtitle "HI-TECH Software Omniscient Code Generator (Lite mode) build 49521"
    24                           
    25  0000                     	endm
    26                           opt subtitle "HI-TECH Software Omniscient Code Generator (Lite mode) build 49521"
    27                           
    28  0000                     	endm
    29                           opt subtitle "HI-TECH Software Omniscient Code Generator (Lite mode) build 49521"
    30                           
    31  0000                     	endm
    32  0000                     indf	equ	0
    33  0000                     indf0	equ	0
    34  0002                     pc	equ	2
    35  0002                     pcl	equ	2
    36  0003                     status	equ	3
    37  0004                     fsr	equ	4
    38  0004                     fsr0	equ	4
    39  0001                     c	equ	1
    40  0000                     z	equ	0
    41  000A                     pclath	equ	10
    42                           opt subtitle "HI-TECH Software Omniscient Code Generator (Lite mode) build 49521"
    43  0000                     INDF equ 00h ;# 
    44                           opt subtitle "HI-TECH Software Omniscient Code Generator (Lite mode) build 49521"
    45  0001                     TMR0 equ 01h ;# 
    46                           opt subtitle "HI-TECH Software Omniscient Code Generator (Lite mode) build 49521"
    47  0002                     PCL equ 02h ;# 
    48                           opt subtitle "HI-TECH Software Omniscient Code Generator (Lite mode) build 49521"
    49  0003                     STATUS equ 03h ;# 
    50                           opt subtitle "HI-TECH Software Omniscient Code Generator (Lite mode) build 49521"
    51  0004                     FSR equ 04h ;# 
    52                           opt subtitle "HI-TECH Software Omniscient Code Generator (Lite mode) build 49521"
    53  0005                     PORTA equ 05h ;# 
    54                           opt subtitle "HI-TECH Software Omniscient Code Generator (Lite mode) build 49521"
    55  0006                     PORTB equ 06h ;# 
    56                           opt subtitle "HI-TECH Software Omniscient Code Generator (Lite mode) build 49521"
    57  0007                     PORTC equ 07h ;# 
    58                           opt subtitle "HI-TECH Software Omniscient Code Generator (Lite mode) build 49521"
    59  0008                     PORTD equ 08h ;# 
    60                           opt subtitle "HI-TECH Software Omniscient Code Generator (Lite mode) build 49521"
    61  0009                     PORTE equ 09h ;# 
    62                           opt subtitle "HI-TECH Software Omniscient Code Generator (Lite mode) build 49521"
    63  000A                     PCLATH equ 0Ah ;# 
    64                           opt subtitle "HI-TECH Software Omniscient Code Generator (Lite mode) build 49521"
    65  000B                     INTCON equ 0Bh ;# 
    66                           opt subtitle "HI-TECH Software Omniscient Code Generator (Lite mode) build 49521"
    67  000C                     PIR1 equ 0Ch ;# 
    68                           opt subtitle "HI-TECH Software Omniscient Code Generator (Lite mode) build 49521"
    69  000D                     PIR2 equ 0Dh ;# 
    70                           opt subtitle "HI-TECH Software Omniscient Code Generator (Lite mode) build 49521"
    71  000E                     TMR1 equ 0Eh ;# 
    72                           opt subtitle "HI-TECH Software Omniscient Code Generator (Lite mode) build 49521"
    73  000E                     TMR1L equ 0Eh ;# 
    74                           opt subtitle "HI-TECH Software Omniscient Code Generator (Lite mode) build 49521"
    75  000F                     TMR1H equ 0Fh ;# 
    76                           opt subtitle "HI-TECH Software Omniscient Code Generator (Lite mode) build 49521"
    77  0010                     T1CON equ 010h ;# 
    78                           opt subtitle "HI-TECH Software Omniscient Code Generator (Lite mode) build 49521"
    79  0011                     TMR2 equ 011h ;# 
    80                           opt subtitle "HI-TECH Software Omniscient Code Generator (Lite mode) build 49521"
    81  0012                     T2CON equ 012h ;# 
    82                           opt subtitle "HI-TECH Software Omniscient Code Generator (Lite mode) build 49521"
    83  0013                     SSPBUF equ 013h ;# 
    84                           opt subtitle "HI-TECH Software Omniscient Code Generator (Lite mode) build 49521"
    85  0014                     SSPCON equ 014h ;# 
    86                           opt subtitle "HI-TECH Software Omniscient Code Generator (Lite mode) build 49521"
    87  0015                     CCPR1 equ 015h ;# 
    88                           opt subtitle "HI-TECH Software Omniscient Code Generator (Lite mode) build 49521"
    89  0015                     CCPR1L equ 015h ;# 
    90                           opt subtitle "HI-TECH Software Omniscient Code Generator (Lite mode) build 49521"
    91  0016                     CCPR1H equ 016h ;# 
    92                           opt subtitle "HI-TECH Software Omniscient Code Generator (Lite mode) build 49521"
    93  0017                     CCP1CON equ 017h ;# 
    94                           opt subtitle "HI-TECH Software Omniscient Code Generator (Lite mode) build 49521"
    95  0018                     RCSTA equ 018h ;# 
    96                           opt subtitle "HI-TECH Software Omniscient Code Generator (Lite mode) build 49521"
    97  0019                     TXREG equ 019h ;# 
    98                           opt subtitle "HI-TECH Software Omniscient Code Generator (Lite mode) build 49521"
    99  001A                     RCREG equ 01Ah ;# 
   100                           opt subtitle "HI-TECH Software Omniscient Code Generator (Lite mode) build 49521"
   101  001B                     CCPR2 equ 01Bh ;# 
   102                           opt subtitle "HI-TECH Software Omniscient Code Generator (Lite mode) build 49521"
   103  001B                     CCPR2L equ 01Bh ;# 
   104                           opt subtitle "HI-TECH Software Omniscient Code Generator (Lite mode) build 49521"
   105  001C                     CCPR2H equ 01Ch ;# 
   106                           opt subtitle "HI-TECH Software Omniscient Code Generator (Lite mode) build 49521"
   107  001D                     CCP2CON equ 01Dh ;# 
   108                           opt subtitle "HI-TECH Software Omniscient Code Generator (Lite mode) build 49521"
   109  001E                     ADRES equ 01Eh ;# 
   110                           opt subtitle "HI-TECH Software Omniscient Code Generator (Lite mode) build 49521"
   111  001F                     ADCON0 equ 01Fh ;# 
   112                           opt subtitle "HI-TECH Software Omniscient Code Generator (Lite mode) build 49521"
   113  0081                     OPTION_REG equ 081h ;# 
   114                           opt subtitle "HI-TECH Software Omniscient Code Generator (Lite mode) build 49521"
   115  0085                     TRISA equ 085h ;# 
   116                           opt subtitle "HI-TECH Software Omniscient Code Generator (Lite mode) build 49521"
   117  0086                     TRISB equ 086h ;# 
   118                           opt subtitle "HI-TECH Software Omniscient Code Generator (Lite mode) build 49521"
   119  0087                     TRISC equ 087h ;# 
   120                           opt subtitle "HI-TECH Software Omniscient Code Generator (Lite mode) build 49521"
   121  0088                     TRISD equ 088h ;# 
   122                           opt subtitle "HI-TECH Software Omniscient Code Generator (Lite mode) build 49521"
   123  0089                     TRISE equ 089h ;# 
   124                           opt subtitle "HI-TECH Software Omniscient Code Generator (Lite mode) build 49521"
   125  008C                     PIE1 equ 08Ch ;# 
   126                           opt subtitle "HI-TECH Software Omniscient Code Generator (Lite mode) build 49521"
   127  008D                     PIE2 equ 08Dh ;# 
   128                           opt subtitle "HI-TECH Software Omniscient Code Generator (Lite mode) build 49521"
   129  008E                     PCON equ 08Eh ;# 
   130                           opt subtitle "HI-TECH Software Omniscient Code Generator (Lite mode) build 49521"
   131  008F                     T1GCON equ 08Fh ;# 
   132                           opt subtitle "HI-TECH Software Omniscient Code Generator (Lite mode) build 49521"
   133  0090                     OSCCON equ 090h ;# 
   134                           opt subtitle "HI-TECH Software Omniscient Code Generator (Lite mode) build 49521"
   135  0091                     OSCTUNE equ 091h ;# 
   136                           opt subtitle "HI-TECH Software Omniscient Code Generator (Lite mode) build 49521"
   137  0092                     PR2 equ 092h ;# 
   138                           opt subtitle "HI-TECH Software Omniscient Code Generator (Lite mode) build 49521"
   139  0093                     SSPADD equ 093h ;# 
   140                           opt subtitle "HI-TECH Software Omniscient Code Generator (Lite mode) build 49521"
   141  0093                     SSPMSK equ 093h ;# 
   142                           opt subtitle "HI-TECH Software Omniscient Code Generator (Lite mode) build 49521"
   143  0094                     SSPSTAT equ 094h ;# 
   144                           opt subtitle "HI-TECH Software Omniscient Code Generator (Lite mode) build 49521"
   145  0095                     WPUB equ 095h ;# 
   146                           opt subtitle "HI-TECH Software Omniscient Code Generator (Lite mode) build 49521"
   147  0096                     IOCB equ 096h ;# 
   148                           opt subtitle "HI-TECH Software Omniscient Code Generator (Lite mode) build 49521"
   149  0097                     T3CON equ 097h ;# 
   150                           opt subtitle "HI-TECH Software Omniscient Code Generator (Lite mode) build 49521"
   151  0098                     TXSTA equ 098h ;# 
   152                           opt subtitle "HI-TECH Software Omniscient Code Generator (Lite mode) build 49521"
   153  0099                     SPBRG equ 099h ;# 
   154                           opt subtitle "HI-TECH Software Omniscient Code Generator (Lite mode) build 49521"
   155  009A                     TMR3 equ 09Ah ;# 
   156                           opt subtitle "HI-TECH Software Omniscient Code Generator (Lite mode) build 49521"
   157  009A                     TMR3L equ 09Ah ;# 
   158                           opt subtitle "HI-TECH Software Omniscient Code Generator (Lite mode) build 49521"
   159  009B                     TMR3H equ 09Bh ;# 
   160                           opt subtitle "HI-TECH Software Omniscient Code Generator (Lite mode) build 49521"
   161  009C                     APFCON equ 09Ch ;# 
   162                           opt subtitle "HI-TECH Software Omniscient Code Generator (Lite mode) build 49521"
   163  009D                     FVRCON equ 09Dh ;# 
   164                           opt subtitle "HI-TECH Software Omniscient Code Generator (Lite mode) build 49521"
   165  009E                     T3GCON equ 09Eh ;# 
   166                           opt subtitle "HI-TECH Software Omniscient Code Generator (Lite mode) build 49521"
   167  009F                     ADCON1 equ 09Fh ;# 
   168                           opt subtitle "HI-TECH Software Omniscient Code Generator (Lite mode) build 49521"
   169  0105                     TACON equ 0105h ;# 
   170                           opt subtitle "HI-TECH Software Omniscient Code Generator (Lite mode) build 49521"
   171  0106                     CPSBCON0 equ 0106h ;# 
   172                           opt subtitle "HI-TECH Software Omniscient Code Generator (Lite mode) build 49521"
   173  0107                     CPSBCON1 equ 0107h ;# 
   174                           opt subtitle "HI-TECH Software Omniscient Code Generator (Lite mode) build 49521"
   175  0108                     CPSACON0 equ 0108h ;# 
   176                           opt subtitle "HI-TECH Software Omniscient Code Generator (Lite mode) build 49521"
   177  0109                     CPSACON1 equ 0109h ;# 
   178                           opt subtitle "HI-TECH Software Omniscient Code Generator (Lite mode) build 49521"
   179  010C                     PMDATL equ 010Ch ;# 
   180                           opt subtitle "HI-TECH Software Omniscient Code Generator (Lite mode) build 49521"
   181  010D                     PMADRL equ 010Dh ;# 
   182                           opt subtitle "HI-TECH Software Omniscient Code Generator (Lite mode) build 49521"
   183  010E                     PMDATH equ 010Eh ;# 
   184                           opt subtitle "HI-TECH Software Omniscient Code Generator (Lite mode) build 49521"
   185  010F                     PMADRH equ 010Fh ;# 
   186                           opt subtitle "HI-TECH Software Omniscient Code Generator (Lite mode) build 49521"
   187  0110                     TMRA equ 0110h ;# 
   188                           opt subtitle "HI-TECH Software Omniscient Code Generator (Lite mode) build 49521"
   189  0111                     TBCON equ 0111h ;# 
   190                           opt subtitle "HI-TECH Software Omniscient Code Generator (Lite mode) build 49521"
   191  0112                     TMRB equ 0112h ;# 
   192                           opt subtitle "HI-TECH Software Omniscient Code Generator (Lite mode) build 49521"
   193  0113                     DACCON0 equ 0113h ;# 
   194                           opt subtitle "HI-TECH Software Omniscient Code Generator (Lite mode) build 49521"
   195  0114                     DACCON1 equ 0114h ;# 
   196                           opt subtitle "HI-TECH Software Omniscient Code Generator (Lite mode) build 49521"
   197  0185                     ANSELA equ 0185h ;# 
   198                           opt subtitle "HI-TECH Software Omniscient Code Generator (Lite mode) build 49521"
   199  0186                     ANSELB equ 0186h ;# 
   200                           opt subtitle "HI-TECH Software Omniscient Code Generator (Lite mode) build 49521"
   201  0187                     ANSELC equ 0187h ;# 
   202                           opt subtitle "HI-TECH Software Omniscient Code Generator (Lite mode) build 49521"
   203  0188                     ANSELD equ 0188h ;# 
   204                           opt subtitle "HI-TECH Software Omniscient Code Generator (Lite mode) build 49521"
   205  0189                     ANSELE equ 0189h ;# 
   206                           opt subtitle "HI-TECH Software Omniscient Code Generator (Lite mode) build 49521"
   207  018C                     PMCON1 equ 018Ch ;# 
   208                           opt subtitle "HI-TECH Software Omniscient Code Generator (Lite mode) build 49521"
   209  0000                     INDF equ 00h ;# 
   210                           opt subtitle "HI-TECH Software Omniscient Code Generator (Lite mode) build 49521"
   211  0001                     TMR0 equ 01h ;# 
   212                           opt subtitle "HI-TECH Software Omniscient Code Generator (Lite mode) build 49521"
   213  0002                     PCL equ 02h ;# 
   214                           opt subtitle "HI-TECH Software Omniscient Code Generator (Lite mode) build 49521"
   215  0003                     STATUS equ 03h ;# 
   216                           opt subtitle "HI-TECH Software Omniscient Code Generator (Lite mode) build 49521"
   217  0004                     FSR equ 04h ;# 
   218                           opt subtitle "HI-TECH Software Omniscient Code Generator (Lite mode) build 49521"
   219  0005                     PORTA equ 05h ;# 
   220                           opt subtitle "HI-TECH Software Omniscient Code Generator (Lite mode) build 49521"
   221  0006                     PORTB equ 06h ;# 
   222                           opt subtitle "HI-TECH Software Omniscient Code Generator (Lite mode) build 49521"
   223  0007                     PORTC equ 07h ;# 
   224                           opt subtitle "HI-TECH Software Omniscient Code Generator (Lite mode) build 49521"
   225  0008                     PORTD equ 08h ;# 
   226                           opt subtitle "HI-TECH Software Omniscient Code Generator (Lite mode) build 49521"
   227  0009                     PORTE equ 09h ;# 
   228                           opt subtitle "HI-TECH Software Omniscient Code Generator (Lite mode) build 49521"
   229  000A                     PCLATH equ 0Ah ;# 
   230                           opt subtitle "HI-TECH Software Omniscient Code Generator (Lite mode) build 49521"
   231  000B                     INTCON equ 0Bh ;# 
   232                           opt subtitle "HI-TECH Software Omniscient Code Generator (Lite mode) build 49521"
   233  000C                     PIR1 equ 0Ch ;# 
   234                           opt subtitle "HI-TECH Software Omniscient Code Generator (Lite mode) build 49521"
   235  000D                     PIR2 equ 0Dh ;# 
   236                           opt subtitle "HI-TECH Software Omniscient Code Generator (Lite mode) build 49521"
   237  000E                     TMR1 equ 0Eh ;# 
   238                           opt subtitle "HI-TECH Software Omniscient Code Generator (Lite mode) build 49521"
   239  000E                     TMR1L equ 0Eh ;# 
   240                           opt subtitle "HI-TECH Software Omniscient Code Generator (Lite mode) build 49521"
   241  000F                     TMR1H equ 0Fh ;# 
   242                           opt subtitle "HI-TECH Software Omniscient Code Generator (Lite mode) build 49521"
   243  0010                     T1CON equ 010h ;# 
   244                           opt subtitle "HI-TECH Software Omniscient Code Generator (Lite mode) build 49521"
   245  0011                     TMR2 equ 011h ;# 
   246                           opt subtitle "HI-TECH Software Omniscient Code Generator (Lite mode) build 49521"
   247  0012                     T2CON equ 012h ;# 
   248                           opt subtitle "HI-TECH Software Omniscient Code Generator (Lite mode) build 49521"
   249  0013                     SSPBUF equ 013h ;# 
   250                           opt subtitle "HI-TECH Software Omniscient Code Generator (Lite mode) build 49521"
   251  0014                     SSPCON equ 014h ;# 
   252                           opt subtitle "HI-TECH Software Omniscient Code Generator (Lite mode) build 49521"
   253  0015                     CCPR1 equ 015h ;# 
   254                           opt subtitle "HI-TECH Software Omniscient Code Generator (Lite mode) build 49521"
   255  0015                     CCPR1L equ 015h ;# 
   256                           opt subtitle "HI-TECH Software Omniscient Code Generator (Lite mode) build 49521"
   257  0016                     CCPR1H equ 016h ;# 
   258                           opt subtitle "HI-TECH Software Omniscient Code Generator (Lite mode) build 49521"
   259  0017                     CCP1CON equ 017h ;# 
   260                           opt subtitle "HI-TECH Software Omniscient Code Generator (Lite mode) build 49521"
   261  0018                     RCSTA equ 018h ;# 
   262                           opt subtitle "HI-TECH Software Omniscient Code Generator (Lite mode) build 49521"
   263  0019                     TXREG equ 019h ;# 
   264                           opt subtitle "HI-TECH Software Omniscient Code Generator (Lite mode) build 49521"
   265  001A                     RCREG equ 01Ah ;# 
   266                           opt subtitle "HI-TECH Software Omniscient Code Generator (Lite mode) build 49521"
   267  001B                     CCPR2 equ 01Bh ;# 
   268                           opt subtitle "HI-TECH Software Omniscient Code Generator (Lite mode) build 49521"
   269  001B                     CCPR2L equ 01Bh ;# 
   270                           opt subtitle "HI-TECH Software Omniscient Code Generator (Lite mode) build 49521"
   271  001C                     CCPR2H equ 01Ch ;# 
   272                           opt subtitle "HI-TECH Software Omniscient Code Generator (Lite mode) build 49521"
   273  001D                     CCP2CON equ 01Dh ;# 
   274                           opt subtitle "HI-TECH Software Omniscient Code Generator (Lite mode) build 49521"
   275  001E                     ADRES equ 01Eh ;# 
   276                           opt subtitle "HI-TECH Software Omniscient Code Generator (Lite mode) build 49521"
   277  001F                     ADCON0 equ 01Fh ;# 
   278                           opt subtitle "HI-TECH Software Omniscient Code Generator (Lite mode) build 49521"
   279  0081                     OPTION_REG equ 081h ;# 
   280                           opt subtitle "HI-TECH Software Omniscient Code Generator (Lite mode) build 49521"
   281  0085                     TRISA equ 085h ;# 
   282                           opt subtitle "HI-TECH Software Omniscient Code Generator (Lite mode) build 49521"
   283  0086                     TRISB equ 086h ;# 
   284                           opt subtitle "HI-TECH Software Omniscient Code Generator (Lite mode) build 49521"
   285  0087                     TRISC equ 087h ;# 
   286                           opt subtitle "HI-TECH Software Omniscient Code Generator (Lite mode) build 49521"
   287  0088                     TRISD equ 088h ;# 
   288                           opt subtitle "HI-TECH Software Omniscient Code Generator (Lite mode) build 49521"
   289  0089                     TRISE equ 089h ;# 
   290                           opt subtitle "HI-TECH Software Omniscient Code Generator (Lite mode) build 49521"
   291  008C                     PIE1 equ 08Ch ;# 
   292                           opt subtitle "HI-TECH Software Omniscient Code Generator (Lite mode) build 49521"
   293  008D                     PIE2 equ 08Dh ;# 
   294                           opt subtitle "HI-TECH Software Omniscient Code Generator (Lite mode) build 49521"
   295  008E                     PCON equ 08Eh ;# 
   296                           opt subtitle "HI-TECH Software Omniscient Code Generator (Lite mode) build 49521"
   297  008F                     T1GCON equ 08Fh ;# 
   298                           opt subtitle "HI-TECH Software Omniscient Code Generator (Lite mode) build 49521"
   299  0090                     OSCCON equ 090h ;# 
   300                           opt subtitle "HI-TECH Software Omniscient Code Generator (Lite mode) build 49521"
   301  0091                     OSCTUNE equ 091h ;# 
   302                           opt subtitle "HI-TECH Software Omniscient Code Generator (Lite mode) build 49521"
   303  0092                     PR2 equ 092h ;# 
   304                           opt subtitle "HI-TECH Software Omniscient Code Generator (Lite mode) build 49521"
   305  0093                     SSPADD equ 093h ;# 
   306                           opt subtitle "HI-TECH Software Omniscient Code Generator (Lite mode) build 49521"
   307  0093                     SSPMSK equ 093h ;# 
   308                           opt subtitle "HI-TECH Software Omniscient Code Generator (Lite mode) build 49521"
   309  0094                     SSPSTAT equ 094h ;# 
   310                           opt subtitle "HI-TECH Software Omniscient Code Generator (Lite mode) build 49521"
   311  0095                     WPUB equ 095h ;# 
   312                           opt subtitle "HI-TECH Software Omniscient Code Generator (Lite mode) build 49521"
   313  0096                     IOCB equ 096h ;# 
   314                           opt subtitle "HI-TECH Software Omniscient Code Generator (Lite mode) build 49521"
   315  0097                     T3CON equ 097h ;# 
   316                           opt subtitle "HI-TECH Software Omniscient Code Generator (Lite mode) build 49521"
   317  0098                     TXSTA equ 098h ;# 
   318                           opt subtitle "HI-TECH Software Omniscient Code Generator (Lite mode) build 49521"
   319  0099                     SPBRG equ 099h ;# 
   320                           opt subtitle "HI-TECH Software Omniscient Code Generator (Lite mode) build 49521"
   321  009A                     TMR3 equ 09Ah ;# 
   322                           opt subtitle "HI-TECH Software Omniscient Code Generator (Lite mode) build 49521"
   323  009A                     TMR3L equ 09Ah ;# 
   324                           opt subtitle "HI-TECH Software Omniscient Code Generator (Lite mode) build 49521"
   325  009B                     TMR3H equ 09Bh ;# 
   326                           opt subtitle "HI-TECH Software Omniscient Code Generator (Lite mode) build 49521"
   327  009C                     APFCON equ 09Ch ;# 
   328                           opt subtitle "HI-TECH Software Omniscient Code Generator (Lite mode) build 49521"
   329  009D                     FVRCON equ 09Dh ;# 
   330                           opt subtitle "HI-TECH Software Omniscient Code Generator (Lite mode) build 49521"
   331  009E                     T3GCON equ 09Eh ;# 
   332                           opt subtitle "HI-TECH Software Omniscient Code Generator (Lite mode) build 49521"
   333  009F                     ADCON1 equ 09Fh ;# 
   334                           opt subtitle "HI-TECH Software Omniscient Code Generator (Lite mode) build 49521"
   335  0105                     TACON equ 0105h ;# 
   336                           opt subtitle "HI-TECH Software Omniscient Code Generator (Lite mode) build 49521"
   337  0106                     CPSBCON0 equ 0106h ;# 
   338                           opt subtitle "HI-TECH Software Omniscient Code Generator (Lite mode) build 49521"
   339  0107                     CPSBCON1 equ 0107h ;# 
   340                           opt subtitle "HI-TECH Software Omniscient Code Generator (Lite mode) build 49521"
   341  0108                     CPSACON0 equ 0108h ;# 
   342                           opt subtitle "HI-TECH Software Omniscient Code Generator (Lite mode) build 49521"
   343  0109                     CPSACON1 equ 0109h ;# 
   344                           opt subtitle "HI-TECH Software Omniscient Code Generator (Lite mode) build 49521"
   345  010C                     PMDATL equ 010Ch ;# 
   346                           opt subtitle "HI-TECH Software Omniscient Code Generator (Lite mode) build 49521"
   347  010D                     PMADRL equ 010Dh ;# 
   348                           opt subtitle "HI-TECH Software Omniscient Code Generator (Lite mode) build 49521"
   349  010E                     PMDATH equ 010Eh ;# 
   350                           opt subtitle "HI-TECH Software Omniscient Code Generator (Lite mode) build 49521"
   351  010F                     PMADRH equ 010Fh ;# 
   352                           opt subtitle "HI-TECH Software Omniscient Code Generator (Lite mode) build 49521"
   353  0110                     TMRA equ 0110h ;# 
   354                           opt subtitle "HI-TECH Software Omniscient Code Generator (Lite mode) build 49521"
   355  0111                     TBCON equ 0111h ;# 
   356                           opt subtitle "HI-TECH Software Omniscient Code Generator (Lite mode) build 49521"
   357  0112                     TMRB equ 0112h ;# 
   358                           opt subtitle "HI-TECH Software Omniscient Code Generator (Lite mode) build 49521"
   359  0113                     DACCON0 equ 0113h ;# 
   360                           opt subtitle "HI-TECH Software Omniscient Code Generator (Lite mode) build 49521"
   361  0114                     DACCON1 equ 0114h ;# 
   362                           opt subtitle "HI-TECH Software Omniscient Code Generator (Lite mode) build 49521"
   363  0185                     ANSELA equ 0185h ;# 
   364                           opt subtitle "HI-TECH Software Omniscient Code Generator (Lite mode) build 49521"
   365  0186                     ANSELB equ 0186h ;# 
   366                           opt subtitle "HI-TECH Software Omniscient Code Generator (Lite mode) build 49521"
   367  0187                     ANSELC equ 0187h ;# 
   368                           opt subtitle "HI-TECH Software Omniscient Code Generator (Lite mode) build 49521"
   369  0188                     ANSELD equ 0188h ;# 
   370                           opt subtitle "HI-TECH Software Omniscient Code Generator (Lite mode) build 49521"
   371  0189                     ANSELE equ 0189h ;# 
   372                           opt subtitle "HI-TECH Software Omniscient Code Generator (Lite mode) build 49521"
   373  018C                     PMCON1 equ 018Ch ;# 
   374                           opt subtitle "HI-TECH Software Omniscient Code Generator (Lite mode) build 49521"
   375                           
   376                           opt pagewidth 120
   377                           
   378                           	opt lm
   379                           
   380                           	processor	16LF707
   381                           clrc	macro
   382                           	bcf	3,0
   383                           	endm
   384                           clrz	macro
   385                           	bcf	3,2
   386                           	endm
   387                           setc	macro
   388                           	bsf	3,0
   389                           	endm
   390                           setz	macro
   391                           	bsf	3,2
   392                           	endm
   393                           skipc	macro
   394                           	btfss	3,0
   395                           	endm
   396                           skipz	macro
   397                           	btfss	3,2
   398                           	endm
   399                           skipnc	macro
   400                           	btfsc	3,0
   401                           	endm
   402                           skipnz	macro
   403                           	btfsc	3,2
   404                           	endm
   405                           indf	equ	0
   406                           indf0	equ	0
   407                           pc	equ	2
   408                           pcl	equ	2
   409                           status	equ	3
   410                           fsr	equ	4
   411                           fsr0	equ	4
   412                           c	equ	1
   413                           z	equ	0
   414                           pclath	equ	10
   415                           # 46 "/Applications/microchip/xc8/v1.12/include/pic16lf707.h"
   416                           INDF equ 00h ;# 
   417                           # 52 "/Applications/microchip/xc8/v1.12/include/pic16lf707.h"
   418                           TMR0 equ 01h ;# 
   419                           # 58 "/Applications/microchip/xc8/v1.12/include/pic16lf707.h"
   420                           PCL equ 02h ;# 
   421                           # 64 "/Applications/microchip/xc8/v1.12/include/pic16lf707.h"
   422                           STATUS equ 03h ;# 
   423                           # 151 "/Applications/microchip/xc8/v1.12/include/pic16lf707.h"
   424                           FSR equ 04h ;# 
   425                           # 157 "/Applications/microchip/xc8/v1.12/include/pic16lf707.h"
   426                           PORTA equ 05h ;# 
   427                           # 346 "/Applications/microchip/xc8/v1.12/include/pic16lf707.h"
   428                           PORTB equ 06h ;# 
   429                           # 520 "/Applications/microchip/xc8/v1.12/include/pic16lf707.h"
   430                           PORTC equ 07h ;# 
   431                           # 715 "/Applications/microchip/xc8/v1.12/include/pic16lf707.h"
   432  09AD                     __pidataCOMMON:
   433                           opt subtitle "HI-TECH Software Omniscient Code Generator (Lite mode) build 49521"
   434                           
   435                           opt pagewidth 120
   436                           
   437  09AD  341A               	retlw	01Ah
   438  09AE  3400               	retlw	0
   439                           opt subtitle "HI-TECH Software Omniscient Code Generator (Lite mode) build 49521"
   440                           
   441                           opt pagewidth 120
   442                           
   443  09AF  3401               	retlw	01h
   444                           opt subtitle "HI-TECH Software Omniscient Code Generator (Lite mode) build 49521"
   445                           
   446  09C1                     __pidataBANK0:
   447                           opt subtitle "HI-TECH Software Omniscient Code Generator (Lite mode) build 49521"
   448                           
   449                           opt pagewidth 120
   450  09C1  3400               	retlw	0x0
   451  09C2  3420               	retlw	0x20
   452  09C3  3441               	retlw	0x41
   453                           opt subtitle "HI-TECH Software Omniscient Code Generator (Lite mode) build 49521"
   454                           
   455                           opt pagewidth 120
   456                           
   457  09C4  3400               	retlw	0
   458  09C5  3400               	retlw	0
   459  09C6  3400               	retlw	0
   460  09C7  3400               	retlw	0
   461  09C8  3400               	retlw	0
   462  09C9  34AA               	retlw	0AAh
   463  09CA  34AA               	retlw	0AAh
   464  09CB  34AA               	retlw	0AAh
   465  09CC  34AA               	retlw	0AAh
   466  09CD  3400               	retlw	0
   467                           opt subtitle "HI-TECH Software Omniscient Code Generator (Lite mode) build 49521"
   468                           
   469                           opt pagewidth 120
   470  0800                     __pstrings:
   471                           opt subtitle "HI-TECH Software Omniscient Code Generator (Lite mode) build 49521"
   472  0800                     stringtab:
   473                           opt subtitle "HI-TECH Software Omniscient Code Generator (Lite mode) build 49521"
   474  0800                     __stringtab:
   475                           opt subtitle "HI-TECH Software Omniscient Code Generator (Lite mode) build 49521"
   476  0800                     stringcode:stringdir:
      + 0800                     stringdir:	
   477  0800  3008               movlw high(stringdir)
   478  0801  008A               movwf pclath
   479  0802  0804               movf fsr,w
   480  0803  0A84               incf fsr
   481  0804  0782               	addwf pc
   482  0805                     __stringbase:
   483  0805  3400               	retlw	0
   484                           opt subtitle "HI-TECH Software Omniscient Code Generator (Lite mode) build 49521"
   485                           
   486  0806                     __end_of__stringtab:
   487                           opt subtitle "HI-TECH Software Omniscient Code Generator (Lite mode) build 49521"
   488                           
   489  0806                     _Bank1_Reg0_13:
   490  0806  3440               	retlw	040h
   491  0807  344B               	retlw	04Bh
   492  0808  3401               	retlw	01h
   493  0809  34E2               	retlw	0E2h
   494                           opt subtitle "HI-TECH Software Omniscient Code Generator (Lite mode) build 49521"
   495  080A  34C0               	retlw	0C0h
   496  080B  344B               	retlw	04Bh
   497  080C  3400               	retlw	0
   498  080D  3400               	retlw	0
   499                           opt subtitle "HI-TECH Software Omniscient Code Generator (Lite mode) build 49521"
   500  080E  34D0               	retlw	0D0h
   501  080F  34FC               	retlw	0FCh
   502  0810  348C               	retlw	08Ch
   503  0811  3402               	retlw	02h
   504                           opt subtitle "HI-TECH Software Omniscient Code Generator (Lite mode) build 49521"
   505  0812  3499               	retlw	099h
   506  0813  3400               	retlw	0
   507  0814  3439               	retlw	039h
   508  0815  3441               	retlw	041h
   509                           opt subtitle "HI-TECH Software Omniscient Code Generator (Lite mode) build 49521"
   510  0816  34F9               	retlw	0F9h
   511  0817  349E               	retlw	09Eh
   512  0818  3486               	retlw	086h
   513  0819  340B               	retlw	0Bh
   514                           opt subtitle "HI-TECH Software Omniscient Code Generator (Lite mode) build 49521"
   515  081A  3424               	retlw	024h
   516  081B  3406               	retlw	06h
   517  081C  347F               	retlw	07Fh
   518  081D  34A6               	retlw	0A6h
   519                           opt subtitle "HI-TECH Software Omniscient Code Generator (Lite mode) build 49521"
   520  081E  3400               	retlw	0
   521  081F  3400               	retlw	0
   522  0820  3400               	retlw	0
   523  0821  3400               	retlw	0
   524                           opt subtitle "HI-TECH Software Omniscient Code Generator (Lite mode) build 49521"
   525  0822  3400               	retlw	0
   526  0823  3400               	retlw	0
   527  0824  3400               	retlw	0
   528  0825  3400               	retlw	0
   529                           opt subtitle "HI-TECH Software Omniscient Code Generator (Lite mode) build 49521"
   530  0826  3400               	retlw	0
   531  0827  3400               	retlw	0
   532  0828  3400               	retlw	0
   533  0829  3400               	retlw	0
   534                           opt subtitle "HI-TECH Software Omniscient Code Generator (Lite mode) build 49521"
   535  082A  3400               	retlw	0
   536  082B  3400               	retlw	0
   537  082C  3400               	retlw	0
   538  082D  3400               	retlw	0
   539                           opt subtitle "HI-TECH Software Omniscient Code Generator (Lite mode) build 49521"
   540  082E  3400               	retlw	0
   541  082F  3400               	retlw	0
   542  0830  3400               	retlw	0
   543  0831  3400               	retlw	0
   544                           opt subtitle "HI-TECH Software Omniscient Code Generator (Lite mode) build 49521"
   545  0832  3400               	retlw	0
   546  0833  3400               	retlw	0
   547  0834  3400               	retlw	0
   548  0835  3400               	retlw	0
   549                           opt subtitle "HI-TECH Software Omniscient Code Generator (Lite mode) build 49521"
   550  0836  3400               	retlw	0
   551  0837  3473               	retlw	073h
   552  0838  3412               	retlw	012h
   553  0839  3400               	retlw	0
   554                           opt subtitle "HI-TECH Software Omniscient Code Generator (Lite mode) build 49521"
   555  083A  3400               	retlw	0
   556  083B  3480               	retlw	080h
   557  083C  34B4               	retlw	0B4h
   558  083D  3436               	retlw	036h
   559                           opt subtitle "HI-TECH Software Omniscient Code Generator (Lite mode) build 49521"
   560                           
   561  083E                     __end_of_Bank1_Reg0_13:
   562                           opt subtitle "HI-TECH Software Omniscient Code Generator (Lite mode) build 49521"
   563                           
   564                           opt pagewidth 120
   565                           
   566  083E                     _Bank0_Reg:
   567  083E  3400               	retlw	0
   568  083F  340F               	retlw	0Fh
   569  0840  3401               	retlw	01h
   570  0841  343F               	retlw	03Fh
   571  0842  3402               	retlw	02h
   572  0843  343F               	retlw	03Fh
   573  0844  3403               	retlw	03h
   574  0845  3403               	retlw	03h
   575  0846  3404               	retlw	04h
   576  0847  34FF               	retlw	0FFh
   577  0848  3405               	retlw	05h
   578  0849  3417               	retlw	017h
   579  084A  3406               	retlw	06h
   580  084B  3401               	retlw	01h
   581  084C  3407               	retlw	07h
   582  084D  3407               	retlw	07h
   583  084E  3408               	retlw	08h
   584  084F  3400               	retlw	0
   585  0850  3409               	retlw	09h
   586  0851  3400               	retlw	0
   587  0852  340C               	retlw	0Ch
   588  0853  34C3               	retlw	0C3h
   589  0854  340D               	retlw	0Dh
   590  0855  34C4               	retlw	0C4h
   591  0856  340E               	retlw	0Eh
   592  0857  34C5               	retlw	0C5h
   593  0858  340F               	retlw	0Fh
   594  0859  34C6               	retlw	0C6h
   595  085A  3411               	retlw	011h
   596  085B  3420               	retlw	020h
   597  085C  3412               	retlw	012h
   598  085D  3420               	retlw	020h
   599  085E  3413               	retlw	013h
   600  085F  3420               	retlw	020h
   601  0860  3414               	retlw	014h
   602  0861  3420               	retlw	020h
   603  0862  3415               	retlw	015h
   604  0863  3420               	retlw	020h
   605  0864  3416               	retlw	016h
   606  0865  3420               	retlw	020h
   607  0866  3417               	retlw	017h
   608  0867  3400               	retlw	0
   609  0868  341C               	retlw	01Ch
   610  0869  343F               	retlw	03Fh
   611  086A  341D               	retlw	01Dh
   612  086B  3407               	retlw	07h
   613                           opt subtitle "HI-TECH Software Omniscient Code Generator (Lite mode) build 49521"
   614  086C                     __end_of_Bank0_Reg:
   615                           opt subtitle "HI-TECH Software Omniscient Code Generator (Lite mode) build 49521"
   616                           
   617                           opt pagewidth 120
   618                           
   619  086C                     _Bank1_Reg14:
   620  086C  3441               	retlw	041h
   621  086D  3420               	retlw	020h
   622  086E  3408               	retlw	08h
   623  086F  3404               	retlw	04h
   624  0870  3481               	retlw	081h
   625  0871  3420               	retlw	020h
   626  0872  34CF               	retlw	0CFh
   627  0873  34F7               	retlw	0F7h
   628  0874  34FE               	retlw	0FEh
   629  0875  34FF               	retlw	0FFh
   630  0876  34FF               	retlw	0FFh
   631                           opt subtitle "HI-TECH Software Omniscient Code Generator (Lite mode) build 49521"
   632  0877                     __end_of_Bank1_Reg14:
   633                           opt subtitle "HI-TECH Software Omniscient Code Generator (Lite mode) build 49521"
   634                           
   635                           opt pagewidth 120
   636                           
   637  0877                     _RX0_Address:
   638  0877  3434               	retlw	034h
   639  0878  3443               	retlw	043h
   640  0879  3410               	retlw	010h
   641  087A  3410               	retlw	010h
   642  087B  3401               	retlw	01h
   643                           opt subtitle "HI-TECH Software Omniscient Code Generator (Lite mode) build 49521"
   644  087C                     __end_of_RX0_Address:
   645                           opt subtitle "HI-TECH Software Omniscient Code Generator (Lite mode) build 49521"
   646                           
   647                           opt pagewidth 120
   648                           
   649  087C                     _RX1_Address:
   650  087C  3439               	retlw	039h
   651  087D  3438               	retlw	038h
   652  087E  3437               	retlw	037h
   653  087F  3436               	retlw	036h
   654  0880  34C2               	retlw	0C2h
   655                           opt subtitle "HI-TECH Software Omniscient Code Generator (Lite mode) build 49521"
   656  0881                     __end_of_RX1_Address:
   657                           opt subtitle "HI-TECH Software Omniscient Code Generator (Lite mode) build 49521"
   658                           
   659                           opt pagewidth 120
   660  0881                     _Bank0_RegAct:
   661  0881  341C               	retlw	01Ch
   662  0882  343F               	retlw	03Fh
   663  0883  341D               	retlw	01Dh
   664  0884  3407               	retlw	07h
   665                           opt subtitle "HI-TECH Software Omniscient Code Generator (Lite mode) build 49521"
   666  0885                     __end_of_Bank0_RegAct:
   667                           opt subtitle "HI-TECH Software Omniscient Code Generator (Lite mode) build 49521"
   668                           
   669                           opt pagewidth 120
   670                           
   671                           	opt lm
   672                           
   673                           	processor	16LF707
   674                           clrc	macro
   675                           	bcf	3,0
   676                           	endm
   677                           clrz	macro
   678                           	bcf	3,2
   679                           	endm
   680                           setc	macro
   681                           	bsf	3,0
   682                           	endm
   683                           setz	macro
   684  001F                     _ADCON0bits	set	0x1F
   685                           opt subtitle "HI-TECH Software Omniscient Code Generator (Lite mode) build 49521"
   686  001E                     _ADRES	set	0x1E
   687                           opt subtitle "HI-TECH Software Omniscient Code Generator (Lite mode) build 49521"
   688  000C                     _PIR1bits	set	0xC
   689                           opt subtitle "HI-TECH Software Omniscient Code Generator (Lite mode) build 49521"
   690  0005                     _PORTAbits	set	0x5
   691                           opt subtitle "HI-TECH Software Omniscient Code Generator (Lite mode) build 49521"
   692  0006                     _PORTBbits	set	0x6
   693                           opt subtitle "HI-TECH Software Omniscient Code Generator (Lite mode) build 49521"
   694  0007                     _PORTCbits	set	0x7
   695                           opt subtitle "HI-TECH Software Omniscient Code Generator (Lite mode) build 49521"
   696  0008                     _PORTD	set	0x8
   697                           opt subtitle "HI-TECH Software Omniscient Code Generator (Lite mode) build 49521"
   698  0008                     _PORTDbits	set	0x8
   699                           opt subtitle "HI-TECH Software Omniscient Code Generator (Lite mode) build 49521"
   700  0009                     _PORTEbits	set	0x9
   701                           opt subtitle "HI-TECH Software Omniscient Code Generator (Lite mode) build 49521"
   702  001A                     _RCREG	set	0x1A
   703                           opt subtitle "HI-TECH Software Omniscient Code Generator (Lite mode) build 49521"
   704  0018                     _RCSTA	set	0x18
   705                           opt subtitle "HI-TECH Software Omniscient Code Generator (Lite mode) build 49521"
   706  0018                     _RCSTAbits	set	0x18
   707                           opt subtitle "HI-TECH Software Omniscient Code Generator (Lite mode) build 49521"
   708  0013                     _SSPBUF	set	0x13
   709                           opt subtitle "HI-TECH Software Omniscient Code Generator (Lite mode) build 49521"
   710  0014                     _SSPCONbits	set	0x14
   711                           opt subtitle "HI-TECH Software Omniscient Code Generator (Lite mode) build 49521"
   712  0010                     _T1CONbits	set	0x10
   713                           opt subtitle "HI-TECH Software Omniscient Code Generator (Lite mode) build 49521"
   714  000F                     _TMR1H	set	0xF
   715                           opt subtitle "HI-TECH Software Omniscient Code Generator (Lite mode) build 49521"
   716  000E                     _TMR1L	set	0xE
   717                           opt subtitle "HI-TECH Software Omniscient Code Generator (Lite mode) build 49521"
   718  0019                     _TXREG	set	0x19
   719                           opt subtitle "HI-TECH Software Omniscient Code Generator (Lite mode) build 49521"
   720  005F                     _GIE	set	0x5F
   721                           opt subtitle "HI-TECH Software Omniscient Code Generator (Lite mode) build 49521"
   722  005E                     _PEIE	set	0x5E
   723                           opt subtitle "HI-TECH Software Omniscient Code Generator (Lite mode) build 49521"
   724  0065                     _RCIF	set	0x65
   725                           opt subtitle "HI-TECH Software Omniscient Code Generator (Lite mode) build 49521"
   726  0060                     _TMR1IF	set	0x60
   727                           opt subtitle "HI-TECH Software Omniscient Code Generator (Lite mode) build 49521"
   728  0064                     _TXIF	set	0x64
   729                           opt subtitle "HI-TECH Software Omniscient Code Generator (Lite mode) build 49521"
   730  009F                     _ADCON1bits	set	0x9F
   731                           opt subtitle "HI-TECH Software Omniscient Code Generator (Lite mode) build 49521"
   732  009D                     _FVRCONbits	set	0x9D
   733                           opt subtitle "HI-TECH Software Omniscient Code Generator (Lite mode) build 49521"
   734  0090                     _OSCCONbits	set	0x90
   735                           opt subtitle "HI-TECH Software Omniscient Code Generator (Lite mode) build 49521"
   736  0099                     _SPBRG	set	0x99
   737                           opt subtitle "HI-TECH Software Omniscient Code Generator (Lite mode) build 49521"
   738  0094                     _SSPSTATbits	set	0x94
   739                           opt subtitle "HI-TECH Software Omniscient Code Generator (Lite mode) build 49521"
   740  008F                     _T1GCONbits	set	0x8F
   741                           opt subtitle "HI-TECH Software Omniscient Code Generator (Lite mode) build 49521"
   742  0085                     _TRISAbits	set	0x85
   743                           opt subtitle "HI-TECH Software Omniscient Code Generator (Lite mode) build 49521"
   744  0086                     _TRISBbits	set	0x86
   745                           opt subtitle "HI-TECH Software Omniscient Code Generator (Lite mode) build 49521"
   746  0087                     _TRISCbits	set	0x87
   747                           opt subtitle "HI-TECH Software Omniscient Code Generator (Lite mode) build 49521"
   748  0088                     _TRISDbits	set	0x88
   749                           opt subtitle "HI-TECH Software Omniscient Code Generator (Lite mode) build 49521"
   750  0089                     _TRISEbits	set	0x89
   751                           opt subtitle "HI-TECH Software Omniscient Code Generator (Lite mode) build 49521"
   752  0098                     _TXSTA	set	0x98
   753                           opt subtitle "HI-TECH Software Omniscient Code Generator (Lite mode) build 49521"
   754  0098                     _TXSTAbits	set	0x98
   755                           opt subtitle "HI-TECH Software Omniscient Code Generator (Lite mode) build 49521"
   756  0460                     _TMR1IE	set	0x460
   757                           opt subtitle "HI-TECH Software Omniscient Code Generator (Lite mode) build 49521"
   758  0113                     _DACCON0	set	0x113
   759                           opt subtitle "HI-TECH Software Omniscient Code Generator (Lite mode) build 49521"
   760  0114                     _DACCON1	set	0x114
   761                           opt subtitle "HI-TECH Software Omniscient Code Generator (Lite mode) build 49521"
   762  0185                     _ANSELAbits	set	0x185
   763                           opt subtitle "HI-TECH Software Omniscient Code Generator (Lite mode) build 49521"
   764  0186                     _ANSELBbits	set	0x186
   765                           opt subtitle "HI-TECH Software Omniscient Code Generator (Lite mode) build 49521"
   766  0187                     _ANSELCbits	set	0x187
   767                           opt subtitle "HI-TECH Software Omniscient Code Generator (Lite mode) build 49521"
   768  0188                     _ANSELDbits	set	0x188
   769                           opt subtitle "HI-TECH Software Omniscient Code Generator (Lite mode) build 49521"
   770  0189                     _ANSELEbits	set	0x189
   771                           opt subtitle "HI-TECH Software Omniscient Code Generator (Lite mode) build 49521"
   772  0885                     __stringdata:
   773                           opt subtitle "HI-TECH Software Omniscient Code Generator (Lite mode) build 49521"
   774  0885                     STR_1:	
   775  0885  3452               	retlw	82	;'R'
   776  0886  3465               	retlw	101	;'e'
   777  0887  3463               	retlw	99	;'c'
   778  0888  3465               	retlw	101	;'e'
   779  0889  3469               	retlw	105	;'i'
   780  088A  3476               	retlw	118	;'v'
   781  088B  3469               	retlw	105	;'i'
   782  088C  346E               	retlw	110	;'n'
   783  088D  3467               	retlw	103	;'g'
   784  088E  343A               	retlw	58	;':'
   785  088F  3420               	retlw	32	;' '
   786  0890  3400               	retlw	0
   787                           opt subtitle "HI-TECH Software Omniscient Code Generator (Lite mode) build 49521"
   788                           
   789  0891                     STR_2:	
   790  0891  340A               	retlw	10
   791  0892  340D               	retlw	13
   792  0893  340A               	retlw	10
   793  0894  340D               	retlw	13
   794  0895  3400               	retlw	0
   795                           opt subtitle "HI-TECH Software Omniscient Code Generator (Lite mode) build 49521"
   796                           
   797  0896                     __end_of__stringdata:
   798                           opt subtitle "HI-TECH Software Omniscient Code Generator (Lite mode) build 49521"
   799                           
   800  0000                     __CFG_BOREN$OFF equ 0x0
   801                           opt subtitle "HI-TECH Software Omniscient Code Generator (Lite mode) build 49521"
   802  0000                     __CFG_PLLEN$ON equ 0x0
   803                           opt subtitle "HI-TECH Software Omniscient Code Generator (Lite mode) build 49521"
   804  0000                     __CFG_FOSC$INTOSC equ 0x0
   805                           opt subtitle "HI-TECH Software Omniscient Code Generator (Lite mode) build 49521"
   806  0000                     __CFG_MCLRE$ON equ 0x0
   807                           opt subtitle "HI-TECH Software Omniscient Code Generator (Lite mode) build 49521"
   808  0000                     __CFG_WDTE$OFF equ 0x0
   809                           opt subtitle "HI-TECH Software Omniscient Code Generator (Lite mode) build 49521"
   810  0000                     __CFG_CP$OFF equ 0x0
   811                           opt subtitle "HI-TECH Software Omniscient Code Generator (Lite mode) build 49521"
   812  0000                     __CFG_PWRTE$OFF equ 0x0
   813                           opt subtitle "HI-TECH Software Omniscient Code Generator (Lite mode) build 49521"
   814                           
   815                           opt pagewidth 120
   816                           
   817  07C9                     start_initialization:
   818                           opt subtitle "HI-TECH Software Omniscient Code Generator (Lite mode) build 49521"
   819                           
   820  07C9                     __initialization:
   821                           opt subtitle "HI-TECH Software Omniscient Code Generator (Lite mode) build 49521"
   822                           
   823  03D8                     __pbitbssCOMMON:
   824  03D8                     _flag:
   825  03D8                            ds      1
   826                           opt subtitle "HI-TECH Software Omniscient Code Generator (Lite mode) build 49521"
   827  03D9                     _scap_on:
   828  03D9                            ds      1
   829                           opt subtitle "HI-TECH Software Omniscient Code Generator (Lite mode) build 49521"
   830                           
   831                           opt pagewidth 120
   832  007C                     __pbssCOMMON:
   833  007C                     _tmr1Counter:
   834  007C                            ds      1
   835                           opt subtitle "HI-TECH Software Omniscient Code Generator (Lite mode) build 49521"
   836                           
   837                           opt pagewidth 120
   838  0078                     __pdataCOMMON:
   839                           opt subtitle "HI-TECH Software Omniscient Code Generator (Lite mode) build 49521"
   840                           
   841  0078                     _dac_value:
   842  0078                            ds      2
   843                           opt subtitle "HI-TECH Software Omniscient Code Generator (Lite mode) build 49521"
   844                           
   845                           opt pagewidth 120
   846                           
   847  007A                     _tmr1Target:
   848  007A                            ds      1
   849                           opt subtitle "HI-TECH Software Omniscient Code Generator (Lite mode) build 49521"
   850                           
   851                           opt pagewidth 120
   852  004C                     __pbssBANK0:
   853  004C                     _charge_pulse:
   854  004C                            ds      2
   855                           opt subtitle "HI-TECH Software Omniscient Code Generator (Lite mode) build 49521"
   856  004E                     _charge_time:
   857  004E                            ds      2
   858                           opt subtitle "HI-TECH Software Omniscient Code Generator (Lite mode) build 49521"
   859  0050                     _energy:
   860  0050                            ds      2
   861                           opt subtitle "HI-TECH Software Omniscient Code Generator (Lite mode) build 49521"
   862  0052                     _timelapse_count:
   863  0052                            ds      2
   864                           opt subtitle "HI-TECH Software Omniscient Code Generator (Lite mode) build 49521"
   865  0054                     _values:
   866  0054                            ds      2
   867                           opt subtitle "HI-TECH Software Omniscient Code Generator (Lite mode) build 49521"
   868  0056                     _jumper_stat:
   869  0056                            ds      1
   870                           opt subtitle "HI-TECH Software Omniscient Code Generator (Lite mode) build 49521"
   871  0057                     _sleep_count:
   872  0057                            ds      1
   873                           opt subtitle "HI-TECH Software Omniscient Code Generator (Lite mode) build 49521"
   874  0058                     _sleep_counter:
   875  0058                            ds      1
   876                           opt subtitle "HI-TECH Software Omniscient Code Generator (Lite mode) build 49521"
   877  0059                     _value:
   878  0059                            ds      1
   879                           opt subtitle "HI-TECH Software Omniscient Code Generator (Lite mode) build 49521"
   880                           
   881                           opt pagewidth 120
   882  005A                     __pdataBANK0:
   883                           opt subtitle "HI-TECH Software Omniscient Code Generator (Lite mode) build 49521"
   884                           
   885  005A                     _charge_pulse_float:
   886  005A                            ds      3
   887                           opt subtitle "HI-TECH Software Omniscient Code Generator (Lite mode) build 49521"
   888                           
   889                           opt pagewidth 120
   890                           
   891  005D                     _tx_buf:
   892  005D                            ds      10
   893                           opt subtitle "HI-TECH Software Omniscient Code Generator (Lite mode) build 49521"
   894                           
   895                           opt pagewidth 120
   896  00A0                     __pbssBANK1:
   897  00A0                     _rx_buf:
   898  00A0                            ds      32
   899                           opt subtitle "HI-TECH Software Omniscient Code Generator (Lite mode) build 49521"
   900                           
   901                           opt pagewidth 120
   902                           
   903                           	opt lm
   904  09B0                     clear_ram:
   905  09B0  0064               	clrwdt			;clear the watchdog before getting into this loop
   906  09B1                     clrloop:
   907  09B1  0180               	clrf	indf		;clear RAM location pointed to by FSR
   908  09B2  0A84               	incf	fsr,f		;increment pointer
   909  09B3  0604               	xorwf	fsr,w		;XOR with final address
   910  09B4  1903               	btfsc	status,2	;have we reached the end yet?
   911  09B5  3400               	retlw	0		;all done for this memory range, return
   912  09B6  0604               	xorwf	fsr,w		;XOR again to restore value
   913  09B7  29B1               	goto	clrloop		;do the next byte
   914                           opt subtitle "HI-TECH Software Omniscient Code Generator (Lite mode) build 49521"
   915                           
   916                           opt pagewidth 120
   917  07C9  01FB               	clrf	((__pbitbssCOMMON/8)+0)&07Fh
   918                           opt subtitle "HI-TECH Software Omniscient Code Generator (Lite mode) build 49521"
   919                           
   920  07CA  01FC               	clrf	((__pbssCOMMON)+0)&07Fh
   921                           opt subtitle "HI-TECH Software Omniscient Code Generator (Lite mode) build 49521"
   922                           
   923  07CB  1383               	bcf	status, 7	;select IRP bank0
   924  07CC  304C               	movlw	low(__pbssBANK0)
   925  07CD  0084               	movwf	fsr
   926  07CE  305A               	movlw	low((__pbssBANK0)+0Eh)
   927  07CF  120A  158A  21B0   	fcall	clear_ram
              120A  118A         
   928                           opt subtitle "HI-TECH Software Omniscient Code Generator (Lite mode) build 49521"
   929                           
   930  07D4  30A0               	movlw	low(__pbssBANK1)
   931  07D5  0084               	movwf	fsr
   932  07D6  30C0               	movlw	low((__pbssBANK1)+020h)
   933  07D7  120A  158A  21B0   	fcall	clear_ram
              120A  118A         
   934                           opt subtitle "HI-TECH Software Omniscient Code Generator (Lite mode) build 49521"
   935                           
   936                           opt pagewidth 120
   937                           
   938  09CE                     init_fetch:
   939  09CE  087E               	movf btemp,w
   940  09CF  008A               	movwf pclath
   941  09D0  087F               	movf btemp+1,w
   942  09D1  0082               	movwf pc
   943                           opt subtitle "HI-TECH Software Omniscient Code Generator (Lite mode) build 49521"
   944                           
   945                           opt pagewidth 120
   946                           
   947                           	opt lm
   948                           
   949  09D2                     init_ram:
   950  09D2  120A  158A  21CE   	fcall init_fetch
              120A  158A         
   951  09D7  0080               	movwf indf,f
   952  09D8  0A84               	incf fsr,f
   953  09D9  0804               	movf fsr,w
   954  09DA  067D               	xorwf btemp-1,w
   955  09DB  1903               	btfsc status,2
   956  09DC  3400               	retlw 0
   957  09DD  0AFF               	incf btemp+1,f
   958  09DE  1903               	btfsc status,2
   959  09DF  0AFE               	incf btemp,f
   960  09E0  29D2               	goto init_ram
   961                           opt subtitle "HI-TECH Software Omniscient Code Generator (Lite mode) build 49521"
   962                           
   963                           opt pagewidth 120
   964  07DC  3067               	movlw low(__pdataBANK0+13)
   965  07DD  00FD               	movwf btemp-1,f
   966  07DE  3009               	movlw high(__pidataBANK0)
   967  07DF  00FE               	movwf btemp,f
   968  07E0  30C1               	movlw low(__pidataBANK0)
   969  07E1  00FF               	movwf btemp+1,f
   970  07E2  305A               	movlw low(__pdataBANK0)
   971  07E3  0084               	movwf fsr,f
   972  07E4  120A  158A  21D2   	fcall init_ram
              120A  118A         
   973                           opt subtitle "HI-TECH Software Omniscient Code Generator (Lite mode) build 49521"
   974                           
   975                           opt pagewidth 120
   976  07E9  120A  158A  21AD   	fcall	__pidataCOMMON+0		;fetch initializer
              120A  118A         
   977  07EE  00F8               	movwf	__pdataCOMMON+0&07fh		
   978  07EF  120A  158A  21AE   	fcall	__pidataCOMMON+1		;fetch initializer
              120A  118A         
   979  07F4  00F9               	movwf	__pdataCOMMON+1&07fh		
   980  07F5  120A  158A  21AF   	fcall	__pidataCOMMON+2		;fetch initializer
              120A  118A         
   981  07FA  00FA               	movwf	__pdataCOMMON+2&07fh		
   982                           opt subtitle "HI-TECH Software Omniscient Code Generator (Lite mode) build 49521"
   983                           
   984                           opt pagewidth 120
   985                           
   986                           	opt lm
   987  07FB                     end_of_initialization:
   988  07FB                     __end_of__initialization:clrf status
      + 07FB  0183               	clrf	3
   989  07FC  120A  118A  2AFB   ljmp _main	;jump to C main() function
   990                           opt subtitle "HI-TECH Software Omniscient Code Generator (Lite mode) build 49521"
   991                           
   992  0070                     __pcstackCOMMON:
   993  0070                     ?_boardInit:	; 0 bytes @ 0x0
   994  0070                     ?_spiInit:	; 0 bytes @ 0x0
   995  0070                     ?_uartInit:	; 0 bytes @ 0x0
   996  0070                     ?_adcInit:	; 0 bytes @ 0x0
   997  0070                     ?_rfm70setPowerdownMode:	; 0 bytes @ 0x0
   998  0070                     ?_RFM70_Initialize:	; 0 bytes @ 0x0
   999  0070                     ?_sleep:	; 0 bytes @ 0x0
  1000  0070                     ?_SwitchToTxMode:	; 0 bytes @ 0x0
  1001  0070                     ?_SwitchToRxMode:	; 0 bytes @ 0x0
  1002  0070                     ?_ISR:	; 0 bytes @ 0x0
  1003  0070                     ??_ISR:	; 0 bytes @ 0x0
  1004  0070                     ?_SwitchCFG:	; 0 bytes @ 0x0
  1005  0070                     ?_adcReadVcap:	; 1 bytes @ 0x0
  1006  0070                     ?_adcReadVsupercap:	; 1 bytes @ 0x0
  1007  0070                     ?_adcReadTemp:	; 1 bytes @ 0x0
  1008  0070                     ?_SPI_Read_Reg:	; 1 bytes @ 0x0
  1009  0070                     ?_rfm70TxDataSentInterrupt:	; 1 bytes @ 0x0
  1010  0070                     ?_rfm70TxDataSentErrorInterrupt:	; 1 bytes @ 0x0
  1011  0070                     ?_SPI_RW:	; 1 bytes @ 0x0
  1012  0070                     	ds	8
  1013                           opt subtitle "HI-TECH Software Omniscient Code Generator (Lite mode) build 49521"
  1014                           
  1015  0020                     __pcstackBANK0:
  1016  0020                     ??_boardInit:	; 0 bytes @ 0x0
  1017  0020                     ??_spiInit:	; 0 bytes @ 0x0
  1018  0020                     ??_uartInit:	; 0 bytes @ 0x0
  1019  0020                     ??_adcInit:	; 0 bytes @ 0x0
  1020  0020                     ??_adcReadVcap:	; 0 bytes @ 0x0
  1021  0020                     ??_adcReadVsupercap:	; 0 bytes @ 0x0
  1022  0020                     ??_adcReadTemp:	; 0 bytes @ 0x0
  1023  0020                     ??_SPI_RW:	; 0 bytes @ 0x0
  1024                           opt subtitle "HI-TECH Software Omniscient Code Generator (Lite mode) build 49521"
  1025  0020                     ?___wmul:	; 2 bytes @ 0x0
  1026                           opt subtitle "HI-TECH Software Omniscient Code Generator (Lite mode) build 49521"
  1027  0020                     ?___ftpack:	; 3 bytes @ 0x0
  1028                           opt subtitle "HI-TECH Software Omniscient Code Generator (Lite mode) build 49521"
  1029  0020                     ?___fttol:	; 4 bytes @ 0x0
  1030                           opt subtitle "HI-TECH Software Omniscient Code Generator (Lite mode) build 49521"
  1031  0020                     ___wmul@multiplier:	; 2 bytes @ 0x0
  1032                           opt subtitle "HI-TECH Software Omniscient Code Generator (Lite mode) build 49521"
  1033  0020                     ___fttol@f1:	; 3 bytes @ 0x0
  1034                           opt subtitle "HI-TECH Software Omniscient Code Generator (Lite mode) build 49521"
  1035  0020                     ___ftpack@arg:	; 3 bytes @ 0x0
  1036  0020                     	ds	2
  1037                           opt subtitle "HI-TECH Software Omniscient Code Generator (Lite mode) build 49521"
  1038  0022                     adcReadTemp@value:	; 1 bytes @ 0x2
  1039                           opt subtitle "HI-TECH Software Omniscient Code Generator (Lite mode) build 49521"
  1040  0022                     adcReadVcap@value:	; 1 bytes @ 0x2
  1041                           opt subtitle "HI-TECH Software Omniscient Code Generator (Lite mode) build 49521"
  1042  0022                     adcReadVsupercap@value:	; 1 bytes @ 0x2
  1043                           opt subtitle "HI-TECH Software Omniscient Code Generator (Lite mode) build 49521"
  1044  0022                     SPI_RW@value:	; 1 bytes @ 0x2
  1045                           opt subtitle "HI-TECH Software Omniscient Code Generator (Lite mode) build 49521"
  1046  0022                     ___wmul@multiplicand:	; 2 bytes @ 0x2
  1047  0022                     	ds	1
  1048  0023                     ??_SPI_Read_Reg:	; 0 bytes @ 0x3
  1049                           opt subtitle "HI-TECH Software Omniscient Code Generator (Lite mode) build 49521"
  1050  0023                     ?_SPI_Write_Buf:	; 0 bytes @ 0x3
  1051                           opt subtitle "HI-TECH Software Omniscient Code Generator (Lite mode) build 49521"
  1052  0023                     ?_SPI_Write_Reg:	; 0 bytes @ 0x3
  1053                           opt subtitle "HI-TECH Software Omniscient Code Generator (Lite mode) build 49521"
  1054  0023                     SPI_Write_Reg@value:	; 1 bytes @ 0x3
  1055                           opt subtitle "HI-TECH Software Omniscient Code Generator (Lite mode) build 49521"
  1056  0023                     SPI_Write_Buf@pBuf:	; 1 bytes @ 0x3
  1057                           opt subtitle "HI-TECH Software Omniscient Code Generator (Lite mode) build 49521"
  1058  0023                     ___ftpack@exp:	; 1 bytes @ 0x3
  1059  0023                     	ds	1
  1060  0024                     ??_SPI_Write_Reg:	; 0 bytes @ 0x4
  1061  0024                     ??___wmul:	; 0 bytes @ 0x4
  1062  0024                     ??___fttol:	; 0 bytes @ 0x4
  1063                           opt subtitle "HI-TECH Software Omniscient Code Generator (Lite mode) build 49521"
  1064  0024                     SPI_Write_Reg@reg:	; 1 bytes @ 0x4
  1065                           opt subtitle "HI-TECH Software Omniscient Code Generator (Lite mode) build 49521"
  1066  0024                     SPI_Read_Reg@reg:	; 1 bytes @ 0x4
  1067                           opt subtitle "HI-TECH Software Omniscient Code Generator (Lite mode) build 49521"
  1068  0024                     SPI_Write_Buf@length:	; 1 bytes @ 0x4
  1069                           opt subtitle "HI-TECH Software Omniscient Code Generator (Lite mode) build 49521"
  1070  0024                     ___ftpack@sign:	; 1 bytes @ 0x4
  1071                           opt subtitle "HI-TECH Software Omniscient Code Generator (Lite mode) build 49521"
  1072  0024                     ___wmul@product:	; 2 bytes @ 0x4
  1073  0024                     	ds	1
  1074  0025                     ??_SPI_Write_Buf:	; 0 bytes @ 0x5
  1075  0025                     ??___ftpack:	; 0 bytes @ 0x5
  1076                           opt subtitle "HI-TECH Software Omniscient Code Generator (Lite mode) build 49521"
  1077  0025                     SPI_Read_Reg@value:	; 1 bytes @ 0x5
  1078  0025                     	ds	1
  1079  0026                     ??_rfm70setPowerdownMode:	; 0 bytes @ 0x6
  1080  0026                     ??_SwitchToTxMode:	; 0 bytes @ 0x6
  1081  0026                     ??_rfm70TxDataSentInterrupt:	; 0 bytes @ 0x6
  1082  0026                     ??_SwitchToRxMode:	; 0 bytes @ 0x6
  1083  0026                     ??_rfm70TxDataSentErrorInterrupt:	; 0 bytes @ 0x6
  1084  0026                     ??_SwitchCFG:	; 0 bytes @ 0x6
  1085                           opt subtitle "HI-TECH Software Omniscient Code Generator (Lite mode) build 49521"
  1086  0026                     ?___awdiv:	; 2 bytes @ 0x6
  1087                           opt subtitle "HI-TECH Software Omniscient Code Generator (Lite mode) build 49521"
  1088  0026                     SPI_Write_Buf@reg:	; 1 bytes @ 0x6
  1089                           opt subtitle "HI-TECH Software Omniscient Code Generator (Lite mode) build 49521"
  1090  0026                     ___awdiv@divisor:	; 2 bytes @ 0x6
  1091  0026                     	ds	1
  1092                           opt subtitle "HI-TECH Software Omniscient Code Generator (Lite mode) build 49521"
  1093  0027                     SPI_Write_Buf@byte_ctr:	; 1 bytes @ 0x7
  1094                           opt subtitle "HI-TECH Software Omniscient Code Generator (Lite mode) build 49521"
  1095  0027                     SwitchToRxMode@value:	; 1 bytes @ 0x7
  1096                           opt subtitle "HI-TECH Software Omniscient Code Generator (Lite mode) build 49521"
  1097  0027                     SwitchToTxMode@value:	; 1 bytes @ 0x7
  1098                           opt subtitle "HI-TECH Software Omniscient Code Generator (Lite mode) build 49521"
  1099  0027                     SwitchCFG@_cfg:	; 1 bytes @ 0x7
  1100                           opt subtitle "HI-TECH Software Omniscient Code Generator (Lite mode) build 49521"
  1101  0027                     rfm70setPowerdownMode@value:	; 1 bytes @ 0x7
  1102  0027                     	ds	1
  1103                           opt subtitle "HI-TECH Software Omniscient Code Generator (Lite mode) build 49521"
  1104  0028                     ?_Send_Packet:	; 0 bytes @ 0x8
  1105                           opt subtitle "HI-TECH Software Omniscient Code Generator (Lite mode) build 49521"
  1106  0028                     ?___ftdiv:	; 3 bytes @ 0x8
  1107                           opt subtitle "HI-TECH Software Omniscient Code Generator (Lite mode) build 49521"
  1108  0028                     ?___ftmul:	; 3 bytes @ 0x8
  1109                           opt subtitle "HI-TECH Software Omniscient Code Generator (Lite mode) build 49521"
  1110  0028                     ?___lbtoft:	; 3 bytes @ 0x8
  1111                           opt subtitle "HI-TECH Software Omniscient Code Generator (Lite mode) build 49521"
  1112  0028                     Send_Packet@pbuf:	; 1 bytes @ 0x8
  1113                           opt subtitle "HI-TECH Software Omniscient Code Generator (Lite mode) build 49521"
  1114  0028                     SwitchCFG@Tmp:	; 1 bytes @ 0x8
  1115                           opt subtitle "HI-TECH Software Omniscient Code Generator (Lite mode) build 49521"
  1116  0028                     rfm70setPowerdownMode@reg:	; 1 bytes @ 0x8
  1117                           opt subtitle "HI-TECH Software Omniscient Code Generator (Lite mode) build 49521"
  1118  0028                     ___fttol@sign1:	; 1 bytes @ 0x8
  1119                           opt subtitle "HI-TECH Software Omniscient Code Generator (Lite mode) build 49521"
  1120  0028                     ___awdiv@dividend:	; 2 bytes @ 0x8
  1121                           opt subtitle "HI-TECH Software Omniscient Code Generator (Lite mode) build 49521"
  1122  0028                     ___ftdiv@f2:	; 3 bytes @ 0x8
  1123                           opt subtitle "HI-TECH Software Omniscient Code Generator (Lite mode) build 49521"
  1124  0028                     ___ftmul@f1:	; 3 bytes @ 0x8
  1125  0028                     	ds	1
  1126  0029                     ??_RFM70_Initialize:	; 0 bytes @ 0x9
  1127                           opt subtitle "HI-TECH Software Omniscient Code Generator (Lite mode) build 49521"
  1128  0029                     Send_Packet@len:	; 1 bytes @ 0x9
  1129                           opt subtitle "HI-TECH Software Omniscient Code Generator (Lite mode) build 49521"
  1130  0029                     ___fttol@lval:	; 4 bytes @ 0x9
  1131  0029                     	ds	1
  1132  002A                     ??_Send_Packet:	; 0 bytes @ 0xA
  1133  002A                     ??___awdiv:	; 0 bytes @ 0xA
  1134  002A                     	ds	1
  1135  002B                     ??___lbtoft:	; 0 bytes @ 0xB
  1136                           opt subtitle "HI-TECH Software Omniscient Code Generator (Lite mode) build 49521"
  1137  002B                     ___awdiv@counter:	; 1 bytes @ 0xB
  1138                           opt subtitle "HI-TECH Software Omniscient Code Generator (Lite mode) build 49521"
  1139  002B                     ___ftdiv@f1:	; 3 bytes @ 0xB
  1140                           opt subtitle "HI-TECH Software Omniscient Code Generator (Lite mode) build 49521"
  1141  002B                     ___ftmul@f2:	; 3 bytes @ 0xB
  1142  002B                     	ds	1
  1143                           opt subtitle "HI-TECH Software Omniscient Code Generator (Lite mode) build 49521"
  1144  002C                     Send_Packet@type:	; 1 bytes @ 0xC
  1145                           opt subtitle "HI-TECH Software Omniscient Code Generator (Lite mode) build 49521"
  1146  002C                     ___awdiv@sign:	; 1 bytes @ 0xC
  1147  002C                     	ds	1
  1148                           opt subtitle "HI-TECH Software Omniscient Code Generator (Lite mode) build 49521"
  1149  002D                     Send_Packet@fifo_sta:	; 1 bytes @ 0xD
  1150                           opt subtitle "HI-TECH Software Omniscient Code Generator (Lite mode) build 49521"
  1151  002D                     ___fttol@exp1:	; 1 bytes @ 0xD
  1152                           opt subtitle "HI-TECH Software Omniscient Code Generator (Lite mode) build 49521"
  1153  002D                     ___awdiv@quotient:	; 2 bytes @ 0xD
  1154  002D                     	ds	1
  1155  002E                     ??___ftdiv:	; 0 bytes @ 0xE
  1156  002E                     ??___ftmul:	; 0 bytes @ 0xE
  1157  002E                     	ds	1
  1158                           opt subtitle "HI-TECH Software Omniscient Code Generator (Lite mode) build 49521"
  1159  002F                     ___lbtoft@c:	; 1 bytes @ 0xF
  1160  002F                     	ds	1
  1161                           opt subtitle "HI-TECH Software Omniscient Code Generator (Lite mode) build 49521"
  1162  0030                     ?___ftge:	; 1 bit 
  1163                           opt subtitle "HI-TECH Software Omniscient Code Generator (Lite mode) build 49521"
  1164  0030                     ___ftge@ff1:	; 3 bytes @ 0x10
  1165                           opt subtitle "HI-TECH Software Omniscient Code Generator (Lite mode) build 49521"
  1166  0030                     RFM70_Initialize@WriteArr:	; 12 bytes @ 0x10
  1167  0030                     	ds	2
  1168                           opt subtitle "HI-TECH Software Omniscient Code Generator (Lite mode) build 49521"
  1169  0032                     ___ftdiv@cntr:	; 1 bytes @ 0x12
  1170                           opt subtitle "HI-TECH Software Omniscient Code Generator (Lite mode) build 49521"
  1171  0032                     ___ftmul@exp:	; 1 bytes @ 0x12
  1172  0032                     	ds	1
  1173                           opt subtitle "HI-TECH Software Omniscient Code Generator (Lite mode) build 49521"
  1174  0033                     ___ftdiv@f3:	; 3 bytes @ 0x13
  1175                           opt subtitle "HI-TECH Software Omniscient Code Generator (Lite mode) build 49521"
  1176  0033                     ___ftmul@f3_as_product:	; 3 bytes @ 0x13
  1177                           opt subtitle "HI-TECH Software Omniscient Code Generator (Lite mode) build 49521"
  1178  0033                     ___ftge@ff2:	; 3 bytes @ 0x13
  1179  0033                     	ds	3
  1180  0036                     ??___ftge:	; 0 bytes @ 0x16
  1181                           opt subtitle "HI-TECH Software Omniscient Code Generator (Lite mode) build 49521"
  1182  0036                     ___ftdiv@exp:	; 1 bytes @ 0x16
  1183                           opt subtitle "HI-TECH Software Omniscient Code Generator (Lite mode) build 49521"
  1184  0036                     ___ftmul@cntr:	; 1 bytes @ 0x16
  1185  0036                     	ds	1
  1186                           opt subtitle "HI-TECH Software Omniscient Code Generator (Lite mode) build 49521"
  1187  0037                     ___ftdiv@sign:	; 1 bytes @ 0x17
  1188                           opt subtitle "HI-TECH Software Omniscient Code Generator (Lite mode) build 49521"
  1189  0037                     ___ftmul@sign:	; 1 bytes @ 0x17
  1190  0037                     	ds	5
  1191  003C                     ??_sleep:	; 0 bytes @ 0x1C
  1192                           opt subtitle "HI-TECH Software Omniscient Code Generator (Lite mode) build 49521"
  1193  003C                     RFM70_Initialize@i:	; 1 bytes @ 0x1C
  1194  003C                     	ds	1
  1195                           opt subtitle "HI-TECH Software Omniscient Code Generator (Lite mode) build 49521"
  1196  003D                     RFM70_Initialize@j:	; 1 bytes @ 0x1D
  1197  003D                     	ds	1
  1198                           opt subtitle "HI-TECH Software Omniscient Code Generator (Lite mode) build 49521"
  1199  003E                     sleep@new_value:	; 1 bytes @ 0x1E
  1200  003E                     	ds	1
  1201  003F                     ?_main:	; 2 bytes @ 0x1F
  1202  003F                     main@argc:	; 2 bytes @ 0x1F
  1203  003F                     	ds	2
  1204  0041                     main@argv:	; 2 bytes @ 0x21
  1205  0041                     	ds	2
  1206  0043                     ??_main:	; 0 bytes @ 0x23
  1207  0043                     	ds	4
  1208                           opt subtitle "HI-TECH Software Omniscient Code Generator (Lite mode) build 49521"
  1209  0047                     main@i:	; 4 bytes @ 0x27
  1210  0047                     	ds	4
  1211                           opt subtitle "HI-TECH Software Omniscient Code Generator (Lite mode) build 49521"
  1212  004B                     main@num_sleep:	; 1 bytes @ 0x2B
  1213  004B                     	ds	1
  1214                           opt subtitle "HI-TECH Software Omniscient Code Generator (Lite mode) build 49521"
  1215                           
  1216                           opt pagewidth 120
  1217                           
  1218                           	opt lm
  1219                           
  1220                           	processor	16LF707
  1221                           clrc	macro
  1222                           	bcf	3,0
  1223                           	endm
  1224                           clrz	macro
  1225                           	bcf	3,2
  1226                           	endm
  1227                           setc	macro
  1228                           	bsf	3,0
  1229                           	endm
  1230                           setz	macro
  1231                           	bsf	3,2
  1232                           	endm
  1233                           skipc	macro
  1234                           	btfss	3,0
  1235                           	endm
  1236                           skipz	macro
  1237                           	btfss	3,2
  1238                           	endm
  1239                           skipnc	macro
  1240                           	btfsc	3,0
  1241                           	endm
  1242                           skipnz	macro
  1243                           	btfsc	3,2
  1244                           	endm
  1245                           indf	equ	0
  1246                           indf0	equ	0
  1247                           pc	equ	2
  1248                           pcl	equ	2
  1249                           status	equ	3
  1250                           fsr	equ	4
  1251                           fsr0	equ	4
  1252                           c	equ	1
  1253                           z	equ	0
  1254                           pclath	equ	10
  1255                           # 46 "/Applications/microchip/xc8/v1.12/include/pic16lf707.h"
  1256                           INDF equ 00h ;# 
  1257                           # 52 "/Applications/microchip/xc8/v1.12/include/pic16lf707.h"
  1258                           TMR0 equ 01h ;# 
  1259                           # 58 "/Applications/microchip/xc8/v1.12/include/pic16lf707.h"
  1260                           PCL equ 02h ;# 
  1261                           # 64 "/Applications/microchip/xc8/v1.12/include/pic16lf707.h"
  1262                           STATUS equ 03h ;# 
  1263                           # 151 "/Applications/microchip/xc8/v1.12/include/pic16lf707.h"
  1264                           FSR equ 04h ;# 
  1265                           # 157 "/Applications/microchip/xc8/v1.12/include/pic16lf707.h"
  1266                           PORTA equ 05h ;# 
  1267                           # 346 "/Applications/microchip/xc8/v1.12/include/pic16lf707.h"
  1268                           PORTB equ 06h ;# 
  1269                           # 520 "/Applications/microchip/xc8/v1.12/include/pic16lf707.h"
  1270                           PORTC equ 07h ;# 
  1271                           # 715 "/Applications/microchip/xc8/v1.12/include/pic16lf707.h"
  1272                           PORTD equ 08h ;# 
  1273                           # 834 "/Applications/microchip/xc8/v1.12/include/pic16lf707.h"
  1274                           PORTE equ 09h ;# 
  1275                           # 917 "/Applications/microchip/xc8/v1.12/include/pic16lf707.h"
  1276                           PCLATH equ 0Ah ;# 
  1277                           # 936 "/Applications/microchip/xc8/v1.12/include/pic16lf707.h"
  1278                           INTCON equ 0Bh ;# 
  1279                           # 1013 "/Applications/microchip/xc8/v1.12/include/pic16lf707.h"
  1280                           PIR1 equ 0Ch ;# 
  1281                           # 1074 "/Applications/microchip/xc8/v1.12/include/pic16lf707.h"
  1282                           PIR2 equ 0Dh ;# 
  1283                           # 1118 "/Applications/microchip/xc8/v1.12/include/pic16lf707.h"
  1284                           TMR1 equ 0Eh ;# 
  1285                           # 1124 "/Applications/microchip/xc8/v1.12/include/pic16lf707.h"
  1286                           TMR1L equ 0Eh ;# 
  1287                           # 1130 "/Applications/microchip/xc8/v1.12/include/pic16lf707.h"
  1288                           TMR1H equ 0Fh ;# 
  1289                           # 1136 "/Applications/microchip/xc8/v1.12/include/pic16lf707.h"
  1290                           T1CON equ 010h ;# 
  1291                           # 1214 "/Applications/microchip/xc8/v1.12/include/pic16lf707.h"
  1292                           TMR2 equ 011h ;# 
  1293                           # 1220 "/Applications/microchip/xc8/v1.12/include/pic16lf707.h"
  1294                           T2CON equ 012h ;# 
  1295                           # 1290 "/Applications/microchip/xc8/v1.12/include/pic16lf707.h"
  1296                           SSPBUF equ 013h ;# 
  1297                           # 1296 "/Applications/microchip/xc8/v1.12/include/pic16lf707.h"
  1298                           SSPCON equ 014h ;# 
  1299                           # 1365 "/Applications/microchip/xc8/v1.12/include/pic16lf707.h"
  1300                           CCPR1 equ 015h ;# 
  1301                           # 1371 "/Applications/microchip/xc8/v1.12/include/pic16lf707.h"
  1302                           CCPR1L equ 015h ;# 
  1303                           # 1377 "/Applications/microchip/xc8/v1.12/include/pic16lf707.h"
  1304                           CCPR1H equ 016h ;# 
  1305                           # 1383 "/Applications/microchip/xc8/v1.12/include/pic16lf707.h"
  1306                           CCP1CON equ 017h ;# 
  1307                           # 1446 "/Applications/microchip/xc8/v1.12/include/pic16lf707.h"
  1308                           RCSTA equ 018h ;# 
  1309                           # 1507 "/Applications/microchip/xc8/v1.12/include/pic16lf707.h"
  1310                           TXREG equ 019h ;# 
  1311                           # 1513 "/Applications/microchip/xc8/v1.12/include/pic16lf707.h"
  1312                           RCREG equ 01Ah ;# 
  1313                           # 1519 "/Applications/microchip/xc8/v1.12/include/pic16lf707.h"
  1314                           CCPR2 equ 01Bh ;# 
  1315                           # 1525 "/Applications/microchip/xc8/v1.12/include/pic16lf707.h"
  1316                           CCPR2L equ 01Bh ;# 
  1317                           # 1531 "/Applications/microchip/xc8/v1.12/include/pic16lf707.h"
  1318                           CCPR2H equ 01Ch ;# 
  1319                           # 1537 "/Applications/microchip/xc8/v1.12/include/pic16lf707.h"
  1320                           CCP2CON equ 01Dh ;# 
  1321                           # 1600 "/Applications/microchip/xc8/v1.12/include/pic16lf707.h"
  1322                           ADRES equ 01Eh ;# 
  1323                           # 1606 "/Applications/microchip/xc8/v1.12/include/pic16lf707.h"
  1324                           ADCON0 equ 01Fh ;# 
  1325                           # 1664 "/Applications/microchip/xc8/v1.12/include/pic16lf707.h"
  1326                           OPTION_REG equ 081h ;# 
  1327                           # 1746 "/Applications/microchip/xc8/v1.12/include/pic16lf707.h"
  1328                           TRISA equ 085h ;# 
  1329                           # 1807 "/Applications/microchip/xc8/v1.12/include/pic16lf707.h"
  1330                           TRISB equ 086h ;# 
  1331                           # 1868 "/Applications/microchip/xc8/v1.12/include/pic16lf707.h"
  1332                           TRISC equ 087h ;# 
  1333                           # 1929 "/Applications/microchip/xc8/v1.12/include/pic16lf707.h"
  1334                           TRISD equ 088h ;# 
  1335                           # 1990 "/Applications/microchip/xc8/v1.12/include/pic16lf707.h"
  1336                           TRISE equ 089h ;# 
  1337                           # 2027 "/Applications/microchip/xc8/v1.12/include/pic16lf707.h"
  1338                           PIE1 equ 08Ch ;# 
  1339                           # 2088 "/Applications/microchip/xc8/v1.12/include/pic16lf707.h"
  1340                           PIE2 equ 08Dh ;# 
  1341                           # 2132 "/Applications/microchip/xc8/v1.12/include/pic16lf707.h"
  1342                           PCON equ 08Eh ;# 
  1343                           # 2157 "/Applications/microchip/xc8/v1.12/include/pic16lf707.h"
  1344                           T1GCON equ 08Fh ;# 
  1345                           # 2226 "/Applications/microchip/xc8/v1.12/include/pic16lf707.h"
  1346                           OSCCON equ 090h ;# 
  1347                           # 2273 "/Applications/microchip/xc8/v1.12/include/pic16lf707.h"
  1348                           OSCTUNE equ 091h ;# 
  1349                           # 2292 "/Applications/microchip/xc8/v1.12/include/pic16lf707.h"
  1350                           PR2 equ 092h ;# 
  1351                           # 2298 "/Applications/microchip/xc8/v1.12/include/pic16lf707.h"
  1352                           SSPADD equ 093h ;# 
  1353                           # 2317 "/Applications/microchip/xc8/v1.12/include/pic16lf707.h"
  1354                           SSPMSK equ 093h ;# 
  1355                           # 2336 "/Applications/microchip/xc8/v1.12/include/pic16lf707.h"
  1356                           SSPSTAT equ 094h ;# 
  1357                           # 2397 "/Applications/microchip/xc8/v1.12/include/pic16lf707.h"
  1358                           WPUB equ 095h ;# 
  1359                           # 2458 "/Applications/microchip/xc8/v1.12/include/pic16lf707.h"
  1360                           IOCB equ 096h ;# 
  1361                           # 2519 "/Applications/microchip/xc8/v1.12/include/pic16lf707.h"
  1362                           T3CON equ 097h ;# 
  1363                           # 2585 "/Applications/microchip/xc8/v1.12/include/pic16lf707.h"
  1364                           TXSTA equ 098h ;# 
  1365                           # 2641 "/Applications/microchip/xc8/v1.12/include/pic16lf707.h"
  1366                           SPBRG equ 099h ;# 
  1367                           # 2647 "/Applications/microchip/xc8/v1.12/include/pic16lf707.h"
  1368                           TMR3 equ 09Ah ;# 
  1369                           # 2653 "/Applications/microchip/xc8/v1.12/include/pic16lf707.h"
  1370                           TMR3L equ 09Ah ;# 
  1371                           # 2659 "/Applications/microchip/xc8/v1.12/include/pic16lf707.h"
  1372                           TMR3H equ 09Bh ;# 
  1373                           # 2665 "/Applications/microchip/xc8/v1.12/include/pic16lf707.h"
  1374                           APFCON equ 09Ch ;# 
  1375                           # 2690 "/Applications/microchip/xc8/v1.12/include/pic16lf707.h"
  1376                           FVRCON equ 09Dh ;# 
  1377                           # 2755 "/Applications/microchip/xc8/v1.12/include/pic16lf707.h"
  1378                           T3GCON equ 09Eh ;# 
  1379                           # 2824 "/Applications/microchip/xc8/v1.12/include/pic16lf707.h"
  1380                           ADCON1 equ 09Fh ;# 
  1381                           # 2883 "/Applications/microchip/xc8/v1.12/include/pic16lf707.h"
  1382                           TACON equ 0105h ;# 
  1383                           # 2993 "/Applications/microchip/xc8/v1.12/include/pic16lf707.h"
  1384                           CPSBCON0 equ 0106h ;# 
  1385                           # 3052 "/Applications/microchip/xc8/v1.12/include/pic16lf707.h"
  1386                           CPSBCON1 equ 0107h ;# 
  1387                           # 3097 "/Applications/microchip/xc8/v1.12/include/pic16lf707.h"
  1388                           CPSACON0 equ 0108h ;# 
  1389                           # 3156 "/Applications/microchip/xc8/v1.12/include/pic16lf707.h"
  1390                           CPSACON1 equ 0109h ;# 
  1391                           # 3201 "/Applications/microchip/xc8/v1.12/include/pic16lf707.h"
  1392                           PMDATL equ 010Ch ;# 
  1393                           # 3207 "/Applications/microchip/xc8/v1.12/include/pic16lf707.h"
  1394                           PMADRL equ 010Dh ;# 
  1395                           # 3213 "/Applications/microchip/xc8/v1.12/include/pic16lf707.h"
  1396                           PMDATH equ 010Eh ;# 
  1397                           # 3219 "/Applications/microchip/xc8/v1.12/include/pic16lf707.h"
  1398                           PMADRH equ 010Fh ;# 
  1399                           # 3225 "/Applications/microchip/xc8/v1.12/include/pic16lf707.h"
  1400                           TMRA equ 0110h ;# 
  1401                           # 3231 "/Applications/microchip/xc8/v1.12/include/pic16lf707.h"
  1402                           TBCON equ 0111h ;# 
  1403                           # 3341 "/Applications/microchip/xc8/v1.12/include/pic16lf707.h"
  1404                           TMRB equ 0112h ;# 
  1405                           # 3347 "/Applications/microchip/xc8/v1.12/include/pic16lf707.h"
  1406                           DACCON0 equ 0113h ;# 
  1407                           # 3401 "/Applications/microchip/xc8/v1.12/include/pic16lf707.h"
  1408                           DACCON1 equ 0114h ;# 
  1409                           # 3452 "/Applications/microchip/xc8/v1.12/include/pic16lf707.h"
  1410                           ANSELA equ 0185h ;# 
  1411                           # 3521 "/Applications/microchip/xc8/v1.12/include/pic16lf707.h"
  1412                           ANSELB equ 0186h ;# 
  1413                           # 3590 "/Applications/microchip/xc8/v1.12/include/pic16lf707.h"
  1414                           ANSELC equ 0187h ;# 
  1415                           # 3648 "/Applications/microchip/xc8/v1.12/include/pic16lf707.h"
  1416                           ANSELD equ 0188h ;# 
  1417                           # 3717 "/Applications/microchip/xc8/v1.12/include/pic16lf707.h"
  1418                           ANSELE equ 0189h ;# 
  1419                           # 3756 "/Applications/microchip/xc8/v1.12/include/pic16lf707.h"
  1420                           PMCON1 equ 018Ch ;# 
  1421                           # 46 "/Applications/microchip/xc8/v1.12/include/pic16lf707.h"
  1422                           INDF equ 00h ;# 
  1423                           # 52 "/Applications/microchip/xc8/v1.12/include/pic16lf707.h"
  1424                           TMR0 equ 01h ;# 
  1425                           # 58 "/Applications/microchip/xc8/v1.12/include/pic16lf707.h"
  1426                           PCL equ 02h ;# 
  1427                           # 64 "/Applications/microchip/xc8/v1.12/include/pic16lf707.h"
  1428                           STATUS equ 03h ;# 
  1429                           # 151 "/Applications/microchip/xc8/v1.12/include/pic16lf707.h"
  1430                           FSR equ 04h ;# 
  1431                           # 157 "/Applications/microchip/xc8/v1.12/include/pic16lf707.h"
  1432                           PORTA equ 05h ;# 
  1433                           # 346 "/Applications/microchip/xc8/v1.12/include/pic16lf707.h"
  1434                           PORTB equ 06h ;# 
  1435                           # 520 "/Applications/microchip/xc8/v1.12/include/pic16lf707.h"
  1436                           PORTC equ 07h ;# 
  1437                           # 715 "/Applications/microchip/xc8/v1.12/include/pic16lf707.h"
  1438                           PORTD equ 08h ;# 
  1439                           # 834 "/Applications/microchip/xc8/v1.12/include/pic16lf707.h"
  1440                           PORTE equ 09h ;# 
  1441                           # 917 "/Applications/microchip/xc8/v1.12/include/pic16lf707.h"
  1442                           PCLATH equ 0Ah ;# 
  1443                           # 936 "/Applications/microchip/xc8/v1.12/include/pic16lf707.h"
  1444                           INTCON equ 0Bh ;# 
  1445                           # 1013 "/Applications/microchip/xc8/v1.12/include/pic16lf707.h"
  1446                           PIR1 equ 0Ch ;# 
  1447                           # 1074 "/Applications/microchip/xc8/v1.12/include/pic16lf707.h"
  1448                           PIR2 equ 0Dh ;# 
  1449                           # 1118 "/Applications/microchip/xc8/v1.12/include/pic16lf707.h"
  1450                           TMR1 equ 0Eh ;# 
  1451                           # 1124 "/Applications/microchip/xc8/v1.12/include/pic16lf707.h"
  1452                           TMR1L equ 0Eh ;# 
  1453                           # 1130 "/Applications/microchip/xc8/v1.12/include/pic16lf707.h"
  1454                           TMR1H equ 0Fh ;# 
  1455                           # 1136 "/Applications/microchip/xc8/v1.12/include/pic16lf707.h"
  1456                           T1CON equ 010h ;# 
  1457                           # 1214 "/Applications/microchip/xc8/v1.12/include/pic16lf707.h"
  1458                           TMR2 equ 011h ;# 
  1459                           # 1220 "/Applications/microchip/xc8/v1.12/include/pic16lf707.h"
  1460                           T2CON equ 012h ;# 
  1461                           # 1290 "/Applications/microchip/xc8/v1.12/include/pic16lf707.h"
  1462                           SSPBUF equ 013h ;# 
  1463                           # 1296 "/Applications/microchip/xc8/v1.12/include/pic16lf707.h"
  1464                           SSPCON equ 014h ;# 
  1465                           # 1365 "/Applications/microchip/xc8/v1.12/include/pic16lf707.h"
  1466                           CCPR1 equ 015h ;# 
  1467                           # 1371 "/Applications/microchip/xc8/v1.12/include/pic16lf707.h"
  1468                           CCPR1L equ 015h ;# 
  1469                           # 1377 "/Applications/microchip/xc8/v1.12/include/pic16lf707.h"
  1470                           CCPR1H equ 016h ;# 
  1471                           # 1383 "/Applications/microchip/xc8/v1.12/include/pic16lf707.h"
  1472                           CCP1CON equ 017h ;# 
  1473                           # 1446 "/Applications/microchip/xc8/v1.12/include/pic16lf707.h"
  1474                           RCSTA equ 018h ;# 
  1475                           # 1507 "/Applications/microchip/xc8/v1.12/include/pic16lf707.h"
  1476                           TXREG equ 019h ;# 
  1477                           # 1513 "/Applications/microchip/xc8/v1.12/include/pic16lf707.h"
  1478                           RCREG equ 01Ah ;# 
  1479                           # 1519 "/Applications/microchip/xc8/v1.12/include/pic16lf707.h"
  1480                           CCPR2 equ 01Bh ;# 
  1481                           # 1525 "/Applications/microchip/xc8/v1.12/include/pic16lf707.h"
  1482                           CCPR2L equ 01Bh ;# 
  1483                           # 1531 "/Applications/microchip/xc8/v1.12/include/pic16lf707.h"
  1484                           CCPR2H equ 01Ch ;# 
  1485                           # 1537 "/Applications/microchip/xc8/v1.12/include/pic16lf707.h"
  1486                           CCP2CON equ 01Dh ;# 
  1487                           # 1600 "/Applications/microchip/xc8/v1.12/include/pic16lf707.h"
  1488                           ADRES equ 01Eh ;# 
  1489                           # 1606 "/Applications/microchip/xc8/v1.12/include/pic16lf707.h"
  1490                           ADCON0 equ 01Fh ;# 
  1491                           # 1664 "/Applications/microchip/xc8/v1.12/include/pic16lf707.h"
  1492                           OPTION_REG equ 081h ;# 
  1493                           # 1746 "/Applications/microchip/xc8/v1.12/include/pic16lf707.h"
  1494                           TRISA equ 085h ;# 
  1495                           # 1807 "/Applications/microchip/xc8/v1.12/include/pic16lf707.h"
  1496                           TRISB equ 086h ;# 
  1497                           # 1868 "/Applications/microchip/xc8/v1.12/include/pic16lf707.h"
  1498                           TRISC equ 087h ;# 
  1499                           # 1929 "/Applications/microchip/xc8/v1.12/include/pic16lf707.h"
  1500                           TRISD equ 088h ;# 
  1501                           # 1990 "/Applications/microchip/xc8/v1.12/include/pic16lf707.h"
  1502                           TRISE equ 089h ;# 
  1503                           # 2027 "/Applications/microchip/xc8/v1.12/include/pic16lf707.h"
  1504                           PIE1 equ 08Ch ;# 
  1505                           # 2088 "/Applications/microchip/xc8/v1.12/include/pic16lf707.h"
  1506                           PIE2 equ 08Dh ;# 
  1507                           # 2132 "/Applications/microchip/xc8/v1.12/include/pic16lf707.h"
  1508                           PCON equ 08Eh ;# 
  1509                           # 2157 "/Applications/microchip/xc8/v1.12/include/pic16lf707.h"
  1510                           T1GCON equ 08Fh ;# 
  1511                           # 2226 "/Applications/microchip/xc8/v1.12/include/pic16lf707.h"
  1512                           OSCCON equ 090h ;# 
  1513                           # 2273 "/Applications/microchip/xc8/v1.12/include/pic16lf707.h"
  1514                           OSCTUNE equ 091h ;# 
  1515                           # 2292 "/Applications/microchip/xc8/v1.12/include/pic16lf707.h"
  1516                           PR2 equ 092h ;# 
  1517                           # 2298 "/Applications/microchip/xc8/v1.12/include/pic16lf707.h"
  1518                           SSPADD equ 093h ;# 
  1519                           # 2317 "/Applications/microchip/xc8/v1.12/include/pic16lf707.h"
  1520                           SSPMSK equ 093h ;# 
  1521                           # 2336 "/Applications/microchip/xc8/v1.12/include/pic16lf707.h"
  1522                           SSPSTAT equ 094h ;# 
  1523                           # 2397 "/Applications/microchip/xc8/v1.12/include/pic16lf707.h"
  1524                           WPUB equ 095h ;# 
  1525                           # 2458 "/Applications/microchip/xc8/v1.12/include/pic16lf707.h"
  1526                           IOCB equ 096h ;# 
  1527                           # 2519 "/Applications/microchip/xc8/v1.12/include/pic16lf707.h"
  1528                           T3CON equ 097h ;# 
  1529                           # 2585 "/Applications/microchip/xc8/v1.12/include/pic16lf707.h"
  1530                           TXSTA equ 098h ;# 
  1531                           # 2641 "/Applications/microchip/xc8/v1.12/include/pic16lf707.h"
  1532                           SPBRG equ 099h ;# 
  1533                           # 2647 "/Applications/microchip/xc8/v1.12/include/pic16lf707.h"
  1534                           TMR3 equ 09Ah ;# 
  1535                           # 2653 "/Applications/microchip/xc8/v1.12/include/pic16lf707.h"
  1536                           TMR3L equ 09Ah ;# 
  1537                           # 2659 "/Applications/microchip/xc8/v1.12/include/pic16lf707.h"
  1538                           TMR3H equ 09Bh ;# 
  1539                           # 2665 "/Applications/microchip/xc8/v1.12/include/pic16lf707.h"
  1540                           APFCON equ 09Ch ;# 
  1541                           # 2690 "/Applications/microchip/xc8/v1.12/include/pic16lf707.h"
  1542                           FVRCON equ 09Dh ;# 
  1543                           # 2755 "/Applications/microchip/xc8/v1.12/include/pic16lf707.h"
  1544                           T3GCON equ 09Eh ;# 
  1545                           # 2824 "/Applications/microchip/xc8/v1.12/include/pic16lf707.h"
  1546                           ADCON1 equ 09Fh ;# 
  1547                           # 2883 "/Applications/microchip/xc8/v1.12/include/pic16lf707.h"
  1548                           TACON equ 0105h ;# 
  1549                           # 2993 "/Applications/microchip/xc8/v1.12/include/pic16lf707.h"
  1550                           CPSBCON0 equ 0106h ;# 
  1551                           # 3052 "/Applications/microchip/xc8/v1.12/include/pic16lf707.h"
  1552                           CPSBCON1 equ 0107h ;# 
  1553                           # 3097 "/Applications/microchip/xc8/v1.12/include/pic16lf707.h"
  1554                           CPSACON0 equ 0108h ;# 
  1555                           # 3156 "/Applications/microchip/xc8/v1.12/include/pic16lf707.h"
  1556                           CPSACON1 equ 0109h ;# 
  1557                           # 3201 "/Applications/microchip/xc8/v1.12/include/pic16lf707.h"
  1558                           PMDATL equ 010Ch ;# 
  1559                           # 3207 "/Applications/microchip/xc8/v1.12/include/pic16lf707.h"
  1560                           PMADRL equ 010Dh ;# 
  1561                           # 3213 "/Applications/microchip/xc8/v1.12/include/pic16lf707.h"
  1562                           PMDATH equ 010Eh ;# 
  1563                           # 3219 "/Applications/microchip/xc8/v1.12/include/pic16lf707.h"
  1564                           PMADRH equ 010Fh ;# 
  1565                           # 3225 "/Applications/microchip/xc8/v1.12/include/pic16lf707.h"
  1566                           TMRA equ 0110h ;# 
  1567                           # 3231 "/Applications/microchip/xc8/v1.12/include/pic16lf707.h"
  1568                           TBCON equ 0111h ;# 
  1569                           # 3341 "/Applications/microchip/xc8/v1.12/include/pic16lf707.h"
  1570                           TMRB equ 0112h ;# 
  1571                           # 3347 "/Applications/microchip/xc8/v1.12/include/pic16lf707.h"
  1572                           DACCON0 equ 0113h ;# 
  1573                           # 3401 "/Applications/microchip/xc8/v1.12/include/pic16lf707.h"
  1574                           DACCON1 equ 0114h ;# 
  1575                           # 3452 "/Applications/microchip/xc8/v1.12/include/pic16lf707.h"
  1576                           ANSELA equ 0185h ;# 
  1577                           # 3521 "/Applications/microchip/xc8/v1.12/include/pic16lf707.h"
  1578                           ANSELB equ 0186h ;# 
  1579                           # 3590 "/Applications/microchip/xc8/v1.12/include/pic16lf707.h"
  1580                           ANSELC equ 0187h ;# 
  1581                           # 3648 "/Applications/microchip/xc8/v1.12/include/pic16lf707.h"
  1582                           ANSELD equ 0188h ;# 
  1583                           # 3717 "/Applications/microchip/xc8/v1.12/include/pic16lf707.h"
  1584                           ANSELE equ 0189h ;# 
  1585                           # 3756 "/Applications/microchip/xc8/v1.12/include/pic16lf707.h"
  1586                           PMCON1 equ 018Ch ;# 
  1587                           	FNCALL	_main,_boardInit
  1588                           	FNCALL	_main,_spiInit
  1589                           	FNCALL	_main,_uartInit
  1590                           	FNCALL	_main,_adcInit
  1591                           	FNCALL	_main,_rfm70setPowerdownMode
  1592                           	FNCALL	_main,_adcReadVcap
  1593                           	FNCALL	_main,_adcReadVsupercap
  1594                           	FNCALL	_main,___lbtoft
  1595                           	FNCALL	_main,___ftge
  1596                           	FNCALL	_main,_RFM70_Initialize
  1597                           	FNCALL	_main,___fttol
  1598                           	FNCALL	_main,_adcReadTemp
  1599                           	FNCALL	_main,_Send_Packet
  1600                           	FNCALL	_main,_sleep
  1601                           	FNCALL	_main,___wmul
  1602                           	FNCALL	_main,___awdiv
  1603                           	FNCALL	_RFM70_Initialize,_SwitchCFG
  1604                           	FNCALL	_RFM70_Initialize,_SPI_Write_Reg
  1605                           	FNCALL	_RFM70_Initialize,_SPI_Write_Buf
  1606                           	FNCALL	_RFM70_Initialize,_SPI_Read_Reg
  1607                           	FNCALL	_rfm70setPowerdownMode,_SPI_Read_Reg
  1608                           	FNCALL	_rfm70setPowerdownMode,_SPI_Write_Reg
  1609                           	FNCALL	_Send_Packet,_SwitchToTxMode
  1610                           	FNCALL	_Send_Packet,_SPI_Read_Reg
  1611                           	FNCALL	_Send_Packet,_SPI_Write_Buf
  1612                           	FNCALL	_Send_Packet,_rfm70TxDataSentInterrupt
  1613                           	FNCALL	_Send_Packet,_SwitchToRxMode
  1614                           	FNCALL	_Send_Packet,_rfm70TxDataSentErrorInterrupt
  1615                           	FNCALL	_sleep,_adcReadVcap
  1616                           	FNCALL	_sleep,___fttol
  1617                           	FNCALL	_sleep,___ftge
  1618                           	FNCALL	_sleep,___ftmul
  1619                           	FNCALL	_sleep,___ftdiv
  1620                           	FNCALL	_SwitchToTxMode,_SPI_Write_Reg
  1621                           	FNCALL	_SwitchToTxMode,_SPI_Read_Reg
  1622                           	FNCALL	_SPI_Write_Buf,_SPI_RW
  1623                           	FNCALL	_rfm70TxDataSentInterrupt,_SPI_Read_Reg
  1624                           	FNCALL	_rfm70TxDataSentInterrupt,_SPI_Write_Reg
  1625                           	FNCALL	_SwitchToRxMode,_SPI_Write_Reg
  1626                           	FNCALL	_SwitchToRxMode,_SPI_Read_Reg
  1627                           	FNCALL	_rfm70TxDataSentErrorInterrupt,_SPI_Read_Reg
  1628                           	FNCALL	_rfm70TxDataSentErrorInterrupt,_SPI_Write_Reg
  1629  02FB                     __pmaintext:	;psect for function _main
  1630                           opt subtitle "HI-TECH Software Omniscient Code Generator (Lite mode) build 49521"
  1631                           
  1632                           opt pagewidth 120
  1633                           
  1634  0218                     	__size_of_main	equ	__end_of_main-_main
  1635                           opt subtitle "HI-TECH Software Omniscient Code Generator (Lite mode) build 49521"
  1636  02FB                     _main:	
  1637                           opt subtitle "HI-TECH Software Omniscient Code Generator (Lite mode) build 49521"
  1638                           
  1639                           opt pagewidth 120
  1640                           
  1641  02FB                     l2184:	
  1642                           opt subtitle "HI-TECH Software Omniscient Code Generator (Lite mode) build 49521"
  1643  02FB  3000               	movlw	0
  1644  02FC  1283               	bcf	status, 5	;RP0=0, select bank0
  1645  02FD  1303               	bcf	status, 6	;RP1=0, select bank0
  1646  02FE  00CA               	movwf	(main@i+3)
  1647  02FF  3000               	movlw	0
  1648  0300  00C9               	movwf	(main@i+2)
  1649  0301  3000               	movlw	0
  1650  0302  00C8               	movwf	(main@i+1)
  1651  0303  3000               	movlw	0
  1652  0304  00C7               	movwf	(main@i)
  1653                           opt subtitle "HI-TECH Software Omniscient Code Generator (Lite mode) build 49521"
  1654                           
  1655                           opt pagewidth 120
  1656  0305                     l2186:	
  1657                           opt subtitle "HI-TECH Software Omniscient Code Generator (Lite mode) build 49521"
  1658                           
  1659  0305  120A  158A  2742   	fcall	_boardInit
              120A  118A         
  1660                           opt subtitle "HI-TECH Software Omniscient Code Generator (Lite mode) build 49521"
  1661                           
  1662  030A                     l2188:	
  1663                           opt subtitle "HI-TECH Software Omniscient Code Generator (Lite mode) build 49521"
  1664  030A  120A  158A  220D   	fcall	_spiInit
              120A  118A         
  1665                           opt subtitle "HI-TECH Software Omniscient Code Generator (Lite mode) build 49521"
  1666                           
  1667  030F                     l2190:	
  1668                           opt subtitle "HI-TECH Software Omniscient Code Generator (Lite mode) build 49521"
  1669  030F  120A  158A  21F7   	fcall	_uartInit
              120A  118A         
  1670                           opt subtitle "HI-TECH Software Omniscient Code Generator (Lite mode) build 49521"
  1671                           
  1672  0314                     l2192:	
  1673                           opt subtitle "HI-TECH Software Omniscient Code Generator (Lite mode) build 49521"
  1674  0314  120A  158A  21B8   	fcall	_adcInit
              120A  118A         
  1675                           opt subtitle "HI-TECH Software Omniscient Code Generator (Lite mode) build 49521"
  1676                           
  1677  0319                     l2194:	
  1678                           opt subtitle "HI-TECH Software Omniscient Code Generator (Lite mode) build 49521"
  1679  0319  3000               	movlw	(0)
  1680  031A  120A  158A  22B6   	fcall	_rfm70setPowerdownMode
              120A  118A         
  1681                           opt subtitle "HI-TECH Software Omniscient Code Generator (Lite mode) build 49521"
  1682                           
  1683  031F                     l2196:	
  1684                           opt subtitle "HI-TECH Software Omniscient Code Generator (Lite mode) build 49521"
  1685  031F  1283               	bcf	status, 5	;RP0=0, select bank0
  1686  0320  1303               	bcf	status, 6	;RP1=0, select bank0
  1687  0321  0808               	movf	(8),w	;volatile
  1688  0322  00C3               	movwf	(??_main+0)+0
  1689  0323  3006               	movlw	06h
  1690  0324                     u1525:
  1691  0324  1003               	clrc
  1692  0325  0CC3               	rrf	(??_main+0)+0,f
  1693  0326  3EFF               	addlw	-1
  1694  0327  1D03               	skipz
  1695  0328  2B24               	goto	u1525
  1696  0329  0843               	movf	0+(??_main+0)+0,w
  1697  032A  3903               	andlw	03h
  1698  032B  00C4               	movwf	(??_main+1)+0
  1699  032C  0844               	movf	(??_main+1)+0,w
  1700  032D  00D8               	movwf	(_sleep_counter)
  1701                           opt subtitle "HI-TECH Software Omniscient Code Generator (Lite mode) build 49521"
  1702                           
  1703  032E  0063               sleep ;# 
  1704                           opt subtitle "HI-TECH Software Omniscient Code Generator (Lite mode) build 49521"
  1705                           
  1706                           opt pagewidth 120
  1707  032F  2B32               	goto	l2198
  1708                           opt subtitle "HI-TECH Software Omniscient Code Generator (Lite mode) build 49521"
  1709  0330                     l175:	
  1710                           opt subtitle "HI-TECH Software Omniscient Code Generator (Lite mode) build 49521"
  1711                           
  1712  0330  0063               sleep ;# 
  1713                           opt subtitle "HI-TECH Software Omniscient Code Generator (Lite mode) build 49521"
  1714  0331  2B32               	goto	l2198
  1715                           opt subtitle "HI-TECH Software Omniscient Code Generator (Lite mode) build 49521"
  1716                           
  1717  0332                     l174:	
  1718                           opt subtitle "HI-TECH Software Omniscient Code Generator (Lite mode) build 49521"
  1719                           
  1720  0332                     l2198:	
  1721  0332  120A  158A  238D   	fcall	_adcReadVcap
              120A  118A         
  1722  0337  1283               	bcf	status, 5	;RP0=0, select bank0
  1723  0338  1303               	bcf	status, 6	;RP1=0, select bank0
  1724  0339  00C3               	movwf	(??_main+0)+0
  1725  033A  3058               	movlw	(058h)
  1726  033B  0243               	subwf	0+(??_main+0)+0,w
  1727  033C  1803               	skipnc
  1728  033D  2B3F               	goto	u1531
  1729  033E  2B40               	goto	u1530
  1730  033F                     u1531:
  1731  033F  2B67               	goto	l2204
  1732  0340                     u1530:
  1733                           opt subtitle "HI-TECH Software Omniscient Code Generator (Lite mode) build 49521"
  1734  0340                     l2200:	
  1735  0340  1A88               	btfsc	(8),5	;volatile
  1736  0341  2B43               	goto	u1541
  1737  0342  2B44               	goto	u1540
  1738  0343                     u1541:
  1739  0343  2B67               	goto	l2204
  1740  0344                     u1540:
  1741                           opt subtitle "HI-TECH Software Omniscient Code Generator (Lite mode) build 49521"
  1742  0344                     l2202:	
  1743  0344  120A  158A  23F8   	fcall	_adcReadVsupercap
              120A  118A         
  1744  0349  120A  158A  2295   	fcall	___lbtoft
              120A  118A         
  1745  034E  1283               	bcf	status, 5	;RP0=0, select bank0
  1746  034F  1303               	bcf	status, 6	;RP1=0, select bank0
  1747  0350  0828               	movf	(0+(?___lbtoft)),w
  1748  0351  00B0               	movwf	(?___ftge)
  1749  0352  0829               	movf	(1+(?___lbtoft)),w
  1750  0353  00B1               	movwf	(?___ftge+1)
  1751  0354  082A               	movf	(2+(?___lbtoft)),w
  1752  0355  00B2               	movwf	(?___ftge+2)
  1753  0356  3000               	movlw	0x0
  1754  0357  00B3               	movwf	0+(?___ftge)+03h
  1755  0358  3000               	movlw	0x0
  1756  0359  00B4               	movwf	1+(?___ftge)+03h
  1757  035A  3000               	movlw	0x0
  1758  035B  00B5               	movwf	2+(?___ftge)+03h
  1759  035C  120A  158A  253D   	fcall	___ftge
              120A  118A         
  1760  0361  1C03               	btfss	status,0
  1761  0362  2B64               	goto	u1551
  1762  0363  2B65               	goto	u1550
  1763  0364                     u1551:
  1764  0364  2B30               	goto	l175
  1765  0365                     u1550:
  1766  0365  2B67               	goto	l2204
  1767                           opt subtitle "HI-TECH Software Omniscient Code Generator (Lite mode) build 49521"
  1768  0366                     l177:	
  1769  0366  2B67               	goto	l2204
  1770                           opt subtitle "HI-TECH Software Omniscient Code Generator (Lite mode) build 49521"
  1771  0367                     l178:	
  1772                           opt subtitle "HI-TECH Software Omniscient Code Generator (Lite mode) build 49521"
  1773                           
  1774  0367                     l2204:	
  1775                           opt subtitle "HI-TECH Software Omniscient Code Generator (Lite mode) build 49521"
  1776                           
  1777  0367  120A  118A  2015   	fcall	_RFM70_Initialize
              120A  118A         
  1778                           opt subtitle "HI-TECH Software Omniscient Code Generator (Lite mode) build 49521"
  1779                           
  1780  036C  3000               	movlw	(0)
  1781  036D  120A  158A  22B6   	fcall	_rfm70setPowerdownMode
              120A  118A         
  1782                           opt subtitle "HI-TECH Software Omniscient Code Generator (Lite mode) build 49521"
  1783                           
  1784  0372  0063               sleep ;# 
  1785                           opt subtitle "HI-TECH Software Omniscient Code Generator (Lite mode) build 49521"
  1786                           
  1787                           opt pagewidth 120
  1788  0373                     l2206:	
  1789                           opt subtitle "HI-TECH Software Omniscient Code Generator (Lite mode) build 49521"
  1790  0373  1283               	bcf	status, 5	;RP0=0, select bank0
  1791  0374  1303               	bcf	status, 6	;RP1=0, select bank0
  1792  0375  01D2               	clrf	(_timelapse_count)
  1793  0376  01D3               	clrf	(_timelapse_count+1)
  1794  0377  2B78               	goto	l2208
  1795                           opt subtitle "HI-TECH Software Omniscient Code Generator (Lite mode) build 49521"
  1796                           
  1797                           opt pagewidth 120
  1798  0378                     l179:	
  1799                           opt subtitle "HI-TECH Software Omniscient Code Generator (Lite mode) build 49521"
  1800                           
  1801  0378                     l2208:	
  1802                           opt subtitle "HI-TECH Software Omniscient Code Generator (Lite mode) build 49521"
  1803  0378  3001               	movlw	(01h)
  1804  0379  120A  158A  22B6   	fcall	_rfm70setPowerdownMode
              120A  118A         
  1805                           opt subtitle "HI-TECH Software Omniscient Code Generator (Lite mode) build 49521"
  1806                           
  1807  037E                     l2210:	
  1808                           opt subtitle "HI-TECH Software Omniscient Code Generator (Lite mode) build 49521"
  1809  037E  120A  158A  238D   	fcall	_adcReadVcap
              120A  118A         
  1810  0383  1283               	bcf	status, 5	;RP0=0, select bank0
  1811  0384  1303               	bcf	status, 6	;RP1=0, select bank0
  1812  0385  00C3               	movwf	(??_main+0)+0
  1813  0386  0843               	movf	(??_main+0)+0,w
  1814  0387  00DE               	movwf	0+(_tx_buf)+01h
  1815                           opt subtitle "HI-TECH Software Omniscient Code Generator (Lite mode) build 49521"
  1816                           
  1817  0388                     l2212:	
  1818                           opt subtitle "HI-TECH Software Omniscient Code Generator (Lite mode) build 49521"
  1819  0388  0852               	movf	(_timelapse_count),w
  1820  0389  00C3               	movwf	(??_main+0)+0
  1821  038A  0843               	movf	(??_main+0)+0,w
  1822  038B  00DF               	movwf	0+(_tx_buf)+02h
  1823                           opt subtitle "HI-TECH Software Omniscient Code Generator (Lite mode) build 49521"
  1824                           
  1825  038C                     l2214:	
  1826                           opt subtitle "HI-TECH Software Omniscient Code Generator (Lite mode) build 49521"
  1827  038C  0853               	movf	(_timelapse_count+1),w
  1828  038D  00C3               	movwf	(??_main+0)+0
  1829  038E  0843               	movf	(??_main+0)+0,w
  1830  038F  00E0               	movwf	0+(_tx_buf)+03h
  1831                           opt subtitle "HI-TECH Software Omniscient Code Generator (Lite mode) build 49521"
  1832                           
  1833  0390                     l2216:	
  1834                           opt subtitle "HI-TECH Software Omniscient Code Generator (Lite mode) build 49521"
  1835  0390  0856               	movf	(_jumper_stat),w
  1836  0391  00C3               	movwf	(??_main+0)+0
  1837  0392  0843               	movf	(??_main+0)+0,w
  1838  0393  00E1               	movwf	0+(_tx_buf)+04h
  1839                           opt subtitle "HI-TECH Software Omniscient Code Generator (Lite mode) build 49521"
  1840                           
  1841  0394                     l2218:	
  1842                           opt subtitle "HI-TECH Software Omniscient Code Generator (Lite mode) build 49521"
  1843  0394  0850               	movf	(_energy),w
  1844  0395  00C3               	movwf	(??_main+0)+0
  1845  0396  0843               	movf	(??_main+0)+0,w
  1846  0397  00E2               	movwf	0+(_tx_buf)+05h
  1847                           opt subtitle "HI-TECH Software Omniscient Code Generator (Lite mode) build 49521"
  1848                           
  1849  0398                     l2220:	
  1850                           opt subtitle "HI-TECH Software Omniscient Code Generator (Lite mode) build 49521"
  1851  0398  0851               	movf	(_energy+1),w
  1852  0399  00C3               	movwf	(??_main+0)+0
  1853  039A  0843               	movf	(??_main+0)+0,w
  1854  039B  00E3               	movwf	0+(_tx_buf)+06h
  1855                           opt subtitle "HI-TECH Software Omniscient Code Generator (Lite mode) build 49521"
  1856                           
  1857  039C                     l2222:	
  1858                           opt subtitle "HI-TECH Software Omniscient Code Generator (Lite mode) build 49521"
  1859  039C  120A  158A  23F8   	fcall	_adcReadVsupercap
              120A  118A         
  1860  03A1  1283               	bcf	status, 5	;RP0=0, select bank0
  1861  03A2  1303               	bcf	status, 6	;RP1=0, select bank0
  1862  03A3  00C3               	movwf	(??_main+0)+0
  1863  03A4  0843               	movf	(??_main+0)+0,w
  1864  03A5  00E4               	movwf	0+(_tx_buf)+07h
  1865                           opt subtitle "HI-TECH Software Omniscient Code Generator (Lite mode) build 49521"
  1866                           
  1867  03A6                     l2224:	
  1868                           opt subtitle "HI-TECH Software Omniscient Code Generator (Lite mode) build 49521"
  1869  03A6  085A               	movf	(_charge_pulse_float),w
  1870  03A7  00A0               	movwf	(?___fttol)
  1871  03A8  085B               	movf	(_charge_pulse_float+1),w
  1872  03A9  00A1               	movwf	(?___fttol+1)
  1873  03AA  085C               	movf	(_charge_pulse_float+2),w
  1874  03AB  00A2               	movwf	(?___fttol+2)
  1875  03AC  120A  158A  269C   	fcall	___fttol
              120A  118A         
  1876  03B1  1283               	bcf	status, 5	;RP0=0, select bank0
  1877  03B2  1303               	bcf	status, 6	;RP1=0, select bank0
  1878  03B3  0820               	movf	0+(((0+(?___fttol)))),w
  1879  03B4  00C3               	movwf	(??_main+0)+0
  1880  03B5  0843               	movf	(??_main+0)+0,w
  1881  03B6  00E5               	movwf	0+(_tx_buf)+08h
  1882                           opt subtitle "HI-TECH Software Omniscient Code Generator (Lite mode) build 49521"
  1883                           
  1884  03B7                     l2226:	
  1885                           opt subtitle "HI-TECH Software Omniscient Code Generator (Lite mode) build 49521"
  1886  03B7  085A               	movf	(_charge_pulse_float),w
  1887  03B8  00A0               	movwf	(?___fttol)
  1888  03B9  085B               	movf	(_charge_pulse_float+1),w
  1889  03BA  00A1               	movwf	(?___fttol+1)
  1890  03BB  085C               	movf	(_charge_pulse_float+2),w
  1891  03BC  00A2               	movwf	(?___fttol+2)
  1892  03BD  120A  158A  269C   	fcall	___fttol
              120A  118A         
  1893  03C2  1283               	bcf	status, 5	;RP0=0, select bank0
  1894  03C3  1303               	bcf	status, 6	;RP1=0, select bank0
  1895  03C4  0821               	movf	1+(((0+(?___fttol)))),w
  1896  03C5  00C3               	movwf	(??_main+0)+0
  1897  03C6  0843               	movf	(??_main+0)+0,w
  1898  03C7  00E6               	movwf	0+(_tx_buf)+09h
  1899                           opt subtitle "HI-TECH Software Omniscient Code Generator (Lite mode) build 49521"
  1900                           
  1901  03C8                     l2228:	
  1902                           opt subtitle "HI-TECH Software Omniscient Code Generator (Lite mode) build 49521"
  1903  03C8  3059               	movlw	(059h)
  1904  03C9  025E               	subwf	0+(_tx_buf)+01h,w
  1905  03CA  1803               	skipnc
  1906  03CB  2BCD               	goto	u1561
  1907  03CC  2BCE               	goto	u1560
  1908  03CD                     u1561:
  1909  03CD  2BD3               	goto	l2232
  1910  03CE                     u1560:
  1911                           opt subtitle "HI-TECH Software Omniscient Code Generator (Lite mode) build 49521"
  1912  03CE                     l2230:	
  1913  03CE  1E88               	btfss	(8),5	;volatile
  1914  03CF  2BD1               	goto	u1571
  1915  03D0  2BD2               	goto	u1570
  1916  03D1                     u1571:
  1917  03D1  2BF5               	goto	l2242
  1918  03D2                     u1570:
  1919  03D2  2BD3               	goto	l2232
  1920                           opt subtitle "HI-TECH Software Omniscient Code Generator (Lite mode) build 49521"
  1921  03D3                     l182:	
  1922                           opt subtitle "HI-TECH Software Omniscient Code Generator (Lite mode) build 49521"
  1923                           
  1924  03D3                     l2232:	
  1925                           opt subtitle "HI-TECH Software Omniscient Code Generator (Lite mode) build 49521"
  1926  03D3  120A  158A  23C0   	fcall	_adcReadTemp
              120A  118A         
  1927  03D8  1283               	bcf	status, 5	;RP0=0, select bank0
  1928  03D9  1303               	bcf	status, 6	;RP1=0, select bank0
  1929  03DA  00C3               	movwf	(??_main+0)+0
  1930  03DB  0843               	movf	(??_main+0)+0,w
  1931  03DC  00DD               	movwf	(_tx_buf)
  1932                           opt subtitle "HI-TECH Software Omniscient Code Generator (Lite mode) build 49521"
  1933                           
  1934  03DD                     l2234:	
  1935                           opt subtitle "HI-TECH Software Omniscient Code Generator (Lite mode) build 49521"
  1936  03DD  17D6               	bsf	(_jumper_stat)+(7/8),(7)&7
  1937                           opt subtitle "HI-TECH Software Omniscient Code Generator (Lite mode) build 49521"
  1938                           
  1939  03DE                     l2236:	
  1940                           opt subtitle "HI-TECH Software Omniscient Code Generator (Lite mode) build 49521"
  1941  03DE  0856               	movf	(_jumper_stat),w
  1942  03DF  00C3               	movwf	(??_main+0)+0
  1943  03E0  0843               	movf	(??_main+0)+0,w
  1944  03E1  00E1               	movwf	0+(_tx_buf)+04h
  1945                           opt subtitle "HI-TECH Software Omniscient Code Generator (Lite mode) build 49521"
  1946                           
  1947  03E2                     l2238:	
  1948                           opt subtitle "HI-TECH Software Omniscient Code Generator (Lite mode) build 49521"
  1949  03E2  305D               	movlw	(_tx_buf)&0ffh
  1950  03E3  00C3               	movwf	(??_main+0)+0
  1951  03E4  0843               	movf	(??_main+0)+0,w
  1952  03E5  00A8               	movwf	(?_Send_Packet)
  1953  03E6  300A               	movlw	(0Ah)
  1954  03E7  00C4               	movwf	(??_main+1)+0
  1955  03E8  0844               	movf	(??_main+1)+0,w
  1956  03E9  00A9               	movwf	0+(?_Send_Packet)+01h
  1957  03EA  30B0               	movlw	(0B0h)
  1958  03EB  120A  158A  246F   	fcall	_Send_Packet
              120A  118A         
  1959                           opt subtitle "HI-TECH Software Omniscient Code Generator (Lite mode) build 49521"
  1960                           
  1961  03F0                     l2240:	
  1962                           opt subtitle "HI-TECH Software Omniscient Code Generator (Lite mode) build 49521"
  1963  03F0  1283               	bcf	status, 5	;RP0=0, select bank0
  1964  03F1  1303               	bcf	status, 6	;RP1=0, select bank0
  1965  03F2  01D0               	clrf	(_energy)
  1966  03F3  01D1               	clrf	(_energy+1)
  1967                           opt subtitle "HI-TECH Software Omniscient Code Generator (Lite mode) build 49521"
  1968                           
  1969  03F4  2CA3               	goto	l2280
  1970                           opt subtitle "HI-TECH Software Omniscient Code Generator (Lite mode) build 49521"
  1971                           
  1972  03F5                     l180:	
  1973                           opt subtitle "HI-TECH Software Omniscient Code Generator (Lite mode) build 49521"
  1974                           
  1975  03F5                     l2242:	
  1976                           opt subtitle "HI-TECH Software Omniscient Code Generator (Lite mode) build 49521"
  1977                           
  1978  03F5  3000               	movlw	0x0
  1979  03F6  00B0               	movwf	(?___ftge)
  1980  03F7  3000               	movlw	0x0
  1981  03F8  00B1               	movwf	(?___ftge+1)
  1982  03F9  3000               	movlw	0x0
  1983  03FA  00B2               	movwf	(?___ftge+2)
  1984  03FB  0864               	movf	0+(_tx_buf)+07h,w
  1985  03FC  120A  158A  2295   	fcall	___lbtoft
              120A  118A         
  1986  0401  1283               	bcf	status, 5	;RP0=0, select bank0
  1987  0402  1303               	bcf	status, 6	;RP1=0, select bank0
  1988  0403  0828               	movf	(0+(?___lbtoft)),w
  1989  0404  00B3               	movwf	0+(?___ftge)+03h
  1990  0405  0829               	movf	(1+(?___lbtoft)),w
  1991  0406  00B4               	movwf	1+(?___ftge)+03h
  1992  0407  082A               	movf	(2+(?___lbtoft)),w
  1993  0408  00B5               	movwf	2+(?___ftge)+03h
  1994  0409  120A  158A  253D   	fcall	___ftge
              120A  118A         
  1995  040E  1803               	btfsc	status,0
  1996  040F  2C11               	goto	u1581
  1997  0410  2C12               	goto	u1580
  1998  0411                     u1581:
  1999  0411  2C55               	goto	l2264
  2000  0412                     u1580:
  2001                           opt subtitle "HI-TECH Software Omniscient Code Generator (Lite mode) build 49521"
  2002  0412                     l2244:	
  2003  0412  1283               	bcf	status, 5	;RP0=0, select bank0
  2004  0413  1303               	bcf	status, 6	;RP1=0, select bank0
  2005  0414  085E               	movf	0+(_tx_buf)+01h,w
  2006  0415  0259               	subwf	(_value),w
  2007  0416  1C03               	skipc
  2008  0417  2C19               	goto	u1591
  2009  0418  2C1A               	goto	u1590
  2010  0419                     u1591:
  2011  0419  2C55               	goto	l2264
  2012  041A                     u1590:
  2013                           opt subtitle "HI-TECH Software Omniscient Code Generator (Lite mode) build 49521"
  2014  041A                     l2246:	
  2015  041A  1806               	btfsc	(6),0	;volatile
  2016  041B  2C1D               	goto	u1601
  2017  041C  2C1E               	goto	u1600
  2018  041D                     u1601:
  2019  041D  2C55               	goto	l2264
  2020  041E                     u1600:
  2021                           opt subtitle "HI-TECH Software Omniscient Code Generator (Lite mode) build 49521"
  2022                           
  2023  041E                     l2248:	
  2024                           opt subtitle "HI-TECH Software Omniscient Code Generator (Lite mode) build 49521"
  2025  041E  1105               	bcf	(5),2	;volatile
  2026                           opt subtitle "HI-TECH Software Omniscient Code Generator (Lite mode) build 49521"
  2027                           
  2028  041F                     l2250:	
  2029                           opt subtitle "HI-TECH Software Omniscient Code Generator (Lite mode) build 49521"
  2030  041F  120A  158A  23C0   	fcall	_adcReadTemp
              120A  118A         
  2031  0424  1283               	bcf	status, 5	;RP0=0, select bank0
  2032  0425  1303               	bcf	status, 6	;RP1=0, select bank0
  2033  0426  00C3               	movwf	(??_main+0)+0
  2034  0427  0843               	movf	(??_main+0)+0,w
  2035  0428  00DD               	movwf	(_tx_buf)
  2036                           opt subtitle "HI-TECH Software Omniscient Code Generator (Lite mode) build 49521"
  2037                           
  2038  0429  120A  158A  23F8   	fcall	_adcReadVsupercap
              120A  118A         
  2039  042E  1283               	bcf	status, 5	;RP0=0, select bank0
  2040  042F  1303               	bcf	status, 6	;RP1=0, select bank0
  2041  0430  00C3               	movwf	(??_main+0)+0
  2042  0431  0843               	movf	(??_main+0)+0,w
  2043  0432  00E4               	movwf	0+(_tx_buf)+07h
  2044                           opt subtitle "HI-TECH Software Omniscient Code Generator (Lite mode) build 49521"
  2045                           
  2046  0433                     l2252:	
  2047                           opt subtitle "HI-TECH Software Omniscient Code Generator (Lite mode) build 49521"
  2048  0433  307F               	movlw	(07Fh)
  2049  0434  00C3               	movwf	(??_main+0)+0
  2050  0435  0843               	movf	(??_main+0)+0,w
  2051  0436  05D6               	andwf	(_jumper_stat),f
  2052                           opt subtitle "HI-TECH Software Omniscient Code Generator (Lite mode) build 49521"
  2053                           
  2054  0437                     l2254:	
  2055                           opt subtitle "HI-TECH Software Omniscient Code Generator (Lite mode) build 49521"
  2056  0437  0856               	movf	(_jumper_stat),w
  2057  0438  00C3               	movwf	(??_main+0)+0
  2058  0439  0843               	movf	(??_main+0)+0,w
  2059  043A  00E1               	movwf	0+(_tx_buf)+04h
  2060                           opt subtitle "HI-TECH Software Omniscient Code Generator (Lite mode) build 49521"
  2061                           
  2062  043B                     l2256:	
  2063                           opt subtitle "HI-TECH Software Omniscient Code Generator (Lite mode) build 49521"
  2064  043B  305D               	movlw	(_tx_buf)&0ffh
  2065  043C  00C3               	movwf	(??_main+0)+0
  2066  043D  0843               	movf	(??_main+0)+0,w
  2067  043E  00A8               	movwf	(?_Send_Packet)
  2068  043F  300A               	movlw	(0Ah)
  2069  0440  00C4               	movwf	(??_main+1)+0
  2070  0441  0844               	movf	(??_main+1)+0,w
  2071  0442  00A9               	movwf	0+(?_Send_Packet)+01h
  2072  0443  30B0               	movlw	(0B0h)
  2073  0444  120A  158A  246F   	fcall	_Send_Packet
              120A  118A         
  2074                           opt subtitle "HI-TECH Software Omniscient Code Generator (Lite mode) build 49521"
  2075                           
  2076  0449                     l2258:	
  2077                           opt subtitle "HI-TECH Software Omniscient Code Generator (Lite mode) build 49521"
  2078  0449  1283               	bcf	status, 5	;RP0=0, select bank0
  2079  044A  1303               	bcf	status, 6	;RP1=0, select bank0
  2080  044B  1505               	bsf	(5),2	;volatile
  2081                           opt subtitle "HI-TECH Software Omniscient Code Generator (Lite mode) build 49521"
  2082                           
  2083  044C                     l2260:	
  2084                           opt subtitle "HI-TECH Software Omniscient Code Generator (Lite mode) build 49521"
  2085  044C  3000               	movlw	0x0
  2086  044D  00DA               	movwf	(_charge_pulse_float)
  2087  044E  3020               	movlw	0x20
  2088  044F  00DB               	movwf	(_charge_pulse_float+1)
  2089  0450  3041               	movlw	0x41
  2090  0451  00DC               	movwf	(_charge_pulse_float+2)
  2091                           opt subtitle "HI-TECH Software Omniscient Code Generator (Lite mode) build 49521"
  2092                           
  2093  0452                     l2262:	
  2094                           opt subtitle "HI-TECH Software Omniscient Code Generator (Lite mode) build 49521"
  2095  0452  01D0               	clrf	(_energy)
  2096  0453  01D1               	clrf	(_energy+1)
  2097                           opt subtitle "HI-TECH Software Omniscient Code Generator (Lite mode) build 49521"
  2098                           
  2099  0454  2CA3               	goto	l2280
  2100                           opt subtitle "HI-TECH Software Omniscient Code Generator (Lite mode) build 49521"
  2101                           
  2102  0455                     l184:	
  2103                           opt subtitle "HI-TECH Software Omniscient Code Generator (Lite mode) build 49521"
  2104  0455                     l2264:	
  2105                           opt subtitle "HI-TECH Software Omniscient Code Generator (Lite mode) build 49521"
  2106  0455  3000               	movlw	0x0
  2107  0456  1283               	bcf	status, 5	;RP0=0, select bank0
  2108  0457  1303               	bcf	status, 6	;RP1=0, select bank0
  2109  0458  00B0               	movwf	(?___ftge)
  2110  0459  3000               	movlw	0x0
  2111  045A  00B1               	movwf	(?___ftge+1)
  2112  045B  3000               	movlw	0x0
  2113  045C  00B2               	movwf	(?___ftge+2)
  2114  045D  0864               	movf	0+(_tx_buf)+07h,w
  2115  045E  120A  158A  2295   	fcall	___lbtoft
              120A  118A         
  2116  0463  1283               	bcf	status, 5	;RP0=0, select bank0
  2117  0464  1303               	bcf	status, 6	;RP1=0, select bank0
  2118  0465  0828               	movf	(0+(?___lbtoft)),w
  2119  0466  00B3               	movwf	0+(?___ftge)+03h
  2120  0467  0829               	movf	(1+(?___lbtoft)),w
  2121  0468  00B4               	movwf	1+(?___ftge)+03h
  2122  0469  082A               	movf	(2+(?___lbtoft)),w
  2123  046A  00B5               	movwf	2+(?___ftge)+03h
  2124  046B  120A  158A  253D   	fcall	___ftge
              120A  118A         
  2125  0470  1803               	btfsc	status,0
  2126  0471  2C73               	goto	u1611
  2127  0472  2C74               	goto	u1610
  2128  0473                     u1611:
  2129  0473  2CA3               	goto	l2280
  2130  0474                     u1610:
  2131                           opt subtitle "HI-TECH Software Omniscient Code Generator (Lite mode) build 49521"
  2132  0474                     l2266:	
  2133  0474  1283               	bcf	status, 5	;RP0=0, select bank0
  2134  0475  1303               	bcf	status, 6	;RP1=0, select bank0
  2135  0476  085E               	movf	0+(_tx_buf)+01h,w
  2136  0477  0259               	subwf	(_value),w
  2137  0478  1C03               	skipc
  2138  0479  2C7B               	goto	u1621
  2139  047A  2C7C               	goto	u1620
  2140  047B                     u1621:
  2141  047B  2CA3               	goto	l2280
  2142  047C                     u1620:
  2143                           opt subtitle "HI-TECH Software Omniscient Code Generator (Lite mode) build 49521"
  2144  047C                     l2268:	
  2145  047C  1C06               	btfss	(6),0	;volatile
  2146  047D  2C7F               	goto	u1631
  2147  047E  2C80               	goto	u1630
  2148  047F                     u1631:
  2149  047F  2CA3               	goto	l2280
  2150  0480                     u1630:
  2151                           opt subtitle "HI-TECH Software Omniscient Code Generator (Lite mode) build 49521"
  2152                           
  2153  0480                     l2270:	
  2154                           opt subtitle "HI-TECH Software Omniscient Code Generator (Lite mode) build 49521"
  2155  0480  307F               	movlw	(07Fh)
  2156  0481  00C3               	movwf	(??_main+0)+0
  2157  0482  0843               	movf	(??_main+0)+0,w
  2158  0483  05D6               	andwf	(_jumper_stat),f
  2159                           opt subtitle "HI-TECH Software Omniscient Code Generator (Lite mode) build 49521"
  2160                           
  2161  0484                     l2272:	
  2162                           opt subtitle "HI-TECH Software Omniscient Code Generator (Lite mode) build 49521"
  2163  0484  0856               	movf	(_jumper_stat),w
  2164  0485  00C3               	movwf	(??_main+0)+0
  2165  0486  0843               	movf	(??_main+0)+0,w
  2166  0487  00E1               	movwf	0+(_tx_buf)+04h
  2167                           opt subtitle "HI-TECH Software Omniscient Code Generator (Lite mode) build 49521"
  2168                           
  2169  0488                     l2274:	
  2170                           opt subtitle "HI-TECH Software Omniscient Code Generator (Lite mode) build 49521"
  2171  0488  305D               	movlw	(_tx_buf)&0ffh
  2172  0489  00C3               	movwf	(??_main+0)+0
  2173  048A  0843               	movf	(??_main+0)+0,w
  2174  048B  00A8               	movwf	(?_Send_Packet)
  2175  048C  300A               	movlw	(0Ah)
  2176  048D  00C4               	movwf	(??_main+1)+0
  2177  048E  0844               	movf	(??_main+1)+0,w
  2178  048F  00A9               	movwf	0+(?_Send_Packet)+01h
  2179  0490  30B0               	movlw	(0B0h)
  2180  0491  120A  158A  246F   	fcall	_Send_Packet
              120A  118A         
  2181                           opt subtitle "HI-TECH Software Omniscient Code Generator (Lite mode) build 49521"
  2182                           
  2183  0496                     l2276:	
  2184                           opt subtitle "HI-TECH Software Omniscient Code Generator (Lite mode) build 49521"
  2185  0496  3000               	movlw	0x0
  2186  0497  1283               	bcf	status, 5	;RP0=0, select bank0
  2187  0498  1303               	bcf	status, 6	;RP1=0, select bank0
  2188  0499  00DA               	movwf	(_charge_pulse_float)
  2189  049A  3020               	movlw	0x20
  2190  049B  00DB               	movwf	(_charge_pulse_float+1)
  2191  049C  3041               	movlw	0x41
  2192  049D  00DC               	movwf	(_charge_pulse_float+2)
  2193                           opt subtitle "HI-TECH Software Omniscient Code Generator (Lite mode) build 49521"
  2194                           
  2195  049E                     l2278:	
  2196                           opt subtitle "HI-TECH Software Omniscient Code Generator (Lite mode) build 49521"
  2197  049E  01D0               	clrf	(_energy)
  2198  049F  01D1               	clrf	(_energy+1)
  2199  04A0  2CA3               	goto	l2280
  2200                           opt subtitle "HI-TECH Software Omniscient Code Generator (Lite mode) build 49521"
  2201                           
  2202  04A1                     l186:	
  2203  04A1  2CA3               	goto	l2280
  2204                           opt subtitle "HI-TECH Software Omniscient Code Generator (Lite mode) build 49521"
  2205                           
  2206  04A2                     l185:	
  2207  04A2  2CA3               	goto	l2280
  2208                           opt subtitle "HI-TECH Software Omniscient Code Generator (Lite mode) build 49521"
  2209  04A3                     l183:	
  2210                           opt subtitle "HI-TECH Software Omniscient Code Generator (Lite mode) build 49521"
  2211                           
  2212  04A3                     l2280:	
  2213                           opt subtitle "HI-TECH Software Omniscient Code Generator (Lite mode) build 49521"
  2214                           
  2215                           opt pagewidth 120
  2216  04A3  1283               	bcf	status, 5	;RP0=0, select bank0
  2217  04A4  1303               	bcf	status, 6	;RP1=0, select bank0
  2218  04A5  1107               	bcf	(7),2	;volatile
  2219                           opt subtitle "HI-TECH Software Omniscient Code Generator (Lite mode) build 49521"
  2220                           
  2221  04A6                     l2282:	
  2222                           opt subtitle "HI-TECH Software Omniscient Code Generator (Lite mode) build 49521"
  2223  04A6  3000               	movlw	(0)
  2224  04A7  120A  158A  22B6   	fcall	_rfm70setPowerdownMode
              120A  118A         
  2225                           opt subtitle "HI-TECH Software Omniscient Code Generator (Lite mode) build 49521"
  2226                           
  2227  04AC                     l2284:	
  2228                           opt subtitle "HI-TECH Software Omniscient Code Generator (Lite mode) build 49521"
  2229  04AC  1283               	bcf	status, 5	;RP0=0, select bank0
  2230  04AD  1303               	bcf	status, 6	;RP1=0, select bank0
  2231  04AE  1010               	bcf	(16),0	;volatile
  2232                           opt subtitle "HI-TECH Software Omniscient Code Generator (Lite mode) build 49521"
  2233                           
  2234  04AF                     l2286:	
  2235                           opt subtitle "HI-TECH Software Omniscient Code Generator (Lite mode) build 49521"
  2236  04AF  3010               	movlw	(010h)
  2237  04B0  008F               	movwf	(15)	;volatile
  2238                           opt subtitle "HI-TECH Software Omniscient Code Generator (Lite mode) build 49521"
  2239                           
  2240  04B1                     l2288:	
  2241                           opt subtitle "HI-TECH Software Omniscient Code Generator (Lite mode) build 49521"
  2242  04B1  018E               	clrf	(14)	;volatile
  2243                           opt subtitle "HI-TECH Software Omniscient Code Generator (Lite mode) build 49521"
  2244                           
  2245  04B2                     l2290:	
  2246                           opt subtitle "HI-TECH Software Omniscient Code Generator (Lite mode) build 49521"
  2247  04B2  1410               	bsf	(16),0	;volatile
  2248                           opt subtitle "HI-TECH Software Omniscient Code Generator (Lite mode) build 49521"
  2249                           
  2250  04B3                     l2292:	
  2251                           opt subtitle "HI-TECH Software Omniscient Code Generator (Lite mode) build 49521"
  2252  04B3  120A  158A  238D   	fcall	_adcReadVcap
              120A  118A         
  2253  04B8  1283               	bcf	status, 5	;RP0=0, select bank0
  2254  04B9  1303               	bcf	status, 6	;RP1=0, select bank0
  2255  04BA  00C3               	movwf	(??_main+0)+0
  2256  04BB  0843               	movf	(??_main+0)+0,w
  2257  04BC  00D9               	movwf	(_value)
  2258                           opt subtitle "HI-TECH Software Omniscient Code Generator (Lite mode) build 49521"
  2259                           
  2260  04BD                     l2294:	
  2261                           opt subtitle "HI-TECH Software Omniscient Code Generator (Lite mode) build 49521"
  2262  04BD  01CB               	clrf	(main@num_sleep)
  2263                           opt subtitle "HI-TECH Software Omniscient Code Generator (Lite mode) build 49521"
  2264                           
  2265  04BE  2CFC               	goto	l2300
  2266                           opt subtitle "HI-TECH Software Omniscient Code Generator (Lite mode) build 49521"
  2267  04BF                     l188:	
  2268                           opt subtitle "HI-TECH Software Omniscient Code Generator (Lite mode) build 49521"
  2269                           
  2270  04BF                     l2296:	
  2271                           opt subtitle "HI-TECH Software Omniscient Code Generator (Lite mode) build 49521"
  2272  04BF  120A  118A  2513   	fcall	_sleep
              120A  118A         
  2273                           opt subtitle "HI-TECH Software Omniscient Code Generator (Lite mode) build 49521"
  2274                           
  2275  04C4                     l2298:	
  2276                           opt subtitle "HI-TECH Software Omniscient Code Generator (Lite mode) build 49521"
  2277  04C4  1283               	bcf	status, 5	;RP0=0, select bank0
  2278  04C5  1303               	bcf	status, 6	;RP1=0, select bank0
  2279  04C6  0857               	movf	(_sleep_count),w
  2280  04C7  00C3               	movwf	(??_main+0)+0+0
  2281  04C8  01C4               	clrf	(??_main+0)+0+1
  2282  04C9  0843               	movf	0+(??_main+0)+0,w
  2283  04CA  00A6               	movwf	(?___awdiv)
  2284  04CB  0844               	movf	1+(??_main+0)+0,w
  2285  04CC  00A7               	movwf	(?___awdiv+1)
  2286  04CD  0855               	movf	0+(_values)+01h,w
  2287  04CE  00C5               	movwf	(??_main+2)+0+0
  2288  04CF  01C6               	clrf	(??_main+2)+0+1
  2289  04D0  09C5               	comf	(??_main+2)+0,f
  2290  04D1  09C6               	comf	(??_main+2)+1,f
  2291  04D2  0AC5               	incf	(??_main+2)+0,f
  2292  04D3  1903               	skipnz
  2293  04D4  0AC6               	incf	(??_main+2)+1,f
  2294  04D5  0854               	movf	(_values),w
  2295  04D6  0745               	addwf	0+(??_main+2)+0,w
  2296  04D7  00A0               	movwf	(?___wmul)
  2297  04D8  0846               	movf	1+(??_main+2)+0,w
  2298  04D9  1803               	skipnc
  2299  04DA  0A46               	incf	1+(??_main+2)+0,w
  2300  04DB  00A1               	movwf	((?___wmul))+1
  2301  04DC  0854               	movf	(_values),w
  2302  04DD  0755               	addwf	0+(_values)+01h,w
  2303  04DE  00A2               	movwf	0+(?___wmul)+02h
  2304  04DF  01A3               	clrf	0+(?___wmul)+02h+1
  2305  04E0  0DA3               	rlf	1+0+(?___wmul)+02h,f
  2306                           opt subtitle "HI-TECH Software Omniscient Code Generator (Lite mode) build 49521"
  2307  04E1  120A  158A  232F   	fcall	___wmul
              120A  118A         
  2308  04E6  1283               	bcf	status, 5	;RP0=0, select bank0
  2309  04E7  1303               	bcf	status, 6	;RP1=0, select bank0
  2310  04E8  0821               	movf	(1+(?___wmul)),w
  2311  04E9  01A9               	clrf	1+(?___awdiv)+02h
  2312  04EA  07A9               	addwf	1+(?___awdiv)+02h
  2313  04EB  0820               	movf	(0+(?___wmul)),w
  2314  04EC  01A8               	clrf	0+(?___awdiv)+02h
  2315  04ED  07A8               	addwf	0+(?___awdiv)+02h
  2316                           opt subtitle "HI-TECH Software Omniscient Code Generator (Lite mode) build 49521"
  2317  04EE  120A  158A  25AB   	fcall	___awdiv
              120A  118A         
  2318  04F3  1283               	bcf	status, 5	;RP0=0, select bank0
  2319  04F4  1303               	bcf	status, 6	;RP1=0, select bank0
  2320  04F5  0826               	movf	(0+(?___awdiv)),w
  2321  04F6  07D0               	addwf	(_energy),f
  2322  04F7  1803               	skipnc
  2323  04F8  0AD1               	incf	(_energy+1),f
  2324  04F9  0827               	movf	(1+(?___awdiv)),w
  2325  04FA  07D1               	addwf	(_energy+1),f
  2326  04FB  2CFC               	goto	l2300
  2327                           opt subtitle "HI-TECH Software Omniscient Code Generator (Lite mode) build 49521"
  2328                           
  2329  04FC                     l187:	
  2330                           opt subtitle "HI-TECH Software Omniscient Code Generator (Lite mode) build 49521"
  2331                           
  2332  04FC                     l2300:	
  2333  04FC  3001               	movlw	01h
  2334  04FD  07CB               	addwf	(main@num_sleep),f
  2335  04FE  30FF               	movlw	-01h
  2336  04FF  074B               	addwf	(main@num_sleep),w
  2337  0500  00C3               	movwf	(??_main+0)+0
  2338  0501  0857               	movf	(_sleep_count),w
  2339  0502  0243               	subwf	(??_main+0)+0,w
  2340  0503  1C03               	skipc
  2341  0504  2D06               	goto	u1641
  2342  0505  2D07               	goto	u1640
  2343  0506                     u1641:
  2344  0506  2CBF               	goto	l2296
  2345  0507                     u1640:
  2346  0507  2D08               	goto	l2302
  2347                           opt subtitle "HI-TECH Software Omniscient Code Generator (Lite mode) build 49521"
  2348  0508                     l189:	
  2349                           opt subtitle "HI-TECH Software Omniscient Code Generator (Lite mode) build 49521"
  2350                           
  2351  0508                     l2302:	
  2352                           opt subtitle "HI-TECH Software Omniscient Code Generator (Lite mode) build 49521"
  2353                           
  2354  0508  3001               	movlw	low(01h)
  2355  0509  07D2               	addwf	(_timelapse_count),f
  2356  050A  1803               	skipnc
  2357  050B  0AD3               	incf	(_timelapse_count+1),f
  2358  050C  3000               	movlw	high(01h)
  2359  050D  07D3               	addwf	(_timelapse_count+1),f
  2360  050E  2B78               	goto	l2208
  2361                           opt subtitle "HI-TECH Software Omniscient Code Generator (Lite mode) build 49521"
  2362                           
  2363  050F                     l190:	
  2364                           opt subtitle "HI-TECH Software Omniscient Code Generator (Lite mode) build 49521"
  2365  050F  2B78               	goto	l2208
  2366                           opt subtitle "HI-TECH Software Omniscient Code Generator (Lite mode) build 49521"
  2367  0510                     l191:	
  2368                           opt subtitle "HI-TECH Software Omniscient Code Generator (Lite mode) build 49521"
  2369                           
  2370                           opt pagewidth 120
  2371                           
  2372                           	opt lm
  2373  0510                     l192:	
  2374                           opt subtitle "HI-TECH Software Omniscient Code Generator (Lite mode) build 49521"
  2375  0510  120A  118A  2812   	ljmp	start
  2376                           opt subtitle "HI-TECH Software Omniscient Code Generator (Lite mode) build 49521"
  2377                           
  2378  0513                     	__end_of_main:
  2379                           opt subtitle "HI-TECH Software Omniscient Code Generator (Lite mode) build 49521"
  2380                           
  2381                           opt pagewidth 120
  2382                           
  2383                           	opt lm
  2384                           
  2385                           	processor	16LF707
  2386                           clrc	macro
  2387                           	bcf	3,0
  2388                           	endm
  2389                           clrz	macro
  2390                           	bcf	3,2
  2391                           	endm
  2392                           setc	macro
  2393                           	bsf	3,0
  2394                           	endm
  2395                           setz	macro
  2396                           	bsf	3,2
  2397                           	endm
  2398                           skipc	macro
  2399                           	btfss	3,0
  2400                           	endm
  2401                           skipz	macro
  2402                           	btfss	3,2
  2403                           	endm
  2404                           skipnc	macro
  2405                           	btfsc	3,0
  2406                           	endm
  2407                           skipnz	macro
  2408                           	btfsc	3,2
  2409                           	endm
  2410                           indf	equ	0
  2411                           indf0	equ	0
  2412                           pc	equ	2
  2413                           pcl	equ	2
  2414                           status	equ	3
  2415                           fsr	equ	4
  2416                           fsr0	equ	4
  2417                           c	equ	1
  2418  0015                     __ptext675:	;psect for function _RFM70_Initialize
  2419                           opt subtitle "HI-TECH Software Omniscient Code Generator (Lite mode) build 49521"
  2420                           
  2421                           opt pagewidth 120
  2422                           
  2423  02E6                     	__size_of_RFM70_Initialize	equ	__end_of_RFM70_Initialize-_RFM70_Initialize
  2424                           opt subtitle "HI-TECH Software Omniscient Code Generator (Lite mode) build 49521"
  2425  0015                     _RFM70_Initialize:	
  2426                           opt subtitle "HI-TECH Software Omniscient Code Generator (Lite mode) build 49521"
  2427                           
  2428                           opt pagewidth 120
  2429                           
  2430  0015                     l2570:	
  2431                           opt subtitle "HI-TECH Software Omniscient Code Generator (Lite mode) build 49521"
  2432                           
  2433                           opt pagewidth 120
  2434                           
  2435  0015  3003               movlw  3
  2436  0016  1283               	bcf	status, 5	;RP0=0, select bank0
  2437  0017  1303               	bcf	status, 6	;RP1=0, select bank0
  2438  0018  00AB               movwf	((??_RFM70_Initialize+0)+0+2),f
  2439  0019  3008               movlw	8
  2440  001A  00AA               movwf	((??_RFM70_Initialize+0)+0+1),f
  2441  001B  3078               	movlw	120
  2442  001C  00A9               movwf	((??_RFM70_Initialize+0)+0),f
  2443  001D                     u2917:
  2444  001D  0BA9               	decfsz	((??_RFM70_Initialize+0)+0),f
  2445  001E  281D               	goto	u2917
  2446  001F  0BAA               	decfsz	((??_RFM70_Initialize+0)+0+1),f
  2447  0020  281D               	goto	u2917
  2448  0021  0BAB               	decfsz	((??_RFM70_Initialize+0)+0+2),f
  2449  0022  281D               	goto	u2917
  2450                           opt subtitle "HI-TECH Software Omniscient Code Generator (Lite mode) build 49521"
  2451                           
  2452                           opt pagewidth 120
  2453                           
  2454  0023                     l2572:	
  2455                           opt subtitle "HI-TECH Software Omniscient Code Generator (Lite mode) build 49521"
  2456  0023  3000               	movlw	(0)
  2457  0024  120A  158A  235B   	fcall	_SwitchCFG
              120A  118A         
  2458                           opt subtitle "HI-TECH Software Omniscient Code Generator (Lite mode) build 49521"
  2459                           
  2460  0029                     l2574:	
  2461                           opt subtitle "HI-TECH Software Omniscient Code Generator (Lite mode) build 49521"
  2462  0029  1283               	bcf	status, 5	;RP0=0, select bank0
  2463  002A  1303               	bcf	status, 6	;RP1=0, select bank0
  2464  002B  01BC               	clrf	(RFM70_Initialize@i)
  2465                           opt subtitle "HI-TECH Software Omniscient Code Generator (Lite mode) build 49521"
  2466  002C                     l2576:	
  2467  002C  3014               	movlw	(014h)
  2468  002D  023C               	subwf	(RFM70_Initialize@i),w
  2469  002E  1C03               	skipc
  2470  002F  2831               	goto	u1691
  2471  0030  2832               	goto	u1690
  2472  0031                     u1691:
  2473  0031  2834               	goto	l2580
  2474  0032                     u1690:
  2475  0032  285C               	goto	l344
  2476                           opt subtitle "HI-TECH Software Omniscient Code Generator (Lite mode) build 49521"
  2477  0033                     l2578:	
  2478  0033  285C               	goto	l344
  2479                           opt subtitle "HI-TECH Software Omniscient Code Generator (Lite mode) build 49521"
  2480                           
  2481  0034                     l343:	
  2482                           opt subtitle "HI-TECH Software Omniscient Code Generator (Lite mode) build 49521"
  2483                           
  2484  0034                     l2580:	
  2485                           opt subtitle "HI-TECH Software Omniscient Code Generator (Lite mode) build 49521"
  2486                           
  2487  0034  1403               	setc
  2488  0035  0D3C               	rlf	(RFM70_Initialize@i),w
  2489  0036  3E39               	addlw	low((_Bank0_Reg-__stringbase))
  2490  0037  0084               	movwf	fsr0
  2491  0038  120A  158A  2000   	fcall	stringdir
              120A  118A         
  2492  003D  00A9               	movwf	(??_RFM70_Initialize+0)+0
  2493  003E  0829               	movf	(??_RFM70_Initialize+0)+0,w
  2494  003F  00A3               	movwf	(?_SPI_Write_Reg)
  2495  0040  083C               	movf	(RFM70_Initialize@i),w
  2496  0041  00AA               	movwf	(??_RFM70_Initialize+1)+0
  2497  0042  072A               	addwf	(??_RFM70_Initialize+1)+0,w
  2498  0043  3E39               	addlw	low((_Bank0_Reg-__stringbase))
  2499  0044  0084               	movwf	fsr0
  2500  0045  120A  158A  2000   	fcall	stringdir
              120A  118A         
  2501  004A  3820               	iorlw	020h
  2502  004B  120A  158A  21E1   	fcall	_SPI_Write_Reg
              120A  118A         
  2503                           opt subtitle "HI-TECH Software Omniscient Code Generator (Lite mode) build 49521"
  2504                           
  2505  0050                     l2582:	
  2506  0050  3001               	movlw	(01h)
  2507  0051  1283               	bcf	status, 5	;RP0=0, select bank0
  2508  0052  1303               	bcf	status, 6	;RP1=0, select bank0
  2509  0053  00A9               	movwf	(??_RFM70_Initialize+0)+0
  2510  0054  0829               	movf	(??_RFM70_Initialize+0)+0,w
  2511  0055  07BC               	addwf	(RFM70_Initialize@i),f
  2512                           opt subtitle "HI-TECH Software Omniscient Code Generator (Lite mode) build 49521"
  2513  0056                     l2584:	
  2514  0056  3014               	movlw	(014h)
  2515  0057  023C               	subwf	(RFM70_Initialize@i),w
  2516  0058  1C03               	skipc
  2517  0059  285B               	goto	u1701
  2518  005A  285C               	goto	u1700
  2519  005B                     u1701:
  2520  005B  2834               	goto	l2580
  2521  005C                     u1700:
  2522                           opt subtitle "HI-TECH Software Omniscient Code Generator (Lite mode) build 49521"
  2523  005C                     l344:	
  2524                           opt subtitle "HI-TECH Software Omniscient Code Generator (Lite mode) build 49521"
  2525                           
  2526                           opt pagewidth 120
  2527  005C  01BD               	clrf	(RFM70_Initialize@j)
  2528                           opt subtitle "HI-TECH Software Omniscient Code Generator (Lite mode) build 49521"
  2529  005D                     l2586:	
  2530  005D  3005               	movlw	(05h)
  2531  005E  023D               	subwf	(RFM70_Initialize@j),w
  2532  005F  1C03               	skipc
  2533  0060  2862               	goto	u1711
  2534  0061  2863               	goto	u1710
  2535  0062                     u1711:
  2536  0062  2865               	goto	l2590
  2537  0063                     u1710:
  2538  0063  287F               	goto	l2596
  2539                           opt subtitle "HI-TECH Software Omniscient Code Generator (Lite mode) build 49521"
  2540  0064                     l2588:	
  2541  0064  287F               	goto	l2596
  2542                           opt subtitle "HI-TECH Software Omniscient Code Generator (Lite mode) build 49521"
  2543                           
  2544  0065                     l345:	
  2545                           opt subtitle "HI-TECH Software Omniscient Code Generator (Lite mode) build 49521"
  2546                           
  2547  0065                     l2590:	
  2548                           opt subtitle "HI-TECH Software Omniscient Code Generator (Lite mode) build 49521"
  2549                           
  2550  0065  083D               	movf	(RFM70_Initialize@j),w
  2551  0066  3E72               	addlw	low((_RX0_Address-__stringbase))
  2552  0067  0084               	movwf	fsr0
  2553  0068  120A  158A  2000   	fcall	stringdir
              120A  118A         
  2554  006D  00A9               	movwf	(??_RFM70_Initialize+0)+0
  2555  006E  083D               	movf	(RFM70_Initialize@j),w
  2556  006F  3E30               	addlw	RFM70_Initialize@WriteArr&0ffh
  2557  0070  0084               	movwf	fsr0
  2558  0071  0829               	movf	(??_RFM70_Initialize+0)+0,w
  2559  0072  1383               	bcf	status, 7	;select IRP bank0
  2560  0073  0080               	movwf	indf
  2561                           opt subtitle "HI-TECH Software Omniscient Code Generator (Lite mode) build 49521"
  2562                           
  2563  0074                     l2592:	
  2564  0074  3001               	movlw	(01h)
  2565  0075  00A9               	movwf	(??_RFM70_Initialize+0)+0
  2566  0076  0829               	movf	(??_RFM70_Initialize+0)+0,w
  2567  0077  07BD               	addwf	(RFM70_Initialize@j),f
  2568                           opt subtitle "HI-TECH Software Omniscient Code Generator (Lite mode) build 49521"
  2569  0078                     l2594:	
  2570  0078  3005               	movlw	(05h)
  2571  0079  023D               	subwf	(RFM70_Initialize@j),w
  2572  007A  1C03               	skipc
  2573  007B  287D               	goto	u1721
  2574  007C  287E               	goto	u1720
  2575  007D                     u1721:
  2576  007D  2865               	goto	l2590
  2577  007E                     u1720:
  2578  007E  287F               	goto	l2596
  2579                           opt subtitle "HI-TECH Software Omniscient Code Generator (Lite mode) build 49521"
  2580  007F                     l346:	
  2581                           opt subtitle "HI-TECH Software Omniscient Code Generator (Lite mode) build 49521"
  2582                           
  2583  007F                     l2596:	
  2584                           opt subtitle "HI-TECH Software Omniscient Code Generator (Lite mode) build 49521"
  2585                           
  2586  007F  3030               	movlw	(RFM70_Initialize@WriteArr)&0ffh
  2587  0080  00A9               	movwf	(??_RFM70_Initialize+0)+0
  2588  0081  0829               	movf	(??_RFM70_Initialize+0)+0,w
  2589  0082  00A3               	movwf	(?_SPI_Write_Buf)
  2590  0083  3005               	movlw	(05h)
  2591  0084  00AA               	movwf	(??_RFM70_Initialize+1)+0
  2592  0085  082A               	movf	(??_RFM70_Initialize+1)+0,w
  2593  0086  00A4               	movwf	0+(?_SPI_Write_Buf)+01h
  2594  0087  302A               	movlw	(02Ah)
  2595  0088  120A  158A  22DB   	fcall	_SPI_Write_Buf
              120A  118A         
  2596                           opt subtitle "HI-TECH Software Omniscient Code Generator (Lite mode) build 49521"
  2597                           
  2598  008D                     l2598:	
  2599                           opt subtitle "HI-TECH Software Omniscient Code Generator (Lite mode) build 49521"
  2600  008D  1283               	bcf	status, 5	;RP0=0, select bank0
  2601  008E  1303               	bcf	status, 6	;RP1=0, select bank0
  2602  008F  01BD               	clrf	(RFM70_Initialize@j)
  2603                           opt subtitle "HI-TECH Software Omniscient Code Generator (Lite mode) build 49521"
  2604  0090                     l2600:	
  2605  0090  3005               	movlw	(05h)
  2606  0091  023D               	subwf	(RFM70_Initialize@j),w
  2607  0092  1C03               	skipc
  2608  0093  2895               	goto	u1731
  2609  0094  2896               	goto	u1730
  2610  0095                     u1731:
  2611  0095  2898               	goto	l2604
  2612  0096                     u1730:
  2613  0096  28B2               	goto	l2610
  2614                           opt subtitle "HI-TECH Software Omniscient Code Generator (Lite mode) build 49521"
  2615  0097                     l2602:	
  2616  0097  28B2               	goto	l2610
  2617                           opt subtitle "HI-TECH Software Omniscient Code Generator (Lite mode) build 49521"
  2618                           
  2619  0098                     l347:	
  2620                           opt subtitle "HI-TECH Software Omniscient Code Generator (Lite mode) build 49521"
  2621                           
  2622  0098                     l2604:	
  2623                           opt subtitle "HI-TECH Software Omniscient Code Generator (Lite mode) build 49521"
  2624                           
  2625  0098  083D               	movf	(RFM70_Initialize@j),w
  2626  0099  3E77               	addlw	low((_RX1_Address-__stringbase))
  2627  009A  0084               	movwf	fsr0
  2628  009B  120A  158A  2000   	fcall	stringdir
              120A  118A         
  2629  00A0  00A9               	movwf	(??_RFM70_Initialize+0)+0
  2630  00A1  083D               	movf	(RFM70_Initialize@j),w
  2631  00A2  3E30               	addlw	RFM70_Initialize@WriteArr&0ffh
  2632  00A3  0084               	movwf	fsr0
  2633  00A4  0829               	movf	(??_RFM70_Initialize+0)+0,w
  2634  00A5  1383               	bcf	status, 7	;select IRP bank0
  2635  00A6  0080               	movwf	indf
  2636                           opt subtitle "HI-TECH Software Omniscient Code Generator (Lite mode) build 49521"
  2637                           
  2638  00A7                     l2606:	
  2639  00A7  3001               	movlw	(01h)
  2640  00A8  00A9               	movwf	(??_RFM70_Initialize+0)+0
  2641  00A9  0829               	movf	(??_RFM70_Initialize+0)+0,w
  2642  00AA  07BD               	addwf	(RFM70_Initialize@j),f
  2643                           opt subtitle "HI-TECH Software Omniscient Code Generator (Lite mode) build 49521"
  2644  00AB                     l2608:	
  2645  00AB  3005               	movlw	(05h)
  2646  00AC  023D               	subwf	(RFM70_Initialize@j),w
  2647  00AD  1C03               	skipc
  2648  00AE  28B0               	goto	u1741
  2649  00AF  28B1               	goto	u1740
  2650  00B0                     u1741:
  2651  00B0  2898               	goto	l2604
  2652  00B1                     u1740:
  2653  00B1  28B2               	goto	l2610
  2654                           opt subtitle "HI-TECH Software Omniscient Code Generator (Lite mode) build 49521"
  2655  00B2                     l348:	
  2656                           opt subtitle "HI-TECH Software Omniscient Code Generator (Lite mode) build 49521"
  2657                           
  2658  00B2                     l2610:	
  2659                           opt subtitle "HI-TECH Software Omniscient Code Generator (Lite mode) build 49521"
  2660                           
  2661  00B2  3030               	movlw	(RFM70_Initialize@WriteArr)&0ffh
  2662  00B3  00A9               	movwf	(??_RFM70_Initialize+0)+0
  2663  00B4  0829               	movf	(??_RFM70_Initialize+0)+0,w
  2664  00B5  00A3               	movwf	(?_SPI_Write_Buf)
  2665  00B6  3005               	movlw	(05h)
  2666  00B7  00AA               	movwf	(??_RFM70_Initialize+1)+0
  2667  00B8  082A               	movf	(??_RFM70_Initialize+1)+0,w
  2668  00B9  00A4               	movwf	0+(?_SPI_Write_Buf)+01h
  2669  00BA  302B               	movlw	(02Bh)
  2670  00BB  120A  158A  22DB   	fcall	_SPI_Write_Buf
              120A  118A         
  2671                           opt subtitle "HI-TECH Software Omniscient Code Generator (Lite mode) build 49521"
  2672                           
  2673  00C0                     l2612:	
  2674                           opt subtitle "HI-TECH Software Omniscient Code Generator (Lite mode) build 49521"
  2675  00C0  1283               	bcf	status, 5	;RP0=0, select bank0
  2676  00C1  1303               	bcf	status, 6	;RP1=0, select bank0
  2677  00C2  01BD               	clrf	(RFM70_Initialize@j)
  2678                           opt subtitle "HI-TECH Software Omniscient Code Generator (Lite mode) build 49521"
  2679  00C3                     l2614:	
  2680  00C3  3005               	movlw	(05h)
  2681  00C4  023D               	subwf	(RFM70_Initialize@j),w
  2682  00C5  1C03               	skipc
  2683  00C6  28C8               	goto	u1751
  2684  00C7  28C9               	goto	u1750
  2685  00C8                     u1751:
  2686  00C8  28CB               	goto	l2618
  2687  00C9                     u1750:
  2688  00C9  28E5               	goto	l2624
  2689                           opt subtitle "HI-TECH Software Omniscient Code Generator (Lite mode) build 49521"
  2690  00CA                     l2616:	
  2691  00CA  28E5               	goto	l2624
  2692                           opt subtitle "HI-TECH Software Omniscient Code Generator (Lite mode) build 49521"
  2693                           
  2694  00CB                     l349:	
  2695                           opt subtitle "HI-TECH Software Omniscient Code Generator (Lite mode) build 49521"
  2696                           
  2697  00CB                     l2618:	
  2698                           opt subtitle "HI-TECH Software Omniscient Code Generator (Lite mode) build 49521"
  2699                           
  2700  00CB  083D               	movf	(RFM70_Initialize@j),w
  2701  00CC  3E72               	addlw	low((_RX0_Address-__stringbase))
  2702  00CD  0084               	movwf	fsr0
  2703  00CE  120A  158A  2000   	fcall	stringdir
              120A  118A         
  2704  00D3  00A9               	movwf	(??_RFM70_Initialize+0)+0
  2705  00D4  083D               	movf	(RFM70_Initialize@j),w
  2706  00D5  3E30               	addlw	RFM70_Initialize@WriteArr&0ffh
  2707  00D6  0084               	movwf	fsr0
  2708  00D7  0829               	movf	(??_RFM70_Initialize+0)+0,w
  2709  00D8  1383               	bcf	status, 7	;select IRP bank0
  2710  00D9  0080               	movwf	indf
  2711                           opt subtitle "HI-TECH Software Omniscient Code Generator (Lite mode) build 49521"
  2712                           
  2713  00DA                     l2620:	
  2714  00DA  3001               	movlw	(01h)
  2715  00DB  00A9               	movwf	(??_RFM70_Initialize+0)+0
  2716  00DC  0829               	movf	(??_RFM70_Initialize+0)+0,w
  2717  00DD  07BD               	addwf	(RFM70_Initialize@j),f
  2718                           opt subtitle "HI-TECH Software Omniscient Code Generator (Lite mode) build 49521"
  2719  00DE                     l2622:	
  2720  00DE  3005               	movlw	(05h)
  2721  00DF  023D               	subwf	(RFM70_Initialize@j),w
  2722  00E0  1C03               	skipc
  2723  00E1  28E3               	goto	u1761
  2724  00E2  28E4               	goto	u1760
  2725  00E3                     u1761:
  2726  00E3  28CB               	goto	l2618
  2727  00E4                     u1760:
  2728  00E4  28E5               	goto	l2624
  2729                           opt subtitle "HI-TECH Software Omniscient Code Generator (Lite mode) build 49521"
  2730  00E5                     l350:	
  2731                           opt subtitle "HI-TECH Software Omniscient Code Generator (Lite mode) build 49521"
  2732                           
  2733  00E5                     l2624:	
  2734                           opt subtitle "HI-TECH Software Omniscient Code Generator (Lite mode) build 49521"
  2735                           
  2736  00E5  3030               	movlw	(RFM70_Initialize@WriteArr)&0ffh
  2737  00E6  00A9               	movwf	(??_RFM70_Initialize+0)+0
  2738  00E7  0829               	movf	(??_RFM70_Initialize+0)+0,w
  2739  00E8  00A3               	movwf	(?_SPI_Write_Buf)
  2740  00E9  3005               	movlw	(05h)
  2741  00EA  00AA               	movwf	(??_RFM70_Initialize+1)+0
  2742  00EB  082A               	movf	(??_RFM70_Initialize+1)+0,w
  2743  00EC  00A4               	movwf	0+(?_SPI_Write_Buf)+01h
  2744  00ED  3030               	movlw	(030h)
  2745  00EE  120A  158A  22DB   	fcall	_SPI_Write_Buf
              120A  118A         
  2746                           opt subtitle "HI-TECH Software Omniscient Code Generator (Lite mode) build 49521"
  2747                           
  2748  00F3  301D               	movlw	(01Dh)
  2749  00F4  120A  158A  223E   	fcall	_SPI_Read_Reg
              120A  118A         
  2750  00F9  1283               	bcf	status, 5	;RP0=0, select bank0
  2751  00FA  1303               	bcf	status, 6	;RP1=0, select bank0
  2752  00FB  00A9               	movwf	(??_RFM70_Initialize+0)+0
  2753  00FC  0829               	movf	(??_RFM70_Initialize+0)+0,w
  2754  00FD  00BC               	movwf	(RFM70_Initialize@i)
  2755                           opt subtitle "HI-TECH Software Omniscient Code Generator (Lite mode) build 49521"
  2756                           
  2757  00FE                     l2626:	
  2758                           opt subtitle "HI-TECH Software Omniscient Code Generator (Lite mode) build 49521"
  2759  00FE  08BC               	movf	(RFM70_Initialize@i),f
  2760  00FF  1D03               	skipz
  2761  0100  2902               	goto	u1771
  2762  0101  2903               	goto	u1770
  2763  0102                     u1771:
  2764  0102  290E               	goto	l2630
  2765  0103                     u1770:
  2766                           opt subtitle "HI-TECH Software Omniscient Code Generator (Lite mode) build 49521"
  2767                           
  2768  0103                     l2628:	
  2769                           opt subtitle "HI-TECH Software Omniscient Code Generator (Lite mode) build 49521"
  2770  0103  3073               	movlw	(073h)
  2771  0104  00A9               	movwf	(??_RFM70_Initialize+0)+0
  2772  0105  0829               	movf	(??_RFM70_Initialize+0)+0,w
  2773  0106  00A3               	movwf	(?_SPI_Write_Reg)
  2774  0107  3050               	movlw	(050h)
  2775  0108  120A  158A  21E1   	fcall	_SPI_Write_Reg
              120A  118A         
  2776  010D  290E               	goto	l2630
  2777                           opt subtitle "HI-TECH Software Omniscient Code Generator (Lite mode) build 49521"
  2778  010E                     l351:	
  2779                           opt subtitle "HI-TECH Software Omniscient Code Generator (Lite mode) build 49521"
  2780                           
  2781  010E                     l2630:	
  2782                           opt subtitle "HI-TECH Software Omniscient Code Generator (Lite mode) build 49521"
  2783  010E  3016               	movlw	(016h)
  2784  010F  1283               	bcf	status, 5	;RP0=0, select bank0
  2785  0110  1303               	bcf	status, 6	;RP1=0, select bank0
  2786  0111  00A9               	movwf	(??_RFM70_Initialize+0)+0
  2787  0112  0829               	movf	(??_RFM70_Initialize+0)+0,w
  2788  0113  00BC               	movwf	(RFM70_Initialize@i)
  2789                           opt subtitle "HI-TECH Software Omniscient Code Generator (Lite mode) build 49521"
  2790  0114                     l2632:	
  2791  0114  3015               	movlw	(015h)
  2792  0115  023C               	subwf	(RFM70_Initialize@i),w
  2793  0116  1803               	skipnc
  2794  0117  2919               	goto	u1781
  2795  0118  291A               	goto	u1780
  2796  0119                     u1781:
  2797  0119  291C               	goto	l2636
  2798  011A                     u1780:
  2799  011A  2943               	goto	l2642
  2800                           opt subtitle "HI-TECH Software Omniscient Code Generator (Lite mode) build 49521"
  2801  011B                     l2634:	
  2802  011B  2943               	goto	l2642
  2803                           opt subtitle "HI-TECH Software Omniscient Code Generator (Lite mode) build 49521"
  2804                           
  2805  011C                     l352:	
  2806                           opt subtitle "HI-TECH Software Omniscient Code Generator (Lite mode) build 49521"
  2807                           
  2808  011C                     l2636:	
  2809                           opt subtitle "HI-TECH Software Omniscient Code Generator (Lite mode) build 49521"
  2810                           
  2811  011C  1403               	setc
  2812  011D  0D3C               	rlf	(RFM70_Initialize@i),w
  2813  011E  3E39               	addlw	low((_Bank0_Reg-__stringbase))
  2814  011F  0084               	movwf	fsr0
  2815  0120  120A  158A  2000   	fcall	stringdir
              120A  118A         
  2816  0125  00A9               	movwf	(??_RFM70_Initialize+0)+0
  2817  0126  0829               	movf	(??_RFM70_Initialize+0)+0,w
  2818  0127  00A3               	movwf	(?_SPI_Write_Reg)
  2819  0128  083C               	movf	(RFM70_Initialize@i),w
  2820  0129  00AA               	movwf	(??_RFM70_Initialize+1)+0
  2821  012A  072A               	addwf	(??_RFM70_Initialize+1)+0,w
  2822  012B  3E39               	addlw	low((_Bank0_Reg-__stringbase))
  2823  012C  0084               	movwf	fsr0
  2824  012D  120A  158A  2000   	fcall	stringdir
              120A  118A         
  2825  0132  3820               	iorlw	020h
  2826  0133  120A  158A  21E1   	fcall	_SPI_Write_Reg
              120A  118A         
  2827                           opt subtitle "HI-TECH Software Omniscient Code Generator (Lite mode) build 49521"
  2828                           
  2829  0138                     l2638:	
  2830  0138  3001               	movlw	low(01h)
  2831  0139  1283               	bcf	status, 5	;RP0=0, select bank0
  2832  013A  1303               	bcf	status, 6	;RP1=0, select bank0
  2833  013B  02BC               	subwf	(RFM70_Initialize@i),f
  2834                           opt subtitle "HI-TECH Software Omniscient Code Generator (Lite mode) build 49521"
  2835  013C                     l2640:	
  2836  013C  3015               	movlw	(015h)
  2837  013D  023C               	subwf	(RFM70_Initialize@i),w
  2838  013E  1803               	skipnc
  2839  013F  2941               	goto	u1791
  2840  0140  2942               	goto	u1790
  2841  0141                     u1791:
  2842  0141  291C               	goto	l2636
  2843  0142                     u1790:
  2844  0142  2943               	goto	l2642
  2845                           opt subtitle "HI-TECH Software Omniscient Code Generator (Lite mode) build 49521"
  2846  0143                     l353:	
  2847                           opt subtitle "HI-TECH Software Omniscient Code Generator (Lite mode) build 49521"
  2848                           
  2849  0143                     l2642:	
  2850                           opt subtitle "HI-TECH Software Omniscient Code Generator (Lite mode) build 49521"
  2851                           
  2852  0143  3001               	movlw	(01h)
  2853  0144  120A  158A  235B   	fcall	_SwitchCFG
              120A  118A         
  2854                           opt subtitle "HI-TECH Software Omniscient Code Generator (Lite mode) build 49521"
  2855                           
  2856  0149                     l2644:	
  2857                           opt subtitle "HI-TECH Software Omniscient Code Generator (Lite mode) build 49521"
  2858  0149  1283               	bcf	status, 5	;RP0=0, select bank0
  2859  014A  1303               	bcf	status, 6	;RP1=0, select bank0
  2860  014B  01BC               	clrf	(RFM70_Initialize@i)
  2861                           opt subtitle "HI-TECH Software Omniscient Code Generator (Lite mode) build 49521"
  2862  014C                     l2646:	
  2863  014C  3009               	movlw	(09h)
  2864  014D  023C               	subwf	(RFM70_Initialize@i),w
  2865  014E  1C03               	skipc
  2866  014F  2951               	goto	u1801
  2867  0150  2952               	goto	u1800
  2868  0151                     u1801:
  2869  0151  2954               	goto	l354
  2870  0152                     u1800:
  2871  0152  29C4               	goto	l2666
  2872                           opt subtitle "HI-TECH Software Omniscient Code Generator (Lite mode) build 49521"
  2873  0153                     l2648:	
  2874  0153  29C4               	goto	l2666
  2875                           opt subtitle "HI-TECH Software Omniscient Code Generator (Lite mode) build 49521"
  2876                           
  2877  0154                     l354:	
  2878                           opt subtitle "HI-TECH Software Omniscient Code Generator (Lite mode) build 49521"
  2879                           
  2880                           opt pagewidth 120
  2881  0154  01BD               	clrf	(RFM70_Initialize@j)
  2882                           opt subtitle "HI-TECH Software Omniscient Code Generator (Lite mode) build 49521"
  2883  0155                     l2650:	
  2884  0155  3004               	movlw	(04h)
  2885  0156  023D               	subwf	(RFM70_Initialize@j),w
  2886  0157  1C03               	skipc
  2887  0158  295A               	goto	u1811
  2888  0159  295B               	goto	u1810
  2889  015A                     u1811:
  2890  015A  295D               	goto	l2654
  2891  015B                     u1810:
  2892  015B  29A8               	goto	l2660
  2893                           opt subtitle "HI-TECH Software Omniscient Code Generator (Lite mode) build 49521"
  2894  015C                     l2652:	
  2895  015C  29A8               	goto	l2660
  2896                           opt subtitle "HI-TECH Software Omniscient Code Generator (Lite mode) build 49521"
  2897                           
  2898  015D                     l356:	
  2899                           opt subtitle "HI-TECH Software Omniscient Code Generator (Lite mode) build 49521"
  2900  015D                     l2654:	
  2901                           opt subtitle "HI-TECH Software Omniscient Code Generator (Lite mode) build 49521"
  2902  015D  083C               	movf	(RFM70_Initialize@i),w
  2903  015E  00A9               	movwf	(??_RFM70_Initialize+0)+0
  2904  015F  3001               	movlw	(02h)-1
  2905  0160                     u1825:
  2906  0160  1003               	clrc
  2907  0161  0DA9               	rlf	(??_RFM70_Initialize+0)+0,f
  2908  0162  3EFF               	addlw	-1
  2909  0163  1D03               	skipz
  2910  0164  2960               	goto	u1825
  2911  0165  1003               	clrc
  2912  0166  0D29               	rlf	(??_RFM70_Initialize+0)+0,w
  2913  0167  3E01               	addlw	low((_Bank1_Reg0_13-__stringbase))
  2914  0168  0084               	movwf	fsr0
  2915  0169  120A  158A  2000   	fcall	stringdir
              120A  118A         
  2916  016E  00AA               	movwf	((??_RFM70_Initialize+1)+0)
  2917  016F  120A  158A  2000   	fcall	stringdir
              120A  118A         
  2918  0174  00AB               	movwf	((??_RFM70_Initialize+1)+0+1)
  2919  0175  120A  158A  2000   	fcall	stringdir
              120A  118A         
  2920  017A  00AC               	movwf	((??_RFM70_Initialize+1)+0+2)
  2921  017B  120A  158A  2000   	fcall	stringdir
              120A  118A         
  2922  0180  00AD               	movwf	((??_RFM70_Initialize+1)+0+3)
  2923  0181  083D               	movf	(RFM70_Initialize@j),w
  2924  0182  00AE               	movwf	(??_RFM70_Initialize+5)+0
  2925  0183  3002               	movlw	(03h)-1
  2926  0184                     u1835:
  2927  0184  1003               	clrc
  2928  0185  0DAE               	rlf	(??_RFM70_Initialize+5)+0,f
  2929  0186  3EFF               	addlw	-1
  2930  0187  1D03               	skipz
  2931  0188  2984               	goto	u1835
  2932  0189  1003               	clrc
  2933  018A  0D2E               	rlf	(??_RFM70_Initialize+5)+0,w
  2934  018B  3E01               	addlw	1
  2935  018C  2992               	goto	u1840
  2936  018D                     u1845:
  2937  018D  1003               	clrc
  2938  018E  0CAD               	rrf	(??_RFM70_Initialize+1)+3,f
  2939  018F  0CAC               	rrf	(??_RFM70_Initialize+1)+2,f
  2940  0190  0CAB               	rrf	(??_RFM70_Initialize+1)+1,f
  2941  0191  0CAA               	rrf	(??_RFM70_Initialize+1)+0,f
  2942  0192                     u1840:
  2943  0192  3EFF               	addlw	-1
  2944  0193  1D03               	skipz
  2945  0194  298D               	goto	u1845
  2946  0195  082A               	movf	0+(??_RFM70_Initialize+1)+0,w
  2947  0196  00AF               	movwf	(??_RFM70_Initialize+6)+0
  2948  0197  083D               	movf	(RFM70_Initialize@j),w
  2949  0198  3E30               	addlw	RFM70_Initialize@WriteArr&0ffh
  2950  0199  0084               	movwf	fsr0
  2951  019A  082F               	movf	(??_RFM70_Initialize+6)+0,w
  2952  019B  1383               	bcf	status, 7	;select IRP bank0
  2953  019C  0080               	movwf	indf
  2954                           opt subtitle "HI-TECH Software Omniscient Code Generator (Lite mode) build 49521"
  2955                           
  2956  019D                     l2656:	
  2957  019D  3001               	movlw	(01h)
  2958  019E  00A9               	movwf	(??_RFM70_Initialize+0)+0
  2959  019F  0829               	movf	(??_RFM70_Initialize+0)+0,w
  2960  01A0  07BD               	addwf	(RFM70_Initialize@j),f
  2961                           opt subtitle "HI-TECH Software Omniscient Code Generator (Lite mode) build 49521"
  2962  01A1                     l2658:	
  2963  01A1  3004               	movlw	(04h)
  2964  01A2  023D               	subwf	(RFM70_Initialize@j),w
  2965  01A3  1C03               	skipc
  2966  01A4  29A6               	goto	u1851
  2967  01A5  29A7               	goto	u1850
  2968  01A6                     u1851:
  2969  01A6  295D               	goto	l2654
  2970  01A7                     u1850:
  2971  01A7  29A8               	goto	l2660
  2972                           opt subtitle "HI-TECH Software Omniscient Code Generator (Lite mode) build 49521"
  2973  01A8                     l357:	
  2974                           opt subtitle "HI-TECH Software Omniscient Code Generator (Lite mode) build 49521"
  2975                           
  2976  01A8                     l2660:	
  2977                           opt subtitle "HI-TECH Software Omniscient Code Generator (Lite mode) build 49521"
  2978  01A8  3030               	movlw	(RFM70_Initialize@WriteArr)&0ffh
  2979  01A9  00A9               	movwf	(??_RFM70_Initialize+0)+0
  2980  01AA  0829               	movf	(??_RFM70_Initialize+0)+0,w
  2981  01AB  00A3               	movwf	(?_SPI_Write_Buf)
  2982  01AC  3004               	movlw	(04h)
  2983  01AD  00AA               	movwf	(??_RFM70_Initialize+1)+0
  2984  01AE  082A               	movf	(??_RFM70_Initialize+1)+0,w
  2985  01AF  00A4               	movwf	0+(?_SPI_Write_Buf)+01h
  2986  01B0  083C               	movf	(RFM70_Initialize@i),w
  2987  01B1  3820               	iorlw	020h
  2988  01B2  120A  158A  22DB   	fcall	_SPI_Write_Buf
              120A  118A         
  2989                           opt subtitle "HI-TECH Software Omniscient Code Generator (Lite mode) build 49521"
  2990                           
  2991  01B7                     l2662:	
  2992  01B7  3001               	movlw	(01h)
  2993  01B8  1283               	bcf	status, 5	;RP0=0, select bank0
  2994  01B9  1303               	bcf	status, 6	;RP1=0, select bank0
  2995  01BA  00A9               	movwf	(??_RFM70_Initialize+0)+0
  2996  01BB  0829               	movf	(??_RFM70_Initialize+0)+0,w
  2997  01BC  07BC               	addwf	(RFM70_Initialize@i),f
  2998                           opt subtitle "HI-TECH Software Omniscient Code Generator (Lite mode) build 49521"
  2999  01BD                     l2664:	
  3000  01BD  3009               	movlw	(09h)
  3001  01BE  023C               	subwf	(RFM70_Initialize@i),w
  3002  01BF  1C03               	skipc
  3003  01C0  29C2               	goto	u1861
  3004  01C1  29C3               	goto	u1860
  3005  01C2                     u1861:
  3006  01C2  2954               	goto	l354
  3007  01C3                     u1860:
  3008  01C3  29C4               	goto	l2666
  3009                           opt subtitle "HI-TECH Software Omniscient Code Generator (Lite mode) build 49521"
  3010  01C4                     l355:	
  3011                           opt subtitle "HI-TECH Software Omniscient Code Generator (Lite mode) build 49521"
  3012                           
  3013  01C4                     l2666:	
  3014                           opt subtitle "HI-TECH Software Omniscient Code Generator (Lite mode) build 49521"
  3015                           
  3016  01C4  3009               	movlw	(09h)
  3017  01C5  00A9               	movwf	(??_RFM70_Initialize+0)+0
  3018  01C6  0829               	movf	(??_RFM70_Initialize+0)+0,w
  3019  01C7  00BC               	movwf	(RFM70_Initialize@i)
  3020  01C8  300E               	movlw	(0Eh)
  3021  01C9  023C               	subwf	(RFM70_Initialize@i),w
  3022  01CA  1C03               	skipc
  3023  01CB  29CD               	goto	u1871
  3024  01CC  29CE               	goto	u1870
  3025  01CD                     u1871:
  3026  01CD  29D0               	goto	l358
  3027  01CE                     u1870:
  3028  01CE  2A41               	goto	l359
  3029                           opt subtitle "HI-TECH Software Omniscient Code Generator (Lite mode) build 49521"
  3030  01CF                     l2668:	
  3031  01CF  2A41               	goto	l359
  3032                           opt subtitle "HI-TECH Software Omniscient Code Generator (Lite mode) build 49521"
  3033                           
  3034  01D0                     l358:	
  3035                           opt subtitle "HI-TECH Software Omniscient Code Generator (Lite mode) build 49521"
  3036                           
  3037                           opt pagewidth 120
  3038  01D0  01BD               	clrf	(RFM70_Initialize@j)
  3039                           opt subtitle "HI-TECH Software Omniscient Code Generator (Lite mode) build 49521"
  3040  01D1                     l2670:	
  3041  01D1  3004               	movlw	(04h)
  3042  01D2  023D               	subwf	(RFM70_Initialize@j),w
  3043  01D3  1C03               	skipc
  3044  01D4  29D6               	goto	u1881
  3045  01D5  29D7               	goto	u1880
  3046  01D6                     u1881:
  3047  01D6  29D9               	goto	l2674
  3048  01D7                     u1880:
  3049  01D7  2A26               	goto	l2680
  3050                           opt subtitle "HI-TECH Software Omniscient Code Generator (Lite mode) build 49521"
  3051  01D8                     l2672:	
  3052  01D8  2A26               	goto	l2680
  3053                           opt subtitle "HI-TECH Software Omniscient Code Generator (Lite mode) build 49521"
  3054                           
  3055  01D9                     l360:	
  3056                           opt subtitle "HI-TECH Software Omniscient Code Generator (Lite mode) build 49521"
  3057  01D9                     l2674:	
  3058                           opt subtitle "HI-TECH Software Omniscient Code Generator (Lite mode) build 49521"
  3059  01D9  083C               	movf	(RFM70_Initialize@i),w
  3060  01DA  00A9               	movwf	(??_RFM70_Initialize+0)+0
  3061  01DB  3001               	movlw	(02h)-1
  3062  01DC                     u1895:
  3063  01DC  1003               	clrc
  3064  01DD  0DA9               	rlf	(??_RFM70_Initialize+0)+0,f
  3065  01DE  3EFF               	addlw	-1
  3066  01DF  1D03               	skipz
  3067  01E0  29DC               	goto	u1895
  3068  01E1  1003               	clrc
  3069  01E2  0D29               	rlf	(??_RFM70_Initialize+0)+0,w
  3070  01E3  3E01               	addlw	low((_Bank1_Reg0_13-__stringbase))
  3071  01E4  0084               	movwf	fsr0
  3072  01E5  120A  158A  2000   	fcall	stringdir
              120A  118A         
  3073  01EA  00AA               	movwf	((??_RFM70_Initialize+1)+0)
  3074  01EB  120A  158A  2000   	fcall	stringdir
              120A  118A         
  3075  01F0  00AB               	movwf	((??_RFM70_Initialize+1)+0+1)
  3076  01F1  120A  158A  2000   	fcall	stringdir
              120A  118A         
  3077  01F6  00AC               	movwf	((??_RFM70_Initialize+1)+0+2)
  3078  01F7  120A  158A  2000   	fcall	stringdir
              120A  118A         
  3079  01FC  00AD               	movwf	((??_RFM70_Initialize+1)+0+3)
  3080  01FD  033D               	decf	(RFM70_Initialize@j),w
  3081  01FE  3AFF               	xorlw	0ffh
  3082  01FF  00AE               	movwf	(??_RFM70_Initialize+5)+0
  3083  0200  3002               	movlw	(03h)-1
  3084  0201                     u1905:
  3085  0201  1003               	clrc
  3086  0202  0DAE               	rlf	(??_RFM70_Initialize+5)+0,f
  3087  0203  3EFF               	addlw	-1
  3088  0204  1D03               	skipz
  3089  0205  2A01               	goto	u1905
  3090  0206  1003               	clrc
  3091  0207  0D2E               	rlf	(??_RFM70_Initialize+5)+0,w
  3092  0208  3E18               	addlw	018h
  3093  0209  3E01               	addlw	1
  3094  020A  2A10               	goto	u1910
  3095  020B                     u1915:
  3096  020B  1003               	clrc
  3097  020C  0CAD               	rrf	(??_RFM70_Initialize+1)+3,f
  3098  020D  0CAC               	rrf	(??_RFM70_Initialize+1)+2,f
  3099  020E  0CAB               	rrf	(??_RFM70_Initialize+1)+1,f
  3100  020F  0CAA               	rrf	(??_RFM70_Initialize+1)+0,f
  3101  0210                     u1910:
  3102  0210  3EFF               	addlw	-1
  3103  0211  1D03               	skipz
  3104  0212  2A0B               	goto	u1915
  3105  0213  082A               	movf	0+(??_RFM70_Initialize+1)+0,w
  3106  0214  00AF               	movwf	(??_RFM70_Initialize+6)+0
  3107  0215  083D               	movf	(RFM70_Initialize@j),w
  3108  0216  3E30               	addlw	RFM70_Initialize@WriteArr&0ffh
  3109  0217  0084               	movwf	fsr0
  3110  0218  082F               	movf	(??_RFM70_Initialize+6)+0,w
  3111  0219  1383               	bcf	status, 7	;select IRP bank0
  3112  021A  0080               	movwf	indf
  3113                           opt subtitle "HI-TECH Software Omniscient Code Generator (Lite mode) build 49521"
  3114                           
  3115  021B                     l2676:	
  3116  021B  3001               	movlw	(01h)
  3117  021C  00A9               	movwf	(??_RFM70_Initialize+0)+0
  3118  021D  0829               	movf	(??_RFM70_Initialize+0)+0,w
  3119  021E  07BD               	addwf	(RFM70_Initialize@j),f
  3120                           opt subtitle "HI-TECH Software Omniscient Code Generator (Lite mode) build 49521"
  3121  021F                     l2678:	
  3122  021F  3004               	movlw	(04h)
  3123  0220  023D               	subwf	(RFM70_Initialize@j),w
  3124  0221  1C03               	skipc
  3125  0222  2A24               	goto	u1921
  3126  0223  2A25               	goto	u1920
  3127  0224                     u1921:
  3128  0224  29D9               	goto	l2674
  3129  0225                     u1920:
  3130  0225  2A26               	goto	l2680
  3131                           opt subtitle "HI-TECH Software Omniscient Code Generator (Lite mode) build 49521"
  3132  0226                     l361:	
  3133                           opt subtitle "HI-TECH Software Omniscient Code Generator (Lite mode) build 49521"
  3134                           
  3135  0226                     l2680:	
  3136                           opt subtitle "HI-TECH Software Omniscient Code Generator (Lite mode) build 49521"
  3137  0226  3030               	movlw	(RFM70_Initialize@WriteArr)&0ffh
  3138  0227  00A9               	movwf	(??_RFM70_Initialize+0)+0
  3139  0228  0829               	movf	(??_RFM70_Initialize+0)+0,w
  3140  0229  00A3               	movwf	(?_SPI_Write_Buf)
  3141  022A  3004               	movlw	(04h)
  3142  022B  00AA               	movwf	(??_RFM70_Initialize+1)+0
  3143  022C  082A               	movf	(??_RFM70_Initialize+1)+0,w
  3144  022D  00A4               	movwf	0+(?_SPI_Write_Buf)+01h
  3145  022E  083C               	movf	(RFM70_Initialize@i),w
  3146  022F  3820               	iorlw	020h
  3147  0230  120A  158A  22DB   	fcall	_SPI_Write_Buf
              120A  118A         
  3148                           opt subtitle "HI-TECH Software Omniscient Code Generator (Lite mode) build 49521"
  3149                           
  3150  0235                     l2682:	
  3151  0235  3001               	movlw	(01h)
  3152  0236  1283               	bcf	status, 5	;RP0=0, select bank0
  3153  0237  1303               	bcf	status, 6	;RP1=0, select bank0
  3154  0238  00A9               	movwf	(??_RFM70_Initialize+0)+0
  3155  0239  0829               	movf	(??_RFM70_Initialize+0)+0,w
  3156  023A  07BC               	addwf	(RFM70_Initialize@i),f
  3157                           opt subtitle "HI-TECH Software Omniscient Code Generator (Lite mode) build 49521"
  3158  023B                     l2684:	
  3159  023B  300E               	movlw	(0Eh)
  3160  023C  023C               	subwf	(RFM70_Initialize@i),w
  3161  023D  1C03               	skipc
  3162  023E  2A40               	goto	u1931
  3163  023F  2A41               	goto	u1930
  3164  0240                     u1931:
  3165  0240  29D0               	goto	l358
  3166  0241                     u1930:
  3167                           opt subtitle "HI-TECH Software Omniscient Code Generator (Lite mode) build 49521"
  3168  0241                     l359:	
  3169                           opt subtitle "HI-TECH Software Omniscient Code Generator (Lite mode) build 49521"
  3170                           
  3171                           opt pagewidth 120
  3172  0241  01BD               	clrf	(RFM70_Initialize@j)
  3173                           opt subtitle "HI-TECH Software Omniscient Code Generator (Lite mode) build 49521"
  3174  0242                     l2686:	
  3175  0242  300B               	movlw	(0Bh)
  3176  0243  023D               	subwf	(RFM70_Initialize@j),w
  3177  0244  1C03               	skipc
  3178  0245  2A47               	goto	u1941
  3179  0246  2A48               	goto	u1940
  3180  0247                     u1941:
  3181  0247  2A4A               	goto	l2690
  3182  0248                     u1940:
  3183  0248  2A64               	goto	l2696
  3184                           opt subtitle "HI-TECH Software Omniscient Code Generator (Lite mode) build 49521"
  3185  0249                     l2688:	
  3186  0249  2A64               	goto	l2696
  3187                           opt subtitle "HI-TECH Software Omniscient Code Generator (Lite mode) build 49521"
  3188                           
  3189  024A                     l362:	
  3190                           opt subtitle "HI-TECH Software Omniscient Code Generator (Lite mode) build 49521"
  3191                           
  3192  024A                     l2690:	
  3193                           opt subtitle "HI-TECH Software Omniscient Code Generator (Lite mode) build 49521"
  3194                           
  3195  024A  083D               	movf	(RFM70_Initialize@j),w
  3196  024B  3E67               	addlw	low((_Bank1_Reg14-__stringbase))
  3197  024C  0084               	movwf	fsr0
  3198  024D  120A  158A  2000   	fcall	stringdir
              120A  118A         
  3199  0252  00A9               	movwf	(??_RFM70_Initialize+0)+0
  3200  0253  083D               	movf	(RFM70_Initialize@j),w
  3201  0254  3E30               	addlw	RFM70_Initialize@WriteArr&0ffh
  3202  0255  0084               	movwf	fsr0
  3203  0256  0829               	movf	(??_RFM70_Initialize+0)+0,w
  3204  0257  1383               	bcf	status, 7	;select IRP bank0
  3205  0258  0080               	movwf	indf
  3206                           opt subtitle "HI-TECH Software Omniscient Code Generator (Lite mode) build 49521"
  3207                           
  3208  0259                     l2692:	
  3209  0259  3001               	movlw	(01h)
  3210  025A  00A9               	movwf	(??_RFM70_Initialize+0)+0
  3211  025B  0829               	movf	(??_RFM70_Initialize+0)+0,w
  3212  025C  07BD               	addwf	(RFM70_Initialize@j),f
  3213                           opt subtitle "HI-TECH Software Omniscient Code Generator (Lite mode) build 49521"
  3214  025D                     l2694:	
  3215  025D  300B               	movlw	(0Bh)
  3216  025E  023D               	subwf	(RFM70_Initialize@j),w
  3217  025F  1C03               	skipc
  3218  0260  2A62               	goto	u1951
  3219  0261  2A63               	goto	u1950
  3220  0262                     u1951:
  3221  0262  2A4A               	goto	l2690
  3222  0263                     u1950:
  3223  0263  2A64               	goto	l2696
  3224                           opt subtitle "HI-TECH Software Omniscient Code Generator (Lite mode) build 49521"
  3225  0264                     l363:	
  3226                           opt subtitle "HI-TECH Software Omniscient Code Generator (Lite mode) build 49521"
  3227                           
  3228  0264                     l2696:	
  3229                           opt subtitle "HI-TECH Software Omniscient Code Generator (Lite mode) build 49521"
  3230                           
  3231  0264  3030               	movlw	(RFM70_Initialize@WriteArr)&0ffh
  3232  0265  00A9               	movwf	(??_RFM70_Initialize+0)+0
  3233  0266  0829               	movf	(??_RFM70_Initialize+0)+0,w
  3234  0267  00A3               	movwf	(?_SPI_Write_Buf)
  3235  0268  300B               	movlw	(0Bh)
  3236  0269  00AA               	movwf	(??_RFM70_Initialize+1)+0
  3237  026A  082A               	movf	(??_RFM70_Initialize+1)+0,w
  3238  026B  00A4               	movwf	0+(?_SPI_Write_Buf)+01h
  3239  026C  302E               	movlw	(02Eh)
  3240  026D  120A  158A  22DB   	fcall	_SPI_Write_Buf
              120A  118A         
  3241                           opt subtitle "HI-TECH Software Omniscient Code Generator (Lite mode) build 49521"
  3242                           
  3243  0272                     l2698:	
  3244                           opt subtitle "HI-TECH Software Omniscient Code Generator (Lite mode) build 49521"
  3245  0272  1283               	bcf	status, 5	;RP0=0, select bank0
  3246  0273  1303               	bcf	status, 6	;RP1=0, select bank0
  3247  0274  01BD               	clrf	(RFM70_Initialize@j)
  3248                           opt subtitle "HI-TECH Software Omniscient Code Generator (Lite mode) build 49521"
  3249  0275                     l2700:	
  3250  0275  3004               	movlw	(04h)
  3251  0276  023D               	subwf	(RFM70_Initialize@j),w
  3252  0277  1C03               	skipc
  3253  0278  2A7A               	goto	u1961
  3254  0279  2A7B               	goto	u1960
  3255  027A                     u1961:
  3256  027A  2A7D               	goto	l2704
  3257  027B                     u1960:
  3258  027B  2ABE               	goto	l2710
  3259                           opt subtitle "HI-TECH Software Omniscient Code Generator (Lite mode) build 49521"
  3260  027C                     l2702:	
  3261  027C  2ABE               	goto	l2710
  3262                           opt subtitle "HI-TECH Software Omniscient Code Generator (Lite mode) build 49521"
  3263                           
  3264  027D                     l364:	
  3265                           opt subtitle "HI-TECH Software Omniscient Code Generator (Lite mode) build 49521"
  3266  027D                     l2704:	
  3267                           opt subtitle "HI-TECH Software Omniscient Code Generator (Lite mode) build 49521"
  3268  027D  3011               	movlw	(_Bank1_Reg0_13-__stringbase)+010h
  3269  027E  0084               	movwf	fsr0
  3270  027F  120A  158A  2000   	fcall	stringdir
              120A  118A         
  3271  0284  00A9               	movwf	((??_RFM70_Initialize+0)+0)
  3272  0285  120A  158A  2000   	fcall	stringdir
              120A  118A         
  3273  028A  00AA               	movwf	((??_RFM70_Initialize+0)+0+1)
  3274  028B  120A  158A  2000   	fcall	stringdir
              120A  118A         
  3275  0290  00AB               	movwf	((??_RFM70_Initialize+0)+0+2)
  3276  0291  120A  158A  2000   	fcall	stringdir
              120A  118A         
  3277  0296  00AC               	movwf	((??_RFM70_Initialize+0)+0+3)
  3278  0297  083D               	movf	(RFM70_Initialize@j),w
  3279  0298  00AD               	movwf	(??_RFM70_Initialize+4)+0
  3280  0299  3002               	movlw	(03h)-1
  3281  029A                     u1975:
  3282  029A  1003               	clrc
  3283  029B  0DAD               	rlf	(??_RFM70_Initialize+4)+0,f
  3284  029C  3EFF               	addlw	-1
  3285  029D  1D03               	skipz
  3286  029E  2A9A               	goto	u1975
  3287  029F  1003               	clrc
  3288  02A0  0D2D               	rlf	(??_RFM70_Initialize+4)+0,w
  3289  02A1  3E01               	addlw	1
  3290  02A2  2AA8               	goto	u1980
  3291  02A3                     u1985:
  3292  02A3  1003               	clrc
  3293  02A4  0CAC               	rrf	(??_RFM70_Initialize+0)+3,f
  3294  02A5  0CAB               	rrf	(??_RFM70_Initialize+0)+2,f
  3295  02A6  0CAA               	rrf	(??_RFM70_Initialize+0)+1,f
  3296  02A7  0CA9               	rrf	(??_RFM70_Initialize+0)+0,f
  3297  02A8                     u1980:
  3298  02A8  3EFF               	addlw	-1
  3299  02A9  1D03               	skipz
  3300  02AA  2AA3               	goto	u1985
  3301  02AB  0829               	movf	0+(??_RFM70_Initialize+0)+0,w
  3302  02AC  00AE               	movwf	(??_RFM70_Initialize+5)+0
  3303  02AD  083D               	movf	(RFM70_Initialize@j),w
  3304  02AE  3E30               	addlw	RFM70_Initialize@WriteArr&0ffh
  3305  02AF  0084               	movwf	fsr0
  3306  02B0  082E               	movf	(??_RFM70_Initialize+5)+0,w
  3307  02B1  1383               	bcf	status, 7	;select IRP bank0
  3308  02B2  0080               	movwf	indf
  3309                           opt subtitle "HI-TECH Software Omniscient Code Generator (Lite mode) build 49521"
  3310                           
  3311  02B3                     l2706:	
  3312  02B3  3001               	movlw	(01h)
  3313  02B4  00A9               	movwf	(??_RFM70_Initialize+0)+0
  3314  02B5  0829               	movf	(??_RFM70_Initialize+0)+0,w
  3315  02B6  07BD               	addwf	(RFM70_Initialize@j),f
  3316                           opt subtitle "HI-TECH Software Omniscient Code Generator (Lite mode) build 49521"
  3317  02B7                     l2708:	
  3318  02B7  3004               	movlw	(04h)
  3319  02B8  023D               	subwf	(RFM70_Initialize@j),w
  3320  02B9  1C03               	skipc
  3321  02BA  2ABC               	goto	u1991
  3322  02BB  2ABD               	goto	u1990
  3323  02BC                     u1991:
  3324  02BC  2A7D               	goto	l2704
  3325  02BD                     u1990:
  3326  02BD  2ABE               	goto	l2710
  3327                           opt subtitle "HI-TECH Software Omniscient Code Generator (Lite mode) build 49521"
  3328  02BE                     l365:	
  3329                           opt subtitle "HI-TECH Software Omniscient Code Generator (Lite mode) build 49521"
  3330                           
  3331  02BE                     l2710:	
  3332                           opt subtitle "HI-TECH Software Omniscient Code Generator (Lite mode) build 49521"
  3333  02BE  0830               	movf	(RFM70_Initialize@WriteArr),w
  3334  02BF  3806               	iorlw	06h
  3335  02C0  00A9               	movwf	(??_RFM70_Initialize+0)+0
  3336  02C1  0829               	movf	(??_RFM70_Initialize+0)+0,w
  3337  02C2  00B0               	movwf	(RFM70_Initialize@WriteArr)
  3338                           opt subtitle "HI-TECH Software Omniscient Code Generator (Lite mode) build 49521"
  3339                           
  3340  02C3                     l2712:	
  3341                           opt subtitle "HI-TECH Software Omniscient Code Generator (Lite mode) build 49521"
  3342  02C3  3030               	movlw	(RFM70_Initialize@WriteArr)&0ffh
  3343  02C4  00A9               	movwf	(??_RFM70_Initialize+0)+0
  3344  02C5  0829               	movf	(??_RFM70_Initialize+0)+0,w
  3345  02C6  00A3               	movwf	(?_SPI_Write_Buf)
  3346  02C7  3004               	movlw	(04h)
  3347  02C8  00AA               	movwf	(??_RFM70_Initialize+1)+0
  3348  02C9  082A               	movf	(??_RFM70_Initialize+1)+0,w
  3349  02CA  00A4               	movwf	0+(?_SPI_Write_Buf)+01h
  3350  02CB  3024               	movlw	(024h)
  3351  02CC  120A  158A  22DB   	fcall	_SPI_Write_Buf
              120A  118A         
  3352                           opt subtitle "HI-TECH Software Omniscient Code Generator (Lite mode) build 49521"
  3353                           
  3354  02D1                     l2714:	
  3355                           opt subtitle "HI-TECH Software Omniscient Code Generator (Lite mode) build 49521"
  3356  02D1  1283               	bcf	status, 5	;RP0=0, select bank0
  3357  02D2  1303               	bcf	status, 6	;RP1=0, select bank0
  3358  02D3  0830               	movf	(RFM70_Initialize@WriteArr),w
  3359  02D4  39F9               	andlw	0F9h
  3360  02D5  00A9               	movwf	(??_RFM70_Initialize+0)+0
  3361  02D6  0829               	movf	(??_RFM70_Initialize+0)+0,w
  3362  02D7  00B0               	movwf	(RFM70_Initialize@WriteArr)
  3363                           opt subtitle "HI-TECH Software Omniscient Code Generator (Lite mode) build 49521"
  3364                           
  3365  02D8  3030               	movlw	(RFM70_Initialize@WriteArr)&0ffh
  3366  02D9  00A9               	movwf	(??_RFM70_Initialize+0)+0
  3367  02DA  0829               	movf	(??_RFM70_Initialize+0)+0,w
  3368  02DB  00A3               	movwf	(?_SPI_Write_Buf)
  3369  02DC  3004               	movlw	(04h)
  3370  02DD  00AA               	movwf	(??_RFM70_Initialize+1)+0
  3371  02DE  082A               	movf	(??_RFM70_Initialize+1)+0,w
  3372  02DF  00A4               	movwf	0+(?_SPI_Write_Buf)+01h
  3373  02E0  3024               	movlw	(024h)
  3374  02E1  120A  158A  22DB   	fcall	_SPI_Write_Buf
              120A  118A         
  3375                           opt subtitle "HI-TECH Software Omniscient Code Generator (Lite mode) build 49521"
  3376                           
  3377  02E6                     l2716:	
  3378                           opt subtitle "HI-TECH Software Omniscient Code Generator (Lite mode) build 49521"
  3379                           
  3380  02E6  3082               movlw	130
  3381  02E7  1283               	bcf	status, 5	;RP0=0, select bank0
  3382  02E8  1303               	bcf	status, 6	;RP1=0, select bank0
  3383  02E9  00AA               movwf	((??_RFM70_Initialize+0)+0+1),f
  3384  02EA  30DD               	movlw	221
  3385  02EB  00A9               movwf	((??_RFM70_Initialize+0)+0),f
  3386  02EC                     u2927:
  3387  02EC  0BA9               	decfsz	((??_RFM70_Initialize+0)+0),f
  3388  02ED  2AEC               	goto	u2927
  3389  02EE  0BAA               	decfsz	((??_RFM70_Initialize+0)+0+1),f
  3390  02EF  2AEC               	goto	u2927
  3391  02F0  2AF1               	nop2
  3392                           opt subtitle "HI-TECH Software Omniscient Code Generator (Lite mode) build 49521"
  3393                           
  3394                           opt pagewidth 120
  3395                           
  3396  02F1                     l2718:	
  3397                           opt subtitle "HI-TECH Software Omniscient Code Generator (Lite mode) build 49521"
  3398  02F1  3000               	movlw	(0)
  3399  02F2  120A  158A  235B   	fcall	_SwitchCFG
              120A  118A         
  3400                           opt subtitle "HI-TECH Software Omniscient Code Generator (Lite mode) build 49521"
  3401                           
  3402  02F7                     l2720:	
  3403                           opt subtitle "HI-TECH Software Omniscient Code Generator (Lite mode) build 49521"
  3404  02F7  1283               	bcf	status, 5	;RP0=0, select bank0
  3405  02F8  1303               	bcf	status, 6	;RP1=0, select bank0
  3406  02F9  1107               	bcf	(7),2	;volatile
  3407                           opt subtitle "HI-TECH Software Omniscient Code Generator (Lite mode) build 49521"
  3408                           
  3409  02FA                     l366:	
  3410  02FA  0008               	return
  3411                           opt subtitle "HI-TECH Software Omniscient Code Generator (Lite mode) build 49521"
  3412                           
  3413  02FB                     	__end_of_RFM70_Initialize:
  3414                           opt subtitle "HI-TECH Software Omniscient Code Generator (Lite mode) build 49521"
  3415                           
  3416                           opt pagewidth 120
  3417                           
  3418                           	opt lm
  3419                           
  3420                           	processor	16LF707
  3421                           clrc	macro
  3422                           	bcf	3,0
  3423                           	endm
  3424                           clrz	macro
  3425                           	bcf	3,2
  3426                           	endm
  3427                           setc	macro
  3428                           	bsf	3,0
  3429                           	endm
  3430                           setz	macro
  3431                           	bsf	3,2
  3432                           	endm
  3433                           skipc	macro
  3434                           	btfss	3,0
  3435                           	endm
  3436                           skipz	macro
  3437                           	btfss	3,2
  3438                           	endm
  3439                           skipnc	macro
  3440                           	btfsc	3,0
  3441                           	endm
  3442                           skipnz	macro
  3443                           	btfsc	3,2
  3444                           	endm
  3445                           indf	equ	0
  3446                           indf0	equ	0
  3447                           pc	equ	2
  3448  0BF8                     __ptext676:	;psect for function _adcReadVsupercap
  3449                           opt subtitle "HI-TECH Software Omniscient Code Generator (Lite mode) build 49521"
  3450                           
  3451                           opt pagewidth 120
  3452                           
  3453  0038                     	__size_of_adcReadVsupercap	equ	__end_of_adcReadVsupercap-_adcReadVsupercap
  3454                           opt subtitle "HI-TECH Software Omniscient Code Generator (Lite mode) build 49521"
  3455  0BF8                     _adcReadVsupercap:	
  3456                           opt subtitle "HI-TECH Software Omniscient Code Generator (Lite mode) build 49521"
  3457                           
  3458                           opt pagewidth 120
  3459                           
  3460  0BF8                     l2552:	
  3461                           opt subtitle "HI-TECH Software Omniscient Code Generator (Lite mode) build 49521"
  3462                           
  3463  0BF8  1683               	bsf	status, 5	;RP0=1, select bank1
  3464  0BF9  1303               	bcf	status, 6	;RP1=0, select bank1
  3465  0BFA  171D               	bsf	(157)^080h,6	;volatile
  3466                           opt subtitle "HI-TECH Software Omniscient Code Generator (Lite mode) build 49521"
  3467                           
  3468  0BFB                     l2554:	
  3469                           opt subtitle "HI-TECH Software Omniscient Code Generator (Lite mode) build 49521"
  3470  0BFB  1283               	bcf	status, 5	;RP0=0, select bank0
  3471  0BFC  1303               	bcf	status, 6	;RP1=0, select bank0
  3472  0BFD  081F               	movf	(31),w	;volatile
  3473  0BFE  39C3               	andlw	not (((1<<4)-1)<<2)
  3474  0BFF  3818               	iorlw	(06h & ((1<<4)-1))<<2
  3475  0C00  009F               	movwf	(31)	;volatile
  3476                           opt subtitle "HI-TECH Software Omniscient Code Generator (Lite mode) build 49521"
  3477                           
  3478  0C01  1683               	bsf	status, 5	;RP0=1, select bank1
  3479  0C02  1303               	bcf	status, 6	;RP1=0, select bank1
  3480  0C03  081D               	movf	(157)^080h,w	;volatile
  3481  0C04  39FC               	andlw	not (((1<<2)-1)<<0)
  3482  0C05  3801               	iorlw	(01h & ((1<<2)-1))<<0
  3483  0C06  009D               	movwf	(157)^080h	;volatile
  3484                           opt subtitle "HI-TECH Software Omniscient Code Generator (Lite mode) build 49521"
  3485                           
  3486  0C07  2C08               	goto	l220
  3487                           opt subtitle "HI-TECH Software Omniscient Code Generator (Lite mode) build 49521"
  3488  0C08                     l221:	
  3489                           opt subtitle "HI-TECH Software Omniscient Code Generator (Lite mode) build 49521"
  3490  0C08                     l220:	
  3491  0C08  1F9D               	btfss	(157)^080h,7	;volatile
  3492  0C09  2C0B               	goto	u1671
  3493  0C0A  2C0C               	goto	u1670
  3494  0C0B                     u1671:
  3495  0C0B  2C08               	goto	l220
  3496  0C0C                     u1670:
  3497                           opt subtitle "HI-TECH Software Omniscient Code Generator (Lite mode) build 49521"
  3498  0C0C                     l222:	
  3499                           opt subtitle "HI-TECH Software Omniscient Code Generator (Lite mode) build 49521"
  3500                           
  3501  0C0C  1283               	bcf	status, 5	;RP0=0, select bank0
  3502  0C0D  1303               	bcf	status, 6	;RP1=0, select bank0
  3503  0C0E  141F               	bsf	(31),0	;volatile
  3504                           opt subtitle "HI-TECH Software Omniscient Code Generator (Lite mode) build 49521"
  3505                           
  3506  0C0F  1608               	bsf	(8),4	;volatile
  3507                           opt subtitle "HI-TECH Software Omniscient Code Generator (Lite mode) build 49521"
  3508                           
  3509  0C10                     l2556:	
  3510                           opt subtitle "HI-TECH Software Omniscient Code Generator (Lite mode) build 49521"
  3511                           
  3512  0C10  3003               movlw	3
  3513  0C11  00A1               movwf	((??_adcReadVsupercap+0)+0+1),f
  3514  0C12  3097               	movlw	151
  3515  0C13  00A0               movwf	((??_adcReadVsupercap+0)+0),f
  3516  0C14                     u2937:
  3517  0C14  0BA0               	decfsz	((??_adcReadVsupercap+0)+0),f
  3518  0C15  2C14               	goto	u2937
  3519  0C16  0BA1               	decfsz	((??_adcReadVsupercap+0)+0+1),f
  3520  0C17  2C14               	goto	u2937
  3521  0C18  2C19               	nop2
  3522                           opt subtitle "HI-TECH Software Omniscient Code Generator (Lite mode) build 49521"
  3523                           
  3524                           opt pagewidth 120
  3525                           
  3526  0C19                     l2558:	
  3527                           opt subtitle "HI-TECH Software Omniscient Code Generator (Lite mode) build 49521"
  3528  0C19  1283               	bcf	status, 5	;RP0=0, select bank0
  3529  0C1A  1303               	bcf	status, 6	;RP1=0, select bank0
  3530  0C1B  149F               	bsf	(31),1	;volatile
  3531                           opt subtitle "HI-TECH Software Omniscient Code Generator (Lite mode) build 49521"
  3532                           
  3533  0C1C  2C1D               	goto	l223
  3534                           opt subtitle "HI-TECH Software Omniscient Code Generator (Lite mode) build 49521"
  3535  0C1D                     l224:	
  3536                           opt subtitle "HI-TECH Software Omniscient Code Generator (Lite mode) build 49521"
  3537  0C1D                     l223:	
  3538  0C1D  189F               	btfsc	(31),1	;volatile
  3539  0C1E  2C20               	goto	u1681
  3540  0C1F  2C21               	goto	u1680
  3541  0C20                     u1681:
  3542  0C20  2C1D               	goto	l223
  3543  0C21                     u1680:
  3544  0C21  2C22               	goto	l2560
  3545                           opt subtitle "HI-TECH Software Omniscient Code Generator (Lite mode) build 49521"
  3546  0C22                     l225:	
  3547                           opt subtitle "HI-TECH Software Omniscient Code Generator (Lite mode) build 49521"
  3548                           
  3549  0C22                     l2560:	
  3550                           opt subtitle "HI-TECH Software Omniscient Code Generator (Lite mode) build 49521"
  3551  0C22  081E               	movf	(30),w	;volatile
  3552  0C23  00A0               	movwf	(??_adcReadVsupercap+0)+0
  3553  0C24  0820               	movf	(??_adcReadVsupercap+0)+0,w
  3554  0C25  00A2               	movwf	(adcReadVsupercap@value)
  3555                           opt subtitle "HI-TECH Software Omniscient Code Generator (Lite mode) build 49521"
  3556                           
  3557  0C26                     l2562:	
  3558                           opt subtitle "HI-TECH Software Omniscient Code Generator (Lite mode) build 49521"
  3559  0C26  101F               	bcf	(31),0	;volatile
  3560                           opt subtitle "HI-TECH Software Omniscient Code Generator (Lite mode) build 49521"
  3561                           
  3562  0C27                     l2564:	
  3563                           opt subtitle "HI-TECH Software Omniscient Code Generator (Lite mode) build 49521"
  3564  0C27  1208               	bcf	(8),4	;volatile
  3565                           opt subtitle "HI-TECH Software Omniscient Code Generator (Lite mode) build 49521"
  3566                           
  3567  0C28                     l2566:	
  3568                           opt subtitle "HI-TECH Software Omniscient Code Generator (Lite mode) build 49521"
  3569  0C28  1683               	bsf	status, 5	;RP0=1, select bank1
  3570  0C29  1303               	bcf	status, 6	;RP1=0, select bank1
  3571  0C2A  131D               	bcf	(157)^080h,6	;volatile
  3572                           opt subtitle "HI-TECH Software Omniscient Code Generator (Lite mode) build 49521"
  3573                           
  3574  0C2B  1283               	bcf	status, 5	;RP0=0, select bank0
  3575  0C2C  1303               	bcf	status, 6	;RP1=0, select bank0
  3576  0C2D  0822               	movf	(adcReadVsupercap@value),w
  3577  0C2E  2C2F               	goto	l226
  3578                           opt subtitle "HI-TECH Software Omniscient Code Generator (Lite mode) build 49521"
  3579  0C2F                     l2568:	
  3580                           opt subtitle "HI-TECH Software Omniscient Code Generator (Lite mode) build 49521"
  3581                           
  3582  0C2F                     l226:	
  3583  0C2F  0008               	return
  3584                           opt subtitle "HI-TECH Software Omniscient Code Generator (Lite mode) build 49521"
  3585                           
  3586  0C30                     	__end_of_adcReadVsupercap:
  3587                           opt subtitle "HI-TECH Software Omniscient Code Generator (Lite mode) build 49521"
  3588                           
  3589                           opt pagewidth 120
  3590                           
  3591                           	opt lm
  3592                           
  3593                           	processor	16LF707
  3594                           clrc	macro
  3595                           	bcf	3,0
  3596                           	endm
  3597                           clrz	macro
  3598                           	bcf	3,2
  3599                           	endm
  3600                           setc	macro
  3601                           	bsf	3,0
  3602                           	endm
  3603                           setz	macro
  3604                           	bsf	3,2
  3605                           	endm
  3606                           skipc	macro
  3607                           	btfss	3,0
  3608                           	endm
  3609                           skipz	macro
  3610                           	btfss	3,2
  3611                           	endm
  3612                           skipnc	macro
  3613                           	btfsc	3,0
  3614                           	endm
  3615                           skipnz	macro
  3616                           	btfsc	3,2
  3617                           	endm
  3618                           indf	equ	0
  3619                           indf0	equ	0
  3620                           pc	equ	2
  3621                           pcl	equ	2
  3622                           status	equ	3
  3623  0AB6                     __ptext677:	;psect for function _rfm70setPowerdownMode
  3624                           opt subtitle "HI-TECH Software Omniscient Code Generator (Lite mode) build 49521"
  3625                           
  3626                           opt pagewidth 120
  3627                           
  3628  0025                     	__size_of_rfm70setPowerdownMode	equ	__end_of_rfm70setPowerdownMode-_rfm70setPowerdownMo
                                 de
  3629                           opt subtitle "HI-TECH Software Omniscient Code Generator (Lite mode) build 49521"
  3630  0AB6                     _rfm70setPowerdownMode:	
  3631                           opt subtitle "HI-TECH Software Omniscient Code Generator (Lite mode) build 49521"
  3632                           
  3633                           opt pagewidth 120
  3634                           
  3635  0AB6  1283               	bcf	status, 5	;RP0=0, select bank0
  3636  0AB7  1303               	bcf	status, 6	;RP1=0, select bank0
  3637  0AB8  00A7               	movwf	(rfm70setPowerdownMode@value)
  3638                           opt subtitle "HI-TECH Software Omniscient Code Generator (Lite mode) build 49521"
  3639  0AB9                     l2522:	
  3640                           opt subtitle "HI-TECH Software Omniscient Code Generator (Lite mode) build 49521"
  3641                           
  3642  0AB9  3000               	movlw	(0)
  3643  0ABA  120A  158A  223E   	fcall	_SPI_Read_Reg
              120A  158A         
  3644  0ABF  1283               	bcf	status, 5	;RP0=0, select bank0
  3645  0AC0  1303               	bcf	status, 6	;RP1=0, select bank0
  3646  0AC1  00A6               	movwf	(??_rfm70setPowerdownMode+0)+0
  3647  0AC2  0826               	movf	(??_rfm70setPowerdownMode+0)+0,w
  3648  0AC3  00A8               	movwf	(rfm70setPowerdownMode@reg)
  3649                           opt subtitle "HI-TECH Software Omniscient Code Generator (Lite mode) build 49521"
  3650                           
  3651  0AC4                     l2524:	
  3652                           opt subtitle "HI-TECH Software Omniscient Code Generator (Lite mode) build 49521"
  3653  0AC4  08A7               	movf	(rfm70setPowerdownMode@value),f
  3654  0AC5  1D03               	skipz
  3655  0AC6  2AC8               	goto	u1651
  3656  0AC7  2AC9               	goto	u1650
  3657  0AC8                     u1651:
  3658  0AC8  2ACE               	goto	l389
  3659  0AC9                     u1650:
  3660                           opt subtitle "HI-TECH Software Omniscient Code Generator (Lite mode) build 49521"
  3661                           
  3662  0AC9                     l2526:	
  3663                           opt subtitle "HI-TECH Software Omniscient Code Generator (Lite mode) build 49521"
  3664  0AC9  30FD               	movlw	(0FDh)
  3665  0ACA  00A6               	movwf	(??_rfm70setPowerdownMode+0)+0
  3666  0ACB  0826               	movf	(??_rfm70setPowerdownMode+0)+0,w
  3667  0ACC  05A8               	andwf	(rfm70setPowerdownMode@reg),f
  3668                           opt subtitle "HI-TECH Software Omniscient Code Generator (Lite mode) build 49521"
  3669                           
  3670  0ACD  2AD0               	goto	l2528
  3671                           opt subtitle "HI-TECH Software Omniscient Code Generator (Lite mode) build 49521"
  3672                           
  3673  0ACE                     l389:	
  3674                           opt subtitle "HI-TECH Software Omniscient Code Generator (Lite mode) build 49521"
  3675                           
  3676                           opt pagewidth 120
  3677  0ACE  14A8               	bsf	(rfm70setPowerdownMode@reg)+(1/8),(1)&7
  3678  0ACF  2AD0               	goto	l2528
  3679                           opt subtitle "HI-TECH Software Omniscient Code Generator (Lite mode) build 49521"
  3680                           
  3681  0AD0                     l390:	
  3682                           opt subtitle "HI-TECH Software Omniscient Code Generator (Lite mode) build 49521"
  3683                           
  3684  0AD0                     l2528:	
  3685                           opt subtitle "HI-TECH Software Omniscient Code Generator (Lite mode) build 49521"
  3686                           
  3687  0AD0  0828               	movf	(rfm70setPowerdownMode@reg),w
  3688  0AD1  00A6               	movwf	(??_rfm70setPowerdownMode+0)+0
  3689  0AD2  0826               	movf	(??_rfm70setPowerdownMode+0)+0,w
  3690  0AD3  00A3               	movwf	(?_SPI_Write_Reg)
  3691  0AD4  3020               	movlw	(020h)
  3692  0AD5  120A  158A  21E1   	fcall	_SPI_Write_Reg
              120A  158A         
  3693                           opt subtitle "HI-TECH Software Omniscient Code Generator (Lite mode) build 49521"
  3694                           
  3695  0ADA                     l391:	
  3696  0ADA  0008               	return
  3697                           opt subtitle "HI-TECH Software Omniscient Code Generator (Lite mode) build 49521"
  3698                           
  3699  0ADB                     	__end_of_rfm70setPowerdownMode:
  3700                           opt subtitle "HI-TECH Software Omniscient Code Generator (Lite mode) build 49521"
  3701                           
  3702                           opt pagewidth 120
  3703                           
  3704                           	opt lm
  3705                           
  3706                           	processor	16LF707
  3707                           clrc	macro
  3708                           	bcf	3,0
  3709                           	endm
  3710                           clrz	macro
  3711                           	bcf	3,2
  3712                           	endm
  3713                           setc	macro
  3714                           	bsf	3,0
  3715                           	endm
  3716                           setz	macro
  3717                           	bsf	3,2
  3718                           	endm
  3719                           skipc	macro
  3720                           	btfss	3,0
  3721                           	endm
  3722                           skipz	macro
  3723                           	btfss	3,2
  3724                           	endm
  3725                           skipnc	macro
  3726                           	btfsc	3,0
  3727                           	endm
  3728                           skipnz	macro
  3729                           	btfsc	3,2
  3730                           	endm
  3731                           indf	equ	0
  3732                           indf0	equ	0
  3733                           pc	equ	2
  3734  09B8                     __ptext678:	;psect for function _adcInit
  3735                           opt subtitle "HI-TECH Software Omniscient Code Generator (Lite mode) build 49521"
  3736                           
  3737                           opt pagewidth 120
  3738                           
  3739  0009                     	__size_of_adcInit	equ	__end_of_adcInit-_adcInit
  3740                           opt subtitle "HI-TECH Software Omniscient Code Generator (Lite mode) build 49521"
  3741  09B8                     _adcInit:	
  3742                           opt subtitle "HI-TECH Software Omniscient Code Generator (Lite mode) build 49521"
  3743                           
  3744                           opt pagewidth 120
  3745                           
  3746  09B8                     l2520:	
  3747                           opt subtitle "HI-TECH Software Omniscient Code Generator (Lite mode) build 49521"
  3748  09B8  1683               	bsf	status, 5	;RP0=1, select bank1
  3749  09B9  1303               	bcf	status, 6	;RP1=0, select bank1
  3750  09BA  081F               	movf	(159)^080h,w	;volatile
  3751  09BB  398F               	andlw	not (((1<<3)-1)<<4)
  3752  09BC  3810               	iorlw	(01h & ((1<<3)-1))<<4
  3753  09BD  009F               	movwf	(159)^080h	;volatile
  3754                           opt subtitle "HI-TECH Software Omniscient Code Generator (Lite mode) build 49521"
  3755                           
  3756  09BE  3003               	movlw	(03h & ((1<<2)-1))<<0
  3757  09BF  049F               	iorwf	(159)^080h,f	;volatile
  3758                           opt subtitle "HI-TECH Software Omniscient Code Generator (Lite mode) build 49521"
  3759                           
  3760  09C0                     l235:	
  3761  09C0  0008               	return
  3762                           opt subtitle "HI-TECH Software Omniscient Code Generator (Lite mode) build 49521"
  3763                           
  3764  09C1                     	__end_of_adcInit:
  3765                           opt subtitle "HI-TECH Software Omniscient Code Generator (Lite mode) build 49521"
  3766                           
  3767                           opt pagewidth 120
  3768                           
  3769                           	opt lm
  3770                           
  3771                           	processor	16LF707
  3772                           clrc	macro
  3773                           	bcf	3,0
  3774                           	endm
  3775                           clrz	macro
  3776                           	bcf	3,2
  3777                           	endm
  3778                           setc	macro
  3779                           	bsf	3,0
  3780                           	endm
  3781                           setz	macro
  3782                           	bsf	3,2
  3783                           	endm
  3784                           skipc	macro
  3785                           	btfss	3,0
  3786                           	endm
  3787                           skipz	macro
  3788                           	btfss	3,2
  3789                           	endm
  3790                           skipnc	macro
  3791                           	btfsc	3,0
  3792                           	endm
  3793                           skipnz	macro
  3794                           	btfsc	3,2
  3795                           	endm
  3796                           indf	equ	0
  3797                           indf0	equ	0
  3798                           pc	equ	2
  3799  09F7                     __ptext679:	;psect for function _uartInit
  3800                           opt subtitle "HI-TECH Software Omniscient Code Generator (Lite mode) build 49521"
  3801                           
  3802                           opt pagewidth 120
  3803                           
  3804  0016                     	__size_of_uartInit	equ	__end_of_uartInit-_uartInit
  3805                           opt subtitle "HI-TECH Software Omniscient Code Generator (Lite mode) build 49521"
  3806  09F7                     _uartInit:	
  3807                           opt subtitle "HI-TECH Software Omniscient Code Generator (Lite mode) build 49521"
  3808                           
  3809                           opt pagewidth 120
  3810                           
  3811  09F7                     l2504:	
  3812                           opt subtitle "HI-TECH Software Omniscient Code Generator (Lite mode) build 49521"
  3813  09F7  1683               	bsf	status, 5	;RP0=1, select bank1
  3814  09F8  1303               	bcf	status, 6	;RP1=0, select bank1
  3815  09F9  1787               	bsf	(135)^080h,7	;volatile
  3816                           opt subtitle "HI-TECH Software Omniscient Code Generator (Lite mode) build 49521"
  3817                           
  3818  09FA  1307               	bcf	(135)^080h,6	;volatile
  3819                           opt subtitle "HI-TECH Software Omniscient Code Generator (Lite mode) build 49521"
  3820                           
  3821  09FB                     l2506:	
  3822                           opt subtitle "HI-TECH Software Omniscient Code Generator (Lite mode) build 49521"
  3823  09FB  3002               	movlw	(02h)
  3824  09FC  0098               	movwf	(152)^080h	;volatile
  3825                           opt subtitle "HI-TECH Software Omniscient Code Generator (Lite mode) build 49521"
  3826                           
  3827  09FD                     l2508:	
  3828                           opt subtitle "HI-TECH Software Omniscient Code Generator (Lite mode) build 49521"
  3829  09FD  1283               	bcf	status, 5	;RP0=0, select bank0
  3830  09FE  1303               	bcf	status, 6	;RP1=0, select bank0
  3831  09FF  0198               	clrf	(24)	;volatile
  3832                           opt subtitle "HI-TECH Software Omniscient Code Generator (Lite mode) build 49521"
  3833                           
  3834  0A00                     l2510:	
  3835                           opt subtitle "HI-TECH Software Omniscient Code Generator (Lite mode) build 49521"
  3836  0A00  1683               	bsf	status, 5	;RP0=1, select bank1
  3837  0A01  1303               	bcf	status, 6	;RP1=0, select bank1
  3838  0A02  1118               	bcf	(152)^080h,2	;volatile
  3839                           opt subtitle "HI-TECH Software Omniscient Code Generator (Lite mode) build 49521"
  3840                           
  3841  0A03                     l2512:	
  3842                           opt subtitle "HI-TECH Software Omniscient Code Generator (Lite mode) build 49521"
  3843  0A03  1218               	bcf	(152)^080h,4	;volatile
  3844                           opt subtitle "HI-TECH Software Omniscient Code Generator (Lite mode) build 49521"
  3845                           
  3846  0A04                     l2514:	
  3847                           opt subtitle "HI-TECH Software Omniscient Code Generator (Lite mode) build 49521"
  3848  0A04  300C               	movlw	(0Ch)
  3849  0A05  0099               	movwf	(153)^080h	;volatile
  3850                           opt subtitle "HI-TECH Software Omniscient Code Generator (Lite mode) build 49521"
  3851                           
  3852  0A06                     l2516:	
  3853                           opt subtitle "HI-TECH Software Omniscient Code Generator (Lite mode) build 49521"
  3854  0A06  1283               	bcf	status, 5	;RP0=0, select bank0
  3855  0A07  1303               	bcf	status, 6	;RP1=0, select bank0
  3856  0A08  1798               	bsf	(24),7	;volatile
  3857                           opt subtitle "HI-TECH Software Omniscient Code Generator (Lite mode) build 49521"
  3858                           
  3859  0A09                     l2518:	
  3860                           opt subtitle "HI-TECH Software Omniscient Code Generator (Lite mode) build 49521"
  3861  0A09  1683               	bsf	status, 5	;RP0=1, select bank1
  3862  0A0A  1303               	bcf	status, 6	;RP1=0, select bank1
  3863  0A0B  1698               	bsf	(152)^080h,5	;volatile
  3864                           opt subtitle "HI-TECH Software Omniscient Code Generator (Lite mode) build 49521"
  3865                           
  3866  0A0C                     l229:	
  3867  0A0C  0008               	return
  3868                           opt subtitle "HI-TECH Software Omniscient Code Generator (Lite mode) build 49521"
  3869                           
  3870  0A0D                     	__end_of_uartInit:
  3871                           opt subtitle "HI-TECH Software Omniscient Code Generator (Lite mode) build 49521"
  3872                           
  3873                           opt pagewidth 120
  3874                           
  3875                           	opt lm
  3876                           
  3877                           	processor	16LF707
  3878                           clrc	macro
  3879                           	bcf	3,0
  3880                           	endm
  3881                           clrz	macro
  3882                           	bcf	3,2
  3883                           	endm
  3884                           setc	macro
  3885                           	bsf	3,0
  3886                           	endm
  3887                           setz	macro
  3888                           	bsf	3,2
  3889                           	endm
  3890                           skipc	macro
  3891                           	btfss	3,0
  3892                           	endm
  3893                           skipz	macro
  3894                           	btfss	3,2
  3895                           	endm
  3896                           skipnc	macro
  3897                           	btfsc	3,0
  3898                           	endm
  3899                           skipnz	macro
  3900                           	btfsc	3,2
  3901                           	endm
  3902                           indf	equ	0
  3903                           indf0	equ	0
  3904                           pc	equ	2
  3905  0A0D                     __ptext680:	;psect for function _spiInit
  3906                           opt subtitle "HI-TECH Software Omniscient Code Generator (Lite mode) build 49521"
  3907                           
  3908                           opt pagewidth 120
  3909                           
  3910  0018                     	__size_of_spiInit	equ	__end_of_spiInit-_spiInit
  3911                           opt subtitle "HI-TECH Software Omniscient Code Generator (Lite mode) build 49521"
  3912  0A0D                     _spiInit:	
  3913                           opt subtitle "HI-TECH Software Omniscient Code Generator (Lite mode) build 49521"
  3914                           
  3915                           opt pagewidth 120
  3916                           
  3917  0A0D                     l2494:	
  3918                           opt subtitle "HI-TECH Software Omniscient Code Generator (Lite mode) build 49521"
  3919  0A0D  1283               	bcf	status, 5	;RP0=0, select bank0
  3920  0A0E  1303               	bcf	status, 6	;RP1=0, select bank0
  3921  0A0F  1694               	bsf	(20),5	;volatile
  3922                           opt subtitle "HI-TECH Software Omniscient Code Generator (Lite mode) build 49521"
  3923                           
  3924  0A10  1214               	bcf	(20),4	;volatile
  3925                           opt subtitle "HI-TECH Software Omniscient Code Generator (Lite mode) build 49521"
  3926                           
  3927  0A11                     l2496:	
  3928                           opt subtitle "HI-TECH Software Omniscient Code Generator (Lite mode) build 49521"
  3929  0A11  0814               	movf	(20),w	;volatile
  3930  0A12  39F0               	andlw	not (((1<<4)-1)<<0)
  3931  0A13  3802               	iorlw	(02h & ((1<<4)-1))<<0
  3932  0A14  0094               	movwf	(20)	;volatile
  3933                           opt subtitle "HI-TECH Software Omniscient Code Generator (Lite mode) build 49521"
  3934                           
  3935  0A15                     l2498:	
  3936                           opt subtitle "HI-TECH Software Omniscient Code Generator (Lite mode) build 49521"
  3937  0A15  1683               	bsf	status, 5	;RP0=1, select bank1
  3938  0A16  1303               	bcf	status, 6	;RP1=0, select bank1
  3939  0A17  1394               	bcf	(148)^080h,7	;volatile
  3940                           opt subtitle "HI-TECH Software Omniscient Code Generator (Lite mode) build 49521"
  3941                           
  3942  0A18                     l2500:	
  3943                           opt subtitle "HI-TECH Software Omniscient Code Generator (Lite mode) build 49521"
  3944  0A18  1714               	bsf	(148)^080h,6	;volatile
  3945                           opt subtitle "HI-TECH Software Omniscient Code Generator (Lite mode) build 49521"
  3946                           
  3947  0A19                     l2502:	
  3948                           opt subtitle "HI-TECH Software Omniscient Code Generator (Lite mode) build 49521"
  3949                           
  3950  0A19  3082               movlw	130
  3951  0A1A  1283               	bcf	status, 5	;RP0=0, select bank0
  3952  0A1B  1303               	bcf	status, 6	;RP1=0, select bank0
  3953  0A1C  00A1               movwf	((??_spiInit+0)+0+1),f
  3954  0A1D  30DD               	movlw	221
  3955  0A1E  00A0               movwf	((??_spiInit+0)+0),f
  3956  0A1F                     u2947:
  3957  0A1F  0BA0               	decfsz	((??_spiInit+0)+0),f
  3958  0A20  2A1F               	goto	u2947
  3959  0A21  0BA1               	decfsz	((??_spiInit+0)+0+1),f
  3960  0A22  2A1F               	goto	u2947
  3961  0A23  2A24               	nop2
  3962                           opt subtitle "HI-TECH Software Omniscient Code Generator (Lite mode) build 49521"
  3963                           
  3964                           opt pagewidth 120
  3965                           
  3966  0A24                     l232:	
  3967  0A24  0008               	return
  3968                           opt subtitle "HI-TECH Software Omniscient Code Generator (Lite mode) build 49521"
  3969                           
  3970  0A25                     	__end_of_spiInit:
  3971                           opt subtitle "HI-TECH Software Omniscient Code Generator (Lite mode) build 49521"
  3972                           
  3973                           opt pagewidth 120
  3974                           
  3975                           	opt lm
  3976                           
  3977                           	processor	16LF707
  3978                           clrc	macro
  3979                           	bcf	3,0
  3980                           	endm
  3981                           clrz	macro
  3982                           	bcf	3,2
  3983                           	endm
  3984                           setc	macro
  3985                           	bsf	3,0
  3986                           	endm
  3987                           setz	macro
  3988                           	bsf	3,2
  3989                           	endm
  3990                           skipc	macro
  3991                           	btfss	3,0
  3992                           	endm
  3993                           skipz	macro
  3994                           	btfss	3,2
  3995                           	endm
  3996                           skipnc	macro
  3997                           	btfsc	3,0
  3998                           	endm
  3999                           skipnz	macro
  4000                           	btfsc	3,2
  4001                           	endm
  4002                           indf	equ	0
  4003                           indf0	equ	0
  4004                           pc	equ	2
  4005  0F42                     __ptext681:	;psect for function _boardInit
  4006                           opt subtitle "HI-TECH Software Omniscient Code Generator (Lite mode) build 49521"
  4007                           
  4008                           opt pagewidth 120
  4009                           
  4010  00BE                     	__size_of_boardInit	equ	__end_of_boardInit-_boardInit
  4011                           opt subtitle "HI-TECH Software Omniscient Code Generator (Lite mode) build 49521"
  4012  0F42                     _boardInit:	
  4013                           opt subtitle "HI-TECH Software Omniscient Code Generator (Lite mode) build 49521"
  4014                           
  4015                           opt pagewidth 120
  4016                           
  4017  0F42                     l2304:	
  4018                           opt subtitle "HI-TECH Software Omniscient Code Generator (Lite mode) build 49521"
  4019  0F42  1683               	bsf	status, 5	;RP0=1, select bank1
  4020  0F43  1303               	bcf	status, 6	;RP1=0, select bank1
  4021  0F44  0810               	movf	(144)^080h,w	;volatile
  4022  0F45  39CF               	andlw	not (((1<<2)-1)<<4)
  4023  0F46  3820               	iorlw	(02h & ((1<<2)-1))<<4
  4024  0F47  0090               	movwf	(144)^080h	;volatile
  4025                           opt subtitle "HI-TECH Software Omniscient Code Generator (Lite mode) build 49521"
  4026                           
  4027  0F48                     l2306:	
  4028                           opt subtitle "HI-TECH Software Omniscient Code Generator (Lite mode) build 49521"
  4029  0F48  1683               	bsf	status, 5	;RP0=1, select bank3
  4030  0F49  1703               	bsf	status, 6	;RP1=1, select bank3
  4031  0F4A  1307               	bcf	(391)^0180h,6	;volatile
  4032                           opt subtitle "HI-TECH Software Omniscient Code Generator (Lite mode) build 49521"
  4033                           
  4034  0F4B                     l2308:	
  4035                           opt subtitle "HI-TECH Software Omniscient Code Generator (Lite mode) build 49521"
  4036  0F4B  1387               	bcf	(391)^0180h,7	;volatile
  4037                           opt subtitle "HI-TECH Software Omniscient Code Generator (Lite mode) build 49521"
  4038                           
  4039  0F4C                     l2310:	
  4040                           opt subtitle "HI-TECH Software Omniscient Code Generator (Lite mode) build 49521"
  4041  0F4C  1683               	bsf	status, 5	;RP0=1, select bank1
  4042  0F4D  1303               	bcf	status, 6	;RP1=0, select bank1
  4043  0F4E  1307               	bcf	(135)^080h,6	;volatile
  4044                           opt subtitle "HI-TECH Software Omniscient Code Generator (Lite mode) build 49521"
  4045                           
  4046  0F4F                     l2312:	
  4047                           opt subtitle "HI-TECH Software Omniscient Code Generator (Lite mode) build 49521"
  4048  0F4F  1509               	bsf	(137)^080h,2	;volatile
  4049                           opt subtitle "HI-TECH Software Omniscient Code Generator (Lite mode) build 49521"
  4050                           
  4051  0F50                     l2314:	
  4052                           opt subtitle "HI-TECH Software Omniscient Code Generator (Lite mode) build 49521"
  4053  0F50  1683               	bsf	status, 5	;RP0=1, select bank3
  4054  0F51  1703               	bsf	status, 6	;RP1=1, select bank3
  4055  0F52  1509               	bsf	(393)^0180h,2	;volatile
  4056                           opt subtitle "HI-TECH Software Omniscient Code Generator (Lite mode) build 49521"
  4057                           
  4058  0F53                     l2316:	
  4059                           opt subtitle "HI-TECH Software Omniscient Code Generator (Lite mode) build 49521"
  4060  0F53  1683               	bsf	status, 5	;RP0=1, select bank1
  4061  0F54  1303               	bcf	status, 6	;RP1=0, select bank1
  4062  0F55  1208               	bcf	(136)^080h,4	;volatile
  4063                           opt subtitle "HI-TECH Software Omniscient Code Generator (Lite mode) build 49521"
  4064                           
  4065  0F56                     l2318:	
  4066                           opt subtitle "HI-TECH Software Omniscient Code Generator (Lite mode) build 49521"
  4067  0F56  1683               	bsf	status, 5	;RP0=1, select bank3
  4068  0F57  1703               	bsf	status, 6	;RP1=1, select bank3
  4069  0F58  1208               	bcf	(392)^0180h,4	;volatile
  4070                           opt subtitle "HI-TECH Software Omniscient Code Generator (Lite mode) build 49521"
  4071                           
  4072  0F59                     l2320:	
  4073                           opt subtitle "HI-TECH Software Omniscient Code Generator (Lite mode) build 49521"
  4074  0F59  1283               	bcf	status, 5	;RP0=0, select bank0
  4075  0F5A  1303               	bcf	status, 6	;RP1=0, select bank0
  4076  0F5B  1208               	bcf	(8),4	;volatile
  4077                           opt subtitle "HI-TECH Software Omniscient Code Generator (Lite mode) build 49521"
  4078                           
  4079  0F5C                     l2322:	
  4080                           opt subtitle "HI-TECH Software Omniscient Code Generator (Lite mode) build 49521"
  4081  0F5C  1683               	bsf	status, 5	;RP0=1, select bank1
  4082  0F5D  1303               	bcf	status, 6	;RP1=0, select bank1
  4083  0F5E  1105               	bcf	(133)^080h,2	;volatile
  4084                           opt subtitle "HI-TECH Software Omniscient Code Generator (Lite mode) build 49521"
  4085                           
  4086  0F5F                     l2324:	
  4087                           opt subtitle "HI-TECH Software Omniscient Code Generator (Lite mode) build 49521"
  4088  0F5F  1683               	bsf	status, 5	;RP0=1, select bank3
  4089  0F60  1703               	bsf	status, 6	;RP1=1, select bank3
  4090  0F61  1105               	bcf	(389)^0180h,2	;volatile
  4091                           opt subtitle "HI-TECH Software Omniscient Code Generator (Lite mode) build 49521"
  4092                           
  4093  0F62                     l2326:	
  4094                           opt subtitle "HI-TECH Software Omniscient Code Generator (Lite mode) build 49521"
  4095  0F62  1283               	bcf	status, 5	;RP0=0, select bank0
  4096  0F63  1303               	bcf	status, 6	;RP1=0, select bank0
  4097  0F64  1505               	bsf	(5),2	;volatile
  4098                           opt subtitle "HI-TECH Software Omniscient Code Generator (Lite mode) build 49521"
  4099                           
  4100  0F65                     l2328:	
  4101                           opt subtitle "HI-TECH Software Omniscient Code Generator (Lite mode) build 49521"
  4102  0F65  1683               	bsf	status, 5	;RP0=1, select bank3
  4103  0F66  1703               	bsf	status, 6	;RP1=1, select bank3
  4104  0F67  1107               	bcf	(391)^0180h,2	;volatile
  4105                           opt subtitle "HI-TECH Software Omniscient Code Generator (Lite mode) build 49521"
  4106                           
  4107  0F68                     l2330:	
  4108                           opt subtitle "HI-TECH Software Omniscient Code Generator (Lite mode) build 49521"
  4109  0F68  1108               	bcf	(392)^0180h,2	;volatile
  4110                           opt subtitle "HI-TECH Software Omniscient Code Generator (Lite mode) build 49521"
  4111                           
  4112  0F69                     l2332:	
  4113                           opt subtitle "HI-TECH Software Omniscient Code Generator (Lite mode) build 49521"
  4114  0F69  1287               	bcf	(391)^0180h,5	;volatile
  4115                           opt subtitle "HI-TECH Software Omniscient Code Generator (Lite mode) build 49521"
  4116                           
  4117  0F6A                     l2334:	
  4118                           opt subtitle "HI-TECH Software Omniscient Code Generator (Lite mode) build 49521"
  4119  0F6A  1088               	bcf	(392)^0180h,1	;volatile
  4120                           opt subtitle "HI-TECH Software Omniscient Code Generator (Lite mode) build 49521"
  4121                           
  4122  0F6B                     l2336:	
  4123                           opt subtitle "HI-TECH Software Omniscient Code Generator (Lite mode) build 49521"
  4124  0F6B  1683               	bsf	status, 5	;RP0=1, select bank1
  4125  0F6C  1303               	bcf	status, 6	;RP1=0, select bank1
  4126  0F6D  1107               	bcf	(135)^080h,2	;volatile
  4127                           opt subtitle "HI-TECH Software Omniscient Code Generator (Lite mode) build 49521"
  4128                           
  4129  0F6E                     l2338:	
  4130                           opt subtitle "HI-TECH Software Omniscient Code Generator (Lite mode) build 49521"
  4131  0F6E  1108               	bcf	(136)^080h,2	;volatile
  4132                           opt subtitle "HI-TECH Software Omniscient Code Generator (Lite mode) build 49521"
  4133                           
  4134  0F6F                     l2340:	
  4135                           opt subtitle "HI-TECH Software Omniscient Code Generator (Lite mode) build 49521"
  4136  0F6F  1187               	bcf	(135)^080h,3	;volatile
  4137                           opt subtitle "HI-TECH Software Omniscient Code Generator (Lite mode) build 49521"
  4138                           
  4139  0F70                     l2342:	
  4140                           opt subtitle "HI-TECH Software Omniscient Code Generator (Lite mode) build 49521"
  4141  0F70  1287               	bcf	(135)^080h,5	;volatile
  4142                           opt subtitle "HI-TECH Software Omniscient Code Generator (Lite mode) build 49521"
  4143                           
  4144  0F71                     l2344:	
  4145                           opt subtitle "HI-TECH Software Omniscient Code Generator (Lite mode) build 49521"
  4146  0F71  1607               	bsf	(135)^080h,4	;volatile
  4147                           opt subtitle "HI-TECH Software Omniscient Code Generator (Lite mode) build 49521"
  4148                           
  4149  0F72                     l2346:	
  4150                           opt subtitle "HI-TECH Software Omniscient Code Generator (Lite mode) build 49521"
  4151  0F72  1488               	bsf	(136)^080h,1	;volatile
  4152                           opt subtitle "HI-TECH Software Omniscient Code Generator (Lite mode) build 49521"
  4153                           
  4154  0F73                     l2348:	
  4155                           opt subtitle "HI-TECH Software Omniscient Code Generator (Lite mode) build 49521"
  4156  0F73  1283               	bcf	status, 5	;RP0=0, select bank0
  4157  0F74  1303               	bcf	status, 6	;RP1=0, select bank0
  4158  0F75  1107               	bcf	(7),2	;volatile
  4159                           opt subtitle "HI-TECH Software Omniscient Code Generator (Lite mode) build 49521"
  4160                           
  4161  0F76                     l2350:	
  4162                           opt subtitle "HI-TECH Software Omniscient Code Generator (Lite mode) build 49521"
  4163  0F76  1508               	bsf	(8),2	;volatile
  4164                           opt subtitle "HI-TECH Software Omniscient Code Generator (Lite mode) build 49521"
  4165                           
  4166  0F77                     l2352:	
  4167                           opt subtitle "HI-TECH Software Omniscient Code Generator (Lite mode) build 49521"
  4168  0F77  1187               	bcf	(7),3	;volatile
  4169                           opt subtitle "HI-TECH Software Omniscient Code Generator (Lite mode) build 49521"
  4170                           
  4171  0F78                     l2354:	
  4172                           opt subtitle "HI-TECH Software Omniscient Code Generator (Lite mode) build 49521"
  4173  0F78  1287               	bcf	(7),5	;volatile
  4174                           opt subtitle "HI-TECH Software Omniscient Code Generator (Lite mode) build 49521"
  4175                           
  4176  0F79                     l2356:	
  4177                           opt subtitle "HI-TECH Software Omniscient Code Generator (Lite mode) build 49521"
  4178  0F79  1683               	bsf	status, 5	;RP0=1, select bank1
  4179  0F7A  1303               	bcf	status, 6	;RP1=0, select bank1
  4180  0F7B  1008               	bcf	(136)^080h,0	;volatile
  4181                           opt subtitle "HI-TECH Software Omniscient Code Generator (Lite mode) build 49521"
  4182                           
  4183  0F7C                     l2358:	
  4184                           opt subtitle "HI-TECH Software Omniscient Code Generator (Lite mode) build 49521"
  4185  0F7C  1683               	bsf	status, 5	;RP0=1, select bank3
  4186  0F7D  1703               	bsf	status, 6	;RP1=1, select bank3
  4187  0F7E  1008               	bcf	(392)^0180h,0	;volatile
  4188                           opt subtitle "HI-TECH Software Omniscient Code Generator (Lite mode) build 49521"
  4189                           
  4190  0F7F                     l2360:	
  4191                           opt subtitle "HI-TECH Software Omniscient Code Generator (Lite mode) build 49521"
  4192  0F7F  1683               	bsf	status, 5	;RP0=1, select bank1
  4193  0F80  1303               	bcf	status, 6	;RP1=0, select bank1
  4194  0F81  1509               	bsf	(137)^080h,2	;volatile
  4195                           opt subtitle "HI-TECH Software Omniscient Code Generator (Lite mode) build 49521"
  4196                           
  4197  0F82                     l2362:	
  4198                           opt subtitle "HI-TECH Software Omniscient Code Generator (Lite mode) build 49521"
  4199  0F82  1683               	bsf	status, 5	;RP0=1, select bank3
  4200  0F83  1703               	bsf	status, 6	;RP1=1, select bank3
  4201  0F84  1509               	bsf	(393)^0180h,2	;volatile
  4202                           opt subtitle "HI-TECH Software Omniscient Code Generator (Lite mode) build 49521"
  4203                           
  4204  0F85                     l2364:	
  4205                           opt subtitle "HI-TECH Software Omniscient Code Generator (Lite mode) build 49521"
  4206  0F85  1683               	bsf	status, 5	;RP0=1, select bank1
  4207  0F86  1303               	bcf	status, 6	;RP1=0, select bank1
  4208  0F87  1409               	bsf	(137)^080h,0	;volatile
  4209                           opt subtitle "HI-TECH Software Omniscient Code Generator (Lite mode) build 49521"
  4210                           
  4211  0F88                     l2366:	
  4212                           opt subtitle "HI-TECH Software Omniscient Code Generator (Lite mode) build 49521"
  4213  0F88  1683               	bsf	status, 5	;RP0=1, select bank3
  4214  0F89  1703               	bsf	status, 6	;RP1=1, select bank3
  4215  0F8A  1009               	bcf	(393)^0180h,0	;volatile
  4216                           opt subtitle "HI-TECH Software Omniscient Code Generator (Lite mode) build 49521"
  4217                           
  4218  0F8B                     l2368:	
  4219                           opt subtitle "HI-TECH Software Omniscient Code Generator (Lite mode) build 49521"
  4220  0F8B  1283               	bcf	status, 5	;RP0=0, select bank0
  4221  0F8C  1303               	bcf	status, 6	;RP1=0, select bank0
  4222  0F8D  1008               	bcf	(8),0	;volatile
  4223                           opt subtitle "HI-TECH Software Omniscient Code Generator (Lite mode) build 49521"
  4224                           
  4225  0F8E                     l2370:	
  4226                           opt subtitle "HI-TECH Software Omniscient Code Generator (Lite mode) build 49521"
  4227  0F8E  1683               	bsf	status, 5	;RP0=1, select bank1
  4228  0F8F  1303               	bcf	status, 6	;RP1=0, select bank1
  4229  0F90  1409               	bsf	(137)^080h,0	;volatile
  4230                           opt subtitle "HI-TECH Software Omniscient Code Generator (Lite mode) build 49521"
  4231                           
  4232  0F91                     l2372:	
  4233                           opt subtitle "HI-TECH Software Omniscient Code Generator (Lite mode) build 49521"
  4234  0F91  1683               	bsf	status, 5	;RP0=1, select bank3
  4235  0F92  1703               	bsf	status, 6	;RP1=1, select bank3
  4236  0F93  1409               	bsf	(393)^0180h,0	;volatile
  4237                           opt subtitle "HI-TECH Software Omniscient Code Generator (Lite mode) build 49521"
  4238                           
  4239  0F94                     l2374:	
  4240                           opt subtitle "HI-TECH Software Omniscient Code Generator (Lite mode) build 49521"
  4241  0F94  1683               	bsf	status, 5	;RP0=1, select bank1
  4242  0F95  1303               	bcf	status, 6	;RP1=0, select bank1
  4243  0F96  1188               	bcf	(136)^080h,3	;volatile
  4244                           opt subtitle "HI-TECH Software Omniscient Code Generator (Lite mode) build 49521"
  4245                           
  4246  0F97                     l2376:	
  4247                           opt subtitle "HI-TECH Software Omniscient Code Generator (Lite mode) build 49521"
  4248  0F97  1283               	bcf	status, 5	;RP0=0, select bank0
  4249  0F98  1303               	bcf	status, 6	;RP1=0, select bank0
  4250  0F99  1188               	bcf	(8),3	;volatile
  4251                           opt subtitle "HI-TECH Software Omniscient Code Generator (Lite mode) build 49521"
  4252                           
  4253  0F9A                     l2378:	
  4254                           opt subtitle "HI-TECH Software Omniscient Code Generator (Lite mode) build 49521"
  4255  0F9A  1683               	bsf	status, 5	;RP0=1, select bank1
  4256  0F9B  1303               	bcf	status, 6	;RP1=0, select bank1
  4257  0F9C  1688               	bsf	(136)^080h,5	;volatile
  4258                           opt subtitle "HI-TECH Software Omniscient Code Generator (Lite mode) build 49521"
  4259                           
  4260  0F9D                     l2380:	
  4261                           opt subtitle "HI-TECH Software Omniscient Code Generator (Lite mode) build 49521"
  4262  0F9D  1683               	bsf	status, 5	;RP0=1, select bank3
  4263  0F9E  1703               	bsf	status, 6	;RP1=1, select bank3
  4264  0F9F  1288               	bcf	(392)^0180h,5	;volatile
  4265                           opt subtitle "HI-TECH Software Omniscient Code Generator (Lite mode) build 49521"
  4266                           
  4267  0FA0                     l2382:	
  4268                           opt subtitle "HI-TECH Software Omniscient Code Generator (Lite mode) build 49521"
  4269  0FA0  1683               	bsf	status, 5	;RP0=1, select bank1
  4270  0FA1  1303               	bcf	status, 6	;RP1=0, select bank1
  4271  0FA2  1708               	bsf	(136)^080h,6	;volatile
  4272                           opt subtitle "HI-TECH Software Omniscient Code Generator (Lite mode) build 49521"
  4273                           
  4274  0FA3                     l2384:	
  4275                           opt subtitle "HI-TECH Software Omniscient Code Generator (Lite mode) build 49521"
  4276  0FA3  1788               	bsf	(136)^080h,7	;volatile
  4277                           opt subtitle "HI-TECH Software Omniscient Code Generator (Lite mode) build 49521"
  4278                           
  4279  0FA4                     l2386:	
  4280                           opt subtitle "HI-TECH Software Omniscient Code Generator (Lite mode) build 49521"
  4281  0FA4  1683               	bsf	status, 5	;RP0=1, select bank3
  4282  0FA5  1703               	bsf	status, 6	;RP1=1, select bank3
  4283  0FA6  1308               	bcf	(392)^0180h,6	;volatile
  4284                           opt subtitle "HI-TECH Software Omniscient Code Generator (Lite mode) build 49521"
  4285                           
  4286  0FA7                     l2388:	
  4287                           opt subtitle "HI-TECH Software Omniscient Code Generator (Lite mode) build 49521"
  4288  0FA7  1388               	bcf	(392)^0180h,7	;volatile
  4289                           opt subtitle "HI-TECH Software Omniscient Code Generator (Lite mode) build 49521"
  4290                           
  4291  0FA8                     l2390:	
  4292                           opt subtitle "HI-TECH Software Omniscient Code Generator (Lite mode) build 49521"
  4293  0FA8  178B               	bsf	(95/8),(95)&7	;volatile
  4294                           opt subtitle "HI-TECH Software Omniscient Code Generator (Lite mode) build 49521"
  4295                           
  4296  0FA9                     l2392:	
  4297                           opt subtitle "HI-TECH Software Omniscient Code Generator (Lite mode) build 49521"
  4298  0FA9  170B               	bsf	(94/8),(94)&7	;volatile
  4299                           opt subtitle "HI-TECH Software Omniscient Code Generator (Lite mode) build 49521"
  4300                           
  4301  0FAA                     l2394:	
  4302                           opt subtitle "HI-TECH Software Omniscient Code Generator (Lite mode) build 49521"
  4303  0FAA  1683               	bsf	status, 5	;RP0=1, select bank1
  4304  0FAB  1303               	bcf	status, 6	;RP1=0, select bank1
  4305  0FAC  140C               	bsf	(1120/8)^080h,(1120)&7	;volatile
  4306                           opt subtitle "HI-TECH Software Omniscient Code Generator (Lite mode) build 49521"
  4307                           
  4308  0FAD                     l2396:	
  4309                           opt subtitle "HI-TECH Software Omniscient Code Generator (Lite mode) build 49521"
  4310  0FAD  3010               	movlw	(010h)
  4311  0FAE  1283               	bcf	status, 5	;RP0=0, select bank0
  4312  0FAF  1303               	bcf	status, 6	;RP1=0, select bank0
  4313  0FB0  008F               	movwf	(15)	;volatile
  4314                           opt subtitle "HI-TECH Software Omniscient Code Generator (Lite mode) build 49521"
  4315                           
  4316  0FB1                     l2398:	
  4317                           opt subtitle "HI-TECH Software Omniscient Code Generator (Lite mode) build 49521"
  4318  0FB1  018E               	clrf	(14)	;volatile
  4319                           opt subtitle "HI-TECH Software Omniscient Code Generator (Lite mode) build 49521"
  4320                           
  4321  0FB2                     l2400:	
  4322                           opt subtitle "HI-TECH Software Omniscient Code Generator (Lite mode) build 49521"
  4323  0FB2  0810               	movf	(16),w	;volatile
  4324  0FB3  393F               	andlw	not (((1<<2)-1)<<6)
  4325  0FB4  3880               	iorlw	(02h & ((1<<2)-1))<<6
  4326  0FB5  0090               	movwf	(16)	;volatile
  4327                           opt subtitle "HI-TECH Software Omniscient Code Generator (Lite mode) build 49521"
  4328                           
  4329  0FB6                     l2402:	
  4330                           opt subtitle "HI-TECH Software Omniscient Code Generator (Lite mode) build 49521"
  4331  0FB6  3030               	movlw	(03h & ((1<<2)-1))<<4
  4332  0FB7  0490               	iorwf	(16),f	;volatile
  4333                           opt subtitle "HI-TECH Software Omniscient Code Generator (Lite mode) build 49521"
  4334                           
  4335  0FB8                     l2404:	
  4336                           opt subtitle "HI-TECH Software Omniscient Code Generator (Lite mode) build 49521"
  4337  0FB8  1683               	bsf	status, 5	;RP0=1, select bank1
  4338  0FB9  1303               	bcf	status, 6	;RP1=0, select bank1
  4339  0FBA  178F               	bsf	(143)^080h,7	;volatile
  4340                           opt subtitle "HI-TECH Software Omniscient Code Generator (Lite mode) build 49521"
  4341                           
  4342  0FBB                     l2406:	
  4343                           opt subtitle "HI-TECH Software Omniscient Code Generator (Lite mode) build 49521"
  4344  0FBB  1283               	bcf	status, 5	;RP0=0, select bank0
  4345  0FBC  1303               	bcf	status, 6	;RP1=0, select bank0
  4346  0FBD  1510               	bsf	(16),2	;volatile
  4347                           opt subtitle "HI-TECH Software Omniscient Code Generator (Lite mode) build 49521"
  4348                           
  4349  0FBE                     l2408:	
  4350                           opt subtitle "HI-TECH Software Omniscient Code Generator (Lite mode) build 49521"
  4351  0FBE  1590               	bsf	(16),3	;volatile
  4352                           opt subtitle "HI-TECH Software Omniscient Code Generator (Lite mode) build 49521"
  4353                           
  4354  0FBF                     l2410:	
  4355                           opt subtitle "HI-TECH Software Omniscient Code Generator (Lite mode) build 49521"
  4356  0FBF  1410               	bsf	(16),0	;volatile
  4357                           opt subtitle "HI-TECH Software Omniscient Code Generator (Lite mode) build 49521"
  4358                           
  4359  0FC0                     l2412:	
  4360                           opt subtitle "HI-TECH Software Omniscient Code Generator (Lite mode) build 49521"
  4361  0FC0  1683               	bsf	status, 5	;RP0=1, select bank1
  4362  0FC1  1303               	bcf	status, 6	;RP1=0, select bank1
  4363  0FC2  1406               	bsf	(134)^080h,0	;volatile
  4364                           opt subtitle "HI-TECH Software Omniscient Code Generator (Lite mode) build 49521"
  4365                           
  4366  0FC3                     l2414:	
  4367                           opt subtitle "HI-TECH Software Omniscient Code Generator (Lite mode) build 49521"
  4368  0FC3  1683               	bsf	status, 5	;RP0=1, select bank3
  4369  0FC4  1703               	bsf	status, 6	;RP1=1, select bank3
  4370  0FC5  1006               	bcf	(390)^0180h,0	;volatile
  4371                           opt subtitle "HI-TECH Software Omniscient Code Generator (Lite mode) build 49521"
  4372                           
  4373  0FC6                     l2416:	
  4374                           opt subtitle "HI-TECH Software Omniscient Code Generator (Lite mode) build 49521"
  4375  0FC6  1683               	bsf	status, 5	;RP0=1, select bank1
  4376  0FC7  1303               	bcf	status, 6	;RP1=0, select bank1
  4377  0FC8  1489               	bsf	(137)^080h,1	;volatile
  4378                           opt subtitle "HI-TECH Software Omniscient Code Generator (Lite mode) build 49521"
  4379                           
  4380  0FC9                     l2418:	
  4381                           opt subtitle "HI-TECH Software Omniscient Code Generator (Lite mode) build 49521"
  4382  0FC9  1683               	bsf	status, 5	;RP0=1, select bank3
  4383  0FCA  1703               	bsf	status, 6	;RP1=1, select bank3
  4384  0FCB  1489               	bsf	(393)^0180h,1	;volatile
  4385                           opt subtitle "HI-TECH Software Omniscient Code Generator (Lite mode) build 49521"
  4386                           
  4387  0FCC                     l2420:	
  4388                           opt subtitle "HI-TECH Software Omniscient Code Generator (Lite mode) build 49521"
  4389  0FCC  1283               	bcf	status, 5	;RP0=0, select bank0
  4390  0FCD  1303               	bcf	status, 6	;RP1=0, select bank0
  4391  0FCE  1089               	bcf	(9),1	;volatile
  4392                           opt subtitle "HI-TECH Software Omniscient Code Generator (Lite mode) build 49521"
  4393                           
  4394  0FCF                     l2422:	
  4395                           opt subtitle "HI-TECH Software Omniscient Code Generator (Lite mode) build 49521"
  4396  0FCF  1683               	bsf	status, 5	;RP0=1, select bank1
  4397  0FD0  1303               	bcf	status, 6	;RP1=0, select bank1
  4398  0FD1  1005               	bcf	(133)^080h,0	;volatile
  4399                           opt subtitle "HI-TECH Software Omniscient Code Generator (Lite mode) build 49521"
  4400                           
  4401  0FD2                     l2424:	
  4402                           opt subtitle "HI-TECH Software Omniscient Code Generator (Lite mode) build 49521"
  4403  0FD2  1085               	bcf	(133)^080h,1	;volatile
  4404                           opt subtitle "HI-TECH Software Omniscient Code Generator (Lite mode) build 49521"
  4405                           
  4406  0FD3                     l2426:	
  4407                           opt subtitle "HI-TECH Software Omniscient Code Generator (Lite mode) build 49521"
  4408  0FD3  1185               	bcf	(133)^080h,3	;volatile
  4409                           opt subtitle "HI-TECH Software Omniscient Code Generator (Lite mode) build 49521"
  4410                           
  4411  0FD4                     l2428:	
  4412                           opt subtitle "HI-TECH Software Omniscient Code Generator (Lite mode) build 49521"
  4413  0FD4  1205               	bcf	(133)^080h,4	;volatile
  4414                           opt subtitle "HI-TECH Software Omniscient Code Generator (Lite mode) build 49521"
  4415                           
  4416  0FD5                     l2430:	
  4417                           opt subtitle "HI-TECH Software Omniscient Code Generator (Lite mode) build 49521"
  4418  0FD5  1285               	bcf	(133)^080h,5	;volatile
  4419                           opt subtitle "HI-TECH Software Omniscient Code Generator (Lite mode) build 49521"
  4420                           
  4421  0FD6                     l2432:	
  4422                           opt subtitle "HI-TECH Software Omniscient Code Generator (Lite mode) build 49521"
  4423  0FD6  1305               	bcf	(133)^080h,6	;volatile
  4424                           opt subtitle "HI-TECH Software Omniscient Code Generator (Lite mode) build 49521"
  4425                           
  4426  0FD7                     l2434:	
  4427                           opt subtitle "HI-TECH Software Omniscient Code Generator (Lite mode) build 49521"
  4428  0FD7  1385               	bcf	(133)^080h,7	;volatile
  4429                           opt subtitle "HI-TECH Software Omniscient Code Generator (Lite mode) build 49521"
  4430                           
  4431  0FD8                     l2436:	
  4432                           opt subtitle "HI-TECH Software Omniscient Code Generator (Lite mode) build 49521"
  4433  0FD8  1683               	bsf	status, 5	;RP0=1, select bank3
  4434  0FD9  1703               	bsf	status, 6	;RP1=1, select bank3
  4435  0FDA  1005               	bcf	(389)^0180h,0	;volatile
  4436                           opt subtitle "HI-TECH Software Omniscient Code Generator (Lite mode) build 49521"
  4437                           
  4438  0FDB                     l2438:	
  4439                           opt subtitle "HI-TECH Software Omniscient Code Generator (Lite mode) build 49521"
  4440  0FDB  1085               	bcf	(389)^0180h,1	;volatile
  4441                           opt subtitle "HI-TECH Software Omniscient Code Generator (Lite mode) build 49521"
  4442                           
  4443  0FDC                     l2440:	
  4444                           opt subtitle "HI-TECH Software Omniscient Code Generator (Lite mode) build 49521"
  4445  0FDC  1185               	bcf	(389)^0180h,3	;volatile
  4446                           opt subtitle "HI-TECH Software Omniscient Code Generator (Lite mode) build 49521"
  4447                           
  4448  0FDD                     l2442:	
  4449                           opt subtitle "HI-TECH Software Omniscient Code Generator (Lite mode) build 49521"
  4450  0FDD  1205               	bcf	(389)^0180h,4	;volatile
  4451                           opt subtitle "HI-TECH Software Omniscient Code Generator (Lite mode) build 49521"
  4452                           
  4453  0FDE                     l2444:	
  4454                           opt subtitle "HI-TECH Software Omniscient Code Generator (Lite mode) build 49521"
  4455  0FDE  1285               	bcf	(389)^0180h,5	;volatile
  4456                           opt subtitle "HI-TECH Software Omniscient Code Generator (Lite mode) build 49521"
  4457                           
  4458  0FDF                     l2446:	
  4459                           opt subtitle "HI-TECH Software Omniscient Code Generator (Lite mode) build 49521"
  4460  0FDF  1305               	bcf	(389)^0180h,6	;volatile
  4461                           opt subtitle "HI-TECH Software Omniscient Code Generator (Lite mode) build 49521"
  4462                           
  4463  0FE0                     l2448:	
  4464                           opt subtitle "HI-TECH Software Omniscient Code Generator (Lite mode) build 49521"
  4465  0FE0  1385               	bcf	(389)^0180h,7	;volatile
  4466                           opt subtitle "HI-TECH Software Omniscient Code Generator (Lite mode) build 49521"
  4467                           
  4468  0FE1                     l2450:	
  4469                           opt subtitle "HI-TECH Software Omniscient Code Generator (Lite mode) build 49521"
  4470  0FE1  1283               	bcf	status, 5	;RP0=0, select bank0
  4471  0FE2  1303               	bcf	status, 6	;RP1=0, select bank0
  4472  0FE3  1005               	bcf	(5),0	;volatile
  4473                           opt subtitle "HI-TECH Software Omniscient Code Generator (Lite mode) build 49521"
  4474                           
  4475  0FE4                     l2452:	
  4476                           opt subtitle "HI-TECH Software Omniscient Code Generator (Lite mode) build 49521"
  4477  0FE4  1085               	bcf	(5),1	;volatile
  4478                           opt subtitle "HI-TECH Software Omniscient Code Generator (Lite mode) build 49521"
  4479                           
  4480  0FE5                     l2454:	
  4481                           opt subtitle "HI-TECH Software Omniscient Code Generator (Lite mode) build 49521"
  4482  0FE5  1185               	bcf	(5),3	;volatile
  4483                           opt subtitle "HI-TECH Software Omniscient Code Generator (Lite mode) build 49521"
  4484                           
  4485  0FE6                     l2456:	
  4486                           opt subtitle "HI-TECH Software Omniscient Code Generator (Lite mode) build 49521"
  4487  0FE6  1205               	bcf	(5),4	;volatile
  4488                           opt subtitle "HI-TECH Software Omniscient Code Generator (Lite mode) build 49521"
  4489                           
  4490  0FE7                     l2458:	
  4491                           opt subtitle "HI-TECH Software Omniscient Code Generator (Lite mode) build 49521"
  4492  0FE7  1285               	bcf	(5),5	;volatile
  4493                           opt subtitle "HI-TECH Software Omniscient Code Generator (Lite mode) build 49521"
  4494                           
  4495  0FE8                     l2460:	
  4496                           opt subtitle "HI-TECH Software Omniscient Code Generator (Lite mode) build 49521"
  4497  0FE8  1305               	bcf	(5),6	;volatile
  4498                           opt subtitle "HI-TECH Software Omniscient Code Generator (Lite mode) build 49521"
  4499                           
  4500  0FE9                     l2462:	
  4501                           opt subtitle "HI-TECH Software Omniscient Code Generator (Lite mode) build 49521"
  4502  0FE9  1385               	bcf	(5),7	;volatile
  4503                           opt subtitle "HI-TECH Software Omniscient Code Generator (Lite mode) build 49521"
  4504                           
  4505  0FEA                     l2464:	
  4506                           opt subtitle "HI-TECH Software Omniscient Code Generator (Lite mode) build 49521"
  4507  0FEA  1683               	bsf	status, 5	;RP0=1, select bank1
  4508  0FEB  1303               	bcf	status, 6	;RP1=0, select bank1
  4509  0FEC  1086               	bcf	(134)^080h,1	;volatile
  4510                           opt subtitle "HI-TECH Software Omniscient Code Generator (Lite mode) build 49521"
  4511                           
  4512  0FED                     l2466:	
  4513                           opt subtitle "HI-TECH Software Omniscient Code Generator (Lite mode) build 49521"
  4514  0FED  1106               	bcf	(134)^080h,2	;volatile
  4515                           opt subtitle "HI-TECH Software Omniscient Code Generator (Lite mode) build 49521"
  4516                           
  4517  0FEE                     l2468:	
  4518                           opt subtitle "HI-TECH Software Omniscient Code Generator (Lite mode) build 49521"
  4519  0FEE  1186               	bcf	(134)^080h,3	;volatile
  4520                           opt subtitle "HI-TECH Software Omniscient Code Generator (Lite mode) build 49521"
  4521                           
  4522  0FEF                     l2470:	
  4523                           opt subtitle "HI-TECH Software Omniscient Code Generator (Lite mode) build 49521"
  4524  0FEF  1206               	bcf	(134)^080h,4	;volatile
  4525                           opt subtitle "HI-TECH Software Omniscient Code Generator (Lite mode) build 49521"
  4526                           
  4527  0FF0                     l2472:	
  4528                           opt subtitle "HI-TECH Software Omniscient Code Generator (Lite mode) build 49521"
  4529  0FF0  1286               	bcf	(134)^080h,5	;volatile
  4530                           opt subtitle "HI-TECH Software Omniscient Code Generator (Lite mode) build 49521"
  4531                           
  4532  0FF1                     l2474:	
  4533                           opt subtitle "HI-TECH Software Omniscient Code Generator (Lite mode) build 49521"
  4534  0FF1  1683               	bsf	status, 5	;RP0=1, select bank3
  4535  0FF2  1703               	bsf	status, 6	;RP1=1, select bank3
  4536  0FF3  1086               	bcf	(390)^0180h,1	;volatile
  4537                           opt subtitle "HI-TECH Software Omniscient Code Generator (Lite mode) build 49521"
  4538                           
  4539  0FF4                     l2476:	
  4540                           opt subtitle "HI-TECH Software Omniscient Code Generator (Lite mode) build 49521"
  4541  0FF4  1106               	bcf	(390)^0180h,2	;volatile
  4542                           opt subtitle "HI-TECH Software Omniscient Code Generator (Lite mode) build 49521"
  4543                           
  4544  0FF5                     l2478:	
  4545                           opt subtitle "HI-TECH Software Omniscient Code Generator (Lite mode) build 49521"
  4546  0FF5  1186               	bcf	(390)^0180h,3	;volatile
  4547                           opt subtitle "HI-TECH Software Omniscient Code Generator (Lite mode) build 49521"
  4548                           
  4549  0FF6                     l2480:	
  4550                           opt subtitle "HI-TECH Software Omniscient Code Generator (Lite mode) build 49521"
  4551  0FF6  1206               	bcf	(390)^0180h,4	;volatile
  4552                           opt subtitle "HI-TECH Software Omniscient Code Generator (Lite mode) build 49521"
  4553                           
  4554  0FF7                     l2482:	
  4555                           opt subtitle "HI-TECH Software Omniscient Code Generator (Lite mode) build 49521"
  4556  0FF7  1286               	bcf	(390)^0180h,5	;volatile
  4557                           opt subtitle "HI-TECH Software Omniscient Code Generator (Lite mode) build 49521"
  4558                           
  4559  0FF8                     l2484:	
  4560                           opt subtitle "HI-TECH Software Omniscient Code Generator (Lite mode) build 49521"
  4561  0FF8  1283               	bcf	status, 5	;RP0=0, select bank0
  4562  0FF9  1303               	bcf	status, 6	;RP1=0, select bank0
  4563  0FFA  1086               	bcf	(6),1	;volatile
  4564                           opt subtitle "HI-TECH Software Omniscient Code Generator (Lite mode) build 49521"
  4565                           
  4566  0FFB                     l2486:	
  4567                           opt subtitle "HI-TECH Software Omniscient Code Generator (Lite mode) build 49521"
  4568  0FFB  1106               	bcf	(6),2	;volatile
  4569                           opt subtitle "HI-TECH Software Omniscient Code Generator (Lite mode) build 49521"
  4570                           
  4571  0FFC                     l2488:	
  4572                           opt subtitle "HI-TECH Software Omniscient Code Generator (Lite mode) build 49521"
  4573  0FFC  1186               	bcf	(6),3	;volatile
  4574                           opt subtitle "HI-TECH Software Omniscient Code Generator (Lite mode) build 49521"
  4575                           
  4576  0FFD                     l2490:	
  4577                           opt subtitle "HI-TECH Software Omniscient Code Generator (Lite mode) build 49521"
  4578  0FFD  1606               	bsf	(6),4	;volatile
  4579                           opt subtitle "HI-TECH Software Omniscient Code Generator (Lite mode) build 49521"
  4580                           
  4581  0FFE                     l2492:	
  4582                           opt subtitle "HI-TECH Software Omniscient Code Generator (Lite mode) build 49521"
  4583  0FFE  1286               	bcf	(6),5	;volatile
  4584                           opt subtitle "HI-TECH Software Omniscient Code Generator (Lite mode) build 49521"
  4585                           
  4586  0FFF                     l277:	
  4587  0FFF  0008               	return
  4588                           opt subtitle "HI-TECH Software Omniscient Code Generator (Lite mode) build 49521"
  4589                           
  4590  1000                     	__end_of_boardInit:
  4591                           opt subtitle "HI-TECH Software Omniscient Code Generator (Lite mode) build 49521"
  4592                           
  4593                           opt pagewidth 120
  4594                           
  4595                           	opt lm
  4596                           
  4597                           	processor	16LF707
  4598                           clrc	macro
  4599                           	bcf	3,0
  4600                           	endm
  4601                           clrz	macro
  4602                           	bcf	3,2
  4603                           	endm
  4604                           setc	macro
  4605                           	bsf	3,0
  4606                           	endm
  4607                           setz	macro
  4608                           	bsf	3,2
  4609                           	endm
  4610                           skipc	macro
  4611                           	btfss	3,0
  4612                           	endm
  4613                           skipz	macro
  4614                           	btfss	3,2
  4615                           	endm
  4616                           skipnc	macro
  4617                           	btfsc	3,0
  4618                           	endm
  4619                           skipnz	macro
  4620                           	btfsc	3,2
  4621                           	endm
  4622                           indf	equ	0
  4623                           indf0	equ	0
  4624                           pc	equ	2
  4625  0BC0                     __ptext682:	;psect for function _adcReadTemp
  4626                           opt subtitle "HI-TECH Software Omniscient Code Generator (Lite mode) build 49521"
  4627                           
  4628                           opt pagewidth 120
  4629                           
  4630  0038                     	__size_of_adcReadTemp	equ	__end_of_adcReadTemp-_adcReadTemp
  4631                           opt subtitle "HI-TECH Software Omniscient Code Generator (Lite mode) build 49521"
  4632  0BC0                     _adcReadTemp:	
  4633                           opt subtitle "HI-TECH Software Omniscient Code Generator (Lite mode) build 49521"
  4634                           
  4635                           opt pagewidth 120
  4636                           
  4637  0BC0                     l2722:	
  4638                           opt subtitle "HI-TECH Software Omniscient Code Generator (Lite mode) build 49521"
  4639                           
  4640  0BC0  1683               	bsf	status, 5	;RP0=1, select bank1
  4641  0BC1  1303               	bcf	status, 6	;RP1=0, select bank1
  4642  0BC2  171D               	bsf	(157)^080h,6	;volatile
  4643                           opt subtitle "HI-TECH Software Omniscient Code Generator (Lite mode) build 49521"
  4644                           
  4645  0BC3                     l2724:	
  4646                           opt subtitle "HI-TECH Software Omniscient Code Generator (Lite mode) build 49521"
  4647  0BC3  1283               	bcf	status, 5	;RP0=0, select bank0
  4648  0BC4  1303               	bcf	status, 6	;RP1=0, select bank0
  4649  0BC5  081F               	movf	(31),w	;volatile
  4650  0BC6  39C3               	andlw	not (((1<<4)-1)<<2)
  4651  0BC7  381C               	iorlw	(07h & ((1<<4)-1))<<2
  4652  0BC8  009F               	movwf	(31)	;volatile
  4653                           opt subtitle "HI-TECH Software Omniscient Code Generator (Lite mode) build 49521"
  4654                           
  4655  0BC9  1683               	bsf	status, 5	;RP0=1, select bank1
  4656  0BCA  1303               	bcf	status, 6	;RP1=0, select bank1
  4657  0BCB  081D               	movf	(157)^080h,w	;volatile
  4658  0BCC  39FC               	andlw	not (((1<<2)-1)<<0)
  4659  0BCD  3801               	iorlw	(01h & ((1<<2)-1))<<0
  4660  0BCE  009D               	movwf	(157)^080h	;volatile
  4661                           opt subtitle "HI-TECH Software Omniscient Code Generator (Lite mode) build 49521"
  4662                           
  4663  0BCF  2BD0               	goto	l205
  4664                           opt subtitle "HI-TECH Software Omniscient Code Generator (Lite mode) build 49521"
  4665  0BD0                     l206:	
  4666                           opt subtitle "HI-TECH Software Omniscient Code Generator (Lite mode) build 49521"
  4667  0BD0                     l205:	
  4668  0BD0  1F9D               	btfss	(157)^080h,7	;volatile
  4669  0BD1  2BD3               	goto	u2001
  4670  0BD2  2BD4               	goto	u2000
  4671  0BD3                     u2001:
  4672  0BD3  2BD0               	goto	l205
  4673  0BD4                     u2000:
  4674                           opt subtitle "HI-TECH Software Omniscient Code Generator (Lite mode) build 49521"
  4675  0BD4                     l207:	
  4676                           opt subtitle "HI-TECH Software Omniscient Code Generator (Lite mode) build 49521"
  4677                           
  4678  0BD4  1283               	bcf	status, 5	;RP0=0, select bank0
  4679  0BD5  1303               	bcf	status, 6	;RP1=0, select bank0
  4680  0BD6  141F               	bsf	(31),0	;volatile
  4681                           opt subtitle "HI-TECH Software Omniscient Code Generator (Lite mode) build 49521"
  4682                           
  4683  0BD7  1408               	bsf	(8),0	;volatile
  4684                           opt subtitle "HI-TECH Software Omniscient Code Generator (Lite mode) build 49521"
  4685                           
  4686  0BD8                     l2726:	
  4687                           opt subtitle "HI-TECH Software Omniscient Code Generator (Lite mode) build 49521"
  4688                           
  4689  0BD8  3003               movlw	3
  4690  0BD9  00A1               movwf	((??_adcReadTemp+0)+0+1),f
  4691  0BDA  3097               	movlw	151
  4692  0BDB  00A0               movwf	((??_adcReadTemp+0)+0),f
  4693  0BDC                     u2957:
  4694  0BDC  0BA0               	decfsz	((??_adcReadTemp+0)+0),f
  4695  0BDD  2BDC               	goto	u2957
  4696  0BDE  0BA1               	decfsz	((??_adcReadTemp+0)+0+1),f
  4697  0BDF  2BDC               	goto	u2957
  4698  0BE0  2BE1               	nop2
  4699                           opt subtitle "HI-TECH Software Omniscient Code Generator (Lite mode) build 49521"
  4700                           
  4701                           opt pagewidth 120
  4702                           
  4703  0BE1                     l2728:	
  4704                           opt subtitle "HI-TECH Software Omniscient Code Generator (Lite mode) build 49521"
  4705  0BE1  1283               	bcf	status, 5	;RP0=0, select bank0
  4706  0BE2  1303               	bcf	status, 6	;RP1=0, select bank0
  4707  0BE3  149F               	bsf	(31),1	;volatile
  4708                           opt subtitle "HI-TECH Software Omniscient Code Generator (Lite mode) build 49521"
  4709                           
  4710  0BE4  2BE5               	goto	l208
  4711                           opt subtitle "HI-TECH Software Omniscient Code Generator (Lite mode) build 49521"
  4712  0BE5                     l209:	
  4713                           opt subtitle "HI-TECH Software Omniscient Code Generator (Lite mode) build 49521"
  4714  0BE5                     l208:	
  4715  0BE5  189F               	btfsc	(31),1	;volatile
  4716  0BE6  2BE8               	goto	u2011
  4717  0BE7  2BE9               	goto	u2010
  4718  0BE8                     u2011:
  4719  0BE8  2BE5               	goto	l208
  4720  0BE9                     u2010:
  4721  0BE9  2BEA               	goto	l2730
  4722                           opt subtitle "HI-TECH Software Omniscient Code Generator (Lite mode) build 49521"
  4723  0BEA                     l210:	
  4724                           opt subtitle "HI-TECH Software Omniscient Code Generator (Lite mode) build 49521"
  4725                           
  4726  0BEA                     l2730:	
  4727                           opt subtitle "HI-TECH Software Omniscient Code Generator (Lite mode) build 49521"
  4728  0BEA  081E               	movf	(30),w	;volatile
  4729  0BEB  00A0               	movwf	(??_adcReadTemp+0)+0
  4730  0BEC  0820               	movf	(??_adcReadTemp+0)+0,w
  4731  0BED  00A2               	movwf	(adcReadTemp@value)
  4732                           opt subtitle "HI-TECH Software Omniscient Code Generator (Lite mode) build 49521"
  4733                           
  4734  0BEE                     l2732:	
  4735                           opt subtitle "HI-TECH Software Omniscient Code Generator (Lite mode) build 49521"
  4736  0BEE  101F               	bcf	(31),0	;volatile
  4737                           opt subtitle "HI-TECH Software Omniscient Code Generator (Lite mode) build 49521"
  4738                           
  4739  0BEF                     l2734:	
  4740                           opt subtitle "HI-TECH Software Omniscient Code Generator (Lite mode) build 49521"
  4741  0BEF  1008               	bcf	(8),0	;volatile
  4742                           opt subtitle "HI-TECH Software Omniscient Code Generator (Lite mode) build 49521"
  4743                           
  4744  0BF0                     l2736:	
  4745                           opt subtitle "HI-TECH Software Omniscient Code Generator (Lite mode) build 49521"
  4746  0BF0  1683               	bsf	status, 5	;RP0=1, select bank1
  4747  0BF1  1303               	bcf	status, 6	;RP1=0, select bank1
  4748  0BF2  131D               	bcf	(157)^080h,6	;volatile
  4749                           opt subtitle "HI-TECH Software Omniscient Code Generator (Lite mode) build 49521"
  4750                           
  4751  0BF3  1283               	bcf	status, 5	;RP0=0, select bank0
  4752  0BF4  1303               	bcf	status, 6	;RP1=0, select bank0
  4753  0BF5  0822               	movf	(adcReadTemp@value),w
  4754  0BF6  2BF7               	goto	l211
  4755                           opt subtitle "HI-TECH Software Omniscient Code Generator (Lite mode) build 49521"
  4756  0BF7                     l2738:	
  4757                           opt subtitle "HI-TECH Software Omniscient Code Generator (Lite mode) build 49521"
  4758                           
  4759  0BF7                     l211:	
  4760  0BF7  0008               	return
  4761                           opt subtitle "HI-TECH Software Omniscient Code Generator (Lite mode) build 49521"
  4762                           
  4763  0BF8                     	__end_of_adcReadTemp:
  4764                           opt subtitle "HI-TECH Software Omniscient Code Generator (Lite mode) build 49521"
  4765                           
  4766                           opt pagewidth 120
  4767                           
  4768                           	opt lm
  4769                           
  4770                           	processor	16LF707
  4771                           clrc	macro
  4772                           	bcf	3,0
  4773                           	endm
  4774                           clrz	macro
  4775                           	bcf	3,2
  4776                           	endm
  4777                           setc	macro
  4778                           	bsf	3,0
  4779                           	endm
  4780                           setz	macro
  4781                           	bsf	3,2
  4782                           	endm
  4783                           skipc	macro
  4784                           	btfss	3,0
  4785                           	endm
  4786                           skipz	macro
  4787                           	btfss	3,2
  4788                           	endm
  4789                           skipnc	macro
  4790                           	btfsc	3,0
  4791                           	endm
  4792                           skipnz	macro
  4793                           	btfsc	3,2
  4794                           	endm
  4795                           indf	equ	0
  4796                           indf0	equ	0
  4797                           pc	equ	2
  4798                           pcl	equ	2
  4799                           status	equ	3
  4800                           fsr	equ	4
  4801                           fsr0	equ	4
  4802                           c	equ	1
  4803                           z	equ	0
  4804                           pclath	equ	10
  4805                           # 46 "/Applications/microchip/xc8/v1.12/include/pic16lf707.h"
  4806                           INDF equ 00h ;# 
  4807                           # 52 "/Applications/microchip/xc8/v1.12/include/pic16lf707.h"
  4808  0C6F                     __ptext683:	;psect for function _Send_Packet
  4809                           opt subtitle "HI-TECH Software Omniscient Code Generator (Lite mode) build 49521"
  4810                           
  4811                           opt pagewidth 120
  4812                           
  4813  0064                     	__size_of_Send_Packet	equ	__end_of_Send_Packet-_Send_Packet
  4814                           opt subtitle "HI-TECH Software Omniscient Code Generator (Lite mode) build 49521"
  4815  0C6F                     _Send_Packet:	
  4816                           opt subtitle "HI-TECH Software Omniscient Code Generator (Lite mode) build 49521"
  4817                           
  4818                           opt pagewidth 120
  4819                           
  4820  0C6F  1283               	bcf	status, 5	;RP0=0, select bank0
  4821  0C70  1303               	bcf	status, 6	;RP1=0, select bank0
  4822  0C71  00AC               	movwf	(Send_Packet@type)
  4823                           opt subtitle "HI-TECH Software Omniscient Code Generator (Lite mode) build 49521"
  4824  0C72                     l2740:	
  4825                           opt subtitle "HI-TECH Software Omniscient Code Generator (Lite mode) build 49521"
  4826                           
  4827  0C72  120A  158A  2305   	fcall	_SwitchToTxMode
              120A  158A         
  4828                           opt subtitle "HI-TECH Software Omniscient Code Generator (Lite mode) build 49521"
  4829                           
  4830  0C77  3017               	movlw	(017h)
  4831  0C78  120A  158A  223E   	fcall	_SPI_Read_Reg
              120A  158A         
  4832  0C7D  1283               	bcf	status, 5	;RP0=0, select bank0
  4833  0C7E  1303               	bcf	status, 6	;RP1=0, select bank0
  4834  0C7F  00AA               	movwf	(??_Send_Packet+0)+0
  4835  0C80  082A               	movf	(??_Send_Packet+0)+0,w
  4836  0C81  00AD               	movwf	(Send_Packet@fifo_sta)
  4837                           opt subtitle "HI-TECH Software Omniscient Code Generator (Lite mode) build 49521"
  4838                           
  4839  0C82                     l2742:	
  4840                           opt subtitle "HI-TECH Software Omniscient Code Generator (Lite mode) build 49521"
  4841  0C82  1AAD               	btfsc	(Send_Packet@fifo_sta),(5)&7
  4842  0C83  2C85               	goto	u2021
  4843  0C84  2C86               	goto	u2020
  4844  0C85                     u2021:
  4845  0C85  2CD2               	goto	l262
  4846  0C86                     u2020:
  4847                           opt subtitle "HI-TECH Software Omniscient Code Generator (Lite mode) build 49521"
  4848                           
  4849  0C86                     l2744:	
  4850                           opt subtitle "HI-TECH Software Omniscient Code Generator (Lite mode) build 49521"
  4851                           
  4852  0C86  1107               	bcf	(7),2	;volatile
  4853                           opt subtitle "HI-TECH Software Omniscient Code Generator (Lite mode) build 49521"
  4854                           
  4855  0C87                     l2746:	
  4856                           opt subtitle "HI-TECH Software Omniscient Code Generator (Lite mode) build 49521"
  4857  0C87  0828               	movf	(Send_Packet@pbuf),w
  4858  0C88  00AA               	movwf	(??_Send_Packet+0)+0
  4859  0C89  082A               	movf	(??_Send_Packet+0)+0,w
  4860  0C8A  00A3               	movwf	(?_SPI_Write_Buf)
  4861  0C8B  0829               	movf	(Send_Packet@len),w
  4862  0C8C  00AB               	movwf	(??_Send_Packet+1)+0
  4863  0C8D  082B               	movf	(??_Send_Packet+1)+0,w
  4864  0C8E  00A4               	movwf	0+(?_SPI_Write_Buf)+01h
  4865  0C8F  082C               	movf	(Send_Packet@type),w
  4866  0C90  120A  158A  22DB   	fcall	_SPI_Write_Buf
              120A  158A         
  4867                           opt subtitle "HI-TECH Software Omniscient Code Generator (Lite mode) build 49521"
  4868                           
  4869  0C95                     l2748:	
  4870                           opt subtitle "HI-TECH Software Omniscient Code Generator (Lite mode) build 49521"
  4871  0C95  1283               	bcf	status, 5	;RP0=0, select bank0
  4872  0C96  1303               	bcf	status, 6	;RP1=0, select bank0
  4873  0C97  1507               	bsf	(7),2	;volatile
  4874                           opt subtitle "HI-TECH Software Omniscient Code Generator (Lite mode) build 49521"
  4875                           
  4876  0C98                     l2750:	
  4877                           opt subtitle "HI-TECH Software Omniscient Code Generator (Lite mode) build 49521"
  4878                           
  4879  0C98  3006               movlw	6
  4880  0C99  00AA               movwf	(??_Send_Packet+0)+0,f
  4881  0C9A                     u2967:
  4882  0C9A  0BAA               decfsz	(??_Send_Packet+0)+0,f
  4883  0C9B  2C9A               	goto	u2967
  4884  0C9C  0000               	nop
  4885                           opt subtitle "HI-TECH Software Omniscient Code Generator (Lite mode) build 49521"
  4886                           
  4887                           opt pagewidth 120
  4888                           
  4889  0C9D                     l2752:	
  4890                           opt subtitle "HI-TECH Software Omniscient Code Generator (Lite mode) build 49521"
  4891  0C9D  1283               	bcf	status, 5	;RP0=0, select bank0
  4892  0C9E  1303               	bcf	status, 6	;RP1=0, select bank0
  4893  0C9F  1107               	bcf	(7),2	;volatile
  4894                           opt subtitle "HI-TECH Software Omniscient Code Generator (Lite mode) build 49521"
  4895                           
  4896  0CA0                     l2754:	
  4897                           opt subtitle "HI-TECH Software Omniscient Code Generator (Lite mode) build 49521"
  4898                           
  4899  0CA0  3003               movlw	3
  4900  0CA1  00AB               movwf	((??_Send_Packet+0)+0+1),f
  4901  0CA2  3097               	movlw	151
  4902  0CA3  00AA               movwf	((??_Send_Packet+0)+0),f
  4903  0CA4                     u2977:
  4904  0CA4  0BAA               	decfsz	((??_Send_Packet+0)+0),f
  4905  0CA5  2CA4               	goto	u2977
  4906  0CA6  0BAB               	decfsz	((??_Send_Packet+0)+0+1),f
  4907  0CA7  2CA4               	goto	u2977
  4908  0CA8  2CA9               	nop2
  4909                           opt subtitle "HI-TECH Software Omniscient Code Generator (Lite mode) build 49521"
  4910                           
  4911                           opt pagewidth 120
  4912                           
  4913  0CA9  2CCA               	goto	l2762
  4914                           opt subtitle "HI-TECH Software Omniscient Code Generator (Lite mode) build 49521"
  4915  0CAA                     l258:	
  4916                           opt subtitle "HI-TECH Software Omniscient Code Generator (Lite mode) build 49521"
  4917                           
  4918  0CAA                     l2756:	
  4919                           opt subtitle "HI-TECH Software Omniscient Code Generator (Lite mode) build 49521"
  4920  0CAA  120A  158A  2276   	fcall	_rfm70TxDataSentInterrupt
              120A  158A         
  4921  0CAF  3A00               	xorlw	0
  4922  0CB0  1903               	skipnz
  4923  0CB1  2CB3               	goto	u2031
  4924  0CB2  2CB4               	goto	u2030
  4925  0CB3                     u2031:
  4926  0CB3  2CB9               	goto	l259
  4927  0CB4                     u2030:
  4928                           opt subtitle "HI-TECH Software Omniscient Code Generator (Lite mode) build 49521"
  4929                           
  4930  0CB4                     l2758:	
  4931                           opt subtitle "HI-TECH Software Omniscient Code Generator (Lite mode) build 49521"
  4932  0CB4  120A  158A  2430   	fcall	_SwitchToRxMode
              120A  158A         
  4933                           opt subtitle "HI-TECH Software Omniscient Code Generator (Lite mode) build 49521"
  4934                           
  4935  0CB9                     l259:	
  4936                           opt subtitle "HI-TECH Software Omniscient Code Generator (Lite mode) build 49521"
  4937                           
  4938                           opt pagewidth 120
  4939  0CB9  120A  158A  2257   	fcall	_rfm70TxDataSentErrorInterrupt
              120A  158A         
  4940  0CBE  3A00               	xorlw	0
  4941  0CBF  1903               	skipnz
  4942  0CC0  2CC2               	goto	u2041
  4943  0CC1  2CC3               	goto	u2040
  4944  0CC2                     u2041:
  4945  0CC2  2CCA               	goto	l2762
  4946  0CC3                     u2040:
  4947                           opt subtitle "HI-TECH Software Omniscient Code Generator (Lite mode) build 49521"
  4948                           
  4949  0CC3                     l2760:	
  4950                           opt subtitle "HI-TECH Software Omniscient Code Generator (Lite mode) build 49521"
  4951  0CC3  120A  158A  2430   	fcall	_SwitchToRxMode
              120A  158A         
  4952  0CC8  2CCA               	goto	l2762
  4953                           opt subtitle "HI-TECH Software Omniscient Code Generator (Lite mode) build 49521"
  4954                           
  4955  0CC9                     l260:	
  4956  0CC9  2CCA               	goto	l2762
  4957                           opt subtitle "HI-TECH Software Omniscient Code Generator (Lite mode) build 49521"
  4958                           
  4959  0CCA                     l257:	
  4960                           opt subtitle "HI-TECH Software Omniscient Code Generator (Lite mode) build 49521"
  4961                           
  4962  0CCA                     l2762:	
  4963  0CCA  1283               	bcf	status, 5	;RP0=0, select bank0
  4964  0CCB  1303               	bcf	status, 6	;RP1=0, select bank0
  4965  0CCC  1C88               	btfss	(8),1	;volatile
  4966  0CCD  2CCF               	goto	u2051
  4967  0CCE  2CD0               	goto	u2050
  4968  0CCF                     u2051:
  4969  0CCF  2CAA               	goto	l2756
  4970  0CD0                     u2050:
  4971  0CD0  2CD2               	goto	l262
  4972                           opt subtitle "HI-TECH Software Omniscient Code Generator (Lite mode) build 49521"
  4973  0CD1                     l261:	
  4974  0CD1  2CD2               	goto	l262
  4975                           opt subtitle "HI-TECH Software Omniscient Code Generator (Lite mode) build 49521"
  4976                           
  4977  0CD2                     l256:	
  4978                           opt subtitle "HI-TECH Software Omniscient Code Generator (Lite mode) build 49521"
  4979                           
  4980  0CD2                     l262:	
  4981  0CD2  0008               	return
  4982                           opt subtitle "HI-TECH Software Omniscient Code Generator (Lite mode) build 49521"
  4983                           
  4984  0CD3                     	__end_of_Send_Packet:
  4985                           opt subtitle "HI-TECH Software Omniscient Code Generator (Lite mode) build 49521"
  4986                           
  4987                           opt pagewidth 120
  4988                           
  4989                           	opt lm
  4990                           
  4991                           	processor	16LF707
  4992                           clrc	macro
  4993                           	bcf	3,0
  4994                           	endm
  4995                           clrz	macro
  4996                           	bcf	3,2
  4997                           	endm
  4998                           setc	macro
  4999                           	bsf	3,0
  5000                           	endm
  5001                           setz	macro
  5002                           	bsf	3,2
  5003                           	endm
  5004                           skipc	macro
  5005                           	btfss	3,0
  5006                           	endm
  5007                           skipz	macro
  5008                           	btfss	3,2
  5009                           	endm
  5010                           skipnc	macro
  5011                           	btfsc	3,0
  5012                           	endm
  5013                           skipnz	macro
  5014                           	btfsc	3,2
  5015                           	endm
  5016                           indf	equ	0
  5017                           indf0	equ	0
  5018                           pc	equ	2
  5019                           pcl	equ	2
  5020                           status	equ	3
  5021                           fsr	equ	4
  5022                           fsr0	equ	4
  5023  0513                     __ptext684:	;psect for function _sleep
  5024                           opt subtitle "HI-TECH Software Omniscient Code Generator (Lite mode) build 49521"
  5025                           
  5026                           opt pagewidth 120
  5027                           
  5028  0100                     	__size_of_sleep	equ	__end_of_sleep-_sleep
  5029                           opt subtitle "HI-TECH Software Omniscient Code Generator (Lite mode) build 49521"
  5030  0513                     _sleep:	
  5031                           opt subtitle "HI-TECH Software Omniscient Code Generator (Lite mode) build 49521"
  5032                           
  5033                           opt pagewidth 120
  5034                           
  5035  0513                     l2764:	
  5036                           opt subtitle "HI-TECH Software Omniscient Code Generator (Lite mode) build 49521"
  5037                           
  5038  0513  120A  158A  238D   	fcall	_adcReadVcap
              120A  118A         
  5039  0518  1283               	bcf	status, 5	;RP0=0, select bank0
  5040  0519  1303               	bcf	status, 6	;RP1=0, select bank0
  5041  051A  00BC               	movwf	(??_sleep+0)+0
  5042  051B  083C               	movf	(??_sleep+0)+0,w
  5043  051C  00D9               	movwf	(_value)
  5044                           opt subtitle "HI-TECH Software Omniscient Code Generator (Lite mode) build 49521"
  5045                           
  5046  051D  085A               	movf	(_charge_pulse_float),w
  5047  051E  00A0               	movwf	(?___fttol)
  5048  051F  085B               	movf	(_charge_pulse_float+1),w
  5049  0520  00A1               	movwf	(?___fttol+1)
  5050  0521  085C               	movf	(_charge_pulse_float+2),w
  5051  0522  00A2               	movwf	(?___fttol+2)
  5052  0523  120A  158A  269C   	fcall	___fttol
              120A  118A         
  5053  0528  1283               	bcf	status, 5	;RP0=0, select bank0
  5054  0529  1303               	bcf	status, 6	;RP1=0, select bank0
  5055  052A  0821               	movf	1+(((0+(?___fttol)))),w
  5056  052B  01CD               	clrf	(_charge_pulse+1)
  5057  052C  07CD               	addwf	(_charge_pulse+1)
  5058  052D  0820               	movf	0+(((0+(?___fttol)))),w
  5059  052E  01CC               	clrf	(_charge_pulse)
  5060  052F  07CC               	addwf	(_charge_pulse)
  5061                           opt subtitle "HI-TECH Software Omniscient Code Generator (Lite mode) build 49521"
  5062                           
  5063                           opt pagewidth 120
  5064  0530                     l2766:	
  5065                           opt subtitle "HI-TECH Software Omniscient Code Generator (Lite mode) build 49521"
  5066  0530  307A               	movlw	(07Ah)
  5067  0531  0259               	subwf	(_value),w
  5068  0532  1C03               	skipc
  5069  0533  2D35               	goto	u2061
  5070  0534  2D36               	goto	u2060
  5071  0535                     u2061:
  5072  0535  2E07               	goto	l195
  5073  0536                     u2060:
  5074                           opt subtitle "HI-TECH Software Omniscient Code Generator (Lite mode) build 49521"
  5075  0536                     l2768:	
  5076  0536  084D               	movf	(_charge_pulse+1),w
  5077  0537  044C               	iorwf	(_charge_pulse),w
  5078  0538  1903               	skipnz
  5079  0539  2D3B               	goto	u2071
  5080  053A  2D3C               	goto	u2070
  5081  053B                     u2071:
  5082  053B  2E07               	goto	l195
  5083  053C                     u2070:
  5084                           opt subtitle "HI-TECH Software Omniscient Code Generator (Lite mode) build 49521"
  5085  053C                     l2770:	
  5086  053C  1A88               	btfsc	(8),5	;volatile
  5087  053D  2D3F               	goto	u2081
  5088  053E  2D40               	goto	u2080
  5089  053F                     u2081:
  5090  053F  2E07               	goto	l195
  5091  0540                     u2080:
  5092                           opt subtitle "HI-TECH Software Omniscient Code Generator (Lite mode) build 49521"
  5093                           
  5094  0540                     l2772:	
  5095                           opt subtitle "HI-TECH Software Omniscient Code Generator (Lite mode) build 49521"
  5096  0540  1283               	bcf	status, 5	;RP0=0, select bank2
  5097  0541  1703               	bsf	status, 6	;RP1=1, select bank2
  5098  0542  0194               	clrf	(276)^0100h	;volatile
  5099                           opt subtitle "HI-TECH Software Omniscient Code Generator (Lite mode) build 49521"
  5100                           
  5101  0543                     l2774:	
  5102                           opt subtitle "HI-TECH Software Omniscient Code Generator (Lite mode) build 49521"
  5103  0543  30A0               	movlw	(0A0h)
  5104  0544  0093               	movwf	(275)^0100h	;volatile
  5105                           opt subtitle "HI-TECH Software Omniscient Code Generator (Lite mode) build 49521"
  5106                           
  5107  0545                     l2776:	
  5108                           opt subtitle "HI-TECH Software Omniscient Code Generator (Lite mode) build 49521"
  5109  0545  1283               	bcf	status, 5	;RP0=0, select bank0
  5110  0546  1303               	bcf	status, 6	;RP1=0, select bank0
  5111  0547  1010               	bcf	(16),0	;volatile
  5112                           opt subtitle "HI-TECH Software Omniscient Code Generator (Lite mode) build 49521"
  5113                           
  5114  0548                     l2778:	
  5115                           opt subtitle "HI-TECH Software Omniscient Code Generator (Lite mode) build 49521"
  5116  0548  084D               	movf	(_charge_pulse+1),w
  5117  0549  00BD               	movwf	(??_sleep+0)+0+1
  5118  054A  084C               	movf	(_charge_pulse),w
  5119  054B  00BC               	movwf	(??_sleep+0)+0
  5120  054C  3002               	movlw	02h
  5121  054D  00FF               	movwf	btemp+1
  5122  054E                     u2095:
  5123  054E  1003               	clrc
  5124  054F  0DBC               	rlf	(??_sleep+0)+0,f
  5125  0550  0DBD               	rlf	(??_sleep+0)+1,f
  5126  0551  0BFF               	decfsz	btemp+1,f
  5127  0552  2D4E               	goto	u2095
  5128  0553  09BC               	comf	(??_sleep+0)+0,f
  5129  0554  09BD               	comf	(??_sleep+0)+1,f
  5130  0555  0ABC               	incf	(??_sleep+0)+0,f
  5131  0556  1903               	skipnz
  5132  0557  0ABD               	incf	(??_sleep+0)+1,f
  5133  0558  083C               	movf	0+(??_sleep+0)+0,w
  5134  0559  00CE               	movwf	(_charge_time)
  5135  055A  083D               	movf	1+(??_sleep+0)+0,w
  5136  055B  00CF               	movwf	(_charge_time+1)
  5137                           opt subtitle "HI-TECH Software Omniscient Code Generator (Lite mode) build 49521"
  5138                           
  5139  055C                     l2780:	
  5140                           opt subtitle "HI-TECH Software Omniscient Code Generator (Lite mode) build 49521"
  5141  055C  084F               	movf	(_charge_time+1),w
  5142  055D  008F               	movwf	(15)	;volatile
  5143                           opt subtitle "HI-TECH Software Omniscient Code Generator (Lite mode) build 49521"
  5144                           
  5145  055E                     l2782:	
  5146                           opt subtitle "HI-TECH Software Omniscient Code Generator (Lite mode) build 49521"
  5147  055E  084E               	movf	(_charge_time),w
  5148  055F  008E               	movwf	(14)	;volatile
  5149                           opt subtitle "HI-TECH Software Omniscient Code Generator (Lite mode) build 49521"
  5150                           
  5151  0560                     l2784:	
  5152                           opt subtitle "HI-TECH Software Omniscient Code Generator (Lite mode) build 49521"
  5153  0560  1410               	bsf	(16),0	;volatile
  5154                           opt subtitle "HI-TECH Software Omniscient Code Generator (Lite mode) build 49521"
  5155                           
  5156  0561  0063               sleep ;# 
  5157                           opt subtitle "HI-TECH Software Omniscient Code Generator (Lite mode) build 49521"
  5158                           
  5159                           opt pagewidth 120
  5160  0562                     l2786:	
  5161                           opt subtitle "HI-TECH Software Omniscient Code Generator (Lite mode) build 49521"
  5162  0562  1283               	bcf	status, 5	;RP0=0, select bank2
  5163  0563  1703               	bsf	status, 6	;RP1=1, select bank2
  5164  0564  0193               	clrf	(275)^0100h	;volatile
  5165                           opt subtitle "HI-TECH Software Omniscient Code Generator (Lite mode) build 49521"
  5166                           
  5167  0565                     l2788:	
  5168                           opt subtitle "HI-TECH Software Omniscient Code Generator (Lite mode) build 49521"
  5169  0565  1283               	bcf	status, 5	;RP0=0, select bank0
  5170  0566  1303               	bcf	status, 6	;RP1=0, select bank0
  5171  0567  1505               	bsf	(5),2	;volatile
  5172                           opt subtitle "HI-TECH Software Omniscient Code Generator (Lite mode) build 49521"
  5173                           
  5174  0568                     l2790:	
  5175                           opt subtitle "HI-TECH Software Omniscient Code Generator (Lite mode) build 49521"
  5176  0568  120A  158A  238D   	fcall	_adcReadVcap
              120A  118A         
  5177  056D  1283               	bcf	status, 5	;RP0=0, select bank0
  5178  056E  1303               	bcf	status, 6	;RP1=0, select bank0
  5179  056F  00BC               	movwf	(??_sleep+0)+0
  5180  0570  083C               	movf	(??_sleep+0)+0,w
  5181  0571  00BE               	movwf	(sleep@new_value)
  5182                           opt subtitle "HI-TECH Software Omniscient Code Generator (Lite mode) build 49521"
  5183                           
  5184  0572                     l2792:	
  5185                           opt subtitle "HI-TECH Software Omniscient Code Generator (Lite mode) build 49521"
  5186  0572  094E               	comf	(_charge_time),w
  5187  0573  00BC               	movwf	(??_sleep+0)+0
  5188  0574  094F               	comf	(_charge_time+1),w
  5189  0575  00BD               	movwf	((??_sleep+0)+0+1)
  5190  0576  0ABC               	incf	(??_sleep+0)+0,f
  5191  0577  1903               	skipnz
  5192  0578  0ABD               	incf	((??_sleep+0)+0+1),f
  5193  0579  083C               	movf	0+(??_sleep+0)+0,w
  5194  057A  3E00               	addlw	low(01000h)
  5195  057B  00CE               	movwf	(_charge_time)
  5196  057C  083D               	movf	1+(??_sleep+0)+0,w
  5197  057D  1803               	skipnc
  5198  057E  3E01               	addlw	1
  5199  057F  3E10               	addlw	high(01000h)
  5200  0580  00CF               	movwf	1+(_charge_time)
  5201                           opt subtitle "HI-TECH Software Omniscient Code Generator (Lite mode) build 49521"
  5202                           
  5203  0581                     l2794:	
  5204                           opt subtitle "HI-TECH Software Omniscient Code Generator (Lite mode) build 49521"
  5205  0581  1010               	bcf	(16),0	;volatile
  5206                           opt subtitle "HI-TECH Software Omniscient Code Generator (Lite mode) build 49521"
  5207                           
  5208  0582                     l2796:	
  5209                           opt subtitle "HI-TECH Software Omniscient Code Generator (Lite mode) build 49521"
  5210  0582  084F               	movf	(_charge_time+1),w
  5211  0583  008F               	movwf	(15)	;volatile
  5212                           opt subtitle "HI-TECH Software Omniscient Code Generator (Lite mode) build 49521"
  5213                           
  5214  0584                     l2798:	
  5215                           opt subtitle "HI-TECH Software Omniscient Code Generator (Lite mode) build 49521"
  5216  0584  084E               	movf	(_charge_time),w
  5217  0585  008E               	movwf	(14)	;volatile
  5218                           opt subtitle "HI-TECH Software Omniscient Code Generator (Lite mode) build 49521"
  5219                           
  5220  0586                     l2800:	
  5221                           opt subtitle "HI-TECH Software Omniscient Code Generator (Lite mode) build 49521"
  5222  0586  1410               	bsf	(16),0	;volatile
  5223                           opt subtitle "HI-TECH Software Omniscient Code Generator (Lite mode) build 49521"
  5224                           
  5225  0587  0063               sleep ;# 
  5226                           opt subtitle "HI-TECH Software Omniscient Code Generator (Lite mode) build 49521"
  5227                           
  5228                           opt pagewidth 120
  5229  0588                     l2802:	
  5230                           opt subtitle "HI-TECH Software Omniscient Code Generator (Lite mode) build 49521"
  5231  0588  1283               	bcf	status, 5	;RP0=0, select bank0
  5232  0589  1303               	bcf	status, 6	;RP1=0, select bank0
  5233  058A  083E               	movf	(sleep@new_value),w
  5234  058B  0259               	subwf	(_value),w
  5235  058C  1803               	skipnc
  5236  058D  2D8F               	goto	u2101
  5237  058E  2D90               	goto	u2100
  5238  058F                     u2101:
  5239  058F  2D94               	goto	l196
  5240  0590                     u2100:
  5241                           opt subtitle "HI-TECH Software Omniscient Code Generator (Lite mode) build 49521"
  5242                           
  5243  0590                     l2804:	
  5244                           opt subtitle "HI-TECH Software Omniscient Code Generator (Lite mode) build 49521"
  5245  0590  0859               	movf	(_value),w
  5246  0591  00BC               	movwf	(??_sleep+0)+0
  5247  0592  083C               	movf	(??_sleep+0)+0,w
  5248  0593  00BE               	movwf	(sleep@new_value)
  5249                           opt subtitle "HI-TECH Software Omniscient Code Generator (Lite mode) build 49521"
  5250  0594                     l196:	
  5251                           opt subtitle "HI-TECH Software Omniscient Code Generator (Lite mode) build 49521"
  5252                           
  5253  0594  0859               	movf	(_value),w
  5254  0595  00BC               	movwf	(??_sleep+0)+0
  5255  0596  083C               	movf	(??_sleep+0)+0,w
  5256  0597  00D4               	movwf	(_values)
  5257                           opt subtitle "HI-TECH Software Omniscient Code Generator (Lite mode) build 49521"
  5258                           
  5259  0598  083E               	movf	(sleep@new_value),w
  5260  0599  00BC               	movwf	(??_sleep+0)+0
  5261  059A  083C               	movf	(??_sleep+0)+0,w
  5262  059B  00D5               	movwf	0+(_values)+01h
  5263                           opt subtitle "HI-TECH Software Omniscient Code Generator (Lite mode) build 49521"
  5264                           
  5265  059C  3059               	movlw	(059h)
  5266  059D  023E               	subwf	(sleep@new_value),w
  5267  059E  1C03               	skipc
  5268  059F  2DA1               	goto	u2111
  5269  05A0  2DA2               	goto	u2110
  5270  05A1                     u2111:
  5271  05A1  2DD4               	goto	l2810
  5272  05A2                     u2110:
  5273                           opt subtitle "HI-TECH Software Omniscient Code Generator (Lite mode) build 49521"
  5274                           
  5275  05A2                     l2806:	
  5276                           opt subtitle "HI-TECH Software Omniscient Code Generator (Lite mode) build 49521"
  5277  05A2  085A               	movf	(_charge_pulse_float),w
  5278  05A3  00B0               	movwf	(?___ftge)
  5279  05A4  085B               	movf	(_charge_pulse_float+1),w
  5280  05A5  00B1               	movwf	(?___ftge+1)
  5281  05A6  085C               	movf	(_charge_pulse_float+2),w
  5282  05A7  00B2               	movwf	(?___ftge+2)
  5283  05A8  3040               	movlw	0x40
  5284  05A9  00B3               	movwf	0+(?___ftge)+03h
  5285  05AA  301C               	movlw	0x1c
  5286  05AB  00B4               	movwf	1+(?___ftge)+03h
  5287  05AC  3046               	movlw	0x46
  5288  05AD  00B5               	movwf	2+(?___ftge)+03h
  5289  05AE  120A  158A  253D   	fcall	___ftge
              120A  118A         
  5290  05B3  1803               	btfsc	status,0
  5291  05B4  2DB6               	goto	u2121
  5292  05B5  2DB7               	goto	u2120
  5293  05B6                     u2121:
  5294  05B6  2E12               	goto	l202
  5295  05B7                     u2120:
  5296                           opt subtitle "HI-TECH Software Omniscient Code Generator (Lite mode) build 49521"
  5297                           
  5298  05B7                     l2808:	
  5299                           opt subtitle "HI-TECH Software Omniscient Code Generator (Lite mode) build 49521"
  5300  05B7  3066               	movlw	0x66
  5301  05B8  1283               	bcf	status, 5	;RP0=0, select bank0
  5302  05B9  1303               	bcf	status, 6	;RP1=0, select bank0
  5303  05BA  00A8               	movwf	(?___ftmul)
  5304  05BB  3086               	movlw	0x86
  5305  05BC  00A9               	movwf	(?___ftmul+1)
  5306  05BD  303F               	movlw	0x3f
  5307  05BE  00AA               	movwf	(?___ftmul+2)
  5308  05BF  085A               	movf	(_charge_pulse_float),w
  5309  05C0  00AB               	movwf	0+(?___ftmul)+03h
  5310  05C1  085B               	movf	(_charge_pulse_float+1),w
  5311  05C2  00AC               	movwf	1+(?___ftmul)+03h
  5312  05C3  085C               	movf	(_charge_pulse_float+2),w
  5313  05C4  00AD               	movwf	2+(?___ftmul)+03h
  5314  05C5  120A  118A  2613   	fcall	___ftmul
              120A  118A         
  5315  05CA  1283               	bcf	status, 5	;RP0=0, select bank0
  5316  05CB  1303               	bcf	status, 6	;RP1=0, select bank0
  5317  05CC  0828               	movf	(0+(?___ftmul)),w
  5318  05CD  00DA               	movwf	(_charge_pulse_float)
  5319  05CE  0829               	movf	(1+(?___ftmul)),w
  5320  05CF  00DB               	movwf	(_charge_pulse_float+1)
  5321  05D0  082A               	movf	(2+(?___ftmul)),w
  5322  05D1  00DC               	movwf	(_charge_pulse_float+2)
  5323  05D2  2E12               	goto	l202
  5324                           opt subtitle "HI-TECH Software Omniscient Code Generator (Lite mode) build 49521"
  5325  05D3                     l198:	
  5326                           opt subtitle "HI-TECH Software Omniscient Code Generator (Lite mode) build 49521"
  5327                           
  5328  05D3  2E12               	goto	l202
  5329                           opt subtitle "HI-TECH Software Omniscient Code Generator (Lite mode) build 49521"
  5330                           
  5331  05D4                     l197:	
  5332                           opt subtitle "HI-TECH Software Omniscient Code Generator (Lite mode) build 49521"
  5333                           
  5334  05D4                     l2810:	
  5335                           opt subtitle "HI-TECH Software Omniscient Code Generator (Lite mode) build 49521"
  5336                           
  5337  05D4  3000               	movlw	0x0
  5338  05D5  00B0               	movwf	(?___ftge)
  5339  05D6  3000               	movlw	0x0
  5340  05D7  00B1               	movwf	(?___ftge+1)
  5341  05D8  3000               	movlw	0x0
  5342  05D9  00B2               	movwf	(?___ftge+2)
  5343  05DA  085A               	movf	(_charge_pulse_float),w
  5344  05DB  00B3               	movwf	0+(?___ftge)+03h
  5345  05DC  085B               	movf	(_charge_pulse_float+1),w
  5346  05DD  00B4               	movwf	1+(?___ftge)+03h
  5347  05DE  085C               	movf	(_charge_pulse_float+2),w
  5348  05DF  00B5               	movwf	2+(?___ftge)+03h
  5349  05E0  120A  158A  253D   	fcall	___ftge
              120A  118A         
  5350  05E5  1803               	btfsc	status,0
  5351  05E6  2DE8               	goto	u2131
  5352  05E7  2DE9               	goto	u2130
  5353  05E8                     u2131:
  5354  05E8  2E12               	goto	l202
  5355  05E9                     u2130:
  5356                           opt subtitle "HI-TECH Software Omniscient Code Generator (Lite mode) build 49521"
  5357                           
  5358  05E9                     l2812:	
  5359                           opt subtitle "HI-TECH Software Omniscient Code Generator (Lite mode) build 49521"
  5360  05E9  3066               	movlw	0x66
  5361  05EA  1283               	bcf	status, 5	;RP0=0, select bank0
  5362  05EB  1303               	bcf	status, 6	;RP1=0, select bank0
  5363  05EC  00A8               	movwf	(?___ftdiv)
  5364  05ED  3086               	movlw	0x86
  5365  05EE  00A9               	movwf	(?___ftdiv+1)
  5366  05EF  303F               	movlw	0x3f
  5367  05F0  00AA               	movwf	(?___ftdiv+2)
  5368  05F1  085A               	movf	(_charge_pulse_float),w
  5369  05F2  00AB               	movwf	0+(?___ftdiv)+03h
  5370  05F3  085B               	movf	(_charge_pulse_float+1),w
  5371  05F4  00AC               	movwf	1+(?___ftdiv)+03h
  5372  05F5  085C               	movf	(_charge_pulse_float+2),w
  5373  05F6  00AD               	movwf	2+(?___ftdiv)+03h
  5374  05F7  120A  118A  2701   	fcall	___ftdiv
              120A  118A         
  5375  05FC  1283               	bcf	status, 5	;RP0=0, select bank0
  5376  05FD  1303               	bcf	status, 6	;RP1=0, select bank0
  5377  05FE  0828               	movf	(0+(?___ftdiv)),w
  5378  05FF  00DA               	movwf	(_charge_pulse_float)
  5379  0600  0829               	movf	(1+(?___ftdiv)),w
  5380  0601  00DB               	movwf	(_charge_pulse_float+1)
  5381  0602  082A               	movf	(2+(?___ftdiv)),w
  5382  0603  00DC               	movwf	(_charge_pulse_float+2)
  5383  0604  2E12               	goto	l202
  5384                           opt subtitle "HI-TECH Software Omniscient Code Generator (Lite mode) build 49521"
  5385  0605                     l200:	
  5386  0605  2E12               	goto	l202
  5387                           opt subtitle "HI-TECH Software Omniscient Code Generator (Lite mode) build 49521"
  5388                           
  5389  0606                     l199:	
  5390                           opt subtitle "HI-TECH Software Omniscient Code Generator (Lite mode) build 49521"
  5391                           
  5392                           opt pagewidth 120
  5393  0606  2E12               	goto	l202
  5394                           opt subtitle "HI-TECH Software Omniscient Code Generator (Lite mode) build 49521"
  5395                           
  5396  0607                     l195:	
  5397                           opt subtitle "HI-TECH Software Omniscient Code Generator (Lite mode) build 49521"
  5398                           
  5399                           opt pagewidth 120
  5400  0607  1010               	bcf	(16),0	;volatile
  5401                           opt subtitle "HI-TECH Software Omniscient Code Generator (Lite mode) build 49521"
  5402                           
  5403  0608                     l2814:	
  5404                           opt subtitle "HI-TECH Software Omniscient Code Generator (Lite mode) build 49521"
  5405  0608  3010               	movlw	(010h)
  5406  0609  008F               	movwf	(15)	;volatile
  5407                           opt subtitle "HI-TECH Software Omniscient Code Generator (Lite mode) build 49521"
  5408                           
  5409  060A                     l2816:	
  5410                           opt subtitle "HI-TECH Software Omniscient Code Generator (Lite mode) build 49521"
  5411  060A  018E               	clrf	(14)	;volatile
  5412                           opt subtitle "HI-TECH Software Omniscient Code Generator (Lite mode) build 49521"
  5413                           
  5414  060B                     l2818:	
  5415                           opt subtitle "HI-TECH Software Omniscient Code Generator (Lite mode) build 49521"
  5416  060B  1410               	bsf	(16),0	;volatile
  5417                           opt subtitle "HI-TECH Software Omniscient Code Generator (Lite mode) build 49521"
  5418                           
  5419  060C  0063               sleep ;# 
  5420                           opt subtitle "HI-TECH Software Omniscient Code Generator (Lite mode) build 49521"
  5421                           
  5422                           opt pagewidth 120
  5423  060D                     l2820:	
  5424                           opt subtitle "HI-TECH Software Omniscient Code Generator (Lite mode) build 49521"
  5425  060D  1283               	bcf	status, 5	;RP0=0, select bank0
  5426  060E  1303               	bcf	status, 6	;RP1=0, select bank0
  5427  060F  01D4               	clrf	(_values)
  5428                           opt subtitle "HI-TECH Software Omniscient Code Generator (Lite mode) build 49521"
  5429                           
  5430  0610                     l2822:	
  5431                           opt subtitle "HI-TECH Software Omniscient Code Generator (Lite mode) build 49521"
  5432  0610  01D5               	clrf	0+(_values)+01h
  5433  0611  2E12               	goto	l202
  5434                           opt subtitle "HI-TECH Software Omniscient Code Generator (Lite mode) build 49521"
  5435                           
  5436  0612                     l201:	
  5437                           opt subtitle "HI-TECH Software Omniscient Code Generator (Lite mode) build 49521"
  5438                           
  5439  0612                     l202:	
  5440  0612  0008               	return
  5441                           opt subtitle "HI-TECH Software Omniscient Code Generator (Lite mode) build 49521"
  5442                           
  5443  0613                     	__end_of_sleep:
  5444                           opt subtitle "HI-TECH Software Omniscient Code Generator (Lite mode) build 49521"
  5445                           
  5446                           opt pagewidth 120
  5447                           
  5448                           	opt lm
  5449                           
  5450                           	processor	16LF707
  5451                           clrc	macro
  5452                           	bcf	3,0
  5453                           	endm
  5454                           clrz	macro
  5455                           	bcf	3,2
  5456                           	endm
  5457                           setc	macro
  5458                           	bsf	3,0
  5459                           	endm
  5460                           setz	macro
  5461                           	bsf	3,2
  5462                           	endm
  5463                           skipc	macro
  5464                           	btfss	3,0
  5465                           	endm
  5466                           skipz	macro
  5467                           	btfss	3,2
  5468                           	endm
  5469                           skipnc	macro
  5470                           	btfsc	3,0
  5471                           	endm
  5472                           skipnz	macro
  5473                           	btfsc	3,2
  5474                           	endm
  5475                           indf	equ	0
  5476                           indf0	equ	0
  5477                           pc	equ	2
  5478                           pcl	equ	2
  5479  0B8D                     __ptext685:	;psect for function _adcReadVcap
  5480                           opt subtitle "HI-TECH Software Omniscient Code Generator (Lite mode) build 49521"
  5481                           
  5482                           opt pagewidth 120
  5483                           
  5484  0033                     	__size_of_adcReadVcap	equ	__end_of_adcReadVcap-_adcReadVcap
  5485                           opt subtitle "HI-TECH Software Omniscient Code Generator (Lite mode) build 49521"
  5486  0B8D                     _adcReadVcap:	
  5487                           opt subtitle "HI-TECH Software Omniscient Code Generator (Lite mode) build 49521"
  5488                           
  5489                           opt pagewidth 120
  5490                           
  5491  0B8D                     l2530:	
  5492                           opt subtitle "HI-TECH Software Omniscient Code Generator (Lite mode) build 49521"
  5493                           
  5494  0B8D  1683               	bsf	status, 5	;RP0=1, select bank1
  5495  0B8E  1303               	bcf	status, 6	;RP1=0, select bank1
  5496  0B8F  171D               	bsf	(157)^080h,6	;volatile
  5497                           opt subtitle "HI-TECH Software Omniscient Code Generator (Lite mode) build 49521"
  5498                           
  5499  0B90                     l2532:	
  5500                           opt subtitle "HI-TECH Software Omniscient Code Generator (Lite mode) build 49521"
  5501  0B90  1283               	bcf	status, 5	;RP0=0, select bank0
  5502  0B91  1303               	bcf	status, 6	;RP1=0, select bank0
  5503  0B92  081F               	movf	(31),w	;volatile
  5504  0B93  39C3               	andlw	not (((1<<4)-1)<<2)
  5505  0B94  3814               	iorlw	(05h & ((1<<4)-1))<<2
  5506  0B95  009F               	movwf	(31)	;volatile
  5507                           opt subtitle "HI-TECH Software Omniscient Code Generator (Lite mode) build 49521"
  5508                           
  5509  0B96  1683               	bsf	status, 5	;RP0=1, select bank1
  5510  0B97  1303               	bcf	status, 6	;RP1=0, select bank1
  5511  0B98  081D               	movf	(157)^080h,w	;volatile
  5512  0B99  39FC               	andlw	not (((1<<2)-1)<<0)
  5513  0B9A  3802               	iorlw	(02h & ((1<<2)-1))<<0
  5514  0B9B  009D               	movwf	(157)^080h	;volatile
  5515                           opt subtitle "HI-TECH Software Omniscient Code Generator (Lite mode) build 49521"
  5516                           
  5517  0B9C                     l2534:	
  5518                           opt subtitle "HI-TECH Software Omniscient Code Generator (Lite mode) build 49521"
  5519  0B9C  1283               	bcf	status, 5	;RP0=0, select bank0
  5520  0B9D  1303               	bcf	status, 6	;RP1=0, select bank0
  5521  0B9E  141F               	bsf	(31),0	;volatile
  5522                           opt subtitle "HI-TECH Software Omniscient Code Generator (Lite mode) build 49521"
  5523                           
  5524  0B9F                     l2536:	
  5525                           opt subtitle "HI-TECH Software Omniscient Code Generator (Lite mode) build 49521"
  5526  0B9F  1588               	bsf	(8),3	;volatile
  5527                           opt subtitle "HI-TECH Software Omniscient Code Generator (Lite mode) build 49521"
  5528                           
  5529  0BA0                     l2538:	
  5530                           opt subtitle "HI-TECH Software Omniscient Code Generator (Lite mode) build 49521"
  5531                           
  5532  0BA0  3003               movlw	3
  5533  0BA1  00A1               movwf	((??_adcReadVcap+0)+0+1),f
  5534  0BA2  3097               	movlw	151
  5535  0BA3  00A0               movwf	((??_adcReadVcap+0)+0),f
  5536  0BA4                     u2987:
  5537  0BA4  0BA0               	decfsz	((??_adcReadVcap+0)+0),f
  5538  0BA5  2BA4               	goto	u2987
  5539  0BA6  0BA1               	decfsz	((??_adcReadVcap+0)+0+1),f
  5540  0BA7  2BA4               	goto	u2987
  5541  0BA8  2BA9               	nop2
  5542                           opt subtitle "HI-TECH Software Omniscient Code Generator (Lite mode) build 49521"
  5543                           
  5544                           opt pagewidth 120
  5545                           
  5546  0BA9                     l2540:	
  5547                           opt subtitle "HI-TECH Software Omniscient Code Generator (Lite mode) build 49521"
  5548  0BA9  1283               	bcf	status, 5	;RP0=0, select bank0
  5549  0BAA  1303               	bcf	status, 6	;RP1=0, select bank0
  5550  0BAB  149F               	bsf	(31),1	;volatile
  5551                           opt subtitle "HI-TECH Software Omniscient Code Generator (Lite mode) build 49521"
  5552                           
  5553  0BAC  2BAD               	goto	l214
  5554                           opt subtitle "HI-TECH Software Omniscient Code Generator (Lite mode) build 49521"
  5555  0BAD                     l215:	
  5556                           opt subtitle "HI-TECH Software Omniscient Code Generator (Lite mode) build 49521"
  5557  0BAD                     l214:	
  5558  0BAD  189F               	btfsc	(31),1	;volatile
  5559  0BAE  2BB0               	goto	u1661
  5560  0BAF  2BB1               	goto	u1660
  5561  0BB0                     u1661:
  5562  0BB0  2BAD               	goto	l214
  5563  0BB1                     u1660:
  5564  0BB1  2BB2               	goto	l2542
  5565                           opt subtitle "HI-TECH Software Omniscient Code Generator (Lite mode) build 49521"
  5566  0BB2                     l216:	
  5567                           opt subtitle "HI-TECH Software Omniscient Code Generator (Lite mode) build 49521"
  5568                           
  5569  0BB2                     l2542:	
  5570                           opt subtitle "HI-TECH Software Omniscient Code Generator (Lite mode) build 49521"
  5571  0BB2  081E               	movf	(30),w	;volatile
  5572  0BB3  00A0               	movwf	(??_adcReadVcap+0)+0
  5573  0BB4  0820               	movf	(??_adcReadVcap+0)+0,w
  5574  0BB5  00A2               	movwf	(adcReadVcap@value)
  5575                           opt subtitle "HI-TECH Software Omniscient Code Generator (Lite mode) build 49521"
  5576                           
  5577  0BB6                     l2544:	
  5578                           opt subtitle "HI-TECH Software Omniscient Code Generator (Lite mode) build 49521"
  5579  0BB6  101F               	bcf	(31),0	;volatile
  5580                           opt subtitle "HI-TECH Software Omniscient Code Generator (Lite mode) build 49521"
  5581                           
  5582  0BB7                     l2546:	
  5583                           opt subtitle "HI-TECH Software Omniscient Code Generator (Lite mode) build 49521"
  5584  0BB7  1188               	bcf	(8),3	;volatile
  5585                           opt subtitle "HI-TECH Software Omniscient Code Generator (Lite mode) build 49521"
  5586                           
  5587  0BB8                     l2548:	
  5588                           opt subtitle "HI-TECH Software Omniscient Code Generator (Lite mode) build 49521"
  5589  0BB8  1683               	bsf	status, 5	;RP0=1, select bank1
  5590  0BB9  1303               	bcf	status, 6	;RP1=0, select bank1
  5591  0BBA  131D               	bcf	(157)^080h,6	;volatile
  5592                           opt subtitle "HI-TECH Software Omniscient Code Generator (Lite mode) build 49521"
  5593                           
  5594  0BBB  1283               	bcf	status, 5	;RP0=0, select bank0
  5595  0BBC  1303               	bcf	status, 6	;RP1=0, select bank0
  5596  0BBD  0822               	movf	(adcReadVcap@value),w
  5597  0BBE  2BBF               	goto	l217
  5598                           opt subtitle "HI-TECH Software Omniscient Code Generator (Lite mode) build 49521"
  5599  0BBF                     l2550:	
  5600                           opt subtitle "HI-TECH Software Omniscient Code Generator (Lite mode) build 49521"
  5601                           
  5602  0BBF                     l217:	
  5603  0BBF  0008               	return
  5604                           opt subtitle "HI-TECH Software Omniscient Code Generator (Lite mode) build 49521"
  5605                           
  5606  0BC0                     	__end_of_adcReadVcap:
  5607                           opt subtitle "HI-TECH Software Omniscient Code Generator (Lite mode) build 49521"
  5608                           
  5609                           opt pagewidth 120
  5610                           
  5611                           	opt lm
  5612                           
  5613                           	processor	16LF707
  5614                           clrc	macro
  5615                           	bcf	3,0
  5616                           	endm
  5617                           clrz	macro
  5618                           	bcf	3,2
  5619                           	endm
  5620                           setc	macro
  5621                           	bsf	3,0
  5622                           	endm
  5623                           setz	macro
  5624                           	bsf	3,2
  5625                           	endm
  5626                           skipc	macro
  5627                           	btfss	3,0
  5628                           	endm
  5629                           skipz	macro
  5630                           	btfss	3,2
  5631                           	endm
  5632                           skipnc	macro
  5633                           	btfsc	3,0
  5634                           	endm
  5635                           skipnz	macro
  5636                           	btfsc	3,2
  5637                           	endm
  5638                           indf	equ	0
  5639                           indf0	equ	0
  5640                           pc	equ	2
  5641                           pcl	equ	2
  5642  0B05                     __ptext686:	;psect for function _SwitchToTxMode
  5643                           opt subtitle "HI-TECH Software Omniscient Code Generator (Lite mode) build 49521"
  5644                           
  5645                           opt pagewidth 120
  5646                           
  5647  002A                     	__size_of_SwitchToTxMode	equ	__end_of_SwitchToTxMode-_SwitchToTxMode
  5648                           opt subtitle "HI-TECH Software Omniscient Code Generator (Lite mode) build 49521"
  5649  0B05                     _SwitchToTxMode:	
  5650                           opt subtitle "HI-TECH Software Omniscient Code Generator (Lite mode) build 49521"
  5651                           
  5652                           opt pagewidth 120
  5653                           
  5654  0B05                     l2824:	
  5655                           opt subtitle "HI-TECH Software Omniscient Code Generator (Lite mode) build 49521"
  5656                           
  5657  0B05  1283               	bcf	status, 5	;RP0=0, select bank0
  5658  0B06  1303               	bcf	status, 6	;RP1=0, select bank0
  5659  0B07  01A3               	clrf	(?_SPI_Write_Reg)
  5660  0B08  30E1               	movlw	(0E1h)
  5661  0B09  120A  158A  21E1   	fcall	_SPI_Write_Reg
              120A  158A         
  5662                           opt subtitle "HI-TECH Software Omniscient Code Generator (Lite mode) build 49521"
  5663                           
  5664  0B0E                     l2826:	
  5665                           opt subtitle "HI-TECH Software Omniscient Code Generator (Lite mode) build 49521"
  5666  0B0E  1283               	bcf	status, 5	;RP0=0, select bank0
  5667  0B0F  1303               	bcf	status, 6	;RP1=0, select bank0
  5668  0B10  1107               	bcf	(7),2	;volatile
  5669                           opt subtitle "HI-TECH Software Omniscient Code Generator (Lite mode) build 49521"
  5670                           
  5671  0B11  3000               	movlw	(0)
  5672  0B12  120A  158A  223E   	fcall	_SPI_Read_Reg
              120A  158A         
  5673  0B17  1283               	bcf	status, 5	;RP0=0, select bank0
  5674  0B18  1303               	bcf	status, 6	;RP1=0, select bank0
  5675  0B19  00A6               	movwf	(??_SwitchToTxMode+0)+0
  5676  0B1A  0826               	movf	(??_SwitchToTxMode+0)+0,w
  5677  0B1B  00A7               	movwf	(SwitchToTxMode@value)
  5678                           opt subtitle "HI-TECH Software Omniscient Code Generator (Lite mode) build 49521"
  5679                           
  5680  0B1C                     l2828:	
  5681                           opt subtitle "HI-TECH Software Omniscient Code Generator (Lite mode) build 49521"
  5682  0B1C  0827               	movf	(SwitchToTxMode@value),w
  5683  0B1D  39FE               	andlw	0FEh
  5684  0B1E  00A6               	movwf	(??_SwitchToTxMode+0)+0
  5685  0B1F  0826               	movf	(??_SwitchToTxMode+0)+0,w
  5686  0B20  00A7               	movwf	(SwitchToTxMode@value)
  5687                           opt subtitle "HI-TECH Software Omniscient Code Generator (Lite mode) build 49521"
  5688                           
  5689  0B21                     l2830:	
  5690                           opt subtitle "HI-TECH Software Omniscient Code Generator (Lite mode) build 49521"
  5691  0B21  0827               	movf	(SwitchToTxMode@value),w
  5692  0B22  00A6               	movwf	(??_SwitchToTxMode+0)+0
  5693  0B23  0826               	movf	(??_SwitchToTxMode+0)+0,w
  5694  0B24  00A3               	movwf	(?_SPI_Write_Reg)
  5695  0B25  3020               	movlw	(020h)
  5696  0B26  120A  158A  21E1   	fcall	_SPI_Write_Reg
              120A  158A         
  5697                           opt subtitle "HI-TECH Software Omniscient Code Generator (Lite mode) build 49521"
  5698                           
  5699  0B2B                     l2832:	
  5700                           opt subtitle "HI-TECH Software Omniscient Code Generator (Lite mode) build 49521"
  5701  0B2B  1283               	bcf	status, 5	;RP0=0, select bank0
  5702  0B2C  1303               	bcf	status, 6	;RP1=0, select bank0
  5703  0B2D  1507               	bsf	(7),2	;volatile
  5704                           opt subtitle "HI-TECH Software Omniscient Code Generator (Lite mode) build 49521"
  5705                           
  5706  0B2E                     l329:	
  5707  0B2E  0008               	return
  5708                           opt subtitle "HI-TECH Software Omniscient Code Generator (Lite mode) build 49521"
  5709                           
  5710  0B2F                     	__end_of_SwitchToTxMode:
  5711                           opt subtitle "HI-TECH Software Omniscient Code Generator (Lite mode) build 49521"
  5712                           
  5713                           opt pagewidth 120
  5714                           
  5715                           	opt lm
  5716                           
  5717                           	processor	16LF707
  5718                           clrc	macro
  5719                           	bcf	3,0
  5720                           	endm
  5721                           clrz	macro
  5722                           	bcf	3,2
  5723                           	endm
  5724                           setc	macro
  5725                           	bsf	3,0
  5726                           	endm
  5727                           setz	macro
  5728                           	bsf	3,2
  5729                           	endm
  5730                           skipc	macro
  5731                           	btfss	3,0
  5732                           	endm
  5733                           skipz	macro
  5734                           	btfss	3,2
  5735                           	endm
  5736                           skipnc	macro
  5737                           	btfsc	3,0
  5738                           	endm
  5739                           skipnz	macro
  5740                           	btfsc	3,2
  5741                           	endm
  5742                           indf	equ	0
  5743                           indf0	equ	0
  5744                           pc	equ	2
  5745                           pcl	equ	2
  5746                           status	equ	3
  5747                           fsr	equ	4
  5748                           fsr0	equ	4
  5749                           c	equ	1
  5750  0ADB                     __ptext687:	;psect for function _SPI_Write_Buf
  5751                           opt subtitle "HI-TECH Software Omniscient Code Generator (Lite mode) build 49521"
  5752                           
  5753                           opt pagewidth 120
  5754                           
  5755  002A                     	__size_of_SPI_Write_Buf	equ	__end_of_SPI_Write_Buf-_SPI_Write_Buf
  5756                           opt subtitle "HI-TECH Software Omniscient Code Generator (Lite mode) build 49521"
  5757  0ADB                     _SPI_Write_Buf:	
  5758                           opt subtitle "HI-TECH Software Omniscient Code Generator (Lite mode) build 49521"
  5759                           
  5760                           opt pagewidth 120
  5761                           
  5762  0ADB  1283               	bcf	status, 5	;RP0=0, select bank0
  5763  0ADC  1303               	bcf	status, 6	;RP1=0, select bank0
  5764  0ADD  00A6               	movwf	(SPI_Write_Buf@reg)
  5765                           opt subtitle "HI-TECH Software Omniscient Code Generator (Lite mode) build 49521"
  5766  0ADE                     l2846:	
  5767                           opt subtitle "HI-TECH Software Omniscient Code Generator (Lite mode) build 49521"
  5768                           
  5769  0ADE  1108               	bcf	(8),2	;volatile
  5770                           opt subtitle "HI-TECH Software Omniscient Code Generator (Lite mode) build 49521"
  5771                           
  5772  0ADF                     l2848:	
  5773                           opt subtitle "HI-TECH Software Omniscient Code Generator (Lite mode) build 49521"
  5774  0ADF  0826               	movf	(SPI_Write_Buf@reg),w
  5775  0AE0  120A  158A  2225   	fcall	_SPI_RW
              120A  158A         
  5776                           opt subtitle "HI-TECH Software Omniscient Code Generator (Lite mode) build 49521"
  5777                           
  5778  0AE5                     l2850:	
  5779                           opt subtitle "HI-TECH Software Omniscient Code Generator (Lite mode) build 49521"
  5780  0AE5  1283               	bcf	status, 5	;RP0=0, select bank0
  5781  0AE6  1303               	bcf	status, 6	;RP1=0, select bank0
  5782  0AE7  01A7               	clrf	(SPI_Write_Buf@byte_ctr)
  5783  0AE8  2AFD               	goto	l2858
  5784                           opt subtitle "HI-TECH Software Omniscient Code Generator (Lite mode) build 49521"
  5785                           
  5786  0AE9                     l321:	
  5787                           opt subtitle "HI-TECH Software Omniscient Code Generator (Lite mode) build 49521"
  5788  0AE9                     l2852:	
  5789                           opt subtitle "HI-TECH Software Omniscient Code Generator (Lite mode) build 49521"
  5790  0AE9  0823               	movf	(SPI_Write_Buf@pBuf),w
  5791  0AEA  0084               	movwf	fsr0
  5792  0AEB  1383               	bcf	status, 7	;select IRP bank0
  5793  0AEC  0800               	movf	indf,w
  5794  0AED  120A  158A  2225   	fcall	_SPI_RW
              120A  158A         
  5795                           opt subtitle "HI-TECH Software Omniscient Code Generator (Lite mode) build 49521"
  5796  0AF2                     l2854:	
  5797  0AF2  3001               	movlw	(01h)
  5798  0AF3  1283               	bcf	status, 5	;RP0=0, select bank0
  5799  0AF4  1303               	bcf	status, 6	;RP1=0, select bank0
  5800  0AF5  00A5               	movwf	(??_SPI_Write_Buf+0)+0
  5801  0AF6  0825               	movf	(??_SPI_Write_Buf+0)+0,w
  5802  0AF7  07A3               	addwf	(SPI_Write_Buf@pBuf),f
  5803                           opt subtitle "HI-TECH Software Omniscient Code Generator (Lite mode) build 49521"
  5804                           
  5805  0AF8                     l2856:	
  5806  0AF8  3001               	movlw	(01h)
  5807  0AF9  00A5               	movwf	(??_SPI_Write_Buf+0)+0
  5808  0AFA  0825               	movf	(??_SPI_Write_Buf+0)+0,w
  5809  0AFB  07A7               	addwf	(SPI_Write_Buf@byte_ctr),f
  5810  0AFC  2AFD               	goto	l2858
  5811                           opt subtitle "HI-TECH Software Omniscient Code Generator (Lite mode) build 49521"
  5812  0AFD                     l320:	
  5813                           opt subtitle "HI-TECH Software Omniscient Code Generator (Lite mode) build 49521"
  5814  0AFD                     l2858:	
  5815  0AFD  0824               	movf	(SPI_Write_Buf@length),w
  5816  0AFE  0227               	subwf	(SPI_Write_Buf@byte_ctr),w
  5817  0AFF  1C03               	skipc
  5818  0B00  2B02               	goto	u2141
  5819  0B01  2B03               	goto	u2140
  5820  0B02                     u2141:
  5821  0B02  2AE9               	goto	l2852
  5822  0B03                     u2140:
  5823                           opt subtitle "HI-TECH Software Omniscient Code Generator (Lite mode) build 49521"
  5824  0B03                     l322:	
  5825                           opt subtitle "HI-TECH Software Omniscient Code Generator (Lite mode) build 49521"
  5826                           
  5827  0B03  1508               	bsf	(8),2	;volatile
  5828                           opt subtitle "HI-TECH Software Omniscient Code Generator (Lite mode) build 49521"
  5829                           
  5830  0B04                     l323:	
  5831  0B04  0008               	return
  5832                           opt subtitle "HI-TECH Software Omniscient Code Generator (Lite mode) build 49521"
  5833                           
  5834  0B05                     	__end_of_SPI_Write_Buf:
  5835                           opt subtitle "HI-TECH Software Omniscient Code Generator (Lite mode) build 49521"
  5836                           
  5837                           opt pagewidth 120
  5838                           
  5839                           	opt lm
  5840                           
  5841                           	processor	16LF707
  5842                           clrc	macro
  5843                           	bcf	3,0
  5844                           	endm
  5845                           clrz	macro
  5846                           	bcf	3,2
  5847                           	endm
  5848                           setc	macro
  5849                           	bsf	3,0
  5850                           	endm
  5851                           setz	macro
  5852                           	bsf	3,2
  5853                           	endm
  5854                           skipc	macro
  5855                           	btfss	3,0
  5856                           	endm
  5857                           skipz	macro
  5858                           	btfss	3,2
  5859                           	endm
  5860                           skipnc	macro
  5861                           	btfsc	3,0
  5862                           	endm
  5863                           skipnz	macro
  5864                           	btfsc	3,2
  5865                           	endm
  5866                           indf	equ	0
  5867                           indf0	equ	0
  5868                           pc	equ	2
  5869                           pcl	equ	2
  5870  0A76                     __ptext688:	;psect for function _rfm70TxDataSentInterrupt
  5871                           opt subtitle "HI-TECH Software Omniscient Code Generator (Lite mode) build 49521"
  5872                           
  5873                           opt pagewidth 120
  5874                           
  5875  001F                     	__size_of_rfm70TxDataSentInterrupt	equ	__end_of_rfm70TxDataSentInterrupt-_rfm70TxDataSe
                                 ntInterrupt
  5876                           opt subtitle "HI-TECH Software Omniscient Code Generator (Lite mode) build 49521"
  5877  0A76                     _rfm70TxDataSentInterrupt:	
  5878                           opt subtitle "HI-TECH Software Omniscient Code Generator (Lite mode) build 49521"
  5879                           
  5880                           opt pagewidth 120
  5881                           
  5882  0A76                     l2860:	
  5883                           opt subtitle "HI-TECH Software Omniscient Code Generator (Lite mode) build 49521"
  5884  0A76  3007               	movlw	(07h)
  5885  0A77  120A  158A  223E   	fcall	_SPI_Read_Reg
              120A  158A         
  5886  0A7C  1283               	bcf	status, 5	;RP0=0, select bank0
  5887  0A7D  1303               	bcf	status, 6	;RP1=0, select bank0
  5888  0A7E  00A6               	movwf	(??_rfm70TxDataSentInterrupt+0)+0
  5889  0A7F  1EA6               	btfss	0+(??_rfm70TxDataSentInterrupt+0)+0,(5)&7
  5890  0A80  2A82               	goto	u2151
  5891  0A81  2A83               	goto	u2150
  5892  0A82                     u2151:
  5893  0A82  2A91               	goto	l2870
  5894  0A83                     u2150:
  5895                           opt subtitle "HI-TECH Software Omniscient Code Generator (Lite mode) build 49521"
  5896                           
  5897  0A83                     l2862:	
  5898                           opt subtitle "HI-TECH Software Omniscient Code Generator (Lite mode) build 49521"
  5899  0A83  3020               	movlw	(020h)
  5900  0A84  00A6               	movwf	(??_rfm70TxDataSentInterrupt+0)+0
  5901  0A85  0826               	movf	(??_rfm70TxDataSentInterrupt+0)+0,w
  5902  0A86  00A3               	movwf	(?_SPI_Write_Reg)
  5903  0A87  3027               	movlw	(027h)
  5904  0A88  120A  158A  21E1   	fcall	_SPI_Write_Reg
              120A  158A         
  5905                           opt subtitle "HI-TECH Software Omniscient Code Generator (Lite mode) build 49521"
  5906                           
  5907  0A8D                     l2864:	
  5908                           opt subtitle "HI-TECH Software Omniscient Code Generator (Lite mode) build 49521"
  5909  0A8D  3001               	movlw	(01h)
  5910  0A8E  2A94               	goto	l375
  5911                           opt subtitle "HI-TECH Software Omniscient Code Generator (Lite mode) build 49521"
  5912  0A8F                     l2866:	
  5913  0A8F  2A94               	goto	l375
  5914                           opt subtitle "HI-TECH Software Omniscient Code Generator (Lite mode) build 49521"
  5915                           
  5916  0A90                     l2868:	
  5917                           opt subtitle "HI-TECH Software Omniscient Code Generator (Lite mode) build 49521"
  5918  0A90  2A94               	goto	l375
  5919                           opt subtitle "HI-TECH Software Omniscient Code Generator (Lite mode) build 49521"
  5920                           
  5921  0A91                     l374:	
  5922                           opt subtitle "HI-TECH Software Omniscient Code Generator (Lite mode) build 49521"
  5923                           
  5924  0A91                     l2870:	
  5925                           opt subtitle "HI-TECH Software Omniscient Code Generator (Lite mode) build 49521"
  5926                           
  5927  0A91  3000               	movlw	(0)
  5928  0A92  2A94               	goto	l375
  5929                           opt subtitle "HI-TECH Software Omniscient Code Generator (Lite mode) build 49521"
  5930  0A93                     l2872:	
  5931  0A93  2A94               	goto	l375
  5932                           opt subtitle "HI-TECH Software Omniscient Code Generator (Lite mode) build 49521"
  5933  0A94                     l376:	
  5934                           opt subtitle "HI-TECH Software Omniscient Code Generator (Lite mode) build 49521"
  5935                           
  5936  0A94                     l375:	
  5937  0A94  0008               	return
  5938                           opt subtitle "HI-TECH Software Omniscient Code Generator (Lite mode) build 49521"
  5939                           
  5940  0A95                     	__end_of_rfm70TxDataSentInterrupt:
  5941                           opt subtitle "HI-TECH Software Omniscient Code Generator (Lite mode) build 49521"
  5942                           
  5943                           opt pagewidth 120
  5944                           
  5945                           	opt lm
  5946                           
  5947                           	processor	16LF707
  5948                           clrc	macro
  5949                           	bcf	3,0
  5950                           	endm
  5951                           clrz	macro
  5952                           	bcf	3,2
  5953                           	endm
  5954                           setc	macro
  5955                           	bsf	3,0
  5956                           	endm
  5957                           setz	macro
  5958                           	bsf	3,2
  5959                           	endm
  5960                           skipc	macro
  5961                           	btfss	3,0
  5962                           	endm
  5963                           skipz	macro
  5964                           	btfss	3,2
  5965                           	endm
  5966                           skipnc	macro
  5967                           	btfsc	3,0
  5968                           	endm
  5969                           skipnz	macro
  5970                           	btfsc	3,2
  5971                           	endm
  5972                           indf	equ	0
  5973                           indf0	equ	0
  5974                           pc	equ	2
  5975                           pcl	equ	2
  5976                           status	equ	3
  5977  0C30                     __ptext689:	;psect for function _SwitchToRxMode
  5978                           opt subtitle "HI-TECH Software Omniscient Code Generator (Lite mode) build 49521"
  5979                           
  5980                           opt pagewidth 120
  5981                           
  5982  003F                     	__size_of_SwitchToRxMode	equ	__end_of_SwitchToRxMode-_SwitchToRxMode
  5983                           opt subtitle "HI-TECH Software Omniscient Code Generator (Lite mode) build 49521"
  5984  0C30                     _SwitchToRxMode:	
  5985                           opt subtitle "HI-TECH Software Omniscient Code Generator (Lite mode) build 49521"
  5986                           
  5987                           opt pagewidth 120
  5988                           
  5989  0C30                     l2874:	
  5990                           opt subtitle "HI-TECH Software Omniscient Code Generator (Lite mode) build 49521"
  5991                           
  5992  0C30  1283               	bcf	status, 5	;RP0=0, select bank0
  5993  0C31  1303               	bcf	status, 6	;RP1=0, select bank0
  5994  0C32  01A3               	clrf	(?_SPI_Write_Reg)
  5995  0C33  30E2               	movlw	(0E2h)
  5996  0C34  120A  158A  21E1   	fcall	_SPI_Write_Reg
              120A  158A         
  5997                           opt subtitle "HI-TECH Software Omniscient Code Generator (Lite mode) build 49521"
  5998                           
  5999  0C39                     l2876:	
  6000                           opt subtitle "HI-TECH Software Omniscient Code Generator (Lite mode) build 49521"
  6001  0C39  3007               	movlw	(07h)
  6002  0C3A  120A  158A  223E   	fcall	_SPI_Read_Reg
              120A  158A         
  6003  0C3F  1283               	bcf	status, 5	;RP0=0, select bank0
  6004  0C40  1303               	bcf	status, 6	;RP1=0, select bank0
  6005  0C41  00A6               	movwf	(??_SwitchToRxMode+0)+0
  6006  0C42  0826               	movf	(??_SwitchToRxMode+0)+0,w
  6007  0C43  00A7               	movwf	(SwitchToRxMode@value)
  6008                           opt subtitle "HI-TECH Software Omniscient Code Generator (Lite mode) build 49521"
  6009                           
  6010  0C44                     l2878:	
  6011                           opt subtitle "HI-TECH Software Omniscient Code Generator (Lite mode) build 49521"
  6012  0C44  0827               	movf	(SwitchToRxMode@value),w
  6013  0C45  00A6               	movwf	(??_SwitchToRxMode+0)+0
  6014  0C46  0826               	movf	(??_SwitchToRxMode+0)+0,w
  6015  0C47  00A3               	movwf	(?_SPI_Write_Reg)
  6016  0C48  3027               	movlw	(027h)
  6017  0C49  120A  158A  21E1   	fcall	_SPI_Write_Reg
              120A  158A         
  6018                           opt subtitle "HI-TECH Software Omniscient Code Generator (Lite mode) build 49521"
  6019                           
  6020  0C4E                     l2880:	
  6021                           opt subtitle "HI-TECH Software Omniscient Code Generator (Lite mode) build 49521"
  6022  0C4E  1283               	bcf	status, 5	;RP0=0, select bank0
  6023  0C4F  1303               	bcf	status, 6	;RP1=0, select bank0
  6024  0C50  1107               	bcf	(7),2	;volatile
  6025                           opt subtitle "HI-TECH Software Omniscient Code Generator (Lite mode) build 49521"
  6026                           
  6027  0C51  3000               	movlw	(0)
  6028  0C52  120A  158A  223E   	fcall	_SPI_Read_Reg
              120A  158A         
  6029  0C57  1283               	bcf	status, 5	;RP0=0, select bank0
  6030  0C58  1303               	bcf	status, 6	;RP1=0, select bank0
  6031  0C59  00A6               	movwf	(??_SwitchToRxMode+0)+0
  6032  0C5A  0826               	movf	(??_SwitchToRxMode+0)+0,w
  6033  0C5B  00A7               	movwf	(SwitchToRxMode@value)
  6034                           opt subtitle "HI-TECH Software Omniscient Code Generator (Lite mode) build 49521"
  6035                           
  6036  0C5C                     l2882:	
  6037                           opt subtitle "HI-TECH Software Omniscient Code Generator (Lite mode) build 49521"
  6038  0C5C  0827               	movf	(SwitchToRxMode@value),w
  6039  0C5D  3801               	iorlw	01h
  6040  0C5E  00A6               	movwf	(??_SwitchToRxMode+0)+0
  6041  0C5F  0826               	movf	(??_SwitchToRxMode+0)+0,w
  6042  0C60  00A7               	movwf	(SwitchToRxMode@value)
  6043                           opt subtitle "HI-TECH Software Omniscient Code Generator (Lite mode) build 49521"
  6044                           
  6045  0C61                     l2884:	
  6046                           opt subtitle "HI-TECH Software Omniscient Code Generator (Lite mode) build 49521"
  6047  0C61  0827               	movf	(SwitchToRxMode@value),w
  6048  0C62  00A6               	movwf	(??_SwitchToRxMode+0)+0
  6049  0C63  0826               	movf	(??_SwitchToRxMode+0)+0,w
  6050  0C64  00A3               	movwf	(?_SPI_Write_Reg)
  6051  0C65  3020               	movlw	(020h)
  6052  0C66  120A  158A  21E1   	fcall	_SPI_Write_Reg
              120A  158A         
  6053                           opt subtitle "HI-TECH Software Omniscient Code Generator (Lite mode) build 49521"
  6054                           
  6055  0C6B                     l2886:	
  6056                           opt subtitle "HI-TECH Software Omniscient Code Generator (Lite mode) build 49521"
  6057  0C6B  1283               	bcf	status, 5	;RP0=0, select bank0
  6058  0C6C  1303               	bcf	status, 6	;RP1=0, select bank0
  6059  0C6D  1507               	bsf	(7),2	;volatile
  6060                           opt subtitle "HI-TECH Software Omniscient Code Generator (Lite mode) build 49521"
  6061                           
  6062  0C6E                     l326:	
  6063  0C6E  0008               	return
  6064                           opt subtitle "HI-TECH Software Omniscient Code Generator (Lite mode) build 49521"
  6065                           
  6066  0C6F                     	__end_of_SwitchToRxMode:
  6067                           opt subtitle "HI-TECH Software Omniscient Code Generator (Lite mode) build 49521"
  6068                           
  6069                           opt pagewidth 120
  6070                           
  6071                           	opt lm
  6072                           
  6073                           	processor	16LF707
  6074                           clrc	macro
  6075                           	bcf	3,0
  6076                           	endm
  6077                           clrz	macro
  6078                           	bcf	3,2
  6079                           	endm
  6080                           setc	macro
  6081                           	bsf	3,0
  6082                           	endm
  6083                           setz	macro
  6084                           	bsf	3,2
  6085                           	endm
  6086                           skipc	macro
  6087                           	btfss	3,0
  6088                           	endm
  6089                           skipz	macro
  6090                           	btfss	3,2
  6091                           	endm
  6092                           skipnc	macro
  6093                           	btfsc	3,0
  6094                           	endm
  6095                           skipnz	macro
  6096                           	btfsc	3,2
  6097                           	endm
  6098                           indf	equ	0
  6099                           indf0	equ	0
  6100                           pc	equ	2
  6101                           pcl	equ	2
  6102  0A57                     __ptext690:	;psect for function _rfm70TxDataSentErrorInterrupt
  6103                           opt subtitle "HI-TECH Software Omniscient Code Generator (Lite mode) build 49521"
  6104                           
  6105                           opt pagewidth 120
  6106                           
  6107  001F                     	__size_of_rfm70TxDataSentErrorInterrupt	equ	__end_of_rfm70TxDataSentErrorInterrupt-_rfm
                                 70TxDataSentErrorInterrupt
  6108                           opt subtitle "HI-TECH Software Omniscient Code Generator (Lite mode) build 49521"
  6109  0A57                     _rfm70TxDataSentErrorInterrupt:	
  6110                           opt subtitle "HI-TECH Software Omniscient Code Generator (Lite mode) build 49521"
  6111                           
  6112                           opt pagewidth 120
  6113                           
  6114  0A57                     l2888:	
  6115                           opt subtitle "HI-TECH Software Omniscient Code Generator (Lite mode) build 49521"
  6116  0A57  3007               	movlw	(07h)
  6117  0A58  120A  158A  223E   	fcall	_SPI_Read_Reg
              120A  158A         
  6118  0A5D  1283               	bcf	status, 5	;RP0=0, select bank0
  6119  0A5E  1303               	bcf	status, 6	;RP1=0, select bank0
  6120  0A5F  00A6               	movwf	(??_rfm70TxDataSentErrorInterrupt+0)+0
  6121  0A60  1EA6               	btfss	0+(??_rfm70TxDataSentErrorInterrupt+0)+0,(5)&7
  6122  0A61  2A63               	goto	u2161
  6123  0A62  2A64               	goto	u2160
  6124  0A63                     u2161:
  6125  0A63  2A72               	goto	l2898
  6126  0A64                     u2160:
  6127                           opt subtitle "HI-TECH Software Omniscient Code Generator (Lite mode) build 49521"
  6128                           
  6129  0A64                     l2890:	
  6130                           opt subtitle "HI-TECH Software Omniscient Code Generator (Lite mode) build 49521"
  6131  0A64  3010               	movlw	(010h)
  6132  0A65  00A6               	movwf	(??_rfm70TxDataSentErrorInterrupt+0)+0
  6133  0A66  0826               	movf	(??_rfm70TxDataSentErrorInterrupt+0)+0,w
  6134  0A67  00A3               	movwf	(?_SPI_Write_Reg)
  6135  0A68  3027               	movlw	(027h)
  6136  0A69  120A  158A  21E1   	fcall	_SPI_Write_Reg
              120A  158A         
  6137                           opt subtitle "HI-TECH Software Omniscient Code Generator (Lite mode) build 49521"
  6138                           
  6139  0A6E                     l2892:	
  6140                           opt subtitle "HI-TECH Software Omniscient Code Generator (Lite mode) build 49521"
  6141  0A6E  3001               	movlw	(01h)
  6142  0A6F  2A75               	goto	l380
  6143                           opt subtitle "HI-TECH Software Omniscient Code Generator (Lite mode) build 49521"
  6144  0A70                     l2894:	
  6145  0A70  2A75               	goto	l380
  6146                           opt subtitle "HI-TECH Software Omniscient Code Generator (Lite mode) build 49521"
  6147                           
  6148  0A71                     l2896:	
  6149                           opt subtitle "HI-TECH Software Omniscient Code Generator (Lite mode) build 49521"
  6150  0A71  2A75               	goto	l380
  6151                           opt subtitle "HI-TECH Software Omniscient Code Generator (Lite mode) build 49521"
  6152                           
  6153  0A72                     l379:	
  6154                           opt subtitle "HI-TECH Software Omniscient Code Generator (Lite mode) build 49521"
  6155                           
  6156  0A72                     l2898:	
  6157                           opt subtitle "HI-TECH Software Omniscient Code Generator (Lite mode) build 49521"
  6158                           
  6159  0A72  3000               	movlw	(0)
  6160  0A73  2A75               	goto	l380
  6161                           opt subtitle "HI-TECH Software Omniscient Code Generator (Lite mode) build 49521"
  6162  0A74                     l2900:	
  6163  0A74  2A75               	goto	l380
  6164                           opt subtitle "HI-TECH Software Omniscient Code Generator (Lite mode) build 49521"
  6165  0A75                     l381:	
  6166                           opt subtitle "HI-TECH Software Omniscient Code Generator (Lite mode) build 49521"
  6167                           
  6168  0A75                     l380:	
  6169  0A75  0008               	return
  6170                           opt subtitle "HI-TECH Software Omniscient Code Generator (Lite mode) build 49521"
  6171                           
  6172  0A76                     	__end_of_rfm70TxDataSentErrorInterrupt:
  6173                           opt subtitle "HI-TECH Software Omniscient Code Generator (Lite mode) build 49521"
  6174                           
  6175                           opt pagewidth 120
  6176                           
  6177                           	opt lm
  6178                           
  6179                           	processor	16LF707
  6180                           clrc	macro
  6181                           	bcf	3,0
  6182                           	endm
  6183                           clrz	macro
  6184                           	bcf	3,2
  6185                           	endm
  6186                           setc	macro
  6187                           	bsf	3,0
  6188                           	endm
  6189                           setz	macro
  6190                           	bsf	3,2
  6191                           	endm
  6192                           skipc	macro
  6193                           	btfss	3,0
  6194                           	endm
  6195                           skipz	macro
  6196                           	btfss	3,2
  6197                           	endm
  6198                           skipnc	macro
  6199                           	btfsc	3,0
  6200                           	endm
  6201                           skipnz	macro
  6202                           	btfsc	3,2
  6203                           	endm
  6204                           indf	equ	0
  6205                           indf0	equ	0
  6206                           pc	equ	2
  6207                           pcl	equ	2
  6208                           status	equ	3
  6209  0B5B                     __ptext691:	;psect for function _SwitchCFG
  6210                           opt subtitle "HI-TECH Software Omniscient Code Generator (Lite mode) build 49521"
  6211                           
  6212                           opt pagewidth 120
  6213                           
  6214  0032                     	__size_of_SwitchCFG	equ	__end_of_SwitchCFG-_SwitchCFG
  6215                           opt subtitle "HI-TECH Software Omniscient Code Generator (Lite mode) build 49521"
  6216  0B5B                     _SwitchCFG:	
  6217                           opt subtitle "HI-TECH Software Omniscient Code Generator (Lite mode) build 49521"
  6218                           
  6219                           opt pagewidth 120
  6220                           
  6221  0B5B  1283               	bcf	status, 5	;RP0=0, select bank0
  6222  0B5C  1303               	bcf	status, 6	;RP1=0, select bank0
  6223  0B5D  00A7               	movwf	(SwitchCFG@_cfg)
  6224                           opt subtitle "HI-TECH Software Omniscient Code Generator (Lite mode) build 49521"
  6225  0B5E                     l2972:	
  6226                           opt subtitle "HI-TECH Software Omniscient Code Generator (Lite mode) build 49521"
  6227                           
  6228  0B5E  3007               	movlw	(07h)
  6229  0B5F  120A  158A  223E   	fcall	_SPI_Read_Reg
              120A  158A         
  6230  0B64  1283               	bcf	status, 5	;RP0=0, select bank0
  6231  0B65  1303               	bcf	status, 6	;RP1=0, select bank0
  6232  0B66  00A6               	movwf	(??_SwitchCFG+0)+0
  6233  0B67  0826               	movf	(??_SwitchCFG+0)+0,w
  6234  0B68  00A8               	movwf	(SwitchCFG@Tmp)
  6235                           opt subtitle "HI-TECH Software Omniscient Code Generator (Lite mode) build 49521"
  6236                           
  6237  0B69                     l2974:	
  6238                           opt subtitle "HI-TECH Software Omniscient Code Generator (Lite mode) build 49521"
  6239  0B69  0828               	movf	(SwitchCFG@Tmp),w
  6240  0B6A  3980               	andlw	080h
  6241  0B6B  00A6               	movwf	(??_SwitchCFG+0)+0
  6242  0B6C  0826               	movf	(??_SwitchCFG+0)+0,w
  6243  0B6D  00A8               	movwf	(SwitchCFG@Tmp)
  6244                           opt subtitle "HI-TECH Software Omniscient Code Generator (Lite mode) build 49521"
  6245                           
  6246  0B6E                     l2976:	
  6247                           opt subtitle "HI-TECH Software Omniscient Code Generator (Lite mode) build 49521"
  6248                           
  6249  0B6E  0828               	movf	(SwitchCFG@Tmp),w
  6250  0B6F  1D03               	skipz
  6251  0B70  2B72               	goto	u2240
  6252  0B71  2B77               	goto	l2980
  6253  0B72                     u2240:
  6254                           opt subtitle "HI-TECH Software Omniscient Code Generator (Lite mode) build 49521"
  6255  0B72                     l2978:	
  6256  0B72  0827               	movf	(SwitchCFG@_cfg),w
  6257  0B73  1D03               	skipz
  6258  0B74  2B76               	goto	u2250
  6259  0B75  2B81               	goto	l2984
  6260  0B76                     u2250:
  6261  0B76  2B77               	goto	l2980
  6262                           opt subtitle "HI-TECH Software Omniscient Code Generator (Lite mode) build 49521"
  6263  0B77                     l336:	
  6264                           opt subtitle "HI-TECH Software Omniscient Code Generator (Lite mode) build 49521"
  6265  0B77                     l2980:	
  6266  0B77  08A8               	movf	(SwitchCFG@Tmp),f
  6267  0B78  1D03               	skipz
  6268  0B79  2B7B               	goto	u2261
  6269  0B7A  2B7C               	goto	u2260
  6270  0B7B                     u2261:
  6271  0B7B  2B8C               	goto	l337
  6272  0B7C                     u2260:
  6273                           opt subtitle "HI-TECH Software Omniscient Code Generator (Lite mode) build 49521"
  6274  0B7C                     l2982:	
  6275  0B7C  0827               	movf	(SwitchCFG@_cfg),w
  6276  0B7D  1D03               	skipz
  6277  0B7E  2B80               	goto	u2270
  6278  0B7F  2B8C               	goto	l337
  6279  0B80                     u2270:
  6280  0B80  2B81               	goto	l2984
  6281                           opt subtitle "HI-TECH Software Omniscient Code Generator (Lite mode) build 49521"
  6282  0B81                     l334:	
  6283                           opt subtitle "HI-TECH Software Omniscient Code Generator (Lite mode) build 49521"
  6284                           
  6285  0B81                     l2984:	
  6286                           opt subtitle "HI-TECH Software Omniscient Code Generator (Lite mode) build 49521"
  6287                           
  6288  0B81  3053               	movlw	(053h)
  6289  0B82  00A6               	movwf	(??_SwitchCFG+0)+0
  6290  0B83  0826               	movf	(??_SwitchCFG+0)+0,w
  6291  0B84  00A3               	movwf	(?_SPI_Write_Reg)
  6292  0B85  3050               	movlw	(050h)
  6293  0B86  120A  158A  21E1   	fcall	_SPI_Write_Reg
              120A  158A         
  6294  0B8B  2B8C               	goto	l337
  6295                           opt subtitle "HI-TECH Software Omniscient Code Generator (Lite mode) build 49521"
  6296                           
  6297  0B8C                     l332:	
  6298                           opt subtitle "HI-TECH Software Omniscient Code Generator (Lite mode) build 49521"
  6299                           
  6300  0B8C                     l337:	
  6301  0B8C  0008               	return
  6302                           opt subtitle "HI-TECH Software Omniscient Code Generator (Lite mode) build 49521"
  6303                           
  6304  0B8D                     	__end_of_SwitchCFG:
  6305                           opt subtitle "HI-TECH Software Omniscient Code Generator (Lite mode) build 49521"
  6306                           
  6307                           opt pagewidth 120
  6308                           
  6309                           	opt lm
  6310                           
  6311                           	processor	16LF707
  6312                           clrc	macro
  6313                           	bcf	3,0
  6314                           	endm
  6315                           clrz	macro
  6316                           	bcf	3,2
  6317                           	endm
  6318                           setc	macro
  6319                           	bsf	3,0
  6320                           	endm
  6321                           setz	macro
  6322                           	bsf	3,2
  6323                           	endm
  6324                           skipc	macro
  6325                           	btfss	3,0
  6326                           	endm
  6327                           skipz	macro
  6328                           	btfss	3,2
  6329                           	endm
  6330                           skipnc	macro
  6331                           	btfsc	3,0
  6332                           	endm
  6333                           skipnz	macro
  6334                           	btfsc	3,2
  6335                           	endm
  6336                           indf	equ	0
  6337                           indf0	equ	0
  6338                           pc	equ	2
  6339                           pcl	equ	2
  6340                           status	equ	3
  6341                           fsr	equ	4
  6342                           fsr0	equ	4
  6343                           c	equ	1
  6344                           z	equ	0
  6345                           pclath	equ	10
  6346                           # 46 "/Applications/microchip/xc8/v1.12/include/pic16lf707.h"
  6347                           INDF equ 00h ;# 
  6348                           # 52 "/Applications/microchip/xc8/v1.12/include/pic16lf707.h"
  6349  0A3E                     __ptext692:	;psect for function _SPI_Read_Reg
  6350                           opt subtitle "HI-TECH Software Omniscient Code Generator (Lite mode) build 49521"
  6351                           
  6352                           opt pagewidth 120
  6353                           
  6354  0019                     	__size_of_SPI_Read_Reg	equ	__end_of_SPI_Read_Reg-_SPI_Read_Reg
  6355                           opt subtitle "HI-TECH Software Omniscient Code Generator (Lite mode) build 49521"
  6356  0A3E                     _SPI_Read_Reg:	
  6357                           opt subtitle "HI-TECH Software Omniscient Code Generator (Lite mode) build 49521"
  6358                           
  6359                           opt pagewidth 120
  6360                           
  6361  0A3E  1283               	bcf	status, 5	;RP0=0, select bank0
  6362  0A3F  1303               	bcf	status, 6	;RP1=0, select bank0
  6363  0A40  00A4               	movwf	(SPI_Read_Reg@reg)
  6364                           opt subtitle "HI-TECH Software Omniscient Code Generator (Lite mode) build 49521"
  6365  0A41                     l2834:	
  6366                           opt subtitle "HI-TECH Software Omniscient Code Generator (Lite mode) build 49521"
  6367                           
  6368  0A41  1108               	bcf	(8),2	;volatile
  6369                           opt subtitle "HI-TECH Software Omniscient Code Generator (Lite mode) build 49521"
  6370                           
  6371  0A42                     l2836:	
  6372                           opt subtitle "HI-TECH Software Omniscient Code Generator (Lite mode) build 49521"
  6373  0A42  0824               	movf	(SPI_Read_Reg@reg),w
  6374  0A43  120A  158A  2225   	fcall	_SPI_RW
              120A  158A         
  6375                           opt subtitle "HI-TECH Software Omniscient Code Generator (Lite mode) build 49521"
  6376                           
  6377  0A48                     l2838:	
  6378                           opt subtitle "HI-TECH Software Omniscient Code Generator (Lite mode) build 49521"
  6379  0A48  3000               	movlw	(0)
  6380  0A49  120A  158A  2225   	fcall	_SPI_RW
              120A  158A         
  6381  0A4E  1283               	bcf	status, 5	;RP0=0, select bank0
  6382  0A4F  1303               	bcf	status, 6	;RP1=0, select bank0
  6383  0A50  00A3               	movwf	(??_SPI_Read_Reg+0)+0
  6384  0A51  0823               	movf	(??_SPI_Read_Reg+0)+0,w
  6385  0A52  00A5               	movwf	(SPI_Read_Reg@value)
  6386                           opt subtitle "HI-TECH Software Omniscient Code Generator (Lite mode) build 49521"
  6387                           
  6388  0A53                     l2840:	
  6389                           opt subtitle "HI-TECH Software Omniscient Code Generator (Lite mode) build 49521"
  6390  0A53  1508               	bsf	(8),2	;volatile
  6391                           opt subtitle "HI-TECH Software Omniscient Code Generator (Lite mode) build 49521"
  6392                           
  6393  0A54                     l2842:	
  6394                           opt subtitle "HI-TECH Software Omniscient Code Generator (Lite mode) build 49521"
  6395  0A54  0825               	movf	(SPI_Read_Reg@value),w
  6396  0A55  2A56               	goto	l311
  6397                           opt subtitle "HI-TECH Software Omniscient Code Generator (Lite mode) build 49521"
  6398  0A56                     l2844:	
  6399                           opt subtitle "HI-TECH Software Omniscient Code Generator (Lite mode) build 49521"
  6400                           
  6401  0A56                     l311:	
  6402  0A56  0008               	return
  6403                           opt subtitle "HI-TECH Software Omniscient Code Generator (Lite mode) build 49521"
  6404                           
  6405  0A57                     	__end_of_SPI_Read_Reg:
  6406                           opt subtitle "HI-TECH Software Omniscient Code Generator (Lite mode) build 49521"
  6407                           
  6408                           opt pagewidth 120
  6409                           
  6410                           	opt lm
  6411                           
  6412                           	processor	16LF707
  6413                           clrc	macro
  6414                           	bcf	3,0
  6415                           	endm
  6416                           clrz	macro
  6417                           	bcf	3,2
  6418                           	endm
  6419                           setc	macro
  6420                           	bsf	3,0
  6421                           	endm
  6422                           setz	macro
  6423                           	bsf	3,2
  6424                           	endm
  6425                           skipc	macro
  6426                           	btfss	3,0
  6427                           	endm
  6428                           skipz	macro
  6429                           	btfss	3,2
  6430                           	endm
  6431                           skipnc	macro
  6432                           	btfsc	3,0
  6433                           	endm
  6434                           skipnz	macro
  6435                           	btfsc	3,2
  6436                           	endm
  6437                           indf	equ	0
  6438                           indf0	equ	0
  6439                           pc	equ	2
  6440                           pcl	equ	2
  6441                           status	equ	3
  6442                           fsr	equ	4
  6443                           fsr0	equ	4
  6444                           c	equ	1
  6445                           z	equ	0
  6446                           pclath	equ	10
  6447                           # 46 "/Applications/microchip/xc8/v1.12/include/pic16lf707.h"
  6448                           INDF equ 00h ;# 
  6449                           # 52 "/Applications/microchip/xc8/v1.12/include/pic16lf707.h"
  6450  09E1                     __ptext693:	;psect for function _SPI_Write_Reg
  6451                           opt subtitle "HI-TECH Software Omniscient Code Generator (Lite mode) build 49521"
  6452                           
  6453                           opt pagewidth 120
  6454                           
  6455  0016                     	__size_of_SPI_Write_Reg	equ	__end_of_SPI_Write_Reg-_SPI_Write_Reg
  6456                           opt subtitle "HI-TECH Software Omniscient Code Generator (Lite mode) build 49521"
  6457  09E1                     _SPI_Write_Reg:	
  6458                           opt subtitle "HI-TECH Software Omniscient Code Generator (Lite mode) build 49521"
  6459                           
  6460                           opt pagewidth 120
  6461  09E1  1283               	bcf	status, 5	;RP0=0, select bank0
  6462  09E2  1303               	bcf	status, 6	;RP1=0, select bank0
  6463  09E3  00A4               	movwf	(SPI_Write_Reg@reg)
  6464                           opt subtitle "HI-TECH Software Omniscient Code Generator (Lite mode) build 49521"
  6465                           
  6466  09E4                     l2960:	
  6467                           opt subtitle "HI-TECH Software Omniscient Code Generator (Lite mode) build 49521"
  6468  09E4  1108               	bcf	(8),2	;volatile
  6469                           opt subtitle "HI-TECH Software Omniscient Code Generator (Lite mode) build 49521"
  6470                           
  6471  09E5                     l2962:	
  6472                           opt subtitle "HI-TECH Software Omniscient Code Generator (Lite mode) build 49521"
  6473  09E5  0824               	movf	(SPI_Write_Reg@reg),w
  6474  09E6  120A  158A  2225   	fcall	_SPI_RW
              120A  158A         
  6475                           opt subtitle "HI-TECH Software Omniscient Code Generator (Lite mode) build 49521"
  6476                           
  6477  09EB  1283               	bcf	status, 5	;RP0=0, select bank0
  6478  09EC  1303               	bcf	status, 6	;RP1=0, select bank0
  6479  09ED  0823               	movf	(SPI_Write_Reg@value),w
  6480  09EE  120A  158A  2225   	fcall	_SPI_RW
              120A  158A         
  6481                           opt subtitle "HI-TECH Software Omniscient Code Generator (Lite mode) build 49521"
  6482                           
  6483  09F3                     l2964:	
  6484                           opt subtitle "HI-TECH Software Omniscient Code Generator (Lite mode) build 49521"
  6485  09F3  1283               	bcf	status, 5	;RP0=0, select bank0
  6486  09F4  1303               	bcf	status, 6	;RP1=0, select bank0
  6487  09F5  1508               	bsf	(8),2	;volatile
  6488                           opt subtitle "HI-TECH Software Omniscient Code Generator (Lite mode) build 49521"
  6489                           
  6490  09F6                     l308:	
  6491  09F6  0008               	return
  6492                           opt subtitle "HI-TECH Software Omniscient Code Generator (Lite mode) build 49521"
  6493                           
  6494  09F7                     	__end_of_SPI_Write_Reg:
  6495                           opt subtitle "HI-TECH Software Omniscient Code Generator (Lite mode) build 49521"
  6496                           
  6497                           opt pagewidth 120
  6498                           
  6499                           	opt lm
  6500                           
  6501                           	processor	16LF707
  6502                           clrc	macro
  6503                           	bcf	3,0
  6504                           	endm
  6505                           clrz	macro
  6506                           	bcf	3,2
  6507                           	endm
  6508                           setc	macro
  6509                           	bsf	3,0
  6510                           	endm
  6511                           setz	macro
  6512                           	bsf	3,2
  6513                           	endm
  6514                           skipc	macro
  6515                           	btfss	3,0
  6516                           	endm
  6517                           skipz	macro
  6518                           	btfss	3,2
  6519                           	endm
  6520                           skipnc	macro
  6521                           	btfsc	3,0
  6522                           	endm
  6523                           skipnz	macro
  6524                           	btfsc	3,2
  6525                           	endm
  6526                           indf	equ	0
  6527                           indf0	equ	0
  6528                           pc	equ	2
  6529                           pcl	equ	2
  6530                           status	equ	3
  6531                           fsr	equ	4
  6532  0A25                     __ptext694:	;psect for function _SPI_RW
  6533                           opt subtitle "HI-TECH Software Omniscient Code Generator (Lite mode) build 49521"
  6534                           
  6535                           opt pagewidth 120
  6536                           
  6537  0019                     	__size_of_SPI_RW	equ	__end_of_SPI_RW-_SPI_RW
  6538                           opt subtitle "HI-TECH Software Omniscient Code Generator (Lite mode) build 49521"
  6539  0A25                     _SPI_RW:	
  6540                           opt subtitle "HI-TECH Software Omniscient Code Generator (Lite mode) build 49521"
  6541                           
  6542                           opt pagewidth 120
  6543  0A25  1283               	bcf	status, 5	;RP0=0, select bank0
  6544  0A26  1303               	bcf	status, 6	;RP1=0, select bank0
  6545  0A27  00A2               	movwf	(SPI_RW@value)
  6546                           opt subtitle "HI-TECH Software Omniscient Code Generator (Lite mode) build 49521"
  6547                           
  6548  0A28                     l2966:	
  6549                           opt subtitle "HI-TECH Software Omniscient Code Generator (Lite mode) build 49521"
  6550  0A28  0822               	movf	(SPI_RW@value),w
  6551  0A29  0093               	movwf	(19)	;volatile
  6552                           opt subtitle "HI-TECH Software Omniscient Code Generator (Lite mode) build 49521"
  6553                           
  6554                           opt pagewidth 120
  6555  0A2A  3003               movlw	3
  6556  0A2B  00A1               movwf	((??_SPI_RW+0)+0+1),f
  6557  0A2C  3097               	movlw	151
  6558  0A2D  00A0               movwf	((??_SPI_RW+0)+0),f
  6559  0A2E                     u2997:
  6560  0A2E  0BA0               	decfsz	((??_SPI_RW+0)+0),f
  6561  0A2F  2A2E               	goto	u2997
  6562  0A30  0BA1               	decfsz	((??_SPI_RW+0)+0+1),f
  6563  0A31  2A2E               	goto	u2997
  6564  0A32  2A33               	nop2
  6565                           opt subtitle "HI-TECH Software Omniscient Code Generator (Lite mode) build 49521"
  6566                           
  6567                           opt pagewidth 120
  6568                           
  6569  0A33  2A34               	goto	l302
  6570                           opt subtitle "HI-TECH Software Omniscient Code Generator (Lite mode) build 49521"
  6571  0A34                     l303:	
  6572                           opt subtitle "HI-TECH Software Omniscient Code Generator (Lite mode) build 49521"
  6573  0A34                     l302:	
  6574  0A34  1283               	bcf	status, 5	;RP0=0, select bank0
  6575  0A35  1303               	bcf	status, 6	;RP1=0, select bank0
  6576  0A36  1D8C               	btfss	(12),3	;volatile
  6577  0A37  2A39               	goto	u2231
  6578  0A38  2A3A               	goto	u2230
  6579  0A39                     u2231:
  6580  0A39  2A34               	goto	l302
  6581  0A3A                     u2230:
  6582  0A3A  2A3B               	goto	l2968
  6583                           opt subtitle "HI-TECH Software Omniscient Code Generator (Lite mode) build 49521"
  6584  0A3B                     l304:	
  6585                           opt subtitle "HI-TECH Software Omniscient Code Generator (Lite mode) build 49521"
  6586                           
  6587  0A3B                     l2968:	
  6588                           opt subtitle "HI-TECH Software Omniscient Code Generator (Lite mode) build 49521"
  6589  0A3B  0813               	movf	(19),w	;volatile
  6590  0A3C  2A3D               	goto	l305
  6591                           opt subtitle "HI-TECH Software Omniscient Code Generator (Lite mode) build 49521"
  6592  0A3D                     l2970:	
  6593                           opt subtitle "HI-TECH Software Omniscient Code Generator (Lite mode) build 49521"
  6594                           
  6595  0A3D                     l305:	
  6596  0A3D  0008               	return
  6597                           opt subtitle "HI-TECH Software Omniscient Code Generator (Lite mode) build 49521"
  6598                           
  6599  0A3E                     	__end_of_SPI_RW:
  6600                           opt subtitle "HI-TECH Software Omniscient Code Generator (Lite mode) build 49521"
  6601                           
  6602                           opt pagewidth 120
  6603                           
  6604                           	opt lm
  6605                           
  6606                           	processor	16LF707
  6607                           clrc	macro
  6608                           	bcf	3,0
  6609                           	endm
  6610                           clrz	macro
  6611                           	bcf	3,2
  6612                           	endm
  6613                           setc	macro
  6614                           	bsf	3,0
  6615                           	endm
  6616                           setz	macro
  6617                           	bsf	3,2
  6618                           	endm
  6619                           skipc	macro
  6620                           	btfss	3,0
  6621                           	endm
  6622                           skipz	macro
  6623                           	btfss	3,2
  6624                           	endm
  6625                           skipnc	macro
  6626                           	btfsc	3,0
  6627                           	endm
  6628                           skipnz	macro
  6629                           	btfsc	3,2
  6630                           	endm
  6631                           indf	equ	0
  6632                           indf0	equ	0
  6633                           pc	equ	2
  6634                           pcl	equ	2
  6635                           status	equ	3
  6636  0D3D                     __ptext695:	;psect for function ___ftge
  6637                           opt subtitle "HI-TECH Software Omniscient Code Generator (Lite mode) build 49521"
  6638                           
  6639                           opt pagewidth 120
  6640                           
  6641  006E                     	__size_of___ftge	equ	__end_of___ftge-___ftge
  6642                           opt subtitle "HI-TECH Software Omniscient Code Generator (Lite mode) build 49521"
  6643  0D3D                     ___ftge:	
  6644                           opt subtitle "HI-TECH Software Omniscient Code Generator (Lite mode) build 49521"
  6645                           
  6646                           opt pagewidth 120
  6647                           
  6648  0D3D                     l3220:	
  6649  0D3D  1283               	bcf	status, 5	;RP0=0, select bank0
  6650  0D3E  1303               	bcf	status, 6	;RP1=0, select bank0
  6651  0D3F  1FB2               	btfss	(___ftge@ff1+2),(23)&7
  6652  0D40  2D42               	goto	u2861
  6653  0D41  2D43               	goto	u2860
  6654  0D42                     u2861:
  6655  0D42  2D69               	goto	l3224
  6656  0D43                     u2860:
  6657                           opt subtitle "HI-TECH Software Omniscient Code Generator (Lite mode) build 49521"
  6658                           
  6659  0D43                     l3222:	
  6660  0D43  3000               	movlw	0
  6661  0D44  00B6               	movwf	((??___ftge+0)+0)
  6662  0D45  3000               	movlw	0
  6663  0D46  00B7               	movwf	((??___ftge+0)+0+1)
  6664  0D47  3080               	movlw	080h
  6665  0D48  00B8               	movwf	((??___ftge+0)+0+2)
  6666  0D49  0930               	comf	(___ftge@ff1),w
  6667  0D4A  00B9               	movwf	(??___ftge+3)+0
  6668  0D4B  0931               	comf	(___ftge@ff1+1),w
  6669  0D4C  00BA               	movwf	((??___ftge+3)+0+1)
  6670  0D4D  0932               	comf	(___ftge@ff1+2),w
  6671  0D4E  00BB               	movwf	((??___ftge+3)+0+2)
  6672  0D4F  0AB9               	incf	(??___ftge+3)+0,f
  6673  0D50  1903               	skipnz
  6674  0D51  0ABA               	incf	((??___ftge+3)+0+1),f
  6675  0D52  1903               	skipnz
  6676  0D53  0ABB               	incf	((??___ftge+3)+0+2),f
  6677  0D54  0839               	movf	0+(??___ftge+3)+0,w
  6678  0D55  07B6               	addwf	(??___ftge+0)+0,f
  6679  0D56  083A               	movf	1+(??___ftge+3)+0,w
  6680  0D57  1803               	skipnc
  6681  0D58  0F3A               	incfsz	1+(??___ftge+3)+0,w
  6682  0D59  2D5B               	goto	u2871
  6683  0D5A  2D5C               	goto	u2872
  6684  0D5B                     u2871:
  6685  0D5B  07B7               	addwf	(??___ftge+0)+1,f
  6686                           opt subtitle "HI-TECH Software Omniscient Code Generator (Lite mode) build 49521"
  6687  0D5C                     u2872:
  6688  0D5C  083B               	movf	2+(??___ftge+3)+0,w
  6689  0D5D  1803               	skipnc
  6690  0D5E  0F3B               	incfsz	2+(??___ftge+3)+0,w
  6691  0D5F  2D61               	goto	u2873
  6692  0D60  2D62               	goto	u2874
  6693  0D61                     u2873:
  6694  0D61  07B8               	addwf	(??___ftge+0)+2,f
  6695                           opt subtitle "HI-TECH Software Omniscient Code Generator (Lite mode) build 49521"
  6696  0D62                     u2874:
  6697  0D62  0836               	movf	0+(??___ftge+0)+0,w
  6698  0D63  00B0               	movwf	(___ftge@ff1)
  6699  0D64  0837               	movf	1+(??___ftge+0)+0,w
  6700  0D65  00B1               	movwf	(___ftge@ff1+1)
  6701  0D66  0838               	movf	2+(??___ftge+0)+0,w
  6702  0D67  00B2               	movwf	(___ftge@ff1+2)
  6703  0D68  2D69               	goto	l3224
  6704                           opt subtitle "HI-TECH Software Omniscient Code Generator (Lite mode) build 49521"
  6705  0D69                     l583:	
  6706                           opt subtitle "HI-TECH Software Omniscient Code Generator (Lite mode) build 49521"
  6707                           
  6708  0D69                     l3224:	
  6709  0D69  1FB5               	btfss	(___ftge@ff2+2),(23)&7
  6710  0D6A  2D6C               	goto	u2881
  6711  0D6B  2D6D               	goto	u2880
  6712  0D6C                     u2881:
  6713  0D6C  2D93               	goto	l3228
  6714  0D6D                     u2880:
  6715                           opt subtitle "HI-TECH Software Omniscient Code Generator (Lite mode) build 49521"
  6716                           
  6717  0D6D                     l3226:	
  6718  0D6D  3000               	movlw	0
  6719  0D6E  00B6               	movwf	((??___ftge+0)+0)
  6720  0D6F  3000               	movlw	0
  6721  0D70  00B7               	movwf	((??___ftge+0)+0+1)
  6722  0D71  3080               	movlw	080h
  6723  0D72  00B8               	movwf	((??___ftge+0)+0+2)
  6724  0D73  0933               	comf	(___ftge@ff2),w
  6725  0D74  00B9               	movwf	(??___ftge+3)+0
  6726  0D75  0934               	comf	(___ftge@ff2+1),w
  6727  0D76  00BA               	movwf	((??___ftge+3)+0+1)
  6728  0D77  0935               	comf	(___ftge@ff2+2),w
  6729  0D78  00BB               	movwf	((??___ftge+3)+0+2)
  6730  0D79  0AB9               	incf	(??___ftge+3)+0,f
  6731  0D7A  1903               	skipnz
  6732  0D7B  0ABA               	incf	((??___ftge+3)+0+1),f
  6733  0D7C  1903               	skipnz
  6734  0D7D  0ABB               	incf	((??___ftge+3)+0+2),f
  6735  0D7E  0839               	movf	0+(??___ftge+3)+0,w
  6736  0D7F  07B6               	addwf	(??___ftge+0)+0,f
  6737  0D80  083A               	movf	1+(??___ftge+3)+0,w
  6738  0D81  1803               	skipnc
  6739  0D82  0F3A               	incfsz	1+(??___ftge+3)+0,w
  6740  0D83  2D85               	goto	u2891
  6741  0D84  2D86               	goto	u2892
  6742  0D85                     u2891:
  6743  0D85  07B7               	addwf	(??___ftge+0)+1,f
  6744                           opt subtitle "HI-TECH Software Omniscient Code Generator (Lite mode) build 49521"
  6745  0D86                     u2892:
  6746  0D86  083B               	movf	2+(??___ftge+3)+0,w
  6747  0D87  1803               	skipnc
  6748  0D88  0F3B               	incfsz	2+(??___ftge+3)+0,w
  6749  0D89  2D8B               	goto	u2893
  6750  0D8A  2D8C               	goto	u2894
  6751  0D8B                     u2893:
  6752  0D8B  07B8               	addwf	(??___ftge+0)+2,f
  6753                           opt subtitle "HI-TECH Software Omniscient Code Generator (Lite mode) build 49521"
  6754  0D8C                     u2894:
  6755  0D8C  0836               	movf	0+(??___ftge+0)+0,w
  6756  0D8D  00B3               	movwf	(___ftge@ff2)
  6757  0D8E  0837               	movf	1+(??___ftge+0)+0,w
  6758  0D8F  00B4               	movwf	(___ftge@ff2+1)
  6759  0D90  0838               	movf	2+(??___ftge+0)+0,w
  6760  0D91  00B5               	movwf	(___ftge@ff2+2)
  6761  0D92  2D93               	goto	l3228
  6762                           opt subtitle "HI-TECH Software Omniscient Code Generator (Lite mode) build 49521"
  6763  0D93                     l584:	
  6764                           opt subtitle "HI-TECH Software Omniscient Code Generator (Lite mode) build 49521"
  6765                           
  6766  0D93                     l3228:	
  6767  0D93  3080               	movlw	080h
  6768  0D94  06B2               	xorwf	(___ftge@ff1+2),f
  6769                           opt subtitle "HI-TECH Software Omniscient Code Generator (Lite mode) build 49521"
  6770                           
  6771  0D95                     l3230:	
  6772  0D95  3080               	movlw	080h
  6773  0D96  06B5               	xorwf	(___ftge@ff2+2),f
  6774                           opt subtitle "HI-TECH Software Omniscient Code Generator (Lite mode) build 49521"
  6775                           
  6776  0D97                     l3232:	
  6777  0D97  0835               	movf	(___ftge@ff2+2),w
  6778  0D98  0232               	subwf	(___ftge@ff1+2),w
  6779  0D99  1D03               	skipz
  6780  0D9A  2DA1               	goto	u2905
  6781  0D9B  0834               	movf	(___ftge@ff2+1),w
  6782  0D9C  0231               	subwf	(___ftge@ff1+1),w
  6783  0D9D  1D03               	skipz
  6784  0D9E  2DA1               	goto	u2905
  6785  0D9F  0833               	movf	(___ftge@ff2),w
  6786  0DA0  0230               	subwf	(___ftge@ff1),w
  6787  0DA1                     u2905:
  6788  0DA1  1803               	skipnc
  6789  0DA2  2DA4               	goto	u2901
  6790  0DA3  2DA5               	goto	u2900
  6791  0DA4                     u2901:
  6792  0DA4  2DA7               	goto	l3236
  6793  0DA5                     u2900:
  6794                           opt subtitle "HI-TECH Software Omniscient Code Generator (Lite mode) build 49521"
  6795  0DA5                     l3234:	
  6796  0DA5  1003               	clrc
  6797                           opt subtitle "HI-TECH Software Omniscient Code Generator (Lite mode) build 49521"
  6798  0DA6  2DAA               	goto	l585
  6799                           opt subtitle "HI-TECH Software Omniscient Code Generator (Lite mode) build 49521"
  6800  0DA7                     l2158:	
  6801                           opt subtitle "HI-TECH Software Omniscient Code Generator (Lite mode) build 49521"
  6802  0DA7                     l3236:	
  6803  0DA7  1403               	setc
  6804                           opt subtitle "HI-TECH Software Omniscient Code Generator (Lite mode) build 49521"
  6805  0DA8  2DAA               	goto	l585
  6806                           opt subtitle "HI-TECH Software Omniscient Code Generator (Lite mode) build 49521"
  6807  0DA9                     l2160:	
  6808  0DA9  2DAA               	goto	l585
  6809                           opt subtitle "HI-TECH Software Omniscient Code Generator (Lite mode) build 49521"
  6810  0DAA                     l3238:	
  6811                           opt subtitle "HI-TECH Software Omniscient Code Generator (Lite mode) build 49521"
  6812                           
  6813  0DAA                     l585:	
  6814  0DAA  0008               	return
  6815                           opt subtitle "HI-TECH Software Omniscient Code Generator (Lite mode) build 49521"
  6816                           
  6817  0DAB                     	__end_of___ftge:
  6818                           opt subtitle "HI-TECH Software Omniscient Code Generator (Lite mode) build 49521"
  6819                           
  6820                           opt pagewidth 120
  6821                           
  6822                           	opt lm
  6823                           
  6824                           	processor	16LF707
  6825                           clrc	macro
  6826                           	bcf	3,0
  6827                           	endm
  6828                           clrz	macro
  6829                           	bcf	3,2
  6830                           	endm
  6831                           setc	macro
  6832                           	bsf	3,0
  6833                           	endm
  6834                           setz	macro
  6835                           	bsf	3,2
  6836                           	endm
  6837                           skipc	macro
  6838                           	btfss	3,0
  6839                           	endm
  6840                           skipz	macro
  6841                           	btfss	3,2
  6842                           	endm
  6843                           skipnc	macro
  6844                           	btfsc	3,0
  6845                           	endm
  6846                           skipnz	macro
  6847                           	btfsc	3,2
  6848                           	endm
  6849                           indf	equ	0
  6850                           indf0	equ	0
  6851                           pc	equ	2
  6852                           pcl	equ	2
  6853  0B2F                     __ptext696:	;psect for function ___wmul
  6854                           opt subtitle "HI-TECH Software Omniscient Code Generator (Lite mode) build 49521"
  6855                           
  6856                           opt pagewidth 120
  6857                           
  6858  002C                     	__size_of___wmul	equ	__end_of___wmul-___wmul
  6859                           opt subtitle "HI-TECH Software Omniscient Code Generator (Lite mode) build 49521"
  6860  0B2F                     ___wmul:	
  6861                           opt subtitle "HI-TECH Software Omniscient Code Generator (Lite mode) build 49521"
  6862                           
  6863                           opt pagewidth 120
  6864                           
  6865  0B2F                     l2996:	
  6866  0B2F  1283               	bcf	status, 5	;RP0=0, select bank0
  6867  0B30  1303               	bcf	status, 6	;RP1=0, select bank0
  6868  0B31  01A4               	clrf	(___wmul@product)
  6869  0B32  01A5               	clrf	(___wmul@product+1)
  6870  0B33  2B34               	goto	l2998
  6871                           opt subtitle "HI-TECH Software Omniscient Code Generator (Lite mode) build 49521"
  6872                           
  6873  0B34                     l416:	
  6874                           opt subtitle "HI-TECH Software Omniscient Code Generator (Lite mode) build 49521"
  6875                           
  6876  0B34                     l2998:	
  6877  0B34  1C20               	btfss	(___wmul@multiplier),(0)&7
  6878  0B35  2B37               	goto	u2291
  6879  0B36  2B38               	goto	u2290
  6880  0B37                     u2291:
  6881  0B37  2B3E               	goto	l417
  6882  0B38                     u2290:
  6883                           opt subtitle "HI-TECH Software Omniscient Code Generator (Lite mode) build 49521"
  6884                           
  6885  0B38                     l3000:	
  6886  0B38  0822               	movf	(___wmul@multiplicand),w
  6887  0B39  07A4               	addwf	(___wmul@product),f
  6888  0B3A  1803               	skipnc
  6889  0B3B  0AA5               	incf	(___wmul@product+1),f
  6890  0B3C  0823               	movf	(___wmul@multiplicand+1),w
  6891  0B3D  07A5               	addwf	(___wmul@product+1),f
  6892                           opt subtitle "HI-TECH Software Omniscient Code Generator (Lite mode) build 49521"
  6893  0B3E                     l417:	
  6894                           opt subtitle "HI-TECH Software Omniscient Code Generator (Lite mode) build 49521"
  6895  0B3E  3001               	movlw	01h
  6896                           opt subtitle "HI-TECH Software Omniscient Code Generator (Lite mode) build 49521"
  6897  0B3F                     u2305:
  6898  0B3F  1003               	clrc
  6899  0B40  0DA2               	rlf	(___wmul@multiplicand),f
  6900  0B41  0DA3               	rlf	(___wmul@multiplicand+1),f
  6901  0B42  3EFF               	addlw	-1
  6902  0B43  1D03               	skipz
  6903  0B44  2B3F               	goto	u2305
  6904                           opt subtitle "HI-TECH Software Omniscient Code Generator (Lite mode) build 49521"
  6905                           
  6906  0B45                     l3002:	
  6907  0B45  3001               	movlw	01h
  6908                           opt subtitle "HI-TECH Software Omniscient Code Generator (Lite mode) build 49521"
  6909  0B46                     u2315:
  6910  0B46  1003               	clrc
  6911  0B47  0CA1               	rrf	(___wmul@multiplier+1),f
  6912  0B48  0CA0               	rrf	(___wmul@multiplier),f
  6913  0B49  3EFF               	addlw	-1
  6914  0B4A  1D03               	skipz
  6915  0B4B  2B46               	goto	u2315
  6916                           opt subtitle "HI-TECH Software Omniscient Code Generator (Lite mode) build 49521"
  6917  0B4C  0821               	movf	((___wmul@multiplier+1)),w
  6918  0B4D  0420               	iorwf	((___wmul@multiplier)),w
  6919  0B4E  1D03               	skipz
  6920  0B4F  2B51               	goto	u2321
  6921  0B50  2B52               	goto	u2320
  6922  0B51                     u2321:
  6923  0B51  2B34               	goto	l2998
  6924  0B52                     u2320:
  6925  0B52  2B53               	goto	l3004
  6926                           opt subtitle "HI-TECH Software Omniscient Code Generator (Lite mode) build 49521"
  6927  0B53                     l418:	
  6928                           opt subtitle "HI-TECH Software Omniscient Code Generator (Lite mode) build 49521"
  6929                           
  6930  0B53                     l3004:	
  6931  0B53  0825               	movf	(___wmul@product+1),w
  6932  0B54  01A1               	clrf	(?___wmul+1)
  6933  0B55  07A1               	addwf	(?___wmul+1)
  6934  0B56  0824               	movf	(___wmul@product),w
  6935  0B57  01A0               	clrf	(?___wmul)
  6936  0B58  07A0               	addwf	(?___wmul)
  6937                           opt subtitle "HI-TECH Software Omniscient Code Generator (Lite mode) build 49521"
  6938  0B59  2B5A               	goto	l419
  6939                           opt subtitle "HI-TECH Software Omniscient Code Generator (Lite mode) build 49521"
  6940  0B5A                     l3006:	
  6941                           opt subtitle "HI-TECH Software Omniscient Code Generator (Lite mode) build 49521"
  6942                           
  6943  0B5A                     l419:	
  6944  0B5A  0008               	return
  6945                           opt subtitle "HI-TECH Software Omniscient Code Generator (Lite mode) build 49521"
  6946                           
  6947  0B5B                     	__end_of___wmul:
  6948                           opt subtitle "HI-TECH Software Omniscient Code Generator (Lite mode) build 49521"
  6949                           
  6950                           opt pagewidth 120
  6951                           
  6952                           	opt lm
  6953                           
  6954                           	processor	16LF707
  6955                           clrc	macro
  6956                           	bcf	3,0
  6957                           	endm
  6958                           clrz	macro
  6959                           	bcf	3,2
  6960                           	endm
  6961                           setc	macro
  6962                           	bsf	3,0
  6963                           	endm
  6964                           setz	macro
  6965                           	bsf	3,2
  6966                           	endm
  6967                           skipc	macro
  6968                           	btfss	3,0
  6969                           	endm
  6970                           skipz	macro
  6971                           	btfss	3,2
  6972                           	endm
  6973                           skipnc	macro
  6974                           	btfsc	3,0
  6975                           	endm
  6976                           skipnz	macro
  6977                           	btfsc	3,2
  6978                           	endm
  6979                           indf	equ	0
  6980                           indf0	equ	0
  6981                           pc	equ	2
  6982                           pcl	equ	2
  6983                           status	equ	3
  6984                           fsr	equ	4
  6985                           fsr0	equ	4
  6986  0701                     __ptext697:	;psect for function ___ftdiv
  6987                           opt subtitle "HI-TECH Software Omniscient Code Generator (Lite mode) build 49521"
  6988                           
  6989                           opt pagewidth 120
  6990                           
  6991  00C8                     	__size_of___ftdiv	equ	__end_of___ftdiv-___ftdiv
  6992                           opt subtitle "HI-TECH Software Omniscient Code Generator (Lite mode) build 49521"
  6993  0701                     ___ftdiv:	
  6994                           opt subtitle "HI-TECH Software Omniscient Code Generator (Lite mode) build 49521"
  6995                           
  6996                           opt pagewidth 120
  6997                           
  6998  0701                     l3038:	
  6999  0701  1283               	bcf	status, 5	;RP0=0, select bank0
  7000  0702  1303               	bcf	status, 6	;RP1=0, select bank0
  7001  0703  082B               	movf	(___ftdiv@f1),w
  7002  0704  00AE               	movwf	((??___ftdiv+0)+0)
  7003  0705  082C               	movf	(___ftdiv@f1+1),w
  7004  0706  00AF               	movwf	((??___ftdiv+0)+0+1)
  7005  0707  082D               	movf	(___ftdiv@f1+2),w
  7006  0708  00B0               	movwf	((??___ftdiv+0)+0+2)
  7007  0709  1003               	clrc
  7008  070A  0D2F               	rlf	(??___ftdiv+0)+1,w
  7009  070B  0D30               	rlf	(??___ftdiv+0)+2,w
  7010  070C  00B1               	movwf	(??___ftdiv+3)+0
  7011  070D  0831               	movf	(??___ftdiv+3)+0,w
  7012  070E  00B6               	movwf	(___ftdiv@exp)
  7013  070F  08B6               	movf	((___ftdiv@exp)),f
  7014  0710  1D03               	skipz
  7015  0711  2F13               	goto	u2441
  7016  0712  2F14               	goto	u2440
  7017  0713                     u2441:
  7018  0713  2F1C               	goto	l3044
  7019  0714                     u2440:
  7020                           opt subtitle "HI-TECH Software Omniscient Code Generator (Lite mode) build 49521"
  7021                           
  7022  0714                     l3040:	
  7023  0714  3000               	movlw	0x0
  7024  0715  00A8               	movwf	(?___ftdiv)
  7025  0716  3000               	movlw	0x0
  7026  0717  00A9               	movwf	(?___ftdiv+1)
  7027  0718  3000               	movlw	0x0
  7028  0719  00AA               	movwf	(?___ftdiv+2)
  7029  071A  2FC8               	goto	l505
  7030                           opt subtitle "HI-TECH Software Omniscient Code Generator (Lite mode) build 49521"
  7031  071B                     l3042:	
  7032  071B  2FC8               	goto	l505
  7033                           opt subtitle "HI-TECH Software Omniscient Code Generator (Lite mode) build 49521"
  7034  071C                     l504:	
  7035                           opt subtitle "HI-TECH Software Omniscient Code Generator (Lite mode) build 49521"
  7036                           
  7037  071C                     l3044:	
  7038  071C  0828               	movf	(___ftdiv@f2),w
  7039  071D  00AE               	movwf	((??___ftdiv+0)+0)
  7040  071E  0829               	movf	(___ftdiv@f2+1),w
  7041  071F  00AF               	movwf	((??___ftdiv+0)+0+1)
  7042  0720  082A               	movf	(___ftdiv@f2+2),w
  7043  0721  00B0               	movwf	((??___ftdiv+0)+0+2)
  7044  0722  1003               	clrc
  7045  0723  0D2F               	rlf	(??___ftdiv+0)+1,w
  7046  0724  0D30               	rlf	(??___ftdiv+0)+2,w
  7047  0725  00B1               	movwf	(??___ftdiv+3)+0
  7048  0726  0831               	movf	(??___ftdiv+3)+0,w
  7049  0727  00B7               	movwf	(___ftdiv@sign)
  7050  0728  08B7               	movf	((___ftdiv@sign)),f
  7051  0729  1D03               	skipz
  7052  072A  2F2C               	goto	u2451
  7053  072B  2F2D               	goto	u2450
  7054  072C                     u2451:
  7055  072C  2F35               	goto	l3050
  7056  072D                     u2450:
  7057                           opt subtitle "HI-TECH Software Omniscient Code Generator (Lite mode) build 49521"
  7058                           
  7059  072D                     l3046:	
  7060  072D  3000               	movlw	0x0
  7061  072E  00A8               	movwf	(?___ftdiv)
  7062  072F  3000               	movlw	0x0
  7063  0730  00A9               	movwf	(?___ftdiv+1)
  7064  0731  3000               	movlw	0x0
  7065  0732  00AA               	movwf	(?___ftdiv+2)
  7066  0733  2FC8               	goto	l505
  7067                           opt subtitle "HI-TECH Software Omniscient Code Generator (Lite mode) build 49521"
  7068  0734                     l3048:	
  7069  0734  2FC8               	goto	l505
  7070                           opt subtitle "HI-TECH Software Omniscient Code Generator (Lite mode) build 49521"
  7071  0735                     l506:	
  7072                           opt subtitle "HI-TECH Software Omniscient Code Generator (Lite mode) build 49521"
  7073                           
  7074  0735                     l3050:	
  7075  0735  3000               	movlw	0
  7076  0736  00B3               	movwf	(___ftdiv@f3)
  7077  0737  3000               	movlw	0
  7078  0738  00B4               	movwf	(___ftdiv@f3+1)
  7079  0739  3000               	movlw	0
  7080  073A  00B5               	movwf	(___ftdiv@f3+2)
  7081                           opt subtitle "HI-TECH Software Omniscient Code Generator (Lite mode) build 49521"
  7082                           
  7083  073B                     l3052:	
  7084  073B  3089               	movlw	(089h)
  7085  073C  0737               	addwf	(___ftdiv@sign),w
  7086  073D  00AE               	movwf	(??___ftdiv+0)+0
  7087  073E  082E               	movf	0+(??___ftdiv+0)+0,w
  7088  073F  02B6               	subwf	(___ftdiv@exp),f
  7089                           opt subtitle "HI-TECH Software Omniscient Code Generator (Lite mode) build 49521"
  7090                           
  7091  0740                     l3054:	
  7092  0740  082B               	movf	(___ftdiv@f1),w
  7093  0741  00AE               	movwf	((??___ftdiv+0)+0)
  7094  0742  082C               	movf	(___ftdiv@f1+1),w
  7095  0743  00AF               	movwf	((??___ftdiv+0)+0+1)
  7096  0744  082D               	movf	(___ftdiv@f1+2),w
  7097  0745  00B0               	movwf	((??___ftdiv+0)+0+2)
  7098  0746  3010               	movlw	010h
  7099  0747                     u2465:
  7100  0747  1003               	clrc
  7101  0748  0CB0               	rrf	(??___ftdiv+0)+2,f
  7102  0749  0CAF               	rrf	(??___ftdiv+0)+1,f
  7103  074A  0CAE               	rrf	(??___ftdiv+0)+0,f
  7104  074B                     u2460:
  7105  074B  3EFF               	addlw	-1
  7106  074C  1D03               	skipz
  7107  074D  2F47               	goto	u2465
  7108  074E  082E               	movf	0+(??___ftdiv+0)+0,w
  7109  074F  00B1               	movwf	(??___ftdiv+3)+0
  7110  0750  0831               	movf	(??___ftdiv+3)+0,w
  7111  0751  00B7               	movwf	(___ftdiv@sign)
  7112                           opt subtitle "HI-TECH Software Omniscient Code Generator (Lite mode) build 49521"
  7113                           
  7114  0752                     l3056:	
  7115  0752  0828               	movf	(___ftdiv@f2),w
  7116  0753  00AE               	movwf	((??___ftdiv+0)+0)
  7117  0754  0829               	movf	(___ftdiv@f2+1),w
  7118  0755  00AF               	movwf	((??___ftdiv+0)+0+1)
  7119  0756  082A               	movf	(___ftdiv@f2+2),w
  7120  0757  00B0               	movwf	((??___ftdiv+0)+0+2)
  7121  0758  3010               	movlw	010h
  7122  0759                     u2475:
  7123  0759  1003               	clrc
  7124  075A  0CB0               	rrf	(??___ftdiv+0)+2,f
  7125  075B  0CAF               	rrf	(??___ftdiv+0)+1,f
  7126  075C  0CAE               	rrf	(??___ftdiv+0)+0,f
  7127  075D                     u2470:
  7128  075D  3EFF               	addlw	-1
  7129  075E  1D03               	skipz
  7130  075F  2F59               	goto	u2475
  7131  0760  082E               	movf	0+(??___ftdiv+0)+0,w
  7132  0761  00B1               	movwf	(??___ftdiv+3)+0
  7133  0762  0831               	movf	(??___ftdiv+3)+0,w
  7134  0763  06B7               	xorwf	(___ftdiv@sign),f
  7135                           opt subtitle "HI-TECH Software Omniscient Code Generator (Lite mode) build 49521"
  7136                           
  7137  0764                     l3058:	
  7138  0764  3080               	movlw	(080h)
  7139  0765  00AE               	movwf	(??___ftdiv+0)+0
  7140  0766  082E               	movf	(??___ftdiv+0)+0,w
  7141  0767  05B7               	andwf	(___ftdiv@sign),f
  7142                           opt subtitle "HI-TECH Software Omniscient Code Generator (Lite mode) build 49521"
  7143                           
  7144  0768                     l3060:	
  7145  0768  17AC               	bsf	(___ftdiv@f1)+(15/8),(15)&7
  7146                           opt subtitle "HI-TECH Software Omniscient Code Generator (Lite mode) build 49521"
  7147  0769  30FF               	movlw	0FFh
  7148  076A  05AB               	andwf	(___ftdiv@f1),f
  7149  076B  30FF               	movlw	0FFh
  7150  076C  05AC               	andwf	(___ftdiv@f1+1),f
  7151  076D  3000               	movlw	0
  7152  076E  05AD               	andwf	(___ftdiv@f1+2),f
  7153                           opt subtitle "HI-TECH Software Omniscient Code Generator (Lite mode) build 49521"
  7154                           
  7155  076F                     l3062:	
  7156  076F  17A9               	bsf	(___ftdiv@f2)+(15/8),(15)&7
  7157                           opt subtitle "HI-TECH Software Omniscient Code Generator (Lite mode) build 49521"
  7158  0770  30FF               	movlw	0FFh
  7159  0771  05A8               	andwf	(___ftdiv@f2),f
  7160  0772  30FF               	movlw	0FFh
  7161  0773  05A9               	andwf	(___ftdiv@f2+1),f
  7162  0774  3000               	movlw	0
  7163  0775  05AA               	andwf	(___ftdiv@f2+2),f
  7164                           opt subtitle "HI-TECH Software Omniscient Code Generator (Lite mode) build 49521"
  7165  0776  3018               	movlw	(018h)
  7166  0777  00AE               	movwf	(??___ftdiv+0)+0
  7167  0778  082E               	movf	(??___ftdiv+0)+0,w
  7168  0779  00B2               	movwf	(___ftdiv@cntr)
  7169  077A  2F7B               	goto	l3064
  7170                           opt subtitle "HI-TECH Software Omniscient Code Generator (Lite mode) build 49521"
  7171                           
  7172  077B                     l507:	
  7173                           opt subtitle "HI-TECH Software Omniscient Code Generator (Lite mode) build 49521"
  7174                           
  7175  077B                     l3064:	
  7176  077B  3001               	movlw	01h
  7177  077C                     u2485:
  7178  077C  1003               	clrc
  7179  077D  0DB3               	rlf	(___ftdiv@f3),f
  7180  077E  0DB4               	rlf	(___ftdiv@f3+1),f
  7181  077F  0DB5               	rlf	(___ftdiv@f3+2),f
  7182  0780  3EFF               	addlw	-1
  7183  0781  1D03               	skipz
  7184  0782  2F7C               	goto	u2485
  7185                           opt subtitle "HI-TECH Software Omniscient Code Generator (Lite mode) build 49521"
  7186                           
  7187  0783                     l3066:	
  7188  0783  082A               	movf	(___ftdiv@f2+2),w
  7189  0784  022D               	subwf	(___ftdiv@f1+2),w
  7190  0785  1D03               	skipz
  7191  0786  2F8D               	goto	u2495
  7192  0787  0829               	movf	(___ftdiv@f2+1),w
  7193  0788  022C               	subwf	(___ftdiv@f1+1),w
  7194  0789  1D03               	skipz
  7195  078A  2F8D               	goto	u2495
  7196  078B  0828               	movf	(___ftdiv@f2),w
  7197  078C  022B               	subwf	(___ftdiv@f1),w
  7198  078D                     u2495:
  7199  078D  1C03               	skipc
  7200  078E  2F90               	goto	u2491
  7201  078F  2F91               	goto	u2490
  7202  0790                     u2491:
  7203  0790  2F9D               	goto	l3072
  7204  0791                     u2490:
  7205                           opt subtitle "HI-TECH Software Omniscient Code Generator (Lite mode) build 49521"
  7206                           
  7207  0791                     l3068:	
  7208  0791  0828               	movf	(___ftdiv@f2),w
  7209  0792  02AB               	subwf	(___ftdiv@f1),f
  7210  0793  0829               	movf	(___ftdiv@f2+1),w
  7211  0794  1C03               	skipc
  7212  0795  0F29               	incfsz	(___ftdiv@f2+1),w
  7213  0796  02AC               	subwf	(___ftdiv@f1+1),f
  7214  0797  082A               	movf	(___ftdiv@f2+2),w
  7215  0798  1C03               	skipc
  7216  0799  0A2A               	incf	(___ftdiv@f2+2),w
  7217  079A  02AD               	subwf	(___ftdiv@f1+2),f
  7218                           opt subtitle "HI-TECH Software Omniscient Code Generator (Lite mode) build 49521"
  7219                           
  7220  079B                     l3070:	
  7221  079B  1433               	bsf	(___ftdiv@f3)+(0/8),(0)&7
  7222  079C  2F9D               	goto	l3072
  7223                           opt subtitle "HI-TECH Software Omniscient Code Generator (Lite mode) build 49521"
  7224                           
  7225  079D                     l508:	
  7226                           opt subtitle "HI-TECH Software Omniscient Code Generator (Lite mode) build 49521"
  7227                           
  7228  079D                     l3072:	
  7229  079D  3001               	movlw	01h
  7230  079E                     u2505:
  7231  079E  1003               	clrc
  7232  079F  0DAB               	rlf	(___ftdiv@f1),f
  7233  07A0  0DAC               	rlf	(___ftdiv@f1+1),f
  7234  07A1  0DAD               	rlf	(___ftdiv@f1+2),f
  7235  07A2  3EFF               	addlw	-1
  7236  07A3  1D03               	skipz
  7237  07A4  2F9E               	goto	u2505
  7238                           opt subtitle "HI-TECH Software Omniscient Code Generator (Lite mode) build 49521"
  7239                           
  7240  07A5                     l3074:	
  7241  07A5  3001               	movlw	low(01h)
  7242  07A6  02B2               	subwf	(___ftdiv@cntr),f
  7243  07A7  1D03               	btfss	status,2
  7244  07A8  2FAA               	goto	u2511
  7245  07A9  2FAB               	goto	u2510
  7246  07AA                     u2511:
  7247  07AA  2F7B               	goto	l3064
  7248  07AB                     u2510:
  7249  07AB  2FAC               	goto	l3076
  7250                           opt subtitle "HI-TECH Software Omniscient Code Generator (Lite mode) build 49521"
  7251  07AC                     l509:	
  7252                           opt subtitle "HI-TECH Software Omniscient Code Generator (Lite mode) build 49521"
  7253                           
  7254  07AC                     l3076:	
  7255  07AC  0833               	movf	(___ftdiv@f3),w
  7256  07AD  00A0               	movwf	(?___ftpack)
  7257  07AE  0834               	movf	(___ftdiv@f3+1),w
  7258  07AF  00A1               	movwf	(?___ftpack+1)
  7259  07B0  0835               	movf	(___ftdiv@f3+2),w
  7260  07B1  00A2               	movwf	(?___ftpack+2)
  7261  07B2  0836               	movf	(___ftdiv@exp),w
  7262  07B3  00AE               	movwf	(??___ftdiv+0)+0
  7263  07B4  082E               	movf	(??___ftdiv+0)+0,w
  7264  07B5  00A3               	movwf	0+(?___ftpack)+03h
  7265  07B6  0837               	movf	(___ftdiv@sign),w
  7266  07B7  00AF               	movwf	(??___ftdiv+1)+0
  7267  07B8  082F               	movf	(??___ftdiv+1)+0,w
  7268  07B9  00A4               	movwf	0+(?___ftpack)+04h
  7269  07BA  120A  158A  261F   	fcall	___ftpack
              120A  118A         
  7270  07BF  1283               	bcf	status, 5	;RP0=0, select bank0
  7271  07C0  1303               	bcf	status, 6	;RP1=0, select bank0
  7272  07C1  0820               	movf	(0+(?___ftpack)),w
  7273  07C2  00A8               	movwf	(?___ftdiv)
  7274  07C3  0821               	movf	(1+(?___ftpack)),w
  7275  07C4  00A9               	movwf	(?___ftdiv+1)
  7276  07C5  0822               	movf	(2+(?___ftpack)),w
  7277  07C6  00AA               	movwf	(?___ftdiv+2)
  7278  07C7  2FC8               	goto	l505
  7279                           opt subtitle "HI-TECH Software Omniscient Code Generator (Lite mode) build 49521"
  7280  07C8                     l3078:	
  7281                           opt subtitle "HI-TECH Software Omniscient Code Generator (Lite mode) build 49521"
  7282                           
  7283  07C8                     l505:	
  7284  07C8  0008               	return
  7285                           opt subtitle "HI-TECH Software Omniscient Code Generator (Lite mode) build 49521"
  7286                           
  7287  07C9                     	__end_of___ftdiv:
  7288                           opt subtitle "HI-TECH Software Omniscient Code Generator (Lite mode) build 49521"
  7289                           
  7290                           opt pagewidth 120
  7291                           
  7292                           	opt lm
  7293                           
  7294                           	processor	16LF707
  7295                           clrc	macro
  7296                           	bcf	3,0
  7297                           	endm
  7298                           clrz	macro
  7299                           	bcf	3,2
  7300                           	endm
  7301                           setc	macro
  7302                           	bsf	3,0
  7303                           	endm
  7304                           setz	macro
  7305                           	bsf	3,2
  7306                           	endm
  7307                           skipc	macro
  7308                           	btfss	3,0
  7309                           	endm
  7310                           skipz	macro
  7311                           	btfss	3,2
  7312                           	endm
  7313                           skipnc	macro
  7314                           	btfsc	3,0
  7315                           	endm
  7316                           skipnz	macro
  7317                           	btfsc	3,2
  7318                           	endm
  7319                           indf	equ	0
  7320                           indf0	equ	0
  7321                           pc	equ	2
  7322                           pcl	equ	2
  7323                           status	equ	3
  7324                           fsr	equ	4
  7325                           fsr0	equ	4
  7326  0613                     __ptext698:	;psect for function ___ftmul
  7327                           opt subtitle "HI-TECH Software Omniscient Code Generator (Lite mode) build 49521"
  7328                           
  7329                           opt pagewidth 120
  7330                           
  7331  00EE                     	__size_of___ftmul	equ	__end_of___ftmul-___ftmul
  7332                           opt subtitle "HI-TECH Software Omniscient Code Generator (Lite mode) build 49521"
  7333  0613                     ___ftmul:	
  7334                           opt subtitle "HI-TECH Software Omniscient Code Generator (Lite mode) build 49521"
  7335                           
  7336                           opt pagewidth 120
  7337                           
  7338  0613                     l3080:	
  7339  0613  1283               	bcf	status, 5	;RP0=0, select bank0
  7340  0614  1303               	bcf	status, 6	;RP1=0, select bank0
  7341  0615  0828               	movf	(___ftmul@f1),w
  7342  0616  00AE               	movwf	((??___ftmul+0)+0)
  7343  0617  0829               	movf	(___ftmul@f1+1),w
  7344  0618  00AF               	movwf	((??___ftmul+0)+0+1)
  7345  0619  082A               	movf	(___ftmul@f1+2),w
  7346  061A  00B0               	movwf	((??___ftmul+0)+0+2)
  7347  061B  1003               	clrc
  7348  061C  0D2F               	rlf	(??___ftmul+0)+1,w
  7349  061D  0D30               	rlf	(??___ftmul+0)+2,w
  7350  061E  00B1               	movwf	(??___ftmul+3)+0
  7351  061F  0831               	movf	(??___ftmul+3)+0,w
  7352  0620  00B2               	movwf	(___ftmul@exp)
  7353  0621  08B2               	movf	((___ftmul@exp)),f
  7354  0622  1D03               	skipz
  7355  0623  2E25               	goto	u2521
  7356  0624  2E26               	goto	u2520
  7357  0625                     u2521:
  7358  0625  2E2E               	goto	l3086
  7359  0626                     u2520:
  7360                           opt subtitle "HI-TECH Software Omniscient Code Generator (Lite mode) build 49521"
  7361                           
  7362  0626                     l3082:	
  7363  0626  3000               	movlw	0x0
  7364  0627  00A8               	movwf	(?___ftmul)
  7365  0628  3000               	movlw	0x0
  7366  0629  00A9               	movwf	(?___ftmul+1)
  7367  062A  3000               	movlw	0x0
  7368  062B  00AA               	movwf	(?___ftmul+2)
  7369  062C  2F00               	goto	l515
  7370                           opt subtitle "HI-TECH Software Omniscient Code Generator (Lite mode) build 49521"
  7371  062D                     l3084:	
  7372  062D  2F00               	goto	l515
  7373                           opt subtitle "HI-TECH Software Omniscient Code Generator (Lite mode) build 49521"
  7374  062E                     l514:	
  7375                           opt subtitle "HI-TECH Software Omniscient Code Generator (Lite mode) build 49521"
  7376                           
  7377  062E                     l3086:	
  7378  062E  082B               	movf	(___ftmul@f2),w
  7379  062F  00AE               	movwf	((??___ftmul+0)+0)
  7380  0630  082C               	movf	(___ftmul@f2+1),w
  7381  0631  00AF               	movwf	((??___ftmul+0)+0+1)
  7382  0632  082D               	movf	(___ftmul@f2+2),w
  7383  0633  00B0               	movwf	((??___ftmul+0)+0+2)
  7384  0634  1003               	clrc
  7385  0635  0D2F               	rlf	(??___ftmul+0)+1,w
  7386  0636  0D30               	rlf	(??___ftmul+0)+2,w
  7387  0637  00B1               	movwf	(??___ftmul+3)+0
  7388  0638  0831               	movf	(??___ftmul+3)+0,w
  7389  0639  00B7               	movwf	(___ftmul@sign)
  7390  063A  08B7               	movf	((___ftmul@sign)),f
  7391  063B  1D03               	skipz
  7392  063C  2E3E               	goto	u2531
  7393  063D  2E3F               	goto	u2530
  7394  063E                     u2531:
  7395  063E  2E47               	goto	l3092
  7396  063F                     u2530:
  7397                           opt subtitle "HI-TECH Software Omniscient Code Generator (Lite mode) build 49521"
  7398                           
  7399  063F                     l3088:	
  7400  063F  3000               	movlw	0x0
  7401  0640  00A8               	movwf	(?___ftmul)
  7402  0641  3000               	movlw	0x0
  7403  0642  00A9               	movwf	(?___ftmul+1)
  7404  0643  3000               	movlw	0x0
  7405  0644  00AA               	movwf	(?___ftmul+2)
  7406  0645  2F00               	goto	l515
  7407                           opt subtitle "HI-TECH Software Omniscient Code Generator (Lite mode) build 49521"
  7408  0646                     l3090:	
  7409  0646  2F00               	goto	l515
  7410                           opt subtitle "HI-TECH Software Omniscient Code Generator (Lite mode) build 49521"
  7411  0647                     l516:	
  7412                           opt subtitle "HI-TECH Software Omniscient Code Generator (Lite mode) build 49521"
  7413                           
  7414  0647                     l3092:	
  7415  0647  0837               	movf	(___ftmul@sign),w
  7416  0648  3E7B               	addlw	07Bh
  7417  0649  00AE               	movwf	(??___ftmul+0)+0
  7418  064A  082E               	movf	(??___ftmul+0)+0,w
  7419  064B  07B2               	addwf	(___ftmul@exp),f
  7420                           opt subtitle "HI-TECH Software Omniscient Code Generator (Lite mode) build 49521"
  7421  064C  0828               	movf	(___ftmul@f1),w
  7422  064D  00AE               	movwf	((??___ftmul+0)+0)
  7423  064E  0829               	movf	(___ftmul@f1+1),w
  7424  064F  00AF               	movwf	((??___ftmul+0)+0+1)
  7425  0650  082A               	movf	(___ftmul@f1+2),w
  7426  0651  00B0               	movwf	((??___ftmul+0)+0+2)
  7427  0652  3010               	movlw	010h
  7428  0653                     u2545:
  7429  0653  1003               	clrc
  7430  0654  0CB0               	rrf	(??___ftmul+0)+2,f
  7431  0655  0CAF               	rrf	(??___ftmul+0)+1,f
  7432  0656  0CAE               	rrf	(??___ftmul+0)+0,f
  7433  0657                     u2540:
  7434  0657  3EFF               	addlw	-1
  7435  0658  1D03               	skipz
  7436  0659  2E53               	goto	u2545
  7437  065A  082E               	movf	0+(??___ftmul+0)+0,w
  7438  065B  00B1               	movwf	(??___ftmul+3)+0
  7439  065C  0831               	movf	(??___ftmul+3)+0,w
  7440  065D  00B7               	movwf	(___ftmul@sign)
  7441                           opt subtitle "HI-TECH Software Omniscient Code Generator (Lite mode) build 49521"
  7442  065E  082B               	movf	(___ftmul@f2),w
  7443  065F  00AE               	movwf	((??___ftmul+0)+0)
  7444  0660  082C               	movf	(___ftmul@f2+1),w
  7445  0661  00AF               	movwf	((??___ftmul+0)+0+1)
  7446  0662  082D               	movf	(___ftmul@f2+2),w
  7447  0663  00B0               	movwf	((??___ftmul+0)+0+2)
  7448  0664  3010               	movlw	010h
  7449  0665                     u2555:
  7450  0665  1003               	clrc
  7451  0666  0CB0               	rrf	(??___ftmul+0)+2,f
  7452  0667  0CAF               	rrf	(??___ftmul+0)+1,f
  7453  0668  0CAE               	rrf	(??___ftmul+0)+0,f
  7454  0669                     u2550:
  7455  0669  3EFF               	addlw	-1
  7456  066A  1D03               	skipz
  7457  066B  2E65               	goto	u2555
  7458  066C  082E               	movf	0+(??___ftmul+0)+0,w
  7459  066D  00B1               	movwf	(??___ftmul+3)+0
  7460  066E  0831               	movf	(??___ftmul+3)+0,w
  7461  066F  06B7               	xorwf	(___ftmul@sign),f
  7462                           opt subtitle "HI-TECH Software Omniscient Code Generator (Lite mode) build 49521"
  7463  0670  3080               	movlw	(080h)
  7464  0671  00AE               	movwf	(??___ftmul+0)+0
  7465  0672  082E               	movf	(??___ftmul+0)+0,w
  7466  0673  05B7               	andwf	(___ftmul@sign),f
  7467                           opt subtitle "HI-TECH Software Omniscient Code Generator (Lite mode) build 49521"
  7468                           
  7469  0674                     l3094:	
  7470  0674  17A9               	bsf	(___ftmul@f1)+(15/8),(15)&7
  7471                           opt subtitle "HI-TECH Software Omniscient Code Generator (Lite mode) build 49521"
  7472                           
  7473  0675                     l3096:	
  7474  0675  17AC               	bsf	(___ftmul@f2)+(15/8),(15)&7
  7475                           opt subtitle "HI-TECH Software Omniscient Code Generator (Lite mode) build 49521"
  7476                           
  7477  0676                     l3098:	
  7478  0676  30FF               	movlw	0FFh
  7479  0677  05AB               	andwf	(___ftmul@f2),f
  7480  0678  30FF               	movlw	0FFh
  7481  0679  05AC               	andwf	(___ftmul@f2+1),f
  7482  067A  3000               	movlw	0
  7483  067B  05AD               	andwf	(___ftmul@f2+2),f
  7484                           opt subtitle "HI-TECH Software Omniscient Code Generator (Lite mode) build 49521"
  7485                           
  7486  067C                     l3100:	
  7487  067C  3000               	movlw	0
  7488  067D  00B3               	movwf	(___ftmul@f3_as_product)
  7489  067E  3000               	movlw	0
  7490  067F  00B4               	movwf	(___ftmul@f3_as_product+1)
  7491  0680  3000               	movlw	0
  7492  0681  00B5               	movwf	(___ftmul@f3_as_product+2)
  7493                           opt subtitle "HI-TECH Software Omniscient Code Generator (Lite mode) build 49521"
  7494                           
  7495  0682                     l3102:	
  7496  0682  3007               	movlw	(07h)
  7497  0683  00AE               	movwf	(??___ftmul+0)+0
  7498  0684  082E               	movf	(??___ftmul+0)+0,w
  7499  0685  00B6               	movwf	(___ftmul@cntr)
  7500  0686  2E87               	goto	l3104
  7501                           opt subtitle "HI-TECH Software Omniscient Code Generator (Lite mode) build 49521"
  7502                           
  7503  0687                     l517:	
  7504                           opt subtitle "HI-TECH Software Omniscient Code Generator (Lite mode) build 49521"
  7505                           
  7506  0687                     l3104:	
  7507  0687  1C28               	btfss	(___ftmul@f1),(0)&7
  7508  0688  2E8A               	goto	u2561
  7509  0689  2E8B               	goto	u2560
  7510  068A                     u2561:
  7511  068A  2E9C               	goto	l3108
  7512  068B                     u2560:
  7513                           opt subtitle "HI-TECH Software Omniscient Code Generator (Lite mode) build 49521"
  7514                           
  7515  068B                     l3106:	
  7516  068B  082B               	movf	(___ftmul@f2),w
  7517  068C  07B3               	addwf	(___ftmul@f3_as_product),f
  7518  068D  082C               	movf	(___ftmul@f2+1),w
  7519  068E  1103               	clrz
  7520  068F  1803               	skipnc
  7521  0690  0A2C               	incf	(___ftmul@f2+1),w
  7522  0691  1903               	skipnz
  7523  0692  2E94               	goto	u2571
  7524  0693  07B4               	addwf	(___ftmul@f3_as_product+1),f
  7525  0694                     u2571:
  7526  0694  082D               	movf	(___ftmul@f2+2),w
  7527  0695  1103               	clrz
  7528  0696  1803               	skipnc
  7529  0697  0A2D               	incf	(___ftmul@f2+2),w
  7530  0698  1903               	skipnz
  7531  0699  2E9B               	goto	u2572
  7532  069A  07B5               	addwf	(___ftmul@f3_as_product+2),f
  7533  069B                     u2572:
  7534                           opt subtitle "HI-TECH Software Omniscient Code Generator (Lite mode) build 49521"
  7535  069B  2E9C               	goto	l3108
  7536                           opt subtitle "HI-TECH Software Omniscient Code Generator (Lite mode) build 49521"
  7537  069C                     l518:	
  7538                           opt subtitle "HI-TECH Software Omniscient Code Generator (Lite mode) build 49521"
  7539                           
  7540  069C                     l3108:	
  7541  069C  3001               	movlw	01h
  7542  069D                     u2585:
  7543  069D  1003               	clrc
  7544  069E  0CAA               	rrf	(___ftmul@f1+2),f
  7545  069F  0CA9               	rrf	(___ftmul@f1+1),f
  7546  06A0  0CA8               	rrf	(___ftmul@f1),f
  7547  06A1  3EFF               	addlw	-1
  7548  06A2  1D03               	skipz
  7549  06A3  2E9D               	goto	u2585
  7550                           opt subtitle "HI-TECH Software Omniscient Code Generator (Lite mode) build 49521"
  7551                           
  7552                           opt pagewidth 120
  7553  06A4                     l3110:	
  7554  06A4  3001               	movlw	01h
  7555  06A5                     u2595:
  7556  06A5  1003               	clrc
  7557  06A6  0DAB               	rlf	(___ftmul@f2),f
  7558  06A7  0DAC               	rlf	(___ftmul@f2+1),f
  7559  06A8  0DAD               	rlf	(___ftmul@f2+2),f
  7560  06A9  3EFF               	addlw	-1
  7561  06AA  1D03               	skipz
  7562  06AB  2EA5               	goto	u2595
  7563                           opt subtitle "HI-TECH Software Omniscient Code Generator (Lite mode) build 49521"
  7564                           
  7565  06AC                     l3112:	
  7566  06AC  3001               	movlw	low(01h)
  7567  06AD  02B6               	subwf	(___ftmul@cntr),f
  7568  06AE  1D03               	btfss	status,2
  7569  06AF  2EB1               	goto	u2601
  7570  06B0  2EB2               	goto	u2600
  7571  06B1                     u2601:
  7572  06B1  2E87               	goto	l3104
  7573  06B2                     u2600:
  7574  06B2  2EB3               	goto	l3114
  7575                           opt subtitle "HI-TECH Software Omniscient Code Generator (Lite mode) build 49521"
  7576  06B3                     l519:	
  7577                           opt subtitle "HI-TECH Software Omniscient Code Generator (Lite mode) build 49521"
  7578                           
  7579  06B3                     l3114:	
  7580  06B3  3009               	movlw	(09h)
  7581  06B4  00AE               	movwf	(??___ftmul+0)+0
  7582  06B5  082E               	movf	(??___ftmul+0)+0,w
  7583  06B6  00B6               	movwf	(___ftmul@cntr)
  7584  06B7  2EB8               	goto	l3116
  7585                           opt subtitle "HI-TECH Software Omniscient Code Generator (Lite mode) build 49521"
  7586                           
  7587  06B8                     l520:	
  7588                           opt subtitle "HI-TECH Software Omniscient Code Generator (Lite mode) build 49521"
  7589                           
  7590  06B8                     l3116:	
  7591  06B8  1C28               	btfss	(___ftmul@f1),(0)&7
  7592  06B9  2EBB               	goto	u2611
  7593  06BA  2EBC               	goto	u2610
  7594  06BB                     u2611:
  7595  06BB  2ECD               	goto	l3120
  7596  06BC                     u2610:
  7597                           opt subtitle "HI-TECH Software Omniscient Code Generator (Lite mode) build 49521"
  7598                           
  7599  06BC                     l3118:	
  7600  06BC  082B               	movf	(___ftmul@f2),w
  7601  06BD  07B3               	addwf	(___ftmul@f3_as_product),f
  7602  06BE  082C               	movf	(___ftmul@f2+1),w
  7603  06BF  1103               	clrz
  7604  06C0  1803               	skipnc
  7605  06C1  0A2C               	incf	(___ftmul@f2+1),w
  7606  06C2  1903               	skipnz
  7607  06C3  2EC5               	goto	u2621
  7608  06C4  07B4               	addwf	(___ftmul@f3_as_product+1),f
  7609  06C5                     u2621:
  7610  06C5  082D               	movf	(___ftmul@f2+2),w
  7611  06C6  1103               	clrz
  7612  06C7  1803               	skipnc
  7613  06C8  0A2D               	incf	(___ftmul@f2+2),w
  7614  06C9  1903               	skipnz
  7615  06CA  2ECC               	goto	u2622
  7616  06CB  07B5               	addwf	(___ftmul@f3_as_product+2),f
  7617  06CC                     u2622:
  7618                           opt subtitle "HI-TECH Software Omniscient Code Generator (Lite mode) build 49521"
  7619  06CC  2ECD               	goto	l3120
  7620                           opt subtitle "HI-TECH Software Omniscient Code Generator (Lite mode) build 49521"
  7621  06CD                     l521:	
  7622                           opt subtitle "HI-TECH Software Omniscient Code Generator (Lite mode) build 49521"
  7623                           
  7624  06CD                     l3120:	
  7625  06CD  3001               	movlw	01h
  7626  06CE                     u2635:
  7627  06CE  1003               	clrc
  7628  06CF  0CAA               	rrf	(___ftmul@f1+2),f
  7629  06D0  0CA9               	rrf	(___ftmul@f1+1),f
  7630  06D1  0CA8               	rrf	(___ftmul@f1),f
  7631  06D2  3EFF               	addlw	-1
  7632  06D3  1D03               	skipz
  7633  06D4  2ECE               	goto	u2635
  7634                           opt subtitle "HI-TECH Software Omniscient Code Generator (Lite mode) build 49521"
  7635                           
  7636                           opt pagewidth 120
  7637  06D5                     l3122:	
  7638  06D5  3001               	movlw	01h
  7639  06D6                     u2645:
  7640  06D6  1003               	clrc
  7641  06D7  0CB5               	rrf	(___ftmul@f3_as_product+2),f
  7642  06D8  0CB4               	rrf	(___ftmul@f3_as_product+1),f
  7643  06D9  0CB3               	rrf	(___ftmul@f3_as_product),f
  7644  06DA  3EFF               	addlw	-1
  7645  06DB  1D03               	skipz
  7646  06DC  2ED6               	goto	u2645
  7647                           opt subtitle "HI-TECH Software Omniscient Code Generator (Lite mode) build 49521"
  7648                           
  7649                           opt pagewidth 120
  7650  06DD                     l3124:	
  7651  06DD  3001               	movlw	low(01h)
  7652  06DE  02B6               	subwf	(___ftmul@cntr),f
  7653  06DF  1D03               	btfss	status,2
  7654  06E0  2EE2               	goto	u2651
  7655  06E1  2EE3               	goto	u2650
  7656  06E2                     u2651:
  7657  06E2  2EB8               	goto	l3116
  7658  06E3                     u2650:
  7659  06E3  2EE4               	goto	l3126
  7660                           opt subtitle "HI-TECH Software Omniscient Code Generator (Lite mode) build 49521"
  7661  06E4                     l522:	
  7662                           opt subtitle "HI-TECH Software Omniscient Code Generator (Lite mode) build 49521"
  7663                           
  7664  06E4                     l3126:	
  7665  06E4  0833               	movf	(___ftmul@f3_as_product),w
  7666  06E5  00A0               	movwf	(?___ftpack)
  7667  06E6  0834               	movf	(___ftmul@f3_as_product+1),w
  7668  06E7  00A1               	movwf	(?___ftpack+1)
  7669  06E8  0835               	movf	(___ftmul@f3_as_product+2),w
  7670  06E9  00A2               	movwf	(?___ftpack+2)
  7671  06EA  0832               	movf	(___ftmul@exp),w
  7672  06EB  00AE               	movwf	(??___ftmul+0)+0
  7673  06EC  082E               	movf	(??___ftmul+0)+0,w
  7674  06ED  00A3               	movwf	0+(?___ftpack)+03h
  7675  06EE  0837               	movf	(___ftmul@sign),w
  7676  06EF  00AF               	movwf	(??___ftmul+1)+0
  7677  06F0  082F               	movf	(??___ftmul+1)+0,w
  7678  06F1  00A4               	movwf	0+(?___ftpack)+04h
  7679  06F2  120A  158A  261F   	fcall	___ftpack
              120A  118A         
  7680  06F7  1283               	bcf	status, 5	;RP0=0, select bank0
  7681  06F8  1303               	bcf	status, 6	;RP1=0, select bank0
  7682  06F9  0820               	movf	(0+(?___ftpack)),w
  7683  06FA  00A8               	movwf	(?___ftmul)
  7684  06FB  0821               	movf	(1+(?___ftpack)),w
  7685  06FC  00A9               	movwf	(?___ftmul+1)
  7686  06FD  0822               	movf	(2+(?___ftpack)),w
  7687  06FE  00AA               	movwf	(?___ftmul+2)
  7688  06FF  2F00               	goto	l515
  7689                           opt subtitle "HI-TECH Software Omniscient Code Generator (Lite mode) build 49521"
  7690  0700                     l3128:	
  7691                           opt subtitle "HI-TECH Software Omniscient Code Generator (Lite mode) build 49521"
  7692                           
  7693  0700                     l515:	
  7694  0700  0008               	return
  7695                           opt subtitle "HI-TECH Software Omniscient Code Generator (Lite mode) build 49521"
  7696                           
  7697  0701                     	__end_of___ftmul:
  7698                           opt subtitle "HI-TECH Software Omniscient Code Generator (Lite mode) build 49521"
  7699                           
  7700                           opt pagewidth 120
  7701                           
  7702                           	opt lm
  7703                           
  7704                           	processor	16LF707
  7705                           clrc	macro
  7706                           	bcf	3,0
  7707                           	endm
  7708                           clrz	macro
  7709                           	bcf	3,2
  7710                           	endm
  7711                           setc	macro
  7712                           	bsf	3,0
  7713                           	endm
  7714                           setz	macro
  7715                           	bsf	3,2
  7716                           	endm
  7717                           skipc	macro
  7718                           	btfss	3,0
  7719                           	endm
  7720                           skipz	macro
  7721                           	btfss	3,2
  7722                           	endm
  7723                           skipnc	macro
  7724                           	btfsc	3,0
  7725                           	endm
  7726                           skipnz	macro
  7727                           	btfsc	3,2
  7728                           	endm
  7729                           indf	equ	0
  7730                           indf0	equ	0
  7731                           pc	equ	2
  7732                           pcl	equ	2
  7733                           status	equ	3
  7734                           fsr	equ	4
  7735  0E9C                     __ptext699:	;psect for function ___fttol
  7736                           opt subtitle "HI-TECH Software Omniscient Code Generator (Lite mode) build 49521"
  7737                           
  7738                           opt pagewidth 120
  7739                           
  7740  00A6                     	__size_of___fttol	equ	__end_of___fttol-___fttol
  7741                           opt subtitle "HI-TECH Software Omniscient Code Generator (Lite mode) build 49521"
  7742  0E9C                     ___fttol:	
  7743                           opt subtitle "HI-TECH Software Omniscient Code Generator (Lite mode) build 49521"
  7744                           
  7745                           opt pagewidth 120
  7746                           
  7747  0E9C                     l3130:	
  7748  0E9C  1283               	bcf	status, 5	;RP0=0, select bank0
  7749  0E9D  1303               	bcf	status, 6	;RP1=0, select bank0
  7750  0E9E  0820               	movf	(___fttol@f1),w
  7751  0E9F  00A4               	movwf	((??___fttol+0)+0)
  7752  0EA0  0821               	movf	(___fttol@f1+1),w
  7753  0EA1  00A5               	movwf	((??___fttol+0)+0+1)
  7754  0EA2  0822               	movf	(___fttol@f1+2),w
  7755  0EA3  00A6               	movwf	((??___fttol+0)+0+2)
  7756  0EA4  1003               	clrc
  7757  0EA5  0D25               	rlf	(??___fttol+0)+1,w
  7758  0EA6  0D26               	rlf	(??___fttol+0)+2,w
  7759  0EA7  00A7               	movwf	(??___fttol+3)+0
  7760  0EA8  0827               	movf	(??___fttol+3)+0,w
  7761  0EA9  00AD               	movwf	(___fttol@exp1)
  7762  0EAA  08AD               	movf	((___fttol@exp1)),f
  7763  0EAB  1D03               	skipz
  7764  0EAC  2EAE               	goto	u2661
  7765  0EAD  2EAF               	goto	u2660
  7766  0EAE                     u2661:
  7767  0EAE  2EB9               	goto	l3136
  7768  0EAF                     u2660:
  7769                           opt subtitle "HI-TECH Software Omniscient Code Generator (Lite mode) build 49521"
  7770                           
  7771  0EAF                     l3132:	
  7772  0EAF  3000               	movlw	0
  7773  0EB0  00A3               	movwf	(?___fttol+3)
  7774  0EB1  3000               	movlw	0
  7775  0EB2  00A2               	movwf	(?___fttol+2)
  7776  0EB3  3000               	movlw	0
  7777  0EB4  00A1               	movwf	(?___fttol+1)
  7778  0EB5  3000               	movlw	0
  7779  0EB6  00A0               	movwf	(?___fttol)
  7780                           opt subtitle "HI-TECH Software Omniscient Code Generator (Lite mode) build 49521"
  7781  0EB7  2F41               	goto	l526
  7782                           opt subtitle "HI-TECH Software Omniscient Code Generator (Lite mode) build 49521"
  7783  0EB8                     l3134:	
  7784  0EB8  2F41               	goto	l526
  7785                           opt subtitle "HI-TECH Software Omniscient Code Generator (Lite mode) build 49521"
  7786  0EB9                     l525:	
  7787                           opt subtitle "HI-TECH Software Omniscient Code Generator (Lite mode) build 49521"
  7788                           
  7789  0EB9                     l3136:	
  7790  0EB9  0820               	movf	(___fttol@f1),w
  7791  0EBA  00A4               	movwf	((??___fttol+0)+0)
  7792  0EBB  0821               	movf	(___fttol@f1+1),w
  7793  0EBC  00A5               	movwf	((??___fttol+0)+0+1)
  7794  0EBD  0822               	movf	(___fttol@f1+2),w
  7795  0EBE  00A6               	movwf	((??___fttol+0)+0+2)
  7796  0EBF  3017               	movlw	017h
  7797  0EC0                     u2675:
  7798  0EC0  1003               	clrc
  7799  0EC1  0CA6               	rrf	(??___fttol+0)+2,f
  7800  0EC2  0CA5               	rrf	(??___fttol+0)+1,f
  7801  0EC3  0CA4               	rrf	(??___fttol+0)+0,f
  7802  0EC4                     u2670:
  7803  0EC4  3EFF               	addlw	-1
  7804  0EC5  1D03               	skipz
  7805  0EC6  2EC0               	goto	u2675
  7806  0EC7  0824               	movf	0+(??___fttol+0)+0,w
  7807  0EC8  00A7               	movwf	(??___fttol+3)+0
  7808  0EC9  0827               	movf	(??___fttol+3)+0,w
  7809  0ECA  00A8               	movwf	(___fttol@sign1)
  7810                           opt subtitle "HI-TECH Software Omniscient Code Generator (Lite mode) build 49521"
  7811                           
  7812  0ECB                     l3138:	
  7813  0ECB  17A1               	bsf	(___fttol@f1)+(15/8),(15)&7
  7814                           opt subtitle "HI-TECH Software Omniscient Code Generator (Lite mode) build 49521"
  7815                           
  7816  0ECC                     l3140:	
  7817  0ECC  30FF               	movlw	0FFh
  7818  0ECD  05A0               	andwf	(___fttol@f1),f
  7819  0ECE  30FF               	movlw	0FFh
  7820  0ECF  05A1               	andwf	(___fttol@f1+1),f
  7821  0ED0  3000               	movlw	0
  7822  0ED1  05A2               	andwf	(___fttol@f1+2),f
  7823                           opt subtitle "HI-TECH Software Omniscient Code Generator (Lite mode) build 49521"
  7824                           
  7825  0ED2                     l3142:	
  7826  0ED2  0820               	movf	(___fttol@f1),w
  7827  0ED3  00A9               	movwf	(___fttol@lval)
  7828  0ED4  0821               	movf	(___fttol@f1+1),w
  7829  0ED5  00AA               	movwf	((___fttol@lval))+1
  7830  0ED6  0822               	movf	(___fttol@f1+2),w
  7831  0ED7  00AB               	movwf	((___fttol@lval))+2
  7832  0ED8  01AC               	clrf	((___fttol@lval))+3
  7833                           opt subtitle "HI-TECH Software Omniscient Code Generator (Lite mode) build 49521"
  7834                           
  7835  0ED9                     l3144:	
  7836  0ED9  308E               	movlw	low(08Eh)
  7837  0EDA  02AD               	subwf	(___fttol@exp1),f
  7838                           opt subtitle "HI-TECH Software Omniscient Code Generator (Lite mode) build 49521"
  7839                           
  7840  0EDB                     l3146:	
  7841  0EDB  1FAD               	btfss	(___fttol@exp1),7
  7842  0EDC  2EDE               	goto	u2681
  7843  0EDD  2EDF               	goto	u2680
  7844  0EDE                     u2681:
  7845  0EDE  2F04               	goto	l3156
  7846  0EDF                     u2680:
  7847                           opt subtitle "HI-TECH Software Omniscient Code Generator (Lite mode) build 49521"
  7848                           
  7849  0EDF                     l3148:	
  7850  0EDF  082D               	movf	(___fttol@exp1),w
  7851  0EE0  3A80               	xorlw	80h
  7852  0EE1  3E8F               	addlw	-((-15)^80h)
  7853  0EE2  1803               	skipnc
  7854  0EE3  2EE5               	goto	u2691
  7855  0EE4  2EE6               	goto	u2690
  7856  0EE5                     u2691:
  7857  0EE5  2EF1               	goto	l3154
  7858  0EE6                     u2690:
  7859                           opt subtitle "HI-TECH Software Omniscient Code Generator (Lite mode) build 49521"
  7860                           
  7861  0EE6                     l3150:	
  7862  0EE6  3000               	movlw	0
  7863  0EE7  00A3               	movwf	(?___fttol+3)
  7864  0EE8  3000               	movlw	0
  7865  0EE9  00A2               	movwf	(?___fttol+2)
  7866  0EEA  3000               	movlw	0
  7867  0EEB  00A1               	movwf	(?___fttol+1)
  7868  0EEC  3000               	movlw	0
  7869  0EED  00A0               	movwf	(?___fttol)
  7870                           opt subtitle "HI-TECH Software Omniscient Code Generator (Lite mode) build 49521"
  7871  0EEE  2F41               	goto	l526
  7872                           opt subtitle "HI-TECH Software Omniscient Code Generator (Lite mode) build 49521"
  7873  0EEF                     l3152:	
  7874  0EEF  2F41               	goto	l526
  7875                           opt subtitle "HI-TECH Software Omniscient Code Generator (Lite mode) build 49521"
  7876  0EF0                     l528:	
  7877  0EF0  2EF1               	goto	l3154
  7878                           opt subtitle "HI-TECH Software Omniscient Code Generator (Lite mode) build 49521"
  7879                           
  7880  0EF1                     l529:	
  7881                           opt subtitle "HI-TECH Software Omniscient Code Generator (Lite mode) build 49521"
  7882                           
  7883  0EF1                     l3154:	
  7884  0EF1  3001               	movlw	01h
  7885  0EF2                     u2705:
  7886  0EF2  1003               	clrc
  7887  0EF3  0CAC               	rrf	(___fttol@lval+3),f
  7888  0EF4  0CAB               	rrf	(___fttol@lval+2),f
  7889  0EF5  0CAA               	rrf	(___fttol@lval+1),f
  7890  0EF6  0CA9               	rrf	(___fttol@lval),f
  7891  0EF7  3EFF               	addlw	-1
  7892  0EF8  1D03               	skipz
  7893  0EF9  2EF2               	goto	u2705
  7894                           opt subtitle "HI-TECH Software Omniscient Code Generator (Lite mode) build 49521"
  7895                           
  7896  0EFA  3001               	movlw	(01h)
  7897  0EFB  00A4               	movwf	(??___fttol+0)+0
  7898  0EFC  0824               	movf	(??___fttol+0)+0,w
  7899  0EFD  07AD               	addwf	(___fttol@exp1),f
  7900  0EFE  1D03               	btfss	status,2
  7901  0EFF  2F01               	goto	u2711
  7902  0F00  2F02               	goto	u2710
  7903  0F01                     u2711:
  7904  0F01  2EF1               	goto	l3154
  7905  0F02                     u2710:
  7906  0F02  2F28               	goto	l3166
  7907                           opt subtitle "HI-TECH Software Omniscient Code Generator (Lite mode) build 49521"
  7908  0F03                     l530:	
  7909                           opt subtitle "HI-TECH Software Omniscient Code Generator (Lite mode) build 49521"
  7910  0F03  2F28               	goto	l3166
  7911                           opt subtitle "HI-TECH Software Omniscient Code Generator (Lite mode) build 49521"
  7912  0F04                     l527:	
  7913                           opt subtitle "HI-TECH Software Omniscient Code Generator (Lite mode) build 49521"
  7914                           
  7915  0F04                     l3156:	
  7916  0F04  3018               	movlw	(018h)
  7917  0F05  022D               	subwf	(___fttol@exp1),w
  7918  0F06  1C03               	skipc
  7919  0F07  2F09               	goto	u2721
  7920  0F08  2F0A               	goto	u2720
  7921  0F09                     u2721:
  7922  0F09  2F21               	goto	l3164
  7923  0F0A                     u2720:
  7924                           opt subtitle "HI-TECH Software Omniscient Code Generator (Lite mode) build 49521"
  7925                           
  7926  0F0A                     l3158:	
  7927  0F0A  3000               	movlw	0
  7928  0F0B  00A3               	movwf	(?___fttol+3)
  7929  0F0C  3000               	movlw	0
  7930  0F0D  00A2               	movwf	(?___fttol+2)
  7931  0F0E  3000               	movlw	0
  7932  0F0F  00A1               	movwf	(?___fttol+1)
  7933  0F10  3000               	movlw	0
  7934  0F11  00A0               	movwf	(?___fttol)
  7935                           opt subtitle "HI-TECH Software Omniscient Code Generator (Lite mode) build 49521"
  7936  0F12  2F41               	goto	l526
  7937                           opt subtitle "HI-TECH Software Omniscient Code Generator (Lite mode) build 49521"
  7938  0F13                     l3160:	
  7939  0F13  2F41               	goto	l526
  7940                           opt subtitle "HI-TECH Software Omniscient Code Generator (Lite mode) build 49521"
  7941  0F14                     l532:	
  7942                           opt subtitle "HI-TECH Software Omniscient Code Generator (Lite mode) build 49521"
  7943  0F14  2F21               	goto	l3164
  7944                           opt subtitle "HI-TECH Software Omniscient Code Generator (Lite mode) build 49521"
  7945  0F15                     l534:	
  7946                           opt subtitle "HI-TECH Software Omniscient Code Generator (Lite mode) build 49521"
  7947                           
  7948  0F15                     l3162:	
  7949  0F15  3001               	movlw	01h
  7950  0F16  00A4               	movwf	(??___fttol+0)+0
  7951  0F17                     u2735:
  7952  0F17  1003               	clrc
  7953  0F18  0DA9               	rlf	(___fttol@lval),f
  7954  0F19  0DAA               	rlf	(___fttol@lval+1),f
  7955  0F1A  0DAB               	rlf	(___fttol@lval+2),f
  7956  0F1B  0DAC               	rlf	(___fttol@lval+3),f
  7957  0F1C  0BA4               	decfsz	(??___fttol+0)+0
  7958  0F1D  2F17               	goto	u2735
  7959                           opt subtitle "HI-TECH Software Omniscient Code Generator (Lite mode) build 49521"
  7960  0F1E  3001               	movlw	low(01h)
  7961  0F1F  02AD               	subwf	(___fttol@exp1),f
  7962  0F20  2F21               	goto	l3164
  7963                           opt subtitle "HI-TECH Software Omniscient Code Generator (Lite mode) build 49521"
  7964                           
  7965  0F21                     l533:	
  7966                           opt subtitle "HI-TECH Software Omniscient Code Generator (Lite mode) build 49521"
  7967                           
  7968  0F21                     l3164:	
  7969  0F21  08AD               	movf	(___fttol@exp1),f
  7970  0F22  1D03               	skipz
  7971  0F23  2F25               	goto	u2741
  7972  0F24  2F26               	goto	u2740
  7973  0F25                     u2741:
  7974  0F25  2F15               	goto	l3162
  7975  0F26                     u2740:
  7976  0F26  2F28               	goto	l3166
  7977                           opt subtitle "HI-TECH Software Omniscient Code Generator (Lite mode) build 49521"
  7978  0F27                     l535:	
  7979  0F27  2F28               	goto	l3166
  7980                           opt subtitle "HI-TECH Software Omniscient Code Generator (Lite mode) build 49521"
  7981                           
  7982  0F28                     l531:	
  7983                           opt subtitle "HI-TECH Software Omniscient Code Generator (Lite mode) build 49521"
  7984                           
  7985  0F28                     l3166:	
  7986  0F28  0828               	movf	(___fttol@sign1),w
  7987  0F29  1D03               	skipz
  7988  0F2A  2F2C               	goto	u2750
  7989  0F2B  2F38               	goto	l3170
  7990  0F2C                     u2750:
  7991                           opt subtitle "HI-TECH Software Omniscient Code Generator (Lite mode) build 49521"
  7992                           
  7993  0F2C                     l3168:	
  7994  0F2C  09A9               	comf	(___fttol@lval),f
  7995  0F2D  09AA               	comf	(___fttol@lval+1),f
  7996  0F2E  09AB               	comf	(___fttol@lval+2),f
  7997  0F2F  09AC               	comf	(___fttol@lval+3),f
  7998  0F30  0AA9               	incf	(___fttol@lval),f
  7999  0F31  1903               	skipnz
  8000  0F32  0AAA               	incf	(___fttol@lval+1),f
  8001  0F33  1903               	skipnz
  8002  0F34  0AAB               	incf	(___fttol@lval+2),f
  8003  0F35  1903               	skipnz
  8004  0F36  0AAC               	incf	(___fttol@lval+3),f
  8005  0F37  2F38               	goto	l3170
  8006                           opt subtitle "HI-TECH Software Omniscient Code Generator (Lite mode) build 49521"
  8007  0F38                     l536:	
  8008                           opt subtitle "HI-TECH Software Omniscient Code Generator (Lite mode) build 49521"
  8009                           
  8010  0F38                     l3170:	
  8011  0F38  082C               	movf	(___fttol@lval+3),w
  8012  0F39  00A3               	movwf	(?___fttol+3)
  8013  0F3A  082B               	movf	(___fttol@lval+2),w
  8014  0F3B  00A2               	movwf	(?___fttol+2)
  8015  0F3C  082A               	movf	(___fttol@lval+1),w
  8016  0F3D  00A1               	movwf	(?___fttol+1)
  8017  0F3E  0829               	movf	(___fttol@lval),w
  8018  0F3F  00A0               	movwf	(?___fttol)
  8019                           opt subtitle "HI-TECH Software Omniscient Code Generator (Lite mode) build 49521"
  8020  0F40  2F41               	goto	l526
  8021                           opt subtitle "HI-TECH Software Omniscient Code Generator (Lite mode) build 49521"
  8022  0F41                     l3172:	
  8023                           opt subtitle "HI-TECH Software Omniscient Code Generator (Lite mode) build 49521"
  8024                           
  8025  0F41                     l526:	
  8026  0F41  0008               	return
  8027                           opt subtitle "HI-TECH Software Omniscient Code Generator (Lite mode) build 49521"
  8028                           
  8029  0F42                     	__end_of___fttol:
  8030                           opt subtitle "HI-TECH Software Omniscient Code Generator (Lite mode) build 49521"
  8031                           
  8032                           opt pagewidth 120
  8033                           
  8034                           	opt lm
  8035                           
  8036                           	processor	16LF707
  8037                           clrc	macro
  8038                           	bcf	3,0
  8039                           	endm
  8040                           clrz	macro
  8041                           	bcf	3,2
  8042                           	endm
  8043                           setc	macro
  8044                           	bsf	3,0
  8045                           	endm
  8046                           setz	macro
  8047                           	bsf	3,2
  8048                           	endm
  8049                           skipc	macro
  8050                           	btfss	3,0
  8051                           	endm
  8052                           skipz	macro
  8053                           	btfss	3,2
  8054                           	endm
  8055                           skipnc	macro
  8056                           	btfsc	3,0
  8057                           	endm
  8058                           skipnz	macro
  8059                           	btfsc	3,2
  8060                           	endm
  8061                           indf	equ	0
  8062                           indf0	equ	0
  8063                           pc	equ	2
  8064  0A95                     __ptext700:	;psect for function ___lbtoft
  8065                           opt subtitle "HI-TECH Software Omniscient Code Generator (Lite mode) build 49521"
  8066                           
  8067                           opt pagewidth 120
  8068                           
  8069  0021                     	__size_of___lbtoft	equ	__end_of___lbtoft-___lbtoft
  8070                           opt subtitle "HI-TECH Software Omniscient Code Generator (Lite mode) build 49521"
  8071  0A95                     ___lbtoft:	
  8072                           opt subtitle "HI-TECH Software Omniscient Code Generator (Lite mode) build 49521"
  8073                           
  8074                           opt pagewidth 120
  8075  0A95  1283               	bcf	status, 5	;RP0=0, select bank0
  8076  0A96  1303               	bcf	status, 6	;RP1=0, select bank0
  8077  0A97  00AF               	movwf	(___lbtoft@c)
  8078                           opt subtitle "HI-TECH Software Omniscient Code Generator (Lite mode) build 49521"
  8079                           
  8080  0A98                     l3174:	
  8081  0A98  082F               	movf	(___lbtoft@c),w
  8082  0A99  00AB               	movwf	((??___lbtoft+0)+0)
  8083  0A9A  01AC               	clrf	((??___lbtoft+0)+0+1)
  8084  0A9B  01AD               	clrf	((??___lbtoft+0)+0+2)
  8085  0A9C  082B               	movf	0+(??___lbtoft+0)+0,w
  8086  0A9D  00A0               	movwf	(?___ftpack)
  8087  0A9E  082C               	movf	1+(??___lbtoft+0)+0,w
  8088  0A9F  00A1               	movwf	(?___ftpack+1)
  8089  0AA0  082D               	movf	2+(??___lbtoft+0)+0,w
  8090  0AA1  00A2               	movwf	(?___ftpack+2)
  8091  0AA2  308E               	movlw	(08Eh)
  8092  0AA3  00AE               	movwf	(??___lbtoft+3)+0
  8093  0AA4  082E               	movf	(??___lbtoft+3)+0,w
  8094  0AA5  00A3               	movwf	0+(?___ftpack)+03h
  8095  0AA6  01A4               	clrf	0+(?___ftpack)+04h
  8096  0AA7  120A  158A  261F   	fcall	___ftpack
              120A  158A         
  8097  0AAC  1283               	bcf	status, 5	;RP0=0, select bank0
  8098  0AAD  1303               	bcf	status, 6	;RP1=0, select bank0
  8099  0AAE  0820               	movf	(0+(?___ftpack)),w
  8100  0AAF  00A8               	movwf	(?___lbtoft)
  8101  0AB0  0821               	movf	(1+(?___ftpack)),w
  8102  0AB1  00A9               	movwf	(?___lbtoft+1)
  8103  0AB2  0822               	movf	(2+(?___ftpack)),w
  8104  0AB3  00AA               	movwf	(?___lbtoft+2)
  8105  0AB4  2AB5               	goto	l541
  8106                           opt subtitle "HI-TECH Software Omniscient Code Generator (Lite mode) build 49521"
  8107  0AB5                     l3176:	
  8108                           opt subtitle "HI-TECH Software Omniscient Code Generator (Lite mode) build 49521"
  8109                           
  8110  0AB5                     l541:	
  8111  0AB5  0008               	return
  8112                           opt subtitle "HI-TECH Software Omniscient Code Generator (Lite mode) build 49521"
  8113                           
  8114  0AB6                     	__end_of___lbtoft:
  8115                           opt subtitle "HI-TECH Software Omniscient Code Generator (Lite mode) build 49521"
  8116                           
  8117                           opt pagewidth 120
  8118                           
  8119                           	opt lm
  8120                           
  8121                           	processor	16LF707
  8122                           clrc	macro
  8123                           	bcf	3,0
  8124                           	endm
  8125                           clrz	macro
  8126                           	bcf	3,2
  8127                           	endm
  8128                           setc	macro
  8129                           	bsf	3,0
  8130                           	endm
  8131                           setz	macro
  8132                           	bsf	3,2
  8133                           	endm
  8134                           skipc	macro
  8135                           	btfss	3,0
  8136                           	endm
  8137                           skipz	macro
  8138                           	btfss	3,2
  8139                           	endm
  8140                           skipnc	macro
  8141                           	btfsc	3,0
  8142                           	endm
  8143                           skipnz	macro
  8144                           	btfsc	3,2
  8145                           	endm
  8146                           indf	equ	0
  8147                           indf0	equ	0
  8148                           pc	equ	2
  8149                           pcl	equ	2
  8150                           status	equ	3
  8151                           fsr	equ	4
  8152                           fsr0	equ	4
  8153  0E1F                     __ptext701:	;psect for function ___ftpack
  8154                           opt subtitle "HI-TECH Software Omniscient Code Generator (Lite mode) build 49521"
  8155                           
  8156                           opt pagewidth 120
  8157                           
  8158  007D                     	__size_of___ftpack	equ	__end_of___ftpack-___ftpack
  8159                           opt subtitle "HI-TECH Software Omniscient Code Generator (Lite mode) build 49521"
  8160  0E1F                     ___ftpack:	
  8161                           opt subtitle "HI-TECH Software Omniscient Code Generator (Lite mode) build 49521"
  8162                           
  8163                           opt pagewidth 120
  8164                           
  8165  0E1F                     l3008:	
  8166  0E1F  1283               	bcf	status, 5	;RP0=0, select bank0
  8167  0E20  1303               	bcf	status, 6	;RP1=0, select bank0
  8168  0E21  0823               	movf	(___ftpack@exp),w
  8169  0E22  1D03               	skipz
  8170  0E23  2E25               	goto	u2330
  8171  0E24  2E2D               	goto	l3012
  8172  0E25                     u2330:
  8173                           opt subtitle "HI-TECH Software Omniscient Code Generator (Lite mode) build 49521"
  8174  0E25                     l3010:	
  8175  0E25  0822               	movf	(___ftpack@arg+2),w
  8176  0E26  0421               	iorwf	(___ftpack@arg+1),w
  8177  0E27  0420               	iorwf	(___ftpack@arg),w
  8178  0E28  1D03               	skipz
  8179  0E29  2E2B               	goto	u2341
  8180  0E2A  2E2C               	goto	u2340
  8181  0E2B                     u2341:
  8182  0E2B  2E43               	goto	l3018
  8183  0E2C                     u2340:
  8184  0E2C  2E2D               	goto	l3012
  8185                           opt subtitle "HI-TECH Software Omniscient Code Generator (Lite mode) build 49521"
  8186  0E2D                     l750:	
  8187                           opt subtitle "HI-TECH Software Omniscient Code Generator (Lite mode) build 49521"
  8188                           
  8189  0E2D                     l3012:	
  8190  0E2D  3000               	movlw	0x0
  8191  0E2E  00A0               	movwf	(?___ftpack)
  8192  0E2F  3000               	movlw	0x0
  8193  0E30  00A1               	movwf	(?___ftpack+1)
  8194  0E31  3000               	movlw	0x0
  8195  0E32  00A2               	movwf	(?___ftpack+2)
  8196  0E33  2E9B               	goto	l751
  8197                           opt subtitle "HI-TECH Software Omniscient Code Generator (Lite mode) build 49521"
  8198  0E34                     l3014:	
  8199  0E34  2E9B               	goto	l751
  8200                           opt subtitle "HI-TECH Software Omniscient Code Generator (Lite mode) build 49521"
  8201  0E35                     l748:	
  8202                           opt subtitle "HI-TECH Software Omniscient Code Generator (Lite mode) build 49521"
  8203  0E35  2E43               	goto	l3018
  8204                           opt subtitle "HI-TECH Software Omniscient Code Generator (Lite mode) build 49521"
  8205  0E36                     l753:	
  8206                           opt subtitle "HI-TECH Software Omniscient Code Generator (Lite mode) build 49521"
  8207                           
  8208  0E36                     l3016:	
  8209  0E36  3001               	movlw	(01h)
  8210  0E37  00A5               	movwf	(??___ftpack+0)+0
  8211  0E38  0825               	movf	(??___ftpack+0)+0,w
  8212  0E39  07A3               	addwf	(___ftpack@exp),f
  8213                           opt subtitle "HI-TECH Software Omniscient Code Generator (Lite mode) build 49521"
  8214  0E3A  3001               	movlw	01h
  8215  0E3B                     u2355:
  8216  0E3B  1003               	clrc
  8217  0E3C  0CA2               	rrf	(___ftpack@arg+2),f
  8218  0E3D  0CA1               	rrf	(___ftpack@arg+1),f
  8219  0E3E  0CA0               	rrf	(___ftpack@arg),f
  8220  0E3F  3EFF               	addlw	-1
  8221  0E40  1D03               	skipz
  8222  0E41  2E3B               	goto	u2355
  8223                           opt subtitle "HI-TECH Software Omniscient Code Generator (Lite mode) build 49521"
  8224  0E42  2E43               	goto	l3018
  8225                           opt subtitle "HI-TECH Software Omniscient Code Generator (Lite mode) build 49521"
  8226                           
  8227  0E43                     l752:	
  8228                           opt subtitle "HI-TECH Software Omniscient Code Generator (Lite mode) build 49521"
  8229                           
  8230  0E43                     l3018:	
  8231  0E43  30FE               	movlw	low highword(0FE0000h)
  8232  0E44  0522               	andwf	(___ftpack@arg+2),w
  8233  0E45  1D03               	btfss	status,2
  8234  0E46  2E48               	goto	u2361
  8235  0E47  2E49               	goto	u2360
  8236  0E48                     u2361:
  8237  0E48  2E36               	goto	l3016
  8238  0E49                     u2360:
  8239  0E49  2E61               	goto	l755
  8240                           opt subtitle "HI-TECH Software Omniscient Code Generator (Lite mode) build 49521"
  8241  0E4A                     l754:	
  8242                           opt subtitle "HI-TECH Software Omniscient Code Generator (Lite mode) build 49521"
  8243  0E4A  2E61               	goto	l755
  8244                           opt subtitle "HI-TECH Software Omniscient Code Generator (Lite mode) build 49521"
  8245  0E4B                     l756:	
  8246                           opt subtitle "HI-TECH Software Omniscient Code Generator (Lite mode) build 49521"
  8247                           
  8248  0E4B                     l3020:	
  8249  0E4B  3001               	movlw	(01h)
  8250  0E4C  00A5               	movwf	(??___ftpack+0)+0
  8251  0E4D  0825               	movf	(??___ftpack+0)+0,w
  8252  0E4E  07A3               	addwf	(___ftpack@exp),f
  8253                           opt subtitle "HI-TECH Software Omniscient Code Generator (Lite mode) build 49521"
  8254                           
  8255  0E4F                     l3022:	
  8256  0E4F  3001               	movlw	01h
  8257  0E50  07A0               	addwf	(___ftpack@arg),f
  8258  0E51  3000               	movlw	0
  8259  0E52  1803               	skipnc
  8260  0E53  3001               movlw 1
  8261  0E54  07A1               	addwf	(___ftpack@arg+1),f
  8262  0E55  3000               	movlw	0
  8263  0E56  1803               	skipnc
  8264  0E57  3001               movlw 1
  8265  0E58  07A2               	addwf	(___ftpack@arg+2),f
  8266                           opt subtitle "HI-TECH Software Omniscient Code Generator (Lite mode) build 49521"
  8267                           
  8268  0E59                     l3024:	
  8269  0E59  3001               	movlw	01h
  8270  0E5A                     u2375:
  8271  0E5A  1003               	clrc
  8272  0E5B  0CA2               	rrf	(___ftpack@arg+2),f
  8273  0E5C  0CA1               	rrf	(___ftpack@arg+1),f
  8274  0E5D  0CA0               	rrf	(___ftpack@arg),f
  8275  0E5E  3EFF               	addlw	-1
  8276  0E5F  1D03               	skipz
  8277  0E60  2E5A               	goto	u2375
  8278                           opt subtitle "HI-TECH Software Omniscient Code Generator (Lite mode) build 49521"
  8279                           
  8280                           opt pagewidth 120
  8281  0E61                     l755:	
  8282                           opt subtitle "HI-TECH Software Omniscient Code Generator (Lite mode) build 49521"
  8283  0E61  30FF               	movlw	low highword(0FF0000h)
  8284  0E62  0522               	andwf	(___ftpack@arg+2),w
  8285  0E63  1D03               	btfss	status,2
  8286  0E64  2E66               	goto	u2381
  8287  0E65  2E67               	goto	u2380
  8288  0E66                     u2381:
  8289  0E66  2E4B               	goto	l3020
  8290  0E67                     u2380:
  8291  0E67  2E74               	goto	l3028
  8292                           opt subtitle "HI-TECH Software Omniscient Code Generator (Lite mode) build 49521"
  8293  0E68                     l757:	
  8294                           opt subtitle "HI-TECH Software Omniscient Code Generator (Lite mode) build 49521"
  8295  0E68  2E74               	goto	l3028
  8296                           opt subtitle "HI-TECH Software Omniscient Code Generator (Lite mode) build 49521"
  8297  0E69                     l759:	
  8298                           opt subtitle "HI-TECH Software Omniscient Code Generator (Lite mode) build 49521"
  8299                           
  8300  0E69                     l3026:	
  8301  0E69  3001               	movlw	low(01h)
  8302  0E6A  02A3               	subwf	(___ftpack@exp),f
  8303                           opt subtitle "HI-TECH Software Omniscient Code Generator (Lite mode) build 49521"
  8304  0E6B  3001               	movlw	01h
  8305  0E6C                     u2395:
  8306  0E6C  1003               	clrc
  8307  0E6D  0DA0               	rlf	(___ftpack@arg),f
  8308  0E6E  0DA1               	rlf	(___ftpack@arg+1),f
  8309  0E6F  0DA2               	rlf	(___ftpack@arg+2),f
  8310  0E70  3EFF               	addlw	-1
  8311  0E71  1D03               	skipz
  8312  0E72  2E6C               	goto	u2395
  8313  0E73  2E74               	goto	l3028
  8314                           opt subtitle "HI-TECH Software Omniscient Code Generator (Lite mode) build 49521"
  8315                           
  8316  0E74                     l758:	
  8317                           opt subtitle "HI-TECH Software Omniscient Code Generator (Lite mode) build 49521"
  8318                           
  8319  0E74                     l3028:	
  8320  0E74  1FA1               	btfss	(___ftpack@arg+1),(15)&7
  8321  0E75  2E77               	goto	u2401
  8322  0E76  2E78               	goto	u2400
  8323  0E77                     u2401:
  8324  0E77  2E69               	goto	l3026
  8325  0E78                     u2400:
  8326                           opt subtitle "HI-TECH Software Omniscient Code Generator (Lite mode) build 49521"
  8327  0E78                     l760:	
  8328                           opt subtitle "HI-TECH Software Omniscient Code Generator (Lite mode) build 49521"
  8329  0E78  1823               	btfsc	(___ftpack@exp),(0)&7
  8330  0E79  2E7B               	goto	u2411
  8331  0E7A  2E7C               	goto	u2410
  8332  0E7B                     u2411:
  8333  0E7B  2E82               	goto	l761
  8334  0E7C                     u2410:
  8335                           opt subtitle "HI-TECH Software Omniscient Code Generator (Lite mode) build 49521"
  8336                           
  8337  0E7C                     l3030:	
  8338  0E7C  30FF               	movlw	0FFh
  8339  0E7D  05A0               	andwf	(___ftpack@arg),f
  8340  0E7E  307F               	movlw	07Fh
  8341  0E7F  05A1               	andwf	(___ftpack@arg+1),f
  8342  0E80  30FF               	movlw	0FFh
  8343  0E81  05A2               	andwf	(___ftpack@arg+2),f
  8344                           opt subtitle "HI-TECH Software Omniscient Code Generator (Lite mode) build 49521"
  8345  0E82                     l761:	
  8346                           opt subtitle "HI-TECH Software Omniscient Code Generator (Lite mode) build 49521"
  8347  0E82  1003               	clrc
  8348  0E83  0CA3               	rrf	(___ftpack@exp),f
  8349                           opt subtitle "HI-TECH Software Omniscient Code Generator (Lite mode) build 49521"
  8350                           
  8351                           opt pagewidth 120
  8352  0E84                     l3032:	
  8353  0E84  0823               	movf	(___ftpack@exp),w
  8354  0E85  00A5               	movwf	((??___ftpack+0)+0)
  8355  0E86  01A6               	clrf	((??___ftpack+0)+0+1)
  8356  0E87  01A7               	clrf	((??___ftpack+0)+0+2)
  8357  0E88  3010               	movlw	010h
  8358  0E89                     u2425:
  8359  0E89  1003               	clrc
  8360  0E8A  0DA5               	rlf	(??___ftpack+0)+0,f
  8361  0E8B  0DA6               	rlf	(??___ftpack+0)+1,f
  8362  0E8C  0DA7               	rlf	(??___ftpack+0)+2,f
  8363  0E8D                     u2420:
  8364  0E8D  3EFF               	addlw	-1
  8365  0E8E  1D03               	skipz
  8366  0E8F  2E89               	goto	u2425
  8367  0E90  0825               	movf	0+(??___ftpack+0)+0,w
  8368  0E91  04A0               	iorwf	(___ftpack@arg),f
  8369  0E92  0826               	movf	1+(??___ftpack+0)+0,w
  8370  0E93  04A1               	iorwf	(___ftpack@arg+1),f
  8371  0E94  0827               	movf	2+(??___ftpack+0)+0,w
  8372  0E95  04A2               	iorwf	(___ftpack@arg+2),f
  8373                           opt subtitle "HI-TECH Software Omniscient Code Generator (Lite mode) build 49521"
  8374                           
  8375  0E96                     l3034:	
  8376  0E96  0824               	movf	(___ftpack@sign),w
  8377  0E97  1D03               	skipz
  8378  0E98  2E9A               	goto	u2430
  8379  0E99  2E9B               	goto	l762
  8380  0E9A                     u2430:
  8381                           opt subtitle "HI-TECH Software Omniscient Code Generator (Lite mode) build 49521"
  8382                           
  8383  0E9A                     l3036:	
  8384  0E9A  17A2               	bsf	(___ftpack@arg)+(23/8),(23)&7
  8385                           opt subtitle "HI-TECH Software Omniscient Code Generator (Lite mode) build 49521"
  8386  0E9B                     l762:	
  8387                           opt subtitle "HI-TECH Software Omniscient Code Generator (Lite mode) build 49521"
  8388                           
  8389                           opt pagewidth 120
  8390  0E9B                     l751:	
  8391  0E9B  0008               	return
  8392                           opt subtitle "HI-TECH Software Omniscient Code Generator (Lite mode) build 49521"
  8393                           
  8394  0E9C                     	__end_of___ftpack:
  8395                           opt subtitle "HI-TECH Software Omniscient Code Generator (Lite mode) build 49521"
  8396                           
  8397                           opt pagewidth 120
  8398                           
  8399                           	opt lm
  8400                           
  8401                           	processor	16LF707
  8402                           clrc	macro
  8403                           	bcf	3,0
  8404                           	endm
  8405                           clrz	macro
  8406                           	bcf	3,2
  8407                           	endm
  8408                           setc	macro
  8409                           	bsf	3,0
  8410                           	endm
  8411                           setz	macro
  8412                           	bsf	3,2
  8413                           	endm
  8414                           skipc	macro
  8415                           	btfss	3,0
  8416                           	endm
  8417                           skipz	macro
  8418                           	btfss	3,2
  8419                           	endm
  8420                           skipnc	macro
  8421                           	btfsc	3,0
  8422                           	endm
  8423                           skipnz	macro
  8424                           	btfsc	3,2
  8425                           	endm
  8426                           indf	equ	0
  8427                           indf0	equ	0
  8428                           pc	equ	2
  8429                           pcl	equ	2
  8430                           status	equ	3
  8431                           fsr	equ	4
  8432  0DAB                     __ptext702:	;psect for function ___awdiv
  8433                           opt subtitle "HI-TECH Software Omniscient Code Generator (Lite mode) build 49521"
  8434                           
  8435                           opt pagewidth 120
  8436                           
  8437  0074                     	__size_of___awdiv	equ	__end_of___awdiv-___awdiv
  8438                           opt subtitle "HI-TECH Software Omniscient Code Generator (Lite mode) build 49521"
  8439  0DAB                     ___awdiv:	
  8440                           opt subtitle "HI-TECH Software Omniscient Code Generator (Lite mode) build 49521"
  8441                           
  8442                           opt pagewidth 120
  8443                           
  8444  0DAB                     l3178:	
  8445  0DAB  1283               	bcf	status, 5	;RP0=0, select bank0
  8446  0DAC  1303               	bcf	status, 6	;RP1=0, select bank0
  8447  0DAD  01AC               	clrf	(___awdiv@sign)
  8448                           opt subtitle "HI-TECH Software Omniscient Code Generator (Lite mode) build 49521"
  8449  0DAE  1FA7               	btfss	(___awdiv@divisor+1),7
  8450  0DAF  2DB1               	goto	u2761
  8451  0DB0  2DB2               	goto	u2760
  8452  0DB1                     u2761:
  8453  0DB1  2DBA               	goto	l3184
  8454  0DB2                     u2760:
  8455                           opt subtitle "HI-TECH Software Omniscient Code Generator (Lite mode) build 49521"
  8456                           
  8457  0DB2                     l3180:	
  8458  0DB2  09A6               	comf	(___awdiv@divisor),f
  8459  0DB3  09A7               	comf	(___awdiv@divisor+1),f
  8460  0DB4  0AA6               	incf	(___awdiv@divisor),f
  8461  0DB5  1903               	skipnz
  8462  0DB6  0AA7               	incf	(___awdiv@divisor+1),f
  8463                           opt subtitle "HI-TECH Software Omniscient Code Generator (Lite mode) build 49521"
  8464                           
  8465  0DB7                     l3182:	
  8466  0DB7  01AC               	clrf	(___awdiv@sign)
  8467  0DB8  0AAC               	incf	(___awdiv@sign),f
  8468  0DB9  2DBA               	goto	l3184
  8469                           opt subtitle "HI-TECH Software Omniscient Code Generator (Lite mode) build 49521"
  8470                           
  8471  0DBA                     l556:	
  8472                           opt subtitle "HI-TECH Software Omniscient Code Generator (Lite mode) build 49521"
  8473                           
  8474  0DBA                     l3184:	
  8475  0DBA  1FA9               	btfss	(___awdiv@dividend+1),7
  8476  0DBB  2DBD               	goto	u2771
  8477  0DBC  2DBE               	goto	u2770
  8478  0DBD                     u2771:
  8479  0DBD  2DC8               	goto	l3190
  8480  0DBE                     u2770:
  8481                           opt subtitle "HI-TECH Software Omniscient Code Generator (Lite mode) build 49521"
  8482                           
  8483  0DBE                     l3186:	
  8484  0DBE  09A8               	comf	(___awdiv@dividend),f
  8485  0DBF  09A9               	comf	(___awdiv@dividend+1),f
  8486  0DC0  0AA8               	incf	(___awdiv@dividend),f
  8487  0DC1  1903               	skipnz
  8488  0DC2  0AA9               	incf	(___awdiv@dividend+1),f
  8489                           opt subtitle "HI-TECH Software Omniscient Code Generator (Lite mode) build 49521"
  8490                           
  8491  0DC3                     l3188:	
  8492  0DC3  3001               	movlw	(01h)
  8493  0DC4  00AA               	movwf	(??___awdiv+0)+0
  8494  0DC5  082A               	movf	(??___awdiv+0)+0,w
  8495  0DC6  06AC               	xorwf	(___awdiv@sign),f
  8496  0DC7  2DC8               	goto	l3190
  8497                           opt subtitle "HI-TECH Software Omniscient Code Generator (Lite mode) build 49521"
  8498                           
  8499  0DC8                     l557:	
  8500                           opt subtitle "HI-TECH Software Omniscient Code Generator (Lite mode) build 49521"
  8501                           
  8502  0DC8                     l3190:	
  8503  0DC8  01AD               	clrf	(___awdiv@quotient)
  8504  0DC9  01AE               	clrf	(___awdiv@quotient+1)
  8505                           opt subtitle "HI-TECH Software Omniscient Code Generator (Lite mode) build 49521"
  8506                           
  8507  0DCA                     l3192:	
  8508  0DCA  0827               	movf	(___awdiv@divisor+1),w
  8509  0DCB  0426               	iorwf	(___awdiv@divisor),w
  8510  0DCC  1903               	skipnz
  8511  0DCD  2DCF               	goto	u2781
  8512  0DCE  2DD0               	goto	u2780
  8513  0DCF                     u2781:
  8514  0DCF  2E0D               	goto	l3212
  8515  0DD0                     u2780:
  8516                           opt subtitle "HI-TECH Software Omniscient Code Generator (Lite mode) build 49521"
  8517                           
  8518  0DD0                     l3194:	
  8519  0DD0  01AB               	clrf	(___awdiv@counter)
  8520  0DD1  0AAB               	incf	(___awdiv@counter),f
  8521                           opt subtitle "HI-TECH Software Omniscient Code Generator (Lite mode) build 49521"
  8522  0DD2  2DDF               	goto	l3200
  8523                           opt subtitle "HI-TECH Software Omniscient Code Generator (Lite mode) build 49521"
  8524  0DD3                     l560:	
  8525                           opt subtitle "HI-TECH Software Omniscient Code Generator (Lite mode) build 49521"
  8526                           
  8527  0DD3                     l3196:	
  8528  0DD3  3001               	movlw	01h
  8529                           opt subtitle "HI-TECH Software Omniscient Code Generator (Lite mode) build 49521"
  8530  0DD4                     u2795:
  8531  0DD4  1003               	clrc
  8532  0DD5  0DA6               	rlf	(___awdiv@divisor),f
  8533  0DD6  0DA7               	rlf	(___awdiv@divisor+1),f
  8534  0DD7  3EFF               	addlw	-1
  8535  0DD8  1D03               	skipz
  8536  0DD9  2DD4               	goto	u2795
  8537                           opt subtitle "HI-TECH Software Omniscient Code Generator (Lite mode) build 49521"
  8538                           
  8539  0DDA                     l3198:	
  8540  0DDA  3001               	movlw	(01h)
  8541  0DDB  00AA               	movwf	(??___awdiv+0)+0
  8542  0DDC  082A               	movf	(??___awdiv+0)+0,w
  8543  0DDD  07AB               	addwf	(___awdiv@counter),f
  8544  0DDE  2DDF               	goto	l3200
  8545                           opt subtitle "HI-TECH Software Omniscient Code Generator (Lite mode) build 49521"
  8546                           
  8547  0DDF                     l559:	
  8548                           opt subtitle "HI-TECH Software Omniscient Code Generator (Lite mode) build 49521"
  8549                           
  8550  0DDF                     l3200:	
  8551  0DDF  1FA7               	btfss	(___awdiv@divisor+1),(15)&7
  8552  0DE0  2DE2               	goto	u2801
  8553  0DE1  2DE3               	goto	u2800
  8554  0DE2                     u2801:
  8555  0DE2  2DD3               	goto	l3196
  8556  0DE3                     u2800:
  8557  0DE3  2DE5               	goto	l3202
  8558                           opt subtitle "HI-TECH Software Omniscient Code Generator (Lite mode) build 49521"
  8559  0DE4                     l561:	
  8560  0DE4  2DE5               	goto	l3202
  8561                           opt subtitle "HI-TECH Software Omniscient Code Generator (Lite mode) build 49521"
  8562                           
  8563  0DE5                     l562:	
  8564                           opt subtitle "HI-TECH Software Omniscient Code Generator (Lite mode) build 49521"
  8565                           
  8566  0DE5                     l3202:	
  8567  0DE5  3001               	movlw	01h
  8568                           opt subtitle "HI-TECH Software Omniscient Code Generator (Lite mode) build 49521"
  8569  0DE6                     u2815:
  8570  0DE6  1003               	clrc
  8571  0DE7  0DAD               	rlf	(___awdiv@quotient),f
  8572  0DE8  0DAE               	rlf	(___awdiv@quotient+1),f
  8573  0DE9  3EFF               	addlw	-1
  8574  0DEA  1D03               	skipz
  8575  0DEB  2DE6               	goto	u2815
  8576                           opt subtitle "HI-TECH Software Omniscient Code Generator (Lite mode) build 49521"
  8577  0DEC  0827               	movf	(___awdiv@divisor+1),w
  8578  0DED  0229               	subwf	(___awdiv@dividend+1),w
  8579  0DEE  1D03               	skipz
  8580  0DEF  2DF2               	goto	u2825
  8581  0DF0  0826               	movf	(___awdiv@divisor),w
  8582  0DF1  0228               	subwf	(___awdiv@dividend),w
  8583  0DF2                     u2825:
  8584  0DF2  1C03               	skipc
  8585  0DF3  2DF5               	goto	u2821
  8586  0DF4  2DF6               	goto	u2820
  8587  0DF5                     u2821:
  8588  0DF5  2DFE               	goto	l3208
  8589  0DF6                     u2820:
  8590                           opt subtitle "HI-TECH Software Omniscient Code Generator (Lite mode) build 49521"
  8591                           
  8592  0DF6                     l3204:	
  8593  0DF6  0826               	movf	(___awdiv@divisor),w
  8594  0DF7  02A8               	subwf	(___awdiv@dividend),f
  8595  0DF8  0827               	movf	(___awdiv@divisor+1),w
  8596  0DF9  1C03               	skipc
  8597  0DFA  03A9               	decf	(___awdiv@dividend+1),f
  8598  0DFB  02A9               	subwf	(___awdiv@dividend+1),f
  8599                           opt subtitle "HI-TECH Software Omniscient Code Generator (Lite mode) build 49521"
  8600                           
  8601  0DFC                     l3206:	
  8602  0DFC  142D               	bsf	(___awdiv@quotient)+(0/8),(0)&7
  8603  0DFD  2DFE               	goto	l3208
  8604                           opt subtitle "HI-TECH Software Omniscient Code Generator (Lite mode) build 49521"
  8605                           
  8606  0DFE                     l563:	
  8607                           opt subtitle "HI-TECH Software Omniscient Code Generator (Lite mode) build 49521"
  8608                           
  8609  0DFE                     l3208:	
  8610  0DFE  3001               	movlw	01h
  8611                           opt subtitle "HI-TECH Software Omniscient Code Generator (Lite mode) build 49521"
  8612  0DFF                     u2835:
  8613  0DFF  1003               	clrc
  8614  0E00  0CA7               	rrf	(___awdiv@divisor+1),f
  8615  0E01  0CA6               	rrf	(___awdiv@divisor),f
  8616  0E02  3EFF               	addlw	-1
  8617  0E03  1D03               	skipz
  8618  0E04  2DFF               	goto	u2835
  8619                           opt subtitle "HI-TECH Software Omniscient Code Generator (Lite mode) build 49521"
  8620                           
  8621  0E05                     l3210:	
  8622  0E05  3001               	movlw	low(01h)
  8623  0E06  02AB               	subwf	(___awdiv@counter),f
  8624  0E07  1D03               	btfss	status,2
  8625  0E08  2E0A               	goto	u2841
  8626  0E09  2E0B               	goto	u2840
  8627  0E0A                     u2841:
  8628  0E0A  2DE5               	goto	l3202
  8629  0E0B                     u2840:
  8630  0E0B  2E0D               	goto	l3212
  8631                           opt subtitle "HI-TECH Software Omniscient Code Generator (Lite mode) build 49521"
  8632  0E0C                     l564:	
  8633  0E0C  2E0D               	goto	l3212
  8634                           opt subtitle "HI-TECH Software Omniscient Code Generator (Lite mode) build 49521"
  8635                           
  8636  0E0D                     l558:	
  8637                           opt subtitle "HI-TECH Software Omniscient Code Generator (Lite mode) build 49521"
  8638                           
  8639  0E0D                     l3212:	
  8640  0E0D  082C               	movf	(___awdiv@sign),w
  8641  0E0E  1D03               	skipz
  8642  0E0F  2E11               	goto	u2850
  8643  0E10  2E17               	goto	l3216
  8644  0E11                     u2850:
  8645                           opt subtitle "HI-TECH Software Omniscient Code Generator (Lite mode) build 49521"
  8646                           
  8647  0E11                     l3214:	
  8648  0E11  09AD               	comf	(___awdiv@quotient),f
  8649  0E12  09AE               	comf	(___awdiv@quotient+1),f
  8650  0E13  0AAD               	incf	(___awdiv@quotient),f
  8651  0E14  1903               	skipnz
  8652  0E15  0AAE               	incf	(___awdiv@quotient+1),f
  8653  0E16  2E17               	goto	l3216
  8654                           opt subtitle "HI-TECH Software Omniscient Code Generator (Lite mode) build 49521"
  8655  0E17                     l565:	
  8656                           opt subtitle "HI-TECH Software Omniscient Code Generator (Lite mode) build 49521"
  8657                           
  8658  0E17                     l3216:	
  8659  0E17  082E               	movf	(___awdiv@quotient+1),w
  8660  0E18  01A7               	clrf	(?___awdiv+1)
  8661  0E19  07A7               	addwf	(?___awdiv+1)
  8662  0E1A  082D               	movf	(___awdiv@quotient),w
  8663  0E1B  01A6               	clrf	(?___awdiv)
  8664  0E1C  07A6               	addwf	(?___awdiv)
  8665                           opt subtitle "HI-TECH Software Omniscient Code Generator (Lite mode) build 49521"
  8666  0E1D  2E1E               	goto	l566
  8667                           opt subtitle "HI-TECH Software Omniscient Code Generator (Lite mode) build 49521"
  8668  0E1E                     l3218:	
  8669                           opt subtitle "HI-TECH Software Omniscient Code Generator (Lite mode) build 49521"
  8670                           
  8671  0E1E                     l566:	
  8672  0E1E  0008               	return
  8673                           opt subtitle "HI-TECH Software Omniscient Code Generator (Lite mode) build 49521"
  8674                           
  8675  0E1F                     	__end_of___awdiv:
  8676                           opt subtitle "HI-TECH Software Omniscient Code Generator (Lite mode) build 49521"
  8677                           
  8678                           opt pagewidth 120
  8679                           
  8680                           	opt lm
  8681                           
  8682                           	processor	16LF707
  8683                           clrc	macro
  8684                           	bcf	3,0
  8685                           	endm
  8686                           clrz	macro
  8687                           	bcf	3,2
  8688                           	endm
  8689                           setc	macro
  8690                           	bsf	3,0
  8691                           	endm
  8692                           setz	macro
  8693                           	bsf	3,2
  8694                           	endm
  8695                           skipc	macro
  8696                           	btfss	3,0
  8697                           	endm
  8698                           skipz	macro
  8699                           	btfss	3,2
  8700                           	endm
  8701                           skipnc	macro
  8702                           	btfsc	3,0
  8703                           	endm
  8704                           skipnz	macro
  8705                           	btfsc	3,2
  8706                           	endm
  8707                           indf	equ	0
  8708                           indf0	equ	0
  8709  0CD3                     __ptext703:	;psect for function _ISR
  8710                           opt subtitle "HI-TECH Software Omniscient Code Generator (Lite mode) build 49521"
  8711                           
  8712                           opt pagewidth 120
  8713                           
  8714  006A                     	__size_of_ISR	equ	__end_of_ISR-_ISR
  8715                           opt subtitle "HI-TECH Software Omniscient Code Generator (Lite mode) build 49521"
  8716  0CD3                     _ISR:	
  8717                           opt subtitle "HI-TECH Software Omniscient Code Generator (Lite mode) build 49521"
  8718                           
  8719                           opt pagewidth 120
  8720                           
  8721  0004                     __pintentry:
  8722                           opt subtitle "HI-TECH Software Omniscient Code Generator (Lite mode) build 49521"
  8723  0004                     interrupt_function:
  8724                           opt subtitle "HI-TECH Software Omniscient Code Generator (Lite mode) build 49521"
  8725  007E                     	saved_w	set	btemp+0
  8726  0004  00FE               	movwf	saved_w
  8727  0005  0E03               	swapf	status,w
  8728  0006  00F4               	movwf	(??_ISR+4)
  8729  0007  0804               	movf	fsr0,w
  8730  0008  00F5               	movwf	(??_ISR+5)
  8731  0009  080A               	movf	pclath,w
  8732  000A  00F6               	movwf	(??_ISR+6)
  8733  000B  1283               	bcf	status, 5	;RP0=0, select bank0
  8734  000C  1303               	bcf	status, 6	;RP1=0, select bank0
  8735  000D  087F               	movf	btemp+1,w
  8736  000E  00F7               	movwf	(??_ISR+7)
  8737  000F  120A  158A  2CD3   	ljmp	_ISR
  8738                           opt subtitle "HI-TECH Software Omniscient Code Generator (Lite mode) build 49521"
  8739                           
  8740                           opt pagewidth 120
  8741  0CD3                     i1l2162:	
  8742                           opt subtitle "HI-TECH Software Omniscient Code Generator (Lite mode) build 49521"
  8743  0CD3  1C0C               	btfss	(96/8),(96)&7	;volatile
  8744  0CD4  2CD6               	goto	u147_21
  8745  0CD5  2CD7               	goto	u147_20
  8746  0CD6                     u147_21:
  8747  0CD6  2D32               	goto	i1l171
  8748  0CD7                     u147_20:
  8749                           opt subtitle "HI-TECH Software Omniscient Code Generator (Lite mode) build 49521"
  8750                           
  8751  0CD7                     i1l2164:	
  8752                           opt subtitle "HI-TECH Software Omniscient Code Generator (Lite mode) build 49521"
  8753                           
  8754  0CD7  3001               	movlw	(01h)
  8755  0CD8  00F0               	movwf	(??_ISR+0)+0
  8756  0CD9  0870               	movf	(??_ISR+0)+0,w
  8757  0CDA  07FC               	addwf	(_tmr1Counter),f
  8758                           opt subtitle "HI-TECH Software Omniscient Code Generator (Lite mode) build 49521"
  8759                           
  8760  0CDB                     i1l2166:	
  8761                           opt subtitle "HI-TECH Software Omniscient Code Generator (Lite mode) build 49521"
  8762  0CDB  3010               	movlw	(010h)
  8763  0CDC  008F               	movwf	(15)	;volatile
  8764                           opt subtitle "HI-TECH Software Omniscient Code Generator (Lite mode) build 49521"
  8765                           
  8766  0CDD                     i1l2168:	
  8767                           opt subtitle "HI-TECH Software Omniscient Code Generator (Lite mode) build 49521"
  8768  0CDD  018E               	clrf	(14)	;volatile
  8769                           opt subtitle "HI-TECH Software Omniscient Code Generator (Lite mode) build 49521"
  8770                           
  8771  0CDE                     i1l2170:	
  8772                           opt subtitle "HI-TECH Software Omniscient Code Generator (Lite mode) build 49521"
  8773  0CDE  087C               	movf	(_tmr1Counter),w
  8774  0CDF  067A               	xorwf	(_tmr1Target),w
  8775  0CE0  1D03               	skipz
  8776  0CE1  2CE3               	goto	u148_21
  8777  0CE2  2CE4               	goto	u148_20
  8778  0CE3                     u148_21:
  8779  0CE3  2D30               	goto	i1l164
  8780  0CE4                     u148_20:
  8781                           opt subtitle "HI-TECH Software Omniscient Code Generator (Lite mode) build 49521"
  8782                           
  8783  0CE4                     i1l2172:	
  8784                           opt subtitle "HI-TECH Software Omniscient Code Generator (Lite mode) build 49521"
  8785  0CE4  0806               	movf	(6),w	;volatile
  8786  0CE5  3901               	andlw	(1<<1)-1
  8787  0CE6  00F0               	movwf	(??_ISR+0)+0
  8788  0CE7  3006               	movlw	06h
  8789  0CE8                     u149_25:
  8790  0CE8  1003               	clrc
  8791  0CE9  0DF0               	rlf	(??_ISR+0)+0,f
  8792  0CEA  3EFF               	addlw	-1
  8793  0CEB  1D03               	skipz
  8794  0CEC  2CE8               	goto	u149_25
  8795  0CED  0808               	movf	(8),w	;volatile
  8796  0CEE  00F1               	movwf	(??_ISR+1)+0
  8797  0CEF  3005               	movlw	05h
  8798  0CF0                     u150_25:
  8799  0CF0  1003               	clrc
  8800  0CF1  0CF1               	rrf	(??_ISR+1)+0,f
  8801  0CF2  3EFF               	addlw	-1
  8802  0CF3  1D03               	skipz
  8803  0CF4  2CF0               	goto	u150_25
  8804  0CF5  3007               	movlw	(07h)
  8805  0CF6  0571               	andwf	0+(??_ISR+1)+0,w
  8806  0CF7  00F2               	movwf	(??_ISR+2)+0
  8807  0CF8  0856               	movf	(_jumper_stat),w
  8808  0CF9  3980               	andlw	080h
  8809  0CFA  0472               	iorwf	0+(??_ISR+2)+0,w
  8810  0CFB  0470               	iorwf	0+(??_ISR+0)+0,w
  8811  0CFC  00F3               	movwf	(??_ISR+3)+0
  8812  0CFD  0873               	movf	(??_ISR+3)+0,w
  8813  0CFE  00D6               	movwf	(_jumper_stat)
  8814                           opt subtitle "HI-TECH Software Omniscient Code Generator (Lite mode) build 49521"
  8815                           
  8816  0CFF  0808               	movf	(8),w	;volatile
  8817  0D00  00F0               	movwf	(??_ISR+0)+0
  8818  0D01  3006               	movlw	06h
  8819  0D02                     u151_25:
  8820  0D02  1003               	clrc
  8821  0D03  0CF0               	rrf	(??_ISR+0)+0,f
  8822  0D04  3EFF               	addlw	-1
  8823  0D05  1D03               	skipz
  8824  0D06  2D02               	goto	u151_25
  8825  0D07  0870               	movf	0+(??_ISR+0)+0,w
  8826  0D08  3903               	andlw	03h
  8827  0D09  00F1               	movwf	(??_ISR+1)+0
  8828  0D0A  0871               	movf	(??_ISR+1)+0,w
  8829  0D0B  00D8               	movwf	(_sleep_counter)
  8830                           opt subtitle "HI-TECH Software Omniscient Code Generator (Lite mode) build 49521"
  8831                           
  8832  0D0C  2D20               	goto	i1l2182
  8833                           opt subtitle "HI-TECH Software Omniscient Code Generator (Lite mode) build 49521"
  8834                           
  8835                           opt pagewidth 120
  8836  0D0D                     i1l166:	
  8837                           opt subtitle "HI-TECH Software Omniscient Code Generator (Lite mode) build 49521"
  8838                           
  8839  0D0D  01D7               	clrf	(_sleep_count)
  8840  0D0E  0AD7               	incf	(_sleep_count),f
  8841                           opt subtitle "HI-TECH Software Omniscient Code Generator (Lite mode) build 49521"
  8842                           
  8843  0D0F  2D2E               	goto	i1l167
  8844                           opt subtitle "HI-TECH Software Omniscient Code Generator (Lite mode) build 49521"
  8845                           
  8846                           opt pagewidth 120
  8847  0D10                     i1l168:	
  8848                           opt subtitle "HI-TECH Software Omniscient Code Generator (Lite mode) build 49521"
  8849                           
  8850  0D10                     i1l2174:	
  8851                           opt subtitle "HI-TECH Software Omniscient Code Generator (Lite mode) build 49521"
  8852  0D10  3014               	movlw	(014h)
  8853  0D11  00F0               	movwf	(??_ISR+0)+0
  8854  0D12  0870               	movf	(??_ISR+0)+0,w
  8855  0D13  00D7               	movwf	(_sleep_count)
  8856                           opt subtitle "HI-TECH Software Omniscient Code Generator (Lite mode) build 49521"
  8857                           
  8858  0D14  2D2E               	goto	i1l167
  8859                           opt subtitle "HI-TECH Software Omniscient Code Generator (Lite mode) build 49521"
  8860                           
  8861                           opt pagewidth 120
  8862  0D15                     i1l169:	
  8863                           opt subtitle "HI-TECH Software Omniscient Code Generator (Lite mode) build 49521"
  8864                           
  8865  0D15                     i1l2176:	
  8866                           opt subtitle "HI-TECH Software Omniscient Code Generator (Lite mode) build 49521"
  8867  0D15  3028               	movlw	(028h)
  8868  0D16  00F0               	movwf	(??_ISR+0)+0
  8869  0D17  0870               	movf	(??_ISR+0)+0,w
  8870  0D18  00D7               	movwf	(_sleep_count)
  8871                           opt subtitle "HI-TECH Software Omniscient Code Generator (Lite mode) build 49521"
  8872                           
  8873  0D19  2D2E               	goto	i1l167
  8874                           opt subtitle "HI-TECH Software Omniscient Code Generator (Lite mode) build 49521"
  8875                           
  8876                           opt pagewidth 120
  8877  0D1A                     i1l170:	
  8878                           opt subtitle "HI-TECH Software Omniscient Code Generator (Lite mode) build 49521"
  8879                           
  8880  0D1A                     i1l2178:	
  8881                           opt subtitle "HI-TECH Software Omniscient Code Generator (Lite mode) build 49521"
  8882  0D1A  3078               	movlw	(078h)
  8883  0D1B  00F0               	movwf	(??_ISR+0)+0
  8884  0D1C  0870               	movf	(??_ISR+0)+0,w
  8885  0D1D  00D7               	movwf	(_sleep_count)
  8886                           opt subtitle "HI-TECH Software Omniscient Code Generator (Lite mode) build 49521"
  8887                           
  8888  0D1E  2D2E               	goto	i1l167
  8889                           opt subtitle "HI-TECH Software Omniscient Code Generator (Lite mode) build 49521"
  8890                           
  8891  0D1F                     i1l2180:	
  8892                           opt subtitle "HI-TECH Software Omniscient Code Generator (Lite mode) build 49521"
  8893  0D1F  2D2E               	goto	i1l167
  8894                           opt subtitle "HI-TECH Software Omniscient Code Generator (Lite mode) build 49521"
  8895                           
  8896  0D20                     i1l165:	
  8897                           opt subtitle "HI-TECH Software Omniscient Code Generator (Lite mode) build 49521"
  8898  0D20                     i1l2182:	
  8899  0D20  0858               	movf	(_sleep_counter),w
  8900                           opt subtitle "HI-TECH Software Omniscient Code Generator (Lite mode) build 49521"
  8901                           
  8902                           opt pagewidth 120
  8903                           
  8904                           	opt lm
  8905                           
  8906                           	processor	16LF707
  8907                           clrc	macro
  8908                           	bcf	3,0
  8909                           	endm
  8910                           clrz	macro
  8911                           	bcf	3,2
  8912                           	endm
  8913  0D21  3A00               	xorlw	0^0	; case 0
  8914  0D22  1903               	skipnz
  8915  0D23  2D0D               	goto	i1l166
  8916  0D24  3A01               	xorlw	1^0	; case 1
  8917  0D25  1903               	skipnz
  8918  0D26  2D10               	goto	i1l2174
  8919  0D27  3A03               	xorlw	2^1	; case 2
  8920  0D28  1903               	skipnz
  8921  0D29  2D15               	goto	i1l2176
  8922  0D2A  3A01               	xorlw	3^2	; case 3
  8923  0D2B  1903               	skipnz
  8924  0D2C  2D1A               	goto	i1l2178
  8925  0D2D  2D2E               	goto	i1l167
  8926                           opt subtitle "HI-TECH Software Omniscient Code Generator (Lite mode) build 49521"
  8927                           
  8928                           opt pagewidth 120
  8929                           
  8930  0D2E                     i1l167:	
  8931                           opt subtitle "HI-TECH Software Omniscient Code Generator (Lite mode) build 49521"
  8932                           
  8933  0D2E  01FC               	clrf	(_tmr1Counter)
  8934                           opt subtitle "HI-TECH Software Omniscient Code Generator (Lite mode) build 49521"
  8935                           
  8936  0D2F  147B               	bsf	(_flag/8),(_flag)&7
  8937                           opt subtitle "HI-TECH Software Omniscient Code Generator (Lite mode) build 49521"
  8938                           
  8939  0D30                     i1l164:	
  8940                           opt subtitle "HI-TECH Software Omniscient Code Generator (Lite mode) build 49521"
  8941                           
  8942                           opt pagewidth 120
  8943  0D30  100C               	bcf	(96/8),(96)&7	;volatile
  8944  0D31  2D32               	goto	i1l171
  8945                           opt subtitle "HI-TECH Software Omniscient Code Generator (Lite mode) build 49521"
  8946                           
  8947  0D32                     i1l163:	
  8948                           opt subtitle "HI-TECH Software Omniscient Code Generator (Lite mode) build 49521"
  8949                           
  8950  0D32                     i1l171:	
  8951  0D32  0877               	movf	(??_ISR+7),w
  8952  0D33  00FF               	movwf	btemp+1
  8953  0D34  0876               	movf	(??_ISR+6),w
  8954  0D35  008A               	movwf	pclath
  8955  0D36  0875               	movf	(??_ISR+5),w
  8956  0D37  0084               	movwf	fsr0
  8957  0D38  0E74               	swapf	(??_ISR+4)^0FFFFFF80h,w
  8958  0D39  0083               	movwf	status
  8959  0D3A  0EFE               	swapf	saved_w,f
  8960  0D3B  0E7E               	swapf	saved_w,w
  8961  0D3C  0009               	retfie
  8962                           opt subtitle "HI-TECH Software Omniscient Code Generator (Lite mode) build 49521"
  8963                           
  8964  0D3D                     	__end_of_ISR:
  8965                           opt subtitle "HI-TECH Software Omniscient Code Generator (Lite mode) build 49521"
  8966                           
  8967                           opt pagewidth 120
  8968  0000                     __ptext704:	;psect for function _ISR
  8969                           opt subtitle "HI-TECH Software Omniscient Code Generator (Lite mode) build 49521"
  8970  007E                     	btemp set 07Eh
  8971                           opt subtitle "HI-TECH Software Omniscient Code Generator (Lite mode) build 49521"
  8972                           
  8973                           opt pagewidth 120
  8974  007E                     	wtemp0 set btemp


Data Sizes:
    Strings     17
    Constant    127
    Data        16
    BSS         47
    Persistent  0
    Stack       0

Auto Spaces:
    Space          Size  Autos    Used
    COMMON           14      8      13
    BANK0            80     44      71
    BANK1            80      0      32
    BANK3            96      0       0
    BANK2            91      0       0

Pointer List with Targets:

    ?___lbtoft	float  size(1) Largest target is 0

    ?___ftpack	float  size(1) Largest target is 0

    ?___ftdiv	float  size(1) Largest target is 0

    ?___ftmul	float  size(1) Largest target is 0

    ?___wmul	unsigned int  size(1) Largest target is 0

    ?___awdiv	int  size(1) Largest target is 0

    ?___fttol	long  size(1) Largest target is 0

    S1286$_cp	PTR const unsigned char  size(1) Largest target is 0

    _val._str._cp	PTR const unsigned char  size(1) Largest target is 0

    SPI_Write_Buf@pBuf	PTR unsigned char  size(1) Largest target is 12
		 -> RFM70_Initialize@WriteArr(BANK0[12]), tx_buf(BANK0[10]), 

    Send_Packet@pbuf	PTR unsigned char  size(1) Largest target is 10
		 -> tx_buf(BANK0[10]), 


Critical Paths under _main in COMMON

    None.

Critical Paths under _ISR in COMMON

    None.

Critical Paths under _main in BANK0

    _main->_sleep
    _RFM70_Initialize->_SwitchCFG
    _rfm70setPowerdownMode->_SPI_Read_Reg
    _Send_Packet->_SwitchToTxMode
    _Send_Packet->_SPI_Write_Buf
    _Send_Packet->_SwitchToRxMode
    _sleep->___ftge
    _SwitchToTxMode->_SPI_Read_Reg
    _SPI_Write_Buf->_SPI_RW
    _rfm70TxDataSentInterrupt->_SPI_Read_Reg
    _SwitchToRxMode->_SPI_Read_Reg
    _rfm70TxDataSentErrorInterrupt->_SPI_Read_Reg
    _SwitchCFG->_SPI_Read_Reg
    _SPI_Read_Reg->_SPI_RW
    _SPI_Write_Reg->_SPI_RW
    ___ftge->___lbtoft
    ___ftdiv->___ftpack
    ___ftmul->___ftpack
    ___lbtoft->___ftpack
    ___awdiv->___wmul

Critical Paths under _ISR in BANK0

    None.

Critical Paths under _main in BANK1

    None.

Critical Paths under _ISR in BANK1

    None.

Critical Paths under _main in BANK3

    None.

Critical Paths under _ISR in BANK3

    None.

Critical Paths under _main in BANK2

    None.

Critical Paths under _ISR in BANK2

    None.

Call Graph Tables:

 ---------------------------------------------------------------------------------
 (Depth) Function   	        Calls       Base Space   Used Autos Params    Refs
 ---------------------------------------------------------------------------------
 (0) _main                                                13     9      4    5598
                                             31 BANK0     13     9      4
                          _boardInit
                            _spiInit
                           _uartInit
                            _adcInit
              _rfm70setPowerdownMode
                        _adcReadVcap
                   _adcReadVsupercap
                           ___lbtoft
                             ___ftge
                   _RFM70_Initialize
                            ___fttol
                        _adcReadTemp
                        _Send_Packet
                              _sleep
                             ___wmul
                            ___awdiv
 ---------------------------------------------------------------------------------
 (1) _RFM70_Initialize                                    21    21      0    1895
                                              9 BANK0     21    21      0
                          _SwitchCFG
                      _SPI_Write_Reg
                      _SPI_Write_Buf
                       _SPI_Read_Reg
 ---------------------------------------------------------------------------------
 (1) _adcReadVsupercap                                     3     3      0      23
                                              0 BANK0      3     3      0
 ---------------------------------------------------------------------------------
 (1) _rfm70setPowerdownMode                                3     3      0     180
                                              6 BANK0      3     3      0
                       _SPI_Read_Reg
                      _SPI_Write_Reg
 ---------------------------------------------------------------------------------
 (1) _adcInit                                              0     0      0       0
 ---------------------------------------------------------------------------------
 (1) _uartInit                                             0     0      0       0
 ---------------------------------------------------------------------------------
 (1) _spiInit                                              2     2      0       0
                                              0 BANK0      2     2      0
 ---------------------------------------------------------------------------------
 (1) _boardInit                                            0     0      0       0
 ---------------------------------------------------------------------------------
 (1) _adcReadTemp                                          3     3      0      23
                                              0 BANK0      3     3      0
 ---------------------------------------------------------------------------------
 (1) _Send_Packet                                          7     5      2     916
                                              8 BANK0      6     4      2
                     _SwitchToTxMode
                       _SPI_Read_Reg
                      _SPI_Write_Buf
           _rfm70TxDataSentInterrupt
                     _SwitchToRxMode
      _rfm70TxDataSentErrorInterrupt
 ---------------------------------------------------------------------------------
 (1) _sleep                                                3     3      0    1503
                                             28 BANK0      3     3      0
                        _adcReadVcap
                            ___fttol
                             ___ftge
                            ___ftmul
                            ___ftdiv
 ---------------------------------------------------------------------------------
 (2) _adcReadVcap                                          3     3      0      23
                                              0 BANK0      3     3      0
 ---------------------------------------------------------------------------------
 (2) _SwitchToTxMode                                       2     2      0     179
                                              6 BANK0      2     2      0
                      _SPI_Write_Reg
                       _SPI_Read_Reg
 ---------------------------------------------------------------------------------
 (2) _SPI_Write_Buf                                        5     3      2     113
                                              3 BANK0      5     3      2
                             _SPI_RW
 ---------------------------------------------------------------------------------
 (2) _rfm70TxDataSentInterrupt                             1     1      0     133
                                              6 BANK0      1     1      0
                       _SPI_Read_Reg
                      _SPI_Write_Reg
 ---------------------------------------------------------------------------------
 (2) _SwitchToRxMode                                       2     2      0     202
                                              6 BANK0      2     2      0
                      _SPI_Write_Reg
                       _SPI_Read_Reg
 ---------------------------------------------------------------------------------
 (2) _rfm70TxDataSentErrorInterrupt                        1     1      0     133
                                              6 BANK0      1     1      0
                       _SPI_Read_Reg
                      _SPI_Write_Reg
 ---------------------------------------------------------------------------------
 (2) _SwitchCFG                                            3     3      0     245
                                              6 BANK0      3     3      0
                       _SPI_Read_Reg
                      _SPI_Write_Reg
 ---------------------------------------------------------------------------------
 (3) _SPI_Read_Reg                                         3     3      0      67
                                              3 BANK0      3     3      0
                             _SPI_RW
 ---------------------------------------------------------------------------------
 (3) _SPI_Write_Reg                                        2     1      1      66
                                              3 BANK0      2     1      1
                             _SPI_RW
 ---------------------------------------------------------------------------------
 (4) _SPI_RW                                               3     3      0      22
                                              0 BANK0      3     3      0
 ---------------------------------------------------------------------------------
 (2) ___ftge                                              12     6      6     136
                                             16 BANK0     12     6      6
                           ___lbtoft (ARG)
                   _adcReadVsupercap (ARG)
 ---------------------------------------------------------------------------------
 (1) ___wmul                                               6     2      4      92
                                              0 BANK0      6     2      4
 ---------------------------------------------------------------------------------
 (2) ___ftdiv                                             16    10      6     489
                                              8 BANK0     16    10      6
                           ___ftpack
 ---------------------------------------------------------------------------------
 (2) ___ftmul                                             16    10      6     535
                                              8 BANK0     16    10      6
                           ___ftpack
 ---------------------------------------------------------------------------------
 (2) ___fttol                                             14    10      4     252
                                              0 BANK0     14    10      4
 ---------------------------------------------------------------------------------
 (1) ___lbtoft                                             8     5      3     231
                                              8 BANK0      8     5      3
                           ___ftpack
 ---------------------------------------------------------------------------------
 (3) ___ftpack                                             8     3      5     209
                                              0 BANK0      8     3      5
 ---------------------------------------------------------------------------------
 (1) ___awdiv                                              9     5      4     300
                                              6 BANK0      9     5      4
                             ___wmul (ARG)
 ---------------------------------------------------------------------------------
 Estimated maximum stack depth 4
 ---------------------------------------------------------------------------------
 (Depth) Function   	        Calls       Base Space   Used Autos Params    Refs
 ---------------------------------------------------------------------------------
 (5) _ISR                                                  8     8      0       0
                                              0 COMMON     8     8      0
 ---------------------------------------------------------------------------------
 Estimated maximum stack depth 5
 ---------------------------------------------------------------------------------

 Call Graph Graphs:

 _main (ROOT)
   _boardInit
   _spiInit
   _uartInit
   _adcInit
   _rfm70setPowerdownMode
     _SPI_Read_Reg
       _SPI_RW
     _SPI_Write_Reg
       _SPI_RW
   _adcReadVcap
   _adcReadVsupercap
   ___lbtoft
     ___ftpack
   ___ftge
     ___lbtoft (ARG)
       ___ftpack
     _adcReadVsupercap (ARG)
   _RFM70_Initialize
     _SwitchCFG
       _SPI_Read_Reg
         _SPI_RW
       _SPI_Write_Reg
         _SPI_RW
     _SPI_Write_Reg
       _SPI_RW
     _SPI_Write_Buf
       _SPI_RW
     _SPI_Read_Reg
       _SPI_RW
   ___fttol
   _adcReadTemp
   _Send_Packet
     _SwitchToTxMode
       _SPI_Write_Reg
         _SPI_RW
       _SPI_Read_Reg
         _SPI_RW
     _SPI_Read_Reg
       _SPI_RW
     _SPI_Write_Buf
       _SPI_RW
     _rfm70TxDataSentInterrupt
       _SPI_Read_Reg
         _SPI_RW
       _SPI_Write_Reg
         _SPI_RW
     _SwitchToRxMode
       _SPI_Write_Reg
         _SPI_RW
       _SPI_Read_Reg
         _SPI_RW
     _rfm70TxDataSentErrorInterrupt
       _SPI_Read_Reg
         _SPI_RW
       _SPI_Write_Reg
         _SPI_RW
   _sleep
     _adcReadVcap
     ___fttol
     ___ftge
       ___lbtoft (ARG)
         ___ftpack
       _adcReadVsupercap (ARG)
     ___ftmul
       ___ftpack
     ___ftdiv
       ___ftpack
   ___wmul
   ___awdiv
     ___wmul (ARG)

 _ISR (ROOT)

 Address spaces:
Name               Size   Autos  Total    Cost      Usage
BANK3               60      0       0      10        0.0%
BITBANK3            60      0       0       9        0.0%
SFR3                 0      0       0       4        0.0%
BITSFR3              0      0       0       4        0.0%
BANK2               5B      0       0      12        0.0%
BITBANK2            5B      0       0      11        0.0%
SFR2                 0      0       0       5        0.0%
BITSFR2              0      0       0       5        0.0%
BANK1               50      0      20       8       40.0%
BITBANK1            50      0       0       7        0.0%
SFR1                 0      0       0       2        0.0%
BITSFR1              0      0       0       2        0.0%
BANK0               50     2C      47       5       88.8%
BITBANK0            50      0       0       4        0.0%
SFR0                 0      0       0       1        0.0%
BITSFR0              0      0       0       1        0.0%
COMMON               E      8       D       1       92.9%
BITCOMMON            E      0       1       0        7.1%
CODE                 0      0       0       0        0.0%
DATA                 0      0      78       6        0.0%
ABS                  0      0      74       3        0.0%
NULL                 0      0       0       0        0.0%
STACK                0      0       4       2        0.0%


Microchip Technology PIC Macro Assembler V1.12 build 49521 
Symbol Table                                                                                   Wed May 29 14:09:19 2013

                                     pc 0002                             __CFG_CP$OFF 0000  
                           _SSPSTATbits 0094                            ___awdiv@sign 002C  
                                    fsr 0004                     ___wmul@multiplicand 0022  
        __size_of_rfm70setPowerdownMode 0025           __end_of_rfm70setPowerdownMode 0ADB  
             __size_of_RFM70_Initialize 02E6                 __size_of_SwitchToRxMode 003F  
                                   l200 0605                                     l201 0612  
                                   l202 0612                                     l210 0BEA  
                                   l211 0BF7                                     l220 0C08  
                                   l205 0BD0                                     l221 0C08  
                                   l302 0A34                                     l214 0BAD  
                                   l206 0BD0                                     l222 0C0C  
                                   l303 0A34                                     l311 0A56  
                                   l215 0BAD                                     l207 0BD4  
                                   l223 0C1D                                     l304 0A3B  
                                   l320 0AFD                                     l216 0BB2  
                                   l208 0BE5                                     l232 0A24  
                                   l224 0C1D                                     l305 0A3D  
                                   l321 0AE9                                     l217 0BBF  
                                   l209 0BE5                                     l225 0C22  
                                   l322 0B03                                     l226 0C2F  
                                   l323 0B04                                     l235 09C0  
                                   l308 09F6                                     l332 0B8C  
                                   l260 0CC9                                     l180 03F5  
                                   l261 0CD1                                     l229 0A0C  
                                   l334 0B81                                     l326 0C6E  
                                   l262 0CD2                                     l350 00E5  
                                   l190 050F                                     l182 03D3  
                                   l174 0332                                     l351 010E  
                                   l343 0034                                     l191 0510  
                                   l183 04A3                                     l175 0330  
                                   l520 06B8                                     l504 071C  
                                   l416 0B34                                     l336 0B77  
                                   l256 0CD2                                     l360 01D9  
                                   l352 011C                                     l344 005C  
                                   l192 0510                                     l184 0455  
                                   l521 06CD                                     l505 07C8  
                                   l417 0B3E                                     l337 0B8C  
                                   l329 0B2E                 __size_of_SwitchToTxMode 002A  
                                   l257 0CCA                                     l361 0226  
                                   l353 0143                                     l345 0065  
                                   l185 04A2                                     l177 0366  
                                   l530 0F03                                     l522 06E4  
                                   l514 062E                                     l506 0735  
                                   l418 0B53                                     l258 0CAA  
                                   l362 024A                                     l354 0154  
                                   l346 007F                                     l186 04A1  
                                   l178 0367                                     l531 0F28  
                                   l515 0700                                     l507 077B  
                                   l419 0B5A                                     l195 0607  
                                   l259 0CB9                                     l363 0264  
                                   l355 01C4                                     l347 0098  
                                   l187 04FC                                     l179 0378  
                                   l532 0F14                                     l516 0647  
                                   l508 079D                                     l380 0A75  
                                   l196 0594                                     l364 027D  
                                   l356 015D                                     l348 00B2  
                                   l188 04BF                                     l541 0AB5  
                                   l533 0F21                                     l525 0EB9  
                                   l517 0687                                     l509 07AC  
                                   l381 0A75                                     l197 05D4  
                                   l277 0FFF                                     l365 02BE  
                                   l357 01A8                                     l349 00CB  
                                   l189 0508                                     l534 0F15  
                                   l526 0F41                                     l518 069C  
                                   l374 0A91                                     l198 05D3  
                                   l390 0AD0                                     l366 02FA  
                                   l358 01D0                                     l535 0F27  
                                   l527 0F04                                     l519 06B3  
                                   l375 0A94                                     l199 0606  
                                   l391 0ADA                                     l359 0241  
                                   l560 0DD3                                     l536 0F38  
                                   l528 0EF0                                     l376 0A94  
                                   l561 0DE4                                     l529 0EF1  
                                   l562 0DE5                                     l563 0DFE  
                                   l379 0A72                                     l564 0E0C  
                                   l556 0DBA                                     l565 0E17  
                                   l557 0DC8                                     l389 0ACE  
                                   l566 0E1E                                     l558 0E0D  
                                   l750 0E2D                                     l559 0DDF  
                                   l751 0E9B                                     l583 0D69  
                                   l760 0E78                                     l752 0E43  
                                   l584 0D93                                     l761 0E82  
                                   l753 0E36                                     l585 0DAA  
                                   l762 0E9B                                     l754 0E4A  
                                   l755 0E61                                     l756 0E4B  
                                   l748 0E35                                     l757 0E68  
                                   l758 0E74                                     l759 0E69  
                                   _GIE 005F                                     _ISR 0CD3  
                                   fsr0 0004                                     indf 0000  
                                  ?_ISR 0070                            ___ftdiv@cntr 0032  
                          ___ftdiv@sign 0037                                    l3000 0B38  
                                  l2200 0340                                    l3010 0E25  
                                  l3002 0B45                                    l2210 037E  
                                  l2202 0344                                    l3020 0E4B  
                                  l3012 0E2D                                    l3100 067C  
                                  l3004 0B53                                    l2300 04FC  
                                  l2220 0398                                    l2212 0388  
                                  l2204 0367                                    l3030 0E7C  
                                  l3022 0E4F                                    l3014 0E34  
                                  l3110 06A4                                    l3102 0682  
                                  l3006 0B5A                                    l2310 0F4C  
                                  l2302 0508                                    l2230 03CE  
                                  l2222 039C                                    l2214 038C  
                                  l2206 0373                                    l3200 0DDF  
                                  l3032 0E84                                    l3024 0E59  
                                  l3016 0E36                                    l3008 0E1F  
                                  l3120 06CD                                    l3112 06AC  
                                  l3104 0687                                    l3040 0714  
                                  l2160 0DA9                                    l2400 0FB2  
                                  l2320 0F59                                    l2312 0F4F  
                                  l2304 0F42                                    l2240 03F0  
                                  l2232 03D3                                    l2224 03A6  
                                  l2216 0390                                    l2208 0378  
                                  l3210 0E05                                    l3202 0DE5  
                                  l3034 0E96                                    l3026 0E69  
                                  l3018 0E43                                    l3130 0E9C  
                                  l3122 06D5                                    l3114 06B3  
                                  l3106 068B                                    l3050 0735  
                                  l3042 071B                                    l2410 0FBF  
                                  l2402 0FB6                                    l2330 0F68  
                                  l2322 0F5C                                    l2314 0F50  
                                  l2306 0F48                                    l2250 041F  
                                  l2234 03DD                                    l2242 03F5  
                                  l2226 03B7                                    l2218 0394  
                                  l3204 0DF6                                    l3212 0E0D  
                                  l3036 0E9A                                    l3028 0E74  
                                  l3140 0ECC                                    l3132 0EAF  
                                  l3124 06DD                                    l3116 06B8  
                                  l3108 069C                                    l3060 0768  
                                  l3052 073B                                    l3044 071C  
                                  l3220 0D3D                                    l2420 0FCC  
                                  l2412 0FC0                                    l2404 0FB8  
                                  l2340 0F6F                                    l2332 0F69  
                                  l2324 0F5F                                    l2316 0F53  
                                  l2308 0F4B                                    l2500 0A18  
                                  l2260 044C                                    l2252 0433  
                                  l2244 0412                                    l2236 03DE  
                                  l2228 03C8                                    l3214 0E11  
                                  l3206 0DFC                                    l3150 0EE6  
                                  l3142 0ED2                                    l3134 0EB8  
                                  l3126 06E4                                    l3118 06BC  
                                  l3070 079B                                    l3062 076F  
                                  l3054 0740                                    l3046 072D  
                                  l3038 0701                                    l2158 0DA7  
                                  l3230 0D95                                    l3222 0D43  
                                  l2430 0FD5                                    l2422 0FCF  
                                  l2414 0FC3                                    l2406 0FBB  
                                  l2350 0F76                                    l2342 0F70  
                                  l2334 0F6A                                    l2326 0F62  
                                  l2318 0F56                                    l2502 0A19  
                                  l2510 0A00                                    l2270 0480  
                                  l2262 0452                                    l2254 0437  
                                  l2246 041A                                    l2238 03E2  
                                  l2190 030F                                    l3216 0E17  
                                  l3208 0DFE                                    l3160 0F13  
                                  l3152 0EEF                                    l3144 0ED9  
                                  l3136 0EB9                                    l3128 0700  
                                  l3080 0613                                    l3072 079D  
                                  l3064 077B                                    l3056 0752  
                                  l3048 0734                                    l3232 0D97  
                                  l3224 0D69                                    l2440 0FDC  
                                  l2432 0FD6                                    l2424 0FD2  
                                  l2416 0FC6                                    l2408 0FBE  
                                  l2360 0F7F                                    l2352 0F77  
                                  l2344 0F71                                    l2336 0F6B  
                                  l2328 0F65                                    l2512 0A03  
                                  l2504 09F7                                    l2520 09B8  
                                  l2600 0090                                    l2272 0484  
                                  l2256 043B                                    l2248 041E  
                                  l2264 0455                                    l2280 04A3  
                                  l2192 0314                                    l2184 02FB  
                                  l3218 0E1E                                    l3170 0F38  
                                  l3162 0F15                                    l3154 0EF1  
                                  l3146 0EDB                                    l3138 0ECB  
                                  l3090 0646                                    l3082 0626  
                                  l3074 07A5                                    l3066 0783  
                                  l3058 0764                                    l3234 0DA5  
                                  l3226 0D6D                                    l2530 0B8D  
                                  l2450 0FE1                                    l2442 0FDD  
                                  l2434 0FD7                                    l2426 0FD3  
                                  l2418 0FC9                                    l2370 0F8E  
                                  l2362 0F82                                    l2354 0F78  
                                  l2346 0F72                                    l2338 0F6E  
                                  l2514 0A04                                    l2506 09FB  
                                  l2522 0AB9                                    l2602 0097  
                                  l2610 00B2                                    l2290 04B2  
                                  l2282 04A6                                    l2274 0488  
                                  l2266 0474                                    l2258 0449  
                                  l2194 0319                                    l2186 0305  
                                  l3180 0DB2                                    l3172 0F41  
                                  l3164 0F21                                    l3148 0EDF  
                                  l3156 0F04                                    l3092 0647  
                                  l3084 062D                                    l3076 07AC  
                                  l3068 0791                                    l3236 0DA7  
                                  l3228 0D93                                    l2540 0BA9  
                                  l2532 0B90                                    l2460 0FE8  
                                  l2452 0FE4                                    l2444 0FDE  
                                  l2436 0FD8                                    l2428 0FD4  
                                  l2380 0F9D                                    l2372 0F91  
                                  l2364 0F85                                    l2356 0F79  
                                  l2348 0F73                                    l2516 0A06  
                                  l2508 09FD                                    l2524 0AC4  
                                  l2700 0275                                    l2620 00DA  
                                  l2612 00C0                                    l2604 0098  
                                  l2292 04B3                                    l2284 04AC  
                                  l2276 0496                                    l2268 047C  
                                  l2196 031F                                    l2188 030A  
                                  l3190 0DC8                                    l3182 0DB7  
                                  l3174 0A98                                    l3158 0F0A  
                                  l3166 0F28                                    l3094 0674  
                                  l3086 062E                                    l3078 07C8  
                                  l3238 0DAA                                    l2550 0BBF  
                                  l2542 0BB2                                    l2534 0B9C  
                                  l2470 0FEF                                    l2462 0FE9  
                                  l2454 0FE5                                    l2446 0FDF  
                                  l2438 0FDB                                    l2390 0FA8  
                                  l2382 0FA0                                    l2374 0F94  
                                  l2366 0F88                                    l2358 0F7C  
                                  l2518 0A09                                    l2526 0AC9  
                                  l2702 027C                                    l2710 02BE  
                                  l2630 010E                                    l2622 00DE  
                                  l2614 00C3                                    l2606 00A7  
                                  l2294 04BD                                    l2286 04AF  
                                  l2278 049E                                    l2198 0332  
                                  l3192 0DCA                                    l3184 0DBA  
                                  l3176 0AB5                                    l3168 0F2C  
                                  l3096 0675                                    l3088 063F  
                                  l2544 0BB6                                    l2536 0B9F  
                                  l2800 0586                                    l2480 0FF6  
                                  l2472 0FF0                                    l2464 0FEA  
                                  l2456 0FE6                                    l2448 0FE0  
                                  l2392 0FA9                                    l2384 0FA3  
                                  l2376 0F97                                    l2368 0F8B  
                                  l2528 0AD0                                    l2560 0C22  
                                  l2552 0BF8                                    l2720 02F7  
                                  l2712 02C3                                    l2704 027D  
                                  l2640 013C                                    l2632 0114  
                                  l2616 00CA                                    l2624 00E5  
                                  l2608 00AB                                    l2296 04BF  
                                  l2288 04B1                                    l3194 0DD0  
                                  l3186 0DBE                                    l3178 0DAB  
                                  l3098 0676                                    l2546 0BB7  
                                  l2538 0BA0                                    l2810 05D4  
                                  l2802 0588                                    l2730 0BEA  
                                  l2722 0BC0                                    l2490 0FFD  
                                  l2482 0FF7                                    l2474 0FF1  
                                  l2466 0FED                                    l2458 0FE7  
                                  l2394 0FAA                                    l2386 0FA4  
                                  l2378 0F9A                                    l2562 0C26  
                                  l2554 0BFB                                    l2714 02D1  
                                  l2706 02B3                                    l2650 0155  
                                  l2634 011B                                    l2642 0143  
                                  l2626 00FE                                    l2618 00CB  
                                  l2570 0015                                    l2298 04C4  
                                  l3196 0DD3                                    l3188 0DC3  
                                  l2900 0A74                                    l2548 0BB8  
                                  l2820 060D                                    l2812 05E9  
                                  l2804 0590                                    l2740 0C72  
                                  l2732 0BEE                                    l2724 0BC3  
                                  l2492 0FFE                                    l2484 0FF8  
                                  l2476 0FF4                                    l2468 0FEE  
                                  l2396 0FAD                                    l2388 0FA7  
                                  l2564 0C27                                    l2556 0C10  
                                  l2716 02E6                                    l2708 02B7  
                                  l2652 015C                                    l2660 01A8  
                                  l2644 0149                                    l2636 011C  
                                  l2628 0103                                    l2580 0034  
                                  l2572 0023                                    l3198 0DDA  
                                  l2830 0B21                                    l2822 0610  
                                  l2814 0608                                    l2806 05A2  
                                  l2750 0C98                                    l2742 0C82  
                                  l2734 0BEF                                    l2726 0BD8  
                                  l2486 0FFB                                    l2478 0FF5  
                                  l2398 0FB1                                    l2494 0A0D  
                                  l2566 0C28                                    l2558 0C19  
                                  l2718 02F1                                    l2670 01D1  
                                  l2662 01B7                                    l2654 015D  
                                  l2646 014C                                    l2638 0138  
                                  l2590 0065                                    l2582 0050  
                                  l2574 0029                                    l2840 0A53  
                                  l2832 0B2B                                    l2824 0B05  
                                  l2816 060A                                    l2808 05B7  
                                  l2760 0CC3                                    l2752 0C9D  
                                  l2744 0C86                                    l2736 0BF0  
                                  l2728 0BE1                                    l2488 0FFC  
                                  l2496 0A11                                    l2568 0C2F  
                                  l2672 01D8                                    l2680 0226  
                                  l2664 01BD                                    l2656 019D  
                                  l2648 0153                                    l2592 0074  
                                  l2584 0056                                    l2576 002C  
                                  l2842 0A54                                    l2834 0A41  
                                  l2850 0AE5                                    l2826 0B0E  
                                  l2818 060B                                    l2770 053C  
                                  l2762 0CCA                                    l2754 0CA0  
                                  l2746 0C87                                    l2738 0BF7  
                                  l2498 0A15                                    l2690 024A  
                                  l2682 0235                                    l2674 01D9  
                                  l2658 01A1                                    l2666 01C4  
                                  l2594 0078                                    l2586 005D  
                                  l2578 0033                                    l2844 0A56  
                                  l2836 0A42                                    l2860 0A76  
                                  l2852 0AE9                                    l2828 0B1C  
                                  l2780 055C                                    l2772 0540  
                                  l2764 0513                                    l2756 0CAA  
                                  l2748 0C95                                    l2692 0259  
                                  l2684 023B                                    l2676 021B  
                                  l2668 01CF                                    l2588 0064  
                                  l2596 007F                                    l2838 0A48  
                                  l2862 0A83                                    l2870 0A91  
                                  l2854 0AF2                                    l2846 0ADE  
                                  l2790 0568                                    l2782 055E  
                                  l2774 0543                                    l2766 0530  
                                  l2758 0CB4                                    l2694 025D  
                                  l2686 0242                                    l2678 021F  
                                  l2598 008D                                    l2960 09E4  
                                  l2880 0C4E                                    l2872 0A93  
                                  l2864 0A8D                                    l2856 0AF8  
                                  l2848 0ADF                                    l2792 0572  
                                  l2784 0560                                    l2776 0545  
                                  l2768 0536                                    l2688 0249  
                                  l2696 0264                                    l2970 0A3D  
                                  l2962 09E5                                    l2890 0A64  
                                  l2882 0C5C                                    l2874 0C30  
                                  l2866 0A8F                                    l2858 0AFD  
                                  l2794 0581                                    l2786 0562  
                                  l2778 0548                                    l2698 0272  
                                  l2964 09F3                                    l2980 0B77  
                                  l2972 0B5E                                    l2892 0A6E  
                                  l2884 0C61                                    l2876 0C39  
                                  l2868 0A90                                    l2796 0582  
                                  l2788 0565                                    l2966 0A28  
                                  l2982 0B7C                                    l2974 0B69  
                                  l2894 0A70                                    l2886 0C6B  
                                  l2878 0C44                                    l2798 0584  
                                  l2968 0A3B                                    l2984 0B81  
                                  l2976 0B6E                                    l2896 0A71  
                                  l2888 0A57                                    l2978 0B72  
                                  l2898 0A72                                    l2996 0B2F  
                                  l2998 0B34                                    STR_1 0885  
                                  STR_2 0891                                    u2000 0BD4  
                                  u2001 0BD3                                    u2010 0BE9  
                                  u2011 0BE8                                    u2100 0590  
                                  u2020 0C86                                    u2101 058F  
                                  u2021 0C85                                    u2110 05A2  
                                  u2030 0CB4                                    u2111 05A1  
                                  u2031 0CB3                                    u2120 05B7  
                                  u2040 0CC3                                    u2121 05B6  
                                  u2041 0CC2                                    u2130 05E9  
                                  u2050 0CD0                                    u2131 05E8  
                                  u2051 0CCF                                    u2140 0B03  
                                  u2060 0536                                    u2141 0B02  
                                  u2061 0535                                    u2230 0A3A  
                                  u2150 0A83                                    u2070 053C  
                                  u2231 0A39                                    u2151 0A82  
                                  u2071 053B                                    u2400 0E78  
                                  u2320 0B52                                    u2240 0B72  
                                  u2160 0A64                                    u2080 0540  
                                  u1600 041E                                    u2401 0E77  
                                  u2321 0B51                                    u2305 0B3F  
                                  u2161 0A63                                    u2081 053F  
                                  u1601 041D                                    u2410 0E7C  
                                  u2330 0E25                                    u2250 0B76  
                                  u1610 0474                                    u1530 0340  
                                  u2411 0E7B                                    u2315 0B46  
                                  u1611 0473                                    u1531 033F  
                                  u2420 0E8D                                    u2340 0E2C  
                                  u2260 0B7C                                    u1700 005C  
                                  u1620 047C                                    u1540 0344  
                                  u2341 0E2B                                    u2261 0B7B  
                                  u1701 005B                                    u1621 047B  
                                  u1541 0343                                    u1525 0324  
                                  u2430 0E9A                                    u2510 07AB  
                                  u2270 0B80                                    u1710 0063  
                                  u1630 0480                                    u1550 0365  
                                  u2511 07AA                                    u2095 054E  
                                  u1711 0062                                    u1631 047F  
                                  u1551 0364                                    u2360 0E49  
                                  u2600 06B2                                    u2520 0626  
                                  u2440 0714                                    u1800 0152  
                                  u1720 007E                                    u1640 0507  
                                  u1560 03CE                                    u2425 0E89  
                                  u2361 0E48                                    u2601 06B1  
                                  u2521 0625                                    u2505 079E  
                                  u2441 0713                                    u1801 0151  
                                  u1721 007D                                    u1641 0506  
                                  u1561 03CD                                    u2610 06BC  
                                  u2530 063F                                    u2450 072D  
                                  u2290 0B38                                    u1650 0AC9  
                                  u1810 015B                                    u1730 0096  
                                  u1570 03D2                                    u2355 0E3B  
                                  u2611 06BB                                    u2531 063E  
                                  u2451 072C                                    u2291 0B37  
                                  u1651 0AC8                                    u1811 015A  
                                  u1731 0095                                    u1571 03D1  
                                  u2380 0E67                                    u2540 0657  
                                  u2460 074B                                    u1660 0BB1  
                                  u1740 00B1                                    u1580 0412  
                                  u2381 0E66                                    u2621 06C5  
                                  u1661 0BB0                                    u1741 00B0  
                                  u1581 0411                                    u2710 0F02  
                                  u2622 06CC                                    u2550 0669  
                                  u2470 075D                                    u1670 0C0C  
                                  u1910 0210                                    u1750 00C9  
                                  u1590 041A                                    u2375 0E5A  
                                  u2711 0F01                                    u1671 0C0B  
                                  u1751 00C8                                    u1591 0419  
                                  u2800 0DE3                                    u2720 0F0A  
                                  u2560 068B                                    u1680 0C21  
                                  u1920 0225                                    u1840 0192  
                                  u1760 00E4                                    u2801 0DE2  
                                  u2721 0F09                                    u2705 0EF2  
                                  u2561 068A                                    u2545 0653  
                                  u2465 0747                                    u1681 0C20  
                                  u1921 0224                                    u1905 0201  
                                  u1825 0160                                    u1761 00E3  
                                  u2650 06E3                                    u2490 0791  
                                  u1930 0241                                    u1850 01A7  
                                  u1770 0103                                    u1690 0032  
                                  u2395 0E6C                                    u2651 06E2  
                                  u2635 06CE                                    u2571 0694  
                                  u2555 0665                                    u2491 0790  
                                  u2475 0759                                    u1931 0240  
                                  u1915 020B                                    u1851 01A6  
                                  u1835 0184                                    u1771 0102  
                                  u1691 0031                                    u2820 0DF6  
                                  u2740 0F26                                    u2660 0EAF  
                                  u2572 069B                                    u2900 0DA5  
                                  u1940 0248                                    u1860 01C3  
                                  u1780 011A                                    u2821 0DF5  
                                  u2741 0F25                                    u2661 0EAE  
                                  u2645 06D6                                    u2485 077C  
                                  u2901 0DA4                                    u1941 0247  
                                  u1861 01C2                                    u1845 018D  
                                  u1781 0119                                    u2750 0F2C  
                                  u2670 0EC4                                    u1950 0263  
                                  u1870 01CE                                    u1790 0142  
                                  u2815 0DE6                                    u2735 0F17  
                                  u2495 078D                                    u1951 0262  
                                  u1871 01CD                                    u1791 0141  
                                  u2840 0E0B                                    u2760 0DB2  
                                  u2680 0EDF                                    u1960 027B  
                                  u1880 01D7                                    u2841 0E0A  
                                  u2825 0DF2                                    u2761 0DB1  
                                  u2681 0EDE                                    u2585 069D  
                                  u2905 0DA1                                    u1961 027A  
                                  u1881 01D6                                    u2850 0E11  
                                  u2770 0DBE                                    u2690 0EE6  
                                  u2835 0DFF                                    u2771 0DBD  
                                  u2691 0EE5                                    u2675 0EC0  
                                  u2595 06A5                                    _PEIE 005E  
                                  u2780 0DD0                                    u2860 0D43  
                                  u1980 02A8                                    u2781 0DCF  
                                  u2861 0D42                                    u2917 001D  
                                  u1990 02BD                                    u2871 0D5B  
                                  u2927 02EC                                    u1991 02BC  
                                  u1975 029A                                    u1895 01DC  
                                  u2880 0D6D                                    u2872 0D5C  
                                  u2881 0D6C                                    u2873 0D61  
                                  u2937 0C14                                    u1985 02A3  
                                  u2874 0D62                                    u2795 0DD4  
                                  u2891 0D85                                    u2947 0A1F  
                                  u2892 0D86                                    _RCIF 0065  
                                  u2893 0D8B                                    u2957 0BDC  
                                  u2894 0D8C                                    u2967 0C9A  
                                  u2977 0CA4                                    u2987 0BA4  
                                  u2997 0A2E                                    _TXIF 0064  
                                  _flag 03D8                                    _main 02FB  
                          ___ftpack@arg 0020                            ___ftpack@exp 0023  
                                  btemp 007E                                    start 0012  
             __size_of_adcReadVsupercap 0038                           _SPI_Write_Buf 0ADB  
                       SPI_Read_Reg@reg 0024                           _SPI_Write_Reg 09E1  
                         __CFG_MCLRE$ON 0000                            ___ftmul@cntr 0036  
                          ___ftmul@sign 0037                                   ??_ISR 0070  
                          ___fttol@exp1 002D                      _charge_pulse_float 005A  
                          ___fttol@lval 0029                           __CFG_PLLEN$ON 0000  
                                 ?_main 003F                         __end_of_adcInit 09C1  
                       __end_of___awdiv 0E1F                                   _ADRES 001E  
                         __CFG_WDTE$OFF 0000                         __end_of___ftdiv 07C9  
                       __end_of___ftmul 0701                         ___awdiv@divisor 0026  
                       __end_of___fttol 0F42                                   i1l170 0D1A  
                                 i1l163 0D32                                   i1l171 0D32  
                                 i1l164 0D30                                   i1l165 0D20  
                                 i1l166 0D0D                                   i1l167 0D2E  
                                 i1l168 0D10                                   i1l169 0D15  
                       ___awdiv@counter 002B                                   _RCREG 001A  
                                 _RCSTA 0018                                   _TMR1H 000F  
                                 _TMR1L 000E                                   _SPBRG 0099  
                                 _PORTD 0008                                   _TXREG 0019  
                                 _TXSTA 0098                                   _sleep 0513  
                         ___ftpack@sign 0024                                   _value 0059  
                                 main@i 0047                          __pbitbssCOMMON 03D8  
                        __CFG_BOREN$OFF 0000                                   pclath 000A  
                       __end_of_spiInit 0A25                          Send_Packet@len 0029  
                                 status 0003                                   wtemp0 007E  
                        ?_SPI_Write_Buf 0023                          ?_SPI_Write_Reg 0023  
                       __initialization 07C9                            __end_of_main 0513  
      __end_of_rfm70TxDataSentInterrupt 0A95                           ??_Send_Packet 002A  
                                ??_main 0043                           ___fttol@sign1 0028  
                      ___awdiv@dividend 0028                                  ?_sleep 0070  
                      __end_of___ftpack 0E9C                        __end_of___lbtoft 0AB6  
                                i1l2170 0CDE                                  i1l2162 0CD3  
                                i1l2180 0D1F                                  i1l2172 0CE4  
                                i1l2164 0CD7                                  i1l2174 0D10  
                                i1l2182 0D20                                  i1l2166 0CDB  
                                i1l2176 0D15                                  i1l2168 0CDD  
                                i1l2178 0D1A                                  u150_25 0CF0  
                                u151_25 0D02                                  u147_20 0CD7  
                                u147_21 0CD6                                  u148_20 0CE4  
                                u148_21 0CE3                                  u149_25 0CE8  
                                _TMR1IE 0460                                  _TMR1IF 0060  
                                _SSPBUF 0013                                  _SPI_RW 0A25  
                        __CFG_PWRTE$OFF 0000                            SwitchCFG@Tmp 0028  
              RFM70_Initialize@WriteArr 0030                       RFM70_Initialize@i 003C  
                     RFM70_Initialize@j 003D                                  ___ftge 0D3D  
                                ___wmul 0B2F                               ??_adcInit 0020  
                             ??___awdiv 002A                               ??___ftdiv 002E  
                             ??___ftmul 002E                               ??___fttol 0024  
                      SPI_Write_Buf@reg 0026                                  _energy 0050  
                      ___awdiv@quotient 002D                                  _values 0054  
                        _SwitchToRxMode 0C30                        SPI_Write_Reg@reg 0024  
                                _rx_buf 00A0                        _RFM70_Initialize 0015  
                        _SwitchToTxMode 0B05                       __end_of_Bank0_Reg 086C  
                                _tx_buf 005D                                  clrloop 09B1  
                 ___ftmul@f3_as_product 0033                           main@num_sleep 004B  
                          __pdataCOMMON 0078                        __end_of_uartInit 0A0D  
                                saved_w 007E                     __end_of_Send_Packet 0CD3  
                       Send_Packet@pbuf 0028                               ??_spiInit 0020  
                       Send_Packet@type 002C                     SwitchToRxMode@value 0027  
                    __size_of_SwitchCFG 0032                 __end_of__initialization 07FB  
                       ??_SPI_Write_Buf 0025                              ___ftge@ff1 0030  
                            ___ftge@ff2 0033                         ??_SPI_Write_Reg 0024  
                      _adcReadVsupercap 0BF8                              ___ftdiv@f1 002B  
                            ___ftdiv@f2 0028                              ___ftdiv@f3 0033  
                            ___lbtoft@c 002F                              ___ftmul@f1 0028  
                            ___ftmul@f2 002B                       SPI_Read_Reg@value 0025  
                            ___fttol@f1 0020                          __pcstackCOMMON 0070  
 __end_of_rfm70TxDataSentErrorInterrupt 0A76  __size_of_rfm70TxDataSentErrorInterrupt 001F  
         _rfm70TxDataSentErrorInterrupt 0A57                            __pidataBANK0 09C1  
                __end_of_SwitchToRxMode 0C6F                  __end_of_SwitchToTxMode 0B2F  
                         __end_of_sleep 0613                            _charge_pulse 004C  
                    __size_of_boardInit 00BE                           ??_adcReadVcap 0020  
                         ??_adcReadTemp 0020                     SwitchToTxMode@value 0027  
                               ??_sleep 003C                              __pbssBANK0 004C  
                            __pbssBANK1 00A0       __size_of_rfm70TxDataSentInterrupt 001F  
             ?_rfm70TxDataSentInterrupt 0070                                 ?_SPI_RW 0070  
                            __pmaintext 02FB                                 ?___ftge 0030  
                               ?___wmul 0020                              __pintentry 0004  
                               _DACCON0 0113                                 _DACCON1 0114  
                       ?_SwitchToRxMode 0070                         ?_SwitchToTxMode 0070  
                           _Send_Packet 0C6F                               ?___ftpack 0020  
                             ?___lbtoft 0028                       __end_of_SwitchCFG 0B8D  
                 _rfm70setPowerdownMode 0AB6              rfm70setPowerdownMode@value 0027  
                            __stringtab 0800                          sleep@new_value 003E  
                     __end_of_boardInit 1000                     __end_of_adcReadVcap 0BC0  
                   __end_of_adcReadTemp 0BF8                         __size_of_SPI_RW 0019  
                         SwitchCFG@_cfg 0027                               ?_uartInit 0070  
                       __size_of___ftge 006E                                 _adcInit 09B8  
                               ___awdiv 0DAB                                 ___ftdiv 0701  
                       __size_of___wmul 002C                                 ___ftmul 0613  
                               ___fttol 0E9C                              ??___ftpack 0025  
                            ??___lbtoft 002B                       SPI_Write_Buf@pBuf 0023  
        ?_rfm70TxDataSentErrorInterrupt 0070                            __size_of_ISR 006A  
                             _T1CONbits 0010                                 _scap_on 03D9  
                               _spiInit 0A0D                              _tmr1Target 007A  
                  end_of_initialization 07FB                                 init_ram 09D2  
              __end_of_RFM70_Initialize 02FB                              ??_uartInit 0020  
                             _RCSTAbits 0018                         _timelapse_count 0052  
                             _PORTAbits 0005                               _PORTBbits 0006  
                             _PORTCbits 0007                               _PORTDbits 0008  
                             _PORTEbits 0009                  ?_rfm70setPowerdownMode 0070  
              __end_of_adcReadVsupercap 0C30                        __CFG_FOSC$INTOSC 0000  
                             _TRISAbits 0085                               _TRISBbits 0086  
                             _Bank0_Reg 083E                               _TRISCbits 0087  
                             _TRISDbits 0088                               _TRISEbits 0089  
                           _adcReadVcap 0B8D                             _adcReadTemp 0BC0  
                 __end_of_Bank1_Reg0_13 083E                             ___ftdiv@exp 0036  
                             _TXSTAbits 0098                          __end_of_SPI_RW 0A3E  
                         ?_SPI_Read_Reg 0070                             ___ftmul@exp 0032  
                           SPI_RW@value 0022                          __end_of___ftge 0DAB  
                        __end_of___wmul 0B5B                           __pidataCOMMON 09AD  
                      adcReadVcap@value 0022                     start_initialization 07C9  
                           __end_of_ISR 0D3D                        adcReadTemp@value 0022  
                              ??_SPI_RW 0020                          ??_SPI_Read_Reg 0023  
                 __end_of_SPI_Write_Buf 0B05                   __end_of_SPI_Write_Reg 09F7  
                      ??_SwitchToRxMode 0026                        ??_SwitchToTxMode 0026  
                              ??___ftge 0036                                ??___wmul 0024  
                           __pdataBANK0 005A                            ?_Send_Packet 0028  
                     __size_of___ftpack 007D                       __size_of___lbtoft 0021  
                             _SwitchCFG 0B5B                             __pbssCOMMON 007C  
                         __pcstackBANK0 0020                     __end_of__stringdata 0896  
                           _charge_time 004E                               _dac_value 0078  
                             _boardInit 0F42                                ?_adcInit 0070  
                              ?___awdiv 0026                               __ptext700 0A95  
                             __ptext701 0E1F                               __ptext702 0DAB  
                             __ptext703 0CD3                               __ptext704 0000  
                             __ptext680 0A0D                               __ptext681 0F42  
                             __ptext690 0A57                               __ptext682 0BC0  
                             __ptext691 0B5B                               __ptext683 0C6F  
                             __ptext675 0015                               __ptext692 0A3E  
                             __ptext684 0513                               __ptext676 0BF8  
                             __ptext693 09E1                               __ptext685 0B8D  
                             __ptext677 0AB6                               __ptext694 0A25  
                             __ptext686 0B05                               __ptext678 09B8  
                             __ptext695 0D3D                               __ptext687 0ADB  
                             __ptext679 09F7                               __ptext696 0B2F  
                             __ptext688 0A76                               __ptext697 0701  
                             __ptext689 0C30                               __ptext698 0613  
                             __ptext699 0E9C                                ?___ftdiv 0028  
                   SPI_Write_Buf@length 0024                                ?___ftmul 0028  
                              ?___fttol 0020                       __size_of_uartInit 0016  
                             __pstrings 0800                              ?_SwitchCFG 0070  
                   Send_Packet@fifo_sta 002D                                ?_spiInit 0070  
                 SPI_Write_Buf@byte_ctr 0027                   adcReadVsupercap@value 0022  
              _rfm70TxDataSentInterrupt 0A76                          __size_of_sleep 0100  
       ??_rfm70TxDataSentErrorInterrupt 0026                       interrupt_function 0004  
                        ___wmul@product 0024                       ?_RFM70_Initialize 0070  
                    ??_RFM70_Initialize 0029                                _PIR1bits 000C  
                            ?_boardInit 0070                 ??_rfm70setPowerdownMode 0026  
                            _ADCON0bits 001F                             __stringbase 0805  
                            _ADCON1bits 009F                             __stringdata 0885  
                     ___wmul@multiplier 0020                    __end_of_Bank0_RegAct 0885  
                     ?_adcReadVsupercap 0070                    __end_of_SPI_Read_Reg 0A57  
                    ??_adcReadVsupercap 0020                           _sleep_counter 0058  
                          ?_adcReadVcap 0070                            ?_adcReadTemp 0070  
                             init_fetch 09CE                        __size_of_adcInit 0009  
                      __size_of___awdiv 0074                        __size_of___ftdiv 00C8  
                   __end_of_RX0_Address 087C                        __size_of___ftmul 00EE  
                      __size_of___fttol 00A6                                ___ftpack 0E1F  
                              ___lbtoft 0A95                     __end_of_RX1_Address 0881  
                    __end_of__stringtab 0806                              _ANSELAbits 0185  
                            _ANSELBbits 0186                              _ANSELCbits 0187  
                            _ANSELDbits 0188                              _ANSELEbits 0189  
                  __size_of_Send_Packet 0064                             ??_SwitchCFG 0026  
                            _T1GCONbits 008F                        __size_of_spiInit 0018  
                         __size_of_main 0218                                clear_ram 09B0  
                           ??_boardInit 0020                                _uartInit 09F7  
                    SPI_Write_Reg@value 0023                     __end_of_Bank1_Reg14 0877  
                           _tmr1Counter 007C                                main@argc 003F  
                              main@argv 0041                rfm70setPowerdownMode@reg 0028  
                            _FVRCONbits 009D                                intlevel1 0000  
                           _jumper_stat 0056                               stringcode 0800  
                            _OSCCONbits 0090                             _RX0_Address 0877  
                           _RX1_Address 087C                             _sleep_count 0057  
            ??_rfm70TxDataSentInterrupt 0026                   __size_of_SPI_Read_Reg 0019  
                              stringdir 0800                                stringtab 0800  
                __size_of_SPI_Write_Buf 002A                  __size_of_SPI_Write_Reg 0016  
                         _Bank1_Reg0_13 0806                    __size_of_adcReadVcap 0033  
                  __size_of_adcReadTemp 0038                            _Bank0_RegAct 0881  
                            _SSPCONbits 0014                             _Bank1_Reg14 086C  
                          _SPI_Read_Reg 0A3E  
