

Microchip Technology PIC LITE Macro Assembler V1.12 build 49521 
                                                                                               Sat May 11 18:48:01 2013

HI-TECH Software Omniscient Code Generator (Lite mode) build 49521
     1  0000                     opt subtitle "HI-TECH Software Omniscient Code Generator (Lite mode) build 49521"
     2                           opt subtitle "HI-TECH Software Omniscient Code Generator (Lite mode) build 49521"
     3                           
     4                           opt pagewidth 120
     5                           
     6                           	opt lm
     7                           
     8                           	processor	16LF707
     9                           clrc	macro
    10  0000                     	endm
    11                           opt subtitle "HI-TECH Software Omniscient Code Generator (Lite mode) build 49521"
    12                           
    13  0000                     	endm
    14                           opt subtitle "HI-TECH Software Omniscient Code Generator (Lite mode) build 49521"
    15                           
    16  0000                     	endm
    17                           opt subtitle "HI-TECH Software Omniscient Code Generator (Lite mode) build 49521"
    18                           
    19  0000                     	endm
    20                           opt subtitle "HI-TECH Software Omniscient Code Generator (Lite mode) build 49521"
    21                           
    22  0000                     	endm
    23                           opt subtitle "HI-TECH Software Omniscient Code Generator (Lite mode) build 49521"
    24                           
    25  0000                     	endm
    26                           opt subtitle "HI-TECH Software Omniscient Code Generator (Lite mode) build 49521"
    27                           
    28  0000                     	endm
    29                           opt subtitle "HI-TECH Software Omniscient Code Generator (Lite mode) build 49521"
    30                           
    31  0000                     	endm
    32  0000                     indf	equ	0
    33  0000                     indf0	equ	0
    34  0002                     pc	equ	2
    35  0002                     pcl	equ	2
    36  0003                     status	equ	3
    37  0004                     fsr	equ	4
    38  0004                     fsr0	equ	4
    39  0001                     c	equ	1
    40  0000                     z	equ	0
    41  000A                     pclath	equ	10
    42                           opt subtitle "HI-TECH Software Omniscient Code Generator (Lite mode) build 49521"
    43  0000                     INDF equ 00h ;# 
    44                           opt subtitle "HI-TECH Software Omniscient Code Generator (Lite mode) build 49521"
    45  0001                     TMR0 equ 01h ;# 
    46                           opt subtitle "HI-TECH Software Omniscient Code Generator (Lite mode) build 49521"
    47  0002                     PCL equ 02h ;# 
    48                           opt subtitle "HI-TECH Software Omniscient Code Generator (Lite mode) build 49521"
    49  0003                     STATUS equ 03h ;# 
    50                           opt subtitle "HI-TECH Software Omniscient Code Generator (Lite mode) build 49521"
    51  0004                     FSR equ 04h ;# 
    52                           opt subtitle "HI-TECH Software Omniscient Code Generator (Lite mode) build 49521"
    53  0005                     PORTA equ 05h ;# 
    54                           opt subtitle "HI-TECH Software Omniscient Code Generator (Lite mode) build 49521"
    55  0006                     PORTB equ 06h ;# 
    56                           opt subtitle "HI-TECH Software Omniscient Code Generator (Lite mode) build 49521"
    57  0007                     PORTC equ 07h ;# 
    58                           opt subtitle "HI-TECH Software Omniscient Code Generator (Lite mode) build 49521"
    59  0008                     PORTD equ 08h ;# 
    60                           opt subtitle "HI-TECH Software Omniscient Code Generator (Lite mode) build 49521"
    61  0009                     PORTE equ 09h ;# 
    62                           opt subtitle "HI-TECH Software Omniscient Code Generator (Lite mode) build 49521"
    63  000A                     PCLATH equ 0Ah ;# 
    64                           opt subtitle "HI-TECH Software Omniscient Code Generator (Lite mode) build 49521"
    65  000B                     INTCON equ 0Bh ;# 
    66                           opt subtitle "HI-TECH Software Omniscient Code Generator (Lite mode) build 49521"
    67  000C                     PIR1 equ 0Ch ;# 
    68                           opt subtitle "HI-TECH Software Omniscient Code Generator (Lite mode) build 49521"
    69  000D                     PIR2 equ 0Dh ;# 
    70                           opt subtitle "HI-TECH Software Omniscient Code Generator (Lite mode) build 49521"
    71  000E                     TMR1 equ 0Eh ;# 
    72                           opt subtitle "HI-TECH Software Omniscient Code Generator (Lite mode) build 49521"
    73  000E                     TMR1L equ 0Eh ;# 
    74                           opt subtitle "HI-TECH Software Omniscient Code Generator (Lite mode) build 49521"
    75  000F                     TMR1H equ 0Fh ;# 
    76                           opt subtitle "HI-TECH Software Omniscient Code Generator (Lite mode) build 49521"
    77  0010                     T1CON equ 010h ;# 
    78                           opt subtitle "HI-TECH Software Omniscient Code Generator (Lite mode) build 49521"
    79  0011                     TMR2 equ 011h ;# 
    80                           opt subtitle "HI-TECH Software Omniscient Code Generator (Lite mode) build 49521"
    81  0012                     T2CON equ 012h ;# 
    82                           opt subtitle "HI-TECH Software Omniscient Code Generator (Lite mode) build 49521"
    83  0013                     SSPBUF equ 013h ;# 
    84                           opt subtitle "HI-TECH Software Omniscient Code Generator (Lite mode) build 49521"
    85  0014                     SSPCON equ 014h ;# 
    86                           opt subtitle "HI-TECH Software Omniscient Code Generator (Lite mode) build 49521"
    87  0015                     CCPR1 equ 015h ;# 
    88                           opt subtitle "HI-TECH Software Omniscient Code Generator (Lite mode) build 49521"
    89  0015                     CCPR1L equ 015h ;# 
    90                           opt subtitle "HI-TECH Software Omniscient Code Generator (Lite mode) build 49521"
    91  0016                     CCPR1H equ 016h ;# 
    92                           opt subtitle "HI-TECH Software Omniscient Code Generator (Lite mode) build 49521"
    93  0017                     CCP1CON equ 017h ;# 
    94                           opt subtitle "HI-TECH Software Omniscient Code Generator (Lite mode) build 49521"
    95  0018                     RCSTA equ 018h ;# 
    96                           opt subtitle "HI-TECH Software Omniscient Code Generator (Lite mode) build 49521"
    97  0019                     TXREG equ 019h ;# 
    98                           opt subtitle "HI-TECH Software Omniscient Code Generator (Lite mode) build 49521"
    99  001A                     RCREG equ 01Ah ;# 
   100                           opt subtitle "HI-TECH Software Omniscient Code Generator (Lite mode) build 49521"
   101  001B                     CCPR2 equ 01Bh ;# 
   102                           opt subtitle "HI-TECH Software Omniscient Code Generator (Lite mode) build 49521"
   103  001B                     CCPR2L equ 01Bh ;# 
   104                           opt subtitle "HI-TECH Software Omniscient Code Generator (Lite mode) build 49521"
   105  001C                     CCPR2H equ 01Ch ;# 
   106                           opt subtitle "HI-TECH Software Omniscient Code Generator (Lite mode) build 49521"
   107  001D                     CCP2CON equ 01Dh ;# 
   108                           opt subtitle "HI-TECH Software Omniscient Code Generator (Lite mode) build 49521"
   109  001E                     ADRES equ 01Eh ;# 
   110                           opt subtitle "HI-TECH Software Omniscient Code Generator (Lite mode) build 49521"
   111  001F                     ADCON0 equ 01Fh ;# 
   112                           opt subtitle "HI-TECH Software Omniscient Code Generator (Lite mode) build 49521"
   113  0081                     OPTION_REG equ 081h ;# 
   114                           opt subtitle "HI-TECH Software Omniscient Code Generator (Lite mode) build 49521"
   115  0085                     TRISA equ 085h ;# 
   116                           opt subtitle "HI-TECH Software Omniscient Code Generator (Lite mode) build 49521"
   117  0086                     TRISB equ 086h ;# 
   118                           opt subtitle "HI-TECH Software Omniscient Code Generator (Lite mode) build 49521"
   119  0087                     TRISC equ 087h ;# 
   120                           opt subtitle "HI-TECH Software Omniscient Code Generator (Lite mode) build 49521"
   121  0088                     TRISD equ 088h ;# 
   122                           opt subtitle "HI-TECH Software Omniscient Code Generator (Lite mode) build 49521"
   123  0089                     TRISE equ 089h ;# 
   124                           opt subtitle "HI-TECH Software Omniscient Code Generator (Lite mode) build 49521"
   125  008C                     PIE1 equ 08Ch ;# 
   126                           opt subtitle "HI-TECH Software Omniscient Code Generator (Lite mode) build 49521"
   127  008D                     PIE2 equ 08Dh ;# 
   128                           opt subtitle "HI-TECH Software Omniscient Code Generator (Lite mode) build 49521"
   129  008E                     PCON equ 08Eh ;# 
   130                           opt subtitle "HI-TECH Software Omniscient Code Generator (Lite mode) build 49521"
   131  008F                     T1GCON equ 08Fh ;# 
   132                           opt subtitle "HI-TECH Software Omniscient Code Generator (Lite mode) build 49521"
   133  0090                     OSCCON equ 090h ;# 
   134                           opt subtitle "HI-TECH Software Omniscient Code Generator (Lite mode) build 49521"
   135  0091                     OSCTUNE equ 091h ;# 
   136                           opt subtitle "HI-TECH Software Omniscient Code Generator (Lite mode) build 49521"
   137  0092                     PR2 equ 092h ;# 
   138                           opt subtitle "HI-TECH Software Omniscient Code Generator (Lite mode) build 49521"
   139  0093                     SSPADD equ 093h ;# 
   140                           opt subtitle "HI-TECH Software Omniscient Code Generator (Lite mode) build 49521"
   141  0093                     SSPMSK equ 093h ;# 
   142                           opt subtitle "HI-TECH Software Omniscient Code Generator (Lite mode) build 49521"
   143  0094                     SSPSTAT equ 094h ;# 
   144                           opt subtitle "HI-TECH Software Omniscient Code Generator (Lite mode) build 49521"
   145  0095                     WPUB equ 095h ;# 
   146                           opt subtitle "HI-TECH Software Omniscient Code Generator (Lite mode) build 49521"
   147  0096                     IOCB equ 096h ;# 
   148                           opt subtitle "HI-TECH Software Omniscient Code Generator (Lite mode) build 49521"
   149  0097                     T3CON equ 097h ;# 
   150                           opt subtitle "HI-TECH Software Omniscient Code Generator (Lite mode) build 49521"
   151  0098                     TXSTA equ 098h ;# 
   152                           opt subtitle "HI-TECH Software Omniscient Code Generator (Lite mode) build 49521"
   153  0099                     SPBRG equ 099h ;# 
   154                           opt subtitle "HI-TECH Software Omniscient Code Generator (Lite mode) build 49521"
   155  009A                     TMR3 equ 09Ah ;# 
   156                           opt subtitle "HI-TECH Software Omniscient Code Generator (Lite mode) build 49521"
   157  009A                     TMR3L equ 09Ah ;# 
   158                           opt subtitle "HI-TECH Software Omniscient Code Generator (Lite mode) build 49521"
   159  009B                     TMR3H equ 09Bh ;# 
   160                           opt subtitle "HI-TECH Software Omniscient Code Generator (Lite mode) build 49521"
   161  009C                     APFCON equ 09Ch ;# 
   162                           opt subtitle "HI-TECH Software Omniscient Code Generator (Lite mode) build 49521"
   163  009D                     FVRCON equ 09Dh ;# 
   164                           opt subtitle "HI-TECH Software Omniscient Code Generator (Lite mode) build 49521"
   165  009E                     T3GCON equ 09Eh ;# 
   166                           opt subtitle "HI-TECH Software Omniscient Code Generator (Lite mode) build 49521"
   167  009F                     ADCON1 equ 09Fh ;# 
   168                           opt subtitle "HI-TECH Software Omniscient Code Generator (Lite mode) build 49521"
   169  0105                     TACON equ 0105h ;# 
   170                           opt subtitle "HI-TECH Software Omniscient Code Generator (Lite mode) build 49521"
   171  0106                     CPSBCON0 equ 0106h ;# 
   172                           opt subtitle "HI-TECH Software Omniscient Code Generator (Lite mode) build 49521"
   173  0107                     CPSBCON1 equ 0107h ;# 
   174                           opt subtitle "HI-TECH Software Omniscient Code Generator (Lite mode) build 49521"
   175  0108                     CPSACON0 equ 0108h ;# 
   176                           opt subtitle "HI-TECH Software Omniscient Code Generator (Lite mode) build 49521"
   177  0109                     CPSACON1 equ 0109h ;# 
   178                           opt subtitle "HI-TECH Software Omniscient Code Generator (Lite mode) build 49521"
   179  010C                     PMDATL equ 010Ch ;# 
   180                           opt subtitle "HI-TECH Software Omniscient Code Generator (Lite mode) build 49521"
   181  010D                     PMADRL equ 010Dh ;# 
   182                           opt subtitle "HI-TECH Software Omniscient Code Generator (Lite mode) build 49521"
   183  010E                     PMDATH equ 010Eh ;# 
   184                           opt subtitle "HI-TECH Software Omniscient Code Generator (Lite mode) build 49521"
   185  010F                     PMADRH equ 010Fh ;# 
   186                           opt subtitle "HI-TECH Software Omniscient Code Generator (Lite mode) build 49521"
   187  0110                     TMRA equ 0110h ;# 
   188                           opt subtitle "HI-TECH Software Omniscient Code Generator (Lite mode) build 49521"
   189  0111                     TBCON equ 0111h ;# 
   190                           opt subtitle "HI-TECH Software Omniscient Code Generator (Lite mode) build 49521"
   191  0112                     TMRB equ 0112h ;# 
   192                           opt subtitle "HI-TECH Software Omniscient Code Generator (Lite mode) build 49521"
   193  0113                     DACCON0 equ 0113h ;# 
   194                           opt subtitle "HI-TECH Software Omniscient Code Generator (Lite mode) build 49521"
   195  0114                     DACCON1 equ 0114h ;# 
   196                           opt subtitle "HI-TECH Software Omniscient Code Generator (Lite mode) build 49521"
   197  0185                     ANSELA equ 0185h ;# 
   198                           opt subtitle "HI-TECH Software Omniscient Code Generator (Lite mode) build 49521"
   199  0186                     ANSELB equ 0186h ;# 
   200                           opt subtitle "HI-TECH Software Omniscient Code Generator (Lite mode) build 49521"
   201  0187                     ANSELC equ 0187h ;# 
   202                           opt subtitle "HI-TECH Software Omniscient Code Generator (Lite mode) build 49521"
   203  0188                     ANSELD equ 0188h ;# 
   204                           opt subtitle "HI-TECH Software Omniscient Code Generator (Lite mode) build 49521"
   205  0189                     ANSELE equ 0189h ;# 
   206                           opt subtitle "HI-TECH Software Omniscient Code Generator (Lite mode) build 49521"
   207  018C                     PMCON1 equ 018Ch ;# 
   208                           opt subtitle "HI-TECH Software Omniscient Code Generator (Lite mode) build 49521"
   209  0000                     INDF equ 00h ;# 
   210                           opt subtitle "HI-TECH Software Omniscient Code Generator (Lite mode) build 49521"
   211  0001                     TMR0 equ 01h ;# 
   212                           opt subtitle "HI-TECH Software Omniscient Code Generator (Lite mode) build 49521"
   213  0002                     PCL equ 02h ;# 
   214                           opt subtitle "HI-TECH Software Omniscient Code Generator (Lite mode) build 49521"
   215  0003                     STATUS equ 03h ;# 
   216                           opt subtitle "HI-TECH Software Omniscient Code Generator (Lite mode) build 49521"
   217  0004                     FSR equ 04h ;# 
   218                           opt subtitle "HI-TECH Software Omniscient Code Generator (Lite mode) build 49521"
   219  0005                     PORTA equ 05h ;# 
   220                           opt subtitle "HI-TECH Software Omniscient Code Generator (Lite mode) build 49521"
   221  0006                     PORTB equ 06h ;# 
   222                           opt subtitle "HI-TECH Software Omniscient Code Generator (Lite mode) build 49521"
   223  0007                     PORTC equ 07h ;# 
   224                           opt subtitle "HI-TECH Software Omniscient Code Generator (Lite mode) build 49521"
   225  0008                     PORTD equ 08h ;# 
   226                           opt subtitle "HI-TECH Software Omniscient Code Generator (Lite mode) build 49521"
   227  0009                     PORTE equ 09h ;# 
   228                           opt subtitle "HI-TECH Software Omniscient Code Generator (Lite mode) build 49521"
   229  000A                     PCLATH equ 0Ah ;# 
   230                           opt subtitle "HI-TECH Software Omniscient Code Generator (Lite mode) build 49521"
   231  000B                     INTCON equ 0Bh ;# 
   232                           opt subtitle "HI-TECH Software Omniscient Code Generator (Lite mode) build 49521"
   233  000C                     PIR1 equ 0Ch ;# 
   234                           opt subtitle "HI-TECH Software Omniscient Code Generator (Lite mode) build 49521"
   235  000D                     PIR2 equ 0Dh ;# 
   236                           opt subtitle "HI-TECH Software Omniscient Code Generator (Lite mode) build 49521"
   237  000E                     TMR1 equ 0Eh ;# 
   238                           opt subtitle "HI-TECH Software Omniscient Code Generator (Lite mode) build 49521"
   239  000E                     TMR1L equ 0Eh ;# 
   240                           opt subtitle "HI-TECH Software Omniscient Code Generator (Lite mode) build 49521"
   241  000F                     TMR1H equ 0Fh ;# 
   242                           opt subtitle "HI-TECH Software Omniscient Code Generator (Lite mode) build 49521"
   243  0010                     T1CON equ 010h ;# 
   244                           opt subtitle "HI-TECH Software Omniscient Code Generator (Lite mode) build 49521"
   245  0011                     TMR2 equ 011h ;# 
   246                           opt subtitle "HI-TECH Software Omniscient Code Generator (Lite mode) build 49521"
   247  0012                     T2CON equ 012h ;# 
   248                           opt subtitle "HI-TECH Software Omniscient Code Generator (Lite mode) build 49521"
   249  0013                     SSPBUF equ 013h ;# 
   250                           opt subtitle "HI-TECH Software Omniscient Code Generator (Lite mode) build 49521"
   251  0014                     SSPCON equ 014h ;# 
   252                           opt subtitle "HI-TECH Software Omniscient Code Generator (Lite mode) build 49521"
   253  0015                     CCPR1 equ 015h ;# 
   254                           opt subtitle "HI-TECH Software Omniscient Code Generator (Lite mode) build 49521"
   255  0015                     CCPR1L equ 015h ;# 
   256                           opt subtitle "HI-TECH Software Omniscient Code Generator (Lite mode) build 49521"
   257  0016                     CCPR1H equ 016h ;# 
   258                           opt subtitle "HI-TECH Software Omniscient Code Generator (Lite mode) build 49521"
   259  0017                     CCP1CON equ 017h ;# 
   260                           opt subtitle "HI-TECH Software Omniscient Code Generator (Lite mode) build 49521"
   261  0018                     RCSTA equ 018h ;# 
   262                           opt subtitle "HI-TECH Software Omniscient Code Generator (Lite mode) build 49521"
   263  0019                     TXREG equ 019h ;# 
   264                           opt subtitle "HI-TECH Software Omniscient Code Generator (Lite mode) build 49521"
   265  001A                     RCREG equ 01Ah ;# 
   266                           opt subtitle "HI-TECH Software Omniscient Code Generator (Lite mode) build 49521"
   267  001B                     CCPR2 equ 01Bh ;# 
   268                           opt subtitle "HI-TECH Software Omniscient Code Generator (Lite mode) build 49521"
   269  001B                     CCPR2L equ 01Bh ;# 
   270                           opt subtitle "HI-TECH Software Omniscient Code Generator (Lite mode) build 49521"
   271  001C                     CCPR2H equ 01Ch ;# 
   272                           opt subtitle "HI-TECH Software Omniscient Code Generator (Lite mode) build 49521"
   273  001D                     CCP2CON equ 01Dh ;# 
   274                           opt subtitle "HI-TECH Software Omniscient Code Generator (Lite mode) build 49521"
   275  001E                     ADRES equ 01Eh ;# 
   276                           opt subtitle "HI-TECH Software Omniscient Code Generator (Lite mode) build 49521"
   277  001F                     ADCON0 equ 01Fh ;# 
   278                           opt subtitle "HI-TECH Software Omniscient Code Generator (Lite mode) build 49521"
   279  0081                     OPTION_REG equ 081h ;# 
   280                           opt subtitle "HI-TECH Software Omniscient Code Generator (Lite mode) build 49521"
   281  0085                     TRISA equ 085h ;# 
   282                           opt subtitle "HI-TECH Software Omniscient Code Generator (Lite mode) build 49521"
   283  0086                     TRISB equ 086h ;# 
   284                           opt subtitle "HI-TECH Software Omniscient Code Generator (Lite mode) build 49521"
   285  0087                     TRISC equ 087h ;# 
   286                           opt subtitle "HI-TECH Software Omniscient Code Generator (Lite mode) build 49521"
   287  0088                     TRISD equ 088h ;# 
   288                           opt subtitle "HI-TECH Software Omniscient Code Generator (Lite mode) build 49521"
   289  0089                     TRISE equ 089h ;# 
   290                           opt subtitle "HI-TECH Software Omniscient Code Generator (Lite mode) build 49521"
   291  008C                     PIE1 equ 08Ch ;# 
   292                           opt subtitle "HI-TECH Software Omniscient Code Generator (Lite mode) build 49521"
   293  008D                     PIE2 equ 08Dh ;# 
   294                           opt subtitle "HI-TECH Software Omniscient Code Generator (Lite mode) build 49521"
   295  008E                     PCON equ 08Eh ;# 
   296                           opt subtitle "HI-TECH Software Omniscient Code Generator (Lite mode) build 49521"
   297  008F                     T1GCON equ 08Fh ;# 
   298                           opt subtitle "HI-TECH Software Omniscient Code Generator (Lite mode) build 49521"
   299  0090                     OSCCON equ 090h ;# 
   300                           opt subtitle "HI-TECH Software Omniscient Code Generator (Lite mode) build 49521"
   301  0091                     OSCTUNE equ 091h ;# 
   302                           opt subtitle "HI-TECH Software Omniscient Code Generator (Lite mode) build 49521"
   303  0092                     PR2 equ 092h ;# 
   304                           opt subtitle "HI-TECH Software Omniscient Code Generator (Lite mode) build 49521"
   305  0093                     SSPADD equ 093h ;# 
   306                           opt subtitle "HI-TECH Software Omniscient Code Generator (Lite mode) build 49521"
   307  0093                     SSPMSK equ 093h ;# 
   308                           opt subtitle "HI-TECH Software Omniscient Code Generator (Lite mode) build 49521"
   309  0094                     SSPSTAT equ 094h ;# 
   310                           opt subtitle "HI-TECH Software Omniscient Code Generator (Lite mode) build 49521"
   311  0095                     WPUB equ 095h ;# 
   312                           opt subtitle "HI-TECH Software Omniscient Code Generator (Lite mode) build 49521"
   313  0096                     IOCB equ 096h ;# 
   314                           opt subtitle "HI-TECH Software Omniscient Code Generator (Lite mode) build 49521"
   315  0097                     T3CON equ 097h ;# 
   316                           opt subtitle "HI-TECH Software Omniscient Code Generator (Lite mode) build 49521"
   317  0098                     TXSTA equ 098h ;# 
   318                           opt subtitle "HI-TECH Software Omniscient Code Generator (Lite mode) build 49521"
   319  0099                     SPBRG equ 099h ;# 
   320                           opt subtitle "HI-TECH Software Omniscient Code Generator (Lite mode) build 49521"
   321  009A                     TMR3 equ 09Ah ;# 
   322                           opt subtitle "HI-TECH Software Omniscient Code Generator (Lite mode) build 49521"
   323  009A                     TMR3L equ 09Ah ;# 
   324                           opt subtitle "HI-TECH Software Omniscient Code Generator (Lite mode) build 49521"
   325  009B                     TMR3H equ 09Bh ;# 
   326                           opt subtitle "HI-TECH Software Omniscient Code Generator (Lite mode) build 49521"
   327  009C                     APFCON equ 09Ch ;# 
   328                           opt subtitle "HI-TECH Software Omniscient Code Generator (Lite mode) build 49521"
   329  009D                     FVRCON equ 09Dh ;# 
   330                           opt subtitle "HI-TECH Software Omniscient Code Generator (Lite mode) build 49521"
   331  009E                     T3GCON equ 09Eh ;# 
   332                           opt subtitle "HI-TECH Software Omniscient Code Generator (Lite mode) build 49521"
   333  009F                     ADCON1 equ 09Fh ;# 
   334                           opt subtitle "HI-TECH Software Omniscient Code Generator (Lite mode) build 49521"
   335  0105                     TACON equ 0105h ;# 
   336                           opt subtitle "HI-TECH Software Omniscient Code Generator (Lite mode) build 49521"
   337  0106                     CPSBCON0 equ 0106h ;# 
   338                           opt subtitle "HI-TECH Software Omniscient Code Generator (Lite mode) build 49521"
   339  0107                     CPSBCON1 equ 0107h ;# 
   340                           opt subtitle "HI-TECH Software Omniscient Code Generator (Lite mode) build 49521"
   341  0108                     CPSACON0 equ 0108h ;# 
   342                           opt subtitle "HI-TECH Software Omniscient Code Generator (Lite mode) build 49521"
   343  0109                     CPSACON1 equ 0109h ;# 
   344                           opt subtitle "HI-TECH Software Omniscient Code Generator (Lite mode) build 49521"
   345  010C                     PMDATL equ 010Ch ;# 
   346                           opt subtitle "HI-TECH Software Omniscient Code Generator (Lite mode) build 49521"
   347  010D                     PMADRL equ 010Dh ;# 
   348                           opt subtitle "HI-TECH Software Omniscient Code Generator (Lite mode) build 49521"
   349  010E                     PMDATH equ 010Eh ;# 
   350                           opt subtitle "HI-TECH Software Omniscient Code Generator (Lite mode) build 49521"
   351  010F                     PMADRH equ 010Fh ;# 
   352                           opt subtitle "HI-TECH Software Omniscient Code Generator (Lite mode) build 49521"
   353  0110                     TMRA equ 0110h ;# 
   354                           opt subtitle "HI-TECH Software Omniscient Code Generator (Lite mode) build 49521"
   355  0111                     TBCON equ 0111h ;# 
   356                           opt subtitle "HI-TECH Software Omniscient Code Generator (Lite mode) build 49521"
   357  0112                     TMRB equ 0112h ;# 
   358                           opt subtitle "HI-TECH Software Omniscient Code Generator (Lite mode) build 49521"
   359  0113                     DACCON0 equ 0113h ;# 
   360                           opt subtitle "HI-TECH Software Omniscient Code Generator (Lite mode) build 49521"
   361  0114                     DACCON1 equ 0114h ;# 
   362                           opt subtitle "HI-TECH Software Omniscient Code Generator (Lite mode) build 49521"
   363  0185                     ANSELA equ 0185h ;# 
   364                           opt subtitle "HI-TECH Software Omniscient Code Generator (Lite mode) build 49521"
   365  0186                     ANSELB equ 0186h ;# 
   366                           opt subtitle "HI-TECH Software Omniscient Code Generator (Lite mode) build 49521"
   367  0187                     ANSELC equ 0187h ;# 
   368                           opt subtitle "HI-TECH Software Omniscient Code Generator (Lite mode) build 49521"
   369  0188                     ANSELD equ 0188h ;# 
   370                           opt subtitle "HI-TECH Software Omniscient Code Generator (Lite mode) build 49521"
   371  0189                     ANSELE equ 0189h ;# 
   372                           opt subtitle "HI-TECH Software Omniscient Code Generator (Lite mode) build 49521"
   373  018C                     PMCON1 equ 018Ch ;# 
   374                           opt subtitle "HI-TECH Software Omniscient Code Generator (Lite mode) build 49521"
   375                           
   376                           opt pagewidth 120
   377                           
   378                           	opt lm
   379                           
   380                           	processor	16LF707
   381                           clrc	macro
   382                           	bcf	3,0
   383                           	endm
   384                           clrz	macro
   385                           	bcf	3,2
   386                           	endm
   387                           setc	macro
   388                           	bsf	3,0
   389                           	endm
   390                           setz	macro
   391                           	bsf	3,2
   392                           	endm
   393                           skipc	macro
   394                           	btfss	3,0
   395                           	endm
   396                           skipz	macro
   397                           	btfss	3,2
   398                           	endm
   399                           skipnc	macro
   400                           	btfsc	3,0
   401                           	endm
   402                           skipnz	macro
   403                           	btfsc	3,2
   404                           	endm
   405                           indf	equ	0
   406                           indf0	equ	0
   407                           pc	equ	2
   408                           pcl	equ	2
   409                           status	equ	3
   410                           fsr	equ	4
   411                           fsr0	equ	4
   412                           c	equ	1
   413                           z	equ	0
   414                           pclath	equ	10
   415                           # 46 "/Applications/microchip/xc8/v1.12/include/pic16lf707.h"
   416                           INDF equ 00h ;# 
   417                           # 52 "/Applications/microchip/xc8/v1.12/include/pic16lf707.h"
   418                           TMR0 equ 01h ;# 
   419                           # 58 "/Applications/microchip/xc8/v1.12/include/pic16lf707.h"
   420                           PCL equ 02h ;# 
   421                           # 64 "/Applications/microchip/xc8/v1.12/include/pic16lf707.h"
   422                           STATUS equ 03h ;# 
   423                           # 151 "/Applications/microchip/xc8/v1.12/include/pic16lf707.h"
   424                           FSR equ 04h ;# 
   425                           # 157 "/Applications/microchip/xc8/v1.12/include/pic16lf707.h"
   426                           PORTA equ 05h ;# 
   427                           # 346 "/Applications/microchip/xc8/v1.12/include/pic16lf707.h"
   428                           PORTB equ 06h ;# 
   429  087A                     __pidataBANK0:
   430                           opt subtitle "HI-TECH Software Omniscient Code Generator (Lite mode) build 49521"
   431                           
   432                           opt pagewidth 120
   433                           
   434  087A  3464               	retlw	064h
   435  087B  3400               	retlw	0
   436                           opt subtitle "HI-TECH Software Omniscient Code Generator (Lite mode) build 49521"
   437                           
   438                           opt pagewidth 120
   439                           
   440  087C  341A               	retlw	01Ah
   441  087D  3400               	retlw	0
   442                           opt subtitle "HI-TECH Software Omniscient Code Generator (Lite mode) build 49521"
   443                           
   444                           opt pagewidth 120
   445                           
   446  087E  3401               	retlw	01h
   447                           opt subtitle "HI-TECH Software Omniscient Code Generator (Lite mode) build 49521"
   448                           
   449  0887                     __pidataBANK1:
   450                           opt subtitle "HI-TECH Software Omniscient Code Generator (Lite mode) build 49521"
   451                           
   452                           opt pagewidth 120
   453  0887  3400               	retlw	0
   454  0888  3400               	retlw	0
   455  0889  3400               	retlw	0
   456  088A  3400               	retlw	0
   457  088B  3400               	retlw	0
   458  088C  34AA               	retlw	0AAh
   459  088D  34AA               	retlw	0AAh
   460  088E  34AA               	retlw	0AAh
   461                           opt subtitle "HI-TECH Software Omniscient Code Generator (Lite mode) build 49521"
   462                           
   463                           opt pagewidth 120
   464  1000                     __pstringtext:
   465                           opt subtitle "HI-TECH Software Omniscient Code Generator (Lite mode) build 49521"
   466  1000                     stringtab:
   467                           opt subtitle "HI-TECH Software Omniscient Code Generator (Lite mode) build 49521"
   468  1000                     __stringtab:
   469                           opt subtitle "HI-TECH Software Omniscient Code Generator (Lite mode) build 49521"
   470  1000  1BFF               	btfsc	(btemp+1),7
   471  1001  280A               	ljmp	stringcode
   472  1002  1383               	bcf	status,7
   473  1003  187F               	btfsc	(btemp+1),0
   474  1004  1783               	bsf	status,7
   475  1005  0800               	movf	indf,w
   476  1006  0A84               	incf fsr
   477  1007  1903               skipnz
   478  1008  0AFF               incf btemp+1
   479  1009  0008               	return
   480  100A                     stringcode:
   481  100A  087F               	movf btemp+1,w
   482  100B  397F               andlw 7Fh
   483  100C  008A               movwf	pclath
   484  100D  0804               	movf	fsr,w
   485  100E  0A84               incf fsr
   486  100F  1903               skipnz
   487  1010  0AFF               incf btemp+1
   488  1011  0082               	movwf pc
   489  1012                     __stringbase:
   490                           opt subtitle "HI-TECH Software Omniscient Code Generator (Lite mode) build 49521"
   491  1012                     __end_of__stringtab:
   492                           opt subtitle "HI-TECH Software Omniscient Code Generator (Lite mode) build 49521"
   493                           
   494  1012                     _Bank1_Reg0_13:
   495  1012  3440               	retlw	040h
   496  1013  344B               	retlw	04Bh
   497  1014  3401               	retlw	01h
   498  1015  34E2               	retlw	0E2h
   499                           opt subtitle "HI-TECH Software Omniscient Code Generator (Lite mode) build 49521"
   500  1016  34C0               	retlw	0C0h
   501  1017  344B               	retlw	04Bh
   502  1018  3400               	retlw	0
   503  1019  3400               	retlw	0
   504                           opt subtitle "HI-TECH Software Omniscient Code Generator (Lite mode) build 49521"
   505  101A  34D0               	retlw	0D0h
   506  101B  34FC               	retlw	0FCh
   507  101C  348C               	retlw	08Ch
   508  101D  3402               	retlw	02h
   509                           opt subtitle "HI-TECH Software Omniscient Code Generator (Lite mode) build 49521"
   510  101E  3499               	retlw	099h
   511  101F  3400               	retlw	0
   512  1020  3439               	retlw	039h
   513  1021  3441               	retlw	041h
   514                           opt subtitle "HI-TECH Software Omniscient Code Generator (Lite mode) build 49521"
   515  1022  34F9               	retlw	0F9h
   516  1023  349E               	retlw	09Eh
   517  1024  3486               	retlw	086h
   518  1025  340B               	retlw	0Bh
   519                           opt subtitle "HI-TECH Software Omniscient Code Generator (Lite mode) build 49521"
   520  1026  3424               	retlw	024h
   521  1027  3406               	retlw	06h
   522  1028  347F               	retlw	07Fh
   523  1029  34A6               	retlw	0A6h
   524                           opt subtitle "HI-TECH Software Omniscient Code Generator (Lite mode) build 49521"
   525  102A  3400               	retlw	0
   526  102B  3400               	retlw	0
   527  102C  3400               	retlw	0
   528  102D  3400               	retlw	0
   529                           opt subtitle "HI-TECH Software Omniscient Code Generator (Lite mode) build 49521"
   530  102E  3400               	retlw	0
   531  102F  3400               	retlw	0
   532  1030  3400               	retlw	0
   533  1031  3400               	retlw	0
   534                           opt subtitle "HI-TECH Software Omniscient Code Generator (Lite mode) build 49521"
   535  1032  3400               	retlw	0
   536  1033  3400               	retlw	0
   537  1034  3400               	retlw	0
   538  1035  3400               	retlw	0
   539                           opt subtitle "HI-TECH Software Omniscient Code Generator (Lite mode) build 49521"
   540  1036  3400               	retlw	0
   541  1037  3400               	retlw	0
   542  1038  3400               	retlw	0
   543  1039  3400               	retlw	0
   544                           opt subtitle "HI-TECH Software Omniscient Code Generator (Lite mode) build 49521"
   545  103A  3400               	retlw	0
   546  103B  3400               	retlw	0
   547  103C  3400               	retlw	0
   548  103D  3400               	retlw	0
   549                           opt subtitle "HI-TECH Software Omniscient Code Generator (Lite mode) build 49521"
   550  103E  3400               	retlw	0
   551  103F  3400               	retlw	0
   552  1040  3400               	retlw	0
   553  1041  3400               	retlw	0
   554                           opt subtitle "HI-TECH Software Omniscient Code Generator (Lite mode) build 49521"
   555  1042  3400               	retlw	0
   556  1043  3473               	retlw	073h
   557  1044  3412               	retlw	012h
   558  1045  3400               	retlw	0
   559                           opt subtitle "HI-TECH Software Omniscient Code Generator (Lite mode) build 49521"
   560  1046  3400               	retlw	0
   561  1047  3480               	retlw	080h
   562  1048  34B4               	retlw	0B4h
   563  1049  3436               	retlw	036h
   564                           opt subtitle "HI-TECH Software Omniscient Code Generator (Lite mode) build 49521"
   565                           
   566  104A                     __end_of_Bank1_Reg0_13:
   567                           opt subtitle "HI-TECH Software Omniscient Code Generator (Lite mode) build 49521"
   568                           
   569                           opt pagewidth 120
   570                           
   571  104A                     _Bank0_Reg:
   572  104A  3400               	retlw	0
   573  104B  340F               	retlw	0Fh
   574  104C  3401               	retlw	01h
   575  104D  343F               	retlw	03Fh
   576  104E  3402               	retlw	02h
   577  104F  343F               	retlw	03Fh
   578  1050  3403               	retlw	03h
   579  1051  3403               	retlw	03h
   580  1052  3404               	retlw	04h
   581  1053  34FF               	retlw	0FFh
   582  1054  3405               	retlw	05h
   583  1055  3417               	retlw	017h
   584  1056  3406               	retlw	06h
   585  1057  3401               	retlw	01h
   586  1058  3407               	retlw	07h
   587  1059  3407               	retlw	07h
   588  105A  3408               	retlw	08h
   589  105B  3400               	retlw	0
   590  105C  3409               	retlw	09h
   591  105D  3400               	retlw	0
   592  105E  340C               	retlw	0Ch
   593  105F  34C3               	retlw	0C3h
   594  1060  340D               	retlw	0Dh
   595  1061  34C4               	retlw	0C4h
   596  1062  340E               	retlw	0Eh
   597  1063  34C5               	retlw	0C5h
   598  1064  340F               	retlw	0Fh
   599  1065  34C6               	retlw	0C6h
   600  1066  3411               	retlw	011h
   601  1067  3420               	retlw	020h
   602  1068  3412               	retlw	012h
   603  1069  3420               	retlw	020h
   604  106A  3413               	retlw	013h
   605  106B  3420               	retlw	020h
   606  106C  3414               	retlw	014h
   607  106D  3420               	retlw	020h
   608  106E  3415               	retlw	015h
   609  106F  3420               	retlw	020h
   610  1070  3416               	retlw	016h
   611  1071  3420               	retlw	020h
   612  1072  3417               	retlw	017h
   613  1073  3400               	retlw	0
   614  1074  341C               	retlw	01Ch
   615  1075  343F               	retlw	03Fh
   616  1076  341D               	retlw	01Dh
   617  1077  3407               	retlw	07h
   618                           opt subtitle "HI-TECH Software Omniscient Code Generator (Lite mode) build 49521"
   619  1078                     __end_of_Bank0_Reg:
   620                           opt subtitle "HI-TECH Software Omniscient Code Generator (Lite mode) build 49521"
   621                           
   622                           opt pagewidth 120
   623                           
   624  1078                     _Bank1_Reg14:
   625  1078  3441               	retlw	041h
   626  1079  3420               	retlw	020h
   627  107A  3408               	retlw	08h
   628  107B  3404               	retlw	04h
   629  107C  3481               	retlw	081h
   630  107D  3420               	retlw	020h
   631  107E  34CF               	retlw	0CFh
   632  107F  34F7               	retlw	0F7h
   633  1080  34FE               	retlw	0FEh
   634  1081  34FF               	retlw	0FFh
   635  1082  34FF               	retlw	0FFh
   636                           opt subtitle "HI-TECH Software Omniscient Code Generator (Lite mode) build 49521"
   637  1083                     __end_of_Bank1_Reg14:
   638                           opt subtitle "HI-TECH Software Omniscient Code Generator (Lite mode) build 49521"
   639                           
   640                           opt pagewidth 120
   641                           
   642  1083                     _dpowers:
   643  1083  3401               	retlw	01h
   644  1084  3400               	retlw	0
   645                           opt subtitle "HI-TECH Software Omniscient Code Generator (Lite mode) build 49521"
   646  1085  340A               	retlw	0Ah
   647  1086  3400               	retlw	0
   648                           opt subtitle "HI-TECH Software Omniscient Code Generator (Lite mode) build 49521"
   649  1087  3464               	retlw	064h
   650  1088  3400               	retlw	0
   651                           opt subtitle "HI-TECH Software Omniscient Code Generator (Lite mode) build 49521"
   652  1089  34E8               	retlw	0E8h
   653  108A  3403               	retlw	03h
   654                           opt subtitle "HI-TECH Software Omniscient Code Generator (Lite mode) build 49521"
   655  108B  3410               	retlw	010h
   656  108C  3427               	retlw	027h
   657                           opt subtitle "HI-TECH Software Omniscient Code Generator (Lite mode) build 49521"
   658                           
   659  108D                     __end_of_dpowers:
   660                           opt subtitle "HI-TECH Software Omniscient Code Generator (Lite mode) build 49521"
   661                           
   662                           opt pagewidth 120
   663                           
   664  108D                     _hexpowers:
   665  108D  3401               	retlw	01h
   666  108E  3400               	retlw	0
   667                           opt subtitle "HI-TECH Software Omniscient Code Generator (Lite mode) build 49521"
   668  108F  3410               	retlw	010h
   669  1090  3400               	retlw	0
   670                           opt subtitle "HI-TECH Software Omniscient Code Generator (Lite mode) build 49521"
   671  1091  3400               	retlw	0
   672  1092  3401               	retlw	01h
   673                           opt subtitle "HI-TECH Software Omniscient Code Generator (Lite mode) build 49521"
   674  1093  3400               	retlw	0
   675  1094  3410               	retlw	010h
   676                           opt subtitle "HI-TECH Software Omniscient Code Generator (Lite mode) build 49521"
   677                           
   678  1095                     __end_of_hexpowers:
   679                           opt subtitle "HI-TECH Software Omniscient Code Generator (Lite mode) build 49521"
   680                           
   681                           opt pagewidth 120
   682                           
   683  1095                     _RX0_Address:
   684  1095  3434               	retlw	034h
   685  1096  3443               	retlw	043h
   686  1097  3410               	retlw	010h
   687  1098  3410               	retlw	010h
   688  1099  3401               	retlw	01h
   689                           opt subtitle "HI-TECH Software Omniscient Code Generator (Lite mode) build 49521"
   690  109A                     __end_of_RX0_Address:
   691                           opt subtitle "HI-TECH Software Omniscient Code Generator (Lite mode) build 49521"
   692                           
   693                           opt pagewidth 120
   694                           
   695  109A                     _RX1_Address:
   696  109A  3439               	retlw	039h
   697  109B  3438               	retlw	038h
   698  109C  3437               	retlw	037h
   699  109D  3436               	retlw	036h
   700  109E  34C2               	retlw	0C2h
   701                           opt subtitle "HI-TECH Software Omniscient Code Generator (Lite mode) build 49521"
   702  109F                     __end_of_RX1_Address:
   703                           opt subtitle "HI-TECH Software Omniscient Code Generator (Lite mode) build 49521"
   704                           
   705                           opt pagewidth 120
   706  109F                     _Bank0_RegAct:
   707  109F  341C               	retlw	01Ch
   708  10A0  343F               	retlw	03Fh
   709  10A1  341D               	retlw	01Dh
   710  10A2  3407               	retlw	07h
   711                           opt subtitle "HI-TECH Software Omniscient Code Generator (Lite mode) build 49521"
   712  10A3                     __end_of_Bank0_RegAct:
   713                           opt subtitle "HI-TECH Software Omniscient Code Generator (Lite mode) build 49521"
   714                           
   715                           opt pagewidth 120
   716                           
   717                           	opt lm
   718                           
   719                           	processor	16LF707
   720                           clrc	macro
   721                           	bcf	3,0
   722                           	endm
   723                           clrz	macro
   724                           	bcf	3,2
   725                           	endm
   726                           setc	macro
   727                           	bsf	3,0
   728                           	endm
   729                           setz	macro
   730  001F                     _ADCON0bits	set	0x1F
   731                           opt subtitle "HI-TECH Software Omniscient Code Generator (Lite mode) build 49521"
   732  001E                     _ADRES	set	0x1E
   733                           opt subtitle "HI-TECH Software Omniscient Code Generator (Lite mode) build 49521"
   734  000C                     _PIR1bits	set	0xC
   735                           opt subtitle "HI-TECH Software Omniscient Code Generator (Lite mode) build 49521"
   736  0005                     _PORTAbits	set	0x5
   737                           opt subtitle "HI-TECH Software Omniscient Code Generator (Lite mode) build 49521"
   738  0006                     _PORTBbits	set	0x6
   739                           opt subtitle "HI-TECH Software Omniscient Code Generator (Lite mode) build 49521"
   740  0007                     _PORTCbits	set	0x7
   741                           opt subtitle "HI-TECH Software Omniscient Code Generator (Lite mode) build 49521"
   742  0008                     _PORTD	set	0x8
   743                           opt subtitle "HI-TECH Software Omniscient Code Generator (Lite mode) build 49521"
   744  0008                     _PORTDbits	set	0x8
   745                           opt subtitle "HI-TECH Software Omniscient Code Generator (Lite mode) build 49521"
   746  0009                     _PORTEbits	set	0x9
   747                           opt subtitle "HI-TECH Software Omniscient Code Generator (Lite mode) build 49521"
   748  001A                     _RCREG	set	0x1A
   749                           opt subtitle "HI-TECH Software Omniscient Code Generator (Lite mode) build 49521"
   750  0018                     _RCSTA	set	0x18
   751                           opt subtitle "HI-TECH Software Omniscient Code Generator (Lite mode) build 49521"
   752  0018                     _RCSTAbits	set	0x18
   753                           opt subtitle "HI-TECH Software Omniscient Code Generator (Lite mode) build 49521"
   754  0013                     _SSPBUF	set	0x13
   755                           opt subtitle "HI-TECH Software Omniscient Code Generator (Lite mode) build 49521"
   756  0014                     _SSPCONbits	set	0x14
   757                           opt subtitle "HI-TECH Software Omniscient Code Generator (Lite mode) build 49521"
   758  0010                     _T1CONbits	set	0x10
   759                           opt subtitle "HI-TECH Software Omniscient Code Generator (Lite mode) build 49521"
   760  000F                     _TMR1H	set	0xF
   761                           opt subtitle "HI-TECH Software Omniscient Code Generator (Lite mode) build 49521"
   762  000E                     _TMR1L	set	0xE
   763                           opt subtitle "HI-TECH Software Omniscient Code Generator (Lite mode) build 49521"
   764  0019                     _TXREG	set	0x19
   765                           opt subtitle "HI-TECH Software Omniscient Code Generator (Lite mode) build 49521"
   766  005F                     _GIE	set	0x5F
   767                           opt subtitle "HI-TECH Software Omniscient Code Generator (Lite mode) build 49521"
   768  005E                     _PEIE	set	0x5E
   769                           opt subtitle "HI-TECH Software Omniscient Code Generator (Lite mode) build 49521"
   770  0065                     _RCIF	set	0x65
   771                           opt subtitle "HI-TECH Software Omniscient Code Generator (Lite mode) build 49521"
   772  0060                     _TMR1IF	set	0x60
   773                           opt subtitle "HI-TECH Software Omniscient Code Generator (Lite mode) build 49521"
   774  0064                     _TXIF	set	0x64
   775                           opt subtitle "HI-TECH Software Omniscient Code Generator (Lite mode) build 49521"
   776  009F                     _ADCON1bits	set	0x9F
   777                           opt subtitle "HI-TECH Software Omniscient Code Generator (Lite mode) build 49521"
   778  009D                     _FVRCONbits	set	0x9D
   779                           opt subtitle "HI-TECH Software Omniscient Code Generator (Lite mode) build 49521"
   780  0090                     _OSCCONbits	set	0x90
   781                           opt subtitle "HI-TECH Software Omniscient Code Generator (Lite mode) build 49521"
   782  0099                     _SPBRG	set	0x99
   783                           opt subtitle "HI-TECH Software Omniscient Code Generator (Lite mode) build 49521"
   784  0094                     _SSPSTATbits	set	0x94
   785                           opt subtitle "HI-TECH Software Omniscient Code Generator (Lite mode) build 49521"
   786  008F                     _T1GCONbits	set	0x8F
   787                           opt subtitle "HI-TECH Software Omniscient Code Generator (Lite mode) build 49521"
   788  0085                     _TRISAbits	set	0x85
   789                           opt subtitle "HI-TECH Software Omniscient Code Generator (Lite mode) build 49521"
   790  0086                     _TRISBbits	set	0x86
   791                           opt subtitle "HI-TECH Software Omniscient Code Generator (Lite mode) build 49521"
   792  0087                     _TRISCbits	set	0x87
   793                           opt subtitle "HI-TECH Software Omniscient Code Generator (Lite mode) build 49521"
   794  0088                     _TRISDbits	set	0x88
   795                           opt subtitle "HI-TECH Software Omniscient Code Generator (Lite mode) build 49521"
   796  0089                     _TRISEbits	set	0x89
   797                           opt subtitle "HI-TECH Software Omniscient Code Generator (Lite mode) build 49521"
   798  0098                     _TXSTA	set	0x98
   799                           opt subtitle "HI-TECH Software Omniscient Code Generator (Lite mode) build 49521"
   800  0098                     _TXSTAbits	set	0x98
   801                           opt subtitle "HI-TECH Software Omniscient Code Generator (Lite mode) build 49521"
   802  0460                     _TMR1IE	set	0x460
   803                           opt subtitle "HI-TECH Software Omniscient Code Generator (Lite mode) build 49521"
   804  0113                     _DACCON0	set	0x113
   805                           opt subtitle "HI-TECH Software Omniscient Code Generator (Lite mode) build 49521"
   806  0114                     _DACCON1	set	0x114
   807                           opt subtitle "HI-TECH Software Omniscient Code Generator (Lite mode) build 49521"
   808  0185                     _ANSELAbits	set	0x185
   809                           opt subtitle "HI-TECH Software Omniscient Code Generator (Lite mode) build 49521"
   810  0186                     _ANSELBbits	set	0x186
   811                           opt subtitle "HI-TECH Software Omniscient Code Generator (Lite mode) build 49521"
   812  0187                     _ANSELCbits	set	0x187
   813                           opt subtitle "HI-TECH Software Omniscient Code Generator (Lite mode) build 49521"
   814  0188                     _ANSELDbits	set	0x188
   815                           opt subtitle "HI-TECH Software Omniscient Code Generator (Lite mode) build 49521"
   816  0189                     _ANSELEbits	set	0x189
   817                           opt subtitle "HI-TECH Software Omniscient Code Generator (Lite mode) build 49521"
   818  10A3                     __stringdata:
   819                           opt subtitle "HI-TECH Software Omniscient Code Generator (Lite mode) build 49521"
   820  10A3                     STR_4:	
   821  10A3  3456               	retlw	86	;'V'
   822  10A4  3473               	retlw	115	;'s'
   823  10A5  3474               	retlw	116	;'t'
   824  10A6  346F               	retlw	111	;'o'
   825  10A7  3472               	retlw	114	;'r'
   826  10A8  3461               	retlw	97	;'a'
   827  10A9  3467               	retlw	103	;'g'
   828  10AA  3465               	retlw	101	;'e'
   829  10AB  3420               	retlw	32	;' '
   830  10AC  344F               	retlw	79	;'O'
   831  10AD  344B               	retlw	75	;'K'
   832  10AE  3420               	retlw	32	;' '
   833  10AF  346F               	retlw	111	;'o'
   834  10B0  3472               	retlw	114	;'r'
   835  10B1  3420               	retlw	32	;' '
   836  10B2  346D               	retlw	109	;'m'
   837  10B3  3465               	retlw	101	;'e'
   838  10B4  3461               	retlw	97	;'a'
   839  10B5  3473               	retlw	115	;'s'
   840  10B6  3475               	retlw	117	;'u'
   841  10B7  3472               	retlw	114	;'r'
   842  10B8  3465               	retlw	101	;'e'
   843  10B9  3420               	retlw	32	;' '
   844  10BA  3473               	retlw	115	;'s'
   845  10BB  346B               	retlw	107	;'k'
   846  10BC  3469               	retlw	105	;'i'
   847  10BD  3470               	retlw	112	;'p'
   848  10BE  3470               	retlw	112	;'p'
   849  10BF  3465               	retlw	101	;'e'
   850  10C0  3464               	retlw	100	;'d'
   851  10C1  343A               	retlw	58	;':'
   852  10C2  3420               	retlw	32	;' '
   853  10C3  3425               	retlw	37	;'%'
   854  10C4  3464               	retlw	100	;'d'
   855  10C5  340D               	retlw	13
   856  10C6  340A               	retlw	10
   857  10C7  3400               	retlw	0
   858                           opt subtitle "HI-TECH Software Omniscient Code Generator (Lite mode) build 49521"
   859                           
   860  10C8                     STR_5:	
   861  10C8  3456               	retlw	86	;'V'
   862  10C9  3453               	retlw	83	;'S'
   863  10CA  3474               	retlw	116	;'t'
   864  10CB  346F               	retlw	111	;'o'
   865  10CC  3472               	retlw	114	;'r'
   866  10CD  3461               	retlw	97	;'a'
   867  10CE  3467               	retlw	103	;'g'
   868  10CF  3465               	retlw	101	;'e'
   869  10D0  343A               	retlw	58	;':'
   870  10D1  3420               	retlw	32	;' '
   871  10D2  3425               	retlw	37	;'%'
   872  10D3  3464               	retlw	100	;'d'
   873  10D4  3420               	retlw	32	;' '
   874  10D5  3420               	retlw	32	;' '
   875  10D6  343D               	retlw	61	;'='
   876  10D7  343E               	retlw	62	;'>'
   877  10D8  3420               	retlw	32	;' '
   878  10D9  346E               	retlw	110	;'n'
   879  10DA  346F               	retlw	111	;'o'
   880  10DB  3474               	retlw	116	;'t'
   881  10DC  3420               	retlw	32	;' '
   882  10DD  344F               	retlw	79	;'O'
   883  10DE  344B               	retlw	75	;'K'
   884  10DF  340D               	retlw	13
   885  10E0  340A               	retlw	10
   886  10E1  3400               	retlw	0
   887                           opt subtitle "HI-TECH Software Omniscient Code Generator (Lite mode) build 49521"
   888                           
   889  10E2                     STR_12:	
   890  10E2  344E               	retlw	78	;'N'
   891  10E3  346F               	retlw	111	;'o'
   892  10E4  3420               	retlw	32	;' '
   893  10E5  3464               	retlw	100	;'d'
   894  10E6  3461               	retlw	97	;'a'
   895  10E7  3474               	retlw	116	;'t'
   896  10E8  3461               	retlw	97	;'a'
   897  10E9  3420               	retlw	32	;' '
   898  10EA  3473               	retlw	115	;'s'
   899  10EB  3465               	retlw	101	;'e'
   900  10EC  346E               	retlw	110	;'n'
   901  10ED  3474               	retlw	116	;'t'
   902  10EE  343A               	retlw	58	;':'
   903  10EF  3420               	retlw	32	;' '
   904  10F0  3445               	retlw	69	;'E'
   905  10F1  3452               	retlw	82	;'R'
   906  10F2  3452               	retlw	82	;'R'
   907  10F3  344F               	retlw	79	;'O'
   908  10F4  3452               	retlw	82	;'R'
   909  10F5  3420               	retlw	32	;' '
   910  10F6  340D               	retlw	13
   911  10F7  340A               	retlw	10
   912  10F8  3420               	retlw	32	;' '
   913  10F9  3400               	retlw	0
   914                           opt subtitle "HI-TECH Software Omniscient Code Generator (Lite mode) build 49521"
   915                           
   916  10FA                     STR_3:	
   917  10FA  3456               	retlw	86	;'V'
   918  10FB  3473               	retlw	115	;'s'
   919  10FC  3474               	retlw	116	;'t'
   920  10FD  346F               	retlw	111	;'o'
   921  10FE  3472               	retlw	114	;'r'
   922  10FF  3461               	retlw	97	;'a'
   923  1100  3467               	retlw	103	;'g'
   924  1101  3465               	retlw	101	;'e'
   925  1102  3420               	retlw	32	;' '
   926  1103  3474               	retlw	116	;'t'
   927  1104  346F               	retlw	111	;'o'
   928  1105  346F               	retlw	111	;'o'
   929  1106  3420               	retlw	32	;' '
   930  1107  346C               	retlw	108	;'l'
   931  1108  346F               	retlw	111	;'o'
   932  1109  3477               	retlw	119	;'w'
   933  110A  343A               	retlw	58	;':'
   934  110B  3420               	retlw	32	;' '
   935  110C  3425               	retlw	37	;'%'
   936  110D  3464               	retlw	100	;'d'
   937  110E  340D               	retlw	13
   938  110F  340A               	retlw	10
   939  1110  3400               	retlw	0
   940                           opt subtitle "HI-TECH Software Omniscient Code Generator (Lite mode) build 49521"
   941                           
   942  1111                     STR_6:	
   943  1111  3453               	retlw	83	;'S'
   944  1112  346C               	retlw	108	;'l'
   945  1113  3465               	retlw	101	;'e'
   946  1114  3465               	retlw	101	;'e'
   947  1115  3470               	retlw	112	;'p'
   948  1116  3420               	retlw	32	;' '
   949  1117  3463               	retlw	99	;'c'
   950  1118  346F               	retlw	111	;'o'
   951  1119  3475               	retlw	117	;'u'
   952  111A  346E               	retlw	110	;'n'
   953  111B  3474               	retlw	116	;'t'
   954  111C  3465               	retlw	101	;'e'
   955  111D  3472               	retlw	114	;'r'
   956  111E  3420               	retlw	32	;' '
   957  111F  343D               	retlw	61	;'='
   958  1120  3420               	retlw	32	;' '
   959  1121  3425               	retlw	37	;'%'
   960  1122  3464               	retlw	100	;'d'
   961  1123  340D               	retlw	13
   962  1124  340A               	retlw	10
   963  1125  3400               	retlw	0
   964                           opt subtitle "HI-TECH Software Omniscient Code Generator (Lite mode) build 49521"
   965                           
   966  1126                     STR_2:	
   967  1126  3453               	retlw	83	;'S'
   968  1127  346C               	retlw	108	;'l'
   969  1128  3465               	retlw	101	;'e'
   970  1129  3465               	retlw	101	;'e'
   971  112A  3470               	retlw	112	;'p'
   972  112B  3420               	retlw	32	;' '
   973  112C  3463               	retlw	99	;'c'
   974  112D  346F               	retlw	111	;'o'
   975  112E  3475               	retlw	117	;'u'
   976  112F  346E               	retlw	110	;'n'
   977  1130  3474               	retlw	116	;'t'
   978  1131  3465               	retlw	101	;'e'
   979  1132  3472               	retlw	114	;'r'
   980  1133  343A               	retlw	58	;':'
   981  1134  3420               	retlw	32	;' '
   982  1135  3425               	retlw	37	;'%'
   983  1136  3458               	retlw	88	;'X'
   984  1137  340D               	retlw	13
   985  1138  340A               	retlw	10
   986  1139  3400               	retlw	0
   987                           opt subtitle "HI-TECH Software Omniscient Code Generator (Lite mode) build 49521"
   988                           
   989  113A                     STR_1:	
   990  113A  3445               	retlw	69	;'E'
   991  113B  3463               	retlw	99	;'c'
   992  113C  3463               	retlw	99	;'c'
   993  113D  346F               	retlw	111	;'o'
   994  113E  346D               	retlw	109	;'m'
   995  113F  3469               	retlw	105	;'i'
   996  1140  3420               	retlw	32	;' '
   997  1141  346E               	retlw	110	;'n'
   998  1142  3465               	retlw	101	;'e'
   999  1143  346C               	retlw	108	;'l'
  1000  1144  346C               	retlw	108	;'l'
  1001  1145  3427               	retlw	39	;'''
  1002  1146  3449               	retlw	73	;'I'
  1003  1147  3453               	retlw	83	;'S'
  1004  1148  3452               	retlw	82	;'R'
  1005  1149  3421               	retlw	33	;'!'
  1006  114A  340D               	retlw	13
  1007  114B  340A               	retlw	10
  1008  114C  3400               	retlw	0
  1009                           opt subtitle "HI-TECH Software Omniscient Code Generator (Lite mode) build 49521"
  1010                           
  1011  114D                     STR_7:	
  1012  114D  3453               	retlw	83	;'S'
  1013  114E  346C               	retlw	108	;'l'
  1014  114F  3465               	retlw	101	;'e'
  1015  1150  3465               	retlw	101	;'e'
  1016  1151  3470               	retlw	112	;'p'
  1017  1152  343A               	retlw	58	;':'
  1018  1153  3420               	retlw	32	;' '
  1019  1154  3425               	retlw	37	;'%'
  1020  1155  3464               	retlw	100	;'d'
  1021  1156  3420               	retlw	32	;' '
  1022  1157  346F               	retlw	111	;'o'
  1023  1158  346E               	retlw	110	;'n'
  1024  1159  3420               	retlw	32	;' '
  1025  115A  3425               	retlw	37	;'%'
  1026  115B  3464               	retlw	100	;'d'
  1027  115C  340D               	retlw	13
  1028  115D  340A               	retlw	10
  1029  115E  3400               	retlw	0
  1030                           opt subtitle "HI-TECH Software Omniscient Code Generator (Lite mode) build 49521"
  1031                           
  1032  115F                     STR_16:	
  1033  115F  3430               	retlw	48	;'0'
  1034  1160  3431               	retlw	49	;'1'
  1035  1161  3432               	retlw	50	;'2'
  1036  1162  3433               	retlw	51	;'3'
  1037  1163  3434               	retlw	52	;'4'
  1038  1164  3435               	retlw	53	;'5'
  1039  1165  3436               	retlw	54	;'6'
  1040  1166  3437               	retlw	55	;'7'
  1041  1167  3438               	retlw	56	;'8'
  1042  1168  3439               	retlw	57	;'9'
  1043  1169  3441               	retlw	65	;'A'
  1044  116A  3442               	retlw	66	;'B'
  1045  116B  3443               	retlw	67	;'C'
  1046  116C  3444               	retlw	68	;'D'
  1047  116D  3445               	retlw	69	;'E'
  1048  116E  3446               	retlw	70	;'F'
  1049  116F  3400               	retlw	0
  1050                           opt subtitle "HI-TECH Software Omniscient Code Generator (Lite mode) build 49521"
  1051                           
  1052  1170                     STR_11:	
  1053  1170  3444               	retlw	68	;'D'
  1054  1171  3461               	retlw	97	;'a'
  1055  1172  3474               	retlw	116	;'t'
  1056  1173  3461               	retlw	97	;'a'
  1057  1174  3420               	retlw	32	;' '
  1058  1175  3473               	retlw	115	;'s'
  1059  1176  3465               	retlw	101	;'e'
  1060  1177  346E               	retlw	110	;'n'
  1061  1178  3474               	retlw	116	;'t'
  1062  1179  343A               	retlw	58	;':'
  1063  117A  3420               	retlw	32	;' '
  1064  117B  344F               	retlw	79	;'O'
  1065  117C  344B               	retlw	75	;'K'
  1066  117D  3420               	retlw	32	;' '
  1067  117E  340D               	retlw	13
  1068  117F  340A               	retlw	10
  1069  1180  3400               	retlw	0
  1070                           opt subtitle "HI-TECH Software Omniscient Code Generator (Lite mode) build 49521"
  1071                           
  1072  1181                     STR_14:	
  1073  1181  3452               	retlw	82	;'R'
  1074  1182  3465               	retlw	101	;'e'
  1075  1183  3463               	retlw	99	;'c'
  1076  1184  3465               	retlw	101	;'e'
  1077  1185  3469               	retlw	105	;'i'
  1078  1186  3476               	retlw	118	;'v'
  1079  1187  3469               	retlw	105	;'i'
  1080  1188  346E               	retlw	110	;'n'
  1081  1189  3467               	retlw	103	;'g'
  1082  118A  343A               	retlw	58	;':'
  1083  118B  3420               	retlw	32	;' '
  1084  118C  3400               	retlw	0
  1085                           opt subtitle "HI-TECH Software Omniscient Code Generator (Lite mode) build 49521"
  1086                           
  1087  118D                     STR_8:	
  1088  118D  3453               	retlw	83	;'S'
  1089  118E  3465               	retlw	101	;'e'
  1090  118F  346E               	retlw	110	;'n'
  1091  1190  3464               	retlw	100	;'d'
  1092  1191  3469               	retlw	105	;'i'
  1093  1192  346E               	retlw	110	;'n'
  1094  1193  3467               	retlw	103	;'g'
  1095  1194  343A               	retlw	58	;':'
  1096  1195  3420               	retlw	32	;' '
  1097  1196  3400               	retlw	0
  1098                           opt subtitle "HI-TECH Software Omniscient Code Generator (Lite mode) build 49521"
  1099                           
  1100  1197                     STR_13:	
  1101  1197  340A               	retlw	10
  1102  1198  340D               	retlw	13
  1103  1199  340A               	retlw	10
  1104  119A  340D               	retlw	13
  1105  119B  3400               	retlw	0
  1106                           opt subtitle "HI-TECH Software Omniscient Code Generator (Lite mode) build 49521"
  1107                           
  1108  119C                     STR_9:	
  1109  119C  3425               	retlw	37	;'%'
  1110  119D  3458               	retlw	88	;'X'
  1111  119E  3400               	retlw	0
  1112                           opt subtitle "HI-TECH Software Omniscient Code Generator (Lite mode) build 49521"
  1113  1197                     STR_15	equ	STR_13+0
  1114  1199                     STR_10	equ	STR_13+2
  1115                           opt subtitle "HI-TECH Software Omniscient Code Generator (Lite mode) build 49521"
  1116  119F                     __end_of__stringdata:
  1117                           opt subtitle "HI-TECH Software Omniscient Code Generator (Lite mode) build 49521"
  1118                           
  1119  0000                     __CFG_PLLEN$ON equ 0x0
  1120                           opt subtitle "HI-TECH Software Omniscient Code Generator (Lite mode) build 49521"
  1121  0000                     __CFG_FOSC$INTOSC equ 0x0
  1122                           opt subtitle "HI-TECH Software Omniscient Code Generator (Lite mode) build 49521"
  1123  0000                     __CFG_MCLRE$ON equ 0x0
  1124                           opt subtitle "HI-TECH Software Omniscient Code Generator (Lite mode) build 49521"
  1125  0000                     __CFG_WDTE$OFF equ 0x0
  1126                           opt subtitle "HI-TECH Software Omniscient Code Generator (Lite mode) build 49521"
  1127  0000                     __CFG_CP$OFF equ 0x0
  1128                           opt subtitle "HI-TECH Software Omniscient Code Generator (Lite mode) build 49521"
  1129  0000                     __CFG_PWRTE$OFF equ 0x0
  1130                           opt subtitle "HI-TECH Software Omniscient Code Generator (Lite mode) build 49521"
  1131                           
  1132                           opt pagewidth 120
  1133                           
  1134  0ACE                     start_initialization:
  1135                           opt subtitle "HI-TECH Software Omniscient Code Generator (Lite mode) build 49521"
  1136                           
  1137  0ACE                     __initialization:
  1138                           opt subtitle "HI-TECH Software Omniscient Code Generator (Lite mode) build 49521"
  1139                           
  1140  02D8                     __pbitbssBANK0:
  1141  02D8                     _flag:
  1142  02D8                            ds      1
  1143                           opt subtitle "HI-TECH Software Omniscient Code Generator (Lite mode) build 49521"
  1144                           
  1145                           opt pagewidth 120
  1146  0057                     __pbssBANK0:
  1147  0057                     _charge_time:
  1148  0057                            ds      2
  1149                           opt subtitle "HI-TECH Software Omniscient Code Generator (Lite mode) build 49521"
  1150  0059                     _sleep_counter:
  1151  0059                            ds      1
  1152                           opt subtitle "HI-TECH Software Omniscient Code Generator (Lite mode) build 49521"
  1153  005A                     _tmr1Counter:
  1154  005A                            ds      1
  1155                           opt subtitle "HI-TECH Software Omniscient Code Generator (Lite mode) build 49521"
  1156                           
  1157                           opt pagewidth 120
  1158  0052                     __pdataBANK0:
  1159                           opt subtitle "HI-TECH Software Omniscient Code Generator (Lite mode) build 49521"
  1160                           
  1161  0052                     _charge_pulse:
  1162  0052                            ds      2
  1163                           opt subtitle "HI-TECH Software Omniscient Code Generator (Lite mode) build 49521"
  1164                           
  1165                           opt pagewidth 120
  1166                           
  1167  0054                     _dac_value:
  1168  0054                            ds      2
  1169                           opt subtitle "HI-TECH Software Omniscient Code Generator (Lite mode) build 49521"
  1170                           
  1171                           opt pagewidth 120
  1172                           
  1173  0056                     _tmr1Target:
  1174  0056                            ds      1
  1175                           opt subtitle "HI-TECH Software Omniscient Code Generator (Lite mode) build 49521"
  1176                           
  1177                           opt pagewidth 120
  1178  00DB                     __pbssBANK1:
  1179  00DB                     _timelapse_count:
  1180  00DB                            ds      2
  1181                           opt subtitle "HI-TECH Software Omniscient Code Generator (Lite mode) build 49521"
  1182  00DD                     _value:
  1183  00DD                            ds      2
  1184                           opt subtitle "HI-TECH Software Omniscient Code Generator (Lite mode) build 49521"
  1185  00DF                     _values:
  1186  00DF                            ds      2
  1187                           opt subtitle "HI-TECH Software Omniscient Code Generator (Lite mode) build 49521"
  1188  00E1                     _jumper_stat:
  1189  00E1                            ds      1
  1190                           opt subtitle "HI-TECH Software Omniscient Code Generator (Lite mode) build 49521"
  1191  00E2                     _sleep_count:
  1192  00E2                            ds      1
  1193                           opt subtitle "HI-TECH Software Omniscient Code Generator (Lite mode) build 49521"
  1194                           
  1195                           opt pagewidth 120
  1196  00E3                     __pdataBANK1:
  1197                           opt subtitle "HI-TECH Software Omniscient Code Generator (Lite mode) build 49521"
  1198                           
  1199  00E3                     _tx_buf:
  1200  00E3                            ds      8
  1201                           opt subtitle "HI-TECH Software Omniscient Code Generator (Lite mode) build 49521"
  1202                           
  1203                           opt pagewidth 120
  1204  0190                     __pbssBANK3:
  1205  0190                     _rx_buf:
  1206  0190                            ds      32
  1207                           opt subtitle "HI-TECH Software Omniscient Code Generator (Lite mode) build 49521"
  1208                           
  1209                           opt pagewidth 120
  1210                           
  1211                           	opt lm
  1212  087F                     clear_ram:
  1213  087F  0064               	clrwdt			;clear the watchdog before getting into this loop
  1214  0880                     clrloop:
  1215  0880  0180               	clrf	indf		;clear RAM location pointed to by FSR
  1216  0881  0A84               	incf	fsr,f		;increment pointer
  1217  0882  0604               	xorwf	fsr,w		;XOR with final address
  1218  0883  1903               	btfsc	status,2	;have we reached the end yet?
  1219  0884  3400               	retlw	0		;all done for this memory range, return
  1220  0885  0604               	xorwf	fsr,w		;XOR again to restore value
  1221  0886  2880               	goto	clrloop		;do the next byte
  1222                           opt subtitle "HI-TECH Software Omniscient Code Generator (Lite mode) build 49521"
  1223                           
  1224                           opt pagewidth 120
  1225  0ACE  01DB               	clrf	((__pbitbssBANK0/8)+0)&07Fh
  1226                           opt subtitle "HI-TECH Software Omniscient Code Generator (Lite mode) build 49521"
  1227                           
  1228  0ACF  01D7               	clrf	((__pbssBANK0)+0)&07Fh
  1229  0AD0  01D8               	clrf	((__pbssBANK0)+1)&07Fh
  1230  0AD1  01D9               	clrf	((__pbssBANK0)+2)&07Fh
  1231  0AD2  01DA               	clrf	((__pbssBANK0)+3)&07Fh
  1232                           opt subtitle "HI-TECH Software Omniscient Code Generator (Lite mode) build 49521"
  1233                           
  1234  0AD3  1383               	bcf	status, 7	;select IRP bank0
  1235  0AD4  30DB               	movlw	low(__pbssBANK1)
  1236  0AD5  0084               	movwf	fsr
  1237  0AD6  30E3               	movlw	low((__pbssBANK1)+08h)
  1238  0AD7  120A  158A  207F   	fcall	clear_ram
              120A  158A         
  1239                           opt subtitle "HI-TECH Software Omniscient Code Generator (Lite mode) build 49521"
  1240                           
  1241  0ADC  1783               	bsf	status, 7	;select IRP bank2
  1242  0ADD  3090               	movlw	low(__pbssBANK3)
  1243  0ADE  0084               	movwf	fsr
  1244  0ADF  30B0               	movlw	low((__pbssBANK3)+020h)
  1245  0AE0  120A  158A  207F   	fcall	clear_ram
              120A  158A         
  1246                           opt subtitle "HI-TECH Software Omniscient Code Generator (Lite mode) build 49521"
  1247                           
  1248                           opt pagewidth 120
  1249                           
  1250  08B1                     init_fetch:
  1251  08B1  087E               	movf btemp,w
  1252  08B2  008A               	movwf pclath
  1253  08B3  087F               	movf btemp+1,w
  1254  08B4  0082               	movwf pc
  1255                           opt subtitle "HI-TECH Software Omniscient Code Generator (Lite mode) build 49521"
  1256                           
  1257                           opt pagewidth 120
  1258                           
  1259                           	opt lm
  1260                           
  1261  08B5                     init_ram:
  1262  08B5  120A  158A  20B1   	fcall init_fetch
              120A  158A         
  1263  08BA  0080               	movwf indf,f
  1264  08BB  0A84               	incf fsr,f
  1265  08BC  0804               	movf fsr,w
  1266  08BD  067D               	xorwf btemp-1,w
  1267  08BE  1903               	btfsc status,2
  1268  08BF  3400               	retlw 0
  1269  08C0  0AFF               	incf btemp+1,f
  1270  08C1  1903               	btfsc status,2
  1271  08C2  0AFE               	incf btemp,f
  1272  08C3  28B5               	goto init_ram
  1273                           opt subtitle "HI-TECH Software Omniscient Code Generator (Lite mode) build 49521"
  1274                           
  1275                           opt pagewidth 120
  1276  0AE5  1383               	bcf	status, 7	;select IRP bank0
  1277  0AE6  30EB               	movlw low(__pdataBANK1+8)
  1278  0AE7  00FD               	movwf btemp-1,f
  1279  0AE8  3008               	movlw high(__pidataBANK1)
  1280  0AE9  00FE               	movwf btemp,f
  1281  0AEA  3087               	movlw low(__pidataBANK1)
  1282  0AEB  00FF               	movwf btemp+1,f
  1283  0AEC  30E3               	movlw low(__pdataBANK1)
  1284  0AED  0084               	movwf fsr,f
  1285  0AEE  120A  158A  20B5   	fcall init_ram
              120A  158A         
  1286                           opt subtitle "HI-TECH Software Omniscient Code Generator (Lite mode) build 49521"
  1287                           
  1288                           opt pagewidth 120
  1289  0AF3  3057               	movlw low(__pdataBANK0+5)
  1290  0AF4  00FD               	movwf btemp-1,f
  1291  0AF5  3008               	movlw high(__pidataBANK0)
  1292  0AF6  00FE               	movwf btemp,f
  1293  0AF7  307A               	movlw low(__pidataBANK0)
  1294  0AF8  00FF               	movwf btemp+1,f
  1295  0AF9  3052               	movlw low(__pdataBANK0)
  1296  0AFA  0084               	movwf fsr,f
  1297  0AFB  120A  158A  20B5   	fcall init_ram
              120A  158A         
  1298                           opt subtitle "HI-TECH Software Omniscient Code Generator (Lite mode) build 49521"
  1299                           
  1300                           opt pagewidth 120
  1301                           
  1302                           	opt lm
  1303  0B00                     end_of_initialization:
  1304  0B00                     __end_of__initialization:clrf status
      + 0B00  0183               	clrf	3
  1305  0B01  120A  118A  2B25   ljmp _main	;jump to C main() function
  1306                           opt subtitle "HI-TECH Software Omniscient Code Generator (Lite mode) build 49521"
  1307                           
  1308  00A0                     __pcstackBANK1:
  1309                           opt subtitle "HI-TECH Software Omniscient Code Generator (Lite mode) build 49521"
  1310  00A0                     printf@idx:	; 1 bytes @ 0x0
  1311  00A0                     	ds	1
  1312                           opt subtitle "HI-TECH Software Omniscient Code Generator (Lite mode) build 49521"
  1313  00A1                     printf@ap:	; 1 bytes @ 0x1
  1314  00A1                     	ds	1
  1315                           opt subtitle "HI-TECH Software Omniscient Code Generator (Lite mode) build 49521"
  1316  00A2                     printf@prec:	; 1 bytes @ 0x2
  1317  00A2                     	ds	1
  1318                           opt subtitle "HI-TECH Software Omniscient Code Generator (Lite mode) build 49521"
  1319  00A3                     printf@flag:	; 1 bytes @ 0x3
  1320  00A3                     	ds	1
  1321                           opt subtitle "HI-TECH Software Omniscient Code Generator (Lite mode) build 49521"
  1322  00A4                     printf@_val:	; 4 bytes @ 0x4
  1323  00A4                     	ds	4
  1324                           opt subtitle "HI-TECH Software Omniscient Code Generator (Lite mode) build 49521"
  1325  00A8                     printf@c:	; 1 bytes @ 0x8
  1326  00A8                     	ds	1
  1327                           opt subtitle "HI-TECH Software Omniscient Code Generator (Lite mode) build 49521"
  1328  00A9                     Send_Packet@type:	; 1 bytes @ 0x9
  1329  00A9                     	ds	1
  1330                           opt subtitle "HI-TECH Software Omniscient Code Generator (Lite mode) build 49521"
  1331  00AA                     Send_Packet@fifo_sta:	; 1 bytes @ 0xA
  1332  00AA                     	ds	1
  1333                           opt subtitle "HI-TECH Software Omniscient Code Generator (Lite mode) build 49521"
  1334  00AB                     Send_Packet@i:	; 1 bytes @ 0xB
  1335  00AB                     	ds	1
  1336  00AC                     ?_main:	; 2 bytes @ 0xC
  1337  00AC                     main@argc:	; 2 bytes @ 0xC
  1338  00AC                     	ds	2
  1339  00AE                     main@argv:	; 2 bytes @ 0xE
  1340  00AE                     	ds	2
  1341  00B0                     ??_main:	; 0 bytes @ 0x10
  1342  00B0                     	ds	4
  1343                           opt subtitle "HI-TECH Software Omniscient Code Generator (Lite mode) build 49521"
  1344  00B4                     main@temp_tx_buf:	; 32 bytes @ 0x14
  1345  00B4                     	ds	32
  1346                           opt subtitle "HI-TECH Software Omniscient Code Generator (Lite mode) build 49521"
  1347  00D4                     main@num_sleep:	; 1 bytes @ 0x34
  1348  00D4                     	ds	1
  1349                           opt subtitle "HI-TECH Software Omniscient Code Generator (Lite mode) build 49521"
  1350  00D5                     main@temp:	; 2 bytes @ 0x35
  1351  00D5                     	ds	2
  1352                           opt subtitle "HI-TECH Software Omniscient Code Generator (Lite mode) build 49521"
  1353  00D7                     main@i:	; 4 bytes @ 0x37
  1354  00D7                     	ds	4
  1355                           opt subtitle "HI-TECH Software Omniscient Code Generator (Lite mode) build 49521"
  1356                           
  1357  0070                     __pcstackCOMMON:
  1358  0070                     ?_spiInit:	; 0 bytes @ 0x0
  1359  0070                     ?_uartInit:	; 0 bytes @ 0x0
  1360  0070                     ?_adcInit:	; 0 bytes @ 0x0
  1361  0070                     ?_rfm70setPowerdownMode:	; 0 bytes @ 0x0
  1362  0070                     ?_RFM70_Initialize:	; 0 bytes @ 0x0
  1363  0070                     ?_sleep:	; 0 bytes @ 0x0
  1364  0070                     ?_SwitchToTxMode:	; 0 bytes @ 0x0
  1365  0070                     ?_SwitchToRxMode:	; 0 bytes @ 0x0
  1366  0070                     ?_ISR:	; 0 bytes @ 0x0
  1367  0070                     ?_putch:	; 0 bytes @ 0x0
  1368  0070                     ?_SwitchCFG:	; 0 bytes @ 0x0
  1369  0070                     ?i1_putch:	; 0 bytes @ 0x0
  1370  0070                     ??i1_putch:	; 0 bytes @ 0x0
  1371  0070                     ?_adcReadVcap:	; 1 bytes @ 0x0
  1372  0070                     ?_adcReadTemp:	; 1 bytes @ 0x0
  1373  0070                     ?_adcReadVsupercap:	; 1 bytes @ 0x0
  1374  0070                     ?_SPI_Read_Reg:	; 1 bytes @ 0x0
  1375  0070                     ?_rfm70TxDataSentInterrupt:	; 1 bytes @ 0x0
  1376  0070                     ?_rfm70TxDataSentErrorInterrupt:	; 1 bytes @ 0x0
  1377  0070                     ?_SPI_RW:	; 1 bytes @ 0x0
  1378                           opt subtitle "HI-TECH Software Omniscient Code Generator (Lite mode) build 49521"
  1379  0070                     ?i1___lwdiv:	; 2 bytes @ 0x0
  1380                           opt subtitle "HI-TECH Software Omniscient Code Generator (Lite mode) build 49521"
  1381  0070                     i1putch@c:	; 1 bytes @ 0x0
  1382                           opt subtitle "HI-TECH Software Omniscient Code Generator (Lite mode) build 49521"
  1383  0070                     i1___lwdiv@divisor:	; 2 bytes @ 0x0
  1384  0070                     	ds	2
  1385                           opt subtitle "HI-TECH Software Omniscient Code Generator (Lite mode) build 49521"
  1386  0072                     i1___lwdiv@dividend:	; 2 bytes @ 0x2
  1387  0072                     	ds	2
  1388  0074                     ??i1___lwdiv:	; 0 bytes @ 0x4
  1389  0074                     	ds	1
  1390                           opt subtitle "HI-TECH Software Omniscient Code Generator (Lite mode) build 49521"
  1391  0075                     i1___lwdiv@counter:	; 1 bytes @ 0x5
  1392  0075                     	ds	1
  1393                           opt subtitle "HI-TECH Software Omniscient Code Generator (Lite mode) build 49521"
  1394  0076                     i1___lwdiv@quotient:	; 2 bytes @ 0x6
  1395  0076                     	ds	2
  1396                           opt subtitle "HI-TECH Software Omniscient Code Generator (Lite mode) build 49521"
  1397  0078                     ?i1___lwmod:	; 2 bytes @ 0x8
  1398                           opt subtitle "HI-TECH Software Omniscient Code Generator (Lite mode) build 49521"
  1399  0078                     i1___lwmod@divisor:	; 2 bytes @ 0x8
  1400  0078                     	ds	2
  1401                           opt subtitle "HI-TECH Software Omniscient Code Generator (Lite mode) build 49521"
  1402  007A                     i1___lwmod@dividend:	; 2 bytes @ 0xA
  1403  007A                     	ds	2
  1404  007C                     ??i1___lwmod:	; 0 bytes @ 0xC
  1405  007C                     	ds	1
  1406                           opt subtitle "HI-TECH Software Omniscient Code Generator (Lite mode) build 49521"
  1407  007D                     i1___lwmod@counter:	; 1 bytes @ 0xD
  1408  007D                     	ds	1
  1409                           opt subtitle "HI-TECH Software Omniscient Code Generator (Lite mode) build 49521"
  1410                           
  1411  0020                     __pcstackBANK0:
  1412                           opt subtitle "HI-TECH Software Omniscient Code Generator (Lite mode) build 49521"
  1413  0020                     ?i1_printf:	; 2 bytes @ 0x0
  1414                           opt subtitle "HI-TECH Software Omniscient Code Generator (Lite mode) build 49521"
  1415  0020                     i1printf@f:	; 2 bytes @ 0x0
  1416  0020                     	ds	2
  1417  0022                     ??i1_printf:	; 0 bytes @ 0x2
  1418  0022                     	ds	3
  1419                           opt subtitle "HI-TECH Software Omniscient Code Generator (Lite mode) build 49521"
  1420  0025                     i1printf@idx:	; 1 bytes @ 0x5
  1421  0025                     	ds	1
  1422                           opt subtitle "HI-TECH Software Omniscient Code Generator (Lite mode) build 49521"
  1423  0026                     i1printf@ap:	; 1 bytes @ 0x6
  1424  0026                     	ds	1
  1425                           opt subtitle "HI-TECH Software Omniscient Code Generator (Lite mode) build 49521"
  1426  0027                     i1printf@prec:	; 1 bytes @ 0x7
  1427  0027                     	ds	1
  1428                           opt subtitle "HI-TECH Software Omniscient Code Generator (Lite mode) build 49521"
  1429  0028                     i1printf@flag:	; 1 bytes @ 0x8
  1430  0028                     	ds	1
  1431                           opt subtitle "HI-TECH Software Omniscient Code Generator (Lite mode) build 49521"
  1432  0029                     i1printf@_val:	; 4 bytes @ 0x9
  1433  0029                     	ds	4
  1434                           opt subtitle "HI-TECH Software Omniscient Code Generator (Lite mode) build 49521"
  1435  002D                     i1printf@c:	; 1 bytes @ 0xD
  1436  002D                     	ds	1
  1437  002E                     ??_ISR:	; 0 bytes @ 0xE
  1438  002E                     	ds	6
  1439  0034                     ??_spiInit:	; 0 bytes @ 0x14
  1440  0034                     ??_uartInit:	; 0 bytes @ 0x14
  1441  0034                     ??_adcInit:	; 0 bytes @ 0x14
  1442  0034                     ??_adcReadVcap:	; 0 bytes @ 0x14
  1443  0034                     ??_adcReadTemp:	; 0 bytes @ 0x14
  1444  0034                     ??_adcReadVsupercap:	; 0 bytes @ 0x14
  1445  0034                     ??_putch:	; 0 bytes @ 0x14
  1446  0034                     ??_SPI_RW:	; 0 bytes @ 0x14
  1447                           opt subtitle "HI-TECH Software Omniscient Code Generator (Lite mode) build 49521"
  1448  0034                     ?___wmul:	; 2 bytes @ 0x14
  1449                           opt subtitle "HI-TECH Software Omniscient Code Generator (Lite mode) build 49521"
  1450  0034                     ?___lwdiv:	; 2 bytes @ 0x14
  1451                           opt subtitle "HI-TECH Software Omniscient Code Generator (Lite mode) build 49521"
  1452  0034                     putch@c:	; 1 bytes @ 0x14
  1453                           opt subtitle "HI-TECH Software Omniscient Code Generator (Lite mode) build 49521"
  1454  0034                     ___wmul@multiplier:	; 2 bytes @ 0x14
  1455                           opt subtitle "HI-TECH Software Omniscient Code Generator (Lite mode) build 49521"
  1456  0034                     ___lwdiv@divisor:	; 2 bytes @ 0x14
  1457  0034                     	ds	2
  1458                           opt subtitle "HI-TECH Software Omniscient Code Generator (Lite mode) build 49521"
  1459  0036                     adcReadTemp@value:	; 1 bytes @ 0x16
  1460                           opt subtitle "HI-TECH Software Omniscient Code Generator (Lite mode) build 49521"
  1461  0036                     adcReadVcap@value:	; 1 bytes @ 0x16
  1462                           opt subtitle "HI-TECH Software Omniscient Code Generator (Lite mode) build 49521"
  1463  0036                     adcReadVsupercap@value:	; 1 bytes @ 0x16
  1464                           opt subtitle "HI-TECH Software Omniscient Code Generator (Lite mode) build 49521"
  1465  0036                     SPI_RW@value:	; 1 bytes @ 0x16
  1466                           opt subtitle "HI-TECH Software Omniscient Code Generator (Lite mode) build 49521"
  1467  0036                     ___wmul@multiplicand:	; 2 bytes @ 0x16
  1468                           opt subtitle "HI-TECH Software Omniscient Code Generator (Lite mode) build 49521"
  1469  0036                     ___lwdiv@dividend:	; 2 bytes @ 0x16
  1470  0036                     	ds	1
  1471  0037                     ??_sleep:	; 0 bytes @ 0x17
  1472  0037                     ??_SPI_Read_Reg:	; 0 bytes @ 0x17
  1473                           opt subtitle "HI-TECH Software Omniscient Code Generator (Lite mode) build 49521"
  1474  0037                     ?_SPI_Write_Buf:	; 0 bytes @ 0x17
  1475                           opt subtitle "HI-TECH Software Omniscient Code Generator (Lite mode) build 49521"
  1476  0037                     ?_SPI_Write_Reg:	; 0 bytes @ 0x17
  1477                           opt subtitle "HI-TECH Software Omniscient Code Generator (Lite mode) build 49521"
  1478  0037                     SPI_Write_Reg@value:	; 1 bytes @ 0x17
  1479                           opt subtitle "HI-TECH Software Omniscient Code Generator (Lite mode) build 49521"
  1480  0037                     SPI_Write_Buf@pBuf:	; 1 bytes @ 0x17
  1481  0037                     	ds	1
  1482  0038                     ??_SPI_Write_Reg:	; 0 bytes @ 0x18
  1483  0038                     ??___wmul:	; 0 bytes @ 0x18
  1484  0038                     ??___lwdiv:	; 0 bytes @ 0x18
  1485                           opt subtitle "HI-TECH Software Omniscient Code Generator (Lite mode) build 49521"
  1486  0038                     SPI_Write_Reg@reg:	; 1 bytes @ 0x18
  1487                           opt subtitle "HI-TECH Software Omniscient Code Generator (Lite mode) build 49521"
  1488  0038                     SPI_Read_Reg@reg:	; 1 bytes @ 0x18
  1489                           opt subtitle "HI-TECH Software Omniscient Code Generator (Lite mode) build 49521"
  1490  0038                     SPI_Write_Buf@length:	; 1 bytes @ 0x18
  1491                           opt subtitle "HI-TECH Software Omniscient Code Generator (Lite mode) build 49521"
  1492  0038                     ___wmul@product:	; 2 bytes @ 0x18
  1493  0038                     	ds	1
  1494  0039                     ??_SPI_Write_Buf:	; 0 bytes @ 0x19
  1495                           opt subtitle "HI-TECH Software Omniscient Code Generator (Lite mode) build 49521"
  1496  0039                     sleep@new_value:	; 1 bytes @ 0x19
  1497                           opt subtitle "HI-TECH Software Omniscient Code Generator (Lite mode) build 49521"
  1498  0039                     SPI_Read_Reg@value:	; 1 bytes @ 0x19
  1499                           opt subtitle "HI-TECH Software Omniscient Code Generator (Lite mode) build 49521"
  1500  0039                     ___lwdiv@counter:	; 1 bytes @ 0x19
  1501  0039                     	ds	1
  1502  003A                     ??_rfm70setPowerdownMode:	; 0 bytes @ 0x1A
  1503  003A                     ??_SwitchToTxMode:	; 0 bytes @ 0x1A
  1504  003A                     ??_rfm70TxDataSentInterrupt:	; 0 bytes @ 0x1A
  1505  003A                     ??_SwitchToRxMode:	; 0 bytes @ 0x1A
  1506  003A                     ??_rfm70TxDataSentErrorInterrupt:	; 0 bytes @ 0x1A
  1507  003A                     ??_SwitchCFG:	; 0 bytes @ 0x1A
  1508                           opt subtitle "HI-TECH Software Omniscient Code Generator (Lite mode) build 49521"
  1509  003A                     SPI_Write_Buf@reg:	; 1 bytes @ 0x1A
  1510                           opt subtitle "HI-TECH Software Omniscient Code Generator (Lite mode) build 49521"
  1511  003A                     ___lwdiv@quotient:	; 2 bytes @ 0x1A
  1512  003A                     	ds	1
  1513                           opt subtitle "HI-TECH Software Omniscient Code Generator (Lite mode) build 49521"
  1514  003B                     SPI_Write_Buf@byte_ctr:	; 1 bytes @ 0x1B
  1515                           opt subtitle "HI-TECH Software Omniscient Code Generator (Lite mode) build 49521"
  1516  003B                     SwitchToRxMode@value:	; 1 bytes @ 0x1B
  1517                           opt subtitle "HI-TECH Software Omniscient Code Generator (Lite mode) build 49521"
  1518  003B                     SwitchToTxMode@value:	; 1 bytes @ 0x1B
  1519                           opt subtitle "HI-TECH Software Omniscient Code Generator (Lite mode) build 49521"
  1520  003B                     SwitchCFG@_cfg:	; 1 bytes @ 0x1B
  1521                           opt subtitle "HI-TECH Software Omniscient Code Generator (Lite mode) build 49521"
  1522  003B                     rfm70setPowerdownMode@value:	; 1 bytes @ 0x1B
  1523  003B                     	ds	1
  1524                           opt subtitle "HI-TECH Software Omniscient Code Generator (Lite mode) build 49521"
  1525  003C                     ?___lwmod:	; 2 bytes @ 0x1C
  1526                           opt subtitle "HI-TECH Software Omniscient Code Generator (Lite mode) build 49521"
  1527  003C                     SwitchCFG@Tmp:	; 1 bytes @ 0x1C
  1528                           opt subtitle "HI-TECH Software Omniscient Code Generator (Lite mode) build 49521"
  1529  003C                     rfm70setPowerdownMode@reg:	; 1 bytes @ 0x1C
  1530                           opt subtitle "HI-TECH Software Omniscient Code Generator (Lite mode) build 49521"
  1531  003C                     ___lwmod@divisor:	; 2 bytes @ 0x1C
  1532  003C                     	ds	1
  1533  003D                     ??_RFM70_Initialize:	; 0 bytes @ 0x1D
  1534  003D                     	ds	1
  1535                           opt subtitle "HI-TECH Software Omniscient Code Generator (Lite mode) build 49521"
  1536  003E                     ___lwmod@dividend:	; 2 bytes @ 0x1E
  1537  003E                     	ds	2
  1538  0040                     ??___lwmod:	; 0 bytes @ 0x20
  1539  0040                     	ds	1
  1540                           opt subtitle "HI-TECH Software Omniscient Code Generator (Lite mode) build 49521"
  1541  0041                     ___lwmod@counter:	; 1 bytes @ 0x21
  1542  0041                     	ds	1
  1543                           opt subtitle "HI-TECH Software Omniscient Code Generator (Lite mode) build 49521"
  1544  0042                     ?_printf:	; 2 bytes @ 0x22
  1545                           opt subtitle "HI-TECH Software Omniscient Code Generator (Lite mode) build 49521"
  1546  0042                     printf@f:	; 2 bytes @ 0x22
  1547  0042                     	ds	2
  1548                           opt subtitle "HI-TECH Software Omniscient Code Generator (Lite mode) build 49521"
  1549  0044                     RFM70_Initialize@WriteArr:	; 12 bytes @ 0x24
  1550  0044                     	ds	4
  1551  0048                     ??_printf:	; 0 bytes @ 0x28
  1552  0048                     	ds	3
  1553                           opt subtitle "HI-TECH Software Omniscient Code Generator (Lite mode) build 49521"
  1554  004B                     ?_Send_Packet:	; 0 bytes @ 0x2B
  1555                           opt subtitle "HI-TECH Software Omniscient Code Generator (Lite mode) build 49521"
  1556  004B                     Send_Packet@pbuf:	; 1 bytes @ 0x2B
  1557  004B                     	ds	1
  1558                           opt subtitle "HI-TECH Software Omniscient Code Generator (Lite mode) build 49521"
  1559  004C                     Send_Packet@len:	; 1 bytes @ 0x2C
  1560  004C                     	ds	1
  1561  004D                     ??_Send_Packet:	; 0 bytes @ 0x2D
  1562  004D                     	ds	3
  1563                           opt subtitle "HI-TECH Software Omniscient Code Generator (Lite mode) build 49521"
  1564  0050                     RFM70_Initialize@i:	; 1 bytes @ 0x30
  1565  0050                     	ds	1
  1566                           opt subtitle "HI-TECH Software Omniscient Code Generator (Lite mode) build 49521"
  1567  0051                     RFM70_Initialize@j:	; 1 bytes @ 0x31
  1568  0051                     	ds	1
  1569                           opt subtitle "HI-TECH Software Omniscient Code Generator (Lite mode) build 49521"
  1570                           
  1571                           opt pagewidth 120
  1572                           
  1573                           	opt lm
  1574                           
  1575                           	processor	16LF707
  1576                           clrc	macro
  1577                           	bcf	3,0
  1578                           	endm
  1579                           clrz	macro
  1580                           	bcf	3,2
  1581                           	endm
  1582                           setc	macro
  1583                           	bsf	3,0
  1584                           	endm
  1585                           setz	macro
  1586                           	bsf	3,2
  1587                           	endm
  1588                           skipc	macro
  1589                           	btfss	3,0
  1590                           	endm
  1591                           skipz	macro
  1592                           	btfss	3,2
  1593                           	endm
  1594                           skipnc	macro
  1595                           	btfsc	3,0
  1596                           	endm
  1597                           skipnz	macro
  1598                           	btfsc	3,2
  1599                           	endm
  1600                           indf	equ	0
  1601                           indf0	equ	0
  1602                           pc	equ	2
  1603                           pcl	equ	2
  1604                           status	equ	3
  1605                           fsr	equ	4
  1606                           fsr0	equ	4
  1607                           c	equ	1
  1608                           z	equ	0
  1609                           pclath	equ	10
  1610                           # 46 "/Applications/microchip/xc8/v1.12/include/pic16lf707.h"
  1611                           INDF equ 00h ;# 
  1612                           # 52 "/Applications/microchip/xc8/v1.12/include/pic16lf707.h"
  1613                           TMR0 equ 01h ;# 
  1614                           # 58 "/Applications/microchip/xc8/v1.12/include/pic16lf707.h"
  1615                           PCL equ 02h ;# 
  1616                           # 64 "/Applications/microchip/xc8/v1.12/include/pic16lf707.h"
  1617                           STATUS equ 03h ;# 
  1618                           # 151 "/Applications/microchip/xc8/v1.12/include/pic16lf707.h"
  1619                           FSR equ 04h ;# 
  1620                           # 157 "/Applications/microchip/xc8/v1.12/include/pic16lf707.h"
  1621                           PORTA equ 05h ;# 
  1622                           # 346 "/Applications/microchip/xc8/v1.12/include/pic16lf707.h"
  1623                           PORTB equ 06h ;# 
  1624                           # 520 "/Applications/microchip/xc8/v1.12/include/pic16lf707.h"
  1625                           PORTC equ 07h ;# 
  1626                           # 715 "/Applications/microchip/xc8/v1.12/include/pic16lf707.h"
  1627                           PORTD equ 08h ;# 
  1628                           # 834 "/Applications/microchip/xc8/v1.12/include/pic16lf707.h"
  1629                           PORTE equ 09h ;# 
  1630                           # 917 "/Applications/microchip/xc8/v1.12/include/pic16lf707.h"
  1631                           PCLATH equ 0Ah ;# 
  1632                           # 936 "/Applications/microchip/xc8/v1.12/include/pic16lf707.h"
  1633                           INTCON equ 0Bh ;# 
  1634                           # 1013 "/Applications/microchip/xc8/v1.12/include/pic16lf707.h"
  1635                           PIR1 equ 0Ch ;# 
  1636                           # 1074 "/Applications/microchip/xc8/v1.12/include/pic16lf707.h"
  1637                           PIR2 equ 0Dh ;# 
  1638                           # 1118 "/Applications/microchip/xc8/v1.12/include/pic16lf707.h"
  1639                           TMR1 equ 0Eh ;# 
  1640                           # 1124 "/Applications/microchip/xc8/v1.12/include/pic16lf707.h"
  1641                           TMR1L equ 0Eh ;# 
  1642                           # 1130 "/Applications/microchip/xc8/v1.12/include/pic16lf707.h"
  1643                           TMR1H equ 0Fh ;# 
  1644                           # 1136 "/Applications/microchip/xc8/v1.12/include/pic16lf707.h"
  1645                           T1CON equ 010h ;# 
  1646                           # 1214 "/Applications/microchip/xc8/v1.12/include/pic16lf707.h"
  1647                           TMR2 equ 011h ;# 
  1648                           # 1220 "/Applications/microchip/xc8/v1.12/include/pic16lf707.h"
  1649                           T2CON equ 012h ;# 
  1650                           # 1290 "/Applications/microchip/xc8/v1.12/include/pic16lf707.h"
  1651                           SSPBUF equ 013h ;# 
  1652                           # 1296 "/Applications/microchip/xc8/v1.12/include/pic16lf707.h"
  1653                           SSPCON equ 014h ;# 
  1654                           # 1365 "/Applications/microchip/xc8/v1.12/include/pic16lf707.h"
  1655                           CCPR1 equ 015h ;# 
  1656                           # 1371 "/Applications/microchip/xc8/v1.12/include/pic16lf707.h"
  1657                           CCPR1L equ 015h ;# 
  1658                           # 1377 "/Applications/microchip/xc8/v1.12/include/pic16lf707.h"
  1659                           CCPR1H equ 016h ;# 
  1660                           # 1383 "/Applications/microchip/xc8/v1.12/include/pic16lf707.h"
  1661                           CCP1CON equ 017h ;# 
  1662                           # 1446 "/Applications/microchip/xc8/v1.12/include/pic16lf707.h"
  1663                           RCSTA equ 018h ;# 
  1664                           # 1507 "/Applications/microchip/xc8/v1.12/include/pic16lf707.h"
  1665                           TXREG equ 019h ;# 
  1666                           # 1513 "/Applications/microchip/xc8/v1.12/include/pic16lf707.h"
  1667                           RCREG equ 01Ah ;# 
  1668                           # 1519 "/Applications/microchip/xc8/v1.12/include/pic16lf707.h"
  1669                           CCPR2 equ 01Bh ;# 
  1670                           # 1525 "/Applications/microchip/xc8/v1.12/include/pic16lf707.h"
  1671                           CCPR2L equ 01Bh ;# 
  1672                           # 1531 "/Applications/microchip/xc8/v1.12/include/pic16lf707.h"
  1673                           CCPR2H equ 01Ch ;# 
  1674                           # 1537 "/Applications/microchip/xc8/v1.12/include/pic16lf707.h"
  1675                           CCP2CON equ 01Dh ;# 
  1676                           # 1600 "/Applications/microchip/xc8/v1.12/include/pic16lf707.h"
  1677                           ADRES equ 01Eh ;# 
  1678                           # 1606 "/Applications/microchip/xc8/v1.12/include/pic16lf707.h"
  1679                           ADCON0 equ 01Fh ;# 
  1680                           # 1664 "/Applications/microchip/xc8/v1.12/include/pic16lf707.h"
  1681                           OPTION_REG equ 081h ;# 
  1682                           # 1746 "/Applications/microchip/xc8/v1.12/include/pic16lf707.h"
  1683                           TRISA equ 085h ;# 
  1684                           # 1807 "/Applications/microchip/xc8/v1.12/include/pic16lf707.h"
  1685                           TRISB equ 086h ;# 
  1686                           # 1868 "/Applications/microchip/xc8/v1.12/include/pic16lf707.h"
  1687                           TRISC equ 087h ;# 
  1688                           # 1929 "/Applications/microchip/xc8/v1.12/include/pic16lf707.h"
  1689                           TRISD equ 088h ;# 
  1690                           # 1990 "/Applications/microchip/xc8/v1.12/include/pic16lf707.h"
  1691                           TRISE equ 089h ;# 
  1692                           # 2027 "/Applications/microchip/xc8/v1.12/include/pic16lf707.h"
  1693                           PIE1 equ 08Ch ;# 
  1694                           # 2088 "/Applications/microchip/xc8/v1.12/include/pic16lf707.h"
  1695                           PIE2 equ 08Dh ;# 
  1696                           # 2132 "/Applications/microchip/xc8/v1.12/include/pic16lf707.h"
  1697                           PCON equ 08Eh ;# 
  1698                           # 2157 "/Applications/microchip/xc8/v1.12/include/pic16lf707.h"
  1699                           T1GCON equ 08Fh ;# 
  1700                           # 2226 "/Applications/microchip/xc8/v1.12/include/pic16lf707.h"
  1701                           OSCCON equ 090h ;# 
  1702                           # 2273 "/Applications/microchip/xc8/v1.12/include/pic16lf707.h"
  1703                           OSCTUNE equ 091h ;# 
  1704                           # 2292 "/Applications/microchip/xc8/v1.12/include/pic16lf707.h"
  1705                           PR2 equ 092h ;# 
  1706                           # 2298 "/Applications/microchip/xc8/v1.12/include/pic16lf707.h"
  1707                           SSPADD equ 093h ;# 
  1708                           # 2317 "/Applications/microchip/xc8/v1.12/include/pic16lf707.h"
  1709                           SSPMSK equ 093h ;# 
  1710                           # 2336 "/Applications/microchip/xc8/v1.12/include/pic16lf707.h"
  1711                           SSPSTAT equ 094h ;# 
  1712                           # 2397 "/Applications/microchip/xc8/v1.12/include/pic16lf707.h"
  1713                           WPUB equ 095h ;# 
  1714                           # 2458 "/Applications/microchip/xc8/v1.12/include/pic16lf707.h"
  1715                           IOCB equ 096h ;# 
  1716                           # 2519 "/Applications/microchip/xc8/v1.12/include/pic16lf707.h"
  1717                           T3CON equ 097h ;# 
  1718                           # 2585 "/Applications/microchip/xc8/v1.12/include/pic16lf707.h"
  1719                           TXSTA equ 098h ;# 
  1720                           # 2641 "/Applications/microchip/xc8/v1.12/include/pic16lf707.h"
  1721                           SPBRG equ 099h ;# 
  1722                           # 2647 "/Applications/microchip/xc8/v1.12/include/pic16lf707.h"
  1723                           TMR3 equ 09Ah ;# 
  1724                           # 2653 "/Applications/microchip/xc8/v1.12/include/pic16lf707.h"
  1725                           TMR3L equ 09Ah ;# 
  1726                           # 2659 "/Applications/microchip/xc8/v1.12/include/pic16lf707.h"
  1727                           TMR3H equ 09Bh ;# 
  1728                           # 2665 "/Applications/microchip/xc8/v1.12/include/pic16lf707.h"
  1729                           APFCON equ 09Ch ;# 
  1730                           # 2690 "/Applications/microchip/xc8/v1.12/include/pic16lf707.h"
  1731                           FVRCON equ 09Dh ;# 
  1732                           # 2755 "/Applications/microchip/xc8/v1.12/include/pic16lf707.h"
  1733                           T3GCON equ 09Eh ;# 
  1734                           # 2824 "/Applications/microchip/xc8/v1.12/include/pic16lf707.h"
  1735                           ADCON1 equ 09Fh ;# 
  1736                           # 2883 "/Applications/microchip/xc8/v1.12/include/pic16lf707.h"
  1737                           TACON equ 0105h ;# 
  1738                           # 2993 "/Applications/microchip/xc8/v1.12/include/pic16lf707.h"
  1739                           CPSBCON0 equ 0106h ;# 
  1740                           # 3052 "/Applications/microchip/xc8/v1.12/include/pic16lf707.h"
  1741                           CPSBCON1 equ 0107h ;# 
  1742                           # 3097 "/Applications/microchip/xc8/v1.12/include/pic16lf707.h"
  1743                           CPSACON0 equ 0108h ;# 
  1744                           # 3156 "/Applications/microchip/xc8/v1.12/include/pic16lf707.h"
  1745                           CPSACON1 equ 0109h ;# 
  1746                           # 3201 "/Applications/microchip/xc8/v1.12/include/pic16lf707.h"
  1747                           PMDATL equ 010Ch ;# 
  1748                           # 3207 "/Applications/microchip/xc8/v1.12/include/pic16lf707.h"
  1749                           PMADRL equ 010Dh ;# 
  1750                           # 3213 "/Applications/microchip/xc8/v1.12/include/pic16lf707.h"
  1751                           PMDATH equ 010Eh ;# 
  1752                           # 3219 "/Applications/microchip/xc8/v1.12/include/pic16lf707.h"
  1753                           PMADRH equ 010Fh ;# 
  1754                           # 3225 "/Applications/microchip/xc8/v1.12/include/pic16lf707.h"
  1755                           TMRA equ 0110h ;# 
  1756                           # 3231 "/Applications/microchip/xc8/v1.12/include/pic16lf707.h"
  1757                           TBCON equ 0111h ;# 
  1758                           # 3341 "/Applications/microchip/xc8/v1.12/include/pic16lf707.h"
  1759                           TMRB equ 0112h ;# 
  1760                           # 3347 "/Applications/microchip/xc8/v1.12/include/pic16lf707.h"
  1761                           DACCON0 equ 0113h ;# 
  1762                           # 3401 "/Applications/microchip/xc8/v1.12/include/pic16lf707.h"
  1763                           DACCON1 equ 0114h ;# 
  1764                           # 3452 "/Applications/microchip/xc8/v1.12/include/pic16lf707.h"
  1765                           ANSELA equ 0185h ;# 
  1766                           # 3521 "/Applications/microchip/xc8/v1.12/include/pic16lf707.h"
  1767                           ANSELB equ 0186h ;# 
  1768                           # 3590 "/Applications/microchip/xc8/v1.12/include/pic16lf707.h"
  1769                           ANSELC equ 0187h ;# 
  1770                           # 3648 "/Applications/microchip/xc8/v1.12/include/pic16lf707.h"
  1771                           ANSELD equ 0188h ;# 
  1772                           # 3717 "/Applications/microchip/xc8/v1.12/include/pic16lf707.h"
  1773                           ANSELE equ 0189h ;# 
  1774                           # 3756 "/Applications/microchip/xc8/v1.12/include/pic16lf707.h"
  1775                           PMCON1 equ 018Ch ;# 
  1776                           # 46 "/Applications/microchip/xc8/v1.12/include/pic16lf707.h"
  1777                           INDF equ 00h ;# 
  1778                           # 52 "/Applications/microchip/xc8/v1.12/include/pic16lf707.h"
  1779                           TMR0 equ 01h ;# 
  1780                           # 58 "/Applications/microchip/xc8/v1.12/include/pic16lf707.h"
  1781                           PCL equ 02h ;# 
  1782                           # 64 "/Applications/microchip/xc8/v1.12/include/pic16lf707.h"
  1783                           STATUS equ 03h ;# 
  1784                           # 151 "/Applications/microchip/xc8/v1.12/include/pic16lf707.h"
  1785                           FSR equ 04h ;# 
  1786                           # 157 "/Applications/microchip/xc8/v1.12/include/pic16lf707.h"
  1787                           PORTA equ 05h ;# 
  1788                           # 346 "/Applications/microchip/xc8/v1.12/include/pic16lf707.h"
  1789                           PORTB equ 06h ;# 
  1790                           # 520 "/Applications/microchip/xc8/v1.12/include/pic16lf707.h"
  1791                           PORTC equ 07h ;# 
  1792                           # 715 "/Applications/microchip/xc8/v1.12/include/pic16lf707.h"
  1793                           PORTD equ 08h ;# 
  1794                           # 834 "/Applications/microchip/xc8/v1.12/include/pic16lf707.h"
  1795                           PORTE equ 09h ;# 
  1796                           # 917 "/Applications/microchip/xc8/v1.12/include/pic16lf707.h"
  1797                           PCLATH equ 0Ah ;# 
  1798                           # 936 "/Applications/microchip/xc8/v1.12/include/pic16lf707.h"
  1799                           INTCON equ 0Bh ;# 
  1800                           # 1013 "/Applications/microchip/xc8/v1.12/include/pic16lf707.h"
  1801                           PIR1 equ 0Ch ;# 
  1802                           # 1074 "/Applications/microchip/xc8/v1.12/include/pic16lf707.h"
  1803                           PIR2 equ 0Dh ;# 
  1804                           # 1118 "/Applications/microchip/xc8/v1.12/include/pic16lf707.h"
  1805                           TMR1 equ 0Eh ;# 
  1806                           # 1124 "/Applications/microchip/xc8/v1.12/include/pic16lf707.h"
  1807                           TMR1L equ 0Eh ;# 
  1808                           # 1130 "/Applications/microchip/xc8/v1.12/include/pic16lf707.h"
  1809                           TMR1H equ 0Fh ;# 
  1810                           # 1136 "/Applications/microchip/xc8/v1.12/include/pic16lf707.h"
  1811                           T1CON equ 010h ;# 
  1812                           # 1214 "/Applications/microchip/xc8/v1.12/include/pic16lf707.h"
  1813                           TMR2 equ 011h ;# 
  1814                           # 1220 "/Applications/microchip/xc8/v1.12/include/pic16lf707.h"
  1815                           T2CON equ 012h ;# 
  1816                           # 1290 "/Applications/microchip/xc8/v1.12/include/pic16lf707.h"
  1817                           SSPBUF equ 013h ;# 
  1818                           # 1296 "/Applications/microchip/xc8/v1.12/include/pic16lf707.h"
  1819                           SSPCON equ 014h ;# 
  1820                           # 1365 "/Applications/microchip/xc8/v1.12/include/pic16lf707.h"
  1821                           CCPR1 equ 015h ;# 
  1822                           # 1371 "/Applications/microchip/xc8/v1.12/include/pic16lf707.h"
  1823                           CCPR1L equ 015h ;# 
  1824                           # 1377 "/Applications/microchip/xc8/v1.12/include/pic16lf707.h"
  1825                           CCPR1H equ 016h ;# 
  1826                           # 1383 "/Applications/microchip/xc8/v1.12/include/pic16lf707.h"
  1827                           CCP1CON equ 017h ;# 
  1828                           # 1446 "/Applications/microchip/xc8/v1.12/include/pic16lf707.h"
  1829                           RCSTA equ 018h ;# 
  1830                           # 1507 "/Applications/microchip/xc8/v1.12/include/pic16lf707.h"
  1831                           TXREG equ 019h ;# 
  1832                           # 1513 "/Applications/microchip/xc8/v1.12/include/pic16lf707.h"
  1833                           RCREG equ 01Ah ;# 
  1834                           # 1519 "/Applications/microchip/xc8/v1.12/include/pic16lf707.h"
  1835                           CCPR2 equ 01Bh ;# 
  1836                           # 1525 "/Applications/microchip/xc8/v1.12/include/pic16lf707.h"
  1837                           CCPR2L equ 01Bh ;# 
  1838                           # 1531 "/Applications/microchip/xc8/v1.12/include/pic16lf707.h"
  1839                           CCPR2H equ 01Ch ;# 
  1840                           # 1537 "/Applications/microchip/xc8/v1.12/include/pic16lf707.h"
  1841                           CCP2CON equ 01Dh ;# 
  1842                           # 1600 "/Applications/microchip/xc8/v1.12/include/pic16lf707.h"
  1843                           ADRES equ 01Eh ;# 
  1844                           # 1606 "/Applications/microchip/xc8/v1.12/include/pic16lf707.h"
  1845                           ADCON0 equ 01Fh ;# 
  1846                           # 1664 "/Applications/microchip/xc8/v1.12/include/pic16lf707.h"
  1847                           OPTION_REG equ 081h ;# 
  1848                           # 1746 "/Applications/microchip/xc8/v1.12/include/pic16lf707.h"
  1849                           TRISA equ 085h ;# 
  1850                           # 1807 "/Applications/microchip/xc8/v1.12/include/pic16lf707.h"
  1851                           TRISB equ 086h ;# 
  1852                           # 1868 "/Applications/microchip/xc8/v1.12/include/pic16lf707.h"
  1853                           TRISC equ 087h ;# 
  1854                           # 1929 "/Applications/microchip/xc8/v1.12/include/pic16lf707.h"
  1855                           TRISD equ 088h ;# 
  1856                           # 1990 "/Applications/microchip/xc8/v1.12/include/pic16lf707.h"
  1857                           TRISE equ 089h ;# 
  1858                           # 2027 "/Applications/microchip/xc8/v1.12/include/pic16lf707.h"
  1859                           PIE1 equ 08Ch ;# 
  1860                           # 2088 "/Applications/microchip/xc8/v1.12/include/pic16lf707.h"
  1861                           PIE2 equ 08Dh ;# 
  1862                           # 2132 "/Applications/microchip/xc8/v1.12/include/pic16lf707.h"
  1863                           PCON equ 08Eh ;# 
  1864                           # 2157 "/Applications/microchip/xc8/v1.12/include/pic16lf707.h"
  1865                           T1GCON equ 08Fh ;# 
  1866                           # 2226 "/Applications/microchip/xc8/v1.12/include/pic16lf707.h"
  1867                           OSCCON equ 090h ;# 
  1868                           # 2273 "/Applications/microchip/xc8/v1.12/include/pic16lf707.h"
  1869                           OSCTUNE equ 091h ;# 
  1870                           # 2292 "/Applications/microchip/xc8/v1.12/include/pic16lf707.h"
  1871                           PR2 equ 092h ;# 
  1872                           # 2298 "/Applications/microchip/xc8/v1.12/include/pic16lf707.h"
  1873                           SSPADD equ 093h ;# 
  1874                           # 2317 "/Applications/microchip/xc8/v1.12/include/pic16lf707.h"
  1875                           SSPMSK equ 093h ;# 
  1876                           # 2336 "/Applications/microchip/xc8/v1.12/include/pic16lf707.h"
  1877                           SSPSTAT equ 094h ;# 
  1878                           # 2397 "/Applications/microchip/xc8/v1.12/include/pic16lf707.h"
  1879                           WPUB equ 095h ;# 
  1880                           # 2458 "/Applications/microchip/xc8/v1.12/include/pic16lf707.h"
  1881                           IOCB equ 096h ;# 
  1882                           # 2519 "/Applications/microchip/xc8/v1.12/include/pic16lf707.h"
  1883                           T3CON equ 097h ;# 
  1884                           # 2585 "/Applications/microchip/xc8/v1.12/include/pic16lf707.h"
  1885                           TXSTA equ 098h ;# 
  1886                           # 2641 "/Applications/microchip/xc8/v1.12/include/pic16lf707.h"
  1887                           SPBRG equ 099h ;# 
  1888                           # 2647 "/Applications/microchip/xc8/v1.12/include/pic16lf707.h"
  1889                           TMR3 equ 09Ah ;# 
  1890                           # 2653 "/Applications/microchip/xc8/v1.12/include/pic16lf707.h"
  1891                           TMR3L equ 09Ah ;# 
  1892                           # 2659 "/Applications/microchip/xc8/v1.12/include/pic16lf707.h"
  1893                           TMR3H equ 09Bh ;# 
  1894                           # 2665 "/Applications/microchip/xc8/v1.12/include/pic16lf707.h"
  1895                           APFCON equ 09Ch ;# 
  1896                           # 2690 "/Applications/microchip/xc8/v1.12/include/pic16lf707.h"
  1897                           FVRCON equ 09Dh ;# 
  1898                           # 2755 "/Applications/microchip/xc8/v1.12/include/pic16lf707.h"
  1899                           T3GCON equ 09Eh ;# 
  1900                           # 2824 "/Applications/microchip/xc8/v1.12/include/pic16lf707.h"
  1901                           ADCON1 equ 09Fh ;# 
  1902                           # 2883 "/Applications/microchip/xc8/v1.12/include/pic16lf707.h"
  1903                           TACON equ 0105h ;# 
  1904                           # 2993 "/Applications/microchip/xc8/v1.12/include/pic16lf707.h"
  1905                           CPSBCON0 equ 0106h ;# 
  1906                           # 3052 "/Applications/microchip/xc8/v1.12/include/pic16lf707.h"
  1907                           CPSBCON1 equ 0107h ;# 
  1908                           # 3097 "/Applications/microchip/xc8/v1.12/include/pic16lf707.h"
  1909                           CPSACON0 equ 0108h ;# 
  1910                           # 3156 "/Applications/microchip/xc8/v1.12/include/pic16lf707.h"
  1911                           CPSACON1 equ 0109h ;# 
  1912                           # 3201 "/Applications/microchip/xc8/v1.12/include/pic16lf707.h"
  1913                           PMDATL equ 010Ch ;# 
  1914                           # 3207 "/Applications/microchip/xc8/v1.12/include/pic16lf707.h"
  1915                           PMADRL equ 010Dh ;# 
  1916                           # 3213 "/Applications/microchip/xc8/v1.12/include/pic16lf707.h"
  1917                           PMDATH equ 010Eh ;# 
  1918                           # 3219 "/Applications/microchip/xc8/v1.12/include/pic16lf707.h"
  1919                           PMADRH equ 010Fh ;# 
  1920                           # 3225 "/Applications/microchip/xc8/v1.12/include/pic16lf707.h"
  1921                           TMRA equ 0110h ;# 
  1922                           # 3231 "/Applications/microchip/xc8/v1.12/include/pic16lf707.h"
  1923                           TBCON equ 0111h ;# 
  1924                           # 3341 "/Applications/microchip/xc8/v1.12/include/pic16lf707.h"
  1925                           TMRB equ 0112h ;# 
  1926                           # 3347 "/Applications/microchip/xc8/v1.12/include/pic16lf707.h"
  1927                           DACCON0 equ 0113h ;# 
  1928                           # 3401 "/Applications/microchip/xc8/v1.12/include/pic16lf707.h"
  1929                           DACCON1 equ 0114h ;# 
  1930                           # 3452 "/Applications/microchip/xc8/v1.12/include/pic16lf707.h"
  1931                           ANSELA equ 0185h ;# 
  1932                           # 3521 "/Applications/microchip/xc8/v1.12/include/pic16lf707.h"
  1933                           ANSELB equ 0186h ;# 
  1934                           # 3590 "/Applications/microchip/xc8/v1.12/include/pic16lf707.h"
  1935                           ANSELC equ 0187h ;# 
  1936                           # 3648 "/Applications/microchip/xc8/v1.12/include/pic16lf707.h"
  1937                           ANSELD equ 0188h ;# 
  1938                           # 3717 "/Applications/microchip/xc8/v1.12/include/pic16lf707.h"
  1939                           ANSELE equ 0189h ;# 
  1940                           # 3756 "/Applications/microchip/xc8/v1.12/include/pic16lf707.h"
  1941                           PMCON1 equ 018Ch ;# 
  1942                           	FNCALL	_main,_spiInit
  1943                           	FNCALL	_main,_uartInit
  1944                           	FNCALL	_main,_adcInit
  1945                           	FNCALL	_main,_rfm70setPowerdownMode
  1946                           	FNCALL	_main,_printf
  1947                           	FNCALL	_main,_adcReadVcap
  1948                           	FNCALL	_main,_RFM70_Initialize
  1949                           	FNCALL	_main,_adcReadTemp
  1950                           	FNCALL	_main,___wmul
  1951                           	FNCALL	_main,_adcReadVsupercap
  1952                           	FNCALL	_main,_Send_Packet
  1953                           	FNCALL	_main,_sleep
  1954                           	FNCALL	_rfm70setPowerdownMode,_SPI_Read_Reg
  1955                           	FNCALL	_rfm70setPowerdownMode,_SPI_Write_Reg
  1956                           	FNCALL	_RFM70_Initialize,_SwitchCFG
  1957                           	FNCALL	_RFM70_Initialize,_SPI_Write_Reg
  1958                           	FNCALL	_RFM70_Initialize,_SPI_Write_Buf
  1959                           	FNCALL	_RFM70_Initialize,_SPI_Read_Reg
  1960                           	FNCALL	_Send_Packet,_SwitchToTxMode
  1961                           	FNCALL	_Send_Packet,_SPI_Read_Reg
  1962                           	FNCALL	_Send_Packet,_printf
  1963                           	FNCALL	_Send_Packet,_SPI_Write_Buf
  1964                           	FNCALL	_Send_Packet,_rfm70TxDataSentInterrupt
  1965                           	FNCALL	_Send_Packet,_SwitchToRxMode
  1966                           	FNCALL	_Send_Packet,_rfm70TxDataSentErrorInterrupt
  1967                           	FNCALL	_printf,_putch
  1968                           	FNCALL	_printf,___lwdiv
  1969                           	FNCALL	_printf,___lwmod
  1970                           	FNCALL	_rfm70TxDataSentErrorInterrupt,_SPI_Read_Reg
  1971                           	FNCALL	_rfm70TxDataSentErrorInterrupt,_SPI_Write_Reg
  1972                           	FNCALL	_SwitchToRxMode,_SPI_Write_Reg
  1973                           	FNCALL	_SwitchToRxMode,_SPI_Read_Reg
  1974                           	FNCALL	_rfm70TxDataSentInterrupt,_SPI_Read_Reg
  1975                           	FNCALL	_rfm70TxDataSentInterrupt,_SPI_Write_Reg
  1976                           	FNCALL	_SPI_Write_Buf,_SPI_RW
  1977                           	FNCALL	_sleep,_adcReadVcap
  1978                           	FNCALL	_SwitchToTxMode,_SPI_Write_Reg
  1979  0325                     __pmaintext:	;psect for function _main
  1980                           opt subtitle "HI-TECH Software Omniscient Code Generator (Lite mode) build 49521"
  1981                           
  1982                           opt pagewidth 120
  1983                           
  1984  02EA                     	__size_of_main	equ	__end_of_main-_main
  1985                           opt subtitle "HI-TECH Software Omniscient Code Generator (Lite mode) build 49521"
  1986  0325                     _main:	
  1987                           opt subtitle "HI-TECH Software Omniscient Code Generator (Lite mode) build 49521"
  1988                           
  1989                           opt pagewidth 120
  1990                           
  1991  0325                     l3368:	
  1992                           opt subtitle "HI-TECH Software Omniscient Code Generator (Lite mode) build 49521"
  1993  0325  3000               	movlw	0
  1994  0326  1683               	bsf	status, 5	;RP0=1, select bank1
  1995  0327  1303               	bcf	status, 6	;RP1=0, select bank1
  1996  0328  00DA               	movwf	(main@i+3)^080h
  1997  0329  3000               	movlw	0
  1998  032A  00D9               	movwf	(main@i+2)^080h
  1999  032B  3000               	movlw	0
  2000  032C  00D8               	movwf	(main@i+1)^080h
  2001  032D  3000               	movlw	0
  2002  032E  00D7               	movwf	(main@i)^080h
  2003                           opt subtitle "HI-TECH Software Omniscient Code Generator (Lite mode) build 49521"
  2004                           
  2005                           opt pagewidth 120
  2006  032F                     l3370:	
  2007                           opt subtitle "HI-TECH Software Omniscient Code Generator (Lite mode) build 49521"
  2008                           
  2009                           opt pagewidth 120
  2010                           
  2011                           	opt lm
  2012  032F  01D5               	clrf	(main@temp)^080h
  2013  0330  01D6               	clrf	(main@temp+1)^080h
  2014                           opt subtitle "HI-TECH Software Omniscient Code Generator (Lite mode) build 49521"
  2015                           
  2016  0331                     l3372:	
  2017                           opt subtitle "HI-TECH Software Omniscient Code Generator (Lite mode) build 49521"
  2018  0331  0810               	movf	(144)^080h,w	;volatile
  2019  0332  39CF               	andlw	not (((1<<2)-1)<<4)
  2020  0333  3820               	iorlw	(02h & ((1<<2)-1))<<4
  2021  0334  0090               	movwf	(144)^080h	;volatile
  2022                           opt subtitle "HI-TECH Software Omniscient Code Generator (Lite mode) build 49521"
  2023                           
  2024  0335                     l3374:	
  2025                           opt subtitle "HI-TECH Software Omniscient Code Generator (Lite mode) build 49521"
  2026  0335  1683               	bsf	status, 5	;RP0=1, select bank3
  2027  0336  1703               	bsf	status, 6	;RP1=1, select bank3
  2028  0337  1307               	bcf	(391)^0180h,6	;volatile
  2029                           opt subtitle "HI-TECH Software Omniscient Code Generator (Lite mode) build 49521"
  2030                           
  2031  0338                     l3376:	
  2032                           opt subtitle "HI-TECH Software Omniscient Code Generator (Lite mode) build 49521"
  2033  0338  1387               	bcf	(391)^0180h,7	;volatile
  2034                           opt subtitle "HI-TECH Software Omniscient Code Generator (Lite mode) build 49521"
  2035                           
  2036  0339                     l3378:	
  2037                           opt subtitle "HI-TECH Software Omniscient Code Generator (Lite mode) build 49521"
  2038  0339  1683               	bsf	status, 5	;RP0=1, select bank1
  2039  033A  1303               	bcf	status, 6	;RP1=0, select bank1
  2040  033B  1307               	bcf	(135)^080h,6	;volatile
  2041                           opt subtitle "HI-TECH Software Omniscient Code Generator (Lite mode) build 49521"
  2042                           
  2043  033C                     l3380:	
  2044                           opt subtitle "HI-TECH Software Omniscient Code Generator (Lite mode) build 49521"
  2045  033C  1683               	bsf	status, 5	;RP0=1, select bank3
  2046  033D  1703               	bsf	status, 6	;RP1=1, select bank3
  2047  033E  1107               	bcf	(391)^0180h,2	;volatile
  2048                           opt subtitle "HI-TECH Software Omniscient Code Generator (Lite mode) build 49521"
  2049                           
  2050  033F                     l3382:	
  2051                           opt subtitle "HI-TECH Software Omniscient Code Generator (Lite mode) build 49521"
  2052  033F  1108               	bcf	(392)^0180h,2	;volatile
  2053                           opt subtitle "HI-TECH Software Omniscient Code Generator (Lite mode) build 49521"
  2054                           
  2055  0340                     l3384:	
  2056                           opt subtitle "HI-TECH Software Omniscient Code Generator (Lite mode) build 49521"
  2057  0340  1287               	bcf	(391)^0180h,5	;volatile
  2058                           opt subtitle "HI-TECH Software Omniscient Code Generator (Lite mode) build 49521"
  2059                           
  2060  0341                     l3386:	
  2061                           opt subtitle "HI-TECH Software Omniscient Code Generator (Lite mode) build 49521"
  2062  0341  1088               	bcf	(392)^0180h,1	;volatile
  2063                           opt subtitle "HI-TECH Software Omniscient Code Generator (Lite mode) build 49521"
  2064                           
  2065  0342                     l3388:	
  2066                           opt subtitle "HI-TECH Software Omniscient Code Generator (Lite mode) build 49521"
  2067  0342  1683               	bsf	status, 5	;RP0=1, select bank1
  2068  0343  1303               	bcf	status, 6	;RP1=0, select bank1
  2069  0344  1509               	bsf	(137)^080h,2	;volatile
  2070                           opt subtitle "HI-TECH Software Omniscient Code Generator (Lite mode) build 49521"
  2071                           
  2072  0345                     l3390:	
  2073                           opt subtitle "HI-TECH Software Omniscient Code Generator (Lite mode) build 49521"
  2074  0345  1683               	bsf	status, 5	;RP0=1, select bank3
  2075  0346  1703               	bsf	status, 6	;RP1=1, select bank3
  2076  0347  1509               	bsf	(393)^0180h,2	;volatile
  2077                           opt subtitle "HI-TECH Software Omniscient Code Generator (Lite mode) build 49521"
  2078                           
  2079  0348                     l3392:	
  2080                           opt subtitle "HI-TECH Software Omniscient Code Generator (Lite mode) build 49521"
  2081  0348  1683               	bsf	status, 5	;RP0=1, select bank1
  2082  0349  1303               	bcf	status, 6	;RP1=0, select bank1
  2083  034A  1105               	bcf	(133)^080h,2	;volatile
  2084                           opt subtitle "HI-TECH Software Omniscient Code Generator (Lite mode) build 49521"
  2085                           
  2086  034B                     l3394:	
  2087                           opt subtitle "HI-TECH Software Omniscient Code Generator (Lite mode) build 49521"
  2088  034B  1683               	bsf	status, 5	;RP0=1, select bank3
  2089  034C  1703               	bsf	status, 6	;RP1=1, select bank3
  2090  034D  1105               	bcf	(389)^0180h,2	;volatile
  2091                           opt subtitle "HI-TECH Software Omniscient Code Generator (Lite mode) build 49521"
  2092                           
  2093  034E                     l3396:	
  2094                           opt subtitle "HI-TECH Software Omniscient Code Generator (Lite mode) build 49521"
  2095  034E  1283               	bcf	status, 5	;RP0=0, select bank0
  2096  034F  1303               	bcf	status, 6	;RP1=0, select bank0
  2097  0350  1505               	bsf	(5),2	;volatile
  2098                           opt subtitle "HI-TECH Software Omniscient Code Generator (Lite mode) build 49521"
  2099                           
  2100  0351                     l3398:	
  2101                           opt subtitle "HI-TECH Software Omniscient Code Generator (Lite mode) build 49521"
  2102  0351  1683               	bsf	status, 5	;RP0=1, select bank1
  2103  0352  1303               	bcf	status, 6	;RP1=0, select bank1
  2104  0353  1107               	bcf	(135)^080h,2	;volatile
  2105                           opt subtitle "HI-TECH Software Omniscient Code Generator (Lite mode) build 49521"
  2106                           
  2107  0354                     l3400:	
  2108                           opt subtitle "HI-TECH Software Omniscient Code Generator (Lite mode) build 49521"
  2109  0354  1108               	bcf	(136)^080h,2	;volatile
  2110                           opt subtitle "HI-TECH Software Omniscient Code Generator (Lite mode) build 49521"
  2111                           
  2112  0355                     l3402:	
  2113                           opt subtitle "HI-TECH Software Omniscient Code Generator (Lite mode) build 49521"
  2114  0355  1187               	bcf	(135)^080h,3	;volatile
  2115                           opt subtitle "HI-TECH Software Omniscient Code Generator (Lite mode) build 49521"
  2116                           
  2117  0356                     l3404:	
  2118                           opt subtitle "HI-TECH Software Omniscient Code Generator (Lite mode) build 49521"
  2119  0356  1287               	bcf	(135)^080h,5	;volatile
  2120                           opt subtitle "HI-TECH Software Omniscient Code Generator (Lite mode) build 49521"
  2121                           
  2122  0357                     l3406:	
  2123                           opt subtitle "HI-TECH Software Omniscient Code Generator (Lite mode) build 49521"
  2124  0357  1607               	bsf	(135)^080h,4	;volatile
  2125                           opt subtitle "HI-TECH Software Omniscient Code Generator (Lite mode) build 49521"
  2126                           
  2127  0358                     l3408:	
  2128                           opt subtitle "HI-TECH Software Omniscient Code Generator (Lite mode) build 49521"
  2129  0358  1488               	bsf	(136)^080h,1	;volatile
  2130                           opt subtitle "HI-TECH Software Omniscient Code Generator (Lite mode) build 49521"
  2131                           
  2132  0359                     l3410:	
  2133                           opt subtitle "HI-TECH Software Omniscient Code Generator (Lite mode) build 49521"
  2134  0359  1283               	bcf	status, 5	;RP0=0, select bank0
  2135  035A  1303               	bcf	status, 6	;RP1=0, select bank0
  2136  035B  1107               	bcf	(7),2	;volatile
  2137                           opt subtitle "HI-TECH Software Omniscient Code Generator (Lite mode) build 49521"
  2138                           
  2139  035C                     l3412:	
  2140                           opt subtitle "HI-TECH Software Omniscient Code Generator (Lite mode) build 49521"
  2141  035C  1508               	bsf	(8),2	;volatile
  2142                           opt subtitle "HI-TECH Software Omniscient Code Generator (Lite mode) build 49521"
  2143                           
  2144  035D                     l3414:	
  2145                           opt subtitle "HI-TECH Software Omniscient Code Generator (Lite mode) build 49521"
  2146  035D  1187               	bcf	(7),3	;volatile
  2147                           opt subtitle "HI-TECH Software Omniscient Code Generator (Lite mode) build 49521"
  2148                           
  2149  035E                     l3416:	
  2150                           opt subtitle "HI-TECH Software Omniscient Code Generator (Lite mode) build 49521"
  2151  035E  1287               	bcf	(7),5	;volatile
  2152                           opt subtitle "HI-TECH Software Omniscient Code Generator (Lite mode) build 49521"
  2153                           
  2154  035F                     l3418:	
  2155                           opt subtitle "HI-TECH Software Omniscient Code Generator (Lite mode) build 49521"
  2156  035F  1683               	bsf	status, 5	;RP0=1, select bank1
  2157  0360  1303               	bcf	status, 6	;RP1=0, select bank1
  2158  0361  1008               	bcf	(136)^080h,0	;volatile
  2159                           opt subtitle "HI-TECH Software Omniscient Code Generator (Lite mode) build 49521"
  2160                           
  2161  0362                     l3420:	
  2162                           opt subtitle "HI-TECH Software Omniscient Code Generator (Lite mode) build 49521"
  2163  0362  1683               	bsf	status, 5	;RP0=1, select bank3
  2164  0363  1703               	bsf	status, 6	;RP1=1, select bank3
  2165  0364  1008               	bcf	(392)^0180h,0	;volatile
  2166                           opt subtitle "HI-TECH Software Omniscient Code Generator (Lite mode) build 49521"
  2167                           
  2168  0365                     l3422:	
  2169                           opt subtitle "HI-TECH Software Omniscient Code Generator (Lite mode) build 49521"
  2170  0365  1683               	bsf	status, 5	;RP0=1, select bank1
  2171  0366  1303               	bcf	status, 6	;RP1=0, select bank1
  2172  0367  1509               	bsf	(137)^080h,2	;volatile
  2173                           opt subtitle "HI-TECH Software Omniscient Code Generator (Lite mode) build 49521"
  2174                           
  2175  0368                     l3424:	
  2176                           opt subtitle "HI-TECH Software Omniscient Code Generator (Lite mode) build 49521"
  2177  0368  1683               	bsf	status, 5	;RP0=1, select bank3
  2178  0369  1703               	bsf	status, 6	;RP1=1, select bank3
  2179  036A  1509               	bsf	(393)^0180h,2	;volatile
  2180                           opt subtitle "HI-TECH Software Omniscient Code Generator (Lite mode) build 49521"
  2181                           
  2182  036B                     l3426:	
  2183                           opt subtitle "HI-TECH Software Omniscient Code Generator (Lite mode) build 49521"
  2184  036B  1683               	bsf	status, 5	;RP0=1, select bank1
  2185  036C  1303               	bcf	status, 6	;RP1=0, select bank1
  2186  036D  1409               	bsf	(137)^080h,0	;volatile
  2187                           opt subtitle "HI-TECH Software Omniscient Code Generator (Lite mode) build 49521"
  2188                           
  2189  036E                     l3428:	
  2190                           opt subtitle "HI-TECH Software Omniscient Code Generator (Lite mode) build 49521"
  2191  036E  1683               	bsf	status, 5	;RP0=1, select bank3
  2192  036F  1703               	bsf	status, 6	;RP1=1, select bank3
  2193  0370  1009               	bcf	(393)^0180h,0	;volatile
  2194                           opt subtitle "HI-TECH Software Omniscient Code Generator (Lite mode) build 49521"
  2195                           
  2196  0371                     l3430:	
  2197                           opt subtitle "HI-TECH Software Omniscient Code Generator (Lite mode) build 49521"
  2198  0371  1283               	bcf	status, 5	;RP0=0, select bank0
  2199  0372  1303               	bcf	status, 6	;RP1=0, select bank0
  2200  0373  1008               	bcf	(8),0	;volatile
  2201                           opt subtitle "HI-TECH Software Omniscient Code Generator (Lite mode) build 49521"
  2202                           
  2203  0374                     l3432:	
  2204                           opt subtitle "HI-TECH Software Omniscient Code Generator (Lite mode) build 49521"
  2205  0374  1683               	bsf	status, 5	;RP0=1, select bank1
  2206  0375  1303               	bcf	status, 6	;RP1=0, select bank1
  2207  0376  1409               	bsf	(137)^080h,0	;volatile
  2208                           opt subtitle "HI-TECH Software Omniscient Code Generator (Lite mode) build 49521"
  2209                           
  2210  0377                     l3434:	
  2211                           opt subtitle "HI-TECH Software Omniscient Code Generator (Lite mode) build 49521"
  2212  0377  1683               	bsf	status, 5	;RP0=1, select bank3
  2213  0378  1703               	bsf	status, 6	;RP1=1, select bank3
  2214  0379  1409               	bsf	(393)^0180h,0	;volatile
  2215                           opt subtitle "HI-TECH Software Omniscient Code Generator (Lite mode) build 49521"
  2216                           
  2217  037A                     l3436:	
  2218                           opt subtitle "HI-TECH Software Omniscient Code Generator (Lite mode) build 49521"
  2219  037A  1683               	bsf	status, 5	;RP0=1, select bank1
  2220  037B  1303               	bcf	status, 6	;RP1=0, select bank1
  2221  037C  1188               	bcf	(136)^080h,3	;volatile
  2222                           opt subtitle "HI-TECH Software Omniscient Code Generator (Lite mode) build 49521"
  2223                           
  2224  037D                     l3438:	
  2225                           opt subtitle "HI-TECH Software Omniscient Code Generator (Lite mode) build 49521"
  2226  037D  1283               	bcf	status, 5	;RP0=0, select bank0
  2227  037E  1303               	bcf	status, 6	;RP1=0, select bank0
  2228  037F  1188               	bcf	(8),3	;volatile
  2229                           opt subtitle "HI-TECH Software Omniscient Code Generator (Lite mode) build 49521"
  2230                           
  2231  0380                     l3440:	
  2232                           opt subtitle "HI-TECH Software Omniscient Code Generator (Lite mode) build 49521"
  2233  0380  1683               	bsf	status, 5	;RP0=1, select bank1
  2234  0381  1303               	bcf	status, 6	;RP1=0, select bank1
  2235  0382  1688               	bsf	(136)^080h,5	;volatile
  2236                           opt subtitle "HI-TECH Software Omniscient Code Generator (Lite mode) build 49521"
  2237                           
  2238  0383                     l3442:	
  2239                           opt subtitle "HI-TECH Software Omniscient Code Generator (Lite mode) build 49521"
  2240  0383  1683               	bsf	status, 5	;RP0=1, select bank3
  2241  0384  1703               	bsf	status, 6	;RP1=1, select bank3
  2242  0385  1288               	bcf	(392)^0180h,5	;volatile
  2243                           opt subtitle "HI-TECH Software Omniscient Code Generator (Lite mode) build 49521"
  2244                           
  2245  0386                     l3444:	
  2246                           opt subtitle "HI-TECH Software Omniscient Code Generator (Lite mode) build 49521"
  2247  0386  1683               	bsf	status, 5	;RP0=1, select bank1
  2248  0387  1303               	bcf	status, 6	;RP1=0, select bank1
  2249  0388  1708               	bsf	(136)^080h,6	;volatile
  2250                           opt subtitle "HI-TECH Software Omniscient Code Generator (Lite mode) build 49521"
  2251                           
  2252  0389                     l3446:	
  2253                           opt subtitle "HI-TECH Software Omniscient Code Generator (Lite mode) build 49521"
  2254  0389  1788               	bsf	(136)^080h,7	;volatile
  2255                           opt subtitle "HI-TECH Software Omniscient Code Generator (Lite mode) build 49521"
  2256                           
  2257  038A                     l3448:	
  2258                           opt subtitle "HI-TECH Software Omniscient Code Generator (Lite mode) build 49521"
  2259  038A  1683               	bsf	status, 5	;RP0=1, select bank3
  2260  038B  1703               	bsf	status, 6	;RP1=1, select bank3
  2261  038C  1308               	bcf	(392)^0180h,6	;volatile
  2262                           opt subtitle "HI-TECH Software Omniscient Code Generator (Lite mode) build 49521"
  2263                           
  2264  038D                     l3450:	
  2265                           opt subtitle "HI-TECH Software Omniscient Code Generator (Lite mode) build 49521"
  2266  038D  1388               	bcf	(392)^0180h,7	;volatile
  2267                           opt subtitle "HI-TECH Software Omniscient Code Generator (Lite mode) build 49521"
  2268                           
  2269  038E                     l3452:	
  2270                           opt subtitle "HI-TECH Software Omniscient Code Generator (Lite mode) build 49521"
  2271  038E  178B               	bsf	(95/8),(95)&7	;volatile
  2272                           opt subtitle "HI-TECH Software Omniscient Code Generator (Lite mode) build 49521"
  2273                           
  2274  038F                     l3454:	
  2275                           opt subtitle "HI-TECH Software Omniscient Code Generator (Lite mode) build 49521"
  2276  038F  170B               	bsf	(94/8),(94)&7	;volatile
  2277                           opt subtitle "HI-TECH Software Omniscient Code Generator (Lite mode) build 49521"
  2278                           
  2279  0390                     l3456:	
  2280                           opt subtitle "HI-TECH Software Omniscient Code Generator (Lite mode) build 49521"
  2281  0390  1683               	bsf	status, 5	;RP0=1, select bank1
  2282  0391  1303               	bcf	status, 6	;RP1=0, select bank1
  2283  0392  140C               	bsf	(1120/8)^080h,(1120)&7	;volatile
  2284                           opt subtitle "HI-TECH Software Omniscient Code Generator (Lite mode) build 49521"
  2285                           
  2286  0393                     l3458:	
  2287                           opt subtitle "HI-TECH Software Omniscient Code Generator (Lite mode) build 49521"
  2288  0393  3010               	movlw	(010h)
  2289  0394  1283               	bcf	status, 5	;RP0=0, select bank0
  2290  0395  1303               	bcf	status, 6	;RP1=0, select bank0
  2291  0396  008F               	movwf	(15)	;volatile
  2292                           opt subtitle "HI-TECH Software Omniscient Code Generator (Lite mode) build 49521"
  2293                           
  2294  0397                     l3460:	
  2295                           opt subtitle "HI-TECH Software Omniscient Code Generator (Lite mode) build 49521"
  2296  0397  018E               	clrf	(14)	;volatile
  2297                           opt subtitle "HI-TECH Software Omniscient Code Generator (Lite mode) build 49521"
  2298                           
  2299  0398  0810               	movf	(16),w	;volatile
  2300  0399  393F               	andlw	not (((1<<2)-1)<<6)
  2301  039A  3880               	iorlw	(02h & ((1<<2)-1))<<6
  2302  039B  0090               	movwf	(16)	;volatile
  2303                           opt subtitle "HI-TECH Software Omniscient Code Generator (Lite mode) build 49521"
  2304                           
  2305  039C  3030               	movlw	(03h & ((1<<2)-1))<<4
  2306  039D  0490               	iorwf	(16),f	;volatile
  2307                           opt subtitle "HI-TECH Software Omniscient Code Generator (Lite mode) build 49521"
  2308                           
  2309  039E                     l3462:	
  2310                           opt subtitle "HI-TECH Software Omniscient Code Generator (Lite mode) build 49521"
  2311  039E  1683               	bsf	status, 5	;RP0=1, select bank1
  2312  039F  1303               	bcf	status, 6	;RP1=0, select bank1
  2313  03A0  178F               	bsf	(143)^080h,7	;volatile
  2314                           opt subtitle "HI-TECH Software Omniscient Code Generator (Lite mode) build 49521"
  2315                           
  2316  03A1                     l3464:	
  2317                           opt subtitle "HI-TECH Software Omniscient Code Generator (Lite mode) build 49521"
  2318  03A1  1283               	bcf	status, 5	;RP0=0, select bank0
  2319  03A2  1303               	bcf	status, 6	;RP1=0, select bank0
  2320  03A3  1510               	bsf	(16),2	;volatile
  2321                           opt subtitle "HI-TECH Software Omniscient Code Generator (Lite mode) build 49521"
  2322                           
  2323  03A4                     l3466:	
  2324                           opt subtitle "HI-TECH Software Omniscient Code Generator (Lite mode) build 49521"
  2325  03A4  1590               	bsf	(16),3	;volatile
  2326                           opt subtitle "HI-TECH Software Omniscient Code Generator (Lite mode) build 49521"
  2327                           
  2328  03A5                     l3468:	
  2329                           opt subtitle "HI-TECH Software Omniscient Code Generator (Lite mode) build 49521"
  2330  03A5  1410               	bsf	(16),0	;volatile
  2331                           opt subtitle "HI-TECH Software Omniscient Code Generator (Lite mode) build 49521"
  2332                           
  2333  03A6                     l3470:	
  2334                           opt subtitle "HI-TECH Software Omniscient Code Generator (Lite mode) build 49521"
  2335  03A6  1683               	bsf	status, 5	;RP0=1, select bank1
  2336  03A7  1303               	bcf	status, 6	;RP1=0, select bank1
  2337  03A8  1005               	bcf	(133)^080h,0	;volatile
  2338                           opt subtitle "HI-TECH Software Omniscient Code Generator (Lite mode) build 49521"
  2339                           
  2340  03A9                     l3472:	
  2341                           opt subtitle "HI-TECH Software Omniscient Code Generator (Lite mode) build 49521"
  2342  03A9  1085               	bcf	(133)^080h,1	;volatile
  2343                           opt subtitle "HI-TECH Software Omniscient Code Generator (Lite mode) build 49521"
  2344                           
  2345  03AA                     l3474:	
  2346                           opt subtitle "HI-TECH Software Omniscient Code Generator (Lite mode) build 49521"
  2347  03AA  1185               	bcf	(133)^080h,3	;volatile
  2348                           opt subtitle "HI-TECH Software Omniscient Code Generator (Lite mode) build 49521"
  2349                           
  2350  03AB                     l3476:	
  2351                           opt subtitle "HI-TECH Software Omniscient Code Generator (Lite mode) build 49521"
  2352  03AB  1205               	bcf	(133)^080h,4	;volatile
  2353                           opt subtitle "HI-TECH Software Omniscient Code Generator (Lite mode) build 49521"
  2354                           
  2355  03AC                     l3478:	
  2356                           opt subtitle "HI-TECH Software Omniscient Code Generator (Lite mode) build 49521"
  2357  03AC  1285               	bcf	(133)^080h,5	;volatile
  2358                           opt subtitle "HI-TECH Software Omniscient Code Generator (Lite mode) build 49521"
  2359                           
  2360  03AD                     l3480:	
  2361                           opt subtitle "HI-TECH Software Omniscient Code Generator (Lite mode) build 49521"
  2362  03AD  1305               	bcf	(133)^080h,6	;volatile
  2363                           opt subtitle "HI-TECH Software Omniscient Code Generator (Lite mode) build 49521"
  2364                           
  2365  03AE                     l3482:	
  2366                           opt subtitle "HI-TECH Software Omniscient Code Generator (Lite mode) build 49521"
  2367  03AE  1385               	bcf	(133)^080h,7	;volatile
  2368                           opt subtitle "HI-TECH Software Omniscient Code Generator (Lite mode) build 49521"
  2369                           
  2370  03AF                     l3484:	
  2371                           opt subtitle "HI-TECH Software Omniscient Code Generator (Lite mode) build 49521"
  2372  03AF  1683               	bsf	status, 5	;RP0=1, select bank3
  2373  03B0  1703               	bsf	status, 6	;RP1=1, select bank3
  2374  03B1  1005               	bcf	(389)^0180h,0	;volatile
  2375                           opt subtitle "HI-TECH Software Omniscient Code Generator (Lite mode) build 49521"
  2376                           
  2377  03B2                     l3486:	
  2378                           opt subtitle "HI-TECH Software Omniscient Code Generator (Lite mode) build 49521"
  2379  03B2  1085               	bcf	(389)^0180h,1	;volatile
  2380                           opt subtitle "HI-TECH Software Omniscient Code Generator (Lite mode) build 49521"
  2381                           
  2382  03B3                     l3488:	
  2383                           opt subtitle "HI-TECH Software Omniscient Code Generator (Lite mode) build 49521"
  2384  03B3  1185               	bcf	(389)^0180h,3	;volatile
  2385                           opt subtitle "HI-TECH Software Omniscient Code Generator (Lite mode) build 49521"
  2386                           
  2387  03B4                     l3490:	
  2388                           opt subtitle "HI-TECH Software Omniscient Code Generator (Lite mode) build 49521"
  2389  03B4  1205               	bcf	(389)^0180h,4	;volatile
  2390                           opt subtitle "HI-TECH Software Omniscient Code Generator (Lite mode) build 49521"
  2391                           
  2392  03B5                     l3492:	
  2393                           opt subtitle "HI-TECH Software Omniscient Code Generator (Lite mode) build 49521"
  2394  03B5  1285               	bcf	(389)^0180h,5	;volatile
  2395                           opt subtitle "HI-TECH Software Omniscient Code Generator (Lite mode) build 49521"
  2396                           
  2397  03B6                     l3494:	
  2398                           opt subtitle "HI-TECH Software Omniscient Code Generator (Lite mode) build 49521"
  2399  03B6  1305               	bcf	(389)^0180h,6	;volatile
  2400                           opt subtitle "HI-TECH Software Omniscient Code Generator (Lite mode) build 49521"
  2401                           
  2402  03B7                     l3496:	
  2403                           opt subtitle "HI-TECH Software Omniscient Code Generator (Lite mode) build 49521"
  2404  03B7  1385               	bcf	(389)^0180h,7	;volatile
  2405                           opt subtitle "HI-TECH Software Omniscient Code Generator (Lite mode) build 49521"
  2406                           
  2407  03B8                     l3498:	
  2408                           opt subtitle "HI-TECH Software Omniscient Code Generator (Lite mode) build 49521"
  2409  03B8  1283               	bcf	status, 5	;RP0=0, select bank0
  2410  03B9  1303               	bcf	status, 6	;RP1=0, select bank0
  2411  03BA  1005               	bcf	(5),0	;volatile
  2412                           opt subtitle "HI-TECH Software Omniscient Code Generator (Lite mode) build 49521"
  2413                           
  2414  03BB                     l3500:	
  2415                           opt subtitle "HI-TECH Software Omniscient Code Generator (Lite mode) build 49521"
  2416  03BB  1085               	bcf	(5),1	;volatile
  2417                           opt subtitle "HI-TECH Software Omniscient Code Generator (Lite mode) build 49521"
  2418                           
  2419  03BC                     l3502:	
  2420                           opt subtitle "HI-TECH Software Omniscient Code Generator (Lite mode) build 49521"
  2421  03BC  1185               	bcf	(5),3	;volatile
  2422                           opt subtitle "HI-TECH Software Omniscient Code Generator (Lite mode) build 49521"
  2423                           
  2424  03BD                     l3504:	
  2425                           opt subtitle "HI-TECH Software Omniscient Code Generator (Lite mode) build 49521"
  2426  03BD  1205               	bcf	(5),4	;volatile
  2427                           opt subtitle "HI-TECH Software Omniscient Code Generator (Lite mode) build 49521"
  2428                           
  2429  03BE                     l3506:	
  2430                           opt subtitle "HI-TECH Software Omniscient Code Generator (Lite mode) build 49521"
  2431  03BE  1285               	bcf	(5),5	;volatile
  2432                           opt subtitle "HI-TECH Software Omniscient Code Generator (Lite mode) build 49521"
  2433                           
  2434  03BF                     l3508:	
  2435                           opt subtitle "HI-TECH Software Omniscient Code Generator (Lite mode) build 49521"
  2436  03BF  1305               	bcf	(5),6	;volatile
  2437                           opt subtitle "HI-TECH Software Omniscient Code Generator (Lite mode) build 49521"
  2438                           
  2439  03C0                     l3510:	
  2440                           opt subtitle "HI-TECH Software Omniscient Code Generator (Lite mode) build 49521"
  2441  03C0  1385               	bcf	(5),7	;volatile
  2442                           opt subtitle "HI-TECH Software Omniscient Code Generator (Lite mode) build 49521"
  2443                           
  2444  03C1                     l3512:	
  2445                           opt subtitle "HI-TECH Software Omniscient Code Generator (Lite mode) build 49521"
  2446  03C1  1683               	bsf	status, 5	;RP0=1, select bank1
  2447  03C2  1303               	bcf	status, 6	;RP1=0, select bank1
  2448  03C3  1006               	bcf	(134)^080h,0	;volatile
  2449                           opt subtitle "HI-TECH Software Omniscient Code Generator (Lite mode) build 49521"
  2450                           
  2451  03C4                     l3514:	
  2452                           opt subtitle "HI-TECH Software Omniscient Code Generator (Lite mode) build 49521"
  2453  03C4  1086               	bcf	(134)^080h,1	;volatile
  2454                           opt subtitle "HI-TECH Software Omniscient Code Generator (Lite mode) build 49521"
  2455                           
  2456  03C5                     l3516:	
  2457                           opt subtitle "HI-TECH Software Omniscient Code Generator (Lite mode) build 49521"
  2458  03C5  1106               	bcf	(134)^080h,2	;volatile
  2459                           opt subtitle "HI-TECH Software Omniscient Code Generator (Lite mode) build 49521"
  2460                           
  2461  03C6                     l3518:	
  2462                           opt subtitle "HI-TECH Software Omniscient Code Generator (Lite mode) build 49521"
  2463  03C6  1186               	bcf	(134)^080h,3	;volatile
  2464                           opt subtitle "HI-TECH Software Omniscient Code Generator (Lite mode) build 49521"
  2465                           
  2466  03C7                     l3520:	
  2467                           opt subtitle "HI-TECH Software Omniscient Code Generator (Lite mode) build 49521"
  2468  03C7  1206               	bcf	(134)^080h,4	;volatile
  2469                           opt subtitle "HI-TECH Software Omniscient Code Generator (Lite mode) build 49521"
  2470                           
  2471  03C8                     l3522:	
  2472                           opt subtitle "HI-TECH Software Omniscient Code Generator (Lite mode) build 49521"
  2473  03C8  1286               	bcf	(134)^080h,5	;volatile
  2474                           opt subtitle "HI-TECH Software Omniscient Code Generator (Lite mode) build 49521"
  2475                           
  2476  03C9                     l3524:	
  2477                           opt subtitle "HI-TECH Software Omniscient Code Generator (Lite mode) build 49521"
  2478  03C9  1683               	bsf	status, 5	;RP0=1, select bank3
  2479  03CA  1703               	bsf	status, 6	;RP1=1, select bank3
  2480  03CB  1006               	bcf	(390)^0180h,0	;volatile
  2481                           opt subtitle "HI-TECH Software Omniscient Code Generator (Lite mode) build 49521"
  2482                           
  2483  03CC                     l3526:	
  2484                           opt subtitle "HI-TECH Software Omniscient Code Generator (Lite mode) build 49521"
  2485  03CC  1086               	bcf	(390)^0180h,1	;volatile
  2486                           opt subtitle "HI-TECH Software Omniscient Code Generator (Lite mode) build 49521"
  2487                           
  2488  03CD                     l3528:	
  2489                           opt subtitle "HI-TECH Software Omniscient Code Generator (Lite mode) build 49521"
  2490  03CD  1106               	bcf	(390)^0180h,2	;volatile
  2491                           opt subtitle "HI-TECH Software Omniscient Code Generator (Lite mode) build 49521"
  2492                           
  2493  03CE                     l3530:	
  2494                           opt subtitle "HI-TECH Software Omniscient Code Generator (Lite mode) build 49521"
  2495  03CE  1186               	bcf	(390)^0180h,3	;volatile
  2496                           opt subtitle "HI-TECH Software Omniscient Code Generator (Lite mode) build 49521"
  2497                           
  2498  03CF                     l3532:	
  2499                           opt subtitle "HI-TECH Software Omniscient Code Generator (Lite mode) build 49521"
  2500  03CF  1206               	bcf	(390)^0180h,4	;volatile
  2501                           opt subtitle "HI-TECH Software Omniscient Code Generator (Lite mode) build 49521"
  2502                           
  2503  03D0                     l3534:	
  2504                           opt subtitle "HI-TECH Software Omniscient Code Generator (Lite mode) build 49521"
  2505  03D0  1286               	bcf	(390)^0180h,5	;volatile
  2506                           opt subtitle "HI-TECH Software Omniscient Code Generator (Lite mode) build 49521"
  2507                           
  2508  03D1                     l3536:	
  2509                           opt subtitle "HI-TECH Software Omniscient Code Generator (Lite mode) build 49521"
  2510  03D1  1283               	bcf	status, 5	;RP0=0, select bank0
  2511  03D2  1303               	bcf	status, 6	;RP1=0, select bank0
  2512  03D3  1006               	bcf	(6),0	;volatile
  2513                           opt subtitle "HI-TECH Software Omniscient Code Generator (Lite mode) build 49521"
  2514                           
  2515  03D4                     l3538:	
  2516                           opt subtitle "HI-TECH Software Omniscient Code Generator (Lite mode) build 49521"
  2517  03D4  1086               	bcf	(6),1	;volatile
  2518                           opt subtitle "HI-TECH Software Omniscient Code Generator (Lite mode) build 49521"
  2519                           
  2520  03D5                     l3540:	
  2521                           opt subtitle "HI-TECH Software Omniscient Code Generator (Lite mode) build 49521"
  2522  03D5  1106               	bcf	(6),2	;volatile
  2523                           opt subtitle "HI-TECH Software Omniscient Code Generator (Lite mode) build 49521"
  2524                           
  2525  03D6                     l3542:	
  2526                           opt subtitle "HI-TECH Software Omniscient Code Generator (Lite mode) build 49521"
  2527  03D6  1186               	bcf	(6),3	;volatile
  2528                           opt subtitle "HI-TECH Software Omniscient Code Generator (Lite mode) build 49521"
  2529                           
  2530  03D7                     l3544:	
  2531                           opt subtitle "HI-TECH Software Omniscient Code Generator (Lite mode) build 49521"
  2532  03D7  1606               	bsf	(6),4	;volatile
  2533                           opt subtitle "HI-TECH Software Omniscient Code Generator (Lite mode) build 49521"
  2534                           
  2535  03D8                     l3546:	
  2536                           opt subtitle "HI-TECH Software Omniscient Code Generator (Lite mode) build 49521"
  2537  03D8  1286               	bcf	(6),5	;volatile
  2538                           opt subtitle "HI-TECH Software Omniscient Code Generator (Lite mode) build 49521"
  2539                           
  2540  03D9                     l3548:	
  2541                           opt subtitle "HI-TECH Software Omniscient Code Generator (Lite mode) build 49521"
  2542  03D9  1683               	bsf	status, 5	;RP0=1, select bank1
  2543  03DA  1303               	bcf	status, 6	;RP1=0, select bank1
  2544  03DB  1208               	bcf	(136)^080h,4	;volatile
  2545                           opt subtitle "HI-TECH Software Omniscient Code Generator (Lite mode) build 49521"
  2546                           
  2547  03DC                     l3550:	
  2548                           opt subtitle "HI-TECH Software Omniscient Code Generator (Lite mode) build 49521"
  2549  03DC  1683               	bsf	status, 5	;RP0=1, select bank3
  2550  03DD  1703               	bsf	status, 6	;RP1=1, select bank3
  2551  03DE  1208               	bcf	(392)^0180h,4	;volatile
  2552                           opt subtitle "HI-TECH Software Omniscient Code Generator (Lite mode) build 49521"
  2553                           
  2554  03DF                     l3552:	
  2555                           opt subtitle "HI-TECH Software Omniscient Code Generator (Lite mode) build 49521"
  2556  03DF  1283               	bcf	status, 5	;RP0=0, select bank0
  2557  03E0  1303               	bcf	status, 6	;RP1=0, select bank0
  2558  03E1  1208               	bcf	(8),4	;volatile
  2559                           opt subtitle "HI-TECH Software Omniscient Code Generator (Lite mode) build 49521"
  2560                           
  2561  03E2                     l3554:	
  2562                           opt subtitle "HI-TECH Software Omniscient Code Generator (Lite mode) build 49521"
  2563  03E2  1683               	bsf	status, 5	;RP0=1, select bank1
  2564  03E3  1303               	bcf	status, 6	;RP1=0, select bank1
  2565  03E4  1489               	bsf	(137)^080h,1	;volatile
  2566                           opt subtitle "HI-TECH Software Omniscient Code Generator (Lite mode) build 49521"
  2567                           
  2568  03E5                     l3556:	
  2569                           opt subtitle "HI-TECH Software Omniscient Code Generator (Lite mode) build 49521"
  2570  03E5  1683               	bsf	status, 5	;RP0=1, select bank3
  2571  03E6  1703               	bsf	status, 6	;RP1=1, select bank3
  2572  03E7  1489               	bsf	(393)^0180h,1	;volatile
  2573                           opt subtitle "HI-TECH Software Omniscient Code Generator (Lite mode) build 49521"
  2574                           
  2575  03E8                     l3558:	
  2576                           opt subtitle "HI-TECH Software Omniscient Code Generator (Lite mode) build 49521"
  2577  03E8  1283               	bcf	status, 5	;RP0=0, select bank0
  2578  03E9  1303               	bcf	status, 6	;RP1=0, select bank0
  2579  03EA  1089               	bcf	(9),1	;volatile
  2580                           opt subtitle "HI-TECH Software Omniscient Code Generator (Lite mode) build 49521"
  2581                           
  2582  03EB                     l3560:	
  2583                           opt subtitle "HI-TECH Software Omniscient Code Generator (Lite mode) build 49521"
  2584  03EB  120A  158A  20F0   	fcall	_spiInit
              120A  118A         
  2585                           opt subtitle "HI-TECH Software Omniscient Code Generator (Lite mode) build 49521"
  2586                           
  2587  03F0                     l3562:	
  2588                           opt subtitle "HI-TECH Software Omniscient Code Generator (Lite mode) build 49521"
  2589  03F0  120A  158A  20DA   	fcall	_uartInit
              120A  118A         
  2590                           opt subtitle "HI-TECH Software Omniscient Code Generator (Lite mode) build 49521"
  2591                           
  2592  03F5                     l3564:	
  2593                           opt subtitle "HI-TECH Software Omniscient Code Generator (Lite mode) build 49521"
  2594  03F5  120A  158A  208F   	fcall	_adcInit
              120A  118A         
  2595                           opt subtitle "HI-TECH Software Omniscient Code Generator (Lite mode) build 49521"
  2596                           
  2597  03FA                     l3566:	
  2598                           opt subtitle "HI-TECH Software Omniscient Code Generator (Lite mode) build 49521"
  2599  03FA  3000               	movlw	(0)
  2600  03FB  120A  158A  2178   	fcall	_rfm70setPowerdownMode
              120A  118A         
  2601                           opt subtitle "HI-TECH Software Omniscient Code Generator (Lite mode) build 49521"
  2602                           
  2603  0400                     l3568:	
  2604                           opt subtitle "HI-TECH Software Omniscient Code Generator (Lite mode) build 49521"
  2605  0400  1283               	bcf	status, 5	;RP0=0, select bank0
  2606  0401  1303               	bcf	status, 6	;RP1=0, select bank0
  2607  0402  0808               	movf	(8),w	;volatile
  2608  0403  1683               	bsf	status, 5	;RP0=1, select bank1
  2609  0404  1303               	bcf	status, 6	;RP1=0, select bank1
  2610  0405  00B0               	movwf	(??_main+0)^080h+0
  2611  0406  3006               	movlw	06h
  2612  0407                     u2975:
  2613  0407  1003               	clrc
  2614  0408  0CB0               	rrf	(??_main+0)^080h+0,f
  2615  0409  3EFF               	addlw	-1
  2616  040A  1D03               	skipz
  2617  040B  2C07               	goto	u2975
  2618  040C  0830               	movf	0+(??_main+0)^080h+0,w
  2619  040D  3903               	andlw	03h
  2620  040E  00B1               	movwf	(??_main+1)^080h+0
  2621  040F  0831               	movf	(??_main+1)^080h+0,w
  2622  0410  1283               	bcf	status, 5	;RP0=0, select bank0
  2623  0411  1303               	bcf	status, 6	;RP1=0, select bank0
  2624  0412  00D9               	movwf	(_sleep_counter)
  2625                           opt subtitle "HI-TECH Software Omniscient Code Generator (Lite mode) build 49521"
  2626                           
  2627  0413                     l3570:	
  2628                           opt subtitle "HI-TECH Software Omniscient Code Generator (Lite mode) build 49521"
  2629  0413  3026               	movlw	low(STR_2|8000h)
  2630  0414  00C2               	movwf	(?_printf)
  2631  0415  3091               	movlw	high(STR_2|8000h)
  2632  0416  00C3               	movwf	((?_printf))+1
  2633  0417  0859               	movf	(_sleep_counter),w
  2634  0418  1683               	bsf	status, 5	;RP0=1, select bank1
  2635  0419  1303               	bcf	status, 6	;RP1=0, select bank1
  2636  041A  00B0               	movwf	(??_main+0)^080h+0+0
  2637  041B  01B1               	clrf	(??_main+0)^080h+0+1
  2638  041C  0830               	movf	0+(??_main+0)^080h+0,w
  2639  041D  1283               	bcf	status, 5	;RP0=0, select bank0
  2640  041E  1303               	bcf	status, 6	;RP1=0, select bank0
  2641  041F  00C4               	movwf	0+(?_printf)+02h
  2642  0420  1683               	bsf	status, 5	;RP0=1, select bank1
  2643  0421  1303               	bcf	status, 6	;RP1=0, select bank1
  2644  0422  0831               	movf	1+(??_main+0)^080h+0,w
  2645  0423  1283               	bcf	status, 5	;RP0=0, select bank0
  2646  0424  1303               	bcf	status, 6	;RP1=0, select bank0
  2647  0425  00C5               	movwf	1+(?_printf)+02h
  2648  0426  120A  158A  2600   	fcall	_printf
              120A  118A         
  2649                           opt subtitle "HI-TECH Software Omniscient Code Generator (Lite mode) build 49521"
  2650                           
  2651  042B  0063               sleep ;# 
  2652                           opt subtitle "HI-TECH Software Omniscient Code Generator (Lite mode) build 49521"
  2653                           
  2654                           opt pagewidth 120
  2655  042C                     l3572:	
  2656                           opt subtitle "HI-TECH Software Omniscient Code Generator (Lite mode) build 49521"
  2657  042C  120A  158A  221A   	fcall	_adcReadVcap
              120A  118A         
  2658  0431  1683               	bsf	status, 5	;RP0=1, select bank1
  2659  0432  1303               	bcf	status, 6	;RP1=0, select bank1
  2660  0433  00B0               	movwf	(??_main+0)^080h+0+0
  2661  0434  01B1               	clrf	(??_main+0)^080h+0+1
  2662  0435  0830               	movf	0+(??_main+0)^080h+0,w
  2663  0436  00DD               	movwf	(_value)^080h
  2664  0437  0831               	movf	1+(??_main+0)^080h+0,w
  2665  0438  00DE               	movwf	(_value+1)^080h
  2666                           opt subtitle "HI-TECH Software Omniscient Code Generator (Lite mode) build 49521"
  2667                           
  2668  0439  2C62               	goto	l3578
  2669                           opt subtitle "HI-TECH Software Omniscient Code Generator (Lite mode) build 49521"
  2670  043A                     l167:	
  2671                           opt subtitle "HI-TECH Software Omniscient Code Generator (Lite mode) build 49521"
  2672                           
  2673  043A  0063               sleep ;# 
  2674                           opt subtitle "HI-TECH Software Omniscient Code Generator (Lite mode) build 49521"
  2675                           
  2676                           opt pagewidth 120
  2677  043B                     l3574:	
  2678                           opt subtitle "HI-TECH Software Omniscient Code Generator (Lite mode) build 49521"
  2679  043B  120A  158A  221A   	fcall	_adcReadVcap
              120A  118A         
  2680  0440  1683               	bsf	status, 5	;RP0=1, select bank1
  2681  0441  1303               	bcf	status, 6	;RP1=0, select bank1
  2682  0442  00B0               	movwf	(??_main+0)^080h+0+0
  2683  0443  01B1               	clrf	(??_main+0)^080h+0+1
  2684  0444  0830               	movf	0+(??_main+0)^080h+0,w
  2685  0445  00DD               	movwf	(_value)^080h
  2686  0446  0831               	movf	1+(??_main+0)^080h+0,w
  2687  0447  00DE               	movwf	(_value+1)^080h
  2688                           opt subtitle "HI-TECH Software Omniscient Code Generator (Lite mode) build 49521"
  2689                           
  2690  0448                     l3576:	
  2691                           opt subtitle "HI-TECH Software Omniscient Code Generator (Lite mode) build 49521"
  2692  0448  30FA               	movlw	low(STR_3|8000h)
  2693  0449  1283               	bcf	status, 5	;RP0=0, select bank0
  2694  044A  1303               	bcf	status, 6	;RP1=0, select bank0
  2695  044B  00C2               	movwf	(?_printf)
  2696  044C  3090               	movlw	high(STR_3|8000h)
  2697  044D  00C3               	movwf	((?_printf))+1
  2698  044E  1683               	bsf	status, 5	;RP0=1, select bank1
  2699  044F  1303               	bcf	status, 6	;RP1=0, select bank1
  2700  0450  085E               	movf	(_value+1)^080h,w
  2701  0451  1283               	bcf	status, 5	;RP0=0, select bank0
  2702  0452  1303               	bcf	status, 6	;RP1=0, select bank0
  2703  0453  01C5               	clrf	1+(?_printf)+02h
  2704  0454  07C5               	addwf	1+(?_printf)+02h
  2705  0455  1683               	bsf	status, 5	;RP0=1, select bank1
  2706  0456  1303               	bcf	status, 6	;RP1=0, select bank1
  2707  0457  085D               	movf	(_value)^080h,w
  2708  0458  1283               	bcf	status, 5	;RP0=0, select bank0
  2709  0459  1303               	bcf	status, 6	;RP1=0, select bank0
  2710  045A  01C4               	clrf	0+(?_printf)+02h
  2711  045B  07C4               	addwf	0+(?_printf)+02h
  2712                           opt subtitle "HI-TECH Software Omniscient Code Generator (Lite mode) build 49521"
  2713  045C  120A  158A  2600   	fcall	_printf
              120A  118A         
  2714  0461  2C62               	goto	l3578
  2715                           opt subtitle "HI-TECH Software Omniscient Code Generator (Lite mode) build 49521"
  2716                           
  2717  0462                     l166:	
  2718                           opt subtitle "HI-TECH Software Omniscient Code Generator (Lite mode) build 49521"
  2719                           
  2720  0462                     l3578:	
  2721  0462  3000               	movlw	high(06Eh)
  2722  0463  1683               	bsf	status, 5	;RP0=1, select bank1
  2723  0464  1303               	bcf	status, 6	;RP1=0, select bank1
  2724  0465  025E               	subwf	(_value+1)^080h,w
  2725  0466  306E               	movlw	low(06Eh)
  2726  0467  1903               	skipnz
  2727  0468  025D               	subwf	(_value)^080h,w
  2728  0469  1803               	skipnc
  2729  046A  2C6C               	goto	u2981
  2730  046B  2C6D               	goto	u2980
  2731  046C                     u2981:
  2732  046C  2C75               	goto	l3582
  2733  046D                     u2980:
  2734                           opt subtitle "HI-TECH Software Omniscient Code Generator (Lite mode) build 49521"
  2735  046D                     l3580:	
  2736  046D  1283               	bcf	status, 5	;RP0=0, select bank0
  2737  046E  1303               	bcf	status, 6	;RP1=0, select bank0
  2738  046F  1E88               	btfss	(8),5	;volatile
  2739  0470  2C72               	goto	u2991
  2740  0471  2C73               	goto	u2990
  2741  0472                     u2991:
  2742  0472  2C3A               	goto	l167
  2743  0473                     u2990:
  2744  0473  2C75               	goto	l3582
  2745                           opt subtitle "HI-TECH Software Omniscient Code Generator (Lite mode) build 49521"
  2746  0474                     l169:	
  2747  0474  2C75               	goto	l3582
  2748                           opt subtitle "HI-TECH Software Omniscient Code Generator (Lite mode) build 49521"
  2749  0475                     l170:	
  2750                           opt subtitle "HI-TECH Software Omniscient Code Generator (Lite mode) build 49521"
  2751                           
  2752  0475                     l3582:	
  2753                           opt subtitle "HI-TECH Software Omniscient Code Generator (Lite mode) build 49521"
  2754                           
  2755  0475  30A3               	movlw	low(STR_4|8000h)
  2756  0476  1283               	bcf	status, 5	;RP0=0, select bank0
  2757  0477  00C2               	movwf	(?_printf)
  2758  0478  3090               	movlw	high(STR_4|8000h)
  2759  0479  00C3               	movwf	((?_printf))+1
  2760  047A  1683               	bsf	status, 5	;RP0=1, select bank1
  2761  047B  1303               	bcf	status, 6	;RP1=0, select bank1
  2762  047C  085E               	movf	(_value+1)^080h,w
  2763  047D  1283               	bcf	status, 5	;RP0=0, select bank0
  2764  047E  1303               	bcf	status, 6	;RP1=0, select bank0
  2765  047F  01C5               	clrf	1+(?_printf)+02h
  2766  0480  07C5               	addwf	1+(?_printf)+02h
  2767  0481  1683               	bsf	status, 5	;RP0=1, select bank1
  2768  0482  1303               	bcf	status, 6	;RP1=0, select bank1
  2769  0483  085D               	movf	(_value)^080h,w
  2770  0484  1283               	bcf	status, 5	;RP0=0, select bank0
  2771  0485  1303               	bcf	status, 6	;RP1=0, select bank0
  2772  0486  01C4               	clrf	0+(?_printf)+02h
  2773  0487  07C4               	addwf	0+(?_printf)+02h
  2774                           opt subtitle "HI-TECH Software Omniscient Code Generator (Lite mode) build 49521"
  2775  0488  120A  158A  2600   	fcall	_printf
              120A  118A         
  2776                           opt subtitle "HI-TECH Software Omniscient Code Generator (Lite mode) build 49521"
  2777                           
  2778  048D                     l3584:	
  2779                           opt subtitle "HI-TECH Software Omniscient Code Generator (Lite mode) build 49521"
  2780  048D  120A  118A  2015   	fcall	_RFM70_Initialize
              120A  118A         
  2781                           opt subtitle "HI-TECH Software Omniscient Code Generator (Lite mode) build 49521"
  2782                           
  2783  0492                     l3586:	
  2784                           opt subtitle "HI-TECH Software Omniscient Code Generator (Lite mode) build 49521"
  2785  0492  3000               	movlw	(0)
  2786  0493  120A  158A  2178   	fcall	_rfm70setPowerdownMode
              120A  118A         
  2787                           opt subtitle "HI-TECH Software Omniscient Code Generator (Lite mode) build 49521"
  2788                           
  2789  0498  0063               sleep ;# 
  2790                           opt subtitle "HI-TECH Software Omniscient Code Generator (Lite mode) build 49521"
  2791                           
  2792                           opt pagewidth 120
  2793  0499                     l3588:	
  2794                           opt subtitle "HI-TECH Software Omniscient Code Generator (Lite mode) build 49521"
  2795  0499  1683               	bsf	status, 5	;RP0=1, select bank1
  2796  049A  1303               	bcf	status, 6	;RP1=0, select bank1
  2797  049B  01DB               	clrf	(_timelapse_count)^080h
  2798  049C  01DC               	clrf	(_timelapse_count+1)^080h
  2799  049D  2C9E               	goto	l3590
  2800                           opt subtitle "HI-TECH Software Omniscient Code Generator (Lite mode) build 49521"
  2801                           
  2802                           opt pagewidth 120
  2803  049E                     l171:	
  2804                           opt subtitle "HI-TECH Software Omniscient Code Generator (Lite mode) build 49521"
  2805                           
  2806  049E                     l3590:	
  2807                           opt subtitle "HI-TECH Software Omniscient Code Generator (Lite mode) build 49521"
  2808  049E  3001               	movlw	(01h)
  2809  049F  120A  158A  2178   	fcall	_rfm70setPowerdownMode
              120A  118A         
  2810                           opt subtitle "HI-TECH Software Omniscient Code Generator (Lite mode) build 49521"
  2811                           
  2812  04A4                     l3592:	
  2813                           opt subtitle "HI-TECH Software Omniscient Code Generator (Lite mode) build 49521"
  2814  04A4  3000               	movlw	0
  2815  04A5  1683               	bsf	status, 5	;RP0=1, select bank1
  2816  04A6  1303               	bcf	status, 6	;RP1=0, select bank1
  2817  04A7  00DA               	movwf	(main@i+3)^080h
  2818  04A8  3000               	movlw	0
  2819  04A9  00D9               	movwf	(main@i+2)^080h
  2820  04AA  3000               	movlw	0
  2821  04AB  00D8               	movwf	(main@i+1)^080h
  2822  04AC  3000               	movlw	0
  2823  04AD  00D7               	movwf	(main@i)^080h
  2824                           opt subtitle "HI-TECH Software Omniscient Code Generator (Lite mode) build 49521"
  2825                           
  2826  04AE                     l3594:	
  2827  04AE  085A               	movf	(main@i+3)^080h,w
  2828  04AF  3A80               	xorlw	80h
  2829  04B0  00FF               	movwf	btemp+1
  2830  04B1  3000               	movlw	0
  2831  04B2  3A80               	xorlw	80h
  2832  04B3  027F               	subwf	btemp+1,w
  2833                           opt subtitle "HI-TECH Software Omniscient Code Generator (Lite mode) build 49521"
  2834  04B4  1D03               	skipz
  2835  04B5  2CC0               	goto	u3003
  2836  04B6  3000               	movlw	0
  2837  04B7  0259               	subwf	(main@i+2)^080h,w
  2838  04B8  1D03               	skipz
  2839  04B9  2CC0               	goto	u3003
  2840  04BA  3000               	movlw	0
  2841  04BB  0258               	subwf	(main@i+1)^080h,w
  2842  04BC  1D03               	skipz
  2843  04BD  2CC0               	goto	u3003
  2844  04BE  3002               	movlw	02h
  2845  04BF  0257               	subwf	(main@i)^080h,w
  2846  04C0                     u3003:
  2847  04C0  1C03               	skipc
  2848  04C1  2CC3               	goto	u3001
  2849  04C2  2CC4               	goto	u3000
  2850  04C3                     u3001:
  2851  04C3  2CC6               	goto	l3598
  2852  04C4                     u3000:
  2853  04C4  2CF6               	goto	l3604
  2854                           opt subtitle "HI-TECH Software Omniscient Code Generator (Lite mode) build 49521"
  2855  04C5                     l3596:	
  2856  04C5  2CF6               	goto	l3604
  2857                           opt subtitle "HI-TECH Software Omniscient Code Generator (Lite mode) build 49521"
  2858  04C6                     l172:	
  2859                           opt subtitle "HI-TECH Software Omniscient Code Generator (Lite mode) build 49521"
  2860                           
  2861  04C6                     l3598:	
  2862                           opt subtitle "HI-TECH Software Omniscient Code Generator (Lite mode) build 49521"
  2863  04C6  0857               	movf	(main@i)^080h,w
  2864  04C7  3EE3               	addlw	_tx_buf&0ffh
  2865  04C8  0084               	movwf	fsr0
  2866  04C9  1383               	bcf	status, 7	;select IRP bank1
  2867  04CA  0800               	movf	indf,w
  2868  04CB  00B0               	movwf	(??_main+0)^080h+0
  2869  04CC  0857               	movf	(main@i)^080h,w
  2870  04CD  3EB4               	addlw	main@temp_tx_buf&0ffh
  2871  04CE  0084               	movwf	fsr0
  2872  04CF  0830               	movf	(??_main+0)^080h+0,w
  2873  04D0  0080               	movwf	indf
  2874                           opt subtitle "HI-TECH Software Omniscient Code Generator (Lite mode) build 49521"
  2875                           
  2876  04D1                     l3600:	
  2877  04D1  3001               	movlw	01h
  2878  04D2  07D7               	addwf	(main@i)^080h,f
  2879  04D3  3000               	movlw	0
  2880  04D4  1803               	skipnc
  2881  04D5  3001               movlw 1
  2882  04D6  07D8               	addwf	(main@i+1)^080h,f
  2883  04D7  3000               	movlw	0
  2884  04D8  1803               	skipnc
  2885  04D9  3001               movlw 1
  2886  04DA  07D9               	addwf	(main@i+2)^080h,f
  2887  04DB  3000               	movlw	0
  2888  04DC  1803               	skipnc
  2889  04DD  3001               movlw 1
  2890  04DE  07DA               	addwf	(main@i+3)^080h,f
  2891                           opt subtitle "HI-TECH Software Omniscient Code Generator (Lite mode) build 49521"
  2892  04DF                     l3602:	
  2893  04DF  085A               	movf	(main@i+3)^080h,w
  2894  04E0  3A80               	xorlw	80h
  2895  04E1  00FF               	movwf	btemp+1
  2896  04E2  3000               	movlw	0
  2897  04E3  3A80               	xorlw	80h
  2898  04E4  027F               	subwf	btemp+1,w
  2899                           opt subtitle "HI-TECH Software Omniscient Code Generator (Lite mode) build 49521"
  2900  04E5  1D03               	skipz
  2901  04E6  2CF1               	goto	u3013
  2902  04E7  3000               	movlw	0
  2903  04E8  0259               	subwf	(main@i+2)^080h,w
  2904  04E9  1D03               	skipz
  2905  04EA  2CF1               	goto	u3013
  2906  04EB  3000               	movlw	0
  2907  04EC  0258               	subwf	(main@i+1)^080h,w
  2908  04ED  1D03               	skipz
  2909  04EE  2CF1               	goto	u3013
  2910  04EF  3002               	movlw	02h
  2911  04F0  0257               	subwf	(main@i)^080h,w
  2912  04F1                     u3013:
  2913  04F1  1C03               	skipc
  2914  04F2  2CF4               	goto	u3011
  2915  04F3  2CF5               	goto	u3010
  2916  04F4                     u3011:
  2917  04F4  2CC6               	goto	l3598
  2918  04F5                     u3010:
  2919  04F5  2CF6               	goto	l3604
  2920                           opt subtitle "HI-TECH Software Omniscient Code Generator (Lite mode) build 49521"
  2921  04F6                     l173:	
  2922                           opt subtitle "HI-TECH Software Omniscient Code Generator (Lite mode) build 49521"
  2923                           
  2924  04F6                     l3604:	
  2925                           opt subtitle "HI-TECH Software Omniscient Code Generator (Lite mode) build 49521"
  2926                           
  2927  04F6  120A  158A  2245   	fcall	_adcReadTemp
              120A  118A         
  2928  04FB  1683               	bsf	status, 5	;RP0=1, select bank1
  2929  04FC  1303               	bcf	status, 6	;RP1=0, select bank1
  2930  04FD  00B0               	movwf	(??_main+0)^080h+0
  2931  04FE  0830               	movf	(??_main+0)^080h+0,w
  2932  04FF  00E3               	movwf	(_tx_buf)^080h
  2933                           opt subtitle "HI-TECH Software Omniscient Code Generator (Lite mode) build 49521"
  2934                           
  2935  0500  120A  158A  221A   	fcall	_adcReadVcap
              120A  118A         
  2936  0505  1683               	bsf	status, 5	;RP0=1, select bank1
  2937  0506  1303               	bcf	status, 6	;RP1=0, select bank1
  2938  0507  00B0               	movwf	(??_main+0)^080h+0
  2939  0508  0830               	movf	(??_main+0)^080h+0,w
  2940  0509  00E4               	movwf	0+(_tx_buf)^080h+01h
  2941                           opt subtitle "HI-TECH Software Omniscient Code Generator (Lite mode) build 49521"
  2942                           
  2943  050A                     l3606:	
  2944                           opt subtitle "HI-TECH Software Omniscient Code Generator (Lite mode) build 49521"
  2945  050A  085B               	movf	(_timelapse_count)^080h,w
  2946  050B  00B0               	movwf	(??_main+0)^080h+0
  2947  050C  0830               	movf	(??_main+0)^080h+0,w
  2948  050D  00E5               	movwf	0+(_tx_buf)^080h+02h
  2949                           opt subtitle "HI-TECH Software Omniscient Code Generator (Lite mode) build 49521"
  2950                           
  2951  050E                     l3608:	
  2952                           opt subtitle "HI-TECH Software Omniscient Code Generator (Lite mode) build 49521"
  2953  050E  085C               	movf	(_timelapse_count+1)^080h,w
  2954  050F  00B0               	movwf	(??_main+0)^080h+0
  2955  0510  0830               	movf	(??_main+0)^080h+0,w
  2956  0511  00E6               	movwf	0+(_tx_buf)^080h+03h
  2957                           opt subtitle "HI-TECH Software Omniscient Code Generator (Lite mode) build 49521"
  2958                           
  2959  0512                     l3610:	
  2960                           opt subtitle "HI-TECH Software Omniscient Code Generator (Lite mode) build 49521"
  2961  0512  0861               	movf	(_jumper_stat)^080h,w
  2962  0513  00B0               	movwf	(??_main+0)^080h+0
  2963  0514  0830               	movf	(??_main+0)^080h+0,w
  2964  0515  00E7               	movwf	0+(_tx_buf)^080h+04h
  2965                           opt subtitle "HI-TECH Software Omniscient Code Generator (Lite mode) build 49521"
  2966                           
  2967  0516                     l3612:	
  2968                           opt subtitle "HI-TECH Software Omniscient Code Generator (Lite mode) build 49521"
  2969  0516  0860               	movf	0+(_values)^080h+01h,w
  2970  0517  00B0               	movwf	(??_main+0)^080h+0+0
  2971  0518  01B1               	clrf	(??_main+0)^080h+0+1
  2972  0519  09B0               	comf	(??_main+0)^080h+0,f
  2973  051A  09B1               	comf	(??_main+0)^080h+1,f
  2974  051B  0AB0               	incf	(??_main+0)^080h+0,f
  2975  051C  1903               	skipnz
  2976  051D  0AB1               	incf	(??_main+0)^080h+1,f
  2977  051E  085F               	movf	(_values)^080h,w
  2978  051F  0730               	addwf	0+(??_main+0)^080h+0,w
  2979  0520  1283               	bcf	status, 5	;RP0=0, select bank0
  2980  0521  1303               	bcf	status, 6	;RP1=0, select bank0
  2981  0522  00B4               	movwf	(?___wmul)
  2982  0523  1683               	bsf	status, 5	;RP0=1, select bank1
  2983  0524  1303               	bcf	status, 6	;RP1=0, select bank1
  2984  0525  0831               	movf	1+(??_main+0)^080h+0,w
  2985  0526  1803               	skipnc
  2986  0527  0A31               	incf	1+(??_main+0)^080h+0,w
  2987  0528  1283               	bcf	status, 5	;RP0=0, select bank0
  2988  0529  1303               	bcf	status, 6	;RP1=0, select bank0
  2989  052A  00B5               	movwf	((?___wmul))+1
  2990  052B  1683               	bsf	status, 5	;RP0=1, select bank1
  2991  052C  1303               	bcf	status, 6	;RP1=0, select bank1
  2992  052D  085F               	movf	(_values)^080h,w
  2993  052E  0760               	addwf	0+(_values)^080h+01h,w
  2994  052F  1283               	bcf	status, 5	;RP0=0, select bank0
  2995  0530  1303               	bcf	status, 6	;RP1=0, select bank0
  2996  0531  00B6               	movwf	0+(?___wmul)+02h
  2997  0532  01B7               	clrf	0+(?___wmul)+02h+1
  2998  0533  0DB7               	rlf	1+0+(?___wmul)+02h,f
  2999                           opt subtitle "HI-TECH Software Omniscient Code Generator (Lite mode) build 49521"
  3000  0534  120A  158A  2270   	fcall	___wmul
              120A  118A         
  3001  0539  1283               	bcf	status, 5	;RP0=0, select bank0
  3002  053A  1303               	bcf	status, 6	;RP1=0, select bank0
  3003  053B  0834               	movf	(0+(?___wmul)),w
  3004  053C  1683               	bsf	status, 5	;RP0=1, select bank1
  3005  053D  1303               	bcf	status, 6	;RP1=0, select bank1
  3006  053E  07D5               	addwf	(main@temp)^080h,f
  3007  053F  1803               	skipnc
  3008  0540  0AD6               	incf	(main@temp+1)^080h,f
  3009  0541  1283               	bcf	status, 5	;RP0=0, select bank0
  3010  0542  1303               	bcf	status, 6	;RP1=0, select bank0
  3011  0543  0835               	movf	(1+(?___wmul)),w
  3012  0544  1683               	bsf	status, 5	;RP0=1, select bank1
  3013  0545  1303               	bcf	status, 6	;RP1=0, select bank1
  3014  0546  07D6               	addwf	(main@temp+1)^080h,f
  3015                           opt subtitle "HI-TECH Software Omniscient Code Generator (Lite mode) build 49521"
  3016                           
  3017  0547                     l3614:	
  3018                           opt subtitle "HI-TECH Software Omniscient Code Generator (Lite mode) build 49521"
  3019  0547  0855               	movf	(main@temp)^080h,w
  3020  0548  00B0               	movwf	(??_main+0)^080h+0
  3021  0549  0830               	movf	(??_main+0)^080h+0,w
  3022  054A  00E8               	movwf	0+(_tx_buf)^080h+05h
  3023                           opt subtitle "HI-TECH Software Omniscient Code Generator (Lite mode) build 49521"
  3024                           
  3025  054B                     l3616:	
  3026                           opt subtitle "HI-TECH Software Omniscient Code Generator (Lite mode) build 49521"
  3027  054B  0856               	movf	(main@temp+1)^080h,w
  3028  054C  00B0               	movwf	(??_main+0)^080h+0
  3029  054D  0830               	movf	(??_main+0)^080h+0,w
  3030  054E  00E9               	movwf	0+(_tx_buf)^080h+06h
  3031                           opt subtitle "HI-TECH Software Omniscient Code Generator (Lite mode) build 49521"
  3032                           
  3033  054F                     l3618:	
  3034                           opt subtitle "HI-TECH Software Omniscient Code Generator (Lite mode) build 49521"
  3035  054F  120A  158A  219D   	fcall	_adcReadVsupercap
              120A  118A         
  3036  0554  1683               	bsf	status, 5	;RP0=1, select bank1
  3037  0555  1303               	bcf	status, 6	;RP1=0, select bank1
  3038  0556  00B0               	movwf	(??_main+0)^080h+0
  3039  0557  0830               	movf	(??_main+0)^080h+0,w
  3040  0558  00EA               	movwf	0+(_tx_buf)^080h+07h
  3041                           opt subtitle "HI-TECH Software Omniscient Code Generator (Lite mode) build 49521"
  3042                           
  3043  0559                     l3620:	
  3044                           opt subtitle "HI-TECH Software Omniscient Code Generator (Lite mode) build 49521"
  3045  0559  306F               	movlw	(06Fh)
  3046  055A  0264               	subwf	0+(_tx_buf)^080h+01h,w
  3047  055B  1803               	skipnc
  3048  055C  2D5E               	goto	u3021
  3049  055D  2D5F               	goto	u3020
  3050  055E                     u3021:
  3051  055E  2D66               	goto	l3624
  3052  055F                     u3020:
  3053                           opt subtitle "HI-TECH Software Omniscient Code Generator (Lite mode) build 49521"
  3054  055F                     l3622:	
  3055  055F  1283               	bcf	status, 5	;RP0=0, select bank0
  3056  0560  1303               	bcf	status, 6	;RP1=0, select bank0
  3057  0561  1E88               	btfss	(8),5	;volatile
  3058  0562  2D64               	goto	u3031
  3059  0563  2D65               	goto	u3030
  3060  0564                     u3031:
  3061  0564  2D81               	goto	l3628
  3062  0565                     u3030:
  3063  0565  2D66               	goto	l3624
  3064                           opt subtitle "HI-TECH Software Omniscient Code Generator (Lite mode) build 49521"
  3065  0566                     l176:	
  3066                           opt subtitle "HI-TECH Software Omniscient Code Generator (Lite mode) build 49521"
  3067                           
  3068  0566                     l3624:	
  3069                           opt subtitle "HI-TECH Software Omniscient Code Generator (Lite mode) build 49521"
  3070  0566  30E3               	movlw	(_tx_buf)&0ffh
  3071  0567  1683               	bsf	status, 5	;RP0=1, select bank1
  3072  0568  1303               	bcf	status, 6	;RP1=0, select bank1
  3073  0569  00B0               	movwf	(??_main+0)^080h+0
  3074  056A  0830               	movf	(??_main+0)^080h+0,w
  3075  056B  1283               	bcf	status, 5	;RP0=0, select bank0
  3076  056C  1303               	bcf	status, 6	;RP1=0, select bank0
  3077  056D  00CB               	movwf	(?_Send_Packet)
  3078  056E  3008               	movlw	(08h)
  3079  056F  1683               	bsf	status, 5	;RP0=1, select bank1
  3080  0570  1303               	bcf	status, 6	;RP1=0, select bank1
  3081  0571  00B1               	movwf	(??_main+1)^080h+0
  3082  0572  0831               	movf	(??_main+1)^080h+0,w
  3083  0573  1283               	bcf	status, 5	;RP0=0, select bank0
  3084  0574  1303               	bcf	status, 6	;RP1=0, select bank0
  3085  0575  00CC               	movwf	0+(?_Send_Packet)+01h
  3086  0576  30B0               	movlw	(0B0h)
  3087  0577  120A  158A  252C   	fcall	_Send_Packet
              120A  118A         
  3088                           opt subtitle "HI-TECH Software Omniscient Code Generator (Lite mode) build 49521"
  3089                           
  3090  057C                     l3626:	
  3091                           opt subtitle "HI-TECH Software Omniscient Code Generator (Lite mode) build 49521"
  3092  057C  1683               	bsf	status, 5	;RP0=1, select bank1
  3093  057D  1303               	bcf	status, 6	;RP1=0, select bank1
  3094  057E  01D5               	clrf	(main@temp)^080h
  3095  057F  01D6               	clrf	(main@temp+1)^080h
  3096                           opt subtitle "HI-TECH Software Omniscient Code Generator (Lite mode) build 49521"
  3097                           
  3098  0580  2D9B               	goto	l3630
  3099                           opt subtitle "HI-TECH Software Omniscient Code Generator (Lite mode) build 49521"
  3100                           
  3101  0581                     l174:	
  3102                           opt subtitle "HI-TECH Software Omniscient Code Generator (Lite mode) build 49521"
  3103                           
  3104  0581                     l3628:	
  3105                           opt subtitle "HI-TECH Software Omniscient Code Generator (Lite mode) build 49521"
  3106                           
  3107  0581  30C8               	movlw	low(STR_5|8000h)
  3108  0582  1283               	bcf	status, 5	;RP0=0, select bank0
  3109  0583  00C2               	movwf	(?_printf)
  3110  0584  3090               	movlw	high(STR_5|8000h)
  3111  0585  00C3               	movwf	((?_printf))+1
  3112  0586  1683               	bsf	status, 5	;RP0=1, select bank1
  3113  0587  1303               	bcf	status, 6	;RP1=0, select bank1
  3114  0588  0864               	movf	0+(_tx_buf)^080h+01h,w
  3115  0589  00B0               	movwf	(??_main+0)^080h+0+0
  3116  058A  01B1               	clrf	(??_main+0)^080h+0+1
  3117  058B  0830               	movf	0+(??_main+0)^080h+0,w
  3118  058C  1283               	bcf	status, 5	;RP0=0, select bank0
  3119  058D  1303               	bcf	status, 6	;RP1=0, select bank0
  3120  058E  00C4               	movwf	0+(?_printf)+02h
  3121  058F  1683               	bsf	status, 5	;RP0=1, select bank1
  3122  0590  1303               	bcf	status, 6	;RP1=0, select bank1
  3123  0591  0831               	movf	1+(??_main+0)^080h+0,w
  3124  0592  1283               	bcf	status, 5	;RP0=0, select bank0
  3125  0593  1303               	bcf	status, 6	;RP1=0, select bank0
  3126  0594  00C5               	movwf	1+(?_printf)+02h
  3127  0595  120A  158A  2600   	fcall	_printf
              120A  118A         
  3128  059A  2D9B               	goto	l3630
  3129                           opt subtitle "HI-TECH Software Omniscient Code Generator (Lite mode) build 49521"
  3130  059B                     l177:	
  3131                           opt subtitle "HI-TECH Software Omniscient Code Generator (Lite mode) build 49521"
  3132                           
  3133  059B                     l3630:	
  3134                           opt subtitle "HI-TECH Software Omniscient Code Generator (Lite mode) build 49521"
  3135  059B  1283               	bcf	status, 5	;RP0=0, select bank0
  3136  059C  1303               	bcf	status, 6	;RP1=0, select bank0
  3137  059D  1107               	bcf	(7),2	;volatile
  3138                           opt subtitle "HI-TECH Software Omniscient Code Generator (Lite mode) build 49521"
  3139                           
  3140  059E                     l3632:	
  3141                           opt subtitle "HI-TECH Software Omniscient Code Generator (Lite mode) build 49521"
  3142  059E  3000               	movlw	(0)
  3143  059F  120A  158A  2178   	fcall	_rfm70setPowerdownMode
              120A  118A         
  3144                           opt subtitle "HI-TECH Software Omniscient Code Generator (Lite mode) build 49521"
  3145                           
  3146  05A4                     l3634:	
  3147                           opt subtitle "HI-TECH Software Omniscient Code Generator (Lite mode) build 49521"
  3148  05A4  1283               	bcf	status, 5	;RP0=0, select bank0
  3149  05A5  1303               	bcf	status, 6	;RP1=0, select bank0
  3150  05A6  1010               	bcf	(16),0	;volatile
  3151                           opt subtitle "HI-TECH Software Omniscient Code Generator (Lite mode) build 49521"
  3152                           
  3153  05A7                     l3636:	
  3154                           opt subtitle "HI-TECH Software Omniscient Code Generator (Lite mode) build 49521"
  3155  05A7  3010               	movlw	(010h)
  3156  05A8  008F               	movwf	(15)	;volatile
  3157                           opt subtitle "HI-TECH Software Omniscient Code Generator (Lite mode) build 49521"
  3158                           
  3159  05A9                     l3638:	
  3160                           opt subtitle "HI-TECH Software Omniscient Code Generator (Lite mode) build 49521"
  3161  05A9  018E               	clrf	(14)	;volatile
  3162                           opt subtitle "HI-TECH Software Omniscient Code Generator (Lite mode) build 49521"
  3163                           
  3164  05AA                     l3640:	
  3165                           opt subtitle "HI-TECH Software Omniscient Code Generator (Lite mode) build 49521"
  3166  05AA  1410               	bsf	(16),0	;volatile
  3167                           opt subtitle "HI-TECH Software Omniscient Code Generator (Lite mode) build 49521"
  3168                           
  3169  05AB                     l3642:	
  3170                           opt subtitle "HI-TECH Software Omniscient Code Generator (Lite mode) build 49521"
  3171  05AB  3011               	movlw	low(STR_6|8000h)
  3172  05AC  00C2               	movwf	(?_printf)
  3173  05AD  3091               	movlw	high(STR_6|8000h)
  3174  05AE  00C3               	movwf	((?_printf))+1
  3175  05AF  0859               	movf	(_sleep_counter),w
  3176  05B0  1683               	bsf	status, 5	;RP0=1, select bank1
  3177  05B1  1303               	bcf	status, 6	;RP1=0, select bank1
  3178  05B2  00B0               	movwf	(??_main+0)^080h+0+0
  3179  05B3  01B1               	clrf	(??_main+0)^080h+0+1
  3180  05B4  0830               	movf	0+(??_main+0)^080h+0,w
  3181  05B5  1283               	bcf	status, 5	;RP0=0, select bank0
  3182  05B6  1303               	bcf	status, 6	;RP1=0, select bank0
  3183  05B7  00C4               	movwf	0+(?_printf)+02h
  3184  05B8  1683               	bsf	status, 5	;RP0=1, select bank1
  3185  05B9  1303               	bcf	status, 6	;RP1=0, select bank1
  3186  05BA  0831               	movf	1+(??_main+0)^080h+0,w
  3187  05BB  1283               	bcf	status, 5	;RP0=0, select bank0
  3188  05BC  1303               	bcf	status, 6	;RP1=0, select bank0
  3189  05BD  00C5               	movwf	1+(?_printf)+02h
  3190  05BE  120A  158A  2600   	fcall	_printf
              120A  118A         
  3191                           opt subtitle "HI-TECH Software Omniscient Code Generator (Lite mode) build 49521"
  3192                           
  3193  05C3                     l3644:	
  3194                           opt subtitle "HI-TECH Software Omniscient Code Generator (Lite mode) build 49521"
  3195  05C3  1683               	bsf	status, 5	;RP0=1, select bank1
  3196  05C4  1303               	bcf	status, 6	;RP1=0, select bank1
  3197  05C5  01D4               	clrf	(main@num_sleep)^080h
  3198                           opt subtitle "HI-TECH Software Omniscient Code Generator (Lite mode) build 49521"
  3199                           
  3200  05C6  2DF6               	goto	l3650
  3201                           opt subtitle "HI-TECH Software Omniscient Code Generator (Lite mode) build 49521"
  3202  05C7                     l179:	
  3203                           opt subtitle "HI-TECH Software Omniscient Code Generator (Lite mode) build 49521"
  3204                           
  3205  05C7                     l3646:	
  3206                           opt subtitle "HI-TECH Software Omniscient Code Generator (Lite mode) build 49521"
  3207  05C7  304D               	movlw	low(STR_7|8000h)
  3208  05C8  1283               	bcf	status, 5	;RP0=0, select bank0
  3209  05C9  1303               	bcf	status, 6	;RP1=0, select bank0
  3210  05CA  00C2               	movwf	(?_printf)
  3211  05CB  3091               	movlw	high(STR_7|8000h)
  3212  05CC  00C3               	movwf	((?_printf))+1
  3213  05CD  1683               	bsf	status, 5	;RP0=1, select bank1
  3214  05CE  1303               	bcf	status, 6	;RP1=0, select bank1
  3215  05CF  0854               	movf	(main@num_sleep)^080h,w
  3216  05D0  00B0               	movwf	(??_main+0)^080h+0+0
  3217  05D1  01B1               	clrf	(??_main+0)^080h+0+1
  3218  05D2  0830               	movf	0+(??_main+0)^080h+0,w
  3219  05D3  1283               	bcf	status, 5	;RP0=0, select bank0
  3220  05D4  1303               	bcf	status, 6	;RP1=0, select bank0
  3221  05D5  00C4               	movwf	0+(?_printf)+02h
  3222  05D6  1683               	bsf	status, 5	;RP0=1, select bank1
  3223  05D7  1303               	bcf	status, 6	;RP1=0, select bank1
  3224  05D8  0831               	movf	1+(??_main+0)^080h+0,w
  3225  05D9  1283               	bcf	status, 5	;RP0=0, select bank0
  3226  05DA  1303               	bcf	status, 6	;RP1=0, select bank0
  3227  05DB  00C5               	movwf	1+(?_printf)+02h
  3228  05DC  1683               	bsf	status, 5	;RP0=1, select bank1
  3229  05DD  1303               	bcf	status, 6	;RP1=0, select bank1
  3230  05DE  0862               	movf	(_sleep_count)^080h,w
  3231  05DF  00B2               	movwf	(??_main+2)^080h+0+0
  3232  05E0  01B3               	clrf	(??_main+2)^080h+0+1
  3233  05E1  0832               	movf	0+(??_main+2)^080h+0,w
  3234  05E2  1283               	bcf	status, 5	;RP0=0, select bank0
  3235  05E3  1303               	bcf	status, 6	;RP1=0, select bank0
  3236  05E4  00C6               	movwf	0+(?_printf)+04h
  3237  05E5  1683               	bsf	status, 5	;RP0=1, select bank1
  3238  05E6  1303               	bcf	status, 6	;RP1=0, select bank1
  3239  05E7  0833               	movf	1+(??_main+2)^080h+0,w
  3240  05E8  1283               	bcf	status, 5	;RP0=0, select bank0
  3241  05E9  1303               	bcf	status, 6	;RP1=0, select bank0
  3242  05EA  00C7               	movwf	1+(?_printf)+04h
  3243  05EB  120A  158A  2600   	fcall	_printf
              120A  118A         
  3244                           opt subtitle "HI-TECH Software Omniscient Code Generator (Lite mode) build 49521"
  3245                           
  3246  05F0                     l3648:	
  3247                           opt subtitle "HI-TECH Software Omniscient Code Generator (Lite mode) build 49521"
  3248  05F0  120A  158A  249C   	fcall	_sleep
              120A  118A         
  3249  05F5  2DF6               	goto	l3650
  3250                           opt subtitle "HI-TECH Software Omniscient Code Generator (Lite mode) build 49521"
  3251                           
  3252  05F6                     l178:	
  3253                           opt subtitle "HI-TECH Software Omniscient Code Generator (Lite mode) build 49521"
  3254                           
  3255  05F6                     l3650:	
  3256  05F6  3001               	movlw	01h
  3257  05F7  1683               	bsf	status, 5	;RP0=1, select bank1
  3258  05F8  1303               	bcf	status, 6	;RP1=0, select bank1
  3259  05F9  07D4               	addwf	(main@num_sleep)^080h,f
  3260  05FA  30FF               	movlw	-01h
  3261  05FB  0754               	addwf	(main@num_sleep)^080h,w
  3262  05FC  00B0               	movwf	(??_main+0)^080h+0
  3263  05FD  0862               	movf	(_sleep_count)^080h,w
  3264  05FE  0230               	subwf	(??_main+0)^080h+0,w
  3265  05FF  1C03               	skipc
  3266  0600  2E02               	goto	u3041
  3267  0601  2E03               	goto	u3040
  3268  0602                     u3041:
  3269  0602  2DC7               	goto	l3646
  3270  0603                     u3040:
  3271  0603  2E04               	goto	l3652
  3272                           opt subtitle "HI-TECH Software Omniscient Code Generator (Lite mode) build 49521"
  3273  0604                     l180:	
  3274                           opt subtitle "HI-TECH Software Omniscient Code Generator (Lite mode) build 49521"
  3275                           
  3276  0604                     l3652:	
  3277                           opt subtitle "HI-TECH Software Omniscient Code Generator (Lite mode) build 49521"
  3278                           
  3279  0604  3001               	movlw	low(01h)
  3280  0605  07DB               	addwf	(_timelapse_count)^080h,f
  3281  0606  1803               	skipnc
  3282  0607  0ADC               	incf	(_timelapse_count+1)^080h,f
  3283  0608  3000               	movlw	high(01h)
  3284  0609  07DC               	addwf	(_timelapse_count+1)^080h,f
  3285  060A  2C9E               	goto	l3590
  3286                           opt subtitle "HI-TECH Software Omniscient Code Generator (Lite mode) build 49521"
  3287                           
  3288  060B                     l181:	
  3289                           opt subtitle "HI-TECH Software Omniscient Code Generator (Lite mode) build 49521"
  3290  060B  2C9E               	goto	l3590
  3291                           opt subtitle "HI-TECH Software Omniscient Code Generator (Lite mode) build 49521"
  3292  060C                     l182:	
  3293                           opt subtitle "HI-TECH Software Omniscient Code Generator (Lite mode) build 49521"
  3294                           
  3295                           opt pagewidth 120
  3296                           
  3297                           	opt lm
  3298  060C                     l183:	
  3299                           opt subtitle "HI-TECH Software Omniscient Code Generator (Lite mode) build 49521"
  3300  060C  120A  118A  2812   	ljmp	start
  3301                           opt subtitle "HI-TECH Software Omniscient Code Generator (Lite mode) build 49521"
  3302                           
  3303  060F                     	__end_of_main:
  3304                           opt subtitle "HI-TECH Software Omniscient Code Generator (Lite mode) build 49521"
  3305                           
  3306                           opt pagewidth 120
  3307                           
  3308                           	opt lm
  3309                           
  3310                           	processor	16LF707
  3311                           clrc	macro
  3312                           	bcf	3,0
  3313                           	endm
  3314                           clrz	macro
  3315                           	bcf	3,2
  3316                           	endm
  3317                           setc	macro
  3318                           	bsf	3,0
  3319                           	endm
  3320                           setz	macro
  3321                           	bsf	3,2
  3322                           	endm
  3323                           skipc	macro
  3324                           	btfss	3,0
  3325                           	endm
  3326                           skipz	macro
  3327                           	btfss	3,2
  3328                           	endm
  3329                           skipnc	macro
  3330                           	btfsc	3,0
  3331                           	endm
  3332                           skipnz	macro
  3333                           	btfsc	3,2
  3334                           	endm
  3335                           indf	equ	0
  3336                           indf0	equ	0
  3337                           pc	equ	2
  3338  08F0                     __ptext1031:	;psect for function _spiInit
  3339                           opt subtitle "HI-TECH Software Omniscient Code Generator (Lite mode) build 49521"
  3340                           
  3341                           opt pagewidth 120
  3342                           
  3343  0018                     	__size_of_spiInit	equ	__end_of_spiInit-_spiInit
  3344                           opt subtitle "HI-TECH Software Omniscient Code Generator (Lite mode) build 49521"
  3345  08F0                     _spiInit:	
  3346                           opt subtitle "HI-TECH Software Omniscient Code Generator (Lite mode) build 49521"
  3347                           
  3348                           opt pagewidth 120
  3349                           
  3350  08F0                     l2552:	
  3351                           opt subtitle "HI-TECH Software Omniscient Code Generator (Lite mode) build 49521"
  3352  08F0  1283               	bcf	status, 5	;RP0=0, select bank0
  3353  08F1  1303               	bcf	status, 6	;RP1=0, select bank0
  3354  08F2  1694               	bsf	(20),5	;volatile
  3355                           opt subtitle "HI-TECH Software Omniscient Code Generator (Lite mode) build 49521"
  3356                           
  3357  08F3  1214               	bcf	(20),4	;volatile
  3358                           opt subtitle "HI-TECH Software Omniscient Code Generator (Lite mode) build 49521"
  3359                           
  3360  08F4                     l2554:	
  3361                           opt subtitle "HI-TECH Software Omniscient Code Generator (Lite mode) build 49521"
  3362  08F4  0814               	movf	(20),w	;volatile
  3363  08F5  39F0               	andlw	not (((1<<4)-1)<<0)
  3364  08F6  3802               	iorlw	(02h & ((1<<4)-1))<<0
  3365  08F7  0094               	movwf	(20)	;volatile
  3366                           opt subtitle "HI-TECH Software Omniscient Code Generator (Lite mode) build 49521"
  3367                           
  3368  08F8                     l2556:	
  3369                           opt subtitle "HI-TECH Software Omniscient Code Generator (Lite mode) build 49521"
  3370  08F8  1683               	bsf	status, 5	;RP0=1, select bank1
  3371  08F9  1303               	bcf	status, 6	;RP1=0, select bank1
  3372  08FA  1394               	bcf	(148)^080h,7	;volatile
  3373                           opt subtitle "HI-TECH Software Omniscient Code Generator (Lite mode) build 49521"
  3374                           
  3375  08FB                     l2558:	
  3376                           opt subtitle "HI-TECH Software Omniscient Code Generator (Lite mode) build 49521"
  3377  08FB  1714               	bsf	(148)^080h,6	;volatile
  3378                           opt subtitle "HI-TECH Software Omniscient Code Generator (Lite mode) build 49521"
  3379                           
  3380  08FC                     l2560:	
  3381                           opt subtitle "HI-TECH Software Omniscient Code Generator (Lite mode) build 49521"
  3382                           
  3383  08FC  3082               movlw	130
  3384  08FD  1283               	bcf	status, 5	;RP0=0, select bank0
  3385  08FE  1303               	bcf	status, 6	;RP1=0, select bank0
  3386  08FF  00B5               movwf	((??_spiInit+0)+0+1),f
  3387  0900  30DD               	movlw	221
  3388  0901  00B4               movwf	((??_spiInit+0)+0),f
  3389  0902                     u3717:
  3390  0902  0BB4               	decfsz	((??_spiInit+0)+0),f
  3391  0903  2902               	goto	u3717
  3392  0904  0BB5               	decfsz	((??_spiInit+0)+0+1),f
  3393  0905  2902               	goto	u3717
  3394  0906  2907               	nop2
  3395                           opt subtitle "HI-TECH Software Omniscient Code Generator (Lite mode) build 49521"
  3396                           
  3397                           opt pagewidth 120
  3398                           
  3399  0907                     l223:	
  3400  0907  0008               	return
  3401                           opt subtitle "HI-TECH Software Omniscient Code Generator (Lite mode) build 49521"
  3402                           
  3403  0908                     	__end_of_spiInit:
  3404                           opt subtitle "HI-TECH Software Omniscient Code Generator (Lite mode) build 49521"
  3405                           
  3406                           opt pagewidth 120
  3407                           
  3408                           	opt lm
  3409                           
  3410                           	processor	16LF707
  3411                           clrc	macro
  3412                           	bcf	3,0
  3413                           	endm
  3414                           clrz	macro
  3415                           	bcf	3,2
  3416                           	endm
  3417                           setc	macro
  3418                           	bsf	3,0
  3419                           	endm
  3420                           setz	macro
  3421                           	bsf	3,2
  3422                           	endm
  3423                           skipc	macro
  3424                           	btfss	3,0
  3425                           	endm
  3426                           skipz	macro
  3427                           	btfss	3,2
  3428                           	endm
  3429                           skipnc	macro
  3430                           	btfsc	3,0
  3431                           	endm
  3432                           skipnz	macro
  3433                           	btfsc	3,2
  3434                           	endm
  3435                           indf	equ	0
  3436                           indf0	equ	0
  3437                           pc	equ	2
  3438  08DA                     __ptext1032:	;psect for function _uartInit
  3439                           opt subtitle "HI-TECH Software Omniscient Code Generator (Lite mode) build 49521"
  3440                           
  3441                           opt pagewidth 120
  3442                           
  3443  0016                     	__size_of_uartInit	equ	__end_of_uartInit-_uartInit
  3444                           opt subtitle "HI-TECH Software Omniscient Code Generator (Lite mode) build 49521"
  3445  08DA                     _uartInit:	
  3446                           opt subtitle "HI-TECH Software Omniscient Code Generator (Lite mode) build 49521"
  3447                           
  3448                           opt pagewidth 120
  3449                           
  3450  08DA                     l2562:	
  3451                           opt subtitle "HI-TECH Software Omniscient Code Generator (Lite mode) build 49521"
  3452  08DA  1683               	bsf	status, 5	;RP0=1, select bank1
  3453  08DB  1303               	bcf	status, 6	;RP1=0, select bank1
  3454  08DC  1787               	bsf	(135)^080h,7	;volatile
  3455                           opt subtitle "HI-TECH Software Omniscient Code Generator (Lite mode) build 49521"
  3456                           
  3457  08DD  1307               	bcf	(135)^080h,6	;volatile
  3458                           opt subtitle "HI-TECH Software Omniscient Code Generator (Lite mode) build 49521"
  3459                           
  3460  08DE                     l2564:	
  3461                           opt subtitle "HI-TECH Software Omniscient Code Generator (Lite mode) build 49521"
  3462  08DE  3002               	movlw	(02h)
  3463  08DF  0098               	movwf	(152)^080h	;volatile
  3464                           opt subtitle "HI-TECH Software Omniscient Code Generator (Lite mode) build 49521"
  3465                           
  3466  08E0                     l2566:	
  3467                           opt subtitle "HI-TECH Software Omniscient Code Generator (Lite mode) build 49521"
  3468  08E0  1283               	bcf	status, 5	;RP0=0, select bank0
  3469  08E1  1303               	bcf	status, 6	;RP1=0, select bank0
  3470  08E2  0198               	clrf	(24)	;volatile
  3471                           opt subtitle "HI-TECH Software Omniscient Code Generator (Lite mode) build 49521"
  3472                           
  3473  08E3                     l2568:	
  3474                           opt subtitle "HI-TECH Software Omniscient Code Generator (Lite mode) build 49521"
  3475  08E3  1683               	bsf	status, 5	;RP0=1, select bank1
  3476  08E4  1303               	bcf	status, 6	;RP1=0, select bank1
  3477  08E5  1118               	bcf	(152)^080h,2	;volatile
  3478                           opt subtitle "HI-TECH Software Omniscient Code Generator (Lite mode) build 49521"
  3479                           
  3480  08E6                     l2570:	
  3481                           opt subtitle "HI-TECH Software Omniscient Code Generator (Lite mode) build 49521"
  3482  08E6  1218               	bcf	(152)^080h,4	;volatile
  3483                           opt subtitle "HI-TECH Software Omniscient Code Generator (Lite mode) build 49521"
  3484                           
  3485  08E7                     l2572:	
  3486                           opt subtitle "HI-TECH Software Omniscient Code Generator (Lite mode) build 49521"
  3487  08E7  300C               	movlw	(0Ch)
  3488  08E8  0099               	movwf	(153)^080h	;volatile
  3489                           opt subtitle "HI-TECH Software Omniscient Code Generator (Lite mode) build 49521"
  3490                           
  3491  08E9                     l2574:	
  3492                           opt subtitle "HI-TECH Software Omniscient Code Generator (Lite mode) build 49521"
  3493  08E9  1283               	bcf	status, 5	;RP0=0, select bank0
  3494  08EA  1303               	bcf	status, 6	;RP1=0, select bank0
  3495  08EB  1798               	bsf	(24),7	;volatile
  3496                           opt subtitle "HI-TECH Software Omniscient Code Generator (Lite mode) build 49521"
  3497                           
  3498  08EC                     l2576:	
  3499                           opt subtitle "HI-TECH Software Omniscient Code Generator (Lite mode) build 49521"
  3500  08EC  1683               	bsf	status, 5	;RP0=1, select bank1
  3501  08ED  1303               	bcf	status, 6	;RP1=0, select bank1
  3502  08EE  1698               	bsf	(152)^080h,5	;volatile
  3503                           opt subtitle "HI-TECH Software Omniscient Code Generator (Lite mode) build 49521"
  3504                           
  3505  08EF                     l220:	
  3506  08EF  0008               	return
  3507                           opt subtitle "HI-TECH Software Omniscient Code Generator (Lite mode) build 49521"
  3508                           
  3509  08F0                     	__end_of_uartInit:
  3510                           opt subtitle "HI-TECH Software Omniscient Code Generator (Lite mode) build 49521"
  3511                           
  3512                           opt pagewidth 120
  3513                           
  3514                           	opt lm
  3515                           
  3516                           	processor	16LF707
  3517                           clrc	macro
  3518                           	bcf	3,0
  3519                           	endm
  3520                           clrz	macro
  3521                           	bcf	3,2
  3522                           	endm
  3523                           setc	macro
  3524                           	bsf	3,0
  3525                           	endm
  3526                           setz	macro
  3527                           	bsf	3,2
  3528                           	endm
  3529                           skipc	macro
  3530                           	btfss	3,0
  3531                           	endm
  3532                           skipz	macro
  3533                           	btfss	3,2
  3534                           	endm
  3535                           skipnc	macro
  3536                           	btfsc	3,0
  3537                           	endm
  3538                           skipnz	macro
  3539                           	btfsc	3,2
  3540                           	endm
  3541                           indf	equ	0
  3542                           indf0	equ	0
  3543                           pc	equ	2
  3544  088F                     __ptext1033:	;psect for function _adcInit
  3545                           opt subtitle "HI-TECH Software Omniscient Code Generator (Lite mode) build 49521"
  3546                           
  3547                           opt pagewidth 120
  3548                           
  3549  000A                     	__size_of_adcInit	equ	__end_of_adcInit-_adcInit
  3550                           opt subtitle "HI-TECH Software Omniscient Code Generator (Lite mode) build 49521"
  3551  088F                     _adcInit:	
  3552                           opt subtitle "HI-TECH Software Omniscient Code Generator (Lite mode) build 49521"
  3553                           
  3554                           opt pagewidth 120
  3555                           
  3556  088F                     l2578:	
  3557                           opt subtitle "HI-TECH Software Omniscient Code Generator (Lite mode) build 49521"
  3558  088F  1683               	bsf	status, 5	;RP0=1, select bank1
  3559  0890  1303               	bcf	status, 6	;RP1=0, select bank1
  3560  0891  081F               	movf	(159)^080h,w	;volatile
  3561  0892  398F               	andlw	not (((1<<3)-1)<<4)
  3562  0893  3810               	iorlw	(01h & ((1<<3)-1))<<4
  3563  0894  009F               	movwf	(159)^080h	;volatile
  3564                           opt subtitle "HI-TECH Software Omniscient Code Generator (Lite mode) build 49521"
  3565                           
  3566  0895  3003               	movlw	(03h & ((1<<2)-1))<<0
  3567  0896  049F               	iorwf	(159)^080h,f	;volatile
  3568                           opt subtitle "HI-TECH Software Omniscient Code Generator (Lite mode) build 49521"
  3569                           
  3570  0897                     l2580:	
  3571                           opt subtitle "HI-TECH Software Omniscient Code Generator (Lite mode) build 49521"
  3572  0897  171D               	bsf	(157)^080h,6	;volatile
  3573                           opt subtitle "HI-TECH Software Omniscient Code Generator (Lite mode) build 49521"
  3574                           
  3575  0898                     l226:	
  3576  0898  0008               	return
  3577                           opt subtitle "HI-TECH Software Omniscient Code Generator (Lite mode) build 49521"
  3578                           
  3579  0899                     	__end_of_adcInit:
  3580                           opt subtitle "HI-TECH Software Omniscient Code Generator (Lite mode) build 49521"
  3581                           
  3582                           opt pagewidth 120
  3583                           
  3584                           	opt lm
  3585                           
  3586                           	processor	16LF707
  3587                           clrc	macro
  3588                           	bcf	3,0
  3589                           	endm
  3590                           clrz	macro
  3591                           	bcf	3,2
  3592                           	endm
  3593                           setc	macro
  3594                           	bsf	3,0
  3595                           	endm
  3596                           setz	macro
  3597                           	bsf	3,2
  3598                           	endm
  3599                           skipc	macro
  3600                           	btfss	3,0
  3601                           	endm
  3602                           skipz	macro
  3603                           	btfss	3,2
  3604                           	endm
  3605                           skipnc	macro
  3606                           	btfsc	3,0
  3607                           	endm
  3608                           skipnz	macro
  3609                           	btfsc	3,2
  3610                           	endm
  3611                           indf	equ	0
  3612                           indf0	equ	0
  3613                           pc	equ	2
  3614                           pcl	equ	2
  3615                           status	equ	3
  3616  0978                     __ptext1034:	;psect for function _rfm70setPowerdownMode
  3617                           opt subtitle "HI-TECH Software Omniscient Code Generator (Lite mode) build 49521"
  3618                           
  3619                           opt pagewidth 120
  3620                           
  3621  0025                     	__size_of_rfm70setPowerdownMode	equ	__end_of_rfm70setPowerdownMode-_rfm70setPowerdownMo
                                 de
  3622                           opt subtitle "HI-TECH Software Omniscient Code Generator (Lite mode) build 49521"
  3623  0978                     _rfm70setPowerdownMode:	
  3624                           opt subtitle "HI-TECH Software Omniscient Code Generator (Lite mode) build 49521"
  3625                           
  3626                           opt pagewidth 120
  3627                           
  3628  0978  1283               	bcf	status, 5	;RP0=0, select bank0
  3629  0979  1303               	bcf	status, 6	;RP1=0, select bank0
  3630  097A  00BB               	movwf	(rfm70setPowerdownMode@value)
  3631                           opt subtitle "HI-TECH Software Omniscient Code Generator (Lite mode) build 49521"
  3632  097B                     l3654:	
  3633                           opt subtitle "HI-TECH Software Omniscient Code Generator (Lite mode) build 49521"
  3634                           
  3635  097B  3000               	movlw	(0)
  3636  097C  120A  158A  2121   	fcall	_SPI_Read_Reg
              120A  158A         
  3637  0981  1283               	bcf	status, 5	;RP0=0, select bank0
  3638  0982  1303               	bcf	status, 6	;RP1=0, select bank0
  3639  0983  00BA               	movwf	(??_rfm70setPowerdownMode+0)+0
  3640  0984  083A               	movf	(??_rfm70setPowerdownMode+0)+0,w
  3641  0985  00BC               	movwf	(rfm70setPowerdownMode@reg)
  3642                           opt subtitle "HI-TECH Software Omniscient Code Generator (Lite mode) build 49521"
  3643                           
  3644  0986                     l3656:	
  3645                           opt subtitle "HI-TECH Software Omniscient Code Generator (Lite mode) build 49521"
  3646  0986  08BB               	movf	(rfm70setPowerdownMode@value),f
  3647  0987  1D03               	skipz
  3648  0988  298A               	goto	u3051
  3649  0989  298B               	goto	u3050
  3650  098A                     u3051:
  3651  098A  2990               	goto	l380
  3652  098B                     u3050:
  3653                           opt subtitle "HI-TECH Software Omniscient Code Generator (Lite mode) build 49521"
  3654                           
  3655  098B                     l3658:	
  3656                           opt subtitle "HI-TECH Software Omniscient Code Generator (Lite mode) build 49521"
  3657  098B  30FD               	movlw	(0FDh)
  3658  098C  00BA               	movwf	(??_rfm70setPowerdownMode+0)+0
  3659  098D  083A               	movf	(??_rfm70setPowerdownMode+0)+0,w
  3660  098E  05BC               	andwf	(rfm70setPowerdownMode@reg),f
  3661                           opt subtitle "HI-TECH Software Omniscient Code Generator (Lite mode) build 49521"
  3662                           
  3663  098F  2992               	goto	l3660
  3664                           opt subtitle "HI-TECH Software Omniscient Code Generator (Lite mode) build 49521"
  3665                           
  3666  0990                     l380:	
  3667                           opt subtitle "HI-TECH Software Omniscient Code Generator (Lite mode) build 49521"
  3668                           
  3669                           opt pagewidth 120
  3670  0990  14BC               	bsf	(rfm70setPowerdownMode@reg)+(1/8),(1)&7
  3671  0991  2992               	goto	l3660
  3672                           opt subtitle "HI-TECH Software Omniscient Code Generator (Lite mode) build 49521"
  3673                           
  3674  0992                     l381:	
  3675                           opt subtitle "HI-TECH Software Omniscient Code Generator (Lite mode) build 49521"
  3676                           
  3677  0992                     l3660:	
  3678                           opt subtitle "HI-TECH Software Omniscient Code Generator (Lite mode) build 49521"
  3679                           
  3680  0992  083C               	movf	(rfm70setPowerdownMode@reg),w
  3681  0993  00BA               	movwf	(??_rfm70setPowerdownMode+0)+0
  3682  0994  083A               	movf	(??_rfm70setPowerdownMode+0)+0,w
  3683  0995  00B7               	movwf	(?_SPI_Write_Reg)
  3684  0996  3020               	movlw	(020h)
  3685  0997  120A  158A  20C4   	fcall	_SPI_Write_Reg
              120A  158A         
  3686                           opt subtitle "HI-TECH Software Omniscient Code Generator (Lite mode) build 49521"
  3687                           
  3688  099C                     l382:	
  3689  099C  0008               	return
  3690                           opt subtitle "HI-TECH Software Omniscient Code Generator (Lite mode) build 49521"
  3691                           
  3692  099D                     	__end_of_rfm70setPowerdownMode:
  3693                           opt subtitle "HI-TECH Software Omniscient Code Generator (Lite mode) build 49521"
  3694                           
  3695                           opt pagewidth 120
  3696                           
  3697                           	opt lm
  3698                           
  3699                           	processor	16LF707
  3700                           clrc	macro
  3701                           	bcf	3,0
  3702                           	endm
  3703                           clrz	macro
  3704                           	bcf	3,2
  3705                           	endm
  3706                           setc	macro
  3707                           	bsf	3,0
  3708                           	endm
  3709                           setz	macro
  3710                           	bsf	3,2
  3711                           	endm
  3712                           skipc	macro
  3713                           	btfss	3,0
  3714                           	endm
  3715                           skipz	macro
  3716                           	btfss	3,2
  3717                           	endm
  3718                           skipnc	macro
  3719                           	btfsc	3,0
  3720                           	endm
  3721                           skipnz	macro
  3722                           	btfsc	3,2
  3723                           	endm
  3724                           indf	equ	0
  3725                           indf0	equ	0
  3726                           pc	equ	2
  3727                           pcl	equ	2
  3728                           status	equ	3
  3729                           fsr	equ	4
  3730                           fsr0	equ	4
  3731                           c	equ	1
  3732  0015                     __ptext1035:	;psect for function _RFM70_Initialize
  3733                           opt subtitle "HI-TECH Software Omniscient Code Generator (Lite mode) build 49521"
  3734                           
  3735                           opt pagewidth 120
  3736                           
  3737  0310                     	__size_of_RFM70_Initialize	equ	__end_of_RFM70_Initialize-_RFM70_Initialize
  3738                           opt subtitle "HI-TECH Software Omniscient Code Generator (Lite mode) build 49521"
  3739  0015                     _RFM70_Initialize:	
  3740                           opt subtitle "HI-TECH Software Omniscient Code Generator (Lite mode) build 49521"
  3741                           
  3742                           opt pagewidth 120
  3743                           
  3744  0015                     l3662:	
  3745                           opt subtitle "HI-TECH Software Omniscient Code Generator (Lite mode) build 49521"
  3746                           
  3747                           opt pagewidth 120
  3748                           
  3749  0015  3003               movlw  3
  3750  0016  1283               	bcf	status, 5	;RP0=0, select bank0
  3751  0017  1303               	bcf	status, 6	;RP1=0, select bank0
  3752  0018  00BF               movwf	((??_RFM70_Initialize+0)+0+2),f
  3753  0019  3008               movlw	8
  3754  001A  00BE               movwf	((??_RFM70_Initialize+0)+0+1),f
  3755  001B  3078               	movlw	120
  3756  001C  00BD               movwf	((??_RFM70_Initialize+0)+0),f
  3757  001D                     u3727:
  3758  001D  0BBD               	decfsz	((??_RFM70_Initialize+0)+0),f
  3759  001E  281D               	goto	u3727
  3760  001F  0BBE               	decfsz	((??_RFM70_Initialize+0)+0+1),f
  3761  0020  281D               	goto	u3727
  3762  0021  0BBF               	decfsz	((??_RFM70_Initialize+0)+0+2),f
  3763  0022  281D               	goto	u3727
  3764                           opt subtitle "HI-TECH Software Omniscient Code Generator (Lite mode) build 49521"
  3765                           
  3766                           opt pagewidth 120
  3767                           
  3768  0023                     l3664:	
  3769                           opt subtitle "HI-TECH Software Omniscient Code Generator (Lite mode) build 49521"
  3770  0023  3000               	movlw	(0)
  3771  0024  120A  158A  229C   	fcall	_SwitchCFG
              120A  118A         
  3772                           opt subtitle "HI-TECH Software Omniscient Code Generator (Lite mode) build 49521"
  3773                           
  3774  0029                     l3666:	
  3775                           opt subtitle "HI-TECH Software Omniscient Code Generator (Lite mode) build 49521"
  3776  0029  1283               	bcf	status, 5	;RP0=0, select bank0
  3777  002A  1303               	bcf	status, 6	;RP1=0, select bank0
  3778  002B  01D0               	clrf	(RFM70_Initialize@i)
  3779                           opt subtitle "HI-TECH Software Omniscient Code Generator (Lite mode) build 49521"
  3780  002C                     l3668:	
  3781  002C  3014               	movlw	(014h)
  3782  002D  0250               	subwf	(RFM70_Initialize@i),w
  3783  002E  1C03               	skipc
  3784  002F  2831               	goto	u3061
  3785  0030  2832               	goto	u3060
  3786  0031                     u3061:
  3787  0031  2834               	goto	l3672
  3788  0032                     u3060:
  3789  0032  2864               	goto	l335
  3790                           opt subtitle "HI-TECH Software Omniscient Code Generator (Lite mode) build 49521"
  3791  0033                     l3670:	
  3792  0033  2864               	goto	l335
  3793                           opt subtitle "HI-TECH Software Omniscient Code Generator (Lite mode) build 49521"
  3794                           
  3795  0034                     l334:	
  3796                           opt subtitle "HI-TECH Software Omniscient Code Generator (Lite mode) build 49521"
  3797                           
  3798  0034                     l3672:	
  3799                           opt subtitle "HI-TECH Software Omniscient Code Generator (Lite mode) build 49521"
  3800                           
  3801  0034  1403               	setc
  3802  0035  0D50               	rlf	(RFM70_Initialize@i),w
  3803  0036  3E4A               	addlw	low(_Bank0_Reg|8000h)
  3804  0037  0084               	movwf	fsr0
  3805  0038  3090               	movlw	high(_Bank0_Reg|8000h)
  3806  0039  1803               	skipnc
  3807  003A  3E01               	addlw	1
  3808  003B  00FF               	movwf	btemp+1
  3809  003C  160A  118A  2000   	fcall	stringtab
              120A  118A         
  3810  0041  00BD               	movwf	(??_RFM70_Initialize+0)+0
  3811  0042  083D               	movf	(??_RFM70_Initialize+0)+0,w
  3812  0043  00B7               	movwf	(?_SPI_Write_Reg)
  3813  0044  0850               	movf	(RFM70_Initialize@i),w
  3814  0045  00BE               	movwf	(??_RFM70_Initialize+1)+0
  3815  0046  073E               	addwf	(??_RFM70_Initialize+1)+0,w
  3816  0047  3E4A               	addlw	low(_Bank0_Reg|8000h)
  3817  0048  0084               	movwf	fsr0
  3818  0049  3090               	movlw	high(_Bank0_Reg|8000h)
  3819  004A  1803               	skipnc
  3820  004B  3E01               	addlw	1
  3821  004C  00FF               	movwf	btemp+1
  3822  004D  160A  118A  2000   	fcall	stringtab
              120A  118A         
  3823  0052  3820               	iorlw	020h
  3824  0053  120A  158A  20C4   	fcall	_SPI_Write_Reg
              120A  118A         
  3825                           opt subtitle "HI-TECH Software Omniscient Code Generator (Lite mode) build 49521"
  3826                           
  3827  0058                     l3674:	
  3828  0058  3001               	movlw	(01h)
  3829  0059  1283               	bcf	status, 5	;RP0=0, select bank0
  3830  005A  1303               	bcf	status, 6	;RP1=0, select bank0
  3831  005B  00BD               	movwf	(??_RFM70_Initialize+0)+0
  3832  005C  083D               	movf	(??_RFM70_Initialize+0)+0,w
  3833  005D  07D0               	addwf	(RFM70_Initialize@i),f
  3834                           opt subtitle "HI-TECH Software Omniscient Code Generator (Lite mode) build 49521"
  3835  005E                     l3676:	
  3836  005E  3014               	movlw	(014h)
  3837  005F  0250               	subwf	(RFM70_Initialize@i),w
  3838  0060  1C03               	skipc
  3839  0061  2863               	goto	u3071
  3840  0062  2864               	goto	u3070
  3841  0063                     u3071:
  3842  0063  2834               	goto	l3672
  3843  0064                     u3070:
  3844                           opt subtitle "HI-TECH Software Omniscient Code Generator (Lite mode) build 49521"
  3845  0064                     l335:	
  3846                           opt subtitle "HI-TECH Software Omniscient Code Generator (Lite mode) build 49521"
  3847                           
  3848                           opt pagewidth 120
  3849  0064  01D1               	clrf	(RFM70_Initialize@j)
  3850                           opt subtitle "HI-TECH Software Omniscient Code Generator (Lite mode) build 49521"
  3851  0065                     l3678:	
  3852  0065  3005               	movlw	(05h)
  3853  0066  0251               	subwf	(RFM70_Initialize@j),w
  3854  0067  1C03               	skipc
  3855  0068  286A               	goto	u3081
  3856  0069  286B               	goto	u3080
  3857  006A                     u3081:
  3858  006A  286D               	goto	l3682
  3859  006B                     u3080:
  3860  006B  288B               	goto	l3688
  3861                           opt subtitle "HI-TECH Software Omniscient Code Generator (Lite mode) build 49521"
  3862  006C                     l3680:	
  3863  006C  288B               	goto	l3688
  3864                           opt subtitle "HI-TECH Software Omniscient Code Generator (Lite mode) build 49521"
  3865                           
  3866  006D                     l336:	
  3867                           opt subtitle "HI-TECH Software Omniscient Code Generator (Lite mode) build 49521"
  3868                           
  3869  006D                     l3682:	
  3870                           opt subtitle "HI-TECH Software Omniscient Code Generator (Lite mode) build 49521"
  3871                           
  3872  006D  0851               	movf	(RFM70_Initialize@j),w
  3873  006E  3E95               	addlw	low(_RX0_Address|8000h)
  3874  006F  0084               	movwf	fsr0
  3875  0070  3090               	movlw	high(_RX0_Address|8000h)
  3876  0071  1803               	skipnc
  3877  0072  3E01               	addlw	1
  3878  0073  00FF               	movwf	btemp+1
  3879  0074  160A  118A  2000   	fcall	stringtab
              120A  118A         
  3880  0079  00BD               	movwf	(??_RFM70_Initialize+0)+0
  3881  007A  0851               	movf	(RFM70_Initialize@j),w
  3882  007B  3E44               	addlw	RFM70_Initialize@WriteArr&0ffh
  3883  007C  0084               	movwf	fsr0
  3884  007D  083D               	movf	(??_RFM70_Initialize+0)+0,w
  3885  007E  1383               	bcf	status, 7	;select IRP bank0
  3886  007F  0080               	movwf	indf
  3887                           opt subtitle "HI-TECH Software Omniscient Code Generator (Lite mode) build 49521"
  3888                           
  3889  0080                     l3684:	
  3890  0080  3001               	movlw	(01h)
  3891  0081  00BD               	movwf	(??_RFM70_Initialize+0)+0
  3892  0082  083D               	movf	(??_RFM70_Initialize+0)+0,w
  3893  0083  07D1               	addwf	(RFM70_Initialize@j),f
  3894                           opt subtitle "HI-TECH Software Omniscient Code Generator (Lite mode) build 49521"
  3895  0084                     l3686:	
  3896  0084  3005               	movlw	(05h)
  3897  0085  0251               	subwf	(RFM70_Initialize@j),w
  3898  0086  1C03               	skipc
  3899  0087  2889               	goto	u3091
  3900  0088  288A               	goto	u3090
  3901  0089                     u3091:
  3902  0089  286D               	goto	l3682
  3903  008A                     u3090:
  3904  008A  288B               	goto	l3688
  3905                           opt subtitle "HI-TECH Software Omniscient Code Generator (Lite mode) build 49521"
  3906  008B                     l337:	
  3907                           opt subtitle "HI-TECH Software Omniscient Code Generator (Lite mode) build 49521"
  3908                           
  3909  008B                     l3688:	
  3910                           opt subtitle "HI-TECH Software Omniscient Code Generator (Lite mode) build 49521"
  3911                           
  3912  008B  3044               	movlw	(RFM70_Initialize@WriteArr)&0ffh
  3913  008C  00BD               	movwf	(??_RFM70_Initialize+0)+0
  3914  008D  083D               	movf	(??_RFM70_Initialize+0)+0,w
  3915  008E  00B7               	movwf	(?_SPI_Write_Buf)
  3916  008F  3005               	movlw	(05h)
  3917  0090  00BE               	movwf	(??_RFM70_Initialize+1)+0
  3918  0091  083E               	movf	(??_RFM70_Initialize+1)+0,w
  3919  0092  00B8               	movwf	0+(?_SPI_Write_Buf)+01h
  3920  0093  302A               	movlw	(02Ah)
  3921  0094  120A  158A  21F0   	fcall	_SPI_Write_Buf
              120A  118A         
  3922                           opt subtitle "HI-TECH Software Omniscient Code Generator (Lite mode) build 49521"
  3923                           
  3924  0099                     l3690:	
  3925                           opt subtitle "HI-TECH Software Omniscient Code Generator (Lite mode) build 49521"
  3926  0099  1283               	bcf	status, 5	;RP0=0, select bank0
  3927  009A  1303               	bcf	status, 6	;RP1=0, select bank0
  3928  009B  01D1               	clrf	(RFM70_Initialize@j)
  3929                           opt subtitle "HI-TECH Software Omniscient Code Generator (Lite mode) build 49521"
  3930  009C                     l3692:	
  3931  009C  3005               	movlw	(05h)
  3932  009D  0251               	subwf	(RFM70_Initialize@j),w
  3933  009E  1C03               	skipc
  3934  009F  28A1               	goto	u3101
  3935  00A0  28A2               	goto	u3100
  3936  00A1                     u3101:
  3937  00A1  28A4               	goto	l3696
  3938  00A2                     u3100:
  3939  00A2  28C2               	goto	l3702
  3940                           opt subtitle "HI-TECH Software Omniscient Code Generator (Lite mode) build 49521"
  3941  00A3                     l3694:	
  3942  00A3  28C2               	goto	l3702
  3943                           opt subtitle "HI-TECH Software Omniscient Code Generator (Lite mode) build 49521"
  3944                           
  3945  00A4                     l338:	
  3946                           opt subtitle "HI-TECH Software Omniscient Code Generator (Lite mode) build 49521"
  3947                           
  3948  00A4                     l3696:	
  3949                           opt subtitle "HI-TECH Software Omniscient Code Generator (Lite mode) build 49521"
  3950                           
  3951  00A4  0851               	movf	(RFM70_Initialize@j),w
  3952  00A5  3E9A               	addlw	low(_RX1_Address|8000h)
  3953  00A6  0084               	movwf	fsr0
  3954  00A7  3090               	movlw	high(_RX1_Address|8000h)
  3955  00A8  1803               	skipnc
  3956  00A9  3E01               	addlw	1
  3957  00AA  00FF               	movwf	btemp+1
  3958  00AB  160A  118A  2000   	fcall	stringtab
              120A  118A         
  3959  00B0  00BD               	movwf	(??_RFM70_Initialize+0)+0
  3960  00B1  0851               	movf	(RFM70_Initialize@j),w
  3961  00B2  3E44               	addlw	RFM70_Initialize@WriteArr&0ffh
  3962  00B3  0084               	movwf	fsr0
  3963  00B4  083D               	movf	(??_RFM70_Initialize+0)+0,w
  3964  00B5  1383               	bcf	status, 7	;select IRP bank0
  3965  00B6  0080               	movwf	indf
  3966                           opt subtitle "HI-TECH Software Omniscient Code Generator (Lite mode) build 49521"
  3967                           
  3968  00B7                     l3698:	
  3969  00B7  3001               	movlw	(01h)
  3970  00B8  00BD               	movwf	(??_RFM70_Initialize+0)+0
  3971  00B9  083D               	movf	(??_RFM70_Initialize+0)+0,w
  3972  00BA  07D1               	addwf	(RFM70_Initialize@j),f
  3973                           opt subtitle "HI-TECH Software Omniscient Code Generator (Lite mode) build 49521"
  3974  00BB                     l3700:	
  3975  00BB  3005               	movlw	(05h)
  3976  00BC  0251               	subwf	(RFM70_Initialize@j),w
  3977  00BD  1C03               	skipc
  3978  00BE  28C0               	goto	u3111
  3979  00BF  28C1               	goto	u3110
  3980  00C0                     u3111:
  3981  00C0  28A4               	goto	l3696
  3982  00C1                     u3110:
  3983  00C1  28C2               	goto	l3702
  3984                           opt subtitle "HI-TECH Software Omniscient Code Generator (Lite mode) build 49521"
  3985  00C2                     l339:	
  3986                           opt subtitle "HI-TECH Software Omniscient Code Generator (Lite mode) build 49521"
  3987                           
  3988  00C2                     l3702:	
  3989                           opt subtitle "HI-TECH Software Omniscient Code Generator (Lite mode) build 49521"
  3990                           
  3991  00C2  3044               	movlw	(RFM70_Initialize@WriteArr)&0ffh
  3992  00C3  00BD               	movwf	(??_RFM70_Initialize+0)+0
  3993  00C4  083D               	movf	(??_RFM70_Initialize+0)+0,w
  3994  00C5  00B7               	movwf	(?_SPI_Write_Buf)
  3995  00C6  3005               	movlw	(05h)
  3996  00C7  00BE               	movwf	(??_RFM70_Initialize+1)+0
  3997  00C8  083E               	movf	(??_RFM70_Initialize+1)+0,w
  3998  00C9  00B8               	movwf	0+(?_SPI_Write_Buf)+01h
  3999  00CA  302B               	movlw	(02Bh)
  4000  00CB  120A  158A  21F0   	fcall	_SPI_Write_Buf
              120A  118A         
  4001                           opt subtitle "HI-TECH Software Omniscient Code Generator (Lite mode) build 49521"
  4002                           
  4003  00D0                     l3704:	
  4004                           opt subtitle "HI-TECH Software Omniscient Code Generator (Lite mode) build 49521"
  4005  00D0  1283               	bcf	status, 5	;RP0=0, select bank0
  4006  00D1  1303               	bcf	status, 6	;RP1=0, select bank0
  4007  00D2  01D1               	clrf	(RFM70_Initialize@j)
  4008                           opt subtitle "HI-TECH Software Omniscient Code Generator (Lite mode) build 49521"
  4009  00D3                     l3706:	
  4010  00D3  3005               	movlw	(05h)
  4011  00D4  0251               	subwf	(RFM70_Initialize@j),w
  4012  00D5  1C03               	skipc
  4013  00D6  28D8               	goto	u3121
  4014  00D7  28D9               	goto	u3120
  4015  00D8                     u3121:
  4016  00D8  28DB               	goto	l3710
  4017  00D9                     u3120:
  4018  00D9  28F9               	goto	l3716
  4019                           opt subtitle "HI-TECH Software Omniscient Code Generator (Lite mode) build 49521"
  4020  00DA                     l3708:	
  4021  00DA  28F9               	goto	l3716
  4022                           opt subtitle "HI-TECH Software Omniscient Code Generator (Lite mode) build 49521"
  4023                           
  4024  00DB                     l340:	
  4025                           opt subtitle "HI-TECH Software Omniscient Code Generator (Lite mode) build 49521"
  4026                           
  4027  00DB                     l3710:	
  4028                           opt subtitle "HI-TECH Software Omniscient Code Generator (Lite mode) build 49521"
  4029                           
  4030  00DB  0851               	movf	(RFM70_Initialize@j),w
  4031  00DC  3E95               	addlw	low(_RX0_Address|8000h)
  4032  00DD  0084               	movwf	fsr0
  4033  00DE  3090               	movlw	high(_RX0_Address|8000h)
  4034  00DF  1803               	skipnc
  4035  00E0  3E01               	addlw	1
  4036  00E1  00FF               	movwf	btemp+1
  4037  00E2  160A  118A  2000   	fcall	stringtab
              120A  118A         
  4038  00E7  00BD               	movwf	(??_RFM70_Initialize+0)+0
  4039  00E8  0851               	movf	(RFM70_Initialize@j),w
  4040  00E9  3E44               	addlw	RFM70_Initialize@WriteArr&0ffh
  4041  00EA  0084               	movwf	fsr0
  4042  00EB  083D               	movf	(??_RFM70_Initialize+0)+0,w
  4043  00EC  1383               	bcf	status, 7	;select IRP bank0
  4044  00ED  0080               	movwf	indf
  4045                           opt subtitle "HI-TECH Software Omniscient Code Generator (Lite mode) build 49521"
  4046                           
  4047  00EE                     l3712:	
  4048  00EE  3001               	movlw	(01h)
  4049  00EF  00BD               	movwf	(??_RFM70_Initialize+0)+0
  4050  00F0  083D               	movf	(??_RFM70_Initialize+0)+0,w
  4051  00F1  07D1               	addwf	(RFM70_Initialize@j),f
  4052                           opt subtitle "HI-TECH Software Omniscient Code Generator (Lite mode) build 49521"
  4053  00F2                     l3714:	
  4054  00F2  3005               	movlw	(05h)
  4055  00F3  0251               	subwf	(RFM70_Initialize@j),w
  4056  00F4  1C03               	skipc
  4057  00F5  28F7               	goto	u3131
  4058  00F6  28F8               	goto	u3130
  4059  00F7                     u3131:
  4060  00F7  28DB               	goto	l3710
  4061  00F8                     u3130:
  4062  00F8  28F9               	goto	l3716
  4063                           opt subtitle "HI-TECH Software Omniscient Code Generator (Lite mode) build 49521"
  4064  00F9                     l341:	
  4065                           opt subtitle "HI-TECH Software Omniscient Code Generator (Lite mode) build 49521"
  4066                           
  4067  00F9                     l3716:	
  4068                           opt subtitle "HI-TECH Software Omniscient Code Generator (Lite mode) build 49521"
  4069                           
  4070  00F9  3044               	movlw	(RFM70_Initialize@WriteArr)&0ffh
  4071  00FA  00BD               	movwf	(??_RFM70_Initialize+0)+0
  4072  00FB  083D               	movf	(??_RFM70_Initialize+0)+0,w
  4073  00FC  00B7               	movwf	(?_SPI_Write_Buf)
  4074  00FD  3005               	movlw	(05h)
  4075  00FE  00BE               	movwf	(??_RFM70_Initialize+1)+0
  4076  00FF  083E               	movf	(??_RFM70_Initialize+1)+0,w
  4077  0100  00B8               	movwf	0+(?_SPI_Write_Buf)+01h
  4078  0101  3030               	movlw	(030h)
  4079  0102  120A  158A  21F0   	fcall	_SPI_Write_Buf
              120A  118A         
  4080                           opt subtitle "HI-TECH Software Omniscient Code Generator (Lite mode) build 49521"
  4081                           
  4082  0107                     l3718:	
  4083                           opt subtitle "HI-TECH Software Omniscient Code Generator (Lite mode) build 49521"
  4084  0107  301D               	movlw	(01Dh)
  4085  0108  120A  158A  2121   	fcall	_SPI_Read_Reg
              120A  118A         
  4086  010D  1283               	bcf	status, 5	;RP0=0, select bank0
  4087  010E  1303               	bcf	status, 6	;RP1=0, select bank0
  4088  010F  00BD               	movwf	(??_RFM70_Initialize+0)+0
  4089  0110  083D               	movf	(??_RFM70_Initialize+0)+0,w
  4090  0111  00D0               	movwf	(RFM70_Initialize@i)
  4091                           opt subtitle "HI-TECH Software Omniscient Code Generator (Lite mode) build 49521"
  4092                           
  4093  0112                     l3720:	
  4094                           opt subtitle "HI-TECH Software Omniscient Code Generator (Lite mode) build 49521"
  4095  0112  08D0               	movf	(RFM70_Initialize@i),f
  4096  0113  1D03               	skipz
  4097  0114  2916               	goto	u3141
  4098  0115  2917               	goto	u3140
  4099  0116                     u3141:
  4100  0116  2922               	goto	l3724
  4101  0117                     u3140:
  4102                           opt subtitle "HI-TECH Software Omniscient Code Generator (Lite mode) build 49521"
  4103                           
  4104  0117                     l3722:	
  4105                           opt subtitle "HI-TECH Software Omniscient Code Generator (Lite mode) build 49521"
  4106  0117  3073               	movlw	(073h)
  4107  0118  00BD               	movwf	(??_RFM70_Initialize+0)+0
  4108  0119  083D               	movf	(??_RFM70_Initialize+0)+0,w
  4109  011A  00B7               	movwf	(?_SPI_Write_Reg)
  4110  011B  3050               	movlw	(050h)
  4111  011C  120A  158A  20C4   	fcall	_SPI_Write_Reg
              120A  118A         
  4112  0121  2922               	goto	l3724
  4113                           opt subtitle "HI-TECH Software Omniscient Code Generator (Lite mode) build 49521"
  4114  0122                     l342:	
  4115                           opt subtitle "HI-TECH Software Omniscient Code Generator (Lite mode) build 49521"
  4116                           
  4117  0122                     l3724:	
  4118                           opt subtitle "HI-TECH Software Omniscient Code Generator (Lite mode) build 49521"
  4119  0122  3016               	movlw	(016h)
  4120  0123  1283               	bcf	status, 5	;RP0=0, select bank0
  4121  0124  1303               	bcf	status, 6	;RP1=0, select bank0
  4122  0125  00BD               	movwf	(??_RFM70_Initialize+0)+0
  4123  0126  083D               	movf	(??_RFM70_Initialize+0)+0,w
  4124  0127  00D0               	movwf	(RFM70_Initialize@i)
  4125                           opt subtitle "HI-TECH Software Omniscient Code Generator (Lite mode) build 49521"
  4126  0128                     l3726:	
  4127  0128  3015               	movlw	(015h)
  4128  0129  0250               	subwf	(RFM70_Initialize@i),w
  4129  012A  1803               	skipnc
  4130  012B  292D               	goto	u3151
  4131  012C  292E               	goto	u3150
  4132  012D                     u3151:
  4133  012D  2930               	goto	l3730
  4134  012E                     u3150:
  4135  012E  295F               	goto	l3736
  4136                           opt subtitle "HI-TECH Software Omniscient Code Generator (Lite mode) build 49521"
  4137  012F                     l3728:	
  4138  012F  295F               	goto	l3736
  4139                           opt subtitle "HI-TECH Software Omniscient Code Generator (Lite mode) build 49521"
  4140                           
  4141  0130                     l343:	
  4142                           opt subtitle "HI-TECH Software Omniscient Code Generator (Lite mode) build 49521"
  4143                           
  4144  0130                     l3730:	
  4145                           opt subtitle "HI-TECH Software Omniscient Code Generator (Lite mode) build 49521"
  4146                           
  4147  0130  1403               	setc
  4148  0131  0D50               	rlf	(RFM70_Initialize@i),w
  4149  0132  3E4A               	addlw	low(_Bank0_Reg|8000h)
  4150  0133  0084               	movwf	fsr0
  4151  0134  3090               	movlw	high(_Bank0_Reg|8000h)
  4152  0135  1803               	skipnc
  4153  0136  3E01               	addlw	1
  4154  0137  00FF               	movwf	btemp+1
  4155  0138  160A  118A  2000   	fcall	stringtab
              120A  118A         
  4156  013D  00BD               	movwf	(??_RFM70_Initialize+0)+0
  4157  013E  083D               	movf	(??_RFM70_Initialize+0)+0,w
  4158  013F  00B7               	movwf	(?_SPI_Write_Reg)
  4159  0140  0850               	movf	(RFM70_Initialize@i),w
  4160  0141  00BE               	movwf	(??_RFM70_Initialize+1)+0
  4161  0142  073E               	addwf	(??_RFM70_Initialize+1)+0,w
  4162  0143  3E4A               	addlw	low(_Bank0_Reg|8000h)
  4163  0144  0084               	movwf	fsr0
  4164  0145  3090               	movlw	high(_Bank0_Reg|8000h)
  4165  0146  1803               	skipnc
  4166  0147  3E01               	addlw	1
  4167  0148  00FF               	movwf	btemp+1
  4168  0149  160A  118A  2000   	fcall	stringtab
              120A  118A         
  4169  014E  3820               	iorlw	020h
  4170  014F  120A  158A  20C4   	fcall	_SPI_Write_Reg
              120A  118A         
  4171                           opt subtitle "HI-TECH Software Omniscient Code Generator (Lite mode) build 49521"
  4172                           
  4173  0154                     l3732:	
  4174  0154  3001               	movlw	low(01h)
  4175  0155  1283               	bcf	status, 5	;RP0=0, select bank0
  4176  0156  1303               	bcf	status, 6	;RP1=0, select bank0
  4177  0157  02D0               	subwf	(RFM70_Initialize@i),f
  4178                           opt subtitle "HI-TECH Software Omniscient Code Generator (Lite mode) build 49521"
  4179  0158                     l3734:	
  4180  0158  3015               	movlw	(015h)
  4181  0159  0250               	subwf	(RFM70_Initialize@i),w
  4182  015A  1803               	skipnc
  4183  015B  295D               	goto	u3161
  4184  015C  295E               	goto	u3160
  4185  015D                     u3161:
  4186  015D  2930               	goto	l3730
  4187  015E                     u3160:
  4188  015E  295F               	goto	l3736
  4189                           opt subtitle "HI-TECH Software Omniscient Code Generator (Lite mode) build 49521"
  4190  015F                     l344:	
  4191                           opt subtitle "HI-TECH Software Omniscient Code Generator (Lite mode) build 49521"
  4192                           
  4193  015F                     l3736:	
  4194                           opt subtitle "HI-TECH Software Omniscient Code Generator (Lite mode) build 49521"
  4195                           
  4196  015F  3001               	movlw	(01h)
  4197  0160  120A  158A  229C   	fcall	_SwitchCFG
              120A  118A         
  4198                           opt subtitle "HI-TECH Software Omniscient Code Generator (Lite mode) build 49521"
  4199                           
  4200  0165                     l3738:	
  4201                           opt subtitle "HI-TECH Software Omniscient Code Generator (Lite mode) build 49521"
  4202  0165  1283               	bcf	status, 5	;RP0=0, select bank0
  4203  0166  1303               	bcf	status, 6	;RP1=0, select bank0
  4204  0167  01D0               	clrf	(RFM70_Initialize@i)
  4205                           opt subtitle "HI-TECH Software Omniscient Code Generator (Lite mode) build 49521"
  4206  0168                     l3740:	
  4207  0168  3009               	movlw	(09h)
  4208  0169  0250               	subwf	(RFM70_Initialize@i),w
  4209  016A  1C03               	skipc
  4210  016B  296D               	goto	u3171
  4211  016C  296E               	goto	u3170
  4212  016D                     u3171:
  4213  016D  2970               	goto	l345
  4214  016E                     u3170:
  4215  016E  29E4               	goto	l3760
  4216                           opt subtitle "HI-TECH Software Omniscient Code Generator (Lite mode) build 49521"
  4217  016F                     l3742:	
  4218  016F  29E4               	goto	l3760
  4219                           opt subtitle "HI-TECH Software Omniscient Code Generator (Lite mode) build 49521"
  4220                           
  4221  0170                     l345:	
  4222                           opt subtitle "HI-TECH Software Omniscient Code Generator (Lite mode) build 49521"
  4223                           
  4224                           opt pagewidth 120
  4225  0170  01D1               	clrf	(RFM70_Initialize@j)
  4226                           opt subtitle "HI-TECH Software Omniscient Code Generator (Lite mode) build 49521"
  4227  0171                     l3744:	
  4228  0171  3004               	movlw	(04h)
  4229  0172  0251               	subwf	(RFM70_Initialize@j),w
  4230  0173  1C03               	skipc
  4231  0174  2976               	goto	u3181
  4232  0175  2977               	goto	u3180
  4233  0176                     u3181:
  4234  0176  2979               	goto	l3748
  4235  0177                     u3180:
  4236  0177  29C8               	goto	l3754
  4237                           opt subtitle "HI-TECH Software Omniscient Code Generator (Lite mode) build 49521"
  4238  0178                     l3746:	
  4239  0178  29C8               	goto	l3754
  4240                           opt subtitle "HI-TECH Software Omniscient Code Generator (Lite mode) build 49521"
  4241                           
  4242  0179                     l347:	
  4243                           opt subtitle "HI-TECH Software Omniscient Code Generator (Lite mode) build 49521"
  4244  0179                     l3748:	
  4245                           opt subtitle "HI-TECH Software Omniscient Code Generator (Lite mode) build 49521"
  4246  0179  0850               	movf	(RFM70_Initialize@i),w
  4247  017A  00BD               	movwf	(??_RFM70_Initialize+0)+0
  4248  017B  3001               	movlw	(02h)-1
  4249  017C                     u3195:
  4250  017C  1003               	clrc
  4251  017D  0DBD               	rlf	(??_RFM70_Initialize+0)+0,f
  4252  017E  3EFF               	addlw	-1
  4253  017F  1D03               	skipz
  4254  0180  297C               	goto	u3195
  4255  0181  1003               	clrc
  4256  0182  0D3D               	rlf	(??_RFM70_Initialize+0)+0,w
  4257  0183  3E12               	addlw	low(_Bank1_Reg0_13|8000h)
  4258  0184  0084               	movwf	fsr0
  4259  0185  3090               	movlw	high(_Bank1_Reg0_13|8000h)
  4260  0186  1803               	skipnc
  4261  0187  3E01               	addlw	1
  4262  0188  00FF               	movwf	btemp+1
  4263  0189  160A  118A  2000   	fcall	stringtab
              120A  118A         
  4264  018E  00BE               	movwf	((??_RFM70_Initialize+1)+0)
  4265  018F  160A  118A  2000   	fcall	stringtab
              120A  118A         
  4266  0194  00BF               	movwf	((??_RFM70_Initialize+1)+0+1)
  4267  0195  160A  118A  2000   	fcall	stringtab
              120A  118A         
  4268  019A  00C0               	movwf	((??_RFM70_Initialize+1)+0+2)
  4269  019B  160A  118A  2000   	fcall	stringtab
              120A  118A         
  4270  01A0  00C1               	movwf	((??_RFM70_Initialize+1)+0+3)
  4271  01A1  0851               	movf	(RFM70_Initialize@j),w
  4272  01A2  00C2               	movwf	(??_RFM70_Initialize+5)+0
  4273  01A3  3002               	movlw	(03h)-1
  4274  01A4                     u3205:
  4275  01A4  1003               	clrc
  4276  01A5  0DC2               	rlf	(??_RFM70_Initialize+5)+0,f
  4277  01A6  3EFF               	addlw	-1
  4278  01A7  1D03               	skipz
  4279  01A8  29A4               	goto	u3205
  4280  01A9  1003               	clrc
  4281  01AA  0D42               	rlf	(??_RFM70_Initialize+5)+0,w
  4282  01AB  3E01               	addlw	1
  4283  01AC  29B2               	goto	u3210
  4284  01AD                     u3215:
  4285  01AD  1003               	clrc
  4286  01AE  0CC1               	rrf	(??_RFM70_Initialize+1)+3,f
  4287  01AF  0CC0               	rrf	(??_RFM70_Initialize+1)+2,f
  4288  01B0  0CBF               	rrf	(??_RFM70_Initialize+1)+1,f
  4289  01B1  0CBE               	rrf	(??_RFM70_Initialize+1)+0,f
  4290  01B2                     u3210:
  4291  01B2  3EFF               	addlw	-1
  4292  01B3  1D03               	skipz
  4293  01B4  29AD               	goto	u3215
  4294  01B5  083E               	movf	0+(??_RFM70_Initialize+1)+0,w
  4295  01B6  00C3               	movwf	(??_RFM70_Initialize+6)+0
  4296  01B7  0851               	movf	(RFM70_Initialize@j),w
  4297  01B8  3E44               	addlw	RFM70_Initialize@WriteArr&0ffh
  4298  01B9  0084               	movwf	fsr0
  4299  01BA  0843               	movf	(??_RFM70_Initialize+6)+0,w
  4300  01BB  1383               	bcf	status, 7	;select IRP bank0
  4301  01BC  0080               	movwf	indf
  4302                           opt subtitle "HI-TECH Software Omniscient Code Generator (Lite mode) build 49521"
  4303                           
  4304  01BD                     l3750:	
  4305  01BD  3001               	movlw	(01h)
  4306  01BE  00BD               	movwf	(??_RFM70_Initialize+0)+0
  4307  01BF  083D               	movf	(??_RFM70_Initialize+0)+0,w
  4308  01C0  07D1               	addwf	(RFM70_Initialize@j),f
  4309                           opt subtitle "HI-TECH Software Omniscient Code Generator (Lite mode) build 49521"
  4310  01C1                     l3752:	
  4311  01C1  3004               	movlw	(04h)
  4312  01C2  0251               	subwf	(RFM70_Initialize@j),w
  4313  01C3  1C03               	skipc
  4314  01C4  29C6               	goto	u3221
  4315  01C5  29C7               	goto	u3220
  4316  01C6                     u3221:
  4317  01C6  2979               	goto	l3748
  4318  01C7                     u3220:
  4319  01C7  29C8               	goto	l3754
  4320                           opt subtitle "HI-TECH Software Omniscient Code Generator (Lite mode) build 49521"
  4321  01C8                     l348:	
  4322                           opt subtitle "HI-TECH Software Omniscient Code Generator (Lite mode) build 49521"
  4323                           
  4324  01C8                     l3754:	
  4325                           opt subtitle "HI-TECH Software Omniscient Code Generator (Lite mode) build 49521"
  4326  01C8  3044               	movlw	(RFM70_Initialize@WriteArr)&0ffh
  4327  01C9  00BD               	movwf	(??_RFM70_Initialize+0)+0
  4328  01CA  083D               	movf	(??_RFM70_Initialize+0)+0,w
  4329  01CB  00B7               	movwf	(?_SPI_Write_Buf)
  4330  01CC  3004               	movlw	(04h)
  4331  01CD  00BE               	movwf	(??_RFM70_Initialize+1)+0
  4332  01CE  083E               	movf	(??_RFM70_Initialize+1)+0,w
  4333  01CF  00B8               	movwf	0+(?_SPI_Write_Buf)+01h
  4334  01D0  0850               	movf	(RFM70_Initialize@i),w
  4335  01D1  3820               	iorlw	020h
  4336  01D2  120A  158A  21F0   	fcall	_SPI_Write_Buf
              120A  118A         
  4337                           opt subtitle "HI-TECH Software Omniscient Code Generator (Lite mode) build 49521"
  4338                           
  4339  01D7                     l3756:	
  4340  01D7  3001               	movlw	(01h)
  4341  01D8  1283               	bcf	status, 5	;RP0=0, select bank0
  4342  01D9  1303               	bcf	status, 6	;RP1=0, select bank0
  4343  01DA  00BD               	movwf	(??_RFM70_Initialize+0)+0
  4344  01DB  083D               	movf	(??_RFM70_Initialize+0)+0,w
  4345  01DC  07D0               	addwf	(RFM70_Initialize@i),f
  4346                           opt subtitle "HI-TECH Software Omniscient Code Generator (Lite mode) build 49521"
  4347  01DD                     l3758:	
  4348  01DD  3009               	movlw	(09h)
  4349  01DE  0250               	subwf	(RFM70_Initialize@i),w
  4350  01DF  1C03               	skipc
  4351  01E0  29E2               	goto	u3231
  4352  01E1  29E3               	goto	u3230
  4353  01E2                     u3231:
  4354  01E2  2970               	goto	l345
  4355  01E3                     u3230:
  4356  01E3  29E4               	goto	l3760
  4357                           opt subtitle "HI-TECH Software Omniscient Code Generator (Lite mode) build 49521"
  4358  01E4                     l346:	
  4359                           opt subtitle "HI-TECH Software Omniscient Code Generator (Lite mode) build 49521"
  4360                           
  4361  01E4                     l3760:	
  4362                           opt subtitle "HI-TECH Software Omniscient Code Generator (Lite mode) build 49521"
  4363                           
  4364  01E4  3009               	movlw	(09h)
  4365  01E5  00BD               	movwf	(??_RFM70_Initialize+0)+0
  4366  01E6  083D               	movf	(??_RFM70_Initialize+0)+0,w
  4367  01E7  00D0               	movwf	(RFM70_Initialize@i)
  4368  01E8  300E               	movlw	(0Eh)
  4369  01E9  0250               	subwf	(RFM70_Initialize@i),w
  4370  01EA  1C03               	skipc
  4371  01EB  29ED               	goto	u3241
  4372  01EC  29EE               	goto	u3240
  4373  01ED                     u3241:
  4374  01ED  29F0               	goto	l349
  4375  01EE                     u3240:
  4376  01EE  2A65               	goto	l350
  4377                           opt subtitle "HI-TECH Software Omniscient Code Generator (Lite mode) build 49521"
  4378  01EF                     l3762:	
  4379  01EF  2A65               	goto	l350
  4380                           opt subtitle "HI-TECH Software Omniscient Code Generator (Lite mode) build 49521"
  4381                           
  4382  01F0                     l349:	
  4383                           opt subtitle "HI-TECH Software Omniscient Code Generator (Lite mode) build 49521"
  4384                           
  4385                           opt pagewidth 120
  4386  01F0  01D1               	clrf	(RFM70_Initialize@j)
  4387                           opt subtitle "HI-TECH Software Omniscient Code Generator (Lite mode) build 49521"
  4388  01F1                     l3764:	
  4389  01F1  3004               	movlw	(04h)
  4390  01F2  0251               	subwf	(RFM70_Initialize@j),w
  4391  01F3  1C03               	skipc
  4392  01F4  29F6               	goto	u3251
  4393  01F5  29F7               	goto	u3250
  4394  01F6                     u3251:
  4395  01F6  29F9               	goto	l3768
  4396  01F7                     u3250:
  4397  01F7  2A4A               	goto	l3774
  4398                           opt subtitle "HI-TECH Software Omniscient Code Generator (Lite mode) build 49521"
  4399  01F8                     l3766:	
  4400  01F8  2A4A               	goto	l3774
  4401                           opt subtitle "HI-TECH Software Omniscient Code Generator (Lite mode) build 49521"
  4402                           
  4403  01F9                     l351:	
  4404                           opt subtitle "HI-TECH Software Omniscient Code Generator (Lite mode) build 49521"
  4405  01F9                     l3768:	
  4406                           opt subtitle "HI-TECH Software Omniscient Code Generator (Lite mode) build 49521"
  4407  01F9  0850               	movf	(RFM70_Initialize@i),w
  4408  01FA  00BD               	movwf	(??_RFM70_Initialize+0)+0
  4409  01FB  3001               	movlw	(02h)-1
  4410  01FC                     u3265:
  4411  01FC  1003               	clrc
  4412  01FD  0DBD               	rlf	(??_RFM70_Initialize+0)+0,f
  4413  01FE  3EFF               	addlw	-1
  4414  01FF  1D03               	skipz
  4415  0200  29FC               	goto	u3265
  4416  0201  1003               	clrc
  4417  0202  0D3D               	rlf	(??_RFM70_Initialize+0)+0,w
  4418  0203  3E12               	addlw	low(_Bank1_Reg0_13|8000h)
  4419  0204  0084               	movwf	fsr0
  4420  0205  3090               	movlw	high(_Bank1_Reg0_13|8000h)
  4421  0206  1803               	skipnc
  4422  0207  3E01               	addlw	1
  4423  0208  00FF               	movwf	btemp+1
  4424  0209  160A  118A  2000   	fcall	stringtab
              120A  118A         
  4425  020E  00BE               	movwf	((??_RFM70_Initialize+1)+0)
  4426  020F  160A  118A  2000   	fcall	stringtab
              120A  118A         
  4427  0214  00BF               	movwf	((??_RFM70_Initialize+1)+0+1)
  4428  0215  160A  118A  2000   	fcall	stringtab
              120A  118A         
  4429  021A  00C0               	movwf	((??_RFM70_Initialize+1)+0+2)
  4430  021B  160A  118A  2000   	fcall	stringtab
              120A  118A         
  4431  0220  00C1               	movwf	((??_RFM70_Initialize+1)+0+3)
  4432  0221  0351               	decf	(RFM70_Initialize@j),w
  4433  0222  3AFF               	xorlw	0ffh
  4434  0223  00C2               	movwf	(??_RFM70_Initialize+5)+0
  4435  0224  3002               	movlw	(03h)-1
  4436  0225                     u3275:
  4437  0225  1003               	clrc
  4438  0226  0DC2               	rlf	(??_RFM70_Initialize+5)+0,f
  4439  0227  3EFF               	addlw	-1
  4440  0228  1D03               	skipz
  4441  0229  2A25               	goto	u3275
  4442  022A  1003               	clrc
  4443  022B  0D42               	rlf	(??_RFM70_Initialize+5)+0,w
  4444  022C  3E18               	addlw	018h
  4445  022D  3E01               	addlw	1
  4446  022E  2A34               	goto	u3280
  4447  022F                     u3285:
  4448  022F  1003               	clrc
  4449  0230  0CC1               	rrf	(??_RFM70_Initialize+1)+3,f
  4450  0231  0CC0               	rrf	(??_RFM70_Initialize+1)+2,f
  4451  0232  0CBF               	rrf	(??_RFM70_Initialize+1)+1,f
  4452  0233  0CBE               	rrf	(??_RFM70_Initialize+1)+0,f
  4453  0234                     u3280:
  4454  0234  3EFF               	addlw	-1
  4455  0235  1D03               	skipz
  4456  0236  2A2F               	goto	u3285
  4457  0237  083E               	movf	0+(??_RFM70_Initialize+1)+0,w
  4458  0238  00C3               	movwf	(??_RFM70_Initialize+6)+0
  4459  0239  0851               	movf	(RFM70_Initialize@j),w
  4460  023A  3E44               	addlw	RFM70_Initialize@WriteArr&0ffh
  4461  023B  0084               	movwf	fsr0
  4462  023C  0843               	movf	(??_RFM70_Initialize+6)+0,w
  4463  023D  1383               	bcf	status, 7	;select IRP bank0
  4464  023E  0080               	movwf	indf
  4465                           opt subtitle "HI-TECH Software Omniscient Code Generator (Lite mode) build 49521"
  4466                           
  4467  023F                     l3770:	
  4468  023F  3001               	movlw	(01h)
  4469  0240  00BD               	movwf	(??_RFM70_Initialize+0)+0
  4470  0241  083D               	movf	(??_RFM70_Initialize+0)+0,w
  4471  0242  07D1               	addwf	(RFM70_Initialize@j),f
  4472                           opt subtitle "HI-TECH Software Omniscient Code Generator (Lite mode) build 49521"
  4473  0243                     l3772:	
  4474  0243  3004               	movlw	(04h)
  4475  0244  0251               	subwf	(RFM70_Initialize@j),w
  4476  0245  1C03               	skipc
  4477  0246  2A48               	goto	u3291
  4478  0247  2A49               	goto	u3290
  4479  0248                     u3291:
  4480  0248  29F9               	goto	l3768
  4481  0249                     u3290:
  4482  0249  2A4A               	goto	l3774
  4483                           opt subtitle "HI-TECH Software Omniscient Code Generator (Lite mode) build 49521"
  4484  024A                     l352:	
  4485                           opt subtitle "HI-TECH Software Omniscient Code Generator (Lite mode) build 49521"
  4486                           
  4487  024A                     l3774:	
  4488                           opt subtitle "HI-TECH Software Omniscient Code Generator (Lite mode) build 49521"
  4489  024A  3044               	movlw	(RFM70_Initialize@WriteArr)&0ffh
  4490  024B  00BD               	movwf	(??_RFM70_Initialize+0)+0
  4491  024C  083D               	movf	(??_RFM70_Initialize+0)+0,w
  4492  024D  00B7               	movwf	(?_SPI_Write_Buf)
  4493  024E  3004               	movlw	(04h)
  4494  024F  00BE               	movwf	(??_RFM70_Initialize+1)+0
  4495  0250  083E               	movf	(??_RFM70_Initialize+1)+0,w
  4496  0251  00B8               	movwf	0+(?_SPI_Write_Buf)+01h
  4497  0252  0850               	movf	(RFM70_Initialize@i),w
  4498  0253  3820               	iorlw	020h
  4499  0254  120A  158A  21F0   	fcall	_SPI_Write_Buf
              120A  118A         
  4500                           opt subtitle "HI-TECH Software Omniscient Code Generator (Lite mode) build 49521"
  4501                           
  4502  0259                     l3776:	
  4503  0259  3001               	movlw	(01h)
  4504  025A  1283               	bcf	status, 5	;RP0=0, select bank0
  4505  025B  1303               	bcf	status, 6	;RP1=0, select bank0
  4506  025C  00BD               	movwf	(??_RFM70_Initialize+0)+0
  4507  025D  083D               	movf	(??_RFM70_Initialize+0)+0,w
  4508  025E  07D0               	addwf	(RFM70_Initialize@i),f
  4509                           opt subtitle "HI-TECH Software Omniscient Code Generator (Lite mode) build 49521"
  4510  025F                     l3778:	
  4511  025F  300E               	movlw	(0Eh)
  4512  0260  0250               	subwf	(RFM70_Initialize@i),w
  4513  0261  1C03               	skipc
  4514  0262  2A64               	goto	u3301
  4515  0263  2A65               	goto	u3300
  4516  0264                     u3301:
  4517  0264  29F0               	goto	l349
  4518  0265                     u3300:
  4519                           opt subtitle "HI-TECH Software Omniscient Code Generator (Lite mode) build 49521"
  4520  0265                     l350:	
  4521                           opt subtitle "HI-TECH Software Omniscient Code Generator (Lite mode) build 49521"
  4522                           
  4523                           opt pagewidth 120
  4524  0265  01D1               	clrf	(RFM70_Initialize@j)
  4525                           opt subtitle "HI-TECH Software Omniscient Code Generator (Lite mode) build 49521"
  4526  0266                     l3780:	
  4527  0266  300B               	movlw	(0Bh)
  4528  0267  0251               	subwf	(RFM70_Initialize@j),w
  4529  0268  1C03               	skipc
  4530  0269  2A6B               	goto	u3311
  4531  026A  2A6C               	goto	u3310
  4532  026B                     u3311:
  4533  026B  2A6E               	goto	l3784
  4534  026C                     u3310:
  4535  026C  2A8C               	goto	l3790
  4536                           opt subtitle "HI-TECH Software Omniscient Code Generator (Lite mode) build 49521"
  4537  026D                     l3782:	
  4538  026D  2A8C               	goto	l3790
  4539                           opt subtitle "HI-TECH Software Omniscient Code Generator (Lite mode) build 49521"
  4540                           
  4541  026E                     l353:	
  4542                           opt subtitle "HI-TECH Software Omniscient Code Generator (Lite mode) build 49521"
  4543                           
  4544  026E                     l3784:	
  4545                           opt subtitle "HI-TECH Software Omniscient Code Generator (Lite mode) build 49521"
  4546                           
  4547  026E  0851               	movf	(RFM70_Initialize@j),w
  4548  026F  3E78               	addlw	low(_Bank1_Reg14|8000h)
  4549  0270  0084               	movwf	fsr0
  4550  0271  3090               	movlw	high(_Bank1_Reg14|8000h)
  4551  0272  1803               	skipnc
  4552  0273  3E01               	addlw	1
  4553  0274  00FF               	movwf	btemp+1
  4554  0275  160A  118A  2000   	fcall	stringtab
              120A  118A         
  4555  027A  00BD               	movwf	(??_RFM70_Initialize+0)+0
  4556  027B  0851               	movf	(RFM70_Initialize@j),w
  4557  027C  3E44               	addlw	RFM70_Initialize@WriteArr&0ffh
  4558  027D  0084               	movwf	fsr0
  4559  027E  083D               	movf	(??_RFM70_Initialize+0)+0,w
  4560  027F  1383               	bcf	status, 7	;select IRP bank0
  4561  0280  0080               	movwf	indf
  4562                           opt subtitle "HI-TECH Software Omniscient Code Generator (Lite mode) build 49521"
  4563                           
  4564  0281                     l3786:	
  4565  0281  3001               	movlw	(01h)
  4566  0282  00BD               	movwf	(??_RFM70_Initialize+0)+0
  4567  0283  083D               	movf	(??_RFM70_Initialize+0)+0,w
  4568  0284  07D1               	addwf	(RFM70_Initialize@j),f
  4569                           opt subtitle "HI-TECH Software Omniscient Code Generator (Lite mode) build 49521"
  4570  0285                     l3788:	
  4571  0285  300B               	movlw	(0Bh)
  4572  0286  0251               	subwf	(RFM70_Initialize@j),w
  4573  0287  1C03               	skipc
  4574  0288  2A8A               	goto	u3321
  4575  0289  2A8B               	goto	u3320
  4576  028A                     u3321:
  4577  028A  2A6E               	goto	l3784
  4578  028B                     u3320:
  4579  028B  2A8C               	goto	l3790
  4580                           opt subtitle "HI-TECH Software Omniscient Code Generator (Lite mode) build 49521"
  4581  028C                     l354:	
  4582                           opt subtitle "HI-TECH Software Omniscient Code Generator (Lite mode) build 49521"
  4583                           
  4584  028C                     l3790:	
  4585                           opt subtitle "HI-TECH Software Omniscient Code Generator (Lite mode) build 49521"
  4586                           
  4587  028C  3044               	movlw	(RFM70_Initialize@WriteArr)&0ffh
  4588  028D  00BD               	movwf	(??_RFM70_Initialize+0)+0
  4589  028E  083D               	movf	(??_RFM70_Initialize+0)+0,w
  4590  028F  00B7               	movwf	(?_SPI_Write_Buf)
  4591  0290  300B               	movlw	(0Bh)
  4592  0291  00BE               	movwf	(??_RFM70_Initialize+1)+0
  4593  0292  083E               	movf	(??_RFM70_Initialize+1)+0,w
  4594  0293  00B8               	movwf	0+(?_SPI_Write_Buf)+01h
  4595  0294  302E               	movlw	(02Eh)
  4596  0295  120A  158A  21F0   	fcall	_SPI_Write_Buf
              120A  118A         
  4597                           opt subtitle "HI-TECH Software Omniscient Code Generator (Lite mode) build 49521"
  4598                           
  4599  029A                     l3792:	
  4600                           opt subtitle "HI-TECH Software Omniscient Code Generator (Lite mode) build 49521"
  4601  029A  1283               	bcf	status, 5	;RP0=0, select bank0
  4602  029B  1303               	bcf	status, 6	;RP1=0, select bank0
  4603  029C  01D1               	clrf	(RFM70_Initialize@j)
  4604                           opt subtitle "HI-TECH Software Omniscient Code Generator (Lite mode) build 49521"
  4605  029D                     l3794:	
  4606  029D  3004               	movlw	(04h)
  4607  029E  0251               	subwf	(RFM70_Initialize@j),w
  4608  029F  1C03               	skipc
  4609  02A0  2AA2               	goto	u3331
  4610  02A1  2AA3               	goto	u3330
  4611  02A2                     u3331:
  4612  02A2  2AA5               	goto	l3798
  4613  02A3                     u3330:
  4614  02A3  2AE8               	goto	l3804
  4615                           opt subtitle "HI-TECH Software Omniscient Code Generator (Lite mode) build 49521"
  4616  02A4                     l3796:	
  4617  02A4  2AE8               	goto	l3804
  4618                           opt subtitle "HI-TECH Software Omniscient Code Generator (Lite mode) build 49521"
  4619                           
  4620  02A5                     l355:	
  4621                           opt subtitle "HI-TECH Software Omniscient Code Generator (Lite mode) build 49521"
  4622  02A5                     l3798:	
  4623                           opt subtitle "HI-TECH Software Omniscient Code Generator (Lite mode) build 49521"
  4624  02A5  3022               	movlw	low(_Bank1_Reg0_13|8000h+010h)
  4625  02A6  0084               	movwf	fsr0
  4626  02A7  3090               	movlw	high(_Bank1_Reg0_13|8000h+010h)
  4627  02A8  00FF               	movwf	btemp+1
  4628  02A9  160A  118A  2000   	fcall	stringtab
              120A  118A         
  4629  02AE  00BD               	movwf	((??_RFM70_Initialize+0)+0)
  4630  02AF  160A  118A  2000   	fcall	stringtab
              120A  118A         
  4631  02B4  00BE               	movwf	((??_RFM70_Initialize+0)+0+1)
  4632  02B5  160A  118A  2000   	fcall	stringtab
              120A  118A         
  4633  02BA  00BF               	movwf	((??_RFM70_Initialize+0)+0+2)
  4634  02BB  160A  118A  2000   	fcall	stringtab
              120A  118A         
  4635  02C0  00C0               	movwf	((??_RFM70_Initialize+0)+0+3)
  4636  02C1  0851               	movf	(RFM70_Initialize@j),w
  4637  02C2  00C1               	movwf	(??_RFM70_Initialize+4)+0
  4638  02C3  3002               	movlw	(03h)-1
  4639  02C4                     u3345:
  4640  02C4  1003               	clrc
  4641  02C5  0DC1               	rlf	(??_RFM70_Initialize+4)+0,f
  4642  02C6  3EFF               	addlw	-1
  4643  02C7  1D03               	skipz
  4644  02C8  2AC4               	goto	u3345
  4645  02C9  1003               	clrc
  4646  02CA  0D41               	rlf	(??_RFM70_Initialize+4)+0,w
  4647  02CB  3E01               	addlw	1
  4648  02CC  2AD2               	goto	u3350
  4649  02CD                     u3355:
  4650  02CD  1003               	clrc
  4651  02CE  0CC0               	rrf	(??_RFM70_Initialize+0)+3,f
  4652  02CF  0CBF               	rrf	(??_RFM70_Initialize+0)+2,f
  4653  02D0  0CBE               	rrf	(??_RFM70_Initialize+0)+1,f
  4654  02D1  0CBD               	rrf	(??_RFM70_Initialize+0)+0,f
  4655  02D2                     u3350:
  4656  02D2  3EFF               	addlw	-1
  4657  02D3  1D03               	skipz
  4658  02D4  2ACD               	goto	u3355
  4659  02D5  083D               	movf	0+(??_RFM70_Initialize+0)+0,w
  4660  02D6  00C2               	movwf	(??_RFM70_Initialize+5)+0
  4661  02D7  0851               	movf	(RFM70_Initialize@j),w
  4662  02D8  3E44               	addlw	RFM70_Initialize@WriteArr&0ffh
  4663  02D9  0084               	movwf	fsr0
  4664  02DA  0842               	movf	(??_RFM70_Initialize+5)+0,w
  4665  02DB  1383               	bcf	status, 7	;select IRP bank0
  4666  02DC  0080               	movwf	indf
  4667                           opt subtitle "HI-TECH Software Omniscient Code Generator (Lite mode) build 49521"
  4668                           
  4669  02DD                     l3800:	
  4670  02DD  3001               	movlw	(01h)
  4671  02DE  00BD               	movwf	(??_RFM70_Initialize+0)+0
  4672  02DF  083D               	movf	(??_RFM70_Initialize+0)+0,w
  4673  02E0  07D1               	addwf	(RFM70_Initialize@j),f
  4674                           opt subtitle "HI-TECH Software Omniscient Code Generator (Lite mode) build 49521"
  4675  02E1                     l3802:	
  4676  02E1  3004               	movlw	(04h)
  4677  02E2  0251               	subwf	(RFM70_Initialize@j),w
  4678  02E3  1C03               	skipc
  4679  02E4  2AE6               	goto	u3361
  4680  02E5  2AE7               	goto	u3360
  4681  02E6                     u3361:
  4682  02E6  2AA5               	goto	l3798
  4683  02E7                     u3360:
  4684  02E7  2AE8               	goto	l3804
  4685                           opt subtitle "HI-TECH Software Omniscient Code Generator (Lite mode) build 49521"
  4686  02E8                     l356:	
  4687                           opt subtitle "HI-TECH Software Omniscient Code Generator (Lite mode) build 49521"
  4688                           
  4689  02E8                     l3804:	
  4690                           opt subtitle "HI-TECH Software Omniscient Code Generator (Lite mode) build 49521"
  4691  02E8  0844               	movf	(RFM70_Initialize@WriteArr),w
  4692  02E9  3806               	iorlw	06h
  4693  02EA  00BD               	movwf	(??_RFM70_Initialize+0)+0
  4694  02EB  083D               	movf	(??_RFM70_Initialize+0)+0,w
  4695  02EC  00C4               	movwf	(RFM70_Initialize@WriteArr)
  4696                           opt subtitle "HI-TECH Software Omniscient Code Generator (Lite mode) build 49521"
  4697                           
  4698  02ED                     l3806:	
  4699                           opt subtitle "HI-TECH Software Omniscient Code Generator (Lite mode) build 49521"
  4700  02ED  3044               	movlw	(RFM70_Initialize@WriteArr)&0ffh
  4701  02EE  00BD               	movwf	(??_RFM70_Initialize+0)+0
  4702  02EF  083D               	movf	(??_RFM70_Initialize+0)+0,w
  4703  02F0  00B7               	movwf	(?_SPI_Write_Buf)
  4704  02F1  3004               	movlw	(04h)
  4705  02F2  00BE               	movwf	(??_RFM70_Initialize+1)+0
  4706  02F3  083E               	movf	(??_RFM70_Initialize+1)+0,w
  4707  02F4  00B8               	movwf	0+(?_SPI_Write_Buf)+01h
  4708  02F5  3024               	movlw	(024h)
  4709  02F6  120A  158A  21F0   	fcall	_SPI_Write_Buf
              120A  118A         
  4710                           opt subtitle "HI-TECH Software Omniscient Code Generator (Lite mode) build 49521"
  4711                           
  4712  02FB                     l3808:	
  4713                           opt subtitle "HI-TECH Software Omniscient Code Generator (Lite mode) build 49521"
  4714  02FB  1283               	bcf	status, 5	;RP0=0, select bank0
  4715  02FC  1303               	bcf	status, 6	;RP1=0, select bank0
  4716  02FD  0844               	movf	(RFM70_Initialize@WriteArr),w
  4717  02FE  39F9               	andlw	0F9h
  4718  02FF  00BD               	movwf	(??_RFM70_Initialize+0)+0
  4719  0300  083D               	movf	(??_RFM70_Initialize+0)+0,w
  4720  0301  00C4               	movwf	(RFM70_Initialize@WriteArr)
  4721                           opt subtitle "HI-TECH Software Omniscient Code Generator (Lite mode) build 49521"
  4722                           
  4723  0302  3044               	movlw	(RFM70_Initialize@WriteArr)&0ffh
  4724  0303  00BD               	movwf	(??_RFM70_Initialize+0)+0
  4725  0304  083D               	movf	(??_RFM70_Initialize+0)+0,w
  4726  0305  00B7               	movwf	(?_SPI_Write_Buf)
  4727  0306  3004               	movlw	(04h)
  4728  0307  00BE               	movwf	(??_RFM70_Initialize+1)+0
  4729  0308  083E               	movf	(??_RFM70_Initialize+1)+0,w
  4730  0309  00B8               	movwf	0+(?_SPI_Write_Buf)+01h
  4731  030A  3024               	movlw	(024h)
  4732  030B  120A  158A  21F0   	fcall	_SPI_Write_Buf
              120A  118A         
  4733                           opt subtitle "HI-TECH Software Omniscient Code Generator (Lite mode) build 49521"
  4734                           
  4735  0310                     l3810:	
  4736                           opt subtitle "HI-TECH Software Omniscient Code Generator (Lite mode) build 49521"
  4737                           
  4738  0310  3082               movlw	130
  4739  0311  1283               	bcf	status, 5	;RP0=0, select bank0
  4740  0312  1303               	bcf	status, 6	;RP1=0, select bank0
  4741  0313  00BE               movwf	((??_RFM70_Initialize+0)+0+1),f
  4742  0314  30DD               	movlw	221
  4743  0315  00BD               movwf	((??_RFM70_Initialize+0)+0),f
  4744  0316                     u3737:
  4745  0316  0BBD               	decfsz	((??_RFM70_Initialize+0)+0),f
  4746  0317  2B16               	goto	u3737
  4747  0318  0BBE               	decfsz	((??_RFM70_Initialize+0)+0+1),f
  4748  0319  2B16               	goto	u3737
  4749  031A  2B1B               	nop2
  4750                           opt subtitle "HI-TECH Software Omniscient Code Generator (Lite mode) build 49521"
  4751                           
  4752                           opt pagewidth 120
  4753                           
  4754  031B                     l3812:	
  4755                           opt subtitle "HI-TECH Software Omniscient Code Generator (Lite mode) build 49521"
  4756  031B  3000               	movlw	(0)
  4757  031C  120A  158A  229C   	fcall	_SwitchCFG
              120A  118A         
  4758                           opt subtitle "HI-TECH Software Omniscient Code Generator (Lite mode) build 49521"
  4759                           
  4760  0321                     l3814:	
  4761                           opt subtitle "HI-TECH Software Omniscient Code Generator (Lite mode) build 49521"
  4762  0321  1283               	bcf	status, 5	;RP0=0, select bank0
  4763  0322  1303               	bcf	status, 6	;RP1=0, select bank0
  4764  0323  1107               	bcf	(7),2	;volatile
  4765                           opt subtitle "HI-TECH Software Omniscient Code Generator (Lite mode) build 49521"
  4766                           
  4767  0324                     l357:	
  4768  0324  0008               	return
  4769                           opt subtitle "HI-TECH Software Omniscient Code Generator (Lite mode) build 49521"
  4770                           
  4771  0325                     	__end_of_RFM70_Initialize:
  4772                           opt subtitle "HI-TECH Software Omniscient Code Generator (Lite mode) build 49521"
  4773                           
  4774                           opt pagewidth 120
  4775                           
  4776                           	opt lm
  4777                           
  4778                           	processor	16LF707
  4779                           clrc	macro
  4780                           	bcf	3,0
  4781                           	endm
  4782                           clrz	macro
  4783                           	bcf	3,2
  4784                           	endm
  4785                           setc	macro
  4786                           	bsf	3,0
  4787                           	endm
  4788                           setz	macro
  4789                           	bsf	3,2
  4790                           	endm
  4791                           skipc	macro
  4792                           	btfss	3,0
  4793                           	endm
  4794                           skipz	macro
  4795                           	btfss	3,2
  4796                           	endm
  4797                           skipnc	macro
  4798                           	btfsc	3,0
  4799                           	endm
  4800                           skipnz	macro
  4801                           	btfsc	3,2
  4802                           	endm
  4803                           indf	equ	0
  4804                           indf0	equ	0
  4805                           pc	equ	2
  4806  0A45                     __ptext1036:	;psect for function _adcReadTemp
  4807                           opt subtitle "HI-TECH Software Omniscient Code Generator (Lite mode) build 49521"
  4808                           
  4809                           opt pagewidth 120
  4810                           
  4811  002B                     	__size_of_adcReadTemp	equ	__end_of_adcReadTemp-_adcReadTemp
  4812                           opt subtitle "HI-TECH Software Omniscient Code Generator (Lite mode) build 49521"
  4813  0A45                     _adcReadTemp:	
  4814                           opt subtitle "HI-TECH Software Omniscient Code Generator (Lite mode) build 49521"
  4815                           
  4816                           opt pagewidth 120
  4817                           
  4818  0A45                     l2760:	
  4819                           opt subtitle "HI-TECH Software Omniscient Code Generator (Lite mode) build 49521"
  4820                           
  4821  0A45  1283               	bcf	status, 5	;RP0=0, select bank0
  4822  0A46  1303               	bcf	status, 6	;RP1=0, select bank0
  4823  0A47  081F               	movf	(31),w	;volatile
  4824  0A48  39C3               	andlw	not (((1<<4)-1)<<2)
  4825  0A49  381C               	iorlw	(07h & ((1<<4)-1))<<2
  4826  0A4A  009F               	movwf	(31)	;volatile
  4827                           opt subtitle "HI-TECH Software Omniscient Code Generator (Lite mode) build 49521"
  4828                           
  4829  0A4B  1683               	bsf	status, 5	;RP0=1, select bank1
  4830  0A4C  1303               	bcf	status, 6	;RP1=0, select bank1
  4831  0A4D  081D               	movf	(157)^080h,w	;volatile
  4832  0A4E  39FC               	andlw	not (((1<<2)-1)<<0)
  4833  0A4F  3801               	iorlw	(01h & ((1<<2)-1))<<0
  4834  0A50  009D               	movwf	(157)^080h	;volatile
  4835                           opt subtitle "HI-TECH Software Omniscient Code Generator (Lite mode) build 49521"
  4836                           
  4837  0A51                     l2762:	
  4838                           opt subtitle "HI-TECH Software Omniscient Code Generator (Lite mode) build 49521"
  4839  0A51  1283               	bcf	status, 5	;RP0=0, select bank0
  4840  0A52  1303               	bcf	status, 6	;RP1=0, select bank0
  4841  0A53  141F               	bsf	(31),0	;volatile
  4842                           opt subtitle "HI-TECH Software Omniscient Code Generator (Lite mode) build 49521"
  4843                           
  4844  0A54                     l2764:	
  4845                           opt subtitle "HI-TECH Software Omniscient Code Generator (Lite mode) build 49521"
  4846  0A54  1408               	bsf	(8),0	;volatile
  4847                           opt subtitle "HI-TECH Software Omniscient Code Generator (Lite mode) build 49521"
  4848                           
  4849  0A55                     l2766:	
  4850                           opt subtitle "HI-TECH Software Omniscient Code Generator (Lite mode) build 49521"
  4851                           
  4852  0A55  300D               movlw	13
  4853  0A56  00B5               movwf	((??_adcReadTemp+0)+0+1),f
  4854  0A57  30FB               	movlw	251
  4855  0A58  00B4               movwf	((??_adcReadTemp+0)+0),f
  4856  0A59                     u3747:
  4857  0A59  0BB4               	decfsz	((??_adcReadTemp+0)+0),f
  4858  0A5A  2A59               	goto	u3747
  4859  0A5B  0BB5               	decfsz	((??_adcReadTemp+0)+0+1),f
  4860  0A5C  2A59               	goto	u3747
  4861  0A5D  2A5E               	nop2
  4862                           opt subtitle "HI-TECH Software Omniscient Code Generator (Lite mode) build 49521"
  4863                           
  4864                           opt pagewidth 120
  4865                           
  4866  0A5E                     l2768:	
  4867                           opt subtitle "HI-TECH Software Omniscient Code Generator (Lite mode) build 49521"
  4868  0A5E  1283               	bcf	status, 5	;RP0=0, select bank0
  4869  0A5F  1303               	bcf	status, 6	;RP1=0, select bank0
  4870  0A60  149F               	bsf	(31),1	;volatile
  4871                           opt subtitle "HI-TECH Software Omniscient Code Generator (Lite mode) build 49521"
  4872                           
  4873  0A61  2A62               	goto	l191
  4874                           opt subtitle "HI-TECH Software Omniscient Code Generator (Lite mode) build 49521"
  4875  0A62                     l192:	
  4876                           opt subtitle "HI-TECH Software Omniscient Code Generator (Lite mode) build 49521"
  4877  0A62                     l191:	
  4878  0A62  189F               	btfsc	(31),1	;volatile
  4879  0A63  2A65               	goto	u2111
  4880  0A64  2A66               	goto	u2110
  4881  0A65                     u2111:
  4882  0A65  2A62               	goto	l191
  4883  0A66                     u2110:
  4884  0A66  2A67               	goto	l2770
  4885                           opt subtitle "HI-TECH Software Omniscient Code Generator (Lite mode) build 49521"
  4886  0A67                     l193:	
  4887                           opt subtitle "HI-TECH Software Omniscient Code Generator (Lite mode) build 49521"
  4888                           
  4889  0A67                     l2770:	
  4890                           opt subtitle "HI-TECH Software Omniscient Code Generator (Lite mode) build 49521"
  4891  0A67  081E               	movf	(30),w	;volatile
  4892  0A68  00B4               	movwf	(??_adcReadTemp+0)+0
  4893  0A69  0834               	movf	(??_adcReadTemp+0)+0,w
  4894  0A6A  00B6               	movwf	(adcReadTemp@value)
  4895                           opt subtitle "HI-TECH Software Omniscient Code Generator (Lite mode) build 49521"
  4896                           
  4897  0A6B                     l2772:	
  4898                           opt subtitle "HI-TECH Software Omniscient Code Generator (Lite mode) build 49521"
  4899  0A6B  101F               	bcf	(31),0	;volatile
  4900                           opt subtitle "HI-TECH Software Omniscient Code Generator (Lite mode) build 49521"
  4901                           
  4902  0A6C                     l2774:	
  4903                           opt subtitle "HI-TECH Software Omniscient Code Generator (Lite mode) build 49521"
  4904  0A6C  1008               	bcf	(8),0	;volatile
  4905                           opt subtitle "HI-TECH Software Omniscient Code Generator (Lite mode) build 49521"
  4906                           
  4907  0A6D  0836               	movf	(adcReadTemp@value),w
  4908  0A6E  2A6F               	goto	l194
  4909                           opt subtitle "HI-TECH Software Omniscient Code Generator (Lite mode) build 49521"
  4910  0A6F                     l2776:	
  4911                           opt subtitle "HI-TECH Software Omniscient Code Generator (Lite mode) build 49521"
  4912                           
  4913  0A6F                     l194:	
  4914  0A6F  0008               	return
  4915                           opt subtitle "HI-TECH Software Omniscient Code Generator (Lite mode) build 49521"
  4916                           
  4917  0A70                     	__end_of_adcReadTemp:
  4918                           opt subtitle "HI-TECH Software Omniscient Code Generator (Lite mode) build 49521"
  4919                           
  4920                           opt pagewidth 120
  4921                           
  4922                           	opt lm
  4923                           
  4924                           	processor	16LF707
  4925                           clrc	macro
  4926                           	bcf	3,0
  4927                           	endm
  4928                           clrz	macro
  4929                           	bcf	3,2
  4930                           	endm
  4931                           setc	macro
  4932                           	bsf	3,0
  4933                           	endm
  4934                           setz	macro
  4935                           	bsf	3,2
  4936                           	endm
  4937                           skipc	macro
  4938                           	btfss	3,0
  4939                           	endm
  4940                           skipz	macro
  4941                           	btfss	3,2
  4942                           	endm
  4943                           skipnc	macro
  4944                           	btfsc	3,0
  4945                           	endm
  4946                           skipnz	macro
  4947                           	btfsc	3,2
  4948                           	endm
  4949                           indf	equ	0
  4950                           indf0	equ	0
  4951                           pc	equ	2
  4952  099D                     __ptext1037:	;psect for function _adcReadVsupercap
  4953                           opt subtitle "HI-TECH Software Omniscient Code Generator (Lite mode) build 49521"
  4954                           
  4955                           opt pagewidth 120
  4956                           
  4957  0029                     	__size_of_adcReadVsupercap	equ	__end_of_adcReadVsupercap-_adcReadVsupercap
  4958                           opt subtitle "HI-TECH Software Omniscient Code Generator (Lite mode) build 49521"
  4959  099D                     _adcReadVsupercap:	
  4960                           opt subtitle "HI-TECH Software Omniscient Code Generator (Lite mode) build 49521"
  4961                           
  4962                           opt pagewidth 120
  4963                           
  4964  099D                     l2778:	
  4965                           opt subtitle "HI-TECH Software Omniscient Code Generator (Lite mode) build 49521"
  4966                           
  4967  099D  1283               	bcf	status, 5	;RP0=0, select bank0
  4968  099E  1303               	bcf	status, 6	;RP1=0, select bank0
  4969  099F  081F               	movf	(31),w	;volatile
  4970  09A0  39C3               	andlw	not (((1<<4)-1)<<2)
  4971  09A1  3818               	iorlw	(06h & ((1<<4)-1))<<2
  4972  09A2  009F               	movwf	(31)	;volatile
  4973                           opt subtitle "HI-TECH Software Omniscient Code Generator (Lite mode) build 49521"
  4974                           
  4975  09A3  1683               	bsf	status, 5	;RP0=1, select bank1
  4976  09A4  1303               	bcf	status, 6	;RP1=0, select bank1
  4977  09A5  081D               	movf	(157)^080h,w	;volatile
  4978  09A6  39FC               	andlw	not (((1<<2)-1)<<0)
  4979  09A7  3802               	iorlw	(02h & ((1<<2)-1))<<0
  4980  09A8  009D               	movwf	(157)^080h	;volatile
  4981                           opt subtitle "HI-TECH Software Omniscient Code Generator (Lite mode) build 49521"
  4982                           
  4983  09A9                     l2780:	
  4984                           opt subtitle "HI-TECH Software Omniscient Code Generator (Lite mode) build 49521"
  4985  09A9  1283               	bcf	status, 5	;RP0=0, select bank0
  4986  09AA  1303               	bcf	status, 6	;RP1=0, select bank0
  4987  09AB  141F               	bsf	(31),0	;volatile
  4988                           opt subtitle "HI-TECH Software Omniscient Code Generator (Lite mode) build 49521"
  4989                           
  4990  09AC                     l2782:	
  4991                           opt subtitle "HI-TECH Software Omniscient Code Generator (Lite mode) build 49521"
  4992                           
  4993  09AC  3003               movlw	3
  4994  09AD  00B5               movwf	((??_adcReadVsupercap+0)+0+1),f
  4995  09AE  3097               	movlw	151
  4996  09AF  00B4               movwf	((??_adcReadVsupercap+0)+0),f
  4997  09B0                     u3757:
  4998  09B0  0BB4               	decfsz	((??_adcReadVsupercap+0)+0),f
  4999  09B1  29B0               	goto	u3757
  5000  09B2  0BB5               	decfsz	((??_adcReadVsupercap+0)+0+1),f
  5001  09B3  29B0               	goto	u3757
  5002  09B4  29B5               	nop2
  5003                           opt subtitle "HI-TECH Software Omniscient Code Generator (Lite mode) build 49521"
  5004                           
  5005                           opt pagewidth 120
  5006                           
  5007  09B5                     l2784:	
  5008                           opt subtitle "HI-TECH Software Omniscient Code Generator (Lite mode) build 49521"
  5009  09B5  1283               	bcf	status, 5	;RP0=0, select bank0
  5010  09B6  1303               	bcf	status, 6	;RP1=0, select bank0
  5011  09B7  149F               	bsf	(31),1	;volatile
  5012                           opt subtitle "HI-TECH Software Omniscient Code Generator (Lite mode) build 49521"
  5013                           
  5014  09B8  29B9               	goto	l203
  5015                           opt subtitle "HI-TECH Software Omniscient Code Generator (Lite mode) build 49521"
  5016  09B9                     l204:	
  5017                           opt subtitle "HI-TECH Software Omniscient Code Generator (Lite mode) build 49521"
  5018  09B9                     l203:	
  5019  09B9  189F               	btfsc	(31),1	;volatile
  5020  09BA  29BC               	goto	u2121
  5021  09BB  29BD               	goto	u2120
  5022  09BC                     u2121:
  5023  09BC  29B9               	goto	l203
  5024  09BD                     u2120:
  5025  09BD  29BE               	goto	l2786
  5026                           opt subtitle "HI-TECH Software Omniscient Code Generator (Lite mode) build 49521"
  5027  09BE                     l205:	
  5028                           opt subtitle "HI-TECH Software Omniscient Code Generator (Lite mode) build 49521"
  5029                           
  5030  09BE                     l2786:	
  5031                           opt subtitle "HI-TECH Software Omniscient Code Generator (Lite mode) build 49521"
  5032  09BE  081E               	movf	(30),w	;volatile
  5033  09BF  00B4               	movwf	(??_adcReadVsupercap+0)+0
  5034  09C0  0834               	movf	(??_adcReadVsupercap+0)+0,w
  5035  09C1  00B6               	movwf	(adcReadVsupercap@value)
  5036                           opt subtitle "HI-TECH Software Omniscient Code Generator (Lite mode) build 49521"
  5037                           
  5038  09C2                     l2788:	
  5039                           opt subtitle "HI-TECH Software Omniscient Code Generator (Lite mode) build 49521"
  5040  09C2  101F               	bcf	(31),0	;volatile
  5041                           opt subtitle "HI-TECH Software Omniscient Code Generator (Lite mode) build 49521"
  5042                           
  5043  09C3  0836               	movf	(adcReadVsupercap@value),w
  5044  09C4  29C5               	goto	l206
  5045                           opt subtitle "HI-TECH Software Omniscient Code Generator (Lite mode) build 49521"
  5046  09C5                     l2790:	
  5047                           opt subtitle "HI-TECH Software Omniscient Code Generator (Lite mode) build 49521"
  5048                           
  5049  09C5                     l206:	
  5050  09C5  0008               	return
  5051                           opt subtitle "HI-TECH Software Omniscient Code Generator (Lite mode) build 49521"
  5052                           
  5053  09C6                     	__end_of_adcReadVsupercap:
  5054                           opt subtitle "HI-TECH Software Omniscient Code Generator (Lite mode) build 49521"
  5055                           
  5056                           opt pagewidth 120
  5057                           
  5058                           	opt lm
  5059                           
  5060                           	processor	16LF707
  5061                           clrc	macro
  5062                           	bcf	3,0
  5063                           	endm
  5064                           clrz	macro
  5065                           	bcf	3,2
  5066                           	endm
  5067                           setc	macro
  5068                           	bsf	3,0
  5069                           	endm
  5070                           setz	macro
  5071                           	bsf	3,2
  5072                           	endm
  5073                           skipc	macro
  5074                           	btfss	3,0
  5075                           	endm
  5076                           skipz	macro
  5077                           	btfss	3,2
  5078                           	endm
  5079                           skipnc	macro
  5080                           	btfsc	3,0
  5081                           	endm
  5082                           skipnz	macro
  5083                           	btfsc	3,2
  5084                           	endm
  5085                           indf	equ	0
  5086                           indf0	equ	0
  5087                           pc	equ	2
  5088                           pcl	equ	2
  5089                           status	equ	3
  5090                           fsr	equ	4
  5091                           fsr0	equ	4
  5092                           c	equ	1
  5093                           z	equ	0
  5094                           pclath	equ	10
  5095                           # 46 "/Applications/microchip/xc8/v1.12/include/pic16lf707.h"
  5096                           INDF equ 00h ;# 
  5097                           # 52 "/Applications/microchip/xc8/v1.12/include/pic16lf707.h"
  5098                           TMR0 equ 01h ;# 
  5099  0D2C                     __ptext1038:	;psect for function _Send_Packet
  5100                           opt subtitle "HI-TECH Software Omniscient Code Generator (Lite mode) build 49521"
  5101                           
  5102                           opt pagewidth 120
  5103                           
  5104  00D4                     	__size_of_Send_Packet	equ	__end_of_Send_Packet-_Send_Packet
  5105                           opt subtitle "HI-TECH Software Omniscient Code Generator (Lite mode) build 49521"
  5106  0D2C                     _Send_Packet:	
  5107                           opt subtitle "HI-TECH Software Omniscient Code Generator (Lite mode) build 49521"
  5108                           
  5109                           opt pagewidth 120
  5110                           
  5111  0D2C  1683               	bsf	status, 5	;RP0=1, select bank1
  5112  0D2D  1303               	bcf	status, 6	;RP1=0, select bank1
  5113  0D2E  00A9               	movwf	(Send_Packet@type)^080h
  5114                           opt subtitle "HI-TECH Software Omniscient Code Generator (Lite mode) build 49521"
  5115  0D2F                     l3816:	
  5116                           opt subtitle "HI-TECH Software Omniscient Code Generator (Lite mode) build 49521"
  5117                           
  5118  0D2F  120A  158A  21C6   	fcall	_SwitchToTxMode
              120A  158A         
  5119                           opt subtitle "HI-TECH Software Omniscient Code Generator (Lite mode) build 49521"
  5120                           
  5121  0D34                     l3818:	
  5122                           opt subtitle "HI-TECH Software Omniscient Code Generator (Lite mode) build 49521"
  5123  0D34  3017               	movlw	(017h)
  5124  0D35  120A  158A  2121   	fcall	_SPI_Read_Reg
              120A  158A         
  5125  0D3A  1283               	bcf	status, 5	;RP0=0, select bank0
  5126  0D3B  1303               	bcf	status, 6	;RP1=0, select bank0
  5127  0D3C  00CD               	movwf	(??_Send_Packet+0)+0
  5128  0D3D  084D               	movf	(??_Send_Packet+0)+0,w
  5129  0D3E  1683               	bsf	status, 5	;RP0=1, select bank1
  5130  0D3F  1303               	bcf	status, 6	;RP1=0, select bank1
  5131  0D40  00AA               	movwf	(Send_Packet@fifo_sta)^080h
  5132                           opt subtitle "HI-TECH Software Omniscient Code Generator (Lite mode) build 49521"
  5133                           
  5134  0D41                     l3820:	
  5135                           opt subtitle "HI-TECH Software Omniscient Code Generator (Lite mode) build 49521"
  5136  0D41  1AAA               	btfsc	(Send_Packet@fifo_sta)^080h,(5)&7
  5137  0D42  2D44               	goto	u3371
  5138  0D43  2D45               	goto	u3370
  5139  0D44                     u3371:
  5140  0D44  2DFF               	goto	l256
  5141  0D45                     u3370:
  5142                           opt subtitle "HI-TECH Software Omniscient Code Generator (Lite mode) build 49521"
  5143                           
  5144  0D45                     l3822:	
  5145                           opt subtitle "HI-TECH Software Omniscient Code Generator (Lite mode) build 49521"
  5146                           
  5147  0D45  308D               	movlw	low(STR_8|8000h)
  5148  0D46  1283               	bcf	status, 5	;RP0=0, select bank0
  5149  0D47  1303               	bcf	status, 6	;RP1=0, select bank0
  5150  0D48  00C2               	movwf	(?_printf)
  5151  0D49  3091               	movlw	high(STR_8|8000h)
  5152  0D4A  00C3               	movwf	((?_printf))+1
  5153  0D4B  120A  158A  2600   	fcall	_printf
              120A  158A         
  5154                           opt subtitle "HI-TECH Software Omniscient Code Generator (Lite mode) build 49521"
  5155                           
  5156  0D50                     l3824:	
  5157                           opt subtitle "HI-TECH Software Omniscient Code Generator (Lite mode) build 49521"
  5158  0D50  1683               	bsf	status, 5	;RP0=1, select bank1
  5159  0D51  1303               	bcf	status, 6	;RP1=0, select bank1
  5160  0D52  01AB               	clrf	(Send_Packet@i)^080h
  5161  0D53  2D79               	goto	l3830
  5162                           opt subtitle "HI-TECH Software Omniscient Code Generator (Lite mode) build 49521"
  5163  0D54                     l249:	
  5164                           opt subtitle "HI-TECH Software Omniscient Code Generator (Lite mode) build 49521"
  5165                           
  5166  0D54                     l3826:	
  5167                           opt subtitle "HI-TECH Software Omniscient Code Generator (Lite mode) build 49521"
  5168  0D54  309C               	movlw	low(STR_9|8000h)
  5169  0D55  1283               	bcf	status, 5	;RP0=0, select bank0
  5170  0D56  1303               	bcf	status, 6	;RP1=0, select bank0
  5171  0D57  00C2               	movwf	(?_printf)
  5172  0D58  3091               	movlw	high(STR_9|8000h)
  5173  0D59  00C3               	movwf	((?_printf))+1
  5174  0D5A  1683               	bsf	status, 5	;RP0=1, select bank1
  5175  0D5B  1303               	bcf	status, 6	;RP1=0, select bank1
  5176  0D5C  082B               	movf	(Send_Packet@i)^080h,w
  5177  0D5D  1283               	bcf	status, 5	;RP0=0, select bank0
  5178  0D5E  1303               	bcf	status, 6	;RP1=0, select bank0
  5179  0D5F  074B               	addwf	(Send_Packet@pbuf),w
  5180  0D60  00CD               	movwf	(??_Send_Packet+0)+0
  5181  0D61  084D               	movf	0+(??_Send_Packet+0)+0,w
  5182  0D62  0084               	movwf	fsr0
  5183  0D63  1383               	bcf	status, 7	;select IRP bank0
  5184  0D64  0800               	movf	indf,w
  5185  0D65  00CE               	movwf	(??_Send_Packet+1)+0+0
  5186  0D66  01CF               	clrf	(??_Send_Packet+1)+0+1
  5187  0D67  084E               	movf	0+(??_Send_Packet+1)+0,w
  5188  0D68  00C4               	movwf	0+(?_printf)+02h
  5189  0D69  084F               	movf	1+(??_Send_Packet+1)+0,w
  5190  0D6A  00C5               	movwf	1+(?_printf)+02h
  5191  0D6B  120A  158A  2600   	fcall	_printf
              120A  158A         
  5192                           opt subtitle "HI-TECH Software Omniscient Code Generator (Lite mode) build 49521"
  5193                           
  5194  0D70                     l3828:	
  5195  0D70  3001               	movlw	(01h)
  5196  0D71  1283               	bcf	status, 5	;RP0=0, select bank0
  5197  0D72  1303               	bcf	status, 6	;RP1=0, select bank0
  5198  0D73  00CD               	movwf	(??_Send_Packet+0)+0
  5199  0D74  084D               	movf	(??_Send_Packet+0)+0,w
  5200  0D75  1683               	bsf	status, 5	;RP0=1, select bank1
  5201  0D76  1303               	bcf	status, 6	;RP1=0, select bank1
  5202  0D77  07AB               	addwf	(Send_Packet@i)^080h,f
  5203  0D78  2D79               	goto	l3830
  5204                           opt subtitle "HI-TECH Software Omniscient Code Generator (Lite mode) build 49521"
  5205  0D79                     l248:	
  5206                           opt subtitle "HI-TECH Software Omniscient Code Generator (Lite mode) build 49521"
  5207  0D79                     l3830:	
  5208  0D79  1283               	bcf	status, 5	;RP0=0, select bank0
  5209  0D7A  1303               	bcf	status, 6	;RP1=0, select bank0
  5210  0D7B  084C               	movf	(Send_Packet@len),w
  5211  0D7C  1683               	bsf	status, 5	;RP0=1, select bank1
  5212  0D7D  1303               	bcf	status, 6	;RP1=0, select bank1
  5213  0D7E  022B               	subwf	(Send_Packet@i)^080h,w
  5214  0D7F  1C03               	skipc
  5215  0D80  2D82               	goto	u3381
  5216  0D81  2D83               	goto	u3380
  5217  0D82                     u3381:
  5218  0D82  2D54               	goto	l3826
  5219  0D83                     u3380:
  5220  0D83  2D84               	goto	l3832
  5221                           opt subtitle "HI-TECH Software Omniscient Code Generator (Lite mode) build 49521"
  5222  0D84                     l250:	
  5223                           opt subtitle "HI-TECH Software Omniscient Code Generator (Lite mode) build 49521"
  5224                           
  5225  0D84                     l3832:	
  5226                           opt subtitle "HI-TECH Software Omniscient Code Generator (Lite mode) build 49521"
  5227                           
  5228  0D84  3099               	movlw	low(STR_10|8000h)
  5229  0D85  1283               	bcf	status, 5	;RP0=0, select bank0
  5230  0D86  1303               	bcf	status, 6	;RP1=0, select bank0
  5231  0D87  00C2               	movwf	(?_printf)
  5232  0D88  3091               	movlw	high(STR_10|8000h)
  5233  0D89  00C3               	movwf	((?_printf))+1
  5234  0D8A  120A  158A  2600   	fcall	_printf
              120A  158A         
  5235                           opt subtitle "HI-TECH Software Omniscient Code Generator (Lite mode) build 49521"
  5236                           
  5237  0D8F                     l3834:	
  5238                           opt subtitle "HI-TECH Software Omniscient Code Generator (Lite mode) build 49521"
  5239  0D8F  1283               	bcf	status, 5	;RP0=0, select bank0
  5240  0D90  1303               	bcf	status, 6	;RP1=0, select bank0
  5241  0D91  1107               	bcf	(7),2	;volatile
  5242                           opt subtitle "HI-TECH Software Omniscient Code Generator (Lite mode) build 49521"
  5243                           
  5244  0D92                     l3836:	
  5245                           opt subtitle "HI-TECH Software Omniscient Code Generator (Lite mode) build 49521"
  5246  0D92  084B               	movf	(Send_Packet@pbuf),w
  5247  0D93  00CD               	movwf	(??_Send_Packet+0)+0
  5248  0D94  084D               	movf	(??_Send_Packet+0)+0,w
  5249  0D95  00B7               	movwf	(?_SPI_Write_Buf)
  5250  0D96  084C               	movf	(Send_Packet@len),w
  5251  0D97  00CE               	movwf	(??_Send_Packet+1)+0
  5252  0D98  084E               	movf	(??_Send_Packet+1)+0,w
  5253  0D99  00B8               	movwf	0+(?_SPI_Write_Buf)+01h
  5254  0D9A  1683               	bsf	status, 5	;RP0=1, select bank1
  5255  0D9B  1303               	bcf	status, 6	;RP1=0, select bank1
  5256  0D9C  0829               	movf	(Send_Packet@type)^080h,w
  5257  0D9D  120A  158A  21F0   	fcall	_SPI_Write_Buf
              120A  158A         
  5258                           opt subtitle "HI-TECH Software Omniscient Code Generator (Lite mode) build 49521"
  5259                           
  5260  0DA2                     l3838:	
  5261                           opt subtitle "HI-TECH Software Omniscient Code Generator (Lite mode) build 49521"
  5262  0DA2  1283               	bcf	status, 5	;RP0=0, select bank0
  5263  0DA3  1303               	bcf	status, 6	;RP1=0, select bank0
  5264  0DA4  1507               	bsf	(7),2	;volatile
  5265                           opt subtitle "HI-TECH Software Omniscient Code Generator (Lite mode) build 49521"
  5266                           
  5267  0DA5                     l3840:	
  5268                           opt subtitle "HI-TECH Software Omniscient Code Generator (Lite mode) build 49521"
  5269                           
  5270  0DA5  3006               movlw	6
  5271  0DA6  00CD               movwf	(??_Send_Packet+0)+0,f
  5272  0DA7                     u3767:
  5273  0DA7  0BCD               decfsz	(??_Send_Packet+0)+0,f
  5274  0DA8  2DA7               	goto	u3767
  5275  0DA9  0000               	nop
  5276                           opt subtitle "HI-TECH Software Omniscient Code Generator (Lite mode) build 49521"
  5277                           
  5278                           opt pagewidth 120
  5279                           
  5280  0DAA                     l3842:	
  5281                           opt subtitle "HI-TECH Software Omniscient Code Generator (Lite mode) build 49521"
  5282  0DAA  1283               	bcf	status, 5	;RP0=0, select bank0
  5283  0DAB  1303               	bcf	status, 6	;RP1=0, select bank0
  5284  0DAC  1107               	bcf	(7),2	;volatile
  5285                           opt subtitle "HI-TECH Software Omniscient Code Generator (Lite mode) build 49521"
  5286                           
  5287  0DAD                     l3844:	
  5288                           opt subtitle "HI-TECH Software Omniscient Code Generator (Lite mode) build 49521"
  5289                           
  5290  0DAD  3003               movlw	3
  5291  0DAE  00CE               movwf	((??_Send_Packet+0)+0+1),f
  5292  0DAF  3097               	movlw	151
  5293  0DB0  00CD               movwf	((??_Send_Packet+0)+0),f
  5294  0DB1                     u3777:
  5295  0DB1  0BCD               	decfsz	((??_Send_Packet+0)+0),f
  5296  0DB2  2DB1               	goto	u3777
  5297  0DB3  0BCE               	decfsz	((??_Send_Packet+0)+0+1),f
  5298  0DB4  2DB1               	goto	u3777
  5299  0DB5  2DB6               	nop2
  5300                           opt subtitle "HI-TECH Software Omniscient Code Generator (Lite mode) build 49521"
  5301                           
  5302                           opt pagewidth 120
  5303                           
  5304  0DB6  2DEE               	goto	l3858
  5305                           opt subtitle "HI-TECH Software Omniscient Code Generator (Lite mode) build 49521"
  5306  0DB7                     l252:	
  5307                           opt subtitle "HI-TECH Software Omniscient Code Generator (Lite mode) build 49521"
  5308                           
  5309  0DB7                     l3846:	
  5310                           opt subtitle "HI-TECH Software Omniscient Code Generator (Lite mode) build 49521"
  5311  0DB7  120A  158A  213A   	fcall	_rfm70TxDataSentInterrupt
              120A  158A         
  5312  0DBC  3A00               	xorlw	0
  5313  0DBD  1903               	skipnz
  5314  0DBE  2DC0               	goto	u3391
  5315  0DBF  2DC1               	goto	u3390
  5316  0DC0                     u3391:
  5317  0DC0  2DD2               	goto	l3852
  5318  0DC1                     u3390:
  5319                           opt subtitle "HI-TECH Software Omniscient Code Generator (Lite mode) build 49521"
  5320                           
  5321  0DC1                     l3848:	
  5322                           opt subtitle "HI-TECH Software Omniscient Code Generator (Lite mode) build 49521"
  5323  0DC1  3070               	movlw	low(STR_11|8000h)
  5324  0DC2  1283               	bcf	status, 5	;RP0=0, select bank0
  5325  0DC3  1303               	bcf	status, 6	;RP1=0, select bank0
  5326  0DC4  00C2               	movwf	(?_printf)
  5327  0DC5  3091               	movlw	high(STR_11|8000h)
  5328  0DC6  00C3               	movwf	((?_printf))+1
  5329  0DC7  120A  158A  2600   	fcall	_printf
              120A  158A         
  5330                           opt subtitle "HI-TECH Software Omniscient Code Generator (Lite mode) build 49521"
  5331                           
  5332  0DCC                     l3850:	
  5333                           opt subtitle "HI-TECH Software Omniscient Code Generator (Lite mode) build 49521"
  5334  0DCC  120A  158A  2304   	fcall	_SwitchToRxMode
              120A  158A         
  5335  0DD1  2DD2               	goto	l3852
  5336                           opt subtitle "HI-TECH Software Omniscient Code Generator (Lite mode) build 49521"
  5337                           
  5338  0DD2                     l253:	
  5339                           opt subtitle "HI-TECH Software Omniscient Code Generator (Lite mode) build 49521"
  5340                           
  5341  0DD2                     l3852:	
  5342                           opt subtitle "HI-TECH Software Omniscient Code Generator (Lite mode) build 49521"
  5343                           
  5344  0DD2  120A  158A  2159   	fcall	_rfm70TxDataSentErrorInterrupt
              120A  158A         
  5345  0DD7  3A00               	xorlw	0
  5346  0DD8  1903               	skipnz
  5347  0DD9  2DDB               	goto	u3401
  5348  0DDA  2DDC               	goto	u3400
  5349  0DDB                     u3401:
  5350  0DDB  2DEE               	goto	l3858
  5351  0DDC                     u3400:
  5352                           opt subtitle "HI-TECH Software Omniscient Code Generator (Lite mode) build 49521"
  5353                           
  5354  0DDC                     l3854:	
  5355                           opt subtitle "HI-TECH Software Omniscient Code Generator (Lite mode) build 49521"
  5356  0DDC  30E2               	movlw	low(STR_12|8000h)
  5357  0DDD  1283               	bcf	status, 5	;RP0=0, select bank0
  5358  0DDE  1303               	bcf	status, 6	;RP1=0, select bank0
  5359  0DDF  00C2               	movwf	(?_printf)
  5360  0DE0  3090               	movlw	high(STR_12|8000h)
  5361  0DE1  00C3               	movwf	((?_printf))+1
  5362  0DE2  120A  158A  2600   	fcall	_printf
              120A  158A         
  5363                           opt subtitle "HI-TECH Software Omniscient Code Generator (Lite mode) build 49521"
  5364                           
  5365  0DE7                     l3856:	
  5366                           opt subtitle "HI-TECH Software Omniscient Code Generator (Lite mode) build 49521"
  5367  0DE7  120A  158A  2304   	fcall	_SwitchToRxMode
              120A  158A         
  5368  0DEC  2DEE               	goto	l3858
  5369                           opt subtitle "HI-TECH Software Omniscient Code Generator (Lite mode) build 49521"
  5370                           
  5371  0DED                     l254:	
  5372  0DED  2DEE               	goto	l3858
  5373                           opt subtitle "HI-TECH Software Omniscient Code Generator (Lite mode) build 49521"
  5374                           
  5375  0DEE                     l251:	
  5376                           opt subtitle "HI-TECH Software Omniscient Code Generator (Lite mode) build 49521"
  5377                           
  5378  0DEE                     l3858:	
  5379  0DEE  1283               	bcf	status, 5	;RP0=0, select bank0
  5380  0DEF  1303               	bcf	status, 6	;RP1=0, select bank0
  5381  0DF0  1C88               	btfss	(8),1	;volatile
  5382  0DF1  2DF3               	goto	u3411
  5383  0DF2  2DF4               	goto	u3410
  5384  0DF3                     u3411:
  5385  0DF3  2DB7               	goto	l3846
  5386  0DF4                     u3410:
  5387  0DF4  2DF5               	goto	l3860
  5388                           opt subtitle "HI-TECH Software Omniscient Code Generator (Lite mode) build 49521"
  5389  0DF5                     l255:	
  5390                           opt subtitle "HI-TECH Software Omniscient Code Generator (Lite mode) build 49521"
  5391                           
  5392  0DF5                     l3860:	
  5393                           opt subtitle "HI-TECH Software Omniscient Code Generator (Lite mode) build 49521"
  5394                           
  5395                           opt pagewidth 120
  5396  0DF5  3097               	movlw	low(STR_13|8000h)
  5397  0DF6  00C2               	movwf	(?_printf)
  5398  0DF7  3091               	movlw	high(STR_13|8000h)
  5399  0DF8  00C3               	movwf	((?_printf))+1
  5400  0DF9  120A  158A  2600   	fcall	_printf
              120A  158A         
  5401  0DFE  2DFF               	goto	l256
  5402                           opt subtitle "HI-TECH Software Omniscient Code Generator (Lite mode) build 49521"
  5403                           
  5404  0DFF                     l247:	
  5405                           opt subtitle "HI-TECH Software Omniscient Code Generator (Lite mode) build 49521"
  5406                           
  5407  0DFF                     l256:	
  5408  0DFF  0008               	return
  5409                           opt subtitle "HI-TECH Software Omniscient Code Generator (Lite mode) build 49521"
  5410                           
  5411  0E00                     	__end_of_Send_Packet:
  5412                           opt subtitle "HI-TECH Software Omniscient Code Generator (Lite mode) build 49521"
  5413                           
  5414                           opt pagewidth 120
  5415                           
  5416                           	opt lm
  5417                           
  5418                           	processor	16LF707
  5419                           clrc	macro
  5420                           	bcf	3,0
  5421                           	endm
  5422                           clrz	macro
  5423                           	bcf	3,2
  5424                           	endm
  5425                           setc	macro
  5426                           	bsf	3,0
  5427                           	endm
  5428                           setz	macro
  5429                           	bsf	3,2
  5430                           	endm
  5431                           skipc	macro
  5432                           	btfss	3,0
  5433                           	endm
  5434                           skipz	macro
  5435                           	btfss	3,2
  5436                           	endm
  5437                           skipnc	macro
  5438                           	btfsc	3,0
  5439                           	endm
  5440                           skipnz	macro
  5441                           	btfsc	3,2
  5442                           	endm
  5443                           indf	equ	0
  5444                           indf0	equ	0
  5445                           pc	equ	2
  5446                           pcl	equ	2
  5447                           status	equ	3
  5448                           fsr	equ	4
  5449                           fsr0	equ	4
  5450                           c	equ	1
  5451                           z	equ	0
  5452                           pclath	equ	10
  5453                           # 46 "/Applications/microchip/xc8/v1.12/include/pic16lf707.h"
  5454                           INDF equ 00h ;# 
  5455                           # 52 "/Applications/microchip/xc8/v1.12/include/pic16lf707.h"
  5456                           TMR0 equ 01h ;# 
  5457                           # 58 "/Applications/microchip/xc8/v1.12/include/pic16lf707.h"
  5458                           PCL equ 02h ;# 
  5459                           # 64 "/Applications/microchip/xc8/v1.12/include/pic16lf707.h"
  5460  0E00                     __ptext1039:	;psect for function _printf
  5461                           opt subtitle "HI-TECH Software Omniscient Code Generator (Lite mode) build 49521"
  5462                           
  5463                           opt pagewidth 120
  5464                           
  5465  0200                     	__size_of_printf	equ	__end_of_printf-_printf
  5466                           opt subtitle "HI-TECH Software Omniscient Code Generator (Lite mode) build 49521"
  5467  0E00                     _printf:	
  5468                           opt subtitle "HI-TECH Software Omniscient Code Generator (Lite mode) build 49521"
  5469                           
  5470                           opt pagewidth 120
  5471                           
  5472  0E00                     l3292:	
  5473                           opt subtitle "HI-TECH Software Omniscient Code Generator (Lite mode) build 49521"
  5474                           
  5475                           opt pagewidth 120
  5476                           
  5477                           	opt lm
  5478                           
  5479                           	processor	16LF707
  5480                           clrc	macro
  5481                           	bcf	3,0
  5482                           	endm
  5483                           clrz	macro
  5484                           	bcf	3,2
  5485  0E00  3044               	movlw	(?_printf+02h)&0ffh
  5486  0E01  1283               	bcf	status, 5	;RP0=0, select bank0
  5487  0E02  1303               	bcf	status, 6	;RP1=0, select bank0
  5488  0E03  00C8               	movwf	(??_printf+0)+0
  5489  0E04  0848               	movf	(??_printf+0)+0,w
  5490  0E05  1683               	bsf	status, 5	;RP0=1, select bank1
  5491  0E06  1303               	bcf	status, 6	;RP1=0, select bank1
  5492  0E07  00A1               	movwf	(printf@ap)^080h
  5493                           opt subtitle "HI-TECH Software Omniscient Code Generator (Lite mode) build 49521"
  5494                           
  5495  0E08  2FE0               	goto	l3366
  5496                           opt subtitle "HI-TECH Software Omniscient Code Generator (Lite mode) build 49521"
  5497  0E09                     l396:	
  5498                           opt subtitle "HI-TECH Software Omniscient Code Generator (Lite mode) build 49521"
  5499                           
  5500  0E09                     l3294:	
  5501                           opt subtitle "HI-TECH Software Omniscient Code Generator (Lite mode) build 49521"
  5502  0E09  0828               	movf	(printf@c)^080h,w
  5503  0E0A  3A25               	xorlw	025h
  5504  0E0B  1903               	skipnz
  5505  0E0C  2E0E               	goto	u2851
  5506  0E0D  2E0F               	goto	u2850
  5507  0E0E                     u2851:
  5508  0E0E  2E16               	goto	l397
  5509  0E0F                     u2850:
  5510                           opt subtitle "HI-TECH Software Omniscient Code Generator (Lite mode) build 49521"
  5511                           
  5512  0E0F                     l3296:	
  5513                           opt subtitle "HI-TECH Software Omniscient Code Generator (Lite mode) build 49521"
  5514                           
  5515  0E0F  0828               	movf	(printf@c)^080h,w
  5516  0E10  120A  158A  20A5   	fcall	_putch
              120A  158A         
  5517                           opt subtitle "HI-TECH Software Omniscient Code Generator (Lite mode) build 49521"
  5518                           
  5519  0E15  2FE0               	goto	l3366
  5520                           opt subtitle "HI-TECH Software Omniscient Code Generator (Lite mode) build 49521"
  5521                           
  5522  0E16                     l397:	
  5523                           opt subtitle "HI-TECH Software Omniscient Code Generator (Lite mode) build 49521"
  5524                           
  5525                           opt pagewidth 120
  5526  0E16  01A3               	clrf	(printf@flag)^080h
  5527                           opt subtitle "HI-TECH Software Omniscient Code Generator (Lite mode) build 49521"
  5528                           
  5529  0E17  2E25               	goto	l3302
  5530                           opt subtitle "HI-TECH Software Omniscient Code Generator (Lite mode) build 49521"
  5531                           
  5532                           opt pagewidth 120
  5533  0E18                     l399:	
  5534                           opt subtitle "HI-TECH Software Omniscient Code Generator (Lite mode) build 49521"
  5535                           
  5536  0E18  2FFF               	goto	l429
  5537                           opt subtitle "HI-TECH Software Omniscient Code Generator (Lite mode) build 49521"
  5538                           
  5539                           opt pagewidth 120
  5540  0E19                     l401:	
  5541  0E19  2E4B               	goto	l403
  5542                           opt subtitle "HI-TECH Software Omniscient Code Generator (Lite mode) build 49521"
  5543                           
  5544  0E1A                     l402:	
  5545                           opt subtitle "HI-TECH Software Omniscient Code Generator (Lite mode) build 49521"
  5546                           
  5547                           opt pagewidth 120
  5548  0E1A  2E4B               	goto	l403
  5549                           opt subtitle "HI-TECH Software Omniscient Code Generator (Lite mode) build 49521"
  5550                           
  5551                           opt pagewidth 120
  5552  0E1B                     l404:	
  5553                           opt subtitle "HI-TECH Software Omniscient Code Generator (Lite mode) build 49521"
  5554                           
  5555  0E1B                     l405:	
  5556                           opt subtitle "HI-TECH Software Omniscient Code Generator (Lite mode) build 49521"
  5557                           
  5558                           opt pagewidth 120
  5559  0E1B  17A3               	bsf	(printf@flag)^080h+(7/8),(7)&7
  5560                           opt subtitle "HI-TECH Software Omniscient Code Generator (Lite mode) build 49521"
  5561                           
  5562  0E1C  2E4B               	goto	l403
  5563                           opt subtitle "HI-TECH Software Omniscient Code Generator (Lite mode) build 49521"
  5564                           
  5565                           opt pagewidth 120
  5566  0E1D                     l406:	
  5567                           opt subtitle "HI-TECH Software Omniscient Code Generator (Lite mode) build 49521"
  5568                           
  5569  0E1D                     l3298:	
  5570                           opt subtitle "HI-TECH Software Omniscient Code Generator (Lite mode) build 49521"
  5571  0E1D  0828               	movf	(printf@c)^080h,w
  5572  0E1E  120A  158A  20A5   	fcall	_putch
              120A  158A         
  5573                           opt subtitle "HI-TECH Software Omniscient Code Generator (Lite mode) build 49521"
  5574                           
  5575  0E23  2FE0               	goto	l3366
  5576                           opt subtitle "HI-TECH Software Omniscient Code Generator (Lite mode) build 49521"
  5577                           
  5578  0E24                     l3300:	
  5579                           opt subtitle "HI-TECH Software Omniscient Code Generator (Lite mode) build 49521"
  5580  0E24  2E4B               	goto	l403
  5581                           opt subtitle "HI-TECH Software Omniscient Code Generator (Lite mode) build 49521"
  5582                           
  5583  0E25                     l398:	
  5584                           opt subtitle "HI-TECH Software Omniscient Code Generator (Lite mode) build 49521"
  5585  0E25                     l3302:	
  5586  0E25  1283               	bcf	status, 5	;RP0=0, select bank0
  5587  0E26  1303               	bcf	status, 6	;RP1=0, select bank0
  5588  0E27  0843               	movf	(printf@f+1),w
  5589  0E28  00C9               	movwf	(??_printf+0)+0+1
  5590  0E29  0842               	movf	(printf@f),w
  5591  0E2A  00C8               	movwf	(??_printf+0)+0
  5592  0E2B  3001               	movlw	(01h)
  5593  0E2C  07C2               	addwf	(printf@f),f
  5594  0E2D  1803               	skipnc
  5595  0E2E  0AC3               	incf	(printf@f+1),f
  5596  0E2F  0849               	movf	1+(??_printf+0)+0,w
  5597  0E30  00FF               	movwf	btemp+1
  5598  0E31  0848               	movf	0+(??_printf+0)+0,w
  5599  0E32  0084               	movwf	fsr0
  5600  0E33  160A  118A  2000   	fcall	stringtab
              120A  158A         
  5601  0E38  1683               	bsf	status, 5	;RP0=1, select bank1
  5602  0E39  1303               	bcf	status, 6	;RP1=0, select bank1
  5603  0E3A  00A8               	movwf	(printf@c)^080h
  5604                           opt subtitle "HI-TECH Software Omniscient Code Generator (Lite mode) build 49521"
  5605                           
  5606                           opt pagewidth 120
  5607                           
  5608                           	opt lm
  5609                           
  5610                           	processor	16LF707
  5611                           clrc	macro
  5612                           	bcf	3,0
  5613                           	endm
  5614                           clrz	macro
  5615                           	bcf	3,2
  5616  0E3B  3A00               	xorlw	0^0	; case 0
  5617  0E3C  1903               	skipnz
  5618  0E3D  2FFF               	goto	l429
  5619  0E3E  3A58               	xorlw	88^0	; case 88
  5620  0E3F  1903               	skipnz
  5621  0E40  2E1B               	goto	l405
  5622  0E41  3A3C               	xorlw	100^88	; case 100
  5623  0E42  1903               	skipnz
  5624  0E43  2E4B               	goto	l403
  5625  0E44  3A0D               	xorlw	105^100	; case 105
  5626  0E45  1903               	skipnz
  5627  0E46  2E4B               	goto	l403
  5628  0E47  3A11               	xorlw	120^105	; case 120
  5629  0E48  1903               	skipnz
  5630  0E49  2E1B               	goto	l405
  5631  0E4A  2E1D               	goto	l3298
  5632                           opt subtitle "HI-TECH Software Omniscient Code Generator (Lite mode) build 49521"
  5633                           
  5634                           opt pagewidth 120
  5635                           
  5636  0E4B                     l403:	
  5637                           opt subtitle "HI-TECH Software Omniscient Code Generator (Lite mode) build 49521"
  5638                           
  5639  0E4B  1683               	bsf	status, 5	;RP0=1, select bank1
  5640  0E4C  1303               	bcf	status, 6	;RP1=0, select bank1
  5641  0E4D  1BA3               	btfsc	(printf@flag)^080h,(7)&7
  5642  0E4E  2E50               	goto	u2861
  5643  0E4F  2E51               	goto	u2860
  5644  0E50                     u2861:
  5645  0E50  2E74               	goto	l3314
  5646  0E51                     u2860:
  5647                           opt subtitle "HI-TECH Software Omniscient Code Generator (Lite mode) build 49521"
  5648                           
  5649  0E51                     l3304:	
  5650                           opt subtitle "HI-TECH Software Omniscient Code Generator (Lite mode) build 49521"
  5651                           
  5652  0E51  0821               	movf	(printf@ap)^080h,w
  5653  0E52  0084               	movwf	fsr0
  5654  0E53  1383               	bcf	status, 7	;select IRP bank0
  5655  0E54  0800               	movf	indf,w
  5656  0E55  00A4               	movwf	(printf@_val)^080h
  5657  0E56  0A84               	incf	fsr0,f
  5658  0E57  0800               	movf	indf,w
  5659  0E58  00A5               	movwf	(printf@_val+1)^080h
  5660                           opt subtitle "HI-TECH Software Omniscient Code Generator (Lite mode) build 49521"
  5661  0E59                     l3306:	
  5662  0E59  3002               	movlw	(02h)
  5663  0E5A  1283               	bcf	status, 5	;RP0=0, select bank0
  5664  0E5B  1303               	bcf	status, 6	;RP1=0, select bank0
  5665  0E5C  00C8               	movwf	(??_printf+0)+0
  5666  0E5D  0848               	movf	(??_printf+0)+0,w
  5667  0E5E  1683               	bsf	status, 5	;RP0=1, select bank1
  5668  0E5F  1303               	bcf	status, 6	;RP1=0, select bank1
  5669  0E60  07A1               	addwf	(printf@ap)^080h,f
  5670                           opt subtitle "HI-TECH Software Omniscient Code Generator (Lite mode) build 49521"
  5671                           
  5672  0E61                     l3308:	
  5673                           opt subtitle "HI-TECH Software Omniscient Code Generator (Lite mode) build 49521"
  5674  0E61  1FA5               	btfss	(printf@_val+1)^080h,7
  5675  0E62  2E64               	goto	u2871
  5676  0E63  2E65               	goto	u2870
  5677  0E64                     u2871:
  5678  0E64  2F0D               	goto	l3344
  5679  0E65                     u2870:
  5680                           opt subtitle "HI-TECH Software Omniscient Code Generator (Lite mode) build 49521"
  5681                           
  5682  0E65                     l3310:	
  5683                           opt subtitle "HI-TECH Software Omniscient Code Generator (Lite mode) build 49521"
  5684  0E65  3003               	movlw	(03h)
  5685  0E66  1283               	bcf	status, 5	;RP0=0, select bank0
  5686  0E67  1303               	bcf	status, 6	;RP1=0, select bank0
  5687  0E68  00C8               	movwf	(??_printf+0)+0
  5688  0E69  0848               	movf	(??_printf+0)+0,w
  5689  0E6A  1683               	bsf	status, 5	;RP0=1, select bank1
  5690  0E6B  1303               	bcf	status, 6	;RP1=0, select bank1
  5691  0E6C  04A3               	iorwf	(printf@flag)^080h,f
  5692                           opt subtitle "HI-TECH Software Omniscient Code Generator (Lite mode) build 49521"
  5693                           
  5694  0E6D                     l3312:	
  5695                           opt subtitle "HI-TECH Software Omniscient Code Generator (Lite mode) build 49521"
  5696  0E6D  09A4               	comf	(printf@_val)^080h,f
  5697  0E6E  09A5               	comf	(printf@_val+1)^080h,f
  5698  0E6F  0AA4               	incf	(printf@_val)^080h,f
  5699  0E70  1903               	skipnz
  5700  0E71  0AA5               	incf	(printf@_val+1)^080h,f
  5701  0E72  2F0D               	goto	l3344
  5702                           opt subtitle "HI-TECH Software Omniscient Code Generator (Lite mode) build 49521"
  5703                           
  5704  0E73                     l408:	
  5705                           opt subtitle "HI-TECH Software Omniscient Code Generator (Lite mode) build 49521"
  5706                           
  5707                           opt pagewidth 120
  5708  0E73  2F0D               	goto	l3344
  5709                           opt subtitle "HI-TECH Software Omniscient Code Generator (Lite mode) build 49521"
  5710                           
  5711  0E74                     l407:	
  5712                           opt subtitle "HI-TECH Software Omniscient Code Generator (Lite mode) build 49521"
  5713                           
  5714  0E74                     l3314:	
  5715                           opt subtitle "HI-TECH Software Omniscient Code Generator (Lite mode) build 49521"
  5716                           
  5717                           opt pagewidth 120
  5718  0E74  0821               	movf	(printf@ap)^080h,w
  5719  0E75  0084               	movwf	fsr0
  5720  0E76  1383               	bcf	status, 7	;select IRP bank0
  5721  0E77  0800               	movf	indf,w
  5722  0E78  00A4               	movwf	(printf@_val)^080h
  5723  0E79  0A84               	incf	fsr0,f
  5724  0E7A  0800               	movf	indf,w
  5725  0E7B  00A5               	movwf	(printf@_val+1)^080h
  5726                           opt subtitle "HI-TECH Software Omniscient Code Generator (Lite mode) build 49521"
  5727  0E7C                     l3316:	
  5728  0E7C  3002               	movlw	(02h)
  5729  0E7D  1283               	bcf	status, 5	;RP0=0, select bank0
  5730  0E7E  1303               	bcf	status, 6	;RP1=0, select bank0
  5731  0E7F  00C8               	movwf	(??_printf+0)+0
  5732  0E80  0848               	movf	(??_printf+0)+0,w
  5733  0E81  1683               	bsf	status, 5	;RP0=1, select bank1
  5734  0E82  1303               	bcf	status, 6	;RP1=0, select bank1
  5735  0E83  07A1               	addwf	(printf@ap)^080h,f
  5736  0E84  2F0D               	goto	l3344
  5737                           opt subtitle "HI-TECH Software Omniscient Code Generator (Lite mode) build 49521"
  5738                           
  5739  0E85                     l409:	
  5740                           opt subtitle "HI-TECH Software Omniscient Code Generator (Lite mode) build 49521"
  5741                           
  5742                           opt pagewidth 120
  5743  0E85  2F0D               	goto	l3344
  5744                           opt subtitle "HI-TECH Software Omniscient Code Generator (Lite mode) build 49521"
  5745                           
  5746                           opt pagewidth 120
  5747  0E86                     l411:	
  5748                           opt subtitle "HI-TECH Software Omniscient Code Generator (Lite mode) build 49521"
  5749                           
  5750  0E86  01A8               	clrf	(printf@c)^080h
  5751  0E87  0AA8               	incf	(printf@c)^080h,f
  5752                           opt subtitle "HI-TECH Software Omniscient Code Generator (Lite mode) build 49521"
  5753  0E88                     l3318:	
  5754  0E88  0828               	movf	(printf@c)^080h,w
  5755  0E89  3A05               	xorlw	05h
  5756  0E8A  1D03               	skipz
  5757  0E8B  2E8D               	goto	u2881
  5758  0E8C  2E8E               	goto	u2880
  5759  0E8D                     u2881:
  5760  0E8D  2E90               	goto	l3322
  5761  0E8E                     u2880:
  5762  0E8E  2F16               	goto	l3346
  5763                           opt subtitle "HI-TECH Software Omniscient Code Generator (Lite mode) build 49521"
  5764  0E8F                     l3320:	
  5765  0E8F  2F16               	goto	l3346
  5766                           opt subtitle "HI-TECH Software Omniscient Code Generator (Lite mode) build 49521"
  5767                           
  5768  0E90                     l412:	
  5769                           opt subtitle "HI-TECH Software Omniscient Code Generator (Lite mode) build 49521"
  5770  0E90                     l3322:	
  5771                           opt subtitle "HI-TECH Software Omniscient Code Generator (Lite mode) build 49521"
  5772  0E90  0828               	movf	(printf@c)^080h,w
  5773  0E91  1283               	bcf	status, 5	;RP0=0, select bank0
  5774  0E92  1303               	bcf	status, 6	;RP1=0, select bank0
  5775  0E93  00C8               	movwf	(??_printf+0)+0
  5776  0E94  0748               	addwf	(??_printf+0)+0,w
  5777  0E95  3E83               	addlw	low(_dpowers|8000h)
  5778  0E96  0084               	movwf	fsr0
  5779  0E97  3090               	movlw	high(_dpowers|8000h)
  5780  0E98  1803               	skipnc
  5781  0E99  3E01               	addlw	1
  5782  0E9A  00FF               	movwf	btemp+1
  5783  0E9B  160A  118A  2000   	fcall	stringtab
              120A  158A         
  5784  0EA0  00C9               	movwf	(??_printf+1)+0
  5785  0EA1  160A  118A  2000   	fcall	stringtab
              120A  158A         
  5786  0EA6  00CA               	movwf	(??_printf+1)+0+1
  5787  0EA7  084A               	movf	1+(??_printf+1)+0,w
  5788  0EA8  1683               	bsf	status, 5	;RP0=1, select bank1
  5789  0EA9  1303               	bcf	status, 6	;RP1=0, select bank1
  5790  0EAA  0225               	subwf	(printf@_val+1)^080h,w
  5791  0EAB  1D03               	skipz
  5792  0EAC  2EB3               	goto	u2895
  5793  0EAD  1283               	bcf	status, 5	;RP0=0, select bank0
  5794  0EAE  1303               	bcf	status, 6	;RP1=0, select bank0
  5795  0EAF  0849               	movf	0+(??_printf+1)+0,w
  5796  0EB0  1683               	bsf	status, 5	;RP0=1, select bank1
  5797  0EB1  1303               	bcf	status, 6	;RP1=0, select bank1
  5798  0EB2  0224               	subwf	(printf@_val)^080h,w
  5799  0EB3                     u2895:
  5800  0EB3  1803               	skipnc
  5801  0EB4  2EB6               	goto	u2891
  5802  0EB5  2EB7               	goto	u2890
  5803  0EB6                     u2891:
  5804  0EB6  2EB9               	goto	l3326
  5805  0EB7                     u2890:
  5806  0EB7  2F16               	goto	l3346
  5807                           opt subtitle "HI-TECH Software Omniscient Code Generator (Lite mode) build 49521"
  5808                           
  5809  0EB8                     l3324:	
  5810                           opt subtitle "HI-TECH Software Omniscient Code Generator (Lite mode) build 49521"
  5811  0EB8  2F16               	goto	l3346
  5812                           opt subtitle "HI-TECH Software Omniscient Code Generator (Lite mode) build 49521"
  5813  0EB9                     l414:	
  5814                           opt subtitle "HI-TECH Software Omniscient Code Generator (Lite mode) build 49521"
  5815                           
  5816  0EB9                     l3326:	
  5817  0EB9  3001               	movlw	(01h)
  5818  0EBA  1283               	bcf	status, 5	;RP0=0, select bank0
  5819  0EBB  1303               	bcf	status, 6	;RP1=0, select bank0
  5820  0EBC  00C8               	movwf	(??_printf+0)+0
  5821  0EBD  0848               	movf	(??_printf+0)+0,w
  5822  0EBE  1683               	bsf	status, 5	;RP0=1, select bank1
  5823  0EBF  1303               	bcf	status, 6	;RP1=0, select bank1
  5824  0EC0  07A8               	addwf	(printf@c)^080h,f
  5825                           opt subtitle "HI-TECH Software Omniscient Code Generator (Lite mode) build 49521"
  5826  0EC1                     l3328:	
  5827  0EC1  0828               	movf	(printf@c)^080h,w
  5828  0EC2  3A05               	xorlw	05h
  5829  0EC3  1D03               	skipz
  5830  0EC4  2EC6               	goto	u2901
  5831  0EC5  2EC7               	goto	u2900
  5832  0EC6                     u2901:
  5833  0EC6  2E90               	goto	l3322
  5834  0EC7                     u2900:
  5835  0EC7  2F16               	goto	l3346
  5836                           opt subtitle "HI-TECH Software Omniscient Code Generator (Lite mode) build 49521"
  5837  0EC8                     l413:	
  5838                           opt subtitle "HI-TECH Software Omniscient Code Generator (Lite mode) build 49521"
  5839                           
  5840  0EC8  2F16               	goto	l3346
  5841                           opt subtitle "HI-TECH Software Omniscient Code Generator (Lite mode) build 49521"
  5842                           
  5843                           opt pagewidth 120
  5844  0EC9                     l416:	
  5845                           opt subtitle "HI-TECH Software Omniscient Code Generator (Lite mode) build 49521"
  5846                           
  5847  0EC9  01A8               	clrf	(printf@c)^080h
  5848  0ECA  0AA8               	incf	(printf@c)^080h,f
  5849                           opt subtitle "HI-TECH Software Omniscient Code Generator (Lite mode) build 49521"
  5850  0ECB                     l3330:	
  5851  0ECB  0828               	movf	(printf@c)^080h,w
  5852  0ECC  3A04               	xorlw	04h
  5853  0ECD  1D03               	skipz
  5854  0ECE  2ED0               	goto	u2911
  5855  0ECF  2ED1               	goto	u2910
  5856  0ED0                     u2911:
  5857  0ED0  2ED3               	goto	l3334
  5858  0ED1                     u2910:
  5859  0ED1  2F16               	goto	l3346
  5860                           opt subtitle "HI-TECH Software Omniscient Code Generator (Lite mode) build 49521"
  5861  0ED2                     l3332:	
  5862  0ED2  2F16               	goto	l3346
  5863                           opt subtitle "HI-TECH Software Omniscient Code Generator (Lite mode) build 49521"
  5864                           
  5865  0ED3                     l417:	
  5866                           opt subtitle "HI-TECH Software Omniscient Code Generator (Lite mode) build 49521"
  5867  0ED3                     l3334:	
  5868                           opt subtitle "HI-TECH Software Omniscient Code Generator (Lite mode) build 49521"
  5869  0ED3  0828               	movf	(printf@c)^080h,w
  5870  0ED4  1283               	bcf	status, 5	;RP0=0, select bank0
  5871  0ED5  1303               	bcf	status, 6	;RP1=0, select bank0
  5872  0ED6  00C8               	movwf	(??_printf+0)+0
  5873  0ED7  0748               	addwf	(??_printf+0)+0,w
  5874  0ED8  3E8D               	addlw	low(_hexpowers|8000h)
  5875  0ED9  0084               	movwf	fsr0
  5876  0EDA  3090               	movlw	high(_hexpowers|8000h)
  5877  0EDB  1803               	skipnc
  5878  0EDC  3E01               	addlw	1
  5879  0EDD  00FF               	movwf	btemp+1
  5880  0EDE  160A  118A  2000   	fcall	stringtab
              120A  158A         
  5881  0EE3  00C9               	movwf	(??_printf+1)+0
  5882  0EE4  160A  118A  2000   	fcall	stringtab
              120A  158A         
  5883  0EE9  00CA               	movwf	(??_printf+1)+0+1
  5884  0EEA  084A               	movf	1+(??_printf+1)+0,w
  5885  0EEB  1683               	bsf	status, 5	;RP0=1, select bank1
  5886  0EEC  1303               	bcf	status, 6	;RP1=0, select bank1
  5887  0EED  0225               	subwf	(printf@_val+1)^080h,w
  5888  0EEE  1D03               	skipz
  5889  0EEF  2EF6               	goto	u2925
  5890  0EF0  1283               	bcf	status, 5	;RP0=0, select bank0
  5891  0EF1  1303               	bcf	status, 6	;RP1=0, select bank0
  5892  0EF2  0849               	movf	0+(??_printf+1)+0,w
  5893  0EF3  1683               	bsf	status, 5	;RP0=1, select bank1
  5894  0EF4  1303               	bcf	status, 6	;RP1=0, select bank1
  5895  0EF5  0224               	subwf	(printf@_val)^080h,w
  5896  0EF6                     u2925:
  5897  0EF6  1803               	skipnc
  5898  0EF7  2EF9               	goto	u2921
  5899  0EF8  2EFA               	goto	u2920
  5900  0EF9                     u2921:
  5901  0EF9  2EFC               	goto	l3338
  5902  0EFA                     u2920:
  5903  0EFA  2F16               	goto	l3346
  5904                           opt subtitle "HI-TECH Software Omniscient Code Generator (Lite mode) build 49521"
  5905                           
  5906  0EFB                     l3336:	
  5907                           opt subtitle "HI-TECH Software Omniscient Code Generator (Lite mode) build 49521"
  5908  0EFB  2F16               	goto	l3346
  5909                           opt subtitle "HI-TECH Software Omniscient Code Generator (Lite mode) build 49521"
  5910  0EFC                     l419:	
  5911                           opt subtitle "HI-TECH Software Omniscient Code Generator (Lite mode) build 49521"
  5912                           
  5913  0EFC                     l3338:	
  5914  0EFC  3001               	movlw	(01h)
  5915  0EFD  1283               	bcf	status, 5	;RP0=0, select bank0
  5916  0EFE  1303               	bcf	status, 6	;RP1=0, select bank0
  5917  0EFF  00C8               	movwf	(??_printf+0)+0
  5918  0F00  0848               	movf	(??_printf+0)+0,w
  5919  0F01  1683               	bsf	status, 5	;RP0=1, select bank1
  5920  0F02  1303               	bcf	status, 6	;RP1=0, select bank1
  5921  0F03  07A8               	addwf	(printf@c)^080h,f
  5922                           opt subtitle "HI-TECH Software Omniscient Code Generator (Lite mode) build 49521"
  5923  0F04                     l3340:	
  5924  0F04  0828               	movf	(printf@c)^080h,w
  5925  0F05  3A04               	xorlw	04h
  5926  0F06  1D03               	skipz
  5927  0F07  2F09               	goto	u2931
  5928  0F08  2F0A               	goto	u2930
  5929  0F09                     u2931:
  5930  0F09  2ED3               	goto	l3334
  5931  0F0A                     u2930:
  5932  0F0A  2F16               	goto	l3346
  5933                           opt subtitle "HI-TECH Software Omniscient Code Generator (Lite mode) build 49521"
  5934  0F0B                     l418:	
  5935                           opt subtitle "HI-TECH Software Omniscient Code Generator (Lite mode) build 49521"
  5936                           
  5937  0F0B  2F16               	goto	l3346
  5938                           opt subtitle "HI-TECH Software Omniscient Code Generator (Lite mode) build 49521"
  5939                           
  5940  0F0C                     l3342:	
  5941                           opt subtitle "HI-TECH Software Omniscient Code Generator (Lite mode) build 49521"
  5942  0F0C  2F16               	goto	l3346
  5943                           opt subtitle "HI-TECH Software Omniscient Code Generator (Lite mode) build 49521"
  5944                           
  5945  0F0D                     l410:	
  5946                           opt subtitle "HI-TECH Software Omniscient Code Generator (Lite mode) build 49521"
  5947  0F0D                     l3344:	
  5948  0F0D  0823               	movf	(printf@flag)^080h,w
  5949  0F0E  3980               	andlw	080h
  5950                           opt subtitle "HI-TECH Software Omniscient Code Generator (Lite mode) build 49521"
  5951                           
  5952                           opt pagewidth 120
  5953                           
  5954                           	opt lm
  5955                           
  5956                           	processor	16LF707
  5957                           clrc	macro
  5958                           	bcf	3,0
  5959                           	endm
  5960                           clrz	macro
  5961                           	bcf	3,2
  5962  0F0F  3A00               	xorlw	0^0	; case 0
  5963  0F10  1903               	skipnz
  5964  0F11  2E86               	goto	l411
  5965  0F12  3A80               	xorlw	128^0	; case 128
  5966  0F13  1903               	skipnz
  5967  0F14  2EC9               	goto	l416
  5968  0F15  2F16               	goto	l3346
  5969                           opt subtitle "HI-TECH Software Omniscient Code Generator (Lite mode) build 49521"
  5970                           
  5971                           opt pagewidth 120
  5972                           
  5973  0F16                     l415:	
  5974                           opt subtitle "HI-TECH Software Omniscient Code Generator (Lite mode) build 49521"
  5975                           
  5976  0F16                     l3346:	
  5977                           opt subtitle "HI-TECH Software Omniscient Code Generator (Lite mode) build 49521"
  5978                           
  5979  0F16  0823               	movf	(printf@flag)^080h,w
  5980  0F17  3903               	andlw	03h
  5981  0F18  1903               	btfsc	status,2
  5982  0F19  2F1B               	goto	u2941
  5983  0F1A  2F1C               	goto	u2940
  5984  0F1B                     u2941:
  5985  0F1B  2F23               	goto	l3350
  5986  0F1C                     u2940:
  5987                           opt subtitle "HI-TECH Software Omniscient Code Generator (Lite mode) build 49521"
  5988                           
  5989  0F1C                     l3348:	
  5990                           opt subtitle "HI-TECH Software Omniscient Code Generator (Lite mode) build 49521"
  5991  0F1C  302D               	movlw	(02Dh)
  5992  0F1D  120A  158A  20A5   	fcall	_putch
              120A  158A         
  5993  0F22  2F23               	goto	l3350
  5994                           opt subtitle "HI-TECH Software Omniscient Code Generator (Lite mode) build 49521"
  5995  0F23                     l420:	
  5996                           opt subtitle "HI-TECH Software Omniscient Code Generator (Lite mode) build 49521"
  5997                           
  5998  0F23                     l3350:	
  5999                           opt subtitle "HI-TECH Software Omniscient Code Generator (Lite mode) build 49521"
  6000                           
  6001  0F23  1683               	bsf	status, 5	;RP0=1, select bank1
  6002  0F24  1303               	bcf	status, 6	;RP1=0, select bank1
  6003  0F25  0828               	movf	(printf@c)^080h,w
  6004  0F26  1283               	bcf	status, 5	;RP0=0, select bank0
  6005  0F27  1303               	bcf	status, 6	;RP1=0, select bank0
  6006  0F28  00C8               	movwf	(??_printf+0)+0
  6007  0F29  0848               	movf	(??_printf+0)+0,w
  6008  0F2A  1683               	bsf	status, 5	;RP0=1, select bank1
  6009  0F2B  1303               	bcf	status, 6	;RP1=0, select bank1
  6010  0F2C  00A2               	movwf	(printf@prec)^080h
  6011                           opt subtitle "HI-TECH Software Omniscient Code Generator (Lite mode) build 49521"
  6012                           
  6013  0F2D  2FD0               	goto	l3364
  6014                           opt subtitle "HI-TECH Software Omniscient Code Generator (Lite mode) build 49521"
  6015  0F2E                     l422:	
  6016                           opt subtitle "HI-TECH Software Omniscient Code Generator (Lite mode) build 49521"
  6017                           
  6018  0F2E  2FC0               	goto	l3360
  6019                           opt subtitle "HI-TECH Software Omniscient Code Generator (Lite mode) build 49521"
  6020                           
  6021                           opt pagewidth 120
  6022                           
  6023  0F2F                     l424:	
  6024                           opt subtitle "HI-TECH Software Omniscient Code Generator (Lite mode) build 49521"
  6025                           
  6026  0F2F                     l3352:	
  6027                           opt subtitle "HI-TECH Software Omniscient Code Generator (Lite mode) build 49521"
  6028  0F2F  300A               	movlw	low(0Ah)
  6029  0F30  1283               	bcf	status, 5	;RP0=0, select bank0
  6030  0F31  1303               	bcf	status, 6	;RP1=0, select bank0
  6031  0F32  00BC               	movwf	(?___lwmod)
  6032  0F33  3000               	movlw	high(0Ah)
  6033  0F34  00BD               	movwf	((?___lwmod))+1
  6034  0F35  1683               	bsf	status, 5	;RP0=1, select bank1
  6035  0F36  1303               	bcf	status, 6	;RP1=0, select bank1
  6036  0F37  0822               	movf	(printf@prec)^080h,w
  6037  0F38  1283               	bcf	status, 5	;RP0=0, select bank0
  6038  0F39  1303               	bcf	status, 6	;RP1=0, select bank0
  6039  0F3A  00C8               	movwf	(??_printf+0)+0
  6040  0F3B  0748               	addwf	(??_printf+0)+0,w
  6041  0F3C  3E83               	addlw	low(_dpowers|8000h)
  6042  0F3D  0084               	movwf	fsr0
  6043  0F3E  3090               	movlw	high(_dpowers|8000h)
  6044  0F3F  1803               	skipnc
  6045  0F40  3E01               	addlw	1
  6046  0F41  00FF               	movwf	btemp+1
  6047  0F42  160A  118A  2000   	fcall	stringtab
              120A  158A         
  6048  0F47  00B4               	movwf	(?___lwdiv)
  6049  0F48  160A  118A  2000   	fcall	stringtab
              120A  158A         
  6050  0F4D  00B5               	movwf	(?___lwdiv+1)
  6051  0F4E  1683               	bsf	status, 5	;RP0=1, select bank1
  6052  0F4F  1303               	bcf	status, 6	;RP1=0, select bank1
  6053  0F50  0825               	movf	(printf@_val+1)^080h,w
  6054  0F51  1283               	bcf	status, 5	;RP0=0, select bank0
  6055  0F52  1303               	bcf	status, 6	;RP1=0, select bank0
  6056  0F53  01B7               	clrf	1+(?___lwdiv)+02h
  6057  0F54  07B7               	addwf	1+(?___lwdiv)+02h
  6058  0F55  1683               	bsf	status, 5	;RP0=1, select bank1
  6059  0F56  1303               	bcf	status, 6	;RP1=0, select bank1
  6060  0F57  0824               	movf	(printf@_val)^080h,w
  6061  0F58  1283               	bcf	status, 5	;RP0=0, select bank0
  6062  0F59  1303               	bcf	status, 6	;RP1=0, select bank0
  6063  0F5A  01B6               	clrf	0+(?___lwdiv)+02h
  6064  0F5B  07B6               	addwf	0+(?___lwdiv)+02h
  6065                           opt subtitle "HI-TECH Software Omniscient Code Generator (Lite mode) build 49521"
  6066  0F5C  120A  158A  23D5   	fcall	___lwdiv
              120A  158A         
  6067  0F61  1283               	bcf	status, 5	;RP0=0, select bank0
  6068  0F62  1303               	bcf	status, 6	;RP1=0, select bank0
  6069  0F63  0835               	movf	(1+(?___lwdiv)),w
  6070  0F64  01BF               	clrf	1+(?___lwmod)+02h
  6071  0F65  07BF               	addwf	1+(?___lwmod)+02h
  6072  0F66  0834               	movf	(0+(?___lwdiv)),w
  6073  0F67  01BE               	clrf	0+(?___lwmod)+02h
  6074  0F68  07BE               	addwf	0+(?___lwmod)+02h
  6075                           opt subtitle "HI-TECH Software Omniscient Code Generator (Lite mode) build 49521"
  6076  0F69  120A  158A  2343   	fcall	___lwmod
              120A  158A         
  6077  0F6E  1283               	bcf	status, 5	;RP0=0, select bank0
  6078  0F6F  1303               	bcf	status, 6	;RP1=0, select bank0
  6079  0F70  083C               	movf	(0+(?___lwmod)),w
  6080  0F71  3E30               	addlw	030h
  6081  0F72  00C9               	movwf	(??_printf+1)+0
  6082  0F73  0849               	movf	(??_printf+1)+0,w
  6083  0F74  1683               	bsf	status, 5	;RP0=1, select bank1
  6084  0F75  1303               	bcf	status, 6	;RP1=0, select bank1
  6085  0F76  00A8               	movwf	(printf@c)^080h
  6086                           opt subtitle "HI-TECH Software Omniscient Code Generator (Lite mode) build 49521"
  6087                           
  6088  0F77  2FC9               	goto	l3362
  6089                           opt subtitle "HI-TECH Software Omniscient Code Generator (Lite mode) build 49521"
  6090                           
  6091                           opt pagewidth 120
  6092  0F78                     l426:	
  6093                           opt subtitle "HI-TECH Software Omniscient Code Generator (Lite mode) build 49521"
  6094                           
  6095  0F78                     l3354:	
  6096                           opt subtitle "HI-TECH Software Omniscient Code Generator (Lite mode) build 49521"
  6097                           
  6098  0F78  0822               	movf	(printf@prec)^080h,w
  6099  0F79  1283               	bcf	status, 5	;RP0=0, select bank0
  6100  0F7A  1303               	bcf	status, 6	;RP1=0, select bank0
  6101  0F7B  00C8               	movwf	(??_printf+0)+0
  6102  0F7C  0748               	addwf	(??_printf+0)+0,w
  6103  0F7D  3E8D               	addlw	low(_hexpowers|8000h)
  6104  0F7E  0084               	movwf	fsr0
  6105  0F7F  3090               	movlw	high(_hexpowers|8000h)
  6106  0F80  1803               	skipnc
  6107  0F81  3E01               	addlw	1
  6108  0F82  00FF               	movwf	btemp+1
  6109  0F83  160A  118A  2000   	fcall	stringtab
              120A  158A         
  6110  0F88  00B4               	movwf	(?___lwdiv)
  6111  0F89  160A  118A  2000   	fcall	stringtab
              120A  158A         
  6112  0F8E  00B5               	movwf	(?___lwdiv+1)
  6113  0F8F  1683               	bsf	status, 5	;RP0=1, select bank1
  6114  0F90  1303               	bcf	status, 6	;RP1=0, select bank1
  6115  0F91  0825               	movf	(printf@_val+1)^080h,w
  6116  0F92  1283               	bcf	status, 5	;RP0=0, select bank0
  6117  0F93  1303               	bcf	status, 6	;RP1=0, select bank0
  6118  0F94  01B7               	clrf	1+(?___lwdiv)+02h
  6119  0F95  07B7               	addwf	1+(?___lwdiv)+02h
  6120  0F96  1683               	bsf	status, 5	;RP0=1, select bank1
  6121  0F97  1303               	bcf	status, 6	;RP1=0, select bank1
  6122  0F98  0824               	movf	(printf@_val)^080h,w
  6123  0F99  1283               	bcf	status, 5	;RP0=0, select bank0
  6124  0F9A  1303               	bcf	status, 6	;RP1=0, select bank0
  6125  0F9B  01B6               	clrf	0+(?___lwdiv)+02h
  6126  0F9C  07B6               	addwf	0+(?___lwdiv)+02h
  6127                           opt subtitle "HI-TECH Software Omniscient Code Generator (Lite mode) build 49521"
  6128  0F9D  120A  158A  23D5   	fcall	___lwdiv
              120A  158A         
  6129  0FA2  1283               	bcf	status, 5	;RP0=0, select bank0
  6130  0FA3  1303               	bcf	status, 6	;RP1=0, select bank0
  6131  0FA4  0834               	movf	(0+(?___lwdiv)),w
  6132  0FA5  390F               	andlw	0Fh
  6133  0FA6  00C9               	movwf	(??_printf+1)+0
  6134  0FA7  0849               	movf	(??_printf+1)+0,w
  6135  0FA8  1683               	bsf	status, 5	;RP0=1, select bank1
  6136  0FA9  1303               	bcf	status, 6	;RP1=0, select bank1
  6137  0FAA  00A0               	movwf	(printf@idx)^080h
  6138                           opt subtitle "HI-TECH Software Omniscient Code Generator (Lite mode) build 49521"
  6139                           
  6140  0FAB                     l3356:	
  6141                           opt subtitle "HI-TECH Software Omniscient Code Generator (Lite mode) build 49521"
  6142  0FAB  0820               	movf	(printf@idx)^080h,w
  6143  0FAC  3E5F               	addlw	low(STR_16|8000h)
  6144  0FAD  0084               	movwf	fsr0
  6145  0FAE  3091               	movlw	high(STR_16|8000h)
  6146  0FAF  1803               	skipnc
  6147  0FB0  3E01               	addlw	1
  6148  0FB1  1283               	bcf	status, 5	;RP0=0, select bank0
  6149  0FB2  1303               	bcf	status, 6	;RP1=0, select bank0
  6150  0FB3  00FF               	movwf	btemp+1
  6151  0FB4  160A  118A  2000   	fcall	stringtab
              120A  158A         
  6152  0FB9  00C8               	movwf	(??_printf+0)+0
  6153  0FBA  0848               	movf	(??_printf+0)+0,w
  6154  0FBB  1683               	bsf	status, 5	;RP0=1, select bank1
  6155  0FBC  1303               	bcf	status, 6	;RP1=0, select bank1
  6156  0FBD  00A8               	movwf	(printf@c)^080h
  6157                           opt subtitle "HI-TECH Software Omniscient Code Generator (Lite mode) build 49521"
  6158                           
  6159                           opt pagewidth 120
  6160  0FBE  2FC9               	goto	l3362
  6161                           opt subtitle "HI-TECH Software Omniscient Code Generator (Lite mode) build 49521"
  6162                           
  6163  0FBF                     l3358:	
  6164                           opt subtitle "HI-TECH Software Omniscient Code Generator (Lite mode) build 49521"
  6165  0FBF  2FC9               	goto	l3362
  6166                           opt subtitle "HI-TECH Software Omniscient Code Generator (Lite mode) build 49521"
  6167                           
  6168  0FC0                     l423:	
  6169                           opt subtitle "HI-TECH Software Omniscient Code Generator (Lite mode) build 49521"
  6170  0FC0                     l3360:	
  6171  0FC0  0823               	movf	(printf@flag)^080h,w
  6172  0FC1  3980               	andlw	080h
  6173                           opt subtitle "HI-TECH Software Omniscient Code Generator (Lite mode) build 49521"
  6174                           
  6175                           opt pagewidth 120
  6176                           
  6177                           	opt lm
  6178                           
  6179                           	processor	16LF707
  6180                           clrc	macro
  6181                           	bcf	3,0
  6182                           	endm
  6183                           clrz	macro
  6184                           	bcf	3,2
  6185  0FC2  3A00               	xorlw	0^0	; case 0
  6186  0FC3  1903               	skipnz
  6187  0FC4  2F2F               	goto	l3352
  6188  0FC5  3A80               	xorlw	128^0	; case 128
  6189  0FC6  1903               	skipnz
  6190  0FC7  2F78               	goto	l3354
  6191  0FC8  2FC9               	goto	l3362
  6192                           opt subtitle "HI-TECH Software Omniscient Code Generator (Lite mode) build 49521"
  6193                           
  6194                           opt pagewidth 120
  6195                           
  6196  0FC9                     l425:	
  6197                           opt subtitle "HI-TECH Software Omniscient Code Generator (Lite mode) build 49521"
  6198                           
  6199  0FC9                     l3362:	
  6200                           opt subtitle "HI-TECH Software Omniscient Code Generator (Lite mode) build 49521"
  6201  0FC9  0828               	movf	(printf@c)^080h,w
  6202  0FCA  120A  158A  20A5   	fcall	_putch
              120A  158A         
  6203  0FCF  2FD0               	goto	l3364
  6204                           opt subtitle "HI-TECH Software Omniscient Code Generator (Lite mode) build 49521"
  6205                           
  6206  0FD0                     l421:	
  6207                           opt subtitle "HI-TECH Software Omniscient Code Generator (Lite mode) build 49521"
  6208                           
  6209  0FD0                     l3364:	
  6210  0FD0  30FF               	movlw	(-1)
  6211  0FD1  1283               	bcf	status, 5	;RP0=0, select bank0
  6212  0FD2  1303               	bcf	status, 6	;RP1=0, select bank0
  6213  0FD3  00C8               	movwf	(??_printf+0)+0
  6214  0FD4  0848               	movf	(??_printf+0)+0,w
  6215  0FD5  1683               	bsf	status, 5	;RP0=1, select bank1
  6216  0FD6  1303               	bcf	status, 6	;RP1=0, select bank1
  6217  0FD7  07A2               	addwf	(printf@prec)^080h,f
  6218  0FD8  0822               	movf	((printf@prec)^080h),w
  6219  0FD9  3AFF               	xorlw	-1
  6220  0FDA  1D03               	skipz
  6221  0FDB  2FDD               	goto	u2951
  6222  0FDC  2FDE               	goto	u2950
  6223  0FDD                     u2951:
  6224  0FDD  2FC0               	goto	l3360
  6225  0FDE                     u2950:
  6226  0FDE  2FE0               	goto	l3366
  6227                           opt subtitle "HI-TECH Software Omniscient Code Generator (Lite mode) build 49521"
  6228  0FDF                     l427:	
  6229  0FDF  2FE0               	goto	l3366
  6230                           opt subtitle "HI-TECH Software Omniscient Code Generator (Lite mode) build 49521"
  6231                           
  6232  0FE0                     l395:	
  6233                           opt subtitle "HI-TECH Software Omniscient Code Generator (Lite mode) build 49521"
  6234                           
  6235  0FE0                     l3366:	
  6236  0FE0  1283               	bcf	status, 5	;RP0=0, select bank0
  6237  0FE1  1303               	bcf	status, 6	;RP1=0, select bank0
  6238  0FE2  0843               	movf	(printf@f+1),w
  6239  0FE3  00C9               	movwf	(??_printf+0)+0+1
  6240  0FE4  0842               	movf	(printf@f),w
  6241  0FE5  00C8               	movwf	(??_printf+0)+0
  6242  0FE6  3001               	movlw	(01h)
  6243  0FE7  07C2               	addwf	(printf@f),f
  6244  0FE8  1803               	skipnc
  6245  0FE9  0AC3               	incf	(printf@f+1),f
  6246  0FEA  0849               	movf	1+(??_printf+0)+0,w
  6247  0FEB  00FF               	movwf	btemp+1
  6248  0FEC  0848               	movf	0+(??_printf+0)+0,w
  6249  0FED  0084               	movwf	fsr0
  6250  0FEE  160A  118A  2000   	fcall	stringtab
              120A  158A         
  6251  0FF3  00CA               	movwf	(??_printf+2)+0
  6252  0FF4  084A               	movf	(??_printf+2)+0,w
  6253  0FF5  1683               	bsf	status, 5	;RP0=1, select bank1
  6254  0FF6  1303               	bcf	status, 6	;RP1=0, select bank1
  6255  0FF7  00A8               	movwf	(printf@c)^080h
  6256  0FF8  08A8               	movf	((printf@c)^080h),f
  6257  0FF9  1D03               	skipz
  6258  0FFA  2FFC               	goto	u2961
  6259  0FFB  2FFD               	goto	u2960
  6260  0FFC                     u2961:
  6261  0FFC  2E09               	goto	l3294
  6262  0FFD                     u2960:
  6263  0FFD  2FFF               	goto	l429
  6264                           opt subtitle "HI-TECH Software Omniscient Code Generator (Lite mode) build 49521"
  6265  0FFE                     l428:	
  6266  0FFE  2FFF               	goto	l429
  6267                           opt subtitle "HI-TECH Software Omniscient Code Generator (Lite mode) build 49521"
  6268                           
  6269                           opt pagewidth 120
  6270                           
  6271                           	opt lm
  6272  0FFF                     l400:	
  6273                           opt subtitle "HI-TECH Software Omniscient Code Generator (Lite mode) build 49521"
  6274                           
  6275                           opt pagewidth 120
  6276                           
  6277  0FFF                     l429:	
  6278  0FFF  0008               	return
  6279                           opt subtitle "HI-TECH Software Omniscient Code Generator (Lite mode) build 49521"
  6280                           
  6281  1000                     	__end_of_printf:
  6282                           opt subtitle "HI-TECH Software Omniscient Code Generator (Lite mode) build 49521"
  6283                           
  6284                           opt pagewidth 120
  6285                           
  6286                           	opt lm
  6287                           
  6288                           	processor	16LF707
  6289                           clrc	macro
  6290                           	bcf	3,0
  6291                           	endm
  6292                           clrz	macro
  6293                           	bcf	3,2
  6294                           	endm
  6295                           setc	macro
  6296                           	bsf	3,0
  6297                           	endm
  6298                           setz	macro
  6299                           	bsf	3,2
  6300                           	endm
  6301                           skipc	macro
  6302                           	btfss	3,0
  6303                           	endm
  6304                           skipz	macro
  6305                           	btfss	3,2
  6306                           	endm
  6307                           skipnc	macro
  6308                           	btfsc	3,0
  6309                           	endm
  6310                           skipnz	macro
  6311                           	btfsc	3,2
  6312                           	endm
  6313                           indf	equ	0
  6314                           indf0	equ	0
  6315                           pc	equ	2
  6316                           pcl	equ	2
  6317  0959                     __ptext1040:	;psect for function _rfm70TxDataSentErrorInterrupt
  6318                           opt subtitle "HI-TECH Software Omniscient Code Generator (Lite mode) build 49521"
  6319                           
  6320                           opt pagewidth 120
  6321                           
  6322  001F                     	__size_of_rfm70TxDataSentErrorInterrupt	equ	__end_of_rfm70TxDataSentErrorInterrupt-_rfm
                                 70TxDataSentErrorInterrupt
  6323                           opt subtitle "HI-TECH Software Omniscient Code Generator (Lite mode) build 49521"
  6324  0959                     _rfm70TxDataSentErrorInterrupt:	
  6325                           opt subtitle "HI-TECH Software Omniscient Code Generator (Lite mode) build 49521"
  6326                           
  6327                           opt pagewidth 120
  6328                           
  6329  0959                     l3930:	
  6330                           opt subtitle "HI-TECH Software Omniscient Code Generator (Lite mode) build 49521"
  6331  0959  3007               	movlw	(07h)
  6332  095A  120A  158A  2121   	fcall	_SPI_Read_Reg
              120A  158A         
  6333  095F  1283               	bcf	status, 5	;RP0=0, select bank0
  6334  0960  1303               	bcf	status, 6	;RP1=0, select bank0
  6335  0961  00BA               	movwf	(??_rfm70TxDataSentErrorInterrupt+0)+0
  6336  0962  1EBA               	btfss	0+(??_rfm70TxDataSentErrorInterrupt+0)+0,(5)&7
  6337  0963  2965               	goto	u3451
  6338  0964  2966               	goto	u3450
  6339  0965                     u3451:
  6340  0965  2974               	goto	l3940
  6341  0966                     u3450:
  6342                           opt subtitle "HI-TECH Software Omniscient Code Generator (Lite mode) build 49521"
  6343                           
  6344  0966                     l3932:	
  6345                           opt subtitle "HI-TECH Software Omniscient Code Generator (Lite mode) build 49521"
  6346  0966  3010               	movlw	(010h)
  6347  0967  00BA               	movwf	(??_rfm70TxDataSentErrorInterrupt+0)+0
  6348  0968  083A               	movf	(??_rfm70TxDataSentErrorInterrupt+0)+0,w
  6349  0969  00B7               	movwf	(?_SPI_Write_Reg)
  6350  096A  3027               	movlw	(027h)
  6351  096B  120A  158A  20C4   	fcall	_SPI_Write_Reg
              120A  158A         
  6352                           opt subtitle "HI-TECH Software Omniscient Code Generator (Lite mode) build 49521"
  6353                           
  6354  0970                     l3934:	
  6355                           opt subtitle "HI-TECH Software Omniscient Code Generator (Lite mode) build 49521"
  6356  0970  3001               	movlw	(01h)
  6357  0971  2977               	goto	l371
  6358                           opt subtitle "HI-TECH Software Omniscient Code Generator (Lite mode) build 49521"
  6359  0972                     l3936:	
  6360  0972  2977               	goto	l371
  6361                           opt subtitle "HI-TECH Software Omniscient Code Generator (Lite mode) build 49521"
  6362                           
  6363  0973                     l3938:	
  6364                           opt subtitle "HI-TECH Software Omniscient Code Generator (Lite mode) build 49521"
  6365  0973  2977               	goto	l371
  6366                           opt subtitle "HI-TECH Software Omniscient Code Generator (Lite mode) build 49521"
  6367                           
  6368  0974                     l370:	
  6369                           opt subtitle "HI-TECH Software Omniscient Code Generator (Lite mode) build 49521"
  6370                           
  6371  0974                     l3940:	
  6372                           opt subtitle "HI-TECH Software Omniscient Code Generator (Lite mode) build 49521"
  6373                           
  6374  0974  3000               	movlw	(0)
  6375  0975  2977               	goto	l371
  6376                           opt subtitle "HI-TECH Software Omniscient Code Generator (Lite mode) build 49521"
  6377  0976                     l3942:	
  6378  0976  2977               	goto	l371
  6379                           opt subtitle "HI-TECH Software Omniscient Code Generator (Lite mode) build 49521"
  6380  0977                     l372:	
  6381                           opt subtitle "HI-TECH Software Omniscient Code Generator (Lite mode) build 49521"
  6382                           
  6383  0977                     l371:	
  6384  0977  0008               	return
  6385                           opt subtitle "HI-TECH Software Omniscient Code Generator (Lite mode) build 49521"
  6386                           
  6387  0978                     	__end_of_rfm70TxDataSentErrorInterrupt:
  6388                           opt subtitle "HI-TECH Software Omniscient Code Generator (Lite mode) build 49521"
  6389                           
  6390                           opt pagewidth 120
  6391                           
  6392                           	opt lm
  6393                           
  6394                           	processor	16LF707
  6395                           clrc	macro
  6396                           	bcf	3,0
  6397                           	endm
  6398                           clrz	macro
  6399                           	bcf	3,2
  6400                           	endm
  6401                           setc	macro
  6402                           	bsf	3,0
  6403                           	endm
  6404                           setz	macro
  6405                           	bsf	3,2
  6406                           	endm
  6407                           skipc	macro
  6408                           	btfss	3,0
  6409                           	endm
  6410                           skipz	macro
  6411                           	btfss	3,2
  6412                           	endm
  6413                           skipnc	macro
  6414                           	btfsc	3,0
  6415                           	endm
  6416                           skipnz	macro
  6417                           	btfsc	3,2
  6418                           	endm
  6419                           indf	equ	0
  6420                           indf0	equ	0
  6421                           pc	equ	2
  6422                           pcl	equ	2
  6423                           status	equ	3
  6424  0B04                     __ptext1041:	;psect for function _SwitchToRxMode
  6425                           opt subtitle "HI-TECH Software Omniscient Code Generator (Lite mode) build 49521"
  6426                           
  6427                           opt pagewidth 120
  6428                           
  6429  003F                     	__size_of_SwitchToRxMode	equ	__end_of_SwitchToRxMode-_SwitchToRxMode
  6430                           opt subtitle "HI-TECH Software Omniscient Code Generator (Lite mode) build 49521"
  6431  0B04                     _SwitchToRxMode:	
  6432                           opt subtitle "HI-TECH Software Omniscient Code Generator (Lite mode) build 49521"
  6433                           
  6434                           opt pagewidth 120
  6435                           
  6436  0B04                     l3920:	
  6437                           opt subtitle "HI-TECH Software Omniscient Code Generator (Lite mode) build 49521"
  6438                           
  6439  0B04  1283               	bcf	status, 5	;RP0=0, select bank0
  6440  0B05  1303               	bcf	status, 6	;RP1=0, select bank0
  6441  0B06  01B7               	clrf	(?_SPI_Write_Reg)
  6442  0B07  30E2               	movlw	(0E2h)
  6443  0B08  120A  158A  20C4   	fcall	_SPI_Write_Reg
              120A  158A         
  6444                           opt subtitle "HI-TECH Software Omniscient Code Generator (Lite mode) build 49521"
  6445                           
  6446  0B0D  3007               	movlw	(07h)
  6447  0B0E  120A  158A  2121   	fcall	_SPI_Read_Reg
              120A  158A         
  6448  0B13  1283               	bcf	status, 5	;RP0=0, select bank0
  6449  0B14  1303               	bcf	status, 6	;RP1=0, select bank0
  6450  0B15  00BA               	movwf	(??_SwitchToRxMode+0)+0
  6451  0B16  083A               	movf	(??_SwitchToRxMode+0)+0,w
  6452  0B17  00BB               	movwf	(SwitchToRxMode@value)
  6453                           opt subtitle "HI-TECH Software Omniscient Code Generator (Lite mode) build 49521"
  6454                           
  6455  0B18  083B               	movf	(SwitchToRxMode@value),w
  6456  0B19  00BA               	movwf	(??_SwitchToRxMode+0)+0
  6457  0B1A  083A               	movf	(??_SwitchToRxMode+0)+0,w
  6458  0B1B  00B7               	movwf	(?_SPI_Write_Reg)
  6459  0B1C  3027               	movlw	(027h)
  6460  0B1D  120A  158A  20C4   	fcall	_SPI_Write_Reg
              120A  158A         
  6461                           opt subtitle "HI-TECH Software Omniscient Code Generator (Lite mode) build 49521"
  6462                           
  6463  0B22                     l3922:	
  6464                           opt subtitle "HI-TECH Software Omniscient Code Generator (Lite mode) build 49521"
  6465  0B22  1283               	bcf	status, 5	;RP0=0, select bank0
  6466  0B23  1303               	bcf	status, 6	;RP1=0, select bank0
  6467  0B24  1107               	bcf	(7),2	;volatile
  6468                           opt subtitle "HI-TECH Software Omniscient Code Generator (Lite mode) build 49521"
  6469                           
  6470  0B25  3000               	movlw	(0)
  6471  0B26  120A  158A  2121   	fcall	_SPI_Read_Reg
              120A  158A         
  6472  0B2B  1283               	bcf	status, 5	;RP0=0, select bank0
  6473  0B2C  1303               	bcf	status, 6	;RP1=0, select bank0
  6474  0B2D  00BA               	movwf	(??_SwitchToRxMode+0)+0
  6475  0B2E  083A               	movf	(??_SwitchToRxMode+0)+0,w
  6476  0B2F  00BB               	movwf	(SwitchToRxMode@value)
  6477                           opt subtitle "HI-TECH Software Omniscient Code Generator (Lite mode) build 49521"
  6478                           
  6479  0B30                     l3924:	
  6480                           opt subtitle "HI-TECH Software Omniscient Code Generator (Lite mode) build 49521"
  6481  0B30  083B               	movf	(SwitchToRxMode@value),w
  6482  0B31  3801               	iorlw	01h
  6483  0B32  00BA               	movwf	(??_SwitchToRxMode+0)+0
  6484  0B33  083A               	movf	(??_SwitchToRxMode+0)+0,w
  6485  0B34  00BB               	movwf	(SwitchToRxMode@value)
  6486                           opt subtitle "HI-TECH Software Omniscient Code Generator (Lite mode) build 49521"
  6487                           
  6488  0B35                     l3926:	
  6489                           opt subtitle "HI-TECH Software Omniscient Code Generator (Lite mode) build 49521"
  6490  0B35  083B               	movf	(SwitchToRxMode@value),w
  6491  0B36  00BA               	movwf	(??_SwitchToRxMode+0)+0
  6492  0B37  083A               	movf	(??_SwitchToRxMode+0)+0,w
  6493  0B38  00B7               	movwf	(?_SPI_Write_Reg)
  6494  0B39  3020               	movlw	(020h)
  6495  0B3A  120A  158A  20C4   	fcall	_SPI_Write_Reg
              120A  158A         
  6496                           opt subtitle "HI-TECH Software Omniscient Code Generator (Lite mode) build 49521"
  6497                           
  6498  0B3F                     l3928:	
  6499                           opt subtitle "HI-TECH Software Omniscient Code Generator (Lite mode) build 49521"
  6500  0B3F  1283               	bcf	status, 5	;RP0=0, select bank0
  6501  0B40  1303               	bcf	status, 6	;RP1=0, select bank0
  6502  0B41  1507               	bsf	(7),2	;volatile
  6503                           opt subtitle "HI-TECH Software Omniscient Code Generator (Lite mode) build 49521"
  6504                           
  6505  0B42                     l317:	
  6506  0B42  0008               	return
  6507                           opt subtitle "HI-TECH Software Omniscient Code Generator (Lite mode) build 49521"
  6508                           
  6509  0B43                     	__end_of_SwitchToRxMode:
  6510                           opt subtitle "HI-TECH Software Omniscient Code Generator (Lite mode) build 49521"
  6511                           
  6512                           opt pagewidth 120
  6513                           
  6514                           	opt lm
  6515                           
  6516                           	processor	16LF707
  6517                           clrc	macro
  6518                           	bcf	3,0
  6519                           	endm
  6520                           clrz	macro
  6521                           	bcf	3,2
  6522                           	endm
  6523                           setc	macro
  6524                           	bsf	3,0
  6525                           	endm
  6526                           setz	macro
  6527                           	bsf	3,2
  6528                           	endm
  6529                           skipc	macro
  6530                           	btfss	3,0
  6531                           	endm
  6532                           skipz	macro
  6533                           	btfss	3,2
  6534                           	endm
  6535                           skipnc	macro
  6536                           	btfsc	3,0
  6537                           	endm
  6538                           skipnz	macro
  6539                           	btfsc	3,2
  6540                           	endm
  6541                           indf	equ	0
  6542                           indf0	equ	0
  6543                           pc	equ	2
  6544                           pcl	equ	2
  6545  093A                     __ptext1042:	;psect for function _rfm70TxDataSentInterrupt
  6546                           opt subtitle "HI-TECH Software Omniscient Code Generator (Lite mode) build 49521"
  6547                           
  6548                           opt pagewidth 120
  6549                           
  6550  001F                     	__size_of_rfm70TxDataSentInterrupt	equ	__end_of_rfm70TxDataSentInterrupt-_rfm70TxDataSe
                                 ntInterrupt
  6551                           opt subtitle "HI-TECH Software Omniscient Code Generator (Lite mode) build 49521"
  6552  093A                     _rfm70TxDataSentInterrupt:	
  6553                           opt subtitle "HI-TECH Software Omniscient Code Generator (Lite mode) build 49521"
  6554                           
  6555                           opt pagewidth 120
  6556                           
  6557  093A                     l3906:	
  6558                           opt subtitle "HI-TECH Software Omniscient Code Generator (Lite mode) build 49521"
  6559  093A  3007               	movlw	(07h)
  6560  093B  120A  158A  2121   	fcall	_SPI_Read_Reg
              120A  158A         
  6561  0940  1283               	bcf	status, 5	;RP0=0, select bank0
  6562  0941  1303               	bcf	status, 6	;RP1=0, select bank0
  6563  0942  00BA               	movwf	(??_rfm70TxDataSentInterrupt+0)+0
  6564  0943  1EBA               	btfss	0+(??_rfm70TxDataSentInterrupt+0)+0,(5)&7
  6565  0944  2946               	goto	u3441
  6566  0945  2947               	goto	u3440
  6567  0946                     u3441:
  6568  0946  2955               	goto	l3916
  6569  0947                     u3440:
  6570                           opt subtitle "HI-TECH Software Omniscient Code Generator (Lite mode) build 49521"
  6571                           
  6572  0947                     l3908:	
  6573                           opt subtitle "HI-TECH Software Omniscient Code Generator (Lite mode) build 49521"
  6574  0947  3020               	movlw	(020h)
  6575  0948  00BA               	movwf	(??_rfm70TxDataSentInterrupt+0)+0
  6576  0949  083A               	movf	(??_rfm70TxDataSentInterrupt+0)+0,w
  6577  094A  00B7               	movwf	(?_SPI_Write_Reg)
  6578  094B  3027               	movlw	(027h)
  6579  094C  120A  158A  20C4   	fcall	_SPI_Write_Reg
              120A  158A         
  6580                           opt subtitle "HI-TECH Software Omniscient Code Generator (Lite mode) build 49521"
  6581                           
  6582  0951                     l3910:	
  6583                           opt subtitle "HI-TECH Software Omniscient Code Generator (Lite mode) build 49521"
  6584  0951  3001               	movlw	(01h)
  6585  0952  2958               	goto	l366
  6586                           opt subtitle "HI-TECH Software Omniscient Code Generator (Lite mode) build 49521"
  6587  0953                     l3912:	
  6588  0953  2958               	goto	l366
  6589                           opt subtitle "HI-TECH Software Omniscient Code Generator (Lite mode) build 49521"
  6590                           
  6591  0954                     l3914:	
  6592                           opt subtitle "HI-TECH Software Omniscient Code Generator (Lite mode) build 49521"
  6593  0954  2958               	goto	l366
  6594                           opt subtitle "HI-TECH Software Omniscient Code Generator (Lite mode) build 49521"
  6595                           
  6596  0955                     l365:	
  6597                           opt subtitle "HI-TECH Software Omniscient Code Generator (Lite mode) build 49521"
  6598                           
  6599  0955                     l3916:	
  6600                           opt subtitle "HI-TECH Software Omniscient Code Generator (Lite mode) build 49521"
  6601                           
  6602  0955  3000               	movlw	(0)
  6603  0956  2958               	goto	l366
  6604                           opt subtitle "HI-TECH Software Omniscient Code Generator (Lite mode) build 49521"
  6605  0957                     l3918:	
  6606  0957  2958               	goto	l366
  6607                           opt subtitle "HI-TECH Software Omniscient Code Generator (Lite mode) build 49521"
  6608  0958                     l367:	
  6609                           opt subtitle "HI-TECH Software Omniscient Code Generator (Lite mode) build 49521"
  6610                           
  6611  0958                     l366:	
  6612  0958  0008               	return
  6613                           opt subtitle "HI-TECH Software Omniscient Code Generator (Lite mode) build 49521"
  6614                           
  6615  0959                     	__end_of_rfm70TxDataSentInterrupt:
  6616                           opt subtitle "HI-TECH Software Omniscient Code Generator (Lite mode) build 49521"
  6617                           
  6618                           opt pagewidth 120
  6619                           
  6620                           	opt lm
  6621                           
  6622                           	processor	16LF707
  6623                           clrc	macro
  6624                           	bcf	3,0
  6625                           	endm
  6626                           clrz	macro
  6627                           	bcf	3,2
  6628                           	endm
  6629                           setc	macro
  6630                           	bsf	3,0
  6631                           	endm
  6632                           setz	macro
  6633                           	bsf	3,2
  6634                           	endm
  6635                           skipc	macro
  6636                           	btfss	3,0
  6637                           	endm
  6638                           skipz	macro
  6639                           	btfss	3,2
  6640                           	endm
  6641                           skipnc	macro
  6642                           	btfsc	3,0
  6643                           	endm
  6644                           skipnz	macro
  6645                           	btfsc	3,2
  6646                           	endm
  6647                           indf	equ	0
  6648                           indf0	equ	0
  6649                           pc	equ	2
  6650                           pcl	equ	2
  6651                           status	equ	3
  6652                           fsr	equ	4
  6653                           fsr0	equ	4
  6654                           c	equ	1
  6655  09F0                     __ptext1043:	;psect for function _SPI_Write_Buf
  6656                           opt subtitle "HI-TECH Software Omniscient Code Generator (Lite mode) build 49521"
  6657                           
  6658                           opt pagewidth 120
  6659                           
  6660  002A                     	__size_of_SPI_Write_Buf	equ	__end_of_SPI_Write_Buf-_SPI_Write_Buf
  6661                           opt subtitle "HI-TECH Software Omniscient Code Generator (Lite mode) build 49521"
  6662  09F0                     _SPI_Write_Buf:	
  6663                           opt subtitle "HI-TECH Software Omniscient Code Generator (Lite mode) build 49521"
  6664                           
  6665                           opt pagewidth 120
  6666                           
  6667  09F0  1283               	bcf	status, 5	;RP0=0, select bank0
  6668  09F1  1303               	bcf	status, 6	;RP1=0, select bank0
  6669  09F2  00BA               	movwf	(SPI_Write_Buf@reg)
  6670                           opt subtitle "HI-TECH Software Omniscient Code Generator (Lite mode) build 49521"
  6671  09F3                     l3892:	
  6672                           opt subtitle "HI-TECH Software Omniscient Code Generator (Lite mode) build 49521"
  6673                           
  6674  09F3  1108               	bcf	(8),2	;volatile
  6675                           opt subtitle "HI-TECH Software Omniscient Code Generator (Lite mode) build 49521"
  6676                           
  6677  09F4                     l3894:	
  6678                           opt subtitle "HI-TECH Software Omniscient Code Generator (Lite mode) build 49521"
  6679  09F4  083A               	movf	(SPI_Write_Buf@reg),w
  6680  09F5  120A  158A  2108   	fcall	_SPI_RW
              120A  158A         
  6681                           opt subtitle "HI-TECH Software Omniscient Code Generator (Lite mode) build 49521"
  6682                           
  6683  09FA                     l3896:	
  6684                           opt subtitle "HI-TECH Software Omniscient Code Generator (Lite mode) build 49521"
  6685  09FA  1283               	bcf	status, 5	;RP0=0, select bank0
  6686  09FB  1303               	bcf	status, 6	;RP1=0, select bank0
  6687  09FC  01BB               	clrf	(SPI_Write_Buf@byte_ctr)
  6688  09FD  2A12               	goto	l3904
  6689                           opt subtitle "HI-TECH Software Omniscient Code Generator (Lite mode) build 49521"
  6690                           
  6691  09FE                     l312:	
  6692                           opt subtitle "HI-TECH Software Omniscient Code Generator (Lite mode) build 49521"
  6693  09FE                     l3898:	
  6694                           opt subtitle "HI-TECH Software Omniscient Code Generator (Lite mode) build 49521"
  6695  09FE  0837               	movf	(SPI_Write_Buf@pBuf),w
  6696  09FF  0084               	movwf	fsr0
  6697  0A00  1383               	bcf	status, 7	;select IRP bank0
  6698  0A01  0800               	movf	indf,w
  6699  0A02  120A  158A  2108   	fcall	_SPI_RW
              120A  158A         
  6700                           opt subtitle "HI-TECH Software Omniscient Code Generator (Lite mode) build 49521"
  6701  0A07                     l3900:	
  6702  0A07  3001               	movlw	(01h)
  6703  0A08  1283               	bcf	status, 5	;RP0=0, select bank0
  6704  0A09  1303               	bcf	status, 6	;RP1=0, select bank0
  6705  0A0A  00B9               	movwf	(??_SPI_Write_Buf+0)+0
  6706  0A0B  0839               	movf	(??_SPI_Write_Buf+0)+0,w
  6707  0A0C  07B7               	addwf	(SPI_Write_Buf@pBuf),f
  6708                           opt subtitle "HI-TECH Software Omniscient Code Generator (Lite mode) build 49521"
  6709                           
  6710  0A0D                     l3902:	
  6711  0A0D  3001               	movlw	(01h)
  6712  0A0E  00B9               	movwf	(??_SPI_Write_Buf+0)+0
  6713  0A0F  0839               	movf	(??_SPI_Write_Buf+0)+0,w
  6714  0A10  07BB               	addwf	(SPI_Write_Buf@byte_ctr),f
  6715  0A11  2A12               	goto	l3904
  6716                           opt subtitle "HI-TECH Software Omniscient Code Generator (Lite mode) build 49521"
  6717  0A12                     l311:	
  6718                           opt subtitle "HI-TECH Software Omniscient Code Generator (Lite mode) build 49521"
  6719  0A12                     l3904:	
  6720  0A12  0838               	movf	(SPI_Write_Buf@length),w
  6721  0A13  023B               	subwf	(SPI_Write_Buf@byte_ctr),w
  6722  0A14  1C03               	skipc
  6723  0A15  2A17               	goto	u3431
  6724  0A16  2A18               	goto	u3430
  6725  0A17                     u3431:
  6726  0A17  29FE               	goto	l3898
  6727  0A18                     u3430:
  6728                           opt subtitle "HI-TECH Software Omniscient Code Generator (Lite mode) build 49521"
  6729  0A18                     l313:	
  6730                           opt subtitle "HI-TECH Software Omniscient Code Generator (Lite mode) build 49521"
  6731                           
  6732  0A18  1508               	bsf	(8),2	;volatile
  6733                           opt subtitle "HI-TECH Software Omniscient Code Generator (Lite mode) build 49521"
  6734                           
  6735  0A19                     l314:	
  6736  0A19  0008               	return
  6737                           opt subtitle "HI-TECH Software Omniscient Code Generator (Lite mode) build 49521"
  6738                           
  6739  0A1A                     	__end_of_SPI_Write_Buf:
  6740                           opt subtitle "HI-TECH Software Omniscient Code Generator (Lite mode) build 49521"
  6741                           
  6742                           opt pagewidth 120
  6743                           
  6744                           	opt lm
  6745                           
  6746                           	processor	16LF707
  6747                           clrc	macro
  6748                           	bcf	3,0
  6749                           	endm
  6750                           clrz	macro
  6751                           	bcf	3,2
  6752                           	endm
  6753                           setc	macro
  6754                           	bsf	3,0
  6755                           	endm
  6756                           setz	macro
  6757                           	bsf	3,2
  6758                           	endm
  6759                           skipc	macro
  6760                           	btfss	3,0
  6761                           	endm
  6762                           skipz	macro
  6763                           	btfss	3,2
  6764                           	endm
  6765                           skipnc	macro
  6766                           	btfsc	3,0
  6767                           	endm
  6768                           skipnz	macro
  6769                           	btfsc	3,2
  6770                           	endm
  6771                           indf	equ	0
  6772                           indf0	equ	0
  6773                           pc	equ	2
  6774  0C9C                     __ptext1044:	;psect for function _sleep
  6775                           opt subtitle "HI-TECH Software Omniscient Code Generator (Lite mode) build 49521"
  6776                           
  6777                           opt pagewidth 120
  6778                           
  6779  0090                     	__size_of_sleep	equ	__end_of_sleep-_sleep
  6780                           opt subtitle "HI-TECH Software Omniscient Code Generator (Lite mode) build 49521"
  6781  0C9C                     _sleep:	
  6782                           opt subtitle "HI-TECH Software Omniscient Code Generator (Lite mode) build 49521"
  6783                           
  6784                           opt pagewidth 120
  6785                           
  6786  0C9C                     l2836:	
  6787                           opt subtitle "HI-TECH Software Omniscient Code Generator (Lite mode) build 49521"
  6788                           
  6789  0C9C  120A  158A  221A   	fcall	_adcReadVcap
              120A  158A         
  6790  0CA1  1283               	bcf	status, 5	;RP0=0, select bank0
  6791  0CA2  1303               	bcf	status, 6	;RP1=0, select bank0
  6792  0CA3  00B7               	movwf	(??_sleep+0)+0+0
  6793  0CA4  01B8               	clrf	(??_sleep+0)+0+1
  6794  0CA5  0837               	movf	0+(??_sleep+0)+0,w
  6795  0CA6  1683               	bsf	status, 5	;RP0=1, select bank1
  6796  0CA7  1303               	bcf	status, 6	;RP1=0, select bank1
  6797  0CA8  00DD               	movwf	(_value)^080h
  6798  0CA9  1283               	bcf	status, 5	;RP0=0, select bank0
  6799  0CAA  1303               	bcf	status, 6	;RP1=0, select bank0
  6800  0CAB  0838               	movf	1+(??_sleep+0)+0,w
  6801  0CAC  1683               	bsf	status, 5	;RP0=1, select bank1
  6802  0CAD  1303               	bcf	status, 6	;RP1=0, select bank1
  6803  0CAE  00DE               	movwf	(_value+1)^080h
  6804                           opt subtitle "HI-TECH Software Omniscient Code Generator (Lite mode) build 49521"
  6805                           
  6806  0CAF                     l2838:	
  6807                           opt subtitle "HI-TECH Software Omniscient Code Generator (Lite mode) build 49521"
  6808  0CAF  3000               	movlw	high(07Ah)
  6809  0CB0  025E               	subwf	(_value+1)^080h,w
  6810  0CB1  307A               	movlw	low(07Ah)
  6811  0CB2  1903               	skipnz
  6812  0CB3  025D               	subwf	(_value)^080h,w
  6813  0CB4  1C03               	skipc
  6814  0CB5  2CB7               	goto	u2181
  6815  0CB6  2CB8               	goto	u2180
  6816  0CB7                     u2181:
  6817  0CB7  2D1F               	goto	l186
  6818  0CB8                     u2180:
  6819                           opt subtitle "HI-TECH Software Omniscient Code Generator (Lite mode) build 49521"
  6820  0CB8                     l2840:	
  6821  0CB8  1283               	bcf	status, 5	;RP0=0, select bank0
  6822  0CB9  1303               	bcf	status, 6	;RP1=0, select bank0
  6823  0CBA  0853               	movf	(_charge_pulse+1),w
  6824  0CBB  0452               	iorwf	(_charge_pulse),w
  6825  0CBC  1903               	skipnz
  6826  0CBD  2CBF               	goto	u2191
  6827  0CBE  2CC0               	goto	u2190
  6828  0CBF                     u2191:
  6829  0CBF  2D1F               	goto	l186
  6830  0CC0                     u2190:
  6831                           opt subtitle "HI-TECH Software Omniscient Code Generator (Lite mode) build 49521"
  6832  0CC0                     l2842:	
  6833  0CC0  1A88               	btfsc	(8),5	;volatile
  6834  0CC1  2CC3               	goto	u2201
  6835  0CC2  2CC4               	goto	u2200
  6836  0CC3                     u2201:
  6837  0CC3  2D1F               	goto	l186
  6838  0CC4                     u2200:
  6839                           opt subtitle "HI-TECH Software Omniscient Code Generator (Lite mode) build 49521"
  6840                           
  6841  0CC4                     l2844:	
  6842                           opt subtitle "HI-TECH Software Omniscient Code Generator (Lite mode) build 49521"
  6843  0CC4  1283               	bcf	status, 5	;RP0=0, select bank2
  6844  0CC5  1703               	bsf	status, 6	;RP1=1, select bank2
  6845  0CC6  0194               	clrf	(276)^0100h	;volatile
  6846                           opt subtitle "HI-TECH Software Omniscient Code Generator (Lite mode) build 49521"
  6847                           
  6848  0CC7                     l2846:	
  6849                           opt subtitle "HI-TECH Software Omniscient Code Generator (Lite mode) build 49521"
  6850  0CC7  30A0               	movlw	(0A0h)
  6851  0CC8  0093               	movwf	(275)^0100h	;volatile
  6852                           opt subtitle "HI-TECH Software Omniscient Code Generator (Lite mode) build 49521"
  6853                           
  6854  0CC9                     l2848:	
  6855                           opt subtitle "HI-TECH Software Omniscient Code Generator (Lite mode) build 49521"
  6856  0CC9  1283               	bcf	status, 5	;RP0=0, select bank0
  6857  0CCA  1303               	bcf	status, 6	;RP1=0, select bank0
  6858  0CCB  1010               	bcf	(16),0	;volatile
  6859                           opt subtitle "HI-TECH Software Omniscient Code Generator (Lite mode) build 49521"
  6860                           
  6861  0CCC                     l2850:	
  6862                           opt subtitle "HI-TECH Software Omniscient Code Generator (Lite mode) build 49521"
  6863  0CCC  0853               	movf	(_charge_pulse+1),w
  6864  0CCD  00B8               	movwf	(??_sleep+0)+0+1
  6865  0CCE  0852               	movf	(_charge_pulse),w
  6866  0CCF  00B7               	movwf	(??_sleep+0)+0
  6867  0CD0  3002               	movlw	02h
  6868  0CD1  00FF               	movwf	btemp+1
  6869  0CD2                     u2215:
  6870  0CD2  1003               	clrc
  6871  0CD3  0DB7               	rlf	(??_sleep+0)+0,f
  6872  0CD4  0DB8               	rlf	(??_sleep+0)+1,f
  6873  0CD5  0BFF               	decfsz	btemp+1,f
  6874  0CD6  2CD2               	goto	u2215
  6875  0CD7  09B7               	comf	(??_sleep+0)+0,f
  6876  0CD8  09B8               	comf	(??_sleep+0)+1,f
  6877  0CD9  0AB7               	incf	(??_sleep+0)+0,f
  6878  0CDA  1903               	skipnz
  6879  0CDB  0AB8               	incf	(??_sleep+0)+1,f
  6880  0CDC  0837               	movf	0+(??_sleep+0)+0,w
  6881  0CDD  00D7               	movwf	(_charge_time)
  6882  0CDE  0838               	movf	1+(??_sleep+0)+0,w
  6883  0CDF  00D8               	movwf	(_charge_time+1)
  6884                           opt subtitle "HI-TECH Software Omniscient Code Generator (Lite mode) build 49521"
  6885                           
  6886  0CE0                     l2852:	
  6887                           opt subtitle "HI-TECH Software Omniscient Code Generator (Lite mode) build 49521"
  6888  0CE0  0858               	movf	(_charge_time+1),w
  6889  0CE1  008F               	movwf	(15)	;volatile
  6890                           opt subtitle "HI-TECH Software Omniscient Code Generator (Lite mode) build 49521"
  6891                           
  6892  0CE2                     l2854:	
  6893                           opt subtitle "HI-TECH Software Omniscient Code Generator (Lite mode) build 49521"
  6894  0CE2  0857               	movf	(_charge_time),w
  6895  0CE3  008E               	movwf	(14)	;volatile
  6896                           opt subtitle "HI-TECH Software Omniscient Code Generator (Lite mode) build 49521"
  6897                           
  6898  0CE4                     l2856:	
  6899                           opt subtitle "HI-TECH Software Omniscient Code Generator (Lite mode) build 49521"
  6900  0CE4  1410               	bsf	(16),0	;volatile
  6901                           opt subtitle "HI-TECH Software Omniscient Code Generator (Lite mode) build 49521"
  6902                           
  6903  0CE5  0063               sleep ;# 
  6904                           opt subtitle "HI-TECH Software Omniscient Code Generator (Lite mode) build 49521"
  6905                           
  6906                           opt pagewidth 120
  6907  0CE6                     l2858:	
  6908                           opt subtitle "HI-TECH Software Omniscient Code Generator (Lite mode) build 49521"
  6909  0CE6  1283               	bcf	status, 5	;RP0=0, select bank2
  6910  0CE7  1703               	bsf	status, 6	;RP1=1, select bank2
  6911  0CE8  0193               	clrf	(275)^0100h	;volatile
  6912                           opt subtitle "HI-TECH Software Omniscient Code Generator (Lite mode) build 49521"
  6913                           
  6914  0CE9                     l2860:	
  6915                           opt subtitle "HI-TECH Software Omniscient Code Generator (Lite mode) build 49521"
  6916  0CE9  1283               	bcf	status, 5	;RP0=0, select bank0
  6917  0CEA  1303               	bcf	status, 6	;RP1=0, select bank0
  6918  0CEB  1505               	bsf	(5),2	;volatile
  6919                           opt subtitle "HI-TECH Software Omniscient Code Generator (Lite mode) build 49521"
  6920                           
  6921  0CEC                     l2862:	
  6922                           opt subtitle "HI-TECH Software Omniscient Code Generator (Lite mode) build 49521"
  6923  0CEC  120A  158A  221A   	fcall	_adcReadVcap
              120A  158A         
  6924  0CF1  1283               	bcf	status, 5	;RP0=0, select bank0
  6925  0CF2  1303               	bcf	status, 6	;RP1=0, select bank0
  6926  0CF3  00B7               	movwf	(??_sleep+0)+0
  6927  0CF4  0837               	movf	(??_sleep+0)+0,w
  6928  0CF5  00B9               	movwf	(sleep@new_value)
  6929                           opt subtitle "HI-TECH Software Omniscient Code Generator (Lite mode) build 49521"
  6930                           
  6931  0CF6                     l2864:	
  6932                           opt subtitle "HI-TECH Software Omniscient Code Generator (Lite mode) build 49521"
  6933  0CF6  0957               	comf	(_charge_time),w
  6934  0CF7  00B7               	movwf	(??_sleep+0)+0
  6935  0CF8  0958               	comf	(_charge_time+1),w
  6936  0CF9  00B8               	movwf	((??_sleep+0)+0+1)
  6937  0CFA  0AB7               	incf	(??_sleep+0)+0,f
  6938  0CFB  1903               	skipnz
  6939  0CFC  0AB8               	incf	((??_sleep+0)+0+1),f
  6940  0CFD  0837               	movf	0+(??_sleep+0)+0,w
  6941  0CFE  3E00               	addlw	low(01000h)
  6942  0CFF  00D7               	movwf	(_charge_time)
  6943  0D00  0838               	movf	1+(??_sleep+0)+0,w
  6944  0D01  1803               	skipnc
  6945  0D02  3E01               	addlw	1
  6946  0D03  3E10               	addlw	high(01000h)
  6947  0D04  00D8               	movwf	1+(_charge_time)
  6948                           opt subtitle "HI-TECH Software Omniscient Code Generator (Lite mode) build 49521"
  6949                           
  6950  0D05                     l2866:	
  6951                           opt subtitle "HI-TECH Software Omniscient Code Generator (Lite mode) build 49521"
  6952  0D05  1010               	bcf	(16),0	;volatile
  6953                           opt subtitle "HI-TECH Software Omniscient Code Generator (Lite mode) build 49521"
  6954                           
  6955  0D06                     l2868:	
  6956                           opt subtitle "HI-TECH Software Omniscient Code Generator (Lite mode) build 49521"
  6957  0D06  0858               	movf	(_charge_time+1),w
  6958  0D07  008F               	movwf	(15)	;volatile
  6959                           opt subtitle "HI-TECH Software Omniscient Code Generator (Lite mode) build 49521"
  6960                           
  6961  0D08                     l2870:	
  6962                           opt subtitle "HI-TECH Software Omniscient Code Generator (Lite mode) build 49521"
  6963  0D08  0857               	movf	(_charge_time),w
  6964  0D09  008E               	movwf	(14)	;volatile
  6965                           opt subtitle "HI-TECH Software Omniscient Code Generator (Lite mode) build 49521"
  6966                           
  6967  0D0A                     l2872:	
  6968                           opt subtitle "HI-TECH Software Omniscient Code Generator (Lite mode) build 49521"
  6969  0D0A  1410               	bsf	(16),0	;volatile
  6970                           opt subtitle "HI-TECH Software Omniscient Code Generator (Lite mode) build 49521"
  6971                           
  6972  0D0B  0063               sleep ;# 
  6973                           opt subtitle "HI-TECH Software Omniscient Code Generator (Lite mode) build 49521"
  6974                           
  6975                           opt pagewidth 120
  6976  0D0C                     l2874:	
  6977                           opt subtitle "HI-TECH Software Omniscient Code Generator (Lite mode) build 49521"
  6978  0D0C  1683               	bsf	status, 5	;RP0=1, select bank1
  6979  0D0D  1303               	bcf	status, 6	;RP1=0, select bank1
  6980  0D0E  085D               	movf	(_value)^080h,w
  6981  0D0F  1283               	bcf	status, 5	;RP0=0, select bank0
  6982  0D10  1303               	bcf	status, 6	;RP1=0, select bank0
  6983  0D11  00B7               	movwf	(??_sleep+0)+0
  6984  0D12  0837               	movf	(??_sleep+0)+0,w
  6985  0D13  1683               	bsf	status, 5	;RP0=1, select bank1
  6986  0D14  1303               	bcf	status, 6	;RP1=0, select bank1
  6987  0D15  00DF               	movwf	(_values)^080h
  6988                           opt subtitle "HI-TECH Software Omniscient Code Generator (Lite mode) build 49521"
  6989                           
  6990  0D16                     l2876:	
  6991                           opt subtitle "HI-TECH Software Omniscient Code Generator (Lite mode) build 49521"
  6992  0D16  1283               	bcf	status, 5	;RP0=0, select bank0
  6993  0D17  1303               	bcf	status, 6	;RP1=0, select bank0
  6994  0D18  0839               	movf	(sleep@new_value),w
  6995  0D19  00B7               	movwf	(??_sleep+0)+0
  6996  0D1A  0837               	movf	(??_sleep+0)+0,w
  6997  0D1B  1683               	bsf	status, 5	;RP0=1, select bank1
  6998  0D1C  1303               	bcf	status, 6	;RP1=0, select bank1
  6999  0D1D  00E0               	movwf	0+(_values)^080h+01h
  7000                           opt subtitle "HI-TECH Software Omniscient Code Generator (Lite mode) build 49521"
  7001                           
  7002  0D1E  2D2B               	goto	l188
  7003                           opt subtitle "HI-TECH Software Omniscient Code Generator (Lite mode) build 49521"
  7004                           
  7005  0D1F                     l186:	
  7006                           opt subtitle "HI-TECH Software Omniscient Code Generator (Lite mode) build 49521"
  7007                           
  7008                           opt pagewidth 120
  7009  0D1F  1283               	bcf	status, 5	;RP0=0, select bank0
  7010  0D20  1010               	bcf	(16),0	;volatile
  7011                           opt subtitle "HI-TECH Software Omniscient Code Generator (Lite mode) build 49521"
  7012                           
  7013  0D21                     l2878:	
  7014                           opt subtitle "HI-TECH Software Omniscient Code Generator (Lite mode) build 49521"
  7015  0D21  3010               	movlw	(010h)
  7016  0D22  008F               	movwf	(15)	;volatile
  7017                           opt subtitle "HI-TECH Software Omniscient Code Generator (Lite mode) build 49521"
  7018                           
  7019  0D23                     l2880:	
  7020                           opt subtitle "HI-TECH Software Omniscient Code Generator (Lite mode) build 49521"
  7021  0D23  018E               	clrf	(14)	;volatile
  7022                           opt subtitle "HI-TECH Software Omniscient Code Generator (Lite mode) build 49521"
  7023                           
  7024  0D24                     l2882:	
  7025                           opt subtitle "HI-TECH Software Omniscient Code Generator (Lite mode) build 49521"
  7026  0D24  1410               	bsf	(16),0	;volatile
  7027                           opt subtitle "HI-TECH Software Omniscient Code Generator (Lite mode) build 49521"
  7028                           
  7029  0D25  0063               sleep ;# 
  7030                           opt subtitle "HI-TECH Software Omniscient Code Generator (Lite mode) build 49521"
  7031                           
  7032                           opt pagewidth 120
  7033  0D26                     l2884:	
  7034                           opt subtitle "HI-TECH Software Omniscient Code Generator (Lite mode) build 49521"
  7035  0D26  1683               	bsf	status, 5	;RP0=1, select bank1
  7036  0D27  1303               	bcf	status, 6	;RP1=0, select bank1
  7037  0D28  01DF               	clrf	(_values)^080h
  7038                           opt subtitle "HI-TECH Software Omniscient Code Generator (Lite mode) build 49521"
  7039                           
  7040  0D29                     l2886:	
  7041                           opt subtitle "HI-TECH Software Omniscient Code Generator (Lite mode) build 49521"
  7042  0D29  01E0               	clrf	0+(_values)^080h+01h
  7043  0D2A  2D2B               	goto	l188
  7044                           opt subtitle "HI-TECH Software Omniscient Code Generator (Lite mode) build 49521"
  7045                           
  7046  0D2B                     l187:	
  7047                           opt subtitle "HI-TECH Software Omniscient Code Generator (Lite mode) build 49521"
  7048                           
  7049  0D2B                     l188:	
  7050  0D2B  0008               	return
  7051                           opt subtitle "HI-TECH Software Omniscient Code Generator (Lite mode) build 49521"
  7052                           
  7053  0D2C                     	__end_of_sleep:
  7054                           opt subtitle "HI-TECH Software Omniscient Code Generator (Lite mode) build 49521"
  7055                           
  7056                           opt pagewidth 120
  7057                           
  7058                           	opt lm
  7059                           
  7060                           	processor	16LF707
  7061                           clrc	macro
  7062                           	bcf	3,0
  7063                           	endm
  7064                           clrz	macro
  7065                           	bcf	3,2
  7066                           	endm
  7067                           setc	macro
  7068                           	bsf	3,0
  7069                           	endm
  7070                           setz	macro
  7071                           	bsf	3,2
  7072                           	endm
  7073                           skipc	macro
  7074                           	btfss	3,0
  7075                           	endm
  7076                           skipz	macro
  7077                           	btfss	3,2
  7078                           	endm
  7079                           skipnc	macro
  7080                           	btfsc	3,0
  7081                           	endm
  7082                           skipnz	macro
  7083                           	btfsc	3,2
  7084                           	endm
  7085                           indf	equ	0
  7086                           indf0	equ	0
  7087                           pc	equ	2
  7088                           pcl	equ	2
  7089  0A1A                     __ptext1045:	;psect for function _adcReadVcap
  7090                           opt subtitle "HI-TECH Software Omniscient Code Generator (Lite mode) build 49521"
  7091                           
  7092                           opt pagewidth 120
  7093                           
  7094  002B                     	__size_of_adcReadVcap	equ	__end_of_adcReadVcap-_adcReadVcap
  7095                           opt subtitle "HI-TECH Software Omniscient Code Generator (Lite mode) build 49521"
  7096  0A1A                     _adcReadVcap:	
  7097                           opt subtitle "HI-TECH Software Omniscient Code Generator (Lite mode) build 49521"
  7098                           
  7099                           opt pagewidth 120
  7100                           
  7101  0A1A                     l2590:	
  7102                           opt subtitle "HI-TECH Software Omniscient Code Generator (Lite mode) build 49521"
  7103                           
  7104  0A1A  1283               	bcf	status, 5	;RP0=0, select bank0
  7105  0A1B  1303               	bcf	status, 6	;RP1=0, select bank0
  7106  0A1C  081F               	movf	(31),w	;volatile
  7107  0A1D  39C3               	andlw	not (((1<<4)-1)<<2)
  7108  0A1E  3814               	iorlw	(05h & ((1<<4)-1))<<2
  7109  0A1F  009F               	movwf	(31)	;volatile
  7110                           opt subtitle "HI-TECH Software Omniscient Code Generator (Lite mode) build 49521"
  7111                           
  7112  0A20  1683               	bsf	status, 5	;RP0=1, select bank1
  7113  0A21  1303               	bcf	status, 6	;RP1=0, select bank1
  7114  0A22  081D               	movf	(157)^080h,w	;volatile
  7115  0A23  39FC               	andlw	not (((1<<2)-1)<<0)
  7116  0A24  3802               	iorlw	(02h & ((1<<2)-1))<<0
  7117  0A25  009D               	movwf	(157)^080h	;volatile
  7118                           opt subtitle "HI-TECH Software Omniscient Code Generator (Lite mode) build 49521"
  7119                           
  7120  0A26                     l2592:	
  7121                           opt subtitle "HI-TECH Software Omniscient Code Generator (Lite mode) build 49521"
  7122  0A26  1283               	bcf	status, 5	;RP0=0, select bank0
  7123  0A27  1303               	bcf	status, 6	;RP1=0, select bank0
  7124  0A28  141F               	bsf	(31),0	;volatile
  7125                           opt subtitle "HI-TECH Software Omniscient Code Generator (Lite mode) build 49521"
  7126                           
  7127  0A29                     l2594:	
  7128                           opt subtitle "HI-TECH Software Omniscient Code Generator (Lite mode) build 49521"
  7129  0A29  1588               	bsf	(8),3	;volatile
  7130                           opt subtitle "HI-TECH Software Omniscient Code Generator (Lite mode) build 49521"
  7131                           
  7132  0A2A                     l2596:	
  7133                           opt subtitle "HI-TECH Software Omniscient Code Generator (Lite mode) build 49521"
  7134                           
  7135  0A2A  3003               movlw	3
  7136  0A2B  00B5               movwf	((??_adcReadVcap+0)+0+1),f
  7137  0A2C  3097               	movlw	151
  7138  0A2D  00B4               movwf	((??_adcReadVcap+0)+0),f
  7139  0A2E                     u3787:
  7140  0A2E  0BB4               	decfsz	((??_adcReadVcap+0)+0),f
  7141  0A2F  2A2E               	goto	u3787
  7142  0A30  0BB5               	decfsz	((??_adcReadVcap+0)+0+1),f
  7143  0A31  2A2E               	goto	u3787
  7144  0A32  2A33               	nop2
  7145                           opt subtitle "HI-TECH Software Omniscient Code Generator (Lite mode) build 49521"
  7146                           
  7147                           opt pagewidth 120
  7148                           
  7149  0A33                     l2598:	
  7150                           opt subtitle "HI-TECH Software Omniscient Code Generator (Lite mode) build 49521"
  7151  0A33  1283               	bcf	status, 5	;RP0=0, select bank0
  7152  0A34  1303               	bcf	status, 6	;RP1=0, select bank0
  7153  0A35  149F               	bsf	(31),1	;volatile
  7154                           opt subtitle "HI-TECH Software Omniscient Code Generator (Lite mode) build 49521"
  7155                           
  7156  0A36  2A37               	goto	l197
  7157                           opt subtitle "HI-TECH Software Omniscient Code Generator (Lite mode) build 49521"
  7158  0A37                     l198:	
  7159                           opt subtitle "HI-TECH Software Omniscient Code Generator (Lite mode) build 49521"
  7160  0A37                     l197:	
  7161  0A37  189F               	btfsc	(31),1	;volatile
  7162  0A38  2A3A               	goto	u1791
  7163  0A39  2A3B               	goto	u1790
  7164  0A3A                     u1791:
  7165  0A3A  2A37               	goto	l197
  7166  0A3B                     u1790:
  7167  0A3B  2A3C               	goto	l2600
  7168                           opt subtitle "HI-TECH Software Omniscient Code Generator (Lite mode) build 49521"
  7169  0A3C                     l199:	
  7170                           opt subtitle "HI-TECH Software Omniscient Code Generator (Lite mode) build 49521"
  7171                           
  7172  0A3C                     l2600:	
  7173                           opt subtitle "HI-TECH Software Omniscient Code Generator (Lite mode) build 49521"
  7174  0A3C  081E               	movf	(30),w	;volatile
  7175  0A3D  00B4               	movwf	(??_adcReadVcap+0)+0
  7176  0A3E  0834               	movf	(??_adcReadVcap+0)+0,w
  7177  0A3F  00B6               	movwf	(adcReadVcap@value)
  7178                           opt subtitle "HI-TECH Software Omniscient Code Generator (Lite mode) build 49521"
  7179                           
  7180  0A40                     l2602:	
  7181                           opt subtitle "HI-TECH Software Omniscient Code Generator (Lite mode) build 49521"
  7182  0A40  101F               	bcf	(31),0	;volatile
  7183                           opt subtitle "HI-TECH Software Omniscient Code Generator (Lite mode) build 49521"
  7184                           
  7185  0A41                     l2604:	
  7186                           opt subtitle "HI-TECH Software Omniscient Code Generator (Lite mode) build 49521"
  7187  0A41  1188               	bcf	(8),3	;volatile
  7188                           opt subtitle "HI-TECH Software Omniscient Code Generator (Lite mode) build 49521"
  7189                           
  7190  0A42  0836               	movf	(adcReadVcap@value),w
  7191  0A43  2A44               	goto	l200
  7192                           opt subtitle "HI-TECH Software Omniscient Code Generator (Lite mode) build 49521"
  7193  0A44                     l2606:	
  7194                           opt subtitle "HI-TECH Software Omniscient Code Generator (Lite mode) build 49521"
  7195                           
  7196  0A44                     l200:	
  7197  0A44  0008               	return
  7198                           opt subtitle "HI-TECH Software Omniscient Code Generator (Lite mode) build 49521"
  7199                           
  7200  0A45                     	__end_of_adcReadVcap:
  7201                           opt subtitle "HI-TECH Software Omniscient Code Generator (Lite mode) build 49521"
  7202                           
  7203                           opt pagewidth 120
  7204                           
  7205                           	opt lm
  7206                           
  7207                           	processor	16LF707
  7208                           clrc	macro
  7209                           	bcf	3,0
  7210                           	endm
  7211                           clrz	macro
  7212                           	bcf	3,2
  7213                           	endm
  7214                           setc	macro
  7215                           	bsf	3,0
  7216                           	endm
  7217                           setz	macro
  7218                           	bsf	3,2
  7219                           	endm
  7220                           skipc	macro
  7221                           	btfss	3,0
  7222                           	endm
  7223                           skipz	macro
  7224                           	btfss	3,2
  7225                           	endm
  7226                           skipnc	macro
  7227                           	btfsc	3,0
  7228                           	endm
  7229                           skipnz	macro
  7230                           	btfsc	3,2
  7231                           	endm
  7232                           indf	equ	0
  7233                           indf0	equ	0
  7234                           pc	equ	2
  7235                           pcl	equ	2
  7236  08A5                     __ptext1046:	;psect for function _putch
  7237                           opt subtitle "HI-TECH Software Omniscient Code Generator (Lite mode) build 49521"
  7238                           
  7239                           opt pagewidth 120
  7240                           
  7241  000C                     	__size_of_putch	equ	__end_of_putch-_putch
  7242                           opt subtitle "HI-TECH Software Omniscient Code Generator (Lite mode) build 49521"
  7243  08A5                     _putch:	
  7244                           opt subtitle "HI-TECH Software Omniscient Code Generator (Lite mode) build 49521"
  7245                           
  7246                           opt pagewidth 120
  7247  08A5  1283               	bcf	status, 5	;RP0=0, select bank0
  7248  08A6  1303               	bcf	status, 6	;RP1=0, select bank0
  7249  08A7  00B4               	movwf	(putch@c)
  7250                           opt subtitle "HI-TECH Software Omniscient Code Generator (Lite mode) build 49521"
  7251                           
  7252  08A8                     l3862:	
  7253                           opt subtitle "HI-TECH Software Omniscient Code Generator (Lite mode) build 49521"
  7254  08A8  28A9               	goto	l229
  7255                           opt subtitle "HI-TECH Software Omniscient Code Generator (Lite mode) build 49521"
  7256  08A9                     l230:	
  7257                           opt subtitle "HI-TECH Software Omniscient Code Generator (Lite mode) build 49521"
  7258  08A9                     l229:	
  7259  08A9  1E0C               	btfss	(100/8),(100)&7	;volatile
  7260  08AA  28AC               	goto	u3421
  7261  08AB  28AD               	goto	u3420
  7262  08AC                     u3421:
  7263  08AC  28A9               	goto	l229
  7264  08AD                     u3420:
  7265  08AD  28AE               	goto	l3864
  7266                           opt subtitle "HI-TECH Software Omniscient Code Generator (Lite mode) build 49521"
  7267  08AE                     l231:	
  7268                           opt subtitle "HI-TECH Software Omniscient Code Generator (Lite mode) build 49521"
  7269                           
  7270  08AE                     l3864:	
  7271                           opt subtitle "HI-TECH Software Omniscient Code Generator (Lite mode) build 49521"
  7272  08AE  0834               	movf	(putch@c),w
  7273  08AF  0099               	movwf	(25)	;volatile
  7274                           opt subtitle "HI-TECH Software Omniscient Code Generator (Lite mode) build 49521"
  7275                           
  7276  08B0                     l232:	
  7277  08B0  0008               	return
  7278                           opt subtitle "HI-TECH Software Omniscient Code Generator (Lite mode) build 49521"
  7279                           
  7280  08B1                     	__end_of_putch:
  7281                           opt subtitle "HI-TECH Software Omniscient Code Generator (Lite mode) build 49521"
  7282                           
  7283                           opt pagewidth 120
  7284                           
  7285                           	opt lm
  7286                           
  7287                           	processor	16LF707
  7288                           clrc	macro
  7289                           	bcf	3,0
  7290                           	endm
  7291                           clrz	macro
  7292                           	bcf	3,2
  7293                           	endm
  7294                           setc	macro
  7295                           	bsf	3,0
  7296                           	endm
  7297                           setz	macro
  7298                           	bsf	3,2
  7299                           	endm
  7300                           skipc	macro
  7301                           	btfss	3,0
  7302                           	endm
  7303                           skipz	macro
  7304                           	btfss	3,2
  7305                           	endm
  7306                           skipnc	macro
  7307                           	btfsc	3,0
  7308                           	endm
  7309                           skipnz	macro
  7310                           	btfsc	3,2
  7311                           	endm
  7312                           indf	equ	0
  7313                           indf0	equ	0
  7314                           pc	equ	2
  7315                           pcl	equ	2
  7316  09C6                     __ptext1047:	;psect for function _SwitchToTxMode
  7317                           opt subtitle "HI-TECH Software Omniscient Code Generator (Lite mode) build 49521"
  7318                           
  7319                           opt pagewidth 120
  7320                           
  7321  002A                     	__size_of_SwitchToTxMode	equ	__end_of_SwitchToTxMode-_SwitchToTxMode
  7322                           opt subtitle "HI-TECH Software Omniscient Code Generator (Lite mode) build 49521"
  7323  09C6                     _SwitchToTxMode:	
  7324                           opt subtitle "HI-TECH Software Omniscient Code Generator (Lite mode) build 49521"
  7325                           
  7326                           opt pagewidth 120
  7327                           
  7328  09C6                     l3870:	
  7329                           opt subtitle "HI-TECH Software Omniscient Code Generator (Lite mode) build 49521"
  7330                           
  7331  09C6  1283               	bcf	status, 5	;RP0=0, select bank0
  7332  09C7  1303               	bcf	status, 6	;RP1=0, select bank0
  7333  09C8  01B7               	clrf	(?_SPI_Write_Reg)
  7334  09C9  30E1               	movlw	(0E1h)
  7335  09CA  120A  158A  20C4   	fcall	_SPI_Write_Reg
              120A  158A         
  7336                           opt subtitle "HI-TECH Software Omniscient Code Generator (Lite mode) build 49521"
  7337                           
  7338  09CF                     l3872:	
  7339                           opt subtitle "HI-TECH Software Omniscient Code Generator (Lite mode) build 49521"
  7340  09CF  1283               	bcf	status, 5	;RP0=0, select bank0
  7341  09D0  1303               	bcf	status, 6	;RP1=0, select bank0
  7342  09D1  1107               	bcf	(7),2	;volatile
  7343                           opt subtitle "HI-TECH Software Omniscient Code Generator (Lite mode) build 49521"
  7344                           
  7345  09D2  3000               	movlw	(0)
  7346  09D3  120A  158A  2121   	fcall	_SPI_Read_Reg
              120A  158A         
  7347  09D8  1283               	bcf	status, 5	;RP0=0, select bank0
  7348  09D9  1303               	bcf	status, 6	;RP1=0, select bank0
  7349  09DA  00BA               	movwf	(??_SwitchToTxMode+0)+0
  7350  09DB  083A               	movf	(??_SwitchToTxMode+0)+0,w
  7351  09DC  00BB               	movwf	(SwitchToTxMode@value)
  7352                           opt subtitle "HI-TECH Software Omniscient Code Generator (Lite mode) build 49521"
  7353                           
  7354  09DD                     l3874:	
  7355                           opt subtitle "HI-TECH Software Omniscient Code Generator (Lite mode) build 49521"
  7356  09DD  083B               	movf	(SwitchToTxMode@value),w
  7357  09DE  39FE               	andlw	0FEh
  7358  09DF  00BA               	movwf	(??_SwitchToTxMode+0)+0
  7359  09E0  083A               	movf	(??_SwitchToTxMode+0)+0,w
  7360  09E1  00BB               	movwf	(SwitchToTxMode@value)
  7361                           opt subtitle "HI-TECH Software Omniscient Code Generator (Lite mode) build 49521"
  7362                           
  7363  09E2                     l3876:	
  7364                           opt subtitle "HI-TECH Software Omniscient Code Generator (Lite mode) build 49521"
  7365  09E2  083B               	movf	(SwitchToTxMode@value),w
  7366  09E3  00BA               	movwf	(??_SwitchToTxMode+0)+0
  7367  09E4  083A               	movf	(??_SwitchToTxMode+0)+0,w
  7368  09E5  00B7               	movwf	(?_SPI_Write_Reg)
  7369  09E6  3020               	movlw	(020h)
  7370  09E7  120A  158A  20C4   	fcall	_SPI_Write_Reg
              120A  158A         
  7371                           opt subtitle "HI-TECH Software Omniscient Code Generator (Lite mode) build 49521"
  7372                           
  7373  09EC                     l3878:	
  7374                           opt subtitle "HI-TECH Software Omniscient Code Generator (Lite mode) build 49521"
  7375  09EC  1283               	bcf	status, 5	;RP0=0, select bank0
  7376  09ED  1303               	bcf	status, 6	;RP1=0, select bank0
  7377  09EE  1507               	bsf	(7),2	;volatile
  7378                           opt subtitle "HI-TECH Software Omniscient Code Generator (Lite mode) build 49521"
  7379                           
  7380  09EF                     l320:	
  7381  09EF  0008               	return
  7382                           opt subtitle "HI-TECH Software Omniscient Code Generator (Lite mode) build 49521"
  7383                           
  7384  09F0                     	__end_of_SwitchToTxMode:
  7385                           opt subtitle "HI-TECH Software Omniscient Code Generator (Lite mode) build 49521"
  7386                           
  7387                           opt pagewidth 120
  7388                           
  7389                           	opt lm
  7390                           
  7391                           	processor	16LF707
  7392                           clrc	macro
  7393                           	bcf	3,0
  7394                           	endm
  7395                           clrz	macro
  7396                           	bcf	3,2
  7397                           	endm
  7398                           setc	macro
  7399                           	bsf	3,0
  7400                           	endm
  7401                           setz	macro
  7402                           	bsf	3,2
  7403                           	endm
  7404                           skipc	macro
  7405                           	btfss	3,0
  7406                           	endm
  7407                           skipz	macro
  7408                           	btfss	3,2
  7409                           	endm
  7410                           skipnc	macro
  7411                           	btfsc	3,0
  7412                           	endm
  7413                           skipnz	macro
  7414                           	btfsc	3,2
  7415                           	endm
  7416                           indf	equ	0
  7417                           indf0	equ	0
  7418                           pc	equ	2
  7419                           pcl	equ	2
  7420                           status	equ	3
  7421  0A9C                     __ptext1048:	;psect for function _SwitchCFG
  7422                           opt subtitle "HI-TECH Software Omniscient Code Generator (Lite mode) build 49521"
  7423                           
  7424                           opt pagewidth 120
  7425                           
  7426  0032                     	__size_of_SwitchCFG	equ	__end_of_SwitchCFG-_SwitchCFG
  7427                           opt subtitle "HI-TECH Software Omniscient Code Generator (Lite mode) build 49521"
  7428  0A9C                     _SwitchCFG:	
  7429                           opt subtitle "HI-TECH Software Omniscient Code Generator (Lite mode) build 49521"
  7430                           
  7431                           opt pagewidth 120
  7432                           
  7433  0A9C  1283               	bcf	status, 5	;RP0=0, select bank0
  7434  0A9D  1303               	bcf	status, 6	;RP1=0, select bank0
  7435  0A9E  00BB               	movwf	(SwitchCFG@_cfg)
  7436                           opt subtitle "HI-TECH Software Omniscient Code Generator (Lite mode) build 49521"
  7437  0A9F                     l4014:	
  7438                           opt subtitle "HI-TECH Software Omniscient Code Generator (Lite mode) build 49521"
  7439                           
  7440  0A9F  3007               	movlw	(07h)
  7441  0AA0  120A  158A  2121   	fcall	_SPI_Read_Reg
              120A  158A         
  7442  0AA5  1283               	bcf	status, 5	;RP0=0, select bank0
  7443  0AA6  1303               	bcf	status, 6	;RP1=0, select bank0
  7444  0AA7  00BA               	movwf	(??_SwitchCFG+0)+0
  7445  0AA8  083A               	movf	(??_SwitchCFG+0)+0,w
  7446  0AA9  00BC               	movwf	(SwitchCFG@Tmp)
  7447                           opt subtitle "HI-TECH Software Omniscient Code Generator (Lite mode) build 49521"
  7448                           
  7449  0AAA                     l4016:	
  7450                           opt subtitle "HI-TECH Software Omniscient Code Generator (Lite mode) build 49521"
  7451  0AAA  083C               	movf	(SwitchCFG@Tmp),w
  7452  0AAB  3980               	andlw	080h
  7453  0AAC  00BA               	movwf	(??_SwitchCFG+0)+0
  7454  0AAD  083A               	movf	(??_SwitchCFG+0)+0,w
  7455  0AAE  00BC               	movwf	(SwitchCFG@Tmp)
  7456                           opt subtitle "HI-TECH Software Omniscient Code Generator (Lite mode) build 49521"
  7457                           
  7458  0AAF                     l4018:	
  7459                           opt subtitle "HI-TECH Software Omniscient Code Generator (Lite mode) build 49521"
  7460                           
  7461  0AAF  083C               	movf	(SwitchCFG@Tmp),w
  7462  0AB0  1D03               	skipz
  7463  0AB1  2AB3               	goto	u3530
  7464  0AB2  2AB8               	goto	l4022
  7465  0AB3                     u3530:
  7466                           opt subtitle "HI-TECH Software Omniscient Code Generator (Lite mode) build 49521"
  7467  0AB3                     l4020:	
  7468  0AB3  083B               	movf	(SwitchCFG@_cfg),w
  7469  0AB4  1D03               	skipz
  7470  0AB5  2AB7               	goto	u3540
  7471  0AB6  2AC2               	goto	l4026
  7472  0AB7                     u3540:
  7473  0AB7  2AB8               	goto	l4022
  7474                           opt subtitle "HI-TECH Software Omniscient Code Generator (Lite mode) build 49521"
  7475  0AB8                     l327:	
  7476                           opt subtitle "HI-TECH Software Omniscient Code Generator (Lite mode) build 49521"
  7477  0AB8                     l4022:	
  7478  0AB8  08BC               	movf	(SwitchCFG@Tmp),f
  7479  0AB9  1D03               	skipz
  7480  0ABA  2ABC               	goto	u3551
  7481  0ABB  2ABD               	goto	u3550
  7482  0ABC                     u3551:
  7483  0ABC  2ACD               	goto	l328
  7484  0ABD                     u3550:
  7485                           opt subtitle "HI-TECH Software Omniscient Code Generator (Lite mode) build 49521"
  7486  0ABD                     l4024:	
  7487  0ABD  083B               	movf	(SwitchCFG@_cfg),w
  7488  0ABE  1D03               	skipz
  7489  0ABF  2AC1               	goto	u3560
  7490  0AC0  2ACD               	goto	l328
  7491  0AC1                     u3560:
  7492  0AC1  2AC2               	goto	l4026
  7493                           opt subtitle "HI-TECH Software Omniscient Code Generator (Lite mode) build 49521"
  7494  0AC2                     l325:	
  7495                           opt subtitle "HI-TECH Software Omniscient Code Generator (Lite mode) build 49521"
  7496                           
  7497  0AC2                     l4026:	
  7498                           opt subtitle "HI-TECH Software Omniscient Code Generator (Lite mode) build 49521"
  7499                           
  7500  0AC2  3053               	movlw	(053h)
  7501  0AC3  00BA               	movwf	(??_SwitchCFG+0)+0
  7502  0AC4  083A               	movf	(??_SwitchCFG+0)+0,w
  7503  0AC5  00B7               	movwf	(?_SPI_Write_Reg)
  7504  0AC6  3050               	movlw	(050h)
  7505  0AC7  120A  158A  20C4   	fcall	_SPI_Write_Reg
              120A  158A         
  7506  0ACC  2ACD               	goto	l328
  7507                           opt subtitle "HI-TECH Software Omniscient Code Generator (Lite mode) build 49521"
  7508                           
  7509  0ACD                     l323:	
  7510                           opt subtitle "HI-TECH Software Omniscient Code Generator (Lite mode) build 49521"
  7511                           
  7512  0ACD                     l328:	
  7513  0ACD  0008               	return
  7514                           opt subtitle "HI-TECH Software Omniscient Code Generator (Lite mode) build 49521"
  7515                           
  7516  0ACE                     	__end_of_SwitchCFG:
  7517                           opt subtitle "HI-TECH Software Omniscient Code Generator (Lite mode) build 49521"
  7518                           
  7519                           opt pagewidth 120
  7520                           
  7521                           	opt lm
  7522                           
  7523                           	processor	16LF707
  7524                           clrc	macro
  7525                           	bcf	3,0
  7526                           	endm
  7527                           clrz	macro
  7528                           	bcf	3,2
  7529                           	endm
  7530                           setc	macro
  7531                           	bsf	3,0
  7532                           	endm
  7533                           setz	macro
  7534                           	bsf	3,2
  7535                           	endm
  7536                           skipc	macro
  7537                           	btfss	3,0
  7538                           	endm
  7539                           skipz	macro
  7540                           	btfss	3,2
  7541                           	endm
  7542                           skipnc	macro
  7543                           	btfsc	3,0
  7544                           	endm
  7545                           skipnz	macro
  7546                           	btfsc	3,2
  7547                           	endm
  7548                           indf	equ	0
  7549                           indf0	equ	0
  7550                           pc	equ	2
  7551                           pcl	equ	2
  7552                           status	equ	3
  7553                           fsr	equ	4
  7554                           fsr0	equ	4
  7555                           c	equ	1
  7556                           z	equ	0
  7557                           pclath	equ	10
  7558                           # 46 "/Applications/microchip/xc8/v1.12/include/pic16lf707.h"
  7559                           INDF equ 00h ;# 
  7560                           # 52 "/Applications/microchip/xc8/v1.12/include/pic16lf707.h"
  7561  08C4                     __ptext1049:	;psect for function _SPI_Write_Reg
  7562                           opt subtitle "HI-TECH Software Omniscient Code Generator (Lite mode) build 49521"
  7563                           
  7564                           opt pagewidth 120
  7565                           
  7566  0016                     	__size_of_SPI_Write_Reg	equ	__end_of_SPI_Write_Reg-_SPI_Write_Reg
  7567                           opt subtitle "HI-TECH Software Omniscient Code Generator (Lite mode) build 49521"
  7568  08C4                     _SPI_Write_Reg:	
  7569                           opt subtitle "HI-TECH Software Omniscient Code Generator (Lite mode) build 49521"
  7570                           
  7571                           opt pagewidth 120
  7572  08C4  1283               	bcf	status, 5	;RP0=0, select bank0
  7573  08C5  1303               	bcf	status, 6	;RP1=0, select bank0
  7574  08C6  00B8               	movwf	(SPI_Write_Reg@reg)
  7575                           opt subtitle "HI-TECH Software Omniscient Code Generator (Lite mode) build 49521"
  7576                           
  7577  08C7                     l4002:	
  7578                           opt subtitle "HI-TECH Software Omniscient Code Generator (Lite mode) build 49521"
  7579  08C7  1108               	bcf	(8),2	;volatile
  7580                           opt subtitle "HI-TECH Software Omniscient Code Generator (Lite mode) build 49521"
  7581                           
  7582  08C8                     l4004:	
  7583                           opt subtitle "HI-TECH Software Omniscient Code Generator (Lite mode) build 49521"
  7584  08C8  0838               	movf	(SPI_Write_Reg@reg),w
  7585  08C9  120A  158A  2108   	fcall	_SPI_RW
              120A  158A         
  7586                           opt subtitle "HI-TECH Software Omniscient Code Generator (Lite mode) build 49521"
  7587                           
  7588  08CE  1283               	bcf	status, 5	;RP0=0, select bank0
  7589  08CF  1303               	bcf	status, 6	;RP1=0, select bank0
  7590  08D0  0837               	movf	(SPI_Write_Reg@value),w
  7591  08D1  120A  158A  2108   	fcall	_SPI_RW
              120A  158A         
  7592                           opt subtitle "HI-TECH Software Omniscient Code Generator (Lite mode) build 49521"
  7593                           
  7594  08D6                     l4006:	
  7595                           opt subtitle "HI-TECH Software Omniscient Code Generator (Lite mode) build 49521"
  7596  08D6  1283               	bcf	status, 5	;RP0=0, select bank0
  7597  08D7  1303               	bcf	status, 6	;RP1=0, select bank0
  7598  08D8  1508               	bsf	(8),2	;volatile
  7599                           opt subtitle "HI-TECH Software Omniscient Code Generator (Lite mode) build 49521"
  7600                           
  7601  08D9                     l299:	
  7602  08D9  0008               	return
  7603                           opt subtitle "HI-TECH Software Omniscient Code Generator (Lite mode) build 49521"
  7604                           
  7605  08DA                     	__end_of_SPI_Write_Reg:
  7606                           opt subtitle "HI-TECH Software Omniscient Code Generator (Lite mode) build 49521"
  7607                           
  7608                           opt pagewidth 120
  7609                           
  7610                           	opt lm
  7611                           
  7612                           	processor	16LF707
  7613                           clrc	macro
  7614                           	bcf	3,0
  7615                           	endm
  7616                           clrz	macro
  7617                           	bcf	3,2
  7618                           	endm
  7619                           setc	macro
  7620                           	bsf	3,0
  7621                           	endm
  7622                           setz	macro
  7623                           	bsf	3,2
  7624                           	endm
  7625                           skipc	macro
  7626                           	btfss	3,0
  7627                           	endm
  7628                           skipz	macro
  7629                           	btfss	3,2
  7630                           	endm
  7631                           skipnc	macro
  7632                           	btfsc	3,0
  7633                           	endm
  7634                           skipnz	macro
  7635                           	btfsc	3,2
  7636                           	endm
  7637                           indf	equ	0
  7638                           indf0	equ	0
  7639                           pc	equ	2
  7640                           pcl	equ	2
  7641                           status	equ	3
  7642                           fsr	equ	4
  7643                           fsr0	equ	4
  7644                           c	equ	1
  7645                           z	equ	0
  7646                           pclath	equ	10
  7647                           # 46 "/Applications/microchip/xc8/v1.12/include/pic16lf707.h"
  7648                           INDF equ 00h ;# 
  7649                           # 52 "/Applications/microchip/xc8/v1.12/include/pic16lf707.h"
  7650  0921                     __ptext1050:	;psect for function _SPI_Read_Reg
  7651                           opt subtitle "HI-TECH Software Omniscient Code Generator (Lite mode) build 49521"
  7652                           
  7653                           opt pagewidth 120
  7654                           
  7655  0019                     	__size_of_SPI_Read_Reg	equ	__end_of_SPI_Read_Reg-_SPI_Read_Reg
  7656                           opt subtitle "HI-TECH Software Omniscient Code Generator (Lite mode) build 49521"
  7657  0921                     _SPI_Read_Reg:	
  7658                           opt subtitle "HI-TECH Software Omniscient Code Generator (Lite mode) build 49521"
  7659                           
  7660                           opt pagewidth 120
  7661                           
  7662  0921  1283               	bcf	status, 5	;RP0=0, select bank0
  7663  0922  1303               	bcf	status, 6	;RP1=0, select bank0
  7664  0923  00B8               	movwf	(SPI_Read_Reg@reg)
  7665                           opt subtitle "HI-TECH Software Omniscient Code Generator (Lite mode) build 49521"
  7666  0924                     l3880:	
  7667                           opt subtitle "HI-TECH Software Omniscient Code Generator (Lite mode) build 49521"
  7668                           
  7669  0924  1108               	bcf	(8),2	;volatile
  7670                           opt subtitle "HI-TECH Software Omniscient Code Generator (Lite mode) build 49521"
  7671                           
  7672  0925                     l3882:	
  7673                           opt subtitle "HI-TECH Software Omniscient Code Generator (Lite mode) build 49521"
  7674  0925  0838               	movf	(SPI_Read_Reg@reg),w
  7675  0926  120A  158A  2108   	fcall	_SPI_RW
              120A  158A         
  7676                           opt subtitle "HI-TECH Software Omniscient Code Generator (Lite mode) build 49521"
  7677                           
  7678  092B                     l3884:	
  7679                           opt subtitle "HI-TECH Software Omniscient Code Generator (Lite mode) build 49521"
  7680  092B  3000               	movlw	(0)
  7681  092C  120A  158A  2108   	fcall	_SPI_RW
              120A  158A         
  7682  0931  1283               	bcf	status, 5	;RP0=0, select bank0
  7683  0932  1303               	bcf	status, 6	;RP1=0, select bank0
  7684  0933  00B7               	movwf	(??_SPI_Read_Reg+0)+0
  7685  0934  0837               	movf	(??_SPI_Read_Reg+0)+0,w
  7686  0935  00B9               	movwf	(SPI_Read_Reg@value)
  7687                           opt subtitle "HI-TECH Software Omniscient Code Generator (Lite mode) build 49521"
  7688                           
  7689  0936                     l3886:	
  7690                           opt subtitle "HI-TECH Software Omniscient Code Generator (Lite mode) build 49521"
  7691  0936  1508               	bsf	(8),2	;volatile
  7692                           opt subtitle "HI-TECH Software Omniscient Code Generator (Lite mode) build 49521"
  7693                           
  7694  0937                     l3888:	
  7695                           opt subtitle "HI-TECH Software Omniscient Code Generator (Lite mode) build 49521"
  7696  0937  0839               	movf	(SPI_Read_Reg@value),w
  7697  0938  2939               	goto	l302
  7698                           opt subtitle "HI-TECH Software Omniscient Code Generator (Lite mode) build 49521"
  7699  0939                     l3890:	
  7700                           opt subtitle "HI-TECH Software Omniscient Code Generator (Lite mode) build 49521"
  7701                           
  7702  0939                     l302:	
  7703  0939  0008               	return
  7704                           opt subtitle "HI-TECH Software Omniscient Code Generator (Lite mode) build 49521"
  7705                           
  7706  093A                     	__end_of_SPI_Read_Reg:
  7707                           opt subtitle "HI-TECH Software Omniscient Code Generator (Lite mode) build 49521"
  7708                           
  7709                           opt pagewidth 120
  7710                           
  7711                           	opt lm
  7712                           
  7713                           	processor	16LF707
  7714                           clrc	macro
  7715                           	bcf	3,0
  7716                           	endm
  7717                           clrz	macro
  7718                           	bcf	3,2
  7719                           	endm
  7720                           setc	macro
  7721                           	bsf	3,0
  7722                           	endm
  7723                           setz	macro
  7724                           	bsf	3,2
  7725                           	endm
  7726                           skipc	macro
  7727                           	btfss	3,0
  7728                           	endm
  7729                           skipz	macro
  7730                           	btfss	3,2
  7731                           	endm
  7732                           skipnc	macro
  7733                           	btfsc	3,0
  7734                           	endm
  7735                           skipnz	macro
  7736                           	btfsc	3,2
  7737                           	endm
  7738                           indf	equ	0
  7739                           indf0	equ	0
  7740                           pc	equ	2
  7741                           pcl	equ	2
  7742                           status	equ	3
  7743                           fsr	equ	4
  7744  0908                     __ptext1051:	;psect for function _SPI_RW
  7745                           opt subtitle "HI-TECH Software Omniscient Code Generator (Lite mode) build 49521"
  7746                           
  7747                           opt pagewidth 120
  7748                           
  7749  0019                     	__size_of_SPI_RW	equ	__end_of_SPI_RW-_SPI_RW
  7750                           opt subtitle "HI-TECH Software Omniscient Code Generator (Lite mode) build 49521"
  7751  0908                     _SPI_RW:	
  7752                           opt subtitle "HI-TECH Software Omniscient Code Generator (Lite mode) build 49521"
  7753                           
  7754                           opt pagewidth 120
  7755  0908  1283               	bcf	status, 5	;RP0=0, select bank0
  7756  0909  1303               	bcf	status, 6	;RP1=0, select bank0
  7757  090A  00B6               	movwf	(SPI_RW@value)
  7758                           opt subtitle "HI-TECH Software Omniscient Code Generator (Lite mode) build 49521"
  7759                           
  7760  090B                     l4008:	
  7761                           opt subtitle "HI-TECH Software Omniscient Code Generator (Lite mode) build 49521"
  7762  090B  0836               	movf	(SPI_RW@value),w
  7763  090C  0093               	movwf	(19)	;volatile
  7764                           opt subtitle "HI-TECH Software Omniscient Code Generator (Lite mode) build 49521"
  7765                           
  7766                           opt pagewidth 120
  7767  090D  3003               movlw	3
  7768  090E  00B5               movwf	((??_SPI_RW+0)+0+1),f
  7769  090F  3097               	movlw	151
  7770  0910  00B4               movwf	((??_SPI_RW+0)+0),f
  7771  0911                     u3797:
  7772  0911  0BB4               	decfsz	((??_SPI_RW+0)+0),f
  7773  0912  2911               	goto	u3797
  7774  0913  0BB5               	decfsz	((??_SPI_RW+0)+0+1),f
  7775  0914  2911               	goto	u3797
  7776  0915  2916               	nop2
  7777                           opt subtitle "HI-TECH Software Omniscient Code Generator (Lite mode) build 49521"
  7778                           
  7779                           opt pagewidth 120
  7780                           
  7781  0916  2917               	goto	l293
  7782                           opt subtitle "HI-TECH Software Omniscient Code Generator (Lite mode) build 49521"
  7783  0917                     l294:	
  7784                           opt subtitle "HI-TECH Software Omniscient Code Generator (Lite mode) build 49521"
  7785  0917                     l293:	
  7786  0917  1283               	bcf	status, 5	;RP0=0, select bank0
  7787  0918  1303               	bcf	status, 6	;RP1=0, select bank0
  7788  0919  1D8C               	btfss	(12),3	;volatile
  7789  091A  291C               	goto	u3521
  7790  091B  291D               	goto	u3520
  7791  091C                     u3521:
  7792  091C  2917               	goto	l293
  7793  091D                     u3520:
  7794  091D  291E               	goto	l4010
  7795                           opt subtitle "HI-TECH Software Omniscient Code Generator (Lite mode) build 49521"
  7796  091E                     l295:	
  7797                           opt subtitle "HI-TECH Software Omniscient Code Generator (Lite mode) build 49521"
  7798                           
  7799  091E                     l4010:	
  7800                           opt subtitle "HI-TECH Software Omniscient Code Generator (Lite mode) build 49521"
  7801  091E  0813               	movf	(19),w	;volatile
  7802  091F  2920               	goto	l296
  7803                           opt subtitle "HI-TECH Software Omniscient Code Generator (Lite mode) build 49521"
  7804  0920                     l4012:	
  7805                           opt subtitle "HI-TECH Software Omniscient Code Generator (Lite mode) build 49521"
  7806                           
  7807  0920                     l296:	
  7808  0920  0008               	return
  7809                           opt subtitle "HI-TECH Software Omniscient Code Generator (Lite mode) build 49521"
  7810                           
  7811  0921                     	__end_of_SPI_RW:
  7812                           opt subtitle "HI-TECH Software Omniscient Code Generator (Lite mode) build 49521"
  7813                           
  7814                           opt pagewidth 120
  7815                           
  7816                           	opt lm
  7817                           
  7818                           	processor	16LF707
  7819                           clrc	macro
  7820                           	bcf	3,0
  7821                           	endm
  7822                           clrz	macro
  7823                           	bcf	3,2
  7824                           	endm
  7825                           setc	macro
  7826                           	bsf	3,0
  7827                           	endm
  7828                           setz	macro
  7829                           	bsf	3,2
  7830                           	endm
  7831                           skipc	macro
  7832                           	btfss	3,0
  7833                           	endm
  7834                           skipz	macro
  7835                           	btfss	3,2
  7836                           	endm
  7837                           skipnc	macro
  7838                           	btfsc	3,0
  7839                           	endm
  7840                           skipnz	macro
  7841                           	btfsc	3,2
  7842                           	endm
  7843                           indf	equ	0
  7844                           indf0	equ	0
  7845                           pc	equ	2
  7846                           pcl	equ	2
  7847  0A70                     __ptext1052:	;psect for function ___wmul
  7848                           opt subtitle "HI-TECH Software Omniscient Code Generator (Lite mode) build 49521"
  7849                           
  7850                           opt pagewidth 120
  7851                           
  7852  002C                     	__size_of___wmul	equ	__end_of___wmul-___wmul
  7853                           opt subtitle "HI-TECH Software Omniscient Code Generator (Lite mode) build 49521"
  7854  0A70                     ___wmul:	
  7855                           opt subtitle "HI-TECH Software Omniscient Code Generator (Lite mode) build 49521"
  7856                           
  7857                           opt pagewidth 120
  7858                           
  7859  0A70                     l3070:	
  7860  0A70  1283               	bcf	status, 5	;RP0=0, select bank0
  7861  0A71  1303               	bcf	status, 6	;RP1=0, select bank0
  7862  0A72  01B8               	clrf	(___wmul@product)
  7863  0A73  01B9               	clrf	(___wmul@product+1)
  7864  0A74  2A75               	goto	l3072
  7865                           opt subtitle "HI-TECH Software Omniscient Code Generator (Lite mode) build 49521"
  7866                           
  7867  0A75                     l438:	
  7868                           opt subtitle "HI-TECH Software Omniscient Code Generator (Lite mode) build 49521"
  7869                           
  7870  0A75                     l3072:	
  7871  0A75  1C34               	btfss	(___wmul@multiplier),(0)&7
  7872  0A76  2A78               	goto	u2381
  7873  0A77  2A79               	goto	u2380
  7874  0A78                     u2381:
  7875  0A78  2A7F               	goto	l439
  7876  0A79                     u2380:
  7877                           opt subtitle "HI-TECH Software Omniscient Code Generator (Lite mode) build 49521"
  7878                           
  7879  0A79                     l3074:	
  7880  0A79  0836               	movf	(___wmul@multiplicand),w
  7881  0A7A  07B8               	addwf	(___wmul@product),f
  7882  0A7B  1803               	skipnc
  7883  0A7C  0AB9               	incf	(___wmul@product+1),f
  7884  0A7D  0837               	movf	(___wmul@multiplicand+1),w
  7885  0A7E  07B9               	addwf	(___wmul@product+1),f
  7886                           opt subtitle "HI-TECH Software Omniscient Code Generator (Lite mode) build 49521"
  7887  0A7F                     l439:	
  7888                           opt subtitle "HI-TECH Software Omniscient Code Generator (Lite mode) build 49521"
  7889  0A7F  3001               	movlw	01h
  7890                           opt subtitle "HI-TECH Software Omniscient Code Generator (Lite mode) build 49521"
  7891  0A80                     u2395:
  7892  0A80  1003               	clrc
  7893  0A81  0DB6               	rlf	(___wmul@multiplicand),f
  7894  0A82  0DB7               	rlf	(___wmul@multiplicand+1),f
  7895  0A83  3EFF               	addlw	-1
  7896  0A84  1D03               	skipz
  7897  0A85  2A80               	goto	u2395
  7898                           opt subtitle "HI-TECH Software Omniscient Code Generator (Lite mode) build 49521"
  7899                           
  7900  0A86                     l3076:	
  7901  0A86  3001               	movlw	01h
  7902                           opt subtitle "HI-TECH Software Omniscient Code Generator (Lite mode) build 49521"
  7903  0A87                     u2405:
  7904  0A87  1003               	clrc
  7905  0A88  0CB5               	rrf	(___wmul@multiplier+1),f
  7906  0A89  0CB4               	rrf	(___wmul@multiplier),f
  7907  0A8A  3EFF               	addlw	-1
  7908  0A8B  1D03               	skipz
  7909  0A8C  2A87               	goto	u2405
  7910                           opt subtitle "HI-TECH Software Omniscient Code Generator (Lite mode) build 49521"
  7911  0A8D  0835               	movf	((___wmul@multiplier+1)),w
  7912  0A8E  0434               	iorwf	((___wmul@multiplier)),w
  7913  0A8F  1D03               	skipz
  7914  0A90  2A92               	goto	u2411
  7915  0A91  2A93               	goto	u2410
  7916  0A92                     u2411:
  7917  0A92  2A75               	goto	l3072
  7918  0A93                     u2410:
  7919  0A93  2A94               	goto	l3078
  7920                           opt subtitle "HI-TECH Software Omniscient Code Generator (Lite mode) build 49521"
  7921  0A94                     l440:	
  7922                           opt subtitle "HI-TECH Software Omniscient Code Generator (Lite mode) build 49521"
  7923                           
  7924  0A94                     l3078:	
  7925  0A94  0839               	movf	(___wmul@product+1),w
  7926  0A95  01B5               	clrf	(?___wmul+1)
  7927  0A96  07B5               	addwf	(?___wmul+1)
  7928  0A97  0838               	movf	(___wmul@product),w
  7929  0A98  01B4               	clrf	(?___wmul)
  7930  0A99  07B4               	addwf	(?___wmul)
  7931                           opt subtitle "HI-TECH Software Omniscient Code Generator (Lite mode) build 49521"
  7932  0A9A  2A9B               	goto	l441
  7933                           opt subtitle "HI-TECH Software Omniscient Code Generator (Lite mode) build 49521"
  7934  0A9B                     l3080:	
  7935                           opt subtitle "HI-TECH Software Omniscient Code Generator (Lite mode) build 49521"
  7936                           
  7937  0A9B                     l441:	
  7938  0A9B  0008               	return
  7939                           opt subtitle "HI-TECH Software Omniscient Code Generator (Lite mode) build 49521"
  7940                           
  7941  0A9C                     	__end_of___wmul:
  7942                           opt subtitle "HI-TECH Software Omniscient Code Generator (Lite mode) build 49521"
  7943                           
  7944                           opt pagewidth 120
  7945                           
  7946                           	opt lm
  7947                           
  7948                           	processor	16LF707
  7949                           clrc	macro
  7950                           	bcf	3,0
  7951                           	endm
  7952                           clrz	macro
  7953                           	bcf	3,2
  7954                           	endm
  7955                           setc	macro
  7956                           	bsf	3,0
  7957                           	endm
  7958                           setz	macro
  7959                           	bsf	3,2
  7960                           	endm
  7961                           skipc	macro
  7962                           	btfss	3,0
  7963                           	endm
  7964                           skipz	macro
  7965                           	btfss	3,2
  7966                           	endm
  7967                           skipnc	macro
  7968                           	btfsc	3,0
  7969                           	endm
  7970                           skipnz	macro
  7971                           	btfsc	3,2
  7972                           	endm
  7973                           indf	equ	0
  7974                           indf0	equ	0
  7975                           pc	equ	2
  7976                           pcl	equ	2
  7977                           status	equ	3
  7978  0BD5                     __ptext1053:	;psect for function ___lwdiv
  7979                           opt subtitle "HI-TECH Software Omniscient Code Generator (Lite mode) build 49521"
  7980                           
  7981                           opt pagewidth 120
  7982                           
  7983  004F                     	__size_of___lwdiv	equ	__end_of___lwdiv-___lwdiv
  7984                           opt subtitle "HI-TECH Software Omniscient Code Generator (Lite mode) build 49521"
  7985  0BD5                     ___lwdiv:	
  7986                           opt subtitle "HI-TECH Software Omniscient Code Generator (Lite mode) build 49521"
  7987                           
  7988                           opt pagewidth 120
  7989                           
  7990  0BD5                     l4038:	
  7991  0BD5  1283               	bcf	status, 5	;RP0=0, select bank0
  7992  0BD6  1303               	bcf	status, 6	;RP1=0, select bank0
  7993  0BD7  01BA               	clrf	(___lwdiv@quotient)
  7994  0BD8  01BB               	clrf	(___lwdiv@quotient+1)
  7995                           opt subtitle "HI-TECH Software Omniscient Code Generator (Lite mode) build 49521"
  7996                           
  7997  0BD9                     l4040:	
  7998  0BD9  0835               	movf	(___lwdiv@divisor+1),w
  7999  0BDA  0434               	iorwf	(___lwdiv@divisor),w
  8000  0BDB  1903               	skipnz
  8001  0BDC  2BDE               	goto	u3581
  8002  0BDD  2BDF               	goto	u3580
  8003  0BDE                     u3581:
  8004  0BDE  2C1C               	goto	l4060
  8005  0BDF                     u3580:
  8006                           opt subtitle "HI-TECH Software Omniscient Code Generator (Lite mode) build 49521"
  8007                           
  8008  0BDF                     l4042:	
  8009  0BDF  01B9               	clrf	(___lwdiv@counter)
  8010  0BE0  0AB9               	incf	(___lwdiv@counter),f
  8011                           opt subtitle "HI-TECH Software Omniscient Code Generator (Lite mode) build 49521"
  8012  0BE1  2BEE               	goto	l4048
  8013                           opt subtitle "HI-TECH Software Omniscient Code Generator (Lite mode) build 49521"
  8014  0BE2                     l446:	
  8015                           opt subtitle "HI-TECH Software Omniscient Code Generator (Lite mode) build 49521"
  8016                           
  8017  0BE2                     l4044:	
  8018  0BE2  3001               	movlw	01h
  8019                           opt subtitle "HI-TECH Software Omniscient Code Generator (Lite mode) build 49521"
  8020  0BE3                     u3595:
  8021  0BE3  1003               	clrc
  8022  0BE4  0DB4               	rlf	(___lwdiv@divisor),f
  8023  0BE5  0DB5               	rlf	(___lwdiv@divisor+1),f
  8024  0BE6  3EFF               	addlw	-1
  8025  0BE7  1D03               	skipz
  8026  0BE8  2BE3               	goto	u3595
  8027                           opt subtitle "HI-TECH Software Omniscient Code Generator (Lite mode) build 49521"
  8028                           
  8029  0BE9                     l4046:	
  8030  0BE9  3001               	movlw	(01h)
  8031  0BEA  00B8               	movwf	(??___lwdiv+0)+0
  8032  0BEB  0838               	movf	(??___lwdiv+0)+0,w
  8033  0BEC  07B9               	addwf	(___lwdiv@counter),f
  8034  0BED  2BEE               	goto	l4048
  8035                           opt subtitle "HI-TECH Software Omniscient Code Generator (Lite mode) build 49521"
  8036                           
  8037  0BEE                     l445:	
  8038                           opt subtitle "HI-TECH Software Omniscient Code Generator (Lite mode) build 49521"
  8039                           
  8040  0BEE                     l4048:	
  8041  0BEE  1FB5               	btfss	(___lwdiv@divisor+1),(15)&7
  8042  0BEF  2BF1               	goto	u3601
  8043  0BF0  2BF2               	goto	u3600
  8044  0BF1                     u3601:
  8045  0BF1  2BE2               	goto	l4044
  8046  0BF2                     u3600:
  8047  0BF2  2BF4               	goto	l4050
  8048                           opt subtitle "HI-TECH Software Omniscient Code Generator (Lite mode) build 49521"
  8049  0BF3                     l447:	
  8050  0BF3  2BF4               	goto	l4050
  8051                           opt subtitle "HI-TECH Software Omniscient Code Generator (Lite mode) build 49521"
  8052                           
  8053  0BF4                     l448:	
  8054                           opt subtitle "HI-TECH Software Omniscient Code Generator (Lite mode) build 49521"
  8055                           
  8056  0BF4                     l4050:	
  8057  0BF4  3001               	movlw	01h
  8058                           opt subtitle "HI-TECH Software Omniscient Code Generator (Lite mode) build 49521"
  8059  0BF5                     u3615:
  8060  0BF5  1003               	clrc
  8061  0BF6  0DBA               	rlf	(___lwdiv@quotient),f
  8062  0BF7  0DBB               	rlf	(___lwdiv@quotient+1),f
  8063  0BF8  3EFF               	addlw	-1
  8064  0BF9  1D03               	skipz
  8065  0BFA  2BF5               	goto	u3615
  8066                           opt subtitle "HI-TECH Software Omniscient Code Generator (Lite mode) build 49521"
  8067  0BFB  0835               	movf	(___lwdiv@divisor+1),w
  8068  0BFC  0237               	subwf	(___lwdiv@dividend+1),w
  8069  0BFD  1D03               	skipz
  8070  0BFE  2C01               	goto	u3625
  8071  0BFF  0834               	movf	(___lwdiv@divisor),w
  8072  0C00  0236               	subwf	(___lwdiv@dividend),w
  8073  0C01                     u3625:
  8074  0C01  1C03               	skipc
  8075  0C02  2C04               	goto	u3621
  8076  0C03  2C05               	goto	u3620
  8077  0C04                     u3621:
  8078  0C04  2C0D               	goto	l4056
  8079  0C05                     u3620:
  8080                           opt subtitle "HI-TECH Software Omniscient Code Generator (Lite mode) build 49521"
  8081                           
  8082  0C05                     l4052:	
  8083  0C05  0834               	movf	(___lwdiv@divisor),w
  8084  0C06  02B6               	subwf	(___lwdiv@dividend),f
  8085  0C07  0835               	movf	(___lwdiv@divisor+1),w
  8086  0C08  1C03               	skipc
  8087  0C09  03B7               	decf	(___lwdiv@dividend+1),f
  8088  0C0A  02B7               	subwf	(___lwdiv@dividend+1),f
  8089                           opt subtitle "HI-TECH Software Omniscient Code Generator (Lite mode) build 49521"
  8090                           
  8091  0C0B                     l4054:	
  8092  0C0B  143A               	bsf	(___lwdiv@quotient)+(0/8),(0)&7
  8093  0C0C  2C0D               	goto	l4056
  8094                           opt subtitle "HI-TECH Software Omniscient Code Generator (Lite mode) build 49521"
  8095                           
  8096  0C0D                     l449:	
  8097                           opt subtitle "HI-TECH Software Omniscient Code Generator (Lite mode) build 49521"
  8098                           
  8099  0C0D                     l4056:	
  8100  0C0D  3001               	movlw	01h
  8101                           opt subtitle "HI-TECH Software Omniscient Code Generator (Lite mode) build 49521"
  8102  0C0E                     u3635:
  8103  0C0E  1003               	clrc
  8104  0C0F  0CB5               	rrf	(___lwdiv@divisor+1),f
  8105  0C10  0CB4               	rrf	(___lwdiv@divisor),f
  8106  0C11  3EFF               	addlw	-1
  8107  0C12  1D03               	skipz
  8108  0C13  2C0E               	goto	u3635
  8109                           opt subtitle "HI-TECH Software Omniscient Code Generator (Lite mode) build 49521"
  8110                           
  8111  0C14                     l4058:	
  8112  0C14  3001               	movlw	low(01h)
  8113  0C15  02B9               	subwf	(___lwdiv@counter),f
  8114  0C16  1D03               	btfss	status,2
  8115  0C17  2C19               	goto	u3641
  8116  0C18  2C1A               	goto	u3640
  8117  0C19                     u3641:
  8118  0C19  2BF4               	goto	l4050
  8119  0C1A                     u3640:
  8120  0C1A  2C1C               	goto	l4060
  8121                           opt subtitle "HI-TECH Software Omniscient Code Generator (Lite mode) build 49521"
  8122  0C1B                     l450:	
  8123  0C1B  2C1C               	goto	l4060
  8124                           opt subtitle "HI-TECH Software Omniscient Code Generator (Lite mode) build 49521"
  8125                           
  8126  0C1C                     l444:	
  8127                           opt subtitle "HI-TECH Software Omniscient Code Generator (Lite mode) build 49521"
  8128                           
  8129  0C1C                     l4060:	
  8130  0C1C  083B               	movf	(___lwdiv@quotient+1),w
  8131  0C1D  01B5               	clrf	(?___lwdiv+1)
  8132  0C1E  07B5               	addwf	(?___lwdiv+1)
  8133  0C1F  083A               	movf	(___lwdiv@quotient),w
  8134  0C20  01B4               	clrf	(?___lwdiv)
  8135  0C21  07B4               	addwf	(?___lwdiv)
  8136                           opt subtitle "HI-TECH Software Omniscient Code Generator (Lite mode) build 49521"
  8137  0C22  2C23               	goto	l451
  8138                           opt subtitle "HI-TECH Software Omniscient Code Generator (Lite mode) build 49521"
  8139  0C23                     l4062:	
  8140                           opt subtitle "HI-TECH Software Omniscient Code Generator (Lite mode) build 49521"
  8141                           
  8142  0C23                     l451:	
  8143  0C23  0008               	return
  8144                           opt subtitle "HI-TECH Software Omniscient Code Generator (Lite mode) build 49521"
  8145                           
  8146  0C24                     	__end_of___lwdiv:
  8147                           opt subtitle "HI-TECH Software Omniscient Code Generator (Lite mode) build 49521"
  8148                           
  8149                           opt pagewidth 120
  8150                           
  8151                           	opt lm
  8152                           
  8153                           	processor	16LF707
  8154                           clrc	macro
  8155                           	bcf	3,0
  8156                           	endm
  8157                           clrz	macro
  8158                           	bcf	3,2
  8159                           	endm
  8160                           setc	macro
  8161                           	bsf	3,0
  8162                           	endm
  8163                           setz	macro
  8164                           	bsf	3,2
  8165                           	endm
  8166                           skipc	macro
  8167                           	btfss	3,0
  8168                           	endm
  8169                           skipz	macro
  8170                           	btfss	3,2
  8171                           	endm
  8172                           skipnc	macro
  8173                           	btfsc	3,0
  8174                           	endm
  8175                           skipnz	macro
  8176                           	btfsc	3,2
  8177                           	endm
  8178                           indf	equ	0
  8179                           indf0	equ	0
  8180                           pc	equ	2
  8181                           pcl	equ	2
  8182  0B43                     __ptext1054:	;psect for function ___lwmod
  8183                           opt subtitle "HI-TECH Software Omniscient Code Generator (Lite mode) build 49521"
  8184                           
  8185                           opt pagewidth 120
  8186                           
  8187  0045                     	__size_of___lwmod	equ	__end_of___lwmod-___lwmod
  8188                           opt subtitle "HI-TECH Software Omniscient Code Generator (Lite mode) build 49521"
  8189  0B43                     ___lwmod:	
  8190                           opt subtitle "HI-TECH Software Omniscient Code Generator (Lite mode) build 49521"
  8191                           
  8192                           opt pagewidth 120
  8193                           
  8194  0B43                     l4064:	
  8195  0B43  1283               	bcf	status, 5	;RP0=0, select bank0
  8196  0B44  1303               	bcf	status, 6	;RP1=0, select bank0
  8197  0B45  083D               	movf	(___lwmod@divisor+1),w
  8198  0B46  043C               	iorwf	(___lwmod@divisor),w
  8199  0B47  1903               	skipnz
  8200  0B48  2B4A               	goto	u3651
  8201  0B49  2B4B               	goto	u3650
  8202  0B4A                     u3651:
  8203  0B4A  2B80               	goto	l4082
  8204  0B4B                     u3650:
  8205                           opt subtitle "HI-TECH Software Omniscient Code Generator (Lite mode) build 49521"
  8206                           
  8207  0B4B                     l4066:	
  8208  0B4B  01C1               	clrf	(___lwmod@counter)
  8209  0B4C  0AC1               	incf	(___lwmod@counter),f
  8210                           opt subtitle "HI-TECH Software Omniscient Code Generator (Lite mode) build 49521"
  8211  0B4D  2B5A               	goto	l4072
  8212                           opt subtitle "HI-TECH Software Omniscient Code Generator (Lite mode) build 49521"
  8213  0B4E                     l456:	
  8214                           opt subtitle "HI-TECH Software Omniscient Code Generator (Lite mode) build 49521"
  8215                           
  8216  0B4E                     l4068:	
  8217  0B4E  3001               	movlw	01h
  8218                           opt subtitle "HI-TECH Software Omniscient Code Generator (Lite mode) build 49521"
  8219  0B4F                     u3665:
  8220  0B4F  1003               	clrc
  8221  0B50  0DBC               	rlf	(___lwmod@divisor),f
  8222  0B51  0DBD               	rlf	(___lwmod@divisor+1),f
  8223  0B52  3EFF               	addlw	-1
  8224  0B53  1D03               	skipz
  8225  0B54  2B4F               	goto	u3665
  8226                           opt subtitle "HI-TECH Software Omniscient Code Generator (Lite mode) build 49521"
  8227                           
  8228  0B55                     l4070:	
  8229  0B55  3001               	movlw	(01h)
  8230  0B56  00C0               	movwf	(??___lwmod+0)+0
  8231  0B57  0840               	movf	(??___lwmod+0)+0,w
  8232  0B58  07C1               	addwf	(___lwmod@counter),f
  8233  0B59  2B5A               	goto	l4072
  8234                           opt subtitle "HI-TECH Software Omniscient Code Generator (Lite mode) build 49521"
  8235                           
  8236  0B5A                     l455:	
  8237                           opt subtitle "HI-TECH Software Omniscient Code Generator (Lite mode) build 49521"
  8238                           
  8239  0B5A                     l4072:	
  8240  0B5A  1FBD               	btfss	(___lwmod@divisor+1),(15)&7
  8241  0B5B  2B5D               	goto	u3671
  8242  0B5C  2B5E               	goto	u3670
  8243  0B5D                     u3671:
  8244  0B5D  2B4E               	goto	l4068
  8245  0B5E                     u3670:
  8246  0B5E  2B60               	goto	l4074
  8247                           opt subtitle "HI-TECH Software Omniscient Code Generator (Lite mode) build 49521"
  8248  0B5F                     l457:	
  8249  0B5F  2B60               	goto	l4074
  8250                           opt subtitle "HI-TECH Software Omniscient Code Generator (Lite mode) build 49521"
  8251                           
  8252  0B60                     l458:	
  8253                           opt subtitle "HI-TECH Software Omniscient Code Generator (Lite mode) build 49521"
  8254                           
  8255  0B60                     l4074:	
  8256  0B60  083D               	movf	(___lwmod@divisor+1),w
  8257  0B61  023F               	subwf	(___lwmod@dividend+1),w
  8258  0B62  1D03               	skipz
  8259  0B63  2B66               	goto	u3685
  8260  0B64  083C               	movf	(___lwmod@divisor),w
  8261  0B65  023E               	subwf	(___lwmod@dividend),w
  8262  0B66                     u3685:
  8263  0B66  1C03               	skipc
  8264  0B67  2B69               	goto	u3681
  8265  0B68  2B6A               	goto	u3680
  8266  0B69                     u3681:
  8267  0B69  2B71               	goto	l4078
  8268  0B6A                     u3680:
  8269                           opt subtitle "HI-TECH Software Omniscient Code Generator (Lite mode) build 49521"
  8270                           
  8271  0B6A                     l4076:	
  8272  0B6A  083C               	movf	(___lwmod@divisor),w
  8273  0B6B  02BE               	subwf	(___lwmod@dividend),f
  8274  0B6C  083D               	movf	(___lwmod@divisor+1),w
  8275  0B6D  1C03               	skipc
  8276  0B6E  03BF               	decf	(___lwmod@dividend+1),f
  8277  0B6F  02BF               	subwf	(___lwmod@dividend+1),f
  8278  0B70  2B71               	goto	l4078
  8279                           opt subtitle "HI-TECH Software Omniscient Code Generator (Lite mode) build 49521"
  8280  0B71                     l459:	
  8281                           opt subtitle "HI-TECH Software Omniscient Code Generator (Lite mode) build 49521"
  8282                           
  8283  0B71                     l4078:	
  8284  0B71  3001               	movlw	01h
  8285                           opt subtitle "HI-TECH Software Omniscient Code Generator (Lite mode) build 49521"
  8286  0B72                     u3695:
  8287  0B72  1003               	clrc
  8288  0B73  0CBD               	rrf	(___lwmod@divisor+1),f
  8289  0B74  0CBC               	rrf	(___lwmod@divisor),f
  8290  0B75  3EFF               	addlw	-1
  8291  0B76  1D03               	skipz
  8292  0B77  2B72               	goto	u3695
  8293                           opt subtitle "HI-TECH Software Omniscient Code Generator (Lite mode) build 49521"
  8294                           
  8295  0B78                     l4080:	
  8296  0B78  3001               	movlw	low(01h)
  8297  0B79  02C1               	subwf	(___lwmod@counter),f
  8298  0B7A  1D03               	btfss	status,2
  8299  0B7B  2B7D               	goto	u3701
  8300  0B7C  2B7E               	goto	u3700
  8301  0B7D                     u3701:
  8302  0B7D  2B60               	goto	l4074
  8303  0B7E                     u3700:
  8304  0B7E  2B80               	goto	l4082
  8305                           opt subtitle "HI-TECH Software Omniscient Code Generator (Lite mode) build 49521"
  8306  0B7F                     l460:	
  8307  0B7F  2B80               	goto	l4082
  8308                           opt subtitle "HI-TECH Software Omniscient Code Generator (Lite mode) build 49521"
  8309                           
  8310  0B80                     l454:	
  8311                           opt subtitle "HI-TECH Software Omniscient Code Generator (Lite mode) build 49521"
  8312                           
  8313  0B80                     l4082:	
  8314  0B80  083F               	movf	(___lwmod@dividend+1),w
  8315  0B81  01BD               	clrf	(?___lwmod+1)
  8316  0B82  07BD               	addwf	(?___lwmod+1)
  8317  0B83  083E               	movf	(___lwmod@dividend),w
  8318  0B84  01BC               	clrf	(?___lwmod)
  8319  0B85  07BC               	addwf	(?___lwmod)
  8320                           opt subtitle "HI-TECH Software Omniscient Code Generator (Lite mode) build 49521"
  8321  0B86  2B87               	goto	l461
  8322                           opt subtitle "HI-TECH Software Omniscient Code Generator (Lite mode) build 49521"
  8323  0B87                     l4084:	
  8324                           opt subtitle "HI-TECH Software Omniscient Code Generator (Lite mode) build 49521"
  8325                           
  8326  0B87                     l461:	
  8327  0B87  0008               	return
  8328                           opt subtitle "HI-TECH Software Omniscient Code Generator (Lite mode) build 49521"
  8329                           
  8330  0B88                     	__end_of___lwmod:
  8331                           opt subtitle "HI-TECH Software Omniscient Code Generator (Lite mode) build 49521"
  8332                           
  8333                           opt pagewidth 120
  8334                           
  8335                           	opt lm
  8336                           
  8337                           	processor	16LF707
  8338                           clrc	macro
  8339                           	bcf	3,0
  8340                           	endm
  8341                           clrz	macro
  8342                           	bcf	3,2
  8343                           	endm
  8344                           setc	macro
  8345                           	bsf	3,0
  8346                           	endm
  8347                           setz	macro
  8348                           	bsf	3,2
  8349                           	endm
  8350                           skipc	macro
  8351                           	btfss	3,0
  8352                           	endm
  8353                           skipz	macro
  8354                           	btfss	3,2
  8355                           	endm
  8356                           skipnc	macro
  8357                           	btfsc	3,0
  8358                           	endm
  8359                           skipnz	macro
  8360                           	btfsc	3,2
  8361                           	endm
  8362                           indf	equ	0
  8363                           indf0	equ	0
  8364                           pc	equ	2
  8365  0C24                     __ptext1055:	;psect for function _ISR
  8366                           opt subtitle "HI-TECH Software Omniscient Code Generator (Lite mode) build 49521"
  8367                           
  8368                           opt pagewidth 120
  8369                           
  8370  0078                     	__size_of_ISR	equ	__end_of_ISR-_ISR
  8371                           opt subtitle "HI-TECH Software Omniscient Code Generator (Lite mode) build 49521"
  8372  0C24                     _ISR:	
  8373                           opt subtitle "HI-TECH Software Omniscient Code Generator (Lite mode) build 49521"
  8374                           
  8375                           opt pagewidth 120
  8376                           
  8377  0004                     __pintentry:
  8378                           opt subtitle "HI-TECH Software Omniscient Code Generator (Lite mode) build 49521"
  8379  0004                     interrupt_function:
  8380                           opt subtitle "HI-TECH Software Omniscient Code Generator (Lite mode) build 49521"
  8381  007E                     	saved_w	set	btemp+0
  8382  0004  00FE               	movwf	saved_w
  8383  0005  0E03               	swapf	status,w
  8384  0006  1283               	bcf	status, 5	;RP0=0, select bank0
  8385  0007  1303               	bcf	status, 6	;RP1=0, select bank0
  8386  0008  00B0               	movwf	(??_ISR+2)
  8387  0009  0804               	movf	fsr0,w
  8388  000A  00B1               	movwf	(??_ISR+3)
  8389  000B  080A               	movf	pclath,w
  8390  000C  00B2               	movwf	(??_ISR+4)
  8391  000D  087F               	movf	btemp+1,w
  8392  000E  00B3               	movwf	(??_ISR+5)
  8393  000F  120A  158A  2C24   	ljmp	_ISR
  8394                           opt subtitle "HI-TECH Software Omniscient Code Generator (Lite mode) build 49521"
  8395                           
  8396                           opt pagewidth 120
  8397  0C24                     i1l3258:	
  8398                           opt subtitle "HI-TECH Software Omniscient Code Generator (Lite mode) build 49521"
  8399  0C24  1C0C               	btfss	(96/8),(96)&7	;volatile
  8400  0C25  2C27               	goto	u281_21
  8401  0C26  2C28               	goto	u281_20
  8402  0C27                     u281_21:
  8403  0C27  2C91               	goto	i1l163
  8404  0C28                     u281_20:
  8405                           opt subtitle "HI-TECH Software Omniscient Code Generator (Lite mode) build 49521"
  8406                           
  8407  0C28                     i1l3260:	
  8408                           opt subtitle "HI-TECH Software Omniscient Code Generator (Lite mode) build 49521"
  8409                           
  8410  0C28  3001               	movlw	(01h)
  8411  0C29  00AE               	movwf	(??_ISR+0)+0
  8412  0C2A  082E               	movf	(??_ISR+0)+0,w
  8413  0C2B  07DA               	addwf	(_tmr1Counter),f
  8414                           opt subtitle "HI-TECH Software Omniscient Code Generator (Lite mode) build 49521"
  8415                           
  8416  0C2C                     i1l3262:	
  8417                           opt subtitle "HI-TECH Software Omniscient Code Generator (Lite mode) build 49521"
  8418  0C2C  3010               	movlw	(010h)
  8419  0C2D  008F               	movwf	(15)	;volatile
  8420                           opt subtitle "HI-TECH Software Omniscient Code Generator (Lite mode) build 49521"
  8421                           
  8422  0C2E                     i1l3264:	
  8423                           opt subtitle "HI-TECH Software Omniscient Code Generator (Lite mode) build 49521"
  8424  0C2E  018E               	clrf	(14)	;volatile
  8425                           opt subtitle "HI-TECH Software Omniscient Code Generator (Lite mode) build 49521"
  8426                           
  8427  0C2F                     i1l3266:	
  8428                           opt subtitle "HI-TECH Software Omniscient Code Generator (Lite mode) build 49521"
  8429  0C2F  085A               	movf	(_tmr1Counter),w
  8430  0C30  0656               	xorwf	(_tmr1Target),w
  8431  0C31  1D03               	skipz
  8432  0C32  2C34               	goto	u282_21
  8433  0C33  2C35               	goto	u282_20
  8434  0C34                     u282_21:
  8435  0C34  2C8F               	goto	i1l156
  8436  0C35                     u282_20:
  8437                           opt subtitle "HI-TECH Software Omniscient Code Generator (Lite mode) build 49521"
  8438                           
  8439  0C35                     i1l3268:	
  8440                           opt subtitle "HI-TECH Software Omniscient Code Generator (Lite mode) build 49521"
  8441  0C35  303A               	movlw	low(STR_1|8000h)
  8442  0C36  00A0               	movwf	(?i1_printf)
  8443  0C37  3091               	movlw	high(STR_1|8000h)
  8444  0C38  00A1               	movwf	((?i1_printf))+1
  8445  0C39  120A  118A  260F   	fcall	i1_printf
              120A  158A         
  8446                           opt subtitle "HI-TECH Software Omniscient Code Generator (Lite mode) build 49521"
  8447                           
  8448  0C3E                     i1l3270:	
  8449                           opt subtitle "HI-TECH Software Omniscient Code Generator (Lite mode) build 49521"
  8450  0C3E  1283               	bcf	status, 5	;RP0=0, select bank0
  8451  0C3F  1303               	bcf	status, 6	;RP1=0, select bank0
  8452  0C40  0808               	movf	(8),w	;volatile
  8453  0C41  00AE               	movwf	(??_ISR+0)+0
  8454  0C42  3005               	movlw	05h
  8455  0C43                     u283_25:
  8456  0C43  1003               	clrc
  8457  0C44  0CAE               	rrf	(??_ISR+0)+0,f
  8458  0C45  3EFF               	addlw	-1
  8459  0C46  1D03               	skipz
  8460  0C47  2C43               	goto	u283_25
  8461  0C48  082E               	movf	0+(??_ISR+0)+0,w
  8462  0C49  3907               	andlw	07h
  8463  0C4A  00AF               	movwf	(??_ISR+1)+0
  8464  0C4B  082F               	movf	(??_ISR+1)+0,w
  8465  0C4C  1683               	bsf	status, 5	;RP0=1, select bank1
  8466  0C4D  1303               	bcf	status, 6	;RP1=0, select bank1
  8467  0C4E  00E1               	movwf	(_jumper_stat)^080h
  8468                           opt subtitle "HI-TECH Software Omniscient Code Generator (Lite mode) build 49521"
  8469                           
  8470  0C4F                     i1l3272:	
  8471                           opt subtitle "HI-TECH Software Omniscient Code Generator (Lite mode) build 49521"
  8472  0C4F  1283               	bcf	status, 5	;RP0=0, select bank0
  8473  0C50  1303               	bcf	status, 6	;RP1=0, select bank0
  8474  0C51  0808               	movf	(8),w	;volatile
  8475  0C52  00AE               	movwf	(??_ISR+0)+0
  8476  0C53  3006               	movlw	06h
  8477  0C54                     u284_25:
  8478  0C54  1003               	clrc
  8479  0C55  0CAE               	rrf	(??_ISR+0)+0,f
  8480  0C56  3EFF               	addlw	-1
  8481  0C57  1D03               	skipz
  8482  0C58  2C54               	goto	u284_25
  8483  0C59  082E               	movf	0+(??_ISR+0)+0,w
  8484  0C5A  3903               	andlw	03h
  8485  0C5B  00AF               	movwf	(??_ISR+1)+0
  8486  0C5C  082F               	movf	(??_ISR+1)+0,w
  8487  0C5D  00D9               	movwf	(_sleep_counter)
  8488                           opt subtitle "HI-TECH Software Omniscient Code Generator (Lite mode) build 49521"
  8489                           
  8490  0C5E  2C7D               	goto	i1l3282
  8491                           opt subtitle "HI-TECH Software Omniscient Code Generator (Lite mode) build 49521"
  8492                           
  8493                           opt pagewidth 120
  8494  0C5F                     i1l158:	
  8495                           opt subtitle "HI-TECH Software Omniscient Code Generator (Lite mode) build 49521"
  8496                           
  8497  0C5F  1683               	bsf	status, 5	;RP0=1, select bank1
  8498  0C60  1303               	bcf	status, 6	;RP1=0, select bank1
  8499  0C61  01E2               	clrf	(_sleep_count)^080h
  8500  0C62  0AE2               	incf	(_sleep_count)^080h,f
  8501                           opt subtitle "HI-TECH Software Omniscient Code Generator (Lite mode) build 49521"
  8502                           
  8503  0C63  2C8C               	goto	i1l159
  8504                           opt subtitle "HI-TECH Software Omniscient Code Generator (Lite mode) build 49521"
  8505                           
  8506                           opt pagewidth 120
  8507  0C64                     i1l160:	
  8508                           opt subtitle "HI-TECH Software Omniscient Code Generator (Lite mode) build 49521"
  8509                           
  8510  0C64                     i1l3274:	
  8511                           opt subtitle "HI-TECH Software Omniscient Code Generator (Lite mode) build 49521"
  8512  0C64  3014               	movlw	(014h)
  8513  0C65  1283               	bcf	status, 5	;RP0=0, select bank0
  8514  0C66  00AE               	movwf	(??_ISR+0)+0
  8515  0C67  082E               	movf	(??_ISR+0)+0,w
  8516  0C68  1683               	bsf	status, 5	;RP0=1, select bank1
  8517  0C69  1303               	bcf	status, 6	;RP1=0, select bank1
  8518  0C6A  00E2               	movwf	(_sleep_count)^080h
  8519                           opt subtitle "HI-TECH Software Omniscient Code Generator (Lite mode) build 49521"
  8520                           
  8521  0C6B  2C8C               	goto	i1l159
  8522                           opt subtitle "HI-TECH Software Omniscient Code Generator (Lite mode) build 49521"
  8523                           
  8524                           opt pagewidth 120
  8525  0C6C                     i1l161:	
  8526                           opt subtitle "HI-TECH Software Omniscient Code Generator (Lite mode) build 49521"
  8527                           
  8528  0C6C                     i1l3276:	
  8529                           opt subtitle "HI-TECH Software Omniscient Code Generator (Lite mode) build 49521"
  8530  0C6C  3028               	movlw	(028h)
  8531  0C6D  1283               	bcf	status, 5	;RP0=0, select bank0
  8532  0C6E  00AE               	movwf	(??_ISR+0)+0
  8533  0C6F  082E               	movf	(??_ISR+0)+0,w
  8534  0C70  1683               	bsf	status, 5	;RP0=1, select bank1
  8535  0C71  1303               	bcf	status, 6	;RP1=0, select bank1
  8536  0C72  00E2               	movwf	(_sleep_count)^080h
  8537                           opt subtitle "HI-TECH Software Omniscient Code Generator (Lite mode) build 49521"
  8538                           
  8539  0C73  2C8C               	goto	i1l159
  8540                           opt subtitle "HI-TECH Software Omniscient Code Generator (Lite mode) build 49521"
  8541                           
  8542                           opt pagewidth 120
  8543  0C74                     i1l162:	
  8544                           opt subtitle "HI-TECH Software Omniscient Code Generator (Lite mode) build 49521"
  8545                           
  8546  0C74                     i1l3278:	
  8547                           opt subtitle "HI-TECH Software Omniscient Code Generator (Lite mode) build 49521"
  8548  0C74  3078               	movlw	(078h)
  8549  0C75  1283               	bcf	status, 5	;RP0=0, select bank0
  8550  0C76  00AE               	movwf	(??_ISR+0)+0
  8551  0C77  082E               	movf	(??_ISR+0)+0,w
  8552  0C78  1683               	bsf	status, 5	;RP0=1, select bank1
  8553  0C79  1303               	bcf	status, 6	;RP1=0, select bank1
  8554  0C7A  00E2               	movwf	(_sleep_count)^080h
  8555                           opt subtitle "HI-TECH Software Omniscient Code Generator (Lite mode) build 49521"
  8556                           
  8557  0C7B  2C8C               	goto	i1l159
  8558                           opt subtitle "HI-TECH Software Omniscient Code Generator (Lite mode) build 49521"
  8559                           
  8560  0C7C                     i1l3280:	
  8561                           opt subtitle "HI-TECH Software Omniscient Code Generator (Lite mode) build 49521"
  8562  0C7C  2C8C               	goto	i1l159
  8563                           opt subtitle "HI-TECH Software Omniscient Code Generator (Lite mode) build 49521"
  8564                           
  8565  0C7D                     i1l157:	
  8566                           opt subtitle "HI-TECH Software Omniscient Code Generator (Lite mode) build 49521"
  8567  0C7D                     i1l3282:	
  8568  0C7D  1283               	bcf	status, 5	;RP0=0, select bank0
  8569  0C7E  0859               	movf	(_sleep_counter),w
  8570                           opt subtitle "HI-TECH Software Omniscient Code Generator (Lite mode) build 49521"
  8571                           
  8572                           opt pagewidth 120
  8573                           
  8574                           	opt lm
  8575                           
  8576                           	processor	16LF707
  8577                           clrc	macro
  8578                           	bcf	3,0
  8579                           	endm
  8580                           clrz	macro
  8581                           	bcf	3,2
  8582                           	endm
  8583  0C7F  3A00               	xorlw	0^0	; case 0
  8584  0C80  1903               	skipnz
  8585  0C81  2C5F               	goto	i1l158
  8586  0C82  3A01               	xorlw	1^0	; case 1
  8587  0C83  1903               	skipnz
  8588  0C84  2C64               	goto	i1l3274
  8589  0C85  3A03               	xorlw	2^1	; case 2
  8590  0C86  1903               	skipnz
  8591  0C87  2C6C               	goto	i1l3276
  8592  0C88  3A01               	xorlw	3^2	; case 3
  8593  0C89  1903               	skipnz
  8594  0C8A  2C74               	goto	i1l3278
  8595  0C8B  2C8C               	goto	i1l159
  8596                           opt subtitle "HI-TECH Software Omniscient Code Generator (Lite mode) build 49521"
  8597                           
  8598                           opt pagewidth 120
  8599                           
  8600  0C8C                     i1l159:	
  8601                           opt subtitle "HI-TECH Software Omniscient Code Generator (Lite mode) build 49521"
  8602                           
  8603  0C8C  1283               	bcf	status, 5	;RP0=0, select bank0
  8604  0C8D  01DA               	clrf	(_tmr1Counter)
  8605                           opt subtitle "HI-TECH Software Omniscient Code Generator (Lite mode) build 49521"
  8606                           
  8607  0C8E  145B               	bsf	(_flag/8),(_flag)&7
  8608                           opt subtitle "HI-TECH Software Omniscient Code Generator (Lite mode) build 49521"
  8609                           
  8610  0C8F                     i1l156:	
  8611                           opt subtitle "HI-TECH Software Omniscient Code Generator (Lite mode) build 49521"
  8612                           
  8613                           opt pagewidth 120
  8614  0C8F  100C               	bcf	(96/8),(96)&7	;volatile
  8615  0C90  2C91               	goto	i1l163
  8616                           opt subtitle "HI-TECH Software Omniscient Code Generator (Lite mode) build 49521"
  8617                           
  8618  0C91                     i1l155:	
  8619                           opt subtitle "HI-TECH Software Omniscient Code Generator (Lite mode) build 49521"
  8620                           
  8621  0C91                     i1l163:	
  8622  0C91  0833               	movf	(??_ISR+5),w
  8623  0C92  00FF               	movwf	btemp+1
  8624  0C93  0832               	movf	(??_ISR+4),w
  8625  0C94  008A               	movwf	pclath
  8626  0C95  0831               	movf	(??_ISR+3),w
  8627  0C96  0084               	movwf	fsr0
  8628  0C97  0E30               	swapf	(??_ISR+2)^00h,w
  8629  0C98  0083               	movwf	status
  8630  0C99  0EFE               	swapf	saved_w,f
  8631  0C9A  0E7E               	swapf	saved_w,w
  8632  0C9B  0009               	retfie
  8633                           opt subtitle "HI-TECH Software Omniscient Code Generator (Lite mode) build 49521"
  8634                           
  8635  0C9C                     	__end_of_ISR:
  8636                           opt subtitle "HI-TECH Software Omniscient Code Generator (Lite mode) build 49521"
  8637                           
  8638                           opt pagewidth 120
  8639                           
  8640                           	opt lm
  8641                           
  8642                           	processor	16LF707
  8643                           clrc	macro
  8644                           	bcf	3,0
  8645                           	endm
  8646                           clrz	macro
  8647                           	bcf	3,2
  8648                           	endm
  8649                           setc	macro
  8650                           	bsf	3,0
  8651                           	endm
  8652                           setz	macro
  8653                           	bsf	3,2
  8654                           	endm
  8655                           skipc	macro
  8656                           	btfss	3,0
  8657                           	endm
  8658                           skipz	macro
  8659                           	btfss	3,2
  8660                           	endm
  8661                           skipnc	macro
  8662                           	btfsc	3,0
  8663                           	endm
  8664                           skipnz	macro
  8665                           	btfsc	3,2
  8666                           	endm
  8667                           indf	equ	0
  8668                           indf0	equ	0
  8669                           pc	equ	2
  8670                           pcl	equ	2
  8671                           status	equ	3
  8672                           fsr	equ	4
  8673                           fsr0	equ	4
  8674                           c	equ	1
  8675                           z	equ	0
  8676                           pclath	equ	10
  8677                           # 46 "/Applications/microchip/xc8/v1.12/include/pic16lf707.h"
  8678                           INDF equ 00h ;# 
  8679                           # 52 "/Applications/microchip/xc8/v1.12/include/pic16lf707.h"
  8680                           TMR0 equ 01h ;# 
  8681                           # 58 "/Applications/microchip/xc8/v1.12/include/pic16lf707.h"
  8682  060F                     __ptext1056:	;psect for function i1_printf
  8683                           opt subtitle "HI-TECH Software Omniscient Code Generator (Lite mode) build 49521"
  8684                           
  8685                           opt pagewidth 120
  8686                           
  8687  01AE                     	__size_ofi1_printf	equ	__end_ofi1_printf-i1_printf
  8688                           opt subtitle "HI-TECH Software Omniscient Code Generator (Lite mode) build 49521"
  8689  060F                     i1_printf:	
  8690                           opt subtitle "HI-TECH Software Omniscient Code Generator (Lite mode) build 49521"
  8691                           
  8692                           opt pagewidth 120
  8693                           
  8694  060F                     i1l3182:	
  8695                           opt subtitle "HI-TECH Software Omniscient Code Generator (Lite mode) build 49521"
  8696                           
  8697                           opt pagewidth 120
  8698                           
  8699                           	opt lm
  8700                           
  8701                           	processor	16LF707
  8702                           clrc	macro
  8703                           	bcf	3,0
  8704                           	endm
  8705                           clrz	macro
  8706                           	bcf	3,2
  8707  060F  3022               	movlw	(?i1_printf+02h)&0ffh
  8708  0610  1283               	bcf	status, 5	;RP0=0, select bank0
  8709  0611  1303               	bcf	status, 6	;RP1=0, select bank0
  8710  0612  00A2               	movwf	(??i1_printf+0)+0
  8711  0613  0822               	movf	(??i1_printf+0)+0,w
  8712  0614  00A6               	movwf	(i1printf@ap)
  8713                           opt subtitle "HI-TECH Software Omniscient Code Generator (Lite mode) build 49521"
  8714                           
  8715  0615  2F9F               	goto	i1l3256
  8716                           opt subtitle "HI-TECH Software Omniscient Code Generator (Lite mode) build 49521"
  8717  0616                     i1l396:	
  8718                           opt subtitle "HI-TECH Software Omniscient Code Generator (Lite mode) build 49521"
  8719                           
  8720  0616                     i1l3184:	
  8721                           opt subtitle "HI-TECH Software Omniscient Code Generator (Lite mode) build 49521"
  8722  0616  082D               	movf	(i1printf@c),w
  8723  0617  3A25               	xorlw	025h
  8724  0618  1903               	skipnz
  8725  0619  2E1B               	goto	u269_21
  8726  061A  2E1C               	goto	u269_20
  8727  061B                     u269_21:
  8728  061B  2E23               	goto	i1l397
  8729  061C                     u269_20:
  8730                           opt subtitle "HI-TECH Software Omniscient Code Generator (Lite mode) build 49521"
  8731                           
  8732  061C                     i1l3186:	
  8733                           opt subtitle "HI-TECH Software Omniscient Code Generator (Lite mode) build 49521"
  8734                           
  8735  061C  082D               	movf	(i1printf@c),w
  8736  061D  120A  158A  2099   	fcall	i1_putch
              120A  118A         
  8737                           opt subtitle "HI-TECH Software Omniscient Code Generator (Lite mode) build 49521"
  8738                           
  8739  0622  2F9F               	goto	i1l3256
  8740                           opt subtitle "HI-TECH Software Omniscient Code Generator (Lite mode) build 49521"
  8741                           
  8742  0623                     i1l397:	
  8743                           opt subtitle "HI-TECH Software Omniscient Code Generator (Lite mode) build 49521"
  8744                           
  8745                           opt pagewidth 120
  8746  0623  01A8               	clrf	(i1printf@flag)
  8747                           opt subtitle "HI-TECH Software Omniscient Code Generator (Lite mode) build 49521"
  8748                           
  8749  0624  2E32               	goto	i1l3192
  8750                           opt subtitle "HI-TECH Software Omniscient Code Generator (Lite mode) build 49521"
  8751                           
  8752                           opt pagewidth 120
  8753  0625                     i1l399:	
  8754                           opt subtitle "HI-TECH Software Omniscient Code Generator (Lite mode) build 49521"
  8755                           
  8756  0625  2FBC               	goto	i1l429
  8757                           opt subtitle "HI-TECH Software Omniscient Code Generator (Lite mode) build 49521"
  8758                           
  8759                           opt pagewidth 120
  8760  0626                     i1l401:	
  8761  0626  2E56               	goto	i1l403
  8762                           opt subtitle "HI-TECH Software Omniscient Code Generator (Lite mode) build 49521"
  8763                           
  8764  0627                     i1l402:	
  8765                           opt subtitle "HI-TECH Software Omniscient Code Generator (Lite mode) build 49521"
  8766                           
  8767                           opt pagewidth 120
  8768  0627  2E56               	goto	i1l403
  8769                           opt subtitle "HI-TECH Software Omniscient Code Generator (Lite mode) build 49521"
  8770                           
  8771                           opt pagewidth 120
  8772  0628                     i1l404:	
  8773                           opt subtitle "HI-TECH Software Omniscient Code Generator (Lite mode) build 49521"
  8774                           
  8775  0628                     i1l405:	
  8776                           opt subtitle "HI-TECH Software Omniscient Code Generator (Lite mode) build 49521"
  8777                           
  8778                           opt pagewidth 120
  8779  0628  17A8               	bsf	(i1printf@flag)+(7/8),(7)&7
  8780                           opt subtitle "HI-TECH Software Omniscient Code Generator (Lite mode) build 49521"
  8781                           
  8782  0629  2E56               	goto	i1l403
  8783                           opt subtitle "HI-TECH Software Omniscient Code Generator (Lite mode) build 49521"
  8784                           
  8785                           opt pagewidth 120
  8786  062A                     i1l406:	
  8787                           opt subtitle "HI-TECH Software Omniscient Code Generator (Lite mode) build 49521"
  8788                           
  8789  062A                     i1l3188:	
  8790                           opt subtitle "HI-TECH Software Omniscient Code Generator (Lite mode) build 49521"
  8791  062A  082D               	movf	(i1printf@c),w
  8792  062B  120A  158A  2099   	fcall	i1_putch
              120A  118A         
  8793                           opt subtitle "HI-TECH Software Omniscient Code Generator (Lite mode) build 49521"
  8794                           
  8795  0630  2F9F               	goto	i1l3256
  8796                           opt subtitle "HI-TECH Software Omniscient Code Generator (Lite mode) build 49521"
  8797                           
  8798  0631                     i1l3190:	
  8799                           opt subtitle "HI-TECH Software Omniscient Code Generator (Lite mode) build 49521"
  8800  0631  2E56               	goto	i1l403
  8801                           opt subtitle "HI-TECH Software Omniscient Code Generator (Lite mode) build 49521"
  8802                           
  8803  0632                     i1l398:	
  8804                           opt subtitle "HI-TECH Software Omniscient Code Generator (Lite mode) build 49521"
  8805  0632                     i1l3192:	
  8806  0632  1283               	bcf	status, 5	;RP0=0, select bank0
  8807  0633  1303               	bcf	status, 6	;RP1=0, select bank0
  8808  0634  0821               	movf	(i1printf@f+1),w
  8809  0635  00A3               	movwf	(??i1_printf+0)+0+1
  8810  0636  0820               	movf	(i1printf@f),w
  8811  0637  00A2               	movwf	(??i1_printf+0)+0
  8812  0638  3001               	movlw	(01h)
  8813  0639  07A0               	addwf	(i1printf@f),f
  8814  063A  1803               	skipnc
  8815  063B  0AA1               	incf	(i1printf@f+1),f
  8816  063C  0823               	movf	1+(??i1_printf+0)+0,w
  8817  063D  00FF               	movwf	btemp+1
  8818  063E  0822               	movf	0+(??i1_printf+0)+0,w
  8819  063F  0084               	movwf	fsr0
  8820  0640  160A  118A  2000   	fcall	stringtab
              120A  118A         
  8821  0645  00AD               	movwf	(i1printf@c)
  8822                           opt subtitle "HI-TECH Software Omniscient Code Generator (Lite mode) build 49521"
  8823                           
  8824                           opt pagewidth 120
  8825                           
  8826                           	opt lm
  8827                           
  8828                           	processor	16LF707
  8829                           clrc	macro
  8830                           	bcf	3,0
  8831                           	endm
  8832                           clrz	macro
  8833                           	bcf	3,2
  8834  0646  3A00               	xorlw	0^0	; case 0
  8835  0647  1903               	skipnz
  8836  0648  2FBC               	goto	i1l429
  8837  0649  3A58               	xorlw	88^0	; case 88
  8838  064A  1903               	skipnz
  8839  064B  2E28               	goto	i1l405
  8840  064C  3A3C               	xorlw	100^88	; case 100
  8841  064D  1903               	skipnz
  8842  064E  2E56               	goto	i1l403
  8843  064F  3A0D               	xorlw	105^100	; case 105
  8844  0650  1903               	skipnz
  8845  0651  2E56               	goto	i1l403
  8846  0652  3A11               	xorlw	120^105	; case 120
  8847  0653  1903               	skipnz
  8848  0654  2E28               	goto	i1l405
  8849  0655  2E2A               	goto	i1l3188
  8850                           opt subtitle "HI-TECH Software Omniscient Code Generator (Lite mode) build 49521"
  8851                           
  8852                           opt pagewidth 120
  8853                           
  8854  0656                     i1l403:	
  8855                           opt subtitle "HI-TECH Software Omniscient Code Generator (Lite mode) build 49521"
  8856                           
  8857  0656  1283               	bcf	status, 5	;RP0=0, select bank0
  8858  0657  1303               	bcf	status, 6	;RP1=0, select bank0
  8859  0658  1BA8               	btfsc	(i1printf@flag),(7)&7
  8860  0659  2E5B               	goto	u270_21
  8861  065A  2E5C               	goto	u270_20
  8862  065B                     u270_21:
  8863  065B  2E77               	goto	i1l3204
  8864  065C                     u270_20:
  8865                           opt subtitle "HI-TECH Software Omniscient Code Generator (Lite mode) build 49521"
  8866                           
  8867  065C                     i1l3194:	
  8868                           opt subtitle "HI-TECH Software Omniscient Code Generator (Lite mode) build 49521"
  8869                           
  8870  065C  0826               	movf	(i1printf@ap),w
  8871  065D  0084               	movwf	fsr0
  8872  065E  1383               	bcf	status, 7	;select IRP bank0
  8873  065F  0800               	movf	indf,w
  8874  0660  00A9               	movwf	(i1printf@_val)
  8875  0661  0A84               	incf	fsr0,f
  8876  0662  0800               	movf	indf,w
  8877  0663  00AA               	movwf	(i1printf@_val+1)
  8878                           opt subtitle "HI-TECH Software Omniscient Code Generator (Lite mode) build 49521"
  8879  0664                     i1l3196:	
  8880  0664  3002               	movlw	(02h)
  8881  0665  00A2               	movwf	(??i1_printf+0)+0
  8882  0666  0822               	movf	(??i1_printf+0)+0,w
  8883  0667  07A6               	addwf	(i1printf@ap),f
  8884                           opt subtitle "HI-TECH Software Omniscient Code Generator (Lite mode) build 49521"
  8885                           
  8886  0668                     i1l3198:	
  8887                           opt subtitle "HI-TECH Software Omniscient Code Generator (Lite mode) build 49521"
  8888  0668  1FAA               	btfss	(i1printf@_val+1),7
  8889  0669  2E6B               	goto	u271_21
  8890  066A  2E6C               	goto	u271_20
  8891  066B                     u271_21:
  8892  066B  2EF4               	goto	i1l3234
  8893  066C                     u271_20:
  8894                           opt subtitle "HI-TECH Software Omniscient Code Generator (Lite mode) build 49521"
  8895                           
  8896  066C                     i1l3200:	
  8897                           opt subtitle "HI-TECH Software Omniscient Code Generator (Lite mode) build 49521"
  8898  066C  3003               	movlw	(03h)
  8899  066D  00A2               	movwf	(??i1_printf+0)+0
  8900  066E  0822               	movf	(??i1_printf+0)+0,w
  8901  066F  04A8               	iorwf	(i1printf@flag),f
  8902                           opt subtitle "HI-TECH Software Omniscient Code Generator (Lite mode) build 49521"
  8903                           
  8904  0670                     i1l3202:	
  8905                           opt subtitle "HI-TECH Software Omniscient Code Generator (Lite mode) build 49521"
  8906  0670  09A9               	comf	(i1printf@_val),f
  8907  0671  09AA               	comf	(i1printf@_val+1),f
  8908  0672  0AA9               	incf	(i1printf@_val),f
  8909  0673  1903               	skipnz
  8910  0674  0AAA               	incf	(i1printf@_val+1),f
  8911  0675  2EF4               	goto	i1l3234
  8912                           opt subtitle "HI-TECH Software Omniscient Code Generator (Lite mode) build 49521"
  8913                           
  8914  0676                     i1l408:	
  8915                           opt subtitle "HI-TECH Software Omniscient Code Generator (Lite mode) build 49521"
  8916                           
  8917                           opt pagewidth 120
  8918  0676  2EF4               	goto	i1l3234
  8919                           opt subtitle "HI-TECH Software Omniscient Code Generator (Lite mode) build 49521"
  8920                           
  8921  0677                     i1l407:	
  8922                           opt subtitle "HI-TECH Software Omniscient Code Generator (Lite mode) build 49521"
  8923                           
  8924  0677                     i1l3204:	
  8925                           opt subtitle "HI-TECH Software Omniscient Code Generator (Lite mode) build 49521"
  8926                           
  8927                           opt pagewidth 120
  8928  0677  0826               	movf	(i1printf@ap),w
  8929  0678  0084               	movwf	fsr0
  8930  0679  1383               	bcf	status, 7	;select IRP bank0
  8931  067A  0800               	movf	indf,w
  8932  067B  00A9               	movwf	(i1printf@_val)
  8933  067C  0A84               	incf	fsr0,f
  8934  067D  0800               	movf	indf,w
  8935  067E  00AA               	movwf	(i1printf@_val+1)
  8936                           opt subtitle "HI-TECH Software Omniscient Code Generator (Lite mode) build 49521"
  8937  067F                     i1l3206:	
  8938  067F  3002               	movlw	(02h)
  8939  0680  00A2               	movwf	(??i1_printf+0)+0
  8940  0681  0822               	movf	(??i1_printf+0)+0,w
  8941  0682  07A6               	addwf	(i1printf@ap),f
  8942  0683  2EF4               	goto	i1l3234
  8943                           opt subtitle "HI-TECH Software Omniscient Code Generator (Lite mode) build 49521"
  8944                           
  8945  0684                     i1l409:	
  8946                           opt subtitle "HI-TECH Software Omniscient Code Generator (Lite mode) build 49521"
  8947                           
  8948                           opt pagewidth 120
  8949  0684  2EF4               	goto	i1l3234
  8950                           opt subtitle "HI-TECH Software Omniscient Code Generator (Lite mode) build 49521"
  8951                           
  8952                           opt pagewidth 120
  8953  0685                     i1l411:	
  8954                           opt subtitle "HI-TECH Software Omniscient Code Generator (Lite mode) build 49521"
  8955                           
  8956  0685  01AD               	clrf	(i1printf@c)
  8957  0686  0AAD               	incf	(i1printf@c),f
  8958                           opt subtitle "HI-TECH Software Omniscient Code Generator (Lite mode) build 49521"
  8959  0687                     i1l3208:	
  8960  0687  082D               	movf	(i1printf@c),w
  8961  0688  3A05               	xorlw	05h
  8962  0689  1D03               	skipz
  8963  068A  2E8C               	goto	u272_21
  8964  068B  2E8D               	goto	u272_20
  8965  068C                     u272_21:
  8966  068C  2E8F               	goto	i1l3212
  8967  068D                     u272_20:
  8968  068D  2EFD               	goto	i1l3236
  8969                           opt subtitle "HI-TECH Software Omniscient Code Generator (Lite mode) build 49521"
  8970  068E                     i1l3210:	
  8971  068E  2EFD               	goto	i1l3236
  8972                           opt subtitle "HI-TECH Software Omniscient Code Generator (Lite mode) build 49521"
  8973                           
  8974  068F                     i1l412:	
  8975                           opt subtitle "HI-TECH Software Omniscient Code Generator (Lite mode) build 49521"
  8976  068F                     i1l3212:	
  8977                           opt subtitle "HI-TECH Software Omniscient Code Generator (Lite mode) build 49521"
  8978  068F  082D               	movf	(i1printf@c),w
  8979  0690  00A2               	movwf	(??i1_printf+0)+0
  8980  0691  0722               	addwf	(??i1_printf+0)+0,w
  8981  0692  3E83               	addlw	low(_dpowers|8000h)
  8982  0693  0084               	movwf	fsr0
  8983  0694  3090               	movlw	high(_dpowers|8000h)
  8984  0695  1803               	skipnc
  8985  0696  3E01               	addlw	1
  8986  0697  00FF               	movwf	btemp+1
  8987  0698  160A  118A  2000   	fcall	stringtab
              120A  118A         
  8988  069D  00A3               	movwf	(??i1_printf+1)+0
  8989  069E  160A  118A  2000   	fcall	stringtab
              120A  118A         
  8990  06A3  00A4               	movwf	(??i1_printf+1)+0+1
  8991  06A4  0824               	movf	1+(??i1_printf+1)+0,w
  8992  06A5  022A               	subwf	(i1printf@_val+1),w
  8993  06A6  1D03               	skipz
  8994  06A7  2EAA               	goto	u273_25
  8995  06A8  0823               	movf	0+(??i1_printf+1)+0,w
  8996  06A9  0229               	subwf	(i1printf@_val),w
  8997  06AA                     u273_25:
  8998  06AA  1803               	skipnc
  8999  06AB  2EAD               	goto	u273_21
  9000  06AC  2EAE               	goto	u273_20
  9001  06AD                     u273_21:
  9002  06AD  2EB0               	goto	i1l3216
  9003  06AE                     u273_20:
  9004  06AE  2EFD               	goto	i1l3236
  9005                           opt subtitle "HI-TECH Software Omniscient Code Generator (Lite mode) build 49521"
  9006                           
  9007  06AF                     i1l3214:	
  9008                           opt subtitle "HI-TECH Software Omniscient Code Generator (Lite mode) build 49521"
  9009  06AF  2EFD               	goto	i1l3236
  9010                           opt subtitle "HI-TECH Software Omniscient Code Generator (Lite mode) build 49521"
  9011  06B0                     i1l414:	
  9012                           opt subtitle "HI-TECH Software Omniscient Code Generator (Lite mode) build 49521"
  9013                           
  9014  06B0                     i1l3216:	
  9015  06B0  3001               	movlw	(01h)
  9016  06B1  00A2               	movwf	(??i1_printf+0)+0
  9017  06B2  0822               	movf	(??i1_printf+0)+0,w
  9018  06B3  07AD               	addwf	(i1printf@c),f
  9019                           opt subtitle "HI-TECH Software Omniscient Code Generator (Lite mode) build 49521"
  9020  06B4                     i1l3218:	
  9021  06B4  082D               	movf	(i1printf@c),w
  9022  06B5  3A05               	xorlw	05h
  9023  06B6  1D03               	skipz
  9024  06B7  2EB9               	goto	u274_21
  9025  06B8  2EBA               	goto	u274_20
  9026  06B9                     u274_21:
  9027  06B9  2E8F               	goto	i1l3212
  9028  06BA                     u274_20:
  9029  06BA  2EFD               	goto	i1l3236
  9030                           opt subtitle "HI-TECH Software Omniscient Code Generator (Lite mode) build 49521"
  9031  06BB                     i1l413:	
  9032                           opt subtitle "HI-TECH Software Omniscient Code Generator (Lite mode) build 49521"
  9033                           
  9034  06BB  2EFD               	goto	i1l3236
  9035                           opt subtitle "HI-TECH Software Omniscient Code Generator (Lite mode) build 49521"
  9036                           
  9037                           opt pagewidth 120
  9038  06BC                     i1l416:	
  9039                           opt subtitle "HI-TECH Software Omniscient Code Generator (Lite mode) build 49521"
  9040                           
  9041  06BC  01AD               	clrf	(i1printf@c)
  9042  06BD  0AAD               	incf	(i1printf@c),f
  9043                           opt subtitle "HI-TECH Software Omniscient Code Generator (Lite mode) build 49521"
  9044  06BE                     i1l3220:	
  9045  06BE  082D               	movf	(i1printf@c),w
  9046  06BF  3A04               	xorlw	04h
  9047  06C0  1D03               	skipz
  9048  06C1  2EC3               	goto	u275_21
  9049  06C2  2EC4               	goto	u275_20
  9050  06C3                     u275_21:
  9051  06C3  2EC6               	goto	i1l3224
  9052  06C4                     u275_20:
  9053  06C4  2EFD               	goto	i1l3236
  9054                           opt subtitle "HI-TECH Software Omniscient Code Generator (Lite mode) build 49521"
  9055  06C5                     i1l3222:	
  9056  06C5  2EFD               	goto	i1l3236
  9057                           opt subtitle "HI-TECH Software Omniscient Code Generator (Lite mode) build 49521"
  9058                           
  9059  06C6                     i1l417:	
  9060                           opt subtitle "HI-TECH Software Omniscient Code Generator (Lite mode) build 49521"
  9061  06C6                     i1l3224:	
  9062                           opt subtitle "HI-TECH Software Omniscient Code Generator (Lite mode) build 49521"
  9063  06C6  082D               	movf	(i1printf@c),w
  9064  06C7  00A2               	movwf	(??i1_printf+0)+0
  9065  06C8  0722               	addwf	(??i1_printf+0)+0,w
  9066  06C9  3E8D               	addlw	low(_hexpowers|8000h)
  9067  06CA  0084               	movwf	fsr0
  9068  06CB  3090               	movlw	high(_hexpowers|8000h)
  9069  06CC  1803               	skipnc
  9070  06CD  3E01               	addlw	1
  9071  06CE  00FF               	movwf	btemp+1
  9072  06CF  160A  118A  2000   	fcall	stringtab
              120A  118A         
  9073  06D4  00A3               	movwf	(??i1_printf+1)+0
  9074  06D5  160A  118A  2000   	fcall	stringtab
              120A  118A         
  9075  06DA  00A4               	movwf	(??i1_printf+1)+0+1
  9076  06DB  0824               	movf	1+(??i1_printf+1)+0,w
  9077  06DC  022A               	subwf	(i1printf@_val+1),w
  9078  06DD  1D03               	skipz
  9079  06DE  2EE1               	goto	u276_25
  9080  06DF  0823               	movf	0+(??i1_printf+1)+0,w
  9081  06E0  0229               	subwf	(i1printf@_val),w
  9082  06E1                     u276_25:
  9083  06E1  1803               	skipnc
  9084  06E2  2EE4               	goto	u276_21
  9085  06E3  2EE5               	goto	u276_20
  9086  06E4                     u276_21:
  9087  06E4  2EE7               	goto	i1l3228
  9088  06E5                     u276_20:
  9089  06E5  2EFD               	goto	i1l3236
  9090                           opt subtitle "HI-TECH Software Omniscient Code Generator (Lite mode) build 49521"
  9091                           
  9092  06E6                     i1l3226:	
  9093                           opt subtitle "HI-TECH Software Omniscient Code Generator (Lite mode) build 49521"
  9094  06E6  2EFD               	goto	i1l3236
  9095                           opt subtitle "HI-TECH Software Omniscient Code Generator (Lite mode) build 49521"
  9096  06E7                     i1l419:	
  9097                           opt subtitle "HI-TECH Software Omniscient Code Generator (Lite mode) build 49521"
  9098                           
  9099  06E7                     i1l3228:	
  9100  06E7  3001               	movlw	(01h)
  9101  06E8  00A2               	movwf	(??i1_printf+0)+0
  9102  06E9  0822               	movf	(??i1_printf+0)+0,w
  9103  06EA  07AD               	addwf	(i1printf@c),f
  9104                           opt subtitle "HI-TECH Software Omniscient Code Generator (Lite mode) build 49521"
  9105  06EB                     i1l3230:	
  9106  06EB  082D               	movf	(i1printf@c),w
  9107  06EC  3A04               	xorlw	04h
  9108  06ED  1D03               	skipz
  9109  06EE  2EF0               	goto	u277_21
  9110  06EF  2EF1               	goto	u277_20
  9111  06F0                     u277_21:
  9112  06F0  2EC6               	goto	i1l3224
  9113  06F1                     u277_20:
  9114  06F1  2EFD               	goto	i1l3236
  9115                           opt subtitle "HI-TECH Software Omniscient Code Generator (Lite mode) build 49521"
  9116  06F2                     i1l418:	
  9117                           opt subtitle "HI-TECH Software Omniscient Code Generator (Lite mode) build 49521"
  9118                           
  9119  06F2  2EFD               	goto	i1l3236
  9120                           opt subtitle "HI-TECH Software Omniscient Code Generator (Lite mode) build 49521"
  9121                           
  9122  06F3                     i1l3232:	
  9123                           opt subtitle "HI-TECH Software Omniscient Code Generator (Lite mode) build 49521"
  9124  06F3  2EFD               	goto	i1l3236
  9125                           opt subtitle "HI-TECH Software Omniscient Code Generator (Lite mode) build 49521"
  9126                           
  9127  06F4                     i1l410:	
  9128                           opt subtitle "HI-TECH Software Omniscient Code Generator (Lite mode) build 49521"
  9129  06F4                     i1l3234:	
  9130  06F4  0828               	movf	(i1printf@flag),w
  9131  06F5  3980               	andlw	080h
  9132                           opt subtitle "HI-TECH Software Omniscient Code Generator (Lite mode) build 49521"
  9133                           
  9134                           opt pagewidth 120
  9135                           
  9136                           	opt lm
  9137                           
  9138                           	processor	16LF707
  9139                           clrc	macro
  9140                           	bcf	3,0
  9141                           	endm
  9142                           clrz	macro
  9143                           	bcf	3,2
  9144  06F6  3A00               	xorlw	0^0	; case 0
  9145  06F7  1903               	skipnz
  9146  06F8  2E85               	goto	i1l411
  9147  06F9  3A80               	xorlw	128^0	; case 128
  9148  06FA  1903               	skipnz
  9149  06FB  2EBC               	goto	i1l416
  9150  06FC  2EFD               	goto	i1l3236
  9151                           opt subtitle "HI-TECH Software Omniscient Code Generator (Lite mode) build 49521"
  9152                           
  9153                           opt pagewidth 120
  9154                           
  9155  06FD                     i1l415:	
  9156                           opt subtitle "HI-TECH Software Omniscient Code Generator (Lite mode) build 49521"
  9157                           
  9158  06FD                     i1l3236:	
  9159                           opt subtitle "HI-TECH Software Omniscient Code Generator (Lite mode) build 49521"
  9160                           
  9161  06FD  0828               	movf	(i1printf@flag),w
  9162  06FE  3903               	andlw	03h
  9163  06FF  1903               	btfsc	status,2
  9164  0700  2F02               	goto	u278_21
  9165  0701  2F03               	goto	u278_20
  9166  0702                     u278_21:
  9167  0702  2F0A               	goto	i1l3240
  9168  0703                     u278_20:
  9169                           opt subtitle "HI-TECH Software Omniscient Code Generator (Lite mode) build 49521"
  9170                           
  9171  0703                     i1l3238:	
  9172                           opt subtitle "HI-TECH Software Omniscient Code Generator (Lite mode) build 49521"
  9173  0703  302D               	movlw	(02Dh)
  9174  0704  120A  158A  2099   	fcall	i1_putch
              120A  118A         
  9175  0709  2F0A               	goto	i1l3240
  9176                           opt subtitle "HI-TECH Software Omniscient Code Generator (Lite mode) build 49521"
  9177  070A                     i1l420:	
  9178                           opt subtitle "HI-TECH Software Omniscient Code Generator (Lite mode) build 49521"
  9179                           
  9180  070A                     i1l3240:	
  9181                           opt subtitle "HI-TECH Software Omniscient Code Generator (Lite mode) build 49521"
  9182                           
  9183  070A  1283               	bcf	status, 5	;RP0=0, select bank0
  9184  070B  1303               	bcf	status, 6	;RP1=0, select bank0
  9185  070C  082D               	movf	(i1printf@c),w
  9186  070D  00A2               	movwf	(??i1_printf+0)+0
  9187  070E  0822               	movf	(??i1_printf+0)+0,w
  9188  070F  00A7               	movwf	(i1printf@prec)
  9189                           opt subtitle "HI-TECH Software Omniscient Code Generator (Lite mode) build 49521"
  9190                           
  9191  0710  2F91               	goto	i1l3254
  9192                           opt subtitle "HI-TECH Software Omniscient Code Generator (Lite mode) build 49521"
  9193  0711                     i1l422:	
  9194                           opt subtitle "HI-TECH Software Omniscient Code Generator (Lite mode) build 49521"
  9195                           
  9196  0711  2F81               	goto	i1l3250
  9197                           opt subtitle "HI-TECH Software Omniscient Code Generator (Lite mode) build 49521"
  9198                           
  9199                           opt pagewidth 120
  9200                           
  9201  0712                     i1l424:	
  9202                           opt subtitle "HI-TECH Software Omniscient Code Generator (Lite mode) build 49521"
  9203                           
  9204  0712                     i1l3242:	
  9205                           opt subtitle "HI-TECH Software Omniscient Code Generator (Lite mode) build 49521"
  9206  0712  300A               	movlw	low(0Ah)
  9207  0713  00F8               	movwf	(?i1___lwmod)
  9208  0714  3000               	movlw	high(0Ah)
  9209  0715  00F9               	movwf	((?i1___lwmod))+1
  9210  0716  0827               	movf	(i1printf@prec),w
  9211  0717  00A2               	movwf	(??i1_printf+0)+0
  9212  0718  0722               	addwf	(??i1_printf+0)+0,w
  9213  0719  3E83               	addlw	low(_dpowers|8000h)
  9214  071A  0084               	movwf	fsr0
  9215  071B  3090               	movlw	high(_dpowers|8000h)
  9216  071C  1803               	skipnc
  9217  071D  3E01               	addlw	1
  9218  071E  00FF               	movwf	btemp+1
  9219  071F  160A  118A  2000   	fcall	stringtab
              120A  118A         
  9220  0724  00F0               	movwf	(?i1___lwdiv)
  9221  0725  160A  118A  2000   	fcall	stringtab
              120A  118A         
  9222  072A  00F1               	movwf	(?i1___lwdiv+1)
  9223  072B  082A               	movf	(i1printf@_val+1),w
  9224  072C  01F3               	clrf	1+(?i1___lwdiv)+02h
  9225  072D  07F3               	addwf	1+(?i1___lwdiv)+02h
  9226  072E  0829               	movf	(i1printf@_val),w
  9227  072F  01F2               	clrf	0+(?i1___lwdiv)+02h
  9228  0730  07F2               	addwf	0+(?i1___lwdiv)+02h
  9229                           opt subtitle "HI-TECH Software Omniscient Code Generator (Lite mode) build 49521"
  9230  0731  120A  158A  2388   	fcall	i1___lwdiv
              120A  118A         
  9231  0736  0871               	movf	(1+(?i1___lwdiv)),w
  9232  0737  01FB               	clrf	1+(?i1___lwmod)+02h
  9233  0738  07FB               	addwf	1+(?i1___lwmod)+02h
  9234  0739  0870               	movf	(0+(?i1___lwdiv)),w
  9235  073A  01FA               	clrf	0+(?i1___lwmod)+02h
  9236  073B  07FA               	addwf	0+(?i1___lwmod)+02h
  9237                           opt subtitle "HI-TECH Software Omniscient Code Generator (Lite mode) build 49521"
  9238  073C  120A  118A  27BD   	fcall	i1___lwmod
              120A  118A         
  9239  0741  0878               	movf	(0+(?i1___lwmod)),w
  9240  0742  3E30               	addlw	030h
  9241  0743  1283               	bcf	status, 5	;RP0=0, select bank0
  9242  0744  1303               	bcf	status, 6	;RP1=0, select bank0
  9243  0745  00A3               	movwf	(??i1_printf+1)+0
  9244  0746  0823               	movf	(??i1_printf+1)+0,w
  9245  0747  00AD               	movwf	(i1printf@c)
  9246                           opt subtitle "HI-TECH Software Omniscient Code Generator (Lite mode) build 49521"
  9247                           
  9248  0748  2F8A               	goto	i1l3252
  9249                           opt subtitle "HI-TECH Software Omniscient Code Generator (Lite mode) build 49521"
  9250                           
  9251                           opt pagewidth 120
  9252  0749                     i1l426:	
  9253                           opt subtitle "HI-TECH Software Omniscient Code Generator (Lite mode) build 49521"
  9254                           
  9255  0749                     i1l3244:	
  9256                           opt subtitle "HI-TECH Software Omniscient Code Generator (Lite mode) build 49521"
  9257                           
  9258  0749  0827               	movf	(i1printf@prec),w
  9259  074A  00A2               	movwf	(??i1_printf+0)+0
  9260  074B  0722               	addwf	(??i1_printf+0)+0,w
  9261  074C  3E8D               	addlw	low(_hexpowers|8000h)
  9262  074D  0084               	movwf	fsr0
  9263  074E  3090               	movlw	high(_hexpowers|8000h)
  9264  074F  1803               	skipnc
  9265  0750  3E01               	addlw	1
  9266  0751  00FF               	movwf	btemp+1
  9267  0752  160A  118A  2000   	fcall	stringtab
              120A  118A         
  9268  0757  00F0               	movwf	(?i1___lwdiv)
  9269  0758  160A  118A  2000   	fcall	stringtab
              120A  118A         
  9270  075D  00F1               	movwf	(?i1___lwdiv+1)
  9271  075E  082A               	movf	(i1printf@_val+1),w
  9272  075F  01F3               	clrf	1+(?i1___lwdiv)+02h
  9273  0760  07F3               	addwf	1+(?i1___lwdiv)+02h
  9274  0761  0829               	movf	(i1printf@_val),w
  9275  0762  01F2               	clrf	0+(?i1___lwdiv)+02h
  9276  0763  07F2               	addwf	0+(?i1___lwdiv)+02h
  9277                           opt subtitle "HI-TECH Software Omniscient Code Generator (Lite mode) build 49521"
  9278  0764  120A  158A  2388   	fcall	i1___lwdiv
              120A  118A         
  9279  0769  0870               	movf	(0+(?i1___lwdiv)),w
  9280  076A  390F               	andlw	0Fh
  9281  076B  1283               	bcf	status, 5	;RP0=0, select bank0
  9282  076C  1303               	bcf	status, 6	;RP1=0, select bank0
  9283  076D  00A3               	movwf	(??i1_printf+1)+0
  9284  076E  0823               	movf	(??i1_printf+1)+0,w
  9285  076F  00A5               	movwf	(i1printf@idx)
  9286                           opt subtitle "HI-TECH Software Omniscient Code Generator (Lite mode) build 49521"
  9287                           
  9288  0770                     i1l3246:	
  9289                           opt subtitle "HI-TECH Software Omniscient Code Generator (Lite mode) build 49521"
  9290  0770  0825               	movf	(i1printf@idx),w
  9291  0771  3E5F               	addlw	low(STR_16|8000h)
  9292  0772  0084               	movwf	fsr0
  9293  0773  3091               	movlw	high(STR_16|8000h)
  9294  0774  1803               	skipnc
  9295  0775  3E01               	addlw	1
  9296  0776  00FF               	movwf	btemp+1
  9297  0777  160A  118A  2000   	fcall	stringtab
              120A  118A         
  9298  077C  00A2               	movwf	(??i1_printf+0)+0
  9299  077D  0822               	movf	(??i1_printf+0)+0,w
  9300  077E  00AD               	movwf	(i1printf@c)
  9301                           opt subtitle "HI-TECH Software Omniscient Code Generator (Lite mode) build 49521"
  9302                           
  9303                           opt pagewidth 120
  9304  077F  2F8A               	goto	i1l3252
  9305                           opt subtitle "HI-TECH Software Omniscient Code Generator (Lite mode) build 49521"
  9306                           
  9307  0780                     i1l3248:	
  9308                           opt subtitle "HI-TECH Software Omniscient Code Generator (Lite mode) build 49521"
  9309  0780  2F8A               	goto	i1l3252
  9310                           opt subtitle "HI-TECH Software Omniscient Code Generator (Lite mode) build 49521"
  9311                           
  9312  0781                     i1l423:	
  9313                           opt subtitle "HI-TECH Software Omniscient Code Generator (Lite mode) build 49521"
  9314  0781                     i1l3250:	
  9315  0781  0828               	movf	(i1printf@flag),w
  9316  0782  3980               	andlw	080h
  9317                           opt subtitle "HI-TECH Software Omniscient Code Generator (Lite mode) build 49521"
  9318                           
  9319                           opt pagewidth 120
  9320                           
  9321                           	opt lm
  9322                           
  9323                           	processor	16LF707
  9324                           clrc	macro
  9325                           	bcf	3,0
  9326                           	endm
  9327                           clrz	macro
  9328                           	bcf	3,2
  9329  0783  3A00               	xorlw	0^0	; case 0
  9330  0784  1903               	skipnz
  9331  0785  2F12               	goto	i1l3242
  9332  0786  3A80               	xorlw	128^0	; case 128
  9333  0787  1903               	skipnz
  9334  0788  2F49               	goto	i1l3244
  9335  0789  2F8A               	goto	i1l3252
  9336                           opt subtitle "HI-TECH Software Omniscient Code Generator (Lite mode) build 49521"
  9337                           
  9338                           opt pagewidth 120
  9339                           
  9340  078A                     i1l425:	
  9341                           opt subtitle "HI-TECH Software Omniscient Code Generator (Lite mode) build 49521"
  9342                           
  9343  078A                     i1l3252:	
  9344                           opt subtitle "HI-TECH Software Omniscient Code Generator (Lite mode) build 49521"
  9345  078A  082D               	movf	(i1printf@c),w
  9346  078B  120A  158A  2099   	fcall	i1_putch
              120A  118A         
  9347  0790  2F91               	goto	i1l3254
  9348                           opt subtitle "HI-TECH Software Omniscient Code Generator (Lite mode) build 49521"
  9349                           
  9350  0791                     i1l421:	
  9351                           opt subtitle "HI-TECH Software Omniscient Code Generator (Lite mode) build 49521"
  9352                           
  9353  0791                     i1l3254:	
  9354  0791  30FF               	movlw	(-1)
  9355  0792  1283               	bcf	status, 5	;RP0=0, select bank0
  9356  0793  1303               	bcf	status, 6	;RP1=0, select bank0
  9357  0794  00A2               	movwf	(??i1_printf+0)+0
  9358  0795  0822               	movf	(??i1_printf+0)+0,w
  9359  0796  07A7               	addwf	(i1printf@prec),f
  9360  0797  0827               	movf	((i1printf@prec)),w
  9361  0798  3AFF               	xorlw	-1
  9362  0799  1D03               	skipz
  9363  079A  2F9C               	goto	u279_21
  9364  079B  2F9D               	goto	u279_20
  9365  079C                     u279_21:
  9366  079C  2F81               	goto	i1l3250
  9367  079D                     u279_20:
  9368  079D  2F9F               	goto	i1l3256
  9369                           opt subtitle "HI-TECH Software Omniscient Code Generator (Lite mode) build 49521"
  9370  079E                     i1l427:	
  9371  079E  2F9F               	goto	i1l3256
  9372                           opt subtitle "HI-TECH Software Omniscient Code Generator (Lite mode) build 49521"
  9373                           
  9374  079F                     i1l395:	
  9375                           opt subtitle "HI-TECH Software Omniscient Code Generator (Lite mode) build 49521"
  9376                           
  9377  079F                     i1l3256:	
  9378  079F  1283               	bcf	status, 5	;RP0=0, select bank0
  9379  07A0  1303               	bcf	status, 6	;RP1=0, select bank0
  9380  07A1  0821               	movf	(i1printf@f+1),w
  9381  07A2  00A3               	movwf	(??i1_printf+0)+0+1
  9382  07A3  0820               	movf	(i1printf@f),w
  9383  07A4  00A2               	movwf	(??i1_printf+0)+0
  9384  07A5  3001               	movlw	(01h)
  9385  07A6  07A0               	addwf	(i1printf@f),f
  9386  07A7  1803               	skipnc
  9387  07A8  0AA1               	incf	(i1printf@f+1),f
  9388  07A9  0823               	movf	1+(??i1_printf+0)+0,w
  9389  07AA  00FF               	movwf	btemp+1
  9390  07AB  0822               	movf	0+(??i1_printf+0)+0,w
  9391  07AC  0084               	movwf	fsr0
  9392  07AD  160A  118A  2000   	fcall	stringtab
              120A  118A         
  9393  07B2  00A4               	movwf	(??i1_printf+2)+0
  9394  07B3  0824               	movf	(??i1_printf+2)+0,w
  9395  07B4  00AD               	movwf	(i1printf@c)
  9396  07B5  08AD               	movf	((i1printf@c)),f
  9397  07B6  1D03               	skipz
  9398  07B7  2FB9               	goto	u280_21
  9399  07B8  2FBA               	goto	u280_20
  9400  07B9                     u280_21:
  9401  07B9  2E16               	goto	i1l3184
  9402  07BA                     u280_20:
  9403  07BA  2FBC               	goto	i1l429
  9404                           opt subtitle "HI-TECH Software Omniscient Code Generator (Lite mode) build 49521"
  9405  07BB                     i1l428:	
  9406  07BB  2FBC               	goto	i1l429
  9407                           opt subtitle "HI-TECH Software Omniscient Code Generator (Lite mode) build 49521"
  9408                           
  9409                           opt pagewidth 120
  9410                           
  9411                           	opt lm
  9412  07BC                     i1l400:	
  9413                           opt subtitle "HI-TECH Software Omniscient Code Generator (Lite mode) build 49521"
  9414                           
  9415                           opt pagewidth 120
  9416                           
  9417  07BC                     i1l429:	
  9418  07BC  0008               	return
  9419                           opt subtitle "HI-TECH Software Omniscient Code Generator (Lite mode) build 49521"
  9420                           
  9421  07BD                     	__end_ofi1_printf:
  9422                           opt subtitle "HI-TECH Software Omniscient Code Generator (Lite mode) build 49521"
  9423                           
  9424                           opt pagewidth 120
  9425                           
  9426                           	opt lm
  9427                           
  9428                           	processor	16LF707
  9429                           clrc	macro
  9430                           	bcf	3,0
  9431                           	endm
  9432                           clrz	macro
  9433                           	bcf	3,2
  9434                           	endm
  9435                           setc	macro
  9436                           	bsf	3,0
  9437                           	endm
  9438                           setz	macro
  9439                           	bsf	3,2
  9440                           	endm
  9441                           skipc	macro
  9442                           	btfss	3,0
  9443                           	endm
  9444                           skipz	macro
  9445                           	btfss	3,2
  9446                           	endm
  9447                           skipnc	macro
  9448                           	btfsc	3,0
  9449                           	endm
  9450                           skipnz	macro
  9451                           	btfsc	3,2
  9452                           	endm
  9453                           indf	equ	0
  9454                           indf0	equ	0
  9455                           pc	equ	2
  9456  07BD                     __ptext1057:	;psect for function i1___lwmod
  9457                           opt subtitle "HI-TECH Software Omniscient Code Generator (Lite mode) build 49521"
  9458                           
  9459                           opt pagewidth 120
  9460                           
  9461  0043                     	__size_ofi1___lwmod	equ	__end_ofi1___lwmod-i1___lwmod
  9462                           opt subtitle "HI-TECH Software Omniscient Code Generator (Lite mode) build 49521"
  9463  07BD                     i1___lwmod:	
  9464                           opt subtitle "HI-TECH Software Omniscient Code Generator (Lite mode) build 49521"
  9465                           
  9466                           opt pagewidth 120
  9467                           
  9468  07BD                     i1l3160:	
  9469  07BD  0879               	movf	(i1___lwmod@divisor+1),w
  9470  07BE  0478               	iorwf	(i1___lwmod@divisor),w
  9471  07BF  1903               	skipnz
  9472  07C0  2FC2               	goto	u263_21
  9473  07C1  2FC3               	goto	u263_20
  9474  07C2                     u263_21:
  9475  07C2  2FF8               	goto	i1l3178
  9476  07C3                     u263_20:
  9477                           opt subtitle "HI-TECH Software Omniscient Code Generator (Lite mode) build 49521"
  9478                           
  9479  07C3                     i1l3162:	
  9480  07C3  01FD               	clrf	(i1___lwmod@counter)
  9481  07C4  0AFD               	incf	(i1___lwmod@counter),f
  9482                           opt subtitle "HI-TECH Software Omniscient Code Generator (Lite mode) build 49521"
  9483  07C5  2FD2               	goto	i1l3168
  9484                           opt subtitle "HI-TECH Software Omniscient Code Generator (Lite mode) build 49521"
  9485  07C6                     i1l456:	
  9486                           opt subtitle "HI-TECH Software Omniscient Code Generator (Lite mode) build 49521"
  9487                           
  9488  07C6                     i1l3164:	
  9489  07C6  3001               	movlw	01h
  9490                           opt subtitle "HI-TECH Software Omniscient Code Generator (Lite mode) build 49521"
  9491  07C7                     u264_25:
  9492  07C7  1003               	clrc
  9493  07C8  0DF8               	rlf	(i1___lwmod@divisor),f
  9494  07C9  0DF9               	rlf	(i1___lwmod@divisor+1),f
  9495  07CA  3EFF               	addlw	-1
  9496  07CB  1D03               	skipz
  9497  07CC  2FC7               	goto	u264_25
  9498                           opt subtitle "HI-TECH Software Omniscient Code Generator (Lite mode) build 49521"
  9499                           
  9500  07CD                     i1l3166:	
  9501  07CD  3001               	movlw	(01h)
  9502  07CE  00FC               	movwf	(??i1___lwmod+0)+0
  9503  07CF  087C               	movf	(??i1___lwmod+0)+0,w
  9504  07D0  07FD               	addwf	(i1___lwmod@counter),f
  9505  07D1  2FD2               	goto	i1l3168
  9506                           opt subtitle "HI-TECH Software Omniscient Code Generator (Lite mode) build 49521"
  9507                           
  9508  07D2                     i1l455:	
  9509                           opt subtitle "HI-TECH Software Omniscient Code Generator (Lite mode) build 49521"
  9510                           
  9511  07D2                     i1l3168:	
  9512  07D2  1FF9               	btfss	(i1___lwmod@divisor+1),(15)&7
  9513  07D3  2FD5               	goto	u265_21
  9514  07D4  2FD6               	goto	u265_20
  9515  07D5                     u265_21:
  9516  07D5  2FC6               	goto	i1l3164
  9517  07D6                     u265_20:
  9518  07D6  2FD8               	goto	i1l3170
  9519                           opt subtitle "HI-TECH Software Omniscient Code Generator (Lite mode) build 49521"
  9520  07D7                     i1l457:	
  9521  07D7  2FD8               	goto	i1l3170
  9522                           opt subtitle "HI-TECH Software Omniscient Code Generator (Lite mode) build 49521"
  9523                           
  9524  07D8                     i1l458:	
  9525                           opt subtitle "HI-TECH Software Omniscient Code Generator (Lite mode) build 49521"
  9526                           
  9527  07D8                     i1l3170:	
  9528  07D8  0879               	movf	(i1___lwmod@divisor+1),w
  9529  07D9  027B               	subwf	(i1___lwmod@dividend+1),w
  9530  07DA  1D03               	skipz
  9531  07DB  2FDE               	goto	u266_25
  9532  07DC  0878               	movf	(i1___lwmod@divisor),w
  9533  07DD  027A               	subwf	(i1___lwmod@dividend),w
  9534  07DE                     u266_25:
  9535  07DE  1C03               	skipc
  9536  07DF  2FE1               	goto	u266_21
  9537  07E0  2FE2               	goto	u266_20
  9538  07E1                     u266_21:
  9539  07E1  2FE9               	goto	i1l3174
  9540  07E2                     u266_20:
  9541                           opt subtitle "HI-TECH Software Omniscient Code Generator (Lite mode) build 49521"
  9542                           
  9543  07E2                     i1l3172:	
  9544  07E2  0878               	movf	(i1___lwmod@divisor),w
  9545  07E3  02FA               	subwf	(i1___lwmod@dividend),f
  9546  07E4  0879               	movf	(i1___lwmod@divisor+1),w
  9547  07E5  1C03               	skipc
  9548  07E6  03FB               	decf	(i1___lwmod@dividend+1),f
  9549  07E7  02FB               	subwf	(i1___lwmod@dividend+1),f
  9550  07E8  2FE9               	goto	i1l3174
  9551                           opt subtitle "HI-TECH Software Omniscient Code Generator (Lite mode) build 49521"
  9552  07E9                     i1l459:	
  9553                           opt subtitle "HI-TECH Software Omniscient Code Generator (Lite mode) build 49521"
  9554                           
  9555  07E9                     i1l3174:	
  9556  07E9  3001               	movlw	01h
  9557                           opt subtitle "HI-TECH Software Omniscient Code Generator (Lite mode) build 49521"
  9558  07EA                     u267_25:
  9559  07EA  1003               	clrc
  9560  07EB  0CF9               	rrf	(i1___lwmod@divisor+1),f
  9561  07EC  0CF8               	rrf	(i1___lwmod@divisor),f
  9562  07ED  3EFF               	addlw	-1
  9563  07EE  1D03               	skipz
  9564  07EF  2FEA               	goto	u267_25
  9565                           opt subtitle "HI-TECH Software Omniscient Code Generator (Lite mode) build 49521"
  9566                           
  9567  07F0                     i1l3176:	
  9568  07F0  3001               	movlw	low(01h)
  9569  07F1  02FD               	subwf	(i1___lwmod@counter),f
  9570  07F2  1D03               	btfss	status,2
  9571  07F3  2FF5               	goto	u268_21
  9572  07F4  2FF6               	goto	u268_20
  9573  07F5                     u268_21:
  9574  07F5  2FD8               	goto	i1l3170
  9575  07F6                     u268_20:
  9576  07F6  2FF8               	goto	i1l3178
  9577                           opt subtitle "HI-TECH Software Omniscient Code Generator (Lite mode) build 49521"
  9578  07F7                     i1l460:	
  9579  07F7  2FF8               	goto	i1l3178
  9580                           opt subtitle "HI-TECH Software Omniscient Code Generator (Lite mode) build 49521"
  9581                           
  9582  07F8                     i1l454:	
  9583                           opt subtitle "HI-TECH Software Omniscient Code Generator (Lite mode) build 49521"
  9584                           
  9585  07F8                     i1l3178:	
  9586  07F8  087B               	movf	(i1___lwmod@dividend+1),w
  9587  07F9  01F9               	clrf	(?i1___lwmod+1)
  9588  07FA  07F9               	addwf	(?i1___lwmod+1)
  9589  07FB  087A               	movf	(i1___lwmod@dividend),w
  9590  07FC  01F8               	clrf	(?i1___lwmod)
  9591  07FD  07F8               	addwf	(?i1___lwmod)
  9592                           opt subtitle "HI-TECH Software Omniscient Code Generator (Lite mode) build 49521"
  9593  07FE  2FFF               	goto	i1l461
  9594                           opt subtitle "HI-TECH Software Omniscient Code Generator (Lite mode) build 49521"
  9595  07FF                     i1l3180:	
  9596                           opt subtitle "HI-TECH Software Omniscient Code Generator (Lite mode) build 49521"
  9597                           
  9598  07FF                     i1l461:	
  9599  07FF  0008               	return
  9600                           opt subtitle "HI-TECH Software Omniscient Code Generator (Lite mode) build 49521"
  9601                           
  9602  0800                     	__end_ofi1___lwmod:
  9603                           opt subtitle "HI-TECH Software Omniscient Code Generator (Lite mode) build 49521"
  9604                           
  9605                           opt pagewidth 120
  9606                           
  9607                           	opt lm
  9608                           
  9609                           	processor	16LF707
  9610                           clrc	macro
  9611                           	bcf	3,0
  9612                           	endm
  9613                           clrz	macro
  9614                           	bcf	3,2
  9615                           	endm
  9616                           setc	macro
  9617                           	bsf	3,0
  9618                           	endm
  9619                           setz	macro
  9620                           	bsf	3,2
  9621                           	endm
  9622                           skipc	macro
  9623                           	btfss	3,0
  9624                           	endm
  9625                           skipz	macro
  9626                           	btfss	3,2
  9627                           	endm
  9628                           skipnc	macro
  9629                           	btfsc	3,0
  9630                           	endm
  9631                           skipnz	macro
  9632                           	btfsc	3,2
  9633                           	endm
  9634                           indf	equ	0
  9635                           indf0	equ	0
  9636                           pc	equ	2
  9637                           pcl	equ	2
  9638  0B88                     __ptext1058:	;psect for function i1___lwdiv
  9639                           opt subtitle "HI-TECH Software Omniscient Code Generator (Lite mode) build 49521"
  9640                           
  9641                           opt pagewidth 120
  9642                           
  9643  004D                     	__size_ofi1___lwdiv	equ	__end_ofi1___lwdiv-i1___lwdiv
  9644                           opt subtitle "HI-TECH Software Omniscient Code Generator (Lite mode) build 49521"
  9645  0B88                     i1___lwdiv:	
  9646                           opt subtitle "HI-TECH Software Omniscient Code Generator (Lite mode) build 49521"
  9647                           
  9648                           opt pagewidth 120
  9649                           
  9650  0B88                     i1l3134:	
  9651  0B88  01F6               	clrf	(i1___lwdiv@quotient)
  9652  0B89  01F7               	clrf	(i1___lwdiv@quotient+1)
  9653                           opt subtitle "HI-TECH Software Omniscient Code Generator (Lite mode) build 49521"
  9654                           
  9655  0B8A                     i1l3136:	
  9656  0B8A  0871               	movf	(i1___lwdiv@divisor+1),w
  9657  0B8B  0470               	iorwf	(i1___lwdiv@divisor),w
  9658  0B8C  1903               	skipnz
  9659  0B8D  2B8F               	goto	u256_21
  9660  0B8E  2B90               	goto	u256_20
  9661  0B8F                     u256_21:
  9662  0B8F  2BCD               	goto	i1l3156
  9663  0B90                     u256_20:
  9664                           opt subtitle "HI-TECH Software Omniscient Code Generator (Lite mode) build 49521"
  9665                           
  9666  0B90                     i1l3138:	
  9667  0B90  01F5               	clrf	(i1___lwdiv@counter)
  9668  0B91  0AF5               	incf	(i1___lwdiv@counter),f
  9669                           opt subtitle "HI-TECH Software Omniscient Code Generator (Lite mode) build 49521"
  9670  0B92  2B9F               	goto	i1l3144
  9671                           opt subtitle "HI-TECH Software Omniscient Code Generator (Lite mode) build 49521"
  9672  0B93                     i1l446:	
  9673                           opt subtitle "HI-TECH Software Omniscient Code Generator (Lite mode) build 49521"
  9674                           
  9675  0B93                     i1l3140:	
  9676  0B93  3001               	movlw	01h
  9677                           opt subtitle "HI-TECH Software Omniscient Code Generator (Lite mode) build 49521"
  9678  0B94                     u257_25:
  9679  0B94  1003               	clrc
  9680  0B95  0DF0               	rlf	(i1___lwdiv@divisor),f
  9681  0B96  0DF1               	rlf	(i1___lwdiv@divisor+1),f
  9682  0B97  3EFF               	addlw	-1
  9683  0B98  1D03               	skipz
  9684  0B99  2B94               	goto	u257_25
  9685                           opt subtitle "HI-TECH Software Omniscient Code Generator (Lite mode) build 49521"
  9686                           
  9687  0B9A                     i1l3142:	
  9688  0B9A  3001               	movlw	(01h)
  9689  0B9B  00F4               	movwf	(??i1___lwdiv+0)+0
  9690  0B9C  0874               	movf	(??i1___lwdiv+0)+0,w
  9691  0B9D  07F5               	addwf	(i1___lwdiv@counter),f
  9692  0B9E  2B9F               	goto	i1l3144
  9693                           opt subtitle "HI-TECH Software Omniscient Code Generator (Lite mode) build 49521"
  9694                           
  9695  0B9F                     i1l445:	
  9696                           opt subtitle "HI-TECH Software Omniscient Code Generator (Lite mode) build 49521"
  9697                           
  9698  0B9F                     i1l3144:	
  9699  0B9F  1FF1               	btfss	(i1___lwdiv@divisor+1),(15)&7
  9700  0BA0  2BA2               	goto	u258_21
  9701  0BA1  2BA3               	goto	u258_20
  9702  0BA2                     u258_21:
  9703  0BA2  2B93               	goto	i1l3140
  9704  0BA3                     u258_20:
  9705  0BA3  2BA5               	goto	i1l3146
  9706                           opt subtitle "HI-TECH Software Omniscient Code Generator (Lite mode) build 49521"
  9707  0BA4                     i1l447:	
  9708  0BA4  2BA5               	goto	i1l3146
  9709                           opt subtitle "HI-TECH Software Omniscient Code Generator (Lite mode) build 49521"
  9710                           
  9711  0BA5                     i1l448:	
  9712                           opt subtitle "HI-TECH Software Omniscient Code Generator (Lite mode) build 49521"
  9713                           
  9714  0BA5                     i1l3146:	
  9715  0BA5  3001               	movlw	01h
  9716                           opt subtitle "HI-TECH Software Omniscient Code Generator (Lite mode) build 49521"
  9717  0BA6                     u259_25:
  9718  0BA6  1003               	clrc
  9719  0BA7  0DF6               	rlf	(i1___lwdiv@quotient),f
  9720  0BA8  0DF7               	rlf	(i1___lwdiv@quotient+1),f
  9721  0BA9  3EFF               	addlw	-1
  9722  0BAA  1D03               	skipz
  9723  0BAB  2BA6               	goto	u259_25
  9724                           opt subtitle "HI-TECH Software Omniscient Code Generator (Lite mode) build 49521"
  9725  0BAC  0871               	movf	(i1___lwdiv@divisor+1),w
  9726  0BAD  0273               	subwf	(i1___lwdiv@dividend+1),w
  9727  0BAE  1D03               	skipz
  9728  0BAF  2BB2               	goto	u260_25
  9729  0BB0  0870               	movf	(i1___lwdiv@divisor),w
  9730  0BB1  0272               	subwf	(i1___lwdiv@dividend),w
  9731  0BB2                     u260_25:
  9732  0BB2  1C03               	skipc
  9733  0BB3  2BB5               	goto	u260_21
  9734  0BB4  2BB6               	goto	u260_20
  9735  0BB5                     u260_21:
  9736  0BB5  2BBE               	goto	i1l3152
  9737  0BB6                     u260_20:
  9738                           opt subtitle "HI-TECH Software Omniscient Code Generator (Lite mode) build 49521"
  9739                           
  9740  0BB6                     i1l3148:	
  9741  0BB6  0870               	movf	(i1___lwdiv@divisor),w
  9742  0BB7  02F2               	subwf	(i1___lwdiv@dividend),f
  9743  0BB8  0871               	movf	(i1___lwdiv@divisor+1),w
  9744  0BB9  1C03               	skipc
  9745  0BBA  03F3               	decf	(i1___lwdiv@dividend+1),f
  9746  0BBB  02F3               	subwf	(i1___lwdiv@dividend+1),f
  9747                           opt subtitle "HI-TECH Software Omniscient Code Generator (Lite mode) build 49521"
  9748                           
  9749  0BBC                     i1l3150:	
  9750  0BBC  1476               	bsf	(i1___lwdiv@quotient)+(0/8),(0)&7
  9751  0BBD  2BBE               	goto	i1l3152
  9752                           opt subtitle "HI-TECH Software Omniscient Code Generator (Lite mode) build 49521"
  9753                           
  9754  0BBE                     i1l449:	
  9755                           opt subtitle "HI-TECH Software Omniscient Code Generator (Lite mode) build 49521"
  9756                           
  9757  0BBE                     i1l3152:	
  9758  0BBE  3001               	movlw	01h
  9759                           opt subtitle "HI-TECH Software Omniscient Code Generator (Lite mode) build 49521"
  9760  0BBF                     u261_25:
  9761  0BBF  1003               	clrc
  9762  0BC0  0CF1               	rrf	(i1___lwdiv@divisor+1),f
  9763  0BC1  0CF0               	rrf	(i1___lwdiv@divisor),f
  9764  0BC2  3EFF               	addlw	-1
  9765  0BC3  1D03               	skipz
  9766  0BC4  2BBF               	goto	u261_25
  9767                           opt subtitle "HI-TECH Software Omniscient Code Generator (Lite mode) build 49521"
  9768                           
  9769  0BC5                     i1l3154:	
  9770  0BC5  3001               	movlw	low(01h)
  9771  0BC6  02F5               	subwf	(i1___lwdiv@counter),f
  9772  0BC7  1D03               	btfss	status,2
  9773  0BC8  2BCA               	goto	u262_21
  9774  0BC9  2BCB               	goto	u262_20
  9775  0BCA                     u262_21:
  9776  0BCA  2BA5               	goto	i1l3146
  9777  0BCB                     u262_20:
  9778  0BCB  2BCD               	goto	i1l3156
  9779                           opt subtitle "HI-TECH Software Omniscient Code Generator (Lite mode) build 49521"
  9780  0BCC                     i1l450:	
  9781  0BCC  2BCD               	goto	i1l3156
  9782                           opt subtitle "HI-TECH Software Omniscient Code Generator (Lite mode) build 49521"
  9783                           
  9784  0BCD                     i1l444:	
  9785                           opt subtitle "HI-TECH Software Omniscient Code Generator (Lite mode) build 49521"
  9786                           
  9787  0BCD                     i1l3156:	
  9788  0BCD  0877               	movf	(i1___lwdiv@quotient+1),w
  9789  0BCE  01F1               	clrf	(?i1___lwdiv+1)
  9790  0BCF  07F1               	addwf	(?i1___lwdiv+1)
  9791  0BD0  0876               	movf	(i1___lwdiv@quotient),w
  9792  0BD1  01F0               	clrf	(?i1___lwdiv)
  9793  0BD2  07F0               	addwf	(?i1___lwdiv)
  9794                           opt subtitle "HI-TECH Software Omniscient Code Generator (Lite mode) build 49521"
  9795  0BD3  2BD4               	goto	i1l451
  9796                           opt subtitle "HI-TECH Software Omniscient Code Generator (Lite mode) build 49521"
  9797  0BD4                     i1l3158:	
  9798                           opt subtitle "HI-TECH Software Omniscient Code Generator (Lite mode) build 49521"
  9799                           
  9800  0BD4                     i1l451:	
  9801  0BD4  0008               	return
  9802                           opt subtitle "HI-TECH Software Omniscient Code Generator (Lite mode) build 49521"
  9803                           
  9804  0BD5                     	__end_ofi1___lwdiv:
  9805                           opt subtitle "HI-TECH Software Omniscient Code Generator (Lite mode) build 49521"
  9806                           
  9807                           opt pagewidth 120
  9808                           
  9809                           	opt lm
  9810                           
  9811                           	processor	16LF707
  9812                           clrc	macro
  9813                           	bcf	3,0
  9814                           	endm
  9815                           clrz	macro
  9816                           	bcf	3,2
  9817                           	endm
  9818                           setc	macro
  9819                           	bsf	3,0
  9820                           	endm
  9821                           setz	macro
  9822                           	bsf	3,2
  9823                           	endm
  9824                           skipc	macro
  9825                           	btfss	3,0
  9826                           	endm
  9827                           skipz	macro
  9828                           	btfss	3,2
  9829                           	endm
  9830                           skipnc	macro
  9831                           	btfsc	3,0
  9832                           	endm
  9833                           skipnz	macro
  9834                           	btfsc	3,2
  9835                           	endm
  9836                           indf	equ	0
  9837                           indf0	equ	0
  9838  0899                     __ptext1059:	;psect for function i1_putch
  9839                           opt subtitle "HI-TECH Software Omniscient Code Generator (Lite mode) build 49521"
  9840                           
  9841                           opt pagewidth 120
  9842                           
  9843  000C                     	__size_ofi1_putch	equ	__end_ofi1_putch-i1_putch
  9844                           opt subtitle "HI-TECH Software Omniscient Code Generator (Lite mode) build 49521"
  9845  0899                     i1_putch:	
  9846                           opt subtitle "HI-TECH Software Omniscient Code Generator (Lite mode) build 49521"
  9847                           
  9848                           opt pagewidth 120
  9849  0899  00F0               	movwf	(i1putch@c)
  9850                           opt subtitle "HI-TECH Software Omniscient Code Generator (Lite mode) build 49521"
  9851                           
  9852  089A                     i1l3130:	
  9853                           opt subtitle "HI-TECH Software Omniscient Code Generator (Lite mode) build 49521"
  9854  089A  289B               	goto	i1l229
  9855                           opt subtitle "HI-TECH Software Omniscient Code Generator (Lite mode) build 49521"
  9856  089B                     i1l230:	
  9857                           opt subtitle "HI-TECH Software Omniscient Code Generator (Lite mode) build 49521"
  9858  089B                     i1l229:	
  9859  089B  1283               	bcf	status, 5	;RP0=0, select bank0
  9860  089C  1303               	bcf	status, 6	;RP1=0, select bank0
  9861  089D  1E0C               	btfss	(100/8),(100)&7	;volatile
  9862  089E  28A0               	goto	u255_21
  9863  089F  28A1               	goto	u255_20
  9864  08A0                     u255_21:
  9865  08A0  289B               	goto	i1l229
  9866  08A1                     u255_20:
  9867  08A1  28A2               	goto	i1l3132
  9868                           opt subtitle "HI-TECH Software Omniscient Code Generator (Lite mode) build 49521"
  9869  08A2                     i1l231:	
  9870                           opt subtitle "HI-TECH Software Omniscient Code Generator (Lite mode) build 49521"
  9871                           
  9872  08A2                     i1l3132:	
  9873                           opt subtitle "HI-TECH Software Omniscient Code Generator (Lite mode) build 49521"
  9874  08A2  0870               	movf	(i1putch@c),w
  9875  08A3  0099               	movwf	(25)	;volatile
  9876                           opt subtitle "HI-TECH Software Omniscient Code Generator (Lite mode) build 49521"
  9877                           
  9878  08A4                     i1l232:	
  9879  08A4  0008               	return
  9880                           opt subtitle "HI-TECH Software Omniscient Code Generator (Lite mode) build 49521"
  9881                           
  9882  08A5                     	__end_ofi1_putch:
  9883                           opt subtitle "HI-TECH Software Omniscient Code Generator (Lite mode) build 49521"
  9884                           
  9885                           opt pagewidth 120
  9886  0000                     __ptext1060:	;psect for function i1_putch
  9887                           opt subtitle "HI-TECH Software Omniscient Code Generator (Lite mode) build 49521"
  9888  007E                     	btemp set 07Eh
  9889                           opt subtitle "HI-TECH Software Omniscient Code Generator (Lite mode) build 49521"
  9890                           
  9891                           opt pagewidth 120
  9892  007E                     	wtemp0 set btemp


Data Sizes:
    Strings     252
    Constant    145
    Data        13
    BSS         44
    Persistent  0
    Stack       0

Auto Spaces:
    Space          Size  Autos    Used
    COMMON           14     14      14
    BANK0            80     50      60
    BANK1            80     59      75
    BANK3            96      0      32
    BANK2            91      0       0

Pointer List with Targets:

    ?___lwdiv	unsigned int  size(1) Largest target is 0

    ?___lwmod	unsigned int  size(1) Largest target is 0

    ?___wmul	unsigned int  size(1) Largest target is 0

    printf@f	PTR const unsigned char  size(2) Largest target is 37
		 -> STR_15(CODE[5]), STR_14(CODE[12]), Receive_Packet@rx_buf(BANK0[32]), STR_13(CODE[5]), 
		 -> STR_12(CODE[24]), STR_11(CODE[17]), STR_10(CODE[3]), STR_9(CODE[3]), 
		 -> STR_8(CODE[10]), STR_7(CODE[18]), STR_6(CODE[21]), STR_5(CODE[26]), 
		 -> STR_4(CODE[37]), STR_3(CODE[23]), STR_2(CODE[20]), STR_1(CODE[19]), 

    ?_printf	int  size(1) Largest target is 0

    printf@ap	PTR void [1] size(1) Largest target is 2
		 -> ?_printf(BANK0[2]), 

    S1306$_cp	PTR const unsigned char  size(1) Largest target is 0

    _val._str._cp	PTR const unsigned char  size(1) Largest target is 0

    SPI_Write_Buf@pBuf	PTR unsigned char  size(1) Largest target is 12
		 -> RFM70_Initialize@WriteArr(BANK0[12]), tx_buf(BANK1[8]), 

    Send_Packet@pbuf	PTR unsigned char  size(1) Largest target is 8
		 -> tx_buf(BANK1[8]), 


Critical Paths under _main in COMMON

    None.

Critical Paths under _ISR in COMMON

    i1_printf->i1___lwmod
    i1___lwmod->i1___lwdiv

Critical Paths under _main in BANK0

    _main->_RFM70_Initialize
    _rfm70setPowerdownMode->_SPI_Read_Reg
    _RFM70_Initialize->_SwitchCFG
    _Send_Packet->_printf
    _printf->___lwmod
    _rfm70TxDataSentErrorInterrupt->_SPI_Read_Reg
    _SwitchToRxMode->_SPI_Read_Reg
    _rfm70TxDataSentInterrupt->_SPI_Read_Reg
    _SPI_Write_Buf->_SPI_RW
    _sleep->_adcReadVcap
    _SwitchToTxMode->_SPI_Read_Reg
    _SwitchCFG->_SPI_Read_Reg
    _SPI_Write_Reg->_SPI_RW
    _SPI_Read_Reg->_SPI_RW
    ___lwmod->___lwdiv

Critical Paths under _ISR in BANK0

    _ISR->i1_printf

Critical Paths under _main in BANK1

    _main->_Send_Packet
    _Send_Packet->_printf

Critical Paths under _ISR in BANK1

    None.

Critical Paths under _main in BANK3

    None.

Critical Paths under _ISR in BANK3

    None.

Critical Paths under _main in BANK2

    None.

Critical Paths under _ISR in BANK2

    None.

Call Graph Tables:

 ---------------------------------------------------------------------------------
 (Depth) Function   	        Calls       Base Space   Used Autos Params    Refs
 ---------------------------------------------------------------------------------
 (0) _main                                                54    50      4    7881
                                             12 BANK1     47    43      4
                            _spiInit
                           _uartInit
                            _adcInit
              _rfm70setPowerdownMode
                             _printf
                        _adcReadVcap
                   _RFM70_Initialize
                        _adcReadTemp
                             ___wmul
                   _adcReadVsupercap
                        _Send_Packet
                              _sleep
 ---------------------------------------------------------------------------------
 (1) _spiInit                                              2     2      0       0
                                             20 BANK0      2     2      0
 ---------------------------------------------------------------------------------
 (1) _uartInit                                             0     0      0       0
 ---------------------------------------------------------------------------------
 (1) _adcInit                                              0     0      0       0
 ---------------------------------------------------------------------------------
 (1) _rfm70setPowerdownMode                                3     3      0     260
                                             26 BANK0      3     3      0
                       _SPI_Read_Reg
                      _SPI_Write_Reg
 ---------------------------------------------------------------------------------
 (1) _RFM70_Initialize                                    21    21      0    2745
                                             29 BANK0     21    21      0
                          _SwitchCFG
                      _SPI_Write_Reg
                      _SPI_Write_Buf
                       _SPI_Read_Reg
 ---------------------------------------------------------------------------------
 (1) _adcReadTemp                                          3     3      0      23
                                             20 BANK0      3     3      0
 ---------------------------------------------------------------------------------
 (1) _adcReadVsupercap                                     3     3      0      23
                                             20 BANK0      3     3      0
 ---------------------------------------------------------------------------------
 (1) _Send_Packet                                          8     6      2    2903
                                             43 BANK0      5     3      2
                                              9 BANK1      3     3      0
                     _SwitchToTxMode
                       _SPI_Read_Reg
                             _printf
                      _SPI_Write_Buf
           _rfm70TxDataSentInterrupt
                     _SwitchToRxMode
      _rfm70TxDataSentErrorInterrupt
 ---------------------------------------------------------------------------------
 (2) _printf                                              18    12      6    1460
                                             34 BANK0      9     3      6
                                              0 BANK1      9     9      0
                              _putch
                            ___lwdiv
                            ___lwmod
 ---------------------------------------------------------------------------------
 (2) _rfm70TxDataSentErrorInterrupt                        1     1      0     189
                                             26 BANK0      1     1      0
                       _SPI_Read_Reg
                      _SPI_Write_Reg
 ---------------------------------------------------------------------------------
 (2) _SwitchToRxMode                                       2     2      0     291
                                             26 BANK0      2     2      0
                      _SPI_Write_Reg
                       _SPI_Read_Reg
 ---------------------------------------------------------------------------------
 (2) _rfm70TxDataSentInterrupt                             1     1      0     189
                                             26 BANK0      1     1      0
                       _SPI_Read_Reg
                      _SPI_Write_Reg
 ---------------------------------------------------------------------------------
 (2) _SPI_Write_Buf                                        5     3      2     164
                                             23 BANK0      5     3      2
                             _SPI_RW
 ---------------------------------------------------------------------------------
 (1) _sleep                                                3     3      0      46
                                             23 BANK0      3     3      0
                        _adcReadVcap
 ---------------------------------------------------------------------------------
 (2) _adcReadVcap                                          3     3      0      23
                                             20 BANK0      3     3      0
 ---------------------------------------------------------------------------------
 (3) _putch                                                1     1      0      31
                                             20 BANK0      1     1      0
 ---------------------------------------------------------------------------------
 (2) _SwitchToTxMode                                       2     2      0     257
                                             26 BANK0      2     2      0
                      _SPI_Write_Reg
                       _SPI_Read_Reg
 ---------------------------------------------------------------------------------
 (2) _SwitchCFG                                            3     3      0     350
                                             26 BANK0      3     3      0
                       _SPI_Read_Reg
                      _SPI_Write_Reg
 ---------------------------------------------------------------------------------
 (3) _SPI_Write_Reg                                        2     1      1      93
                                             23 BANK0      2     1      1
                             _SPI_RW
 ---------------------------------------------------------------------------------
 (3) _SPI_Read_Reg                                         3     3      0      96
                                             23 BANK0      3     3      0
                             _SPI_RW
 ---------------------------------------------------------------------------------
 (4) _SPI_RW                                               3     3      0      31
                                             20 BANK0      3     3      0
 ---------------------------------------------------------------------------------
 (1) ___wmul                                               6     2      4      92
                                             20 BANK0      6     2      4
 ---------------------------------------------------------------------------------
 (3) ___lwdiv                                              8     4      4     241
                                             20 BANK0      8     4      4
 ---------------------------------------------------------------------------------
 (3) ___lwmod                                              6     2      4     232
                                             28 BANK0      6     2      4
                            ___lwdiv (ARG)
 ---------------------------------------------------------------------------------
 Estimated maximum stack depth 4
 ---------------------------------------------------------------------------------
 (Depth) Function   	        Calls       Base Space   Used Autos Params    Refs
 ---------------------------------------------------------------------------------
 (5) _ISR                                                  6     6      0    3276
                                             14 BANK0      6     6      0
                           i1_printf
 ---------------------------------------------------------------------------------
 (6) i1_printf                                            14    12      2    3276
                                              0 BANK0     14    12      2
                            i1_putch
                          i1___lwdiv
                          i1___lwmod
 ---------------------------------------------------------------------------------
 (7) i1___lwmod                                            6     2      4     521
                                              8 COMMON     6     2      4
                          i1___lwdiv (ARG)
 ---------------------------------------------------------------------------------
 (7) i1___lwdiv                                            8     4      4     527
                                              0 COMMON     8     4      4
 ---------------------------------------------------------------------------------
 (7) i1_putch                                              1     1      0      73
                                              0 COMMON     1     1      0
 ---------------------------------------------------------------------------------
 Estimated maximum stack depth 7
 ---------------------------------------------------------------------------------

 Call Graph Graphs:

 _main (ROOT)
   _spiInit
   _uartInit
   _adcInit
   _rfm70setPowerdownMode
     _SPI_Read_Reg
       _SPI_RW
     _SPI_Write_Reg
       _SPI_RW
   _printf
     _putch
     ___lwdiv
     ___lwmod
       ___lwdiv (ARG)
   _adcReadVcap
   _RFM70_Initialize
     _SwitchCFG
       _SPI_Read_Reg
         _SPI_RW
       _SPI_Write_Reg
         _SPI_RW
     _SPI_Write_Reg
       _SPI_RW
     _SPI_Write_Buf
       _SPI_RW
     _SPI_Read_Reg
       _SPI_RW
   _adcReadTemp
   ___wmul
   _adcReadVsupercap
   _Send_Packet
     _SwitchToTxMode
       _SPI_Write_Reg
         _SPI_RW
       _SPI_Read_Reg
         _SPI_RW
     _SPI_Read_Reg
       _SPI_RW
     _printf
       _putch
       ___lwdiv
       ___lwmod
         ___lwdiv (ARG)
     _SPI_Write_Buf
       _SPI_RW
     _rfm70TxDataSentInterrupt
       _SPI_Read_Reg
         _SPI_RW
       _SPI_Write_Reg
         _SPI_RW
     _SwitchToRxMode
       _SPI_Write_Reg
         _SPI_RW
       _SPI_Read_Reg
         _SPI_RW
     _rfm70TxDataSentErrorInterrupt
       _SPI_Read_Reg
         _SPI_RW
       _SPI_Write_Reg
         _SPI_RW
   _sleep
     _adcReadVcap

 _ISR (ROOT)
   i1_printf
     i1_putch
     i1___lwdiv
     i1___lwmod
       i1___lwdiv (ARG)

 Address spaces:
Name               Size   Autos  Total    Cost      Usage
BANK3               60      0      20      10       33.3%
BITBANK3            60      0       0       9        0.0%
SFR3                 0      0       0       4        0.0%
BITSFR3              0      0       0       4        0.0%
BANK2               5B      0       0      12        0.0%
BITBANK2            5B      0       0      11        0.0%
SFR2                 0      0       0       5        0.0%
BITSFR2              0      0       0       5        0.0%
BANK1               50     3B      4B       8       93.8%
BITBANK1            50      0       0       7        0.0%
SFR1                 0      0       0       2        0.0%
BITSFR1              0      0       0       2        0.0%
BANK0               50     32      3C       5       75.0%
BITBANK0            50      0       1       4        1.2%
SFR0                 0      0       0       1        0.0%
BITSFR0              0      0       0       1        0.0%
COMMON               E      E       E       1      100.0%
BITCOMMON            E      0       0       0        0.0%
CODE                 0      0       0       0        0.0%
DATA                 0      0      BF       6        0.0%
ABS                  0      0      B5       3        0.0%
NULL                 0      0       0       0        0.0%
STACK                0      0       A       2        0.0%


Microchip Technology PIC Macro Assembler V1.12 build 49521 
Symbol Table                                                                                   Sat May 11 18:48:01 2013

                                     pc 0002                             __CFG_CP$OFF 0000  
                           _SSPSTATbits 0094                                      fsr 0004  
                   ___wmul@multiplicand 0036          __size_of_rfm70setPowerdownMode 0025  
         __end_of_rfm70setPowerdownMode 099D               __size_of_RFM70_Initialize 0310  
               __size_of_SwitchToRxMode 003F                                     l200 0A44  
                                   l203 09B9                                     l204 09B9  
                                   l220 08EF                                     l205 09BE  
                                   l302 0939                                     l230 08A9  
                                   l206 09C5                                     l231 08AE  
                                   l311 0A12                                     l223 0907  
                                   l320 09EF                                     l232 08B0  
                                   l312 09FE                                     l400 0FFF  
                                   l313 0A18                                     l401 0E19  
                                   l314 0A19                                     l410 0F0D  
                                   l402 0E1A                                     l250 0D84  
                                   l226 0898                                     l170 0475  
                                   l323 0ACD                                     l411 0E86  
                                   l403 0E4B                                     l251 0DEE  
                                   l171 049E                                     l420 0F23  
                                   l412 0E90                                     l404 0E1B  
                                   l252 0DB7                                     l340 00DB  
                                   l180 0604                                     l172 04C6  
                                   l325 0AC2                                     l229 08A9  
                                   l317 0B42                                     l421 0FD0  
                                   l413 0EC8                                     l405 0E1B  
                                   l253 0DD2                                     l341 00F9  
                                   l181 060B                                     l173 04F6  
                                   l422 0F2E                                     l414 0EB9  
                                   l406 0E1D                                     l254 0DED  
                                   l350 0265                                     l342 0122  
                                   l334 0034                                     l182 060C  
                                   l174 0581                                     l166 0462  
                                   l327 0AB8                                     l423 0FC0  
                                   l415 0F16                                     l407 0E74  
                                   l247 0DFF                                     l255 0DF5  
                                   l191 0A62                                     l351 01F9  
                                   l343 0130                                     l335 0064  
                                   l183 060C                                     l167 043A  
                                   l440 0A94                                     l328 0ACD  
                                   l424 0F2F                                     l416 0EC9  
                                   l408 0E73                                     l248 0D79  
                                   l256 0DFF                                     l192 0A62  
                                   l352 024A                                     l344 015F  
                                   l336 006D                                     l176 0566  
                                   l441 0A9B                 __size_of_SwitchToTxMode 002A  
                                   l425 0FC9                                     l417 0ED3  
                                   l409 0E85                                     l249 0D54  
                                   l193 0A67                                     l353 026E  
                                   l345 0170                                     l337 008B  
                                   l177 059B                                     l169 0474  
                                   l450 0C1B                                     l186 0D1F  
                                   l370 0974                                     l426 0F78  
                                   l418 0F0B                                     l194 0A6F  
                                   l354 028C                                     l346 01E4  
                                   l338 00A4                                     l178 05F6  
                                   l451 0C23                                     l187 0D2B  
                                   l371 0977                                     l427 0FDF  
                                   l419 0EFC                                     l355 02A5  
                                   l347 0179                                     l339 00C2  
                                   l179 05C7                                     l460 0B7F  
                                   l444 0C1C                                     l188 0D2B  
                                   l372 0977                                     l428 0FFE  
                                   l356 02E8                                     l348 01C8  
                                   l380 0990                                     l461 0B87  
                                   l445 0BEE                                     l293 0917  
                                   l197 0A37                                     l365 0955  
                                   l429 0FFF                                     l357 0324  
                                   l349 01F0                                     l381 0992  
                                   l454 0B80                                     l446 0BE2  
                                   l438 0A75                                     l294 0917  
                                   l198 0A37                                     l366 0958  
                                   l382 099C                                     l455 0B5A  
                                   l447 0BF3                                     l439 0A7F  
                                   l295 091E                                     l199 0A3C  
                                   l367 0958                                     l456 0B4E  
                                   l448 0BF4                                     l296 0920  
                                   l457 0B5F                                     l449 0C0D  
                                   l458 0B60                                     l459 0B71  
                                   l299 08D9                                     l395 0FE0  
                                   l396 0E09                                     l397 0E16  
                                   l398 0E25                                     l399 0E18  
                                   _GIE 005F                                     _ISR 0C24  
                                   fsr0 0004                                     indf 0000  
                                  ?_ISR 0070                                    l4010 091E  
                                  l4002 08C7                                    l4012 0920  
                                  l4004 08C8                                    l4020 0AB3  
                                  l3300 0E24                                    l3070 0A70  
                                  l4006 08D6                                    l4022 0AB8  
                                  l4014 0A9F                                    l3310 0E65  
                                  l3302 0E25                                    l4040 0BD9  
                                  l3080 0A9B                                    l3072 0A75  
                                  l4008 090B                                    l4024 0ABD  
                                  l4016 0AAA                                    l2600 0A3C  
                                  l3320 0E8F                                    l3312 0E6D  
                                  l3304 0E51                                    l3400 0354  
                                  l4050 0BF4                                    l4042 0BDF  
                                  l3074 0A79                                    l4026 0AC2  
                                  l4018 0AAF                                    l2602 0A40  
                                  l3330 0ECB                                    l3322 0E90  
                                  l3306 0E59                                    l3314 0E74  
                                  l3410 0359                                    l3402 0355  
                                  l4052 0C05                                    l4044 0BE2  
                                  l4060 0C1C                                    l3076 0A86  
                                  l2604 0A41                                    l3340 0F04  
                                  l3332 0ED2                                    l3324 0EB8  
                                  l3316 0E7C                                    l3308 0E61  
                                  l3500 03BB                                    l3420 0362  
                                  l3412 035C                                    l3404 0356  
                                  l4070 0B55                                    l4062 0C23  
                                  l4054 0C0B                                    l4046 0BE9  
                                  l4038 0BD5                                    l3078 0A94  
                                  l2606 0A44                                    l3350 0F23  
                                  l3342 0F0C                                    l3334 0ED3  
                                  l3326 0EB9                                    l3318 0E88  
                                  l3510 03C0                                    l3502 03BC  
                                  l3430 0371                                    l3422 0365  
                                  l3414 035D                                    l3406 0357  
                                  l4080 0B78                                    l4072 0B5A  
                                  l4064 0B43                                    l4056 0C0D  
                                  l4048 0BEE                                    l3352 0F2F  
                                  l3360 0FC0                                    l3336 0EFB  
                                  l3328 0EC1                                    l3344 0F0D  
                                  l2560 08FC                                    l2552 08F0  
                                  l3600 04D1                                    l3520 03C7  
                                  l3512 03C1                                    l3504 03BD  
                                  l3440 0380                                    l3432 0374  
                                  l3424 0368                                    l3416 035E  
                                  l3408 0358                                    l4074 0B60  
                                  l4066 0B4B                                    l4082 0B80  
                                  l4058 0C14                                    l3354 0F78  
                                  l3362 0FC9                                    l3338 0EFC  
                                  l3346 0F16                                    l2570 08E6  
                                  l2562 08DA                                    l2554 08F4  
                                  l3610 0512                                    l3602 04DF  
                                  l3530 03CE                                    l3522 03C8  
                                  l3514 03C4                                    l3506 03BE  
                                  l3450 038D                                    l3442 0383  
                                  l3434 0377                                    l3426 036B  
                                  l3418 035F                                    l3370 032F  
                                  l4084 0B87                                    l4076 0B6A  
                                  l4068 0B4E                                    l3356 0FAB  
                                  l3364 0FD0                                    l3348 0F1C  
                                  l3292 0E00                                    l3700 00BB  
                                  l2580 0897                                    l2572 08E7  
                                  l2564 08DE                                    l2556 08F8  
                                  l3620 0559                                    l3612 0516  
                                  l3604 04F6                                    l3540 03D5  
                                  l3532 03CF                                    l3524 03C9  
                                  l3516 03C5                                    l3508 03BF  
                                  l3460 0397                                    l3452 038E  
                                  l3444 0386                                    l3436 037A  
                                  l3428 036E                                    l3380 033C  
                                  l3372 0331                                    l4078 0B71  
                                  l2590 0A1A                                    l3358 0FBF  
                                  l3294 0E09                                    l3366 0FE0  
                                  l3710 00DB                                    l3702 00C2  
                                  l2574 08E9                                    l2566 08E0  
                                  l2558 08FB                                    l3630 059B  
                                  l3622 055F                                    l3614 0547  
                                  l3606 050A                                    l3550 03DC  
                                  l3542 03D6                                    l3534 03D0  
                                  l3526 03CC                                    l3518 03C6  
                                  l3470 03A6                                    l3462 039E  
                                  l3454 038F                                    l3446 0389  
                                  l3438 037D                                    l3390 0345  
                                  l3382 033F                                    l3374 0335  
                                  l2592 0A26                                    l2840 0CB8  
                                  l3296 0E0F                                    l2760 0A45  
                                  l3800 02DD                                    l3720 0112  
                                  l3712 00EE                                    l3704 00D0  
                                  l2576 08EC                                    l2568 08E3  
                                  l3640 05AA                                    l3632 059E  
                                  l3624 0566                                    l3616 054B  
                                  l3608 050E                                    l3560 03EB  
                                  l3552 03DF                                    l3544 03D7  
                                  l3536 03D1                                    l3528 03CD  
                                  l3480 03AD                                    l3472 03A9  
                                  l3464 03A1                                    l3456 0390  
                                  l3448 038A                                    l3392 0348  
                                  l3384 0340                                    l3376 0338  
                                  l3368 0325                                    l2594 0A29  
                                  l2850 0CCC                                    l2842 0CC0  
                                  l3298 0E1D                                    l2770 0A67  
                                  l2762 0A51                                    l3810 0310  
                                  l3802 02E1                                    l3730 0130  
                                  l3722 0117                                    l3714 00F2  
                                  l3706 00D3                                    l2578 088F  
                                  l3650 05F6                                    l3642 05AB  
                                  l3634 05A4                                    l3626 057C  
                                  l3618 054F                                    l3570 0413  
                                  l3562 03F0                                    l3554 03E2  
                                  l3546 03D8                                    l3538 03D4  
                                  l3490 03B4                                    l3482 03AE  
                                  l3474 03AA                                    l3466 03A4  
                                  l3458 0393                                    l3394 034B  
                                  l3386 0341                                    l3378 0339  
                                  l2596 0A2A                                    l2860 0CE9  
                                  l2852 0CE0                                    l2844 0CC4  
                                  l2836 0C9C                                    l3900 0A07  
                                  l3820 0D41                                    l2780 09A9  
                                  l2772 0A6B                                    l2764 0A54  
                                  l3812 031B                                    l3804 02E8  
                                  l3740 0168                                    l3732 0154  
                                  l3724 0122                                    l3708 00DA  
                                  l3716 00F9                                    l3660 0992  
                                  l3652 0604                                    l3644 05C3  
                                  l3636 05A7                                    l3628 0581  
                                  l3580 046D                                    l3572 042C  
                                  l3564 03F5                                    l3556 03E5  
                                  l3548 03D9                                    l3492 03B5  
                                  l3484 03AF                                    l3476 03AB  
                                  l3468 03A5                                    l3396 034E  
                                  l3388 0342                                    l2598 0A33  
                                  l2870 0D08                                    l2862 0CEC  
                                  l2854 0CE2                                    l2846 0CC7  
                                  l2838 0CAF                                    l3902 0A0D  
                                  l3910 0951                                    l3830 0D79  
                                  l3822 0D45                                    l2790 09C5  
                                  l2782 09AC                                    l2774 0A6C  
                                  l2766 0A55                                    l3814 0321  
                                  l3806 02ED                                    l3750 01BD  
                                  l3742 016F                                    l3734 0158  
                                  l3726 0128                                    l3718 0107  
                                  l3670 0033                                    l3662 0015  
                                  l3654 097B                                    l3646 05C7  
                                  l3638 05A9                                    l3590 049E  
                                  l3582 0475                                    l3574 043B  
                                  l3566 03FA                                    l3558 03E8  
                                  l3494 03B6                                    l3486 03B2  
                                  l3478 03AC                                    l3398 0351  
                                  l2880 0D23                                    l2872 0D0A  
                                  l2864 0CF6                                    l2856 0CE4  
                                  l2848 0CC9                                    l3904 0A12  
                                  l3912 0953                                    l3920 0B04  
                                  l3840 0DA5                                    l3832 0D84  
                                  l3824 0D50                                    l3816 0D2F  
                                  l2784 09B5                                    l2776 0A6F  
                                  l2768 0A5E                                    l3808 02FB  
                                  l3752 01C1                                    l3744 0171  
                                  l3760 01E4                                    l3728 012F  
                                  l3736 015F                                    l3680 006C  
                                  l3672 0034                                    l3664 0023  
                                  l3656 0986                                    l3648 05F0  
                                  l3592 04A4                                    l3584 048D  
                                  l3576 0448                                    l3568 0400  
                                  l3496 03B7                                    l3488 03B3  
                                  l2882 0D24                                    l2874 0D0C  
                                  l2866 0D05                                    l2858 0CE6  
                                  l3914 0954                                    l3906 093A  
                                  l3922 0B22                                    l3930 0959  
                                  l3850 0DCC                                    l3842 0DAA  
                                  l3834 0D8F                                    l3826 0D54  
                                  l3818 0D34                                    l2786 09BE  
                                  l2778 099D                                    l3770 023F  
                                  l3762 01EF                                    l3746 0178  
                                  l3754 01C8                                    l3738 0165  
                                  l3690 0099                                    l3682 006D  
                                  l3674 0058                                    l3666 0029  
                                  l3658 098B                                    l3594 04AE  
                                  l3586 0492                                    l3578 0462  
                                  l3498 03B8                                    l2884 0D26  
                                  l2876 0D16                                    l2868 0D06  
                                  l3908 0947                                    l3916 0955  
                                  l3924 0B30                                    l3932 0966  
                                  l3940 0974                                    l3860 0DF5  
                                  l3852 0DD2                                    l3844 0DAD  
                                  l3836 0D92                                    l3828 0D70  
                                  l2788 09C2                                    l3780 0266  
                                  l3772 0243                                    l3764 01F1  
                                  l3756 01D7                                    l3748 0179  
                                  l3692 009C                                    l3684 0080  
                                  l3676 005E                                    l3668 002C  
                                  l3596 04C5                                    l3588 0499  
                                  l3870 09C6                                    l3862 08A8  
                                  l2886 0D29                                    l2878 0D21  
                                  l3918 0957                                    l3926 0B35  
                                  l3942 0976                                    l3934 0970  
                                  l3854 0DDC                                    l3846 0DB7  
                                  l3838 0DA2                                    l3782 026D  
                                  l3790 028C                                    l3766 01F8  
                                  l3774 024A                                    l3758 01DD  
                                  l3694 00A3                                    l3686 0084  
                                  l3678 0065                                    l3598 04C6  
                                  l3880 0924                                    l3872 09CF  
                                  l3864 08AE                                    l3928 0B3F  
                                  l3936 0972                                    l3856 0DE7  
                                  l3848 0DC1                                    l3792 029A  
                                  l3784 026E                                    l3776 0259  
                                  l3768 01F9                                    l3696 00A4  
                                  l3688 008B                                    l3890 0939  
                                  l3882 0925                                    l3874 09DD  
                                  l3938 0973                                    l3858 0DEE  
                                  l3794 029D                                    l3786 0281  
                                  l3778 025F                                    l3698 00B7  
                                  l3884 092B                                    l3876 09E2  
                                  l3892 09F3                                    l3796 02A4  
                                  l3788 0285                                    l3886 0936  
                                  l3878 09EC                                    l3894 09F4  
                                  l3798 02A5                                    l3888 0937  
                                  l3896 09FA                                    l3898 09FE  
                                  STR_1 113A                                    STR_2 1126  
                                  STR_3 10FA                                    STR_4 10A3  
                                  STR_5 10C8                                    STR_6 1111  
                                  STR_7 114D                                    STR_8 118D  
                                  STR_9 119C                                    u2110 0A66  
                                  u2111 0A65                                    u2200 0CC4  
                                  u2120 09BD                                    u3000 04C4  
                                  u2201 0CC3                                    u2121 09BC  
                                  u3001 04C3                                    u3010 04F5  
                                  u3011 04F4                                    u3003 04C0  
                                  u3100 00A2                                    u3020 055F  
                                  u3101 00A1                                    u3021 055E  
                                  u3013 04F1                                    u3110 00C1  
                                  u3030 0565                                    u2215 0CD2  
                                  u3111 00C0                                    u3031 0564  
                                  u3120 00D9                                    u3040 0603  
                                  u3121 00D8                                    u3041 0602  
                                  u2410 0A93                                    u3210 01B2  
                                  u3130 00F8                                    u3050 098B  
                                  u2411 0A92                                    u3131 00F7  
                                  u3051 098A                                    u2180 0CB8  
                                  u3300 0265                                    u3220 01C7  
                                  u3140 0117                                    u3060 0032  
                                  u2405 0A87                                    u2181 0CB7  
                                  u3301 0264                                    u3221 01C6  
                                  u3205 01A4                                    u3141 0116  
                                  u3061 0031                                    u2190 0CC0  
                                  u3310 026C                                    u3230 01E3  
                                  u3150 012E                                    u3070 0064  
                                  u2191 0CBF                                    u3311 026B  
                                  u3231 01E2                                    u3215 01AD  
                                  u3151 012D                                    u3071 0063  
                                  u3400 0DDC                                    u3320 028B  
                                  u3240 01EE                                    u3160 015E  
                                  u3080 006B                                    u3401 0DDB  
                                  u3321 028A                                    u3241 01ED  
                                  u3161 015D                                    u3081 006A  
                                  u3410 0DF4                                    u3330 02A3  
                                  u3250 01F7                                    u3170 016E  
                                  u3090 008A                                    u3411 0DF3  
                                  u3331 02A2                                    u3251 01F6  
                                  u3171 016D                                    u3091 0089  
                                  u2380 0A79                                    u3420 08AD  
                                  u3180 0177                                    u2381 0A78  
                                  u3421 08AC                                    u3181 0176  
                                  u3430 0A18                                    u3350 02D2  
                                  u3431 0A17                                    u3600 0BF2  
                                  u3520 091D                                    u3440 0947  
                                  u3360 02E7                                    u3280 0234  
                                  u3601 0BF1                                    u3521 091C  
                                  u3441 0946                                    u3361 02E6  
                                  u3345 02C4                                    u3265 01FC  
                                  u3530 0AB3                                    u3450 0966  
                                  u3370 0D45                                    u3290 0249  
                                  u2395 0A80                                    u3451 0965  
                                  u3371 0D44                                    u3355 02CD  
                                  u3291 0248                                    u3275 0225  
                                  u3195 017C                                    u3700 0B7E  
                                  u3620 0C05                                    u3540 0AB7  
                                  u2900 0EC7                                    u3380 0D83  
                                  u3701 0B7D                                    u3621 0C04  
                                  u2901 0EC6                                    u3381 0D82  
                                  u3285 022F                                    u3550 0ABD  
                                  u1790 0A3B                                    u2910 0ED1  
                                  u3390 0DC1                                    u3615 0BF5  
                                  u3551 0ABC                                    u1791 0A3A  
                                  u2911 0ED0                                    u3391 0DC0  
                                  u3640 0C1A                                    u3560 0AC1  
                                  u2920 0EFA                                    u3641 0C19  
                                  u3625 0C01                                    u2921 0EF9  
                                  u3650 0B4B                                    u2930 0F0A  
                                  u2850 0E0F                                    u3651 0B4A  
                                  u3635 0C0E                                    u2931 0F09  
                                  u2851 0E0E                                    _PEIE 005E  
                                  u3580 0BDF                                    u2940 0F1C  
                                  u2860 0E51                                    u3581 0BDE  
                                  u2941 0F1B                                    u2925 0EF6  
                                  u2861 0E50                                    u3717 0902  
                                  u3670 0B5E                                    u2950 0FDE  
                                  u2870 0E65                                    u3671 0B5D  
                                  u2951 0FDD                                    u2871 0E64  
                                  u3727 001D                                    u3680 0B6A  
                                  u2960 0FFD                                    u2880 0E8E  
                                  u3681 0B69                                    u3665 0B4F  
                                  u2961 0FFC                                    u2881 0E8D  
                                  u3737 0316                                    u2890 0EB7  
                                  u3595 0BE3                                    u2891 0EB6  
                                  u3747 0A59                                    u2980 046D  
                                  _RCIF 0065                                    u3685 0B66  
                                  u3757 09B0                                    u2981 046C  
                                  u2990 0473                                    u3695 0B72  
                                  u2895 0EB3                                    u3767 0DA7  
                                  u2991 0472                                    u2975 0407  
                                  u3777 0DB1                                    u3787 0A2E  
                                  u3797 0911                                    _TXIF 0064  
                                  _flag 02D8                                    _main 0325  
                                  btemp 007E                                    start 0012  
             __size_of_adcReadVsupercap 0029                         __end_ofi1_putch 08A5  
                         _SPI_Write_Buf 09F0                         SPI_Read_Reg@reg 0038  
                         _SPI_Write_Reg 08C4                           __CFG_MCLRE$ON 0000  
                                 ??_ISR 002E                           __CFG_PLLEN$ON 0000  
                                 ?_main 00AC                         __end_of_adcInit 0899  
                                 _ADRES 001E                                   STR_10 1199  
                                 STR_11 1170                                   STR_12 10E2  
                                 STR_13 1197                                   STR_14 1181  
                                 STR_16 115F                           __CFG_WDTE$OFF 0000  
                       __end_of___lwdiv 0C24                                   i1l230 089B  
                                 i1l231 08A2                                   i1l232 08A4  
                                 i1l400 07BC                                   i1l160 0C64  
                                 i1l401 0626                                   i1l161 0C6C  
                                 i1l410 06F4                                   i1l402 0627  
                                 i1l162 0C74                                   i1l411 0685  
                                 i1l403 0656                                   i1l155 0C91  
                                 i1l163 0C91                                   i1l420 070A  
                                 i1l412 068F                                   i1l404 0628  
                                 i1l156 0C8F                                   i1l229 089B  
                                 i1l421 0791                                   i1l413 06BB  
                                 i1l405 0628                                   i1l157 0C7D  
                                 i1l422 0711                                   i1l414 06B0  
                                 i1l406 062A                                   i1l158 0C5F  
                                 i1l423 0781                                   i1l415 06FD  
                                 i1l407 0677                                   i1l159 0C8C  
                                 i1l424 0712                                   i1l416 06BC  
                                 i1l408 0676                                   i1l425 078A  
                                 i1l417 06C6                                   i1l409 0684  
                       __end_of___lwmod 0B88                                   i1l450 0BCC  
                                 i1l426 0749                                   i1l418 06F2  
                                 i1l451 0BD4                                   i1l427 079E  
                                 i1l419 06E7                                   i1l444 0BCD  
                                 i1l460 07F7                                   i1l428 07BB  
                                 i1l445 0B9F                                   i1l461 07FF  
                                 i1l429 07BC                                   i1l446 0B93  
                                 i1l454 07F8                                   i1l447 0BA4  
                                 i1l455 07D2                                   i1l448 0BA5  
                                 i1l456 07C6                                   i1l449 0BBE  
                                 i1l457 07D7                                   i1l458 07D8  
                                 i1l459 07E9                                   i1l395 079F  
                                 i1l396 0616                                   i1l397 0623  
                                 i1l398 0632                                   i1l399 0625  
                                 _RCREG 001A                                   _RCSTA 0018  
                                 _TMR1H 000F                                   _TMR1L 000E  
                                 _SPBRG 0099                                   _PORTD 0008  
                                 _TXREG 0019                                   _TXSTA 0098  
                    i1___lwmod@dividend 007A                         __end_of_dpowers 108D  
                                 _sleep 0C9C                                   _value 00DD  
                                 _putch 08A5                                   main@i 00D7  
                                 pclath 000A                         __end_of_spiInit 0908  
                        Send_Packet@len 004C                                   status 0003  
                                 wtemp0 007E                      __size_ofi1___lwdiv 004D  
                    __size_ofi1___lwmod 0043                        __end_ofi1_printf 07BD  
                        ?_SPI_Write_Buf 0037                          ?_SPI_Write_Reg 0037  
                            i1printf@ap 0026                         __initialization 0ACE  
                          __end_of_main 060F        __end_of_rfm70TxDataSentInterrupt 0959  
                         ??_Send_Packet 004D                                  ??_main 00B0  
                                ?_sleep 0070                                  ?_putch 0070  
                                i1l3200 066C                                  i1l3130 089A  
                                i1l3210 068E                                  i1l3202 0670  
                                i1l3132 08A2                                  i1l3140 0B93  
                                i1l3220 06BE                                  i1l3212 068F  
                                i1l3204 0677                                  i1l3150 0BBC  
                                i1l3142 0B9A                                  i1l3134 0B88  
                                i1l3230 06EB                                  i1l3222 06C5  
                                i1l3214 06AF                                  i1l3206 067F  
                                i1l3152 0BBE                                  i1l3144 0B9F  
                                i1l3136 0B8A                                  i1l3160 07BD  
                                i1l3240 070A                                  i1l3232 06F3  
                                i1l3224 06C6                                  i1l3216 06B0  
                                i1l3208 0687                                  i1l3154 0BC5  
                                i1l3146 0BA5                                  i1l3138 0B90  
                                i1l3170 07D8                                  i1l3162 07C3  
                                i1l3242 0712                                  i1l3250 0781  
                                i1l3226 06E6                                  i1l3218 06B4  
                                i1l3234 06F4                                  i1l3148 0BB6  
                                i1l3156 0BCD                                  i1l3180 07FF  
                                i1l3172 07E2                                  i1l3164 07C6  
                                i1l3244 0749                                  i1l3252 078A  
                                i1l3228 06E7                                  i1l3236 06FD  
                                i1l3260 0C28                                  i1l3158 0BD4  
                                i1l3174 07E9                                  i1l3166 07CD  
                                i1l3246 0770                                  i1l3254 0791  
                                i1l3238 0703                                  i1l3190 0631  
                                i1l3182 060F                                  i1l3270 0C3E  
                                i1l3262 0C2C                                  i1l3176 07F0  
                                i1l3168 07D2                                  i1l3248 0780  
                                i1l3192 0632                                  i1l3184 0616  
                                i1l3256 079F                                  i1l3280 0C7C  
                                i1l3272 0C4F                                  i1l3264 0C2E  
                                i1l3178 07F8                                  i1l3194 065C  
                                i1l3186 061C                                  i1l3274 0C64  
                                i1l3282 0C7D                                  i1l3266 0C2F  
                                i1l3258 0C24                                  i1l3196 0664  
                                i1l3188 062A                                  i1l3276 0C6C  
                                i1l3268 0C35                                  i1l3198 0668  
                                i1l3278 0C74                                  u260_20 0BB6  
                                u260_21 0BB5                                  u260_25 0BB2  
                                u261_25 0BBF                                  u262_20 0BCB  
                                u270_20 065C                                  u262_21 0BCA  
                                u270_21 065B                                  u255_20 08A1  
                                u263_20 07C3                                  u271_20 066C  
                                u255_21 08A0                                  u263_21 07C2  
                                u271_21 066B                                  u256_20 0B90  
                                u280_20 07BA                                  u272_20 068D  
                                u256_21 0B8F                                  u280_21 07B9  
                                u272_21 068C                                  u264_25 07C7  
                                u265_20 07D6                                  u273_20 06AE  
                                u281_20 0C28                                  u265_21 07D5  
                                u273_21 06AD                                  u281_21 0C27  
                                u257_25 0B94                                  u273_25 06AA  
                                u258_20 0BA3                                  u266_20 07E2  
                                u274_20 06BA                                  u282_20 0C35  
                                u258_21 0BA2                                  u266_21 07E1  
                                u274_21 06B9                                  u282_21 0C34  
                                u266_25 07DE                                  u275_20 06C4  
                                u275_21 06C3                                  u259_25 0BA6  
                                u267_25 07EA                                  u283_25 0C43  
                                u268_20 07F6                                  u276_20 06E5  
                                u268_21 07F5                                  u276_21 06E4  
                                u276_25 06E1                                  u284_25 0C54  
                                u277_20 06F1                                  u269_20 061C  
                                u277_21 06F0                                  u269_21 061B  
                                u278_20 0703                                  u278_21 0702  
                                u279_20 079D                                  u279_21 079C  
                             ??i1_putch 0070                                  _TMR1IE 0460  
                                _TMR1IF 0060                                  _SSPBUF 0013  
                                _SPI_RW 0908                          __CFG_PWRTE$OFF 0000  
                          SwitchCFG@Tmp 003C                RFM70_Initialize@WriteArr 0044  
                     RFM70_Initialize@i 0050                       RFM70_Initialize@j 0051  
                                ___wmul 0A70                               ??_adcInit 0034  
                      SPI_Write_Buf@reg 003A                               ??___lwdiv 0038  
                             ??___lwmod 0040                                  _values 00DF  
                        _SwitchToRxMode 0B04                                  _printf 0E00  
                      SPI_Write_Reg@reg 0038                                  _rx_buf 0190  
                      _RFM70_Initialize 0015                          _SwitchToTxMode 09C6  
                     __end_of_Bank0_Reg 1078                                  _tx_buf 00E3  
                                clrloop 0880                           main@num_sleep 00D4  
                     __end_ofi1___lwdiv 0BD5                       __end_ofi1___lwmod 0800  
                      __end_of_uartInit 08F0                                  saved_w 007E  
                   __end_of_Send_Packet 0E00                         Send_Packet@pbuf 004B  
                             ??_spiInit 0034                         Send_Packet@type 00A9  
                                putch@c 0034                     SwitchToRxMode@value 003B  
                    __size_of_SwitchCFG 0032                 __end_of__initialization 0B00  
                       ??_SPI_Write_Buf 0039                         ??_SPI_Write_Reg 0038  
                      _adcReadVsupercap 099D                             i1printf@idx 0025  
                     SPI_Read_Reg@value 0039                          __pcstackCOMMON 0070  
 __end_of_rfm70TxDataSentErrorInterrupt 0978  __size_of_rfm70TxDataSentErrorInterrupt 001F  
         _rfm70TxDataSentErrorInterrupt 0959                            __pidataBANK0 087A  
                          __pidataBANK1 0887                  __end_of_SwitchToRxMode 0B43  
                __end_of_SwitchToTxMode 09F0                           __end_of_sleep 0D2C  
                         __end_of_putch 08B1                            _charge_pulse 0052  
                             ?i1_printf 0020                           ??_adcReadVcap 0034  
                         ??_adcReadTemp 0034                     SwitchToTxMode@value 003B  
                               ??_sleep 0037                                 ??_putch 0034  
                            __pbssBANK0 0057                              __pbssBANK1 00DB  
                            __pbssBANK3 0190       __size_of_rfm70TxDataSentInterrupt 001F  
             ?_rfm70TxDataSentInterrupt 0070                                 ?_SPI_RW 0070  
                            __pmaintext 0325                                 ?___wmul 0034  
                            __pintentry 0004                                 _DACCON0 0113  
                               _DACCON1 0114                         ?_SwitchToRxMode 0070  
                       ?_SwitchToTxMode 0070                              __ptext1031 08F0  
                            __ptext1040 0959                              __ptext1032 08DA  
                            __ptext1041 0B04                              __ptext1033 088F  
                            __ptext1050 0921                              __ptext1042 093A  
                            __ptext1034 0978                              __ptext1051 0908  
                            __ptext1043 09F0                              __ptext1035 0015  
                            __ptext1060 0000                              __ptext1052 0A70  
                            __ptext1044 0C9C                              __ptext1036 0A45  
                            __ptext1053 0BD5                              __ptext1045 0A1A  
                            __ptext1037 099D                              __ptext1054 0B43  
                            __ptext1046 08A5                              __ptext1038 0D2C  
                            __ptext1055 0C24                              __ptext1047 09C6  
                            __ptext1039 0E00                              __ptext1056 060F  
                            __ptext1048 0A9C                              __ptext1057 07BD  
                            __ptext1049 08C4                              __ptext1058 0B88  
                            __ptext1059 0899                             _Send_Packet 0D2C  
                     __end_of_SwitchCFG 0ACE                                 ?_printf 0042  
                 _rfm70setPowerdownMode 0978              rfm70setPowerdownMode@value 003B  
                            ??i1_printf 0022                              __stringtab 1000  
                        sleep@new_value 0039                                 i1_putch 0899  
                   __end_of_adcReadVcap 0A45                     __end_of_adcReadTemp 0A70  
                       __size_of_SPI_RW 0019                           SwitchCFG@_cfg 003B  
                             ?_uartInit 0070                                 _adcInit 088F  
                       __size_of___wmul 002C                                 ___lwdiv 0BD5  
                               ___lwmod 0B43                       SPI_Write_Buf@pBuf 0037  
        ?_rfm70TxDataSentErrorInterrupt 0070                         __size_of_printf 0200  
                          __size_of_ISR 0078                       __end_of_hexpowers 1095  
                             _T1CONbits 0010                                 _dpowers 1083  
                     i1___lwdiv@divisor 0070                       i1___lwdiv@counter 0075  
                               _spiInit 08F0                              _tmr1Target 0056  
                  end_of_initialization 0B00                                 init_ram 08B5  
              __end_of_RFM70_Initialize 0325                              ??_uartInit 0034  
                             _RCSTAbits 0018                                 printf@c 00A8  
                               printf@f 0042                         _timelapse_count 00DB  
                          __pstringtext 1000                               _PORTAbits 0005  
                             _PORTBbits 0006                               _PORTCbits 0007  
                             _PORTDbits 0008                               _PORTEbits 0009  
                ?_rfm70setPowerdownMode 0070                __end_of_adcReadVsupercap 09C6  
                      __CFG_FOSC$INTOSC 0000                               _TRISAbits 0085  
                             _TRISBbits 0086                               _Bank0_Reg 104A  
                             _TRISCbits 0087                               _TRISDbits 0088  
                             _TRISEbits 0089                               i1___lwdiv 0B88  
                           _adcReadVcap 0A1A                               i1___lwmod 07BD  
                           _adcReadTemp 0A45                   __end_of_Bank1_Reg0_13 104A  
                             _TXSTAbits 0098                            i1printf@_val 0029  
                          i1printf@flag 0028                          __end_of_SPI_RW 0921  
                          Send_Packet@i 00AB                            i1printf@prec 0027  
                         ?_SPI_Read_Reg 0070                             SPI_RW@value 0036  
                        __end_of___wmul 0A9C                        adcReadVcap@value 0036  
                     i1___lwmod@divisor 0078                           __pbitbssBANK0 02D8  
                     i1___lwmod@counter 007D                          __end_of_printf 1000  
                   start_initialization 0ACE                             __end_of_ISR 0C9C  
                             i1printf@c 002D                               i1printf@f 0020  
                      adcReadTemp@value 0036                              ?i1___lwdiv 0070  
                            ?i1___lwmod 0078                       __size_ofi1_printf 01AE  
                              ??_SPI_RW 0034                          ??_SPI_Read_Reg 0037  
                 __end_of_SPI_Write_Buf 0A1A                   __end_of_SPI_Write_Reg 08DA  
                      ??_SwitchToRxMode 003A                        ??_SwitchToTxMode 003A  
                              ??___wmul 0038                             __pdataBANK0 0052  
                           __pdataBANK1 00E3                            ?_Send_Packet 004B  
                              ??_printf 0048                               _SwitchCFG 0A9C  
                         __pcstackBANK0 0020                           __pcstackBANK1 00A0  
                   __end_of__stringdata 119F                             _charge_time 0057  
                             _dac_value 0054                                ?i1_putch 0070  
                      ___lwdiv@dividend 0036                                ?_adcInit 0070  
                   SPI_Write_Buf@length 0038                                ?___lwdiv 0034  
                     __size_of_uartInit 0016                                ?___lwmod 003C  
                            ?_SwitchCFG 0070                     Send_Packet@fifo_sta 00AA  
                              ?_spiInit 0070                   SPI_Write_Buf@byte_ctr 003B  
                 adcReadVsupercap@value 0036                _rfm70TxDataSentInterrupt 093A  
                             _hexpowers 108D                        ___lwdiv@quotient 003A  
                           ??i1___lwdiv 0074                             ??i1___lwmod 007C  
                        __size_of_sleep 0090                          __size_of_putch 000C  
       ??_rfm70TxDataSentErrorInterrupt 003A                       interrupt_function 0004  
                        ___wmul@product 0038                       ?_RFM70_Initialize 0070  
                    ??_RFM70_Initialize 003D                                _PIR1bits 000C  
               ??_rfm70setPowerdownMode 003A                              _ADCON0bits 001F  
                           __stringbase 1012                              _ADCON1bits 009F  
                           __stringdata 10A3                       ___wmul@multiplier 0034  
                  __end_of_Bank0_RegAct 10A3                              printf@_val 00A4  
                            printf@flag 00A3                              printf@prec 00A2  
                     ?_adcReadVsupercap 0070                    __end_of_SPI_Read_Reg 093A  
                              i1_printf 060F                      ??_adcReadVsupercap 0034  
                         _sleep_counter 0059                            ?_adcReadVcap 0070  
                          ?_adcReadTemp 0070                                i1putch@c 0070  
                      __size_ofi1_putch 000C                               init_fetch 08B1  
                      __size_of_adcInit 000A                     __end_of_RX0_Address 109A  
                      __size_of___lwdiv 004F                        __size_of___lwmod 0045  
                   __end_of_RX1_Address 109F                      __end_of__stringtab 1012  
                            _ANSELAbits 0185                              _ANSELBbits 0186  
                            _ANSELCbits 0187                              _ANSELDbits 0188  
                            _ANSELEbits 0189                    __size_of_Send_Packet 00D4  
                           ??_SwitchCFG 003A                         ___lwdiv@divisor 0034  
                       ___lwdiv@counter 0039                              _T1GCONbits 008F  
                      __size_of_spiInit 0018                      i1___lwdiv@dividend 0072  
                         __size_of_main 02EA                                clear_ram 087F  
                              _uartInit 08DA                      SPI_Write_Reg@value 0037  
                   __end_of_Bank1_Reg14 1083                             _tmr1Counter 005A  
                             printf@idx 00A0                                main@argc 00AC  
                              main@argv 00AE                                main@temp 00D5  
                       main@temp_tx_buf 00B4                      i1___lwdiv@quotient 0076  
              rfm70setPowerdownMode@reg 003C                              _FVRCONbits 009D  
                              intlevel1 0000                        ___lwmod@dividend 003E  
                           _jumper_stat 00E1                               stringcode 100A  
                            _OSCCONbits 0090                             _RX0_Address 1095  
                           _RX1_Address 109A                                printf@ap 00A1  
                           _sleep_count 00E2              ??_rfm70TxDataSentInterrupt 003A  
                 __size_of_SPI_Read_Reg 0019                         ___lwmod@divisor 003C  
                       ___lwmod@counter 0041                                stringtab 1000  
                __size_of_SPI_Write_Buf 002A                  __size_of_SPI_Write_Reg 0016  
                         _Bank1_Reg0_13 1012                    __size_of_adcReadVcap 002B  
                  __size_of_adcReadTemp 002B                            _Bank0_RegAct 109F  
                            _SSPCONbits 0014                             _Bank1_Reg14 1078  
                          _SPI_Read_Reg 0921  
