

Microchip Technology PIC LITE Macro Assembler V1.12 build 49521 
                                                                                               Wed Apr 24 11:54:40 2013

HI-TECH Software Omniscient Code Generator (Lite mode) build 49521
     1  0000                     opt subtitle "HI-TECH Software Omniscient Code Generator (Lite mode) build 49521"
     2                           opt subtitle "HI-TECH Software Omniscient Code Generator (Lite mode) build 49521"
     3                           
     4                           opt pagewidth 120
     5                           
     6                           	opt lm
     7                           
     8                           	processor	16F707
     9                           clrc	macro
    10  0000                     	endm
    11                           opt subtitle "HI-TECH Software Omniscient Code Generator (Lite mode) build 49521"
    12                           
    13  0000                     	endm
    14                           opt subtitle "HI-TECH Software Omniscient Code Generator (Lite mode) build 49521"
    15                           
    16  0000                     	endm
    17                           opt subtitle "HI-TECH Software Omniscient Code Generator (Lite mode) build 49521"
    18                           
    19  0000                     	endm
    20                           opt subtitle "HI-TECH Software Omniscient Code Generator (Lite mode) build 49521"
    21                           
    22  0000                     	endm
    23                           opt subtitle "HI-TECH Software Omniscient Code Generator (Lite mode) build 49521"
    24                           
    25  0000                     	endm
    26                           opt subtitle "HI-TECH Software Omniscient Code Generator (Lite mode) build 49521"
    27                           
    28  0000                     	endm
    29                           opt subtitle "HI-TECH Software Omniscient Code Generator (Lite mode) build 49521"
    30                           
    31  0000                     	endm
    32  0000                     indf	equ	0
    33  0000                     indf0	equ	0
    34  0002                     pc	equ	2
    35  0002                     pcl	equ	2
    36  0003                     status	equ	3
    37  0004                     fsr	equ	4
    38  0004                     fsr0	equ	4
    39  0001                     c	equ	1
    40  0000                     z	equ	0
    41  000A                     pclath	equ	10
    42                           opt subtitle "HI-TECH Software Omniscient Code Generator (Lite mode) build 49521"
    43  0000                     INDF equ 00h ;# 
    44                           opt subtitle "HI-TECH Software Omniscient Code Generator (Lite mode) build 49521"
    45  0001                     TMR0 equ 01h ;# 
    46                           opt subtitle "HI-TECH Software Omniscient Code Generator (Lite mode) build 49521"
    47  0002                     PCL equ 02h ;# 
    48                           opt subtitle "HI-TECH Software Omniscient Code Generator (Lite mode) build 49521"
    49  0003                     STATUS equ 03h ;# 
    50                           opt subtitle "HI-TECH Software Omniscient Code Generator (Lite mode) build 49521"
    51  0004                     FSR equ 04h ;# 
    52                           opt subtitle "HI-TECH Software Omniscient Code Generator (Lite mode) build 49521"
    53  0005                     PORTA equ 05h ;# 
    54                           opt subtitle "HI-TECH Software Omniscient Code Generator (Lite mode) build 49521"
    55  0006                     PORTB equ 06h ;# 
    56                           opt subtitle "HI-TECH Software Omniscient Code Generator (Lite mode) build 49521"
    57  0007                     PORTC equ 07h ;# 
    58                           opt subtitle "HI-TECH Software Omniscient Code Generator (Lite mode) build 49521"
    59  0008                     PORTD equ 08h ;# 
    60                           opt subtitle "HI-TECH Software Omniscient Code Generator (Lite mode) build 49521"
    61  0009                     PORTE equ 09h ;# 
    62                           opt subtitle "HI-TECH Software Omniscient Code Generator (Lite mode) build 49521"
    63  000A                     PCLATH equ 0Ah ;# 
    64                           opt subtitle "HI-TECH Software Omniscient Code Generator (Lite mode) build 49521"
    65  000B                     INTCON equ 0Bh ;# 
    66                           opt subtitle "HI-TECH Software Omniscient Code Generator (Lite mode) build 49521"
    67  000C                     PIR1 equ 0Ch ;# 
    68                           opt subtitle "HI-TECH Software Omniscient Code Generator (Lite mode) build 49521"
    69  000D                     PIR2 equ 0Dh ;# 
    70                           opt subtitle "HI-TECH Software Omniscient Code Generator (Lite mode) build 49521"
    71  000E                     TMR1 equ 0Eh ;# 
    72                           opt subtitle "HI-TECH Software Omniscient Code Generator (Lite mode) build 49521"
    73  000E                     TMR1L equ 0Eh ;# 
    74                           opt subtitle "HI-TECH Software Omniscient Code Generator (Lite mode) build 49521"
    75  000F                     TMR1H equ 0Fh ;# 
    76                           opt subtitle "HI-TECH Software Omniscient Code Generator (Lite mode) build 49521"
    77  0010                     T1CON equ 010h ;# 
    78                           opt subtitle "HI-TECH Software Omniscient Code Generator (Lite mode) build 49521"
    79  0011                     TMR2 equ 011h ;# 
    80                           opt subtitle "HI-TECH Software Omniscient Code Generator (Lite mode) build 49521"
    81  0012                     T2CON equ 012h ;# 
    82                           opt subtitle "HI-TECH Software Omniscient Code Generator (Lite mode) build 49521"
    83  0013                     SSPBUF equ 013h ;# 
    84                           opt subtitle "HI-TECH Software Omniscient Code Generator (Lite mode) build 49521"
    85  0014                     SSPCON equ 014h ;# 
    86                           opt subtitle "HI-TECH Software Omniscient Code Generator (Lite mode) build 49521"
    87  0015                     CCPR1 equ 015h ;# 
    88                           opt subtitle "HI-TECH Software Omniscient Code Generator (Lite mode) build 49521"
    89  0015                     CCPR1L equ 015h ;# 
    90                           opt subtitle "HI-TECH Software Omniscient Code Generator (Lite mode) build 49521"
    91  0016                     CCPR1H equ 016h ;# 
    92                           opt subtitle "HI-TECH Software Omniscient Code Generator (Lite mode) build 49521"
    93  0017                     CCP1CON equ 017h ;# 
    94                           opt subtitle "HI-TECH Software Omniscient Code Generator (Lite mode) build 49521"
    95  0018                     RCSTA equ 018h ;# 
    96                           opt subtitle "HI-TECH Software Omniscient Code Generator (Lite mode) build 49521"
    97  0019                     TXREG equ 019h ;# 
    98                           opt subtitle "HI-TECH Software Omniscient Code Generator (Lite mode) build 49521"
    99  001A                     RCREG equ 01Ah ;# 
   100                           opt subtitle "HI-TECH Software Omniscient Code Generator (Lite mode) build 49521"
   101  001B                     CCPR2 equ 01Bh ;# 
   102                           opt subtitle "HI-TECH Software Omniscient Code Generator (Lite mode) build 49521"
   103  001B                     CCPR2L equ 01Bh ;# 
   104                           opt subtitle "HI-TECH Software Omniscient Code Generator (Lite mode) build 49521"
   105  001C                     CCPR2H equ 01Ch ;# 
   106                           opt subtitle "HI-TECH Software Omniscient Code Generator (Lite mode) build 49521"
   107  001D                     CCP2CON equ 01Dh ;# 
   108                           opt subtitle "HI-TECH Software Omniscient Code Generator (Lite mode) build 49521"
   109  001E                     ADRES equ 01Eh ;# 
   110                           opt subtitle "HI-TECH Software Omniscient Code Generator (Lite mode) build 49521"
   111  001F                     ADCON0 equ 01Fh ;# 
   112                           opt subtitle "HI-TECH Software Omniscient Code Generator (Lite mode) build 49521"
   113  0081                     OPTION_REG equ 081h ;# 
   114                           opt subtitle "HI-TECH Software Omniscient Code Generator (Lite mode) build 49521"
   115  0085                     TRISA equ 085h ;# 
   116                           opt subtitle "HI-TECH Software Omniscient Code Generator (Lite mode) build 49521"
   117  0086                     TRISB equ 086h ;# 
   118                           opt subtitle "HI-TECH Software Omniscient Code Generator (Lite mode) build 49521"
   119  0087                     TRISC equ 087h ;# 
   120                           opt subtitle "HI-TECH Software Omniscient Code Generator (Lite mode) build 49521"
   121  0088                     TRISD equ 088h ;# 
   122                           opt subtitle "HI-TECH Software Omniscient Code Generator (Lite mode) build 49521"
   123  0089                     TRISE equ 089h ;# 
   124                           opt subtitle "HI-TECH Software Omniscient Code Generator (Lite mode) build 49521"
   125  008C                     PIE1 equ 08Ch ;# 
   126                           opt subtitle "HI-TECH Software Omniscient Code Generator (Lite mode) build 49521"
   127  008D                     PIE2 equ 08Dh ;# 
   128                           opt subtitle "HI-TECH Software Omniscient Code Generator (Lite mode) build 49521"
   129  008E                     PCON equ 08Eh ;# 
   130                           opt subtitle "HI-TECH Software Omniscient Code Generator (Lite mode) build 49521"
   131  008F                     T1GCON equ 08Fh ;# 
   132                           opt subtitle "HI-TECH Software Omniscient Code Generator (Lite mode) build 49521"
   133  0090                     OSCCON equ 090h ;# 
   134                           opt subtitle "HI-TECH Software Omniscient Code Generator (Lite mode) build 49521"
   135  0091                     OSCTUNE equ 091h ;# 
   136                           opt subtitle "HI-TECH Software Omniscient Code Generator (Lite mode) build 49521"
   137  0092                     PR2 equ 092h ;# 
   138                           opt subtitle "HI-TECH Software Omniscient Code Generator (Lite mode) build 49521"
   139  0093                     SSPADD equ 093h ;# 
   140                           opt subtitle "HI-TECH Software Omniscient Code Generator (Lite mode) build 49521"
   141  0093                     SSPMSK equ 093h ;# 
   142                           opt subtitle "HI-TECH Software Omniscient Code Generator (Lite mode) build 49521"
   143  0094                     SSPSTAT equ 094h ;# 
   144                           opt subtitle "HI-TECH Software Omniscient Code Generator (Lite mode) build 49521"
   145  0095                     WPUB equ 095h ;# 
   146                           opt subtitle "HI-TECH Software Omniscient Code Generator (Lite mode) build 49521"
   147  0096                     IOCB equ 096h ;# 
   148                           opt subtitle "HI-TECH Software Omniscient Code Generator (Lite mode) build 49521"
   149  0097                     T3CON equ 097h ;# 
   150                           opt subtitle "HI-TECH Software Omniscient Code Generator (Lite mode) build 49521"
   151  0098                     TXSTA equ 098h ;# 
   152                           opt subtitle "HI-TECH Software Omniscient Code Generator (Lite mode) build 49521"
   153  0099                     SPBRG equ 099h ;# 
   154                           opt subtitle "HI-TECH Software Omniscient Code Generator (Lite mode) build 49521"
   155  009A                     TMR3 equ 09Ah ;# 
   156                           opt subtitle "HI-TECH Software Omniscient Code Generator (Lite mode) build 49521"
   157  009A                     TMR3L equ 09Ah ;# 
   158                           opt subtitle "HI-TECH Software Omniscient Code Generator (Lite mode) build 49521"
   159  009B                     TMR3H equ 09Bh ;# 
   160                           opt subtitle "HI-TECH Software Omniscient Code Generator (Lite mode) build 49521"
   161  009C                     APFCON equ 09Ch ;# 
   162                           opt subtitle "HI-TECH Software Omniscient Code Generator (Lite mode) build 49521"
   163  009D                     FVRCON equ 09Dh ;# 
   164                           opt subtitle "HI-TECH Software Omniscient Code Generator (Lite mode) build 49521"
   165  009E                     T3GCON equ 09Eh ;# 
   166                           opt subtitle "HI-TECH Software Omniscient Code Generator (Lite mode) build 49521"
   167  009F                     ADCON1 equ 09Fh ;# 
   168                           opt subtitle "HI-TECH Software Omniscient Code Generator (Lite mode) build 49521"
   169  0105                     TACON equ 0105h ;# 
   170                           opt subtitle "HI-TECH Software Omniscient Code Generator (Lite mode) build 49521"
   171  0106                     CPSBCON0 equ 0106h ;# 
   172                           opt subtitle "HI-TECH Software Omniscient Code Generator (Lite mode) build 49521"
   173  0107                     CPSBCON1 equ 0107h ;# 
   174                           opt subtitle "HI-TECH Software Omniscient Code Generator (Lite mode) build 49521"
   175  0108                     CPSACON0 equ 0108h ;# 
   176                           opt subtitle "HI-TECH Software Omniscient Code Generator (Lite mode) build 49521"
   177  0109                     CPSACON1 equ 0109h ;# 
   178                           opt subtitle "HI-TECH Software Omniscient Code Generator (Lite mode) build 49521"
   179  010C                     PMDATL equ 010Ch ;# 
   180                           opt subtitle "HI-TECH Software Omniscient Code Generator (Lite mode) build 49521"
   181  010D                     PMADRL equ 010Dh ;# 
   182                           opt subtitle "HI-TECH Software Omniscient Code Generator (Lite mode) build 49521"
   183  010E                     PMDATH equ 010Eh ;# 
   184                           opt subtitle "HI-TECH Software Omniscient Code Generator (Lite mode) build 49521"
   185  010F                     PMADRH equ 010Fh ;# 
   186                           opt subtitle "HI-TECH Software Omniscient Code Generator (Lite mode) build 49521"
   187  0110                     TMRA equ 0110h ;# 
   188                           opt subtitle "HI-TECH Software Omniscient Code Generator (Lite mode) build 49521"
   189  0111                     TBCON equ 0111h ;# 
   190                           opt subtitle "HI-TECH Software Omniscient Code Generator (Lite mode) build 49521"
   191  0112                     TMRB equ 0112h ;# 
   192                           opt subtitle "HI-TECH Software Omniscient Code Generator (Lite mode) build 49521"
   193  0113                     DACCON0 equ 0113h ;# 
   194                           opt subtitle "HI-TECH Software Omniscient Code Generator (Lite mode) build 49521"
   195  0114                     DACCON1 equ 0114h ;# 
   196                           opt subtitle "HI-TECH Software Omniscient Code Generator (Lite mode) build 49521"
   197  0185                     ANSELA equ 0185h ;# 
   198                           opt subtitle "HI-TECH Software Omniscient Code Generator (Lite mode) build 49521"
   199  0186                     ANSELB equ 0186h ;# 
   200                           opt subtitle "HI-TECH Software Omniscient Code Generator (Lite mode) build 49521"
   201  0187                     ANSELC equ 0187h ;# 
   202                           opt subtitle "HI-TECH Software Omniscient Code Generator (Lite mode) build 49521"
   203  0188                     ANSELD equ 0188h ;# 
   204                           opt subtitle "HI-TECH Software Omniscient Code Generator (Lite mode) build 49521"
   205  0189                     ANSELE equ 0189h ;# 
   206                           opt subtitle "HI-TECH Software Omniscient Code Generator (Lite mode) build 49521"
   207  018C                     PMCON1 equ 018Ch ;# 
   208                           opt subtitle "HI-TECH Software Omniscient Code Generator (Lite mode) build 49521"
   209  0000                     INDF equ 00h ;# 
   210                           opt subtitle "HI-TECH Software Omniscient Code Generator (Lite mode) build 49521"
   211  0001                     TMR0 equ 01h ;# 
   212                           opt subtitle "HI-TECH Software Omniscient Code Generator (Lite mode) build 49521"
   213  0002                     PCL equ 02h ;# 
   214                           opt subtitle "HI-TECH Software Omniscient Code Generator (Lite mode) build 49521"
   215  0003                     STATUS equ 03h ;# 
   216                           opt subtitle "HI-TECH Software Omniscient Code Generator (Lite mode) build 49521"
   217  0004                     FSR equ 04h ;# 
   218                           opt subtitle "HI-TECH Software Omniscient Code Generator (Lite mode) build 49521"
   219  0005                     PORTA equ 05h ;# 
   220                           opt subtitle "HI-TECH Software Omniscient Code Generator (Lite mode) build 49521"
   221  0006                     PORTB equ 06h ;# 
   222                           opt subtitle "HI-TECH Software Omniscient Code Generator (Lite mode) build 49521"
   223  0007                     PORTC equ 07h ;# 
   224                           opt subtitle "HI-TECH Software Omniscient Code Generator (Lite mode) build 49521"
   225  0008                     PORTD equ 08h ;# 
   226                           opt subtitle "HI-TECH Software Omniscient Code Generator (Lite mode) build 49521"
   227  0009                     PORTE equ 09h ;# 
   228                           opt subtitle "HI-TECH Software Omniscient Code Generator (Lite mode) build 49521"
   229  000A                     PCLATH equ 0Ah ;# 
   230                           opt subtitle "HI-TECH Software Omniscient Code Generator (Lite mode) build 49521"
   231  000B                     INTCON equ 0Bh ;# 
   232                           opt subtitle "HI-TECH Software Omniscient Code Generator (Lite mode) build 49521"
   233  000C                     PIR1 equ 0Ch ;# 
   234                           opt subtitle "HI-TECH Software Omniscient Code Generator (Lite mode) build 49521"
   235  000D                     PIR2 equ 0Dh ;# 
   236                           opt subtitle "HI-TECH Software Omniscient Code Generator (Lite mode) build 49521"
   237  000E                     TMR1 equ 0Eh ;# 
   238                           opt subtitle "HI-TECH Software Omniscient Code Generator (Lite mode) build 49521"
   239  000E                     TMR1L equ 0Eh ;# 
   240                           opt subtitle "HI-TECH Software Omniscient Code Generator (Lite mode) build 49521"
   241  000F                     TMR1H equ 0Fh ;# 
   242                           opt subtitle "HI-TECH Software Omniscient Code Generator (Lite mode) build 49521"
   243  0010                     T1CON equ 010h ;# 
   244                           opt subtitle "HI-TECH Software Omniscient Code Generator (Lite mode) build 49521"
   245  0011                     TMR2 equ 011h ;# 
   246                           opt subtitle "HI-TECH Software Omniscient Code Generator (Lite mode) build 49521"
   247  0012                     T2CON equ 012h ;# 
   248                           opt subtitle "HI-TECH Software Omniscient Code Generator (Lite mode) build 49521"
   249  0013                     SSPBUF equ 013h ;# 
   250                           opt subtitle "HI-TECH Software Omniscient Code Generator (Lite mode) build 49521"
   251  0014                     SSPCON equ 014h ;# 
   252                           opt subtitle "HI-TECH Software Omniscient Code Generator (Lite mode) build 49521"
   253  0015                     CCPR1 equ 015h ;# 
   254                           opt subtitle "HI-TECH Software Omniscient Code Generator (Lite mode) build 49521"
   255  0015                     CCPR1L equ 015h ;# 
   256                           opt subtitle "HI-TECH Software Omniscient Code Generator (Lite mode) build 49521"
   257  0016                     CCPR1H equ 016h ;# 
   258                           opt subtitle "HI-TECH Software Omniscient Code Generator (Lite mode) build 49521"
   259  0017                     CCP1CON equ 017h ;# 
   260                           opt subtitle "HI-TECH Software Omniscient Code Generator (Lite mode) build 49521"
   261  0018                     RCSTA equ 018h ;# 
   262                           opt subtitle "HI-TECH Software Omniscient Code Generator (Lite mode) build 49521"
   263  0019                     TXREG equ 019h ;# 
   264                           opt subtitle "HI-TECH Software Omniscient Code Generator (Lite mode) build 49521"
   265  001A                     RCREG equ 01Ah ;# 
   266                           opt subtitle "HI-TECH Software Omniscient Code Generator (Lite mode) build 49521"
   267  001B                     CCPR2 equ 01Bh ;# 
   268                           opt subtitle "HI-TECH Software Omniscient Code Generator (Lite mode) build 49521"
   269  001B                     CCPR2L equ 01Bh ;# 
   270                           opt subtitle "HI-TECH Software Omniscient Code Generator (Lite mode) build 49521"
   271  001C                     CCPR2H equ 01Ch ;# 
   272                           opt subtitle "HI-TECH Software Omniscient Code Generator (Lite mode) build 49521"
   273  001D                     CCP2CON equ 01Dh ;# 
   274                           opt subtitle "HI-TECH Software Omniscient Code Generator (Lite mode) build 49521"
   275  001E                     ADRES equ 01Eh ;# 
   276                           opt subtitle "HI-TECH Software Omniscient Code Generator (Lite mode) build 49521"
   277  001F                     ADCON0 equ 01Fh ;# 
   278                           opt subtitle "HI-TECH Software Omniscient Code Generator (Lite mode) build 49521"
   279  0081                     OPTION_REG equ 081h ;# 
   280                           opt subtitle "HI-TECH Software Omniscient Code Generator (Lite mode) build 49521"
   281  0085                     TRISA equ 085h ;# 
   282                           opt subtitle "HI-TECH Software Omniscient Code Generator (Lite mode) build 49521"
   283  0086                     TRISB equ 086h ;# 
   284                           opt subtitle "HI-TECH Software Omniscient Code Generator (Lite mode) build 49521"
   285  0087                     TRISC equ 087h ;# 
   286                           opt subtitle "HI-TECH Software Omniscient Code Generator (Lite mode) build 49521"
   287  0088                     TRISD equ 088h ;# 
   288                           opt subtitle "HI-TECH Software Omniscient Code Generator (Lite mode) build 49521"
   289  0089                     TRISE equ 089h ;# 
   290                           opt subtitle "HI-TECH Software Omniscient Code Generator (Lite mode) build 49521"
   291  008C                     PIE1 equ 08Ch ;# 
   292                           opt subtitle "HI-TECH Software Omniscient Code Generator (Lite mode) build 49521"
   293  008D                     PIE2 equ 08Dh ;# 
   294                           opt subtitle "HI-TECH Software Omniscient Code Generator (Lite mode) build 49521"
   295  008E                     PCON equ 08Eh ;# 
   296                           opt subtitle "HI-TECH Software Omniscient Code Generator (Lite mode) build 49521"
   297  008F                     T1GCON equ 08Fh ;# 
   298                           opt subtitle "HI-TECH Software Omniscient Code Generator (Lite mode) build 49521"
   299  0090                     OSCCON equ 090h ;# 
   300                           opt subtitle "HI-TECH Software Omniscient Code Generator (Lite mode) build 49521"
   301  0091                     OSCTUNE equ 091h ;# 
   302                           opt subtitle "HI-TECH Software Omniscient Code Generator (Lite mode) build 49521"
   303  0092                     PR2 equ 092h ;# 
   304                           opt subtitle "HI-TECH Software Omniscient Code Generator (Lite mode) build 49521"
   305  0093                     SSPADD equ 093h ;# 
   306                           opt subtitle "HI-TECH Software Omniscient Code Generator (Lite mode) build 49521"
   307  0093                     SSPMSK equ 093h ;# 
   308                           opt subtitle "HI-TECH Software Omniscient Code Generator (Lite mode) build 49521"
   309  0094                     SSPSTAT equ 094h ;# 
   310                           opt subtitle "HI-TECH Software Omniscient Code Generator (Lite mode) build 49521"
   311  0095                     WPUB equ 095h ;# 
   312                           opt subtitle "HI-TECH Software Omniscient Code Generator (Lite mode) build 49521"
   313  0096                     IOCB equ 096h ;# 
   314                           opt subtitle "HI-TECH Software Omniscient Code Generator (Lite mode) build 49521"
   315  0097                     T3CON equ 097h ;# 
   316                           opt subtitle "HI-TECH Software Omniscient Code Generator (Lite mode) build 49521"
   317  0098                     TXSTA equ 098h ;# 
   318                           opt subtitle "HI-TECH Software Omniscient Code Generator (Lite mode) build 49521"
   319  0099                     SPBRG equ 099h ;# 
   320                           opt subtitle "HI-TECH Software Omniscient Code Generator (Lite mode) build 49521"
   321  009A                     TMR3 equ 09Ah ;# 
   322                           opt subtitle "HI-TECH Software Omniscient Code Generator (Lite mode) build 49521"
   323  009A                     TMR3L equ 09Ah ;# 
   324                           opt subtitle "HI-TECH Software Omniscient Code Generator (Lite mode) build 49521"
   325  009B                     TMR3H equ 09Bh ;# 
   326                           opt subtitle "HI-TECH Software Omniscient Code Generator (Lite mode) build 49521"
   327  009C                     APFCON equ 09Ch ;# 
   328                           opt subtitle "HI-TECH Software Omniscient Code Generator (Lite mode) build 49521"
   329  009D                     FVRCON equ 09Dh ;# 
   330                           opt subtitle "HI-TECH Software Omniscient Code Generator (Lite mode) build 49521"
   331  009E                     T3GCON equ 09Eh ;# 
   332                           opt subtitle "HI-TECH Software Omniscient Code Generator (Lite mode) build 49521"
   333  009F                     ADCON1 equ 09Fh ;# 
   334                           opt subtitle "HI-TECH Software Omniscient Code Generator (Lite mode) build 49521"
   335  0105                     TACON equ 0105h ;# 
   336                           opt subtitle "HI-TECH Software Omniscient Code Generator (Lite mode) build 49521"
   337  0106                     CPSBCON0 equ 0106h ;# 
   338                           opt subtitle "HI-TECH Software Omniscient Code Generator (Lite mode) build 49521"
   339  0107                     CPSBCON1 equ 0107h ;# 
   340                           opt subtitle "HI-TECH Software Omniscient Code Generator (Lite mode) build 49521"
   341  0108                     CPSACON0 equ 0108h ;# 
   342                           opt subtitle "HI-TECH Software Omniscient Code Generator (Lite mode) build 49521"
   343  0109                     CPSACON1 equ 0109h ;# 
   344                           opt subtitle "HI-TECH Software Omniscient Code Generator (Lite mode) build 49521"
   345  010C                     PMDATL equ 010Ch ;# 
   346                           opt subtitle "HI-TECH Software Omniscient Code Generator (Lite mode) build 49521"
   347  010D                     PMADRL equ 010Dh ;# 
   348                           opt subtitle "HI-TECH Software Omniscient Code Generator (Lite mode) build 49521"
   349  010E                     PMDATH equ 010Eh ;# 
   350                           opt subtitle "HI-TECH Software Omniscient Code Generator (Lite mode) build 49521"
   351  010F                     PMADRH equ 010Fh ;# 
   352                           opt subtitle "HI-TECH Software Omniscient Code Generator (Lite mode) build 49521"
   353  0110                     TMRA equ 0110h ;# 
   354                           opt subtitle "HI-TECH Software Omniscient Code Generator (Lite mode) build 49521"
   355  0111                     TBCON equ 0111h ;# 
   356                           opt subtitle "HI-TECH Software Omniscient Code Generator (Lite mode) build 49521"
   357  0112                     TMRB equ 0112h ;# 
   358                           opt subtitle "HI-TECH Software Omniscient Code Generator (Lite mode) build 49521"
   359  0113                     DACCON0 equ 0113h ;# 
   360                           opt subtitle "HI-TECH Software Omniscient Code Generator (Lite mode) build 49521"
   361  0114                     DACCON1 equ 0114h ;# 
   362                           opt subtitle "HI-TECH Software Omniscient Code Generator (Lite mode) build 49521"
   363  0185                     ANSELA equ 0185h ;# 
   364                           opt subtitle "HI-TECH Software Omniscient Code Generator (Lite mode) build 49521"
   365  0186                     ANSELB equ 0186h ;# 
   366                           opt subtitle "HI-TECH Software Omniscient Code Generator (Lite mode) build 49521"
   367  0187                     ANSELC equ 0187h ;# 
   368                           opt subtitle "HI-TECH Software Omniscient Code Generator (Lite mode) build 49521"
   369  0188                     ANSELD equ 0188h ;# 
   370                           opt subtitle "HI-TECH Software Omniscient Code Generator (Lite mode) build 49521"
   371  0189                     ANSELE equ 0189h ;# 
   372                           opt subtitle "HI-TECH Software Omniscient Code Generator (Lite mode) build 49521"
   373  018C                     PMCON1 equ 018Ch ;# 
   374                           opt subtitle "HI-TECH Software Omniscient Code Generator (Lite mode) build 49521"
   375                           
   376                           opt pagewidth 120
   377                           
   378                           	opt lm
   379                           
   380                           	processor	16F707
   381                           clrc	macro
   382                           	bcf	3,0
   383                           	endm
   384                           clrz	macro
   385                           	bcf	3,2
   386                           	endm
   387                           setc	macro
   388                           	bsf	3,0
   389                           	endm
   390                           setz	macro
   391                           	bsf	3,2
   392                           	endm
   393                           skipc	macro
   394                           	btfss	3,0
   395                           	endm
   396                           skipz	macro
   397                           	btfss	3,2
   398                           	endm
   399                           skipnc	macro
   400                           	btfsc	3,0
   401                           	endm
   402                           skipnz	macro
   403                           	btfsc	3,2
   404                           	endm
   405                           indf	equ	0
   406                           indf0	equ	0
   407                           pc	equ	2
   408                           pcl	equ	2
   409                           status	equ	3
   410                           fsr	equ	4
   411                           fsr0	equ	4
   412                           c	equ	1
   413                           z	equ	0
   414                           pclath	equ	10
   415                           # 46 "/Applications/microchip/xc8/v1.12/include/pic16f707.h"
   416                           INDF equ 00h ;# 
   417                           # 52 "/Applications/microchip/xc8/v1.12/include/pic16f707.h"
   418                           TMR0 equ 01h ;# 
   419                           # 58 "/Applications/microchip/xc8/v1.12/include/pic16f707.h"
   420                           PCL equ 02h ;# 
   421                           # 64 "/Applications/microchip/xc8/v1.12/include/pic16f707.h"
   422                           STATUS equ 03h ;# 
   423                           # 151 "/Applications/microchip/xc8/v1.12/include/pic16f707.h"
   424                           FSR equ 04h ;# 
   425                           # 157 "/Applications/microchip/xc8/v1.12/include/pic16f707.h"
   426                           PORTA equ 05h ;# 
   427                           # 346 "/Applications/microchip/xc8/v1.12/include/pic16f707.h"
   428                           PORTB equ 06h ;# 
   429  08C2                     __pidataBANK0:
   430                           opt subtitle "HI-TECH Software Omniscient Code Generator (Lite mode) build 49521"
   431                           
   432                           opt pagewidth 120
   433                           
   434  08C2  3432               	retlw	032h
   435  08C3  3400               	retlw	0
   436                           opt subtitle "HI-TECH Software Omniscient Code Generator (Lite mode) build 49521"
   437                           
   438                           opt pagewidth 120
   439                           
   440  08C4  3401               	retlw	01h
   441                           opt subtitle "HI-TECH Software Omniscient Code Generator (Lite mode) build 49521"
   442                           
   443  08CD                     __pidataBANK1:
   444                           opt subtitle "HI-TECH Software Omniscient Code Generator (Lite mode) build 49521"
   445                           
   446                           opt pagewidth 120
   447  08CD  3400               	retlw	0
   448  08CE  3400               	retlw	0
   449  08CF  3400               	retlw	0
   450  08D0  3400               	retlw	0
   451  08D1  3400               	retlw	0
   452  08D2  34AA               	retlw	0AAh
   453  08D3  34AA               	retlw	0AAh
   454  08D4  34AA               	retlw	0AAh
   455                           opt subtitle "HI-TECH Software Omniscient Code Generator (Lite mode) build 49521"
   456                           
   457                           opt pagewidth 120
   458  1000                     __pstringtext:
   459                           opt subtitle "HI-TECH Software Omniscient Code Generator (Lite mode) build 49521"
   460  1000                     stringtab:
   461                           opt subtitle "HI-TECH Software Omniscient Code Generator (Lite mode) build 49521"
   462  1000                     __stringtab:
   463                           opt subtitle "HI-TECH Software Omniscient Code Generator (Lite mode) build 49521"
   464  1000  1BFF               	btfsc	(btemp+1),7
   465  1001  280A               	ljmp	stringcode
   466  1002  1383               	bcf	status,7
   467  1003  187F               	btfsc	(btemp+1),0
   468  1004  1783               	bsf	status,7
   469  1005  0800               	movf	indf,w
   470  1006  0A84               	incf fsr
   471  1007  1903               skipnz
   472  1008  0AFF               incf btemp+1
   473  1009  0008               	return
   474  100A                     stringcode:
   475  100A  087F               	movf btemp+1,w
   476  100B  397F               andlw 7Fh
   477  100C  008A               movwf	pclath
   478  100D  0804               	movf	fsr,w
   479  100E  0A84               incf fsr
   480  100F  1903               skipnz
   481  1010  0AFF               incf btemp+1
   482  1011  0082               	movwf pc
   483  1012                     __stringbase:
   484                           opt subtitle "HI-TECH Software Omniscient Code Generator (Lite mode) build 49521"
   485  1012                     __end_of__stringtab:
   486                           opt subtitle "HI-TECH Software Omniscient Code Generator (Lite mode) build 49521"
   487                           
   488  1012                     _Bank1_Reg0_13:
   489  1012  3440               	retlw	040h
   490  1013  344B               	retlw	04Bh
   491  1014  3401               	retlw	01h
   492  1015  34E2               	retlw	0E2h
   493                           opt subtitle "HI-TECH Software Omniscient Code Generator (Lite mode) build 49521"
   494  1016  34C0               	retlw	0C0h
   495  1017  344B               	retlw	04Bh
   496  1018  3400               	retlw	0
   497  1019  3400               	retlw	0
   498                           opt subtitle "HI-TECH Software Omniscient Code Generator (Lite mode) build 49521"
   499  101A  34D0               	retlw	0D0h
   500  101B  34FC               	retlw	0FCh
   501  101C  348C               	retlw	08Ch
   502  101D  3402               	retlw	02h
   503                           opt subtitle "HI-TECH Software Omniscient Code Generator (Lite mode) build 49521"
   504  101E  3499               	retlw	099h
   505  101F  3400               	retlw	0
   506  1020  3439               	retlw	039h
   507  1021  3441               	retlw	041h
   508                           opt subtitle "HI-TECH Software Omniscient Code Generator (Lite mode) build 49521"
   509  1022  34F9               	retlw	0F9h
   510  1023  349E               	retlw	09Eh
   511  1024  3486               	retlw	086h
   512  1025  340B               	retlw	0Bh
   513                           opt subtitle "HI-TECH Software Omniscient Code Generator (Lite mode) build 49521"
   514  1026  3424               	retlw	024h
   515  1027  3406               	retlw	06h
   516  1028  347F               	retlw	07Fh
   517  1029  34A6               	retlw	0A6h
   518                           opt subtitle "HI-TECH Software Omniscient Code Generator (Lite mode) build 49521"
   519  102A  3400               	retlw	0
   520  102B  3400               	retlw	0
   521  102C  3400               	retlw	0
   522  102D  3400               	retlw	0
   523                           opt subtitle "HI-TECH Software Omniscient Code Generator (Lite mode) build 49521"
   524  102E  3400               	retlw	0
   525  102F  3400               	retlw	0
   526  1030  3400               	retlw	0
   527  1031  3400               	retlw	0
   528                           opt subtitle "HI-TECH Software Omniscient Code Generator (Lite mode) build 49521"
   529  1032  3400               	retlw	0
   530  1033  3400               	retlw	0
   531  1034  3400               	retlw	0
   532  1035  3400               	retlw	0
   533                           opt subtitle "HI-TECH Software Omniscient Code Generator (Lite mode) build 49521"
   534  1036  3400               	retlw	0
   535  1037  3400               	retlw	0
   536  1038  3400               	retlw	0
   537  1039  3400               	retlw	0
   538                           opt subtitle "HI-TECH Software Omniscient Code Generator (Lite mode) build 49521"
   539  103A  3400               	retlw	0
   540  103B  3400               	retlw	0
   541  103C  3400               	retlw	0
   542  103D  3400               	retlw	0
   543                           opt subtitle "HI-TECH Software Omniscient Code Generator (Lite mode) build 49521"
   544  103E  3400               	retlw	0
   545  103F  3400               	retlw	0
   546  1040  3400               	retlw	0
   547  1041  3400               	retlw	0
   548                           opt subtitle "HI-TECH Software Omniscient Code Generator (Lite mode) build 49521"
   549  1042  3400               	retlw	0
   550  1043  3473               	retlw	073h
   551  1044  3412               	retlw	012h
   552  1045  3400               	retlw	0
   553                           opt subtitle "HI-TECH Software Omniscient Code Generator (Lite mode) build 49521"
   554  1046  3400               	retlw	0
   555  1047  3480               	retlw	080h
   556  1048  34B4               	retlw	0B4h
   557  1049  3436               	retlw	036h
   558                           opt subtitle "HI-TECH Software Omniscient Code Generator (Lite mode) build 49521"
   559                           
   560  104A                     __end_of_Bank1_Reg0_13:
   561                           opt subtitle "HI-TECH Software Omniscient Code Generator (Lite mode) build 49521"
   562                           
   563                           opt pagewidth 120
   564                           
   565  104A                     _Bank0_Reg:
   566  104A  3400               	retlw	0
   567  104B  340F               	retlw	0Fh
   568  104C  3401               	retlw	01h
   569  104D  343F               	retlw	03Fh
   570  104E  3402               	retlw	02h
   571  104F  343F               	retlw	03Fh
   572  1050  3403               	retlw	03h
   573  1051  3403               	retlw	03h
   574  1052  3404               	retlw	04h
   575  1053  34FF               	retlw	0FFh
   576  1054  3405               	retlw	05h
   577  1055  3417               	retlw	017h
   578  1056  3406               	retlw	06h
   579  1057  3401               	retlw	01h
   580  1058  3407               	retlw	07h
   581  1059  3407               	retlw	07h
   582  105A  3408               	retlw	08h
   583  105B  3400               	retlw	0
   584  105C  3409               	retlw	09h
   585  105D  3400               	retlw	0
   586  105E  340C               	retlw	0Ch
   587  105F  34C3               	retlw	0C3h
   588  1060  340D               	retlw	0Dh
   589  1061  34C4               	retlw	0C4h
   590  1062  340E               	retlw	0Eh
   591  1063  34C5               	retlw	0C5h
   592  1064  340F               	retlw	0Fh
   593  1065  34C6               	retlw	0C6h
   594  1066  3411               	retlw	011h
   595  1067  3420               	retlw	020h
   596  1068  3412               	retlw	012h
   597  1069  3420               	retlw	020h
   598  106A  3413               	retlw	013h
   599  106B  3420               	retlw	020h
   600  106C  3414               	retlw	014h
   601  106D  3420               	retlw	020h
   602  106E  3415               	retlw	015h
   603  106F  3420               	retlw	020h
   604  1070  3416               	retlw	016h
   605  1071  3420               	retlw	020h
   606  1072  3417               	retlw	017h
   607  1073  3400               	retlw	0
   608  1074  341C               	retlw	01Ch
   609  1075  343F               	retlw	03Fh
   610  1076  341D               	retlw	01Dh
   611  1077  3407               	retlw	07h
   612                           opt subtitle "HI-TECH Software Omniscient Code Generator (Lite mode) build 49521"
   613  1078                     __end_of_Bank0_Reg:
   614                           opt subtitle "HI-TECH Software Omniscient Code Generator (Lite mode) build 49521"
   615                           
   616                           opt pagewidth 120
   617                           
   618  1078                     _Bank1_Reg14:
   619  1078  3441               	retlw	041h
   620  1079  3420               	retlw	020h
   621  107A  3408               	retlw	08h
   622  107B  3404               	retlw	04h
   623  107C  3481               	retlw	081h
   624  107D  3420               	retlw	020h
   625  107E  34CF               	retlw	0CFh
   626  107F  34F7               	retlw	0F7h
   627  1080  34FE               	retlw	0FEh
   628  1081  34FF               	retlw	0FFh
   629  1082  34FF               	retlw	0FFh
   630                           opt subtitle "HI-TECH Software Omniscient Code Generator (Lite mode) build 49521"
   631  1083                     __end_of_Bank1_Reg14:
   632                           opt subtitle "HI-TECH Software Omniscient Code Generator (Lite mode) build 49521"
   633                           
   634                           opt pagewidth 120
   635                           
   636  1083                     _dpowers:
   637  1083  3401               	retlw	01h
   638  1084  3400               	retlw	0
   639                           opt subtitle "HI-TECH Software Omniscient Code Generator (Lite mode) build 49521"
   640  1085  340A               	retlw	0Ah
   641  1086  3400               	retlw	0
   642                           opt subtitle "HI-TECH Software Omniscient Code Generator (Lite mode) build 49521"
   643  1087  3464               	retlw	064h
   644  1088  3400               	retlw	0
   645                           opt subtitle "HI-TECH Software Omniscient Code Generator (Lite mode) build 49521"
   646  1089  34E8               	retlw	0E8h
   647  108A  3403               	retlw	03h
   648                           opt subtitle "HI-TECH Software Omniscient Code Generator (Lite mode) build 49521"
   649  108B  3410               	retlw	010h
   650  108C  3427               	retlw	027h
   651                           opt subtitle "HI-TECH Software Omniscient Code Generator (Lite mode) build 49521"
   652                           
   653  108D                     __end_of_dpowers:
   654                           opt subtitle "HI-TECH Software Omniscient Code Generator (Lite mode) build 49521"
   655                           
   656                           opt pagewidth 120
   657                           
   658  108D                     _hexpowers:
   659  108D  3401               	retlw	01h
   660  108E  3400               	retlw	0
   661                           opt subtitle "HI-TECH Software Omniscient Code Generator (Lite mode) build 49521"
   662  108F  3410               	retlw	010h
   663  1090  3400               	retlw	0
   664                           opt subtitle "HI-TECH Software Omniscient Code Generator (Lite mode) build 49521"
   665  1091  3400               	retlw	0
   666  1092  3401               	retlw	01h
   667                           opt subtitle "HI-TECH Software Omniscient Code Generator (Lite mode) build 49521"
   668  1093  3400               	retlw	0
   669  1094  3410               	retlw	010h
   670                           opt subtitle "HI-TECH Software Omniscient Code Generator (Lite mode) build 49521"
   671                           
   672  1095                     __end_of_hexpowers:
   673                           opt subtitle "HI-TECH Software Omniscient Code Generator (Lite mode) build 49521"
   674                           
   675                           opt pagewidth 120
   676                           
   677  1095                     _RX0_Address:
   678  1095  3434               	retlw	034h
   679  1096  3443               	retlw	043h
   680  1097  3410               	retlw	010h
   681  1098  3410               	retlw	010h
   682  1099  3401               	retlw	01h
   683                           opt subtitle "HI-TECH Software Omniscient Code Generator (Lite mode) build 49521"
   684  109A                     __end_of_RX0_Address:
   685                           opt subtitle "HI-TECH Software Omniscient Code Generator (Lite mode) build 49521"
   686                           
   687                           opt pagewidth 120
   688                           
   689  109A                     _RX1_Address:
   690  109A  3439               	retlw	039h
   691  109B  3438               	retlw	038h
   692  109C  3437               	retlw	037h
   693  109D  3436               	retlw	036h
   694  109E  34C2               	retlw	0C2h
   695                           opt subtitle "HI-TECH Software Omniscient Code Generator (Lite mode) build 49521"
   696  109F                     __end_of_RX1_Address:
   697                           opt subtitle "HI-TECH Software Omniscient Code Generator (Lite mode) build 49521"
   698                           
   699                           opt pagewidth 120
   700  109F                     _Bank0_RegAct:
   701  109F  341C               	retlw	01Ch
   702  10A0  343F               	retlw	03Fh
   703  10A1  341D               	retlw	01Dh
   704  10A2  3407               	retlw	07h
   705                           opt subtitle "HI-TECH Software Omniscient Code Generator (Lite mode) build 49521"
   706  10A3                     __end_of_Bank0_RegAct:
   707                           opt subtitle "HI-TECH Software Omniscient Code Generator (Lite mode) build 49521"
   708                           
   709                           opt pagewidth 120
   710                           
   711                           	opt lm
   712                           
   713                           	processor	16F707
   714                           clrc	macro
   715                           	bcf	3,0
   716                           	endm
   717                           clrz	macro
   718                           	bcf	3,2
   719                           	endm
   720                           setc	macro
   721                           	bsf	3,0
   722                           	endm
   723                           setz	macro
   724                           	bsf	3,2
   725  00E6                     __pnvBANK1:
   726  00E6                     _jumper_stat:
   727  00E6                            ds      1
   728                           opt subtitle "HI-TECH Software Omniscient Code Generator (Lite mode) build 49521"
   729                           
   730  001F                     _ADCON0bits	set	0x1F
   731                           opt subtitle "HI-TECH Software Omniscient Code Generator (Lite mode) build 49521"
   732  001E                     _ADRES	set	0x1E
   733                           opt subtitle "HI-TECH Software Omniscient Code Generator (Lite mode) build 49521"
   734  000C                     _PIR1bits	set	0xC
   735                           opt subtitle "HI-TECH Software Omniscient Code Generator (Lite mode) build 49521"
   736  0005                     _PORTAbits	set	0x5
   737                           opt subtitle "HI-TECH Software Omniscient Code Generator (Lite mode) build 49521"
   738  0006                     _PORTBbits	set	0x6
   739                           opt subtitle "HI-TECH Software Omniscient Code Generator (Lite mode) build 49521"
   740  0007                     _PORTCbits	set	0x7
   741                           opt subtitle "HI-TECH Software Omniscient Code Generator (Lite mode) build 49521"
   742  0008                     _PORTD	set	0x8
   743                           opt subtitle "HI-TECH Software Omniscient Code Generator (Lite mode) build 49521"
   744  0008                     _PORTDbits	set	0x8
   745                           opt subtitle "HI-TECH Software Omniscient Code Generator (Lite mode) build 49521"
   746  0009                     _PORTEbits	set	0x9
   747                           opt subtitle "HI-TECH Software Omniscient Code Generator (Lite mode) build 49521"
   748  001A                     _RCREG	set	0x1A
   749                           opt subtitle "HI-TECH Software Omniscient Code Generator (Lite mode) build 49521"
   750  0018                     _RCSTA	set	0x18
   751                           opt subtitle "HI-TECH Software Omniscient Code Generator (Lite mode) build 49521"
   752  0018                     _RCSTAbits	set	0x18
   753                           opt subtitle "HI-TECH Software Omniscient Code Generator (Lite mode) build 49521"
   754  0013                     _SSPBUF	set	0x13
   755                           opt subtitle "HI-TECH Software Omniscient Code Generator (Lite mode) build 49521"
   756  0014                     _SSPCONbits	set	0x14
   757                           opt subtitle "HI-TECH Software Omniscient Code Generator (Lite mode) build 49521"
   758  0010                     _T1CONbits	set	0x10
   759                           opt subtitle "HI-TECH Software Omniscient Code Generator (Lite mode) build 49521"
   760  000F                     _TMR1H	set	0xF
   761                           opt subtitle "HI-TECH Software Omniscient Code Generator (Lite mode) build 49521"
   762  000E                     _TMR1L	set	0xE
   763                           opt subtitle "HI-TECH Software Omniscient Code Generator (Lite mode) build 49521"
   764  0019                     _TXREG	set	0x19
   765                           opt subtitle "HI-TECH Software Omniscient Code Generator (Lite mode) build 49521"
   766  005F                     _GIE	set	0x5F
   767                           opt subtitle "HI-TECH Software Omniscient Code Generator (Lite mode) build 49521"
   768  005E                     _PEIE	set	0x5E
   769                           opt subtitle "HI-TECH Software Omniscient Code Generator (Lite mode) build 49521"
   770  0065                     _RCIF	set	0x65
   771                           opt subtitle "HI-TECH Software Omniscient Code Generator (Lite mode) build 49521"
   772  0060                     _TMR1IF	set	0x60
   773                           opt subtitle "HI-TECH Software Omniscient Code Generator (Lite mode) build 49521"
   774  0064                     _TXIF	set	0x64
   775                           opt subtitle "HI-TECH Software Omniscient Code Generator (Lite mode) build 49521"
   776  009F                     _ADCON1bits	set	0x9F
   777                           opt subtitle "HI-TECH Software Omniscient Code Generator (Lite mode) build 49521"
   778  009D                     _FVRCONbits	set	0x9D
   779                           opt subtitle "HI-TECH Software Omniscient Code Generator (Lite mode) build 49521"
   780  0090                     _OSCCONbits	set	0x90
   781                           opt subtitle "HI-TECH Software Omniscient Code Generator (Lite mode) build 49521"
   782  0099                     _SPBRG	set	0x99
   783                           opt subtitle "HI-TECH Software Omniscient Code Generator (Lite mode) build 49521"
   784  0094                     _SSPSTATbits	set	0x94
   785                           opt subtitle "HI-TECH Software Omniscient Code Generator (Lite mode) build 49521"
   786  008F                     _T1GCONbits	set	0x8F
   787                           opt subtitle "HI-TECH Software Omniscient Code Generator (Lite mode) build 49521"
   788  0085                     _TRISAbits	set	0x85
   789                           opt subtitle "HI-TECH Software Omniscient Code Generator (Lite mode) build 49521"
   790  0086                     _TRISBbits	set	0x86
   791                           opt subtitle "HI-TECH Software Omniscient Code Generator (Lite mode) build 49521"
   792  0087                     _TRISCbits	set	0x87
   793                           opt subtitle "HI-TECH Software Omniscient Code Generator (Lite mode) build 49521"
   794  0088                     _TRISDbits	set	0x88
   795                           opt subtitle "HI-TECH Software Omniscient Code Generator (Lite mode) build 49521"
   796  0089                     _TRISEbits	set	0x89
   797                           opt subtitle "HI-TECH Software Omniscient Code Generator (Lite mode) build 49521"
   798  0098                     _TXSTA	set	0x98
   799                           opt subtitle "HI-TECH Software Omniscient Code Generator (Lite mode) build 49521"
   800  0098                     _TXSTAbits	set	0x98
   801                           opt subtitle "HI-TECH Software Omniscient Code Generator (Lite mode) build 49521"
   802  0460                     _TMR1IE	set	0x460
   803                           opt subtitle "HI-TECH Software Omniscient Code Generator (Lite mode) build 49521"
   804  0113                     _DACCON0	set	0x113
   805                           opt subtitle "HI-TECH Software Omniscient Code Generator (Lite mode) build 49521"
   806  0114                     _DACCON1	set	0x114
   807                           opt subtitle "HI-TECH Software Omniscient Code Generator (Lite mode) build 49521"
   808  0185                     _ANSELAbits	set	0x185
   809                           opt subtitle "HI-TECH Software Omniscient Code Generator (Lite mode) build 49521"
   810  0186                     _ANSELBbits	set	0x186
   811                           opt subtitle "HI-TECH Software Omniscient Code Generator (Lite mode) build 49521"
   812  0187                     _ANSELCbits	set	0x187
   813                           opt subtitle "HI-TECH Software Omniscient Code Generator (Lite mode) build 49521"
   814  0188                     _ANSELDbits	set	0x188
   815                           opt subtitle "HI-TECH Software Omniscient Code Generator (Lite mode) build 49521"
   816  0189                     _ANSELEbits	set	0x189
   817                           opt subtitle "HI-TECH Software Omniscient Code Generator (Lite mode) build 49521"
   818                           
   819  10A3                     __stringdata:
   820                           opt subtitle "HI-TECH Software Omniscient Code Generator (Lite mode) build 49521"
   821  10A3                     STR_4:	
   822  10A3  3456               	retlw	86	;'V'
   823  10A4  3473               	retlw	115	;'s'
   824  10A5  3474               	retlw	116	;'t'
   825  10A6  346F               	retlw	111	;'o'
   826  10A7  3472               	retlw	114	;'r'
   827  10A8  3461               	retlw	97	;'a'
   828  10A9  3467               	retlw	103	;'g'
   829  10AA  3465               	retlw	101	;'e'
   830  10AB  3420               	retlw	32	;' '
   831  10AC  344F               	retlw	79	;'O'
   832  10AD  344B               	retlw	75	;'K'
   833  10AE  3420               	retlw	32	;' '
   834  10AF  346F               	retlw	111	;'o'
   835  10B0  3472               	retlw	114	;'r'
   836  10B1  3420               	retlw	32	;' '
   837  10B2  346D               	retlw	109	;'m'
   838  10B3  3465               	retlw	101	;'e'
   839  10B4  3461               	retlw	97	;'a'
   840  10B5  3473               	retlw	115	;'s'
   841  10B6  3475               	retlw	117	;'u'
   842  10B7  3472               	retlw	114	;'r'
   843  10B8  3465               	retlw	101	;'e'
   844  10B9  3420               	retlw	32	;' '
   845  10BA  3473               	retlw	115	;'s'
   846  10BB  346B               	retlw	107	;'k'
   847  10BC  3469               	retlw	105	;'i'
   848  10BD  3470               	retlw	112	;'p'
   849  10BE  3470               	retlw	112	;'p'
   850  10BF  3465               	retlw	101	;'e'
   851  10C0  3464               	retlw	100	;'d'
   852  10C1  343A               	retlw	58	;':'
   853  10C2  3420               	retlw	32	;' '
   854  10C3  3425               	retlw	37	;'%'
   855  10C4  3464               	retlw	100	;'d'
   856  10C5  340D               	retlw	13
   857  10C6  340A               	retlw	10
   858  10C7  3400               	retlw	0
   859                           opt subtitle "HI-TECH Software Omniscient Code Generator (Lite mode) build 49521"
   860                           
   861  10C8                     STR_5:	
   862  10C8  3456               	retlw	86	;'V'
   863  10C9  3453               	retlw	83	;'S'
   864  10CA  3474               	retlw	116	;'t'
   865  10CB  346F               	retlw	111	;'o'
   866  10CC  3472               	retlw	114	;'r'
   867  10CD  3461               	retlw	97	;'a'
   868  10CE  3467               	retlw	103	;'g'
   869  10CF  3465               	retlw	101	;'e'
   870  10D0  343A               	retlw	58	;':'
   871  10D1  3420               	retlw	32	;' '
   872  10D2  3425               	retlw	37	;'%'
   873  10D3  3464               	retlw	100	;'d'
   874  10D4  3420               	retlw	32	;' '
   875  10D5  3420               	retlw	32	;' '
   876  10D6  343D               	retlw	61	;'='
   877  10D7  343E               	retlw	62	;'>'
   878  10D8  3420               	retlw	32	;' '
   879  10D9  346E               	retlw	110	;'n'
   880  10DA  346F               	retlw	111	;'o'
   881  10DB  3474               	retlw	116	;'t'
   882  10DC  3420               	retlw	32	;' '
   883  10DD  344F               	retlw	79	;'O'
   884  10DE  344B               	retlw	75	;'K'
   885  10DF  340D               	retlw	13
   886  10E0  340A               	retlw	10
   887  10E1  3400               	retlw	0
   888                           opt subtitle "HI-TECH Software Omniscient Code Generator (Lite mode) build 49521"
   889                           
   890  10E2                     STR_12:	
   891  10E2  344E               	retlw	78	;'N'
   892  10E3  346F               	retlw	111	;'o'
   893  10E4  3420               	retlw	32	;' '
   894  10E5  3464               	retlw	100	;'d'
   895  10E6  3461               	retlw	97	;'a'
   896  10E7  3474               	retlw	116	;'t'
   897  10E8  3461               	retlw	97	;'a'
   898  10E9  3420               	retlw	32	;' '
   899  10EA  3473               	retlw	115	;'s'
   900  10EB  3465               	retlw	101	;'e'
   901  10EC  346E               	retlw	110	;'n'
   902  10ED  3474               	retlw	116	;'t'
   903  10EE  343A               	retlw	58	;':'
   904  10EF  3420               	retlw	32	;' '
   905  10F0  3445               	retlw	69	;'E'
   906  10F1  3452               	retlw	82	;'R'
   907  10F2  3452               	retlw	82	;'R'
   908  10F3  344F               	retlw	79	;'O'
   909  10F4  3452               	retlw	82	;'R'
   910  10F5  3420               	retlw	32	;' '
   911  10F6  340D               	retlw	13
   912  10F7  340A               	retlw	10
   913  10F8  3420               	retlw	32	;' '
   914  10F9  3400               	retlw	0
   915                           opt subtitle "HI-TECH Software Omniscient Code Generator (Lite mode) build 49521"
   916                           
   917  10FA                     STR_3:	
   918  10FA  3456               	retlw	86	;'V'
   919  10FB  3473               	retlw	115	;'s'
   920  10FC  3474               	retlw	116	;'t'
   921  10FD  346F               	retlw	111	;'o'
   922  10FE  3472               	retlw	114	;'r'
   923  10FF  3461               	retlw	97	;'a'
   924  1100  3467               	retlw	103	;'g'
   925  1101  3465               	retlw	101	;'e'
   926  1102  3420               	retlw	32	;' '
   927  1103  3474               	retlw	116	;'t'
   928  1104  346F               	retlw	111	;'o'
   929  1105  346F               	retlw	111	;'o'
   930  1106  3420               	retlw	32	;' '
   931  1107  346C               	retlw	108	;'l'
   932  1108  346F               	retlw	111	;'o'
   933  1109  3477               	retlw	119	;'w'
   934  110A  343A               	retlw	58	;':'
   935  110B  3420               	retlw	32	;' '
   936  110C  3425               	retlw	37	;'%'
   937  110D  3464               	retlw	100	;'d'
   938  110E  340D               	retlw	13
   939  110F  340A               	retlw	10
   940  1110  3400               	retlw	0
   941                           opt subtitle "HI-TECH Software Omniscient Code Generator (Lite mode) build 49521"
   942                           
   943  1111                     STR_6:	
   944  1111  3453               	retlw	83	;'S'
   945  1112  346C               	retlw	108	;'l'
   946  1113  3465               	retlw	101	;'e'
   947  1114  3465               	retlw	101	;'e'
   948  1115  3470               	retlw	112	;'p'
   949  1116  3420               	retlw	32	;' '
   950  1117  3463               	retlw	99	;'c'
   951  1118  346F               	retlw	111	;'o'
   952  1119  3475               	retlw	117	;'u'
   953  111A  346E               	retlw	110	;'n'
   954  111B  3474               	retlw	116	;'t'
   955  111C  3465               	retlw	101	;'e'
   956  111D  3472               	retlw	114	;'r'
   957  111E  3420               	retlw	32	;' '
   958  111F  343D               	retlw	61	;'='
   959  1120  3420               	retlw	32	;' '
   960  1121  3425               	retlw	37	;'%'
   961  1122  3464               	retlw	100	;'d'
   962  1123  340D               	retlw	13
   963  1124  340A               	retlw	10
   964  1125  3400               	retlw	0
   965                           opt subtitle "HI-TECH Software Omniscient Code Generator (Lite mode) build 49521"
   966                           
   967  1126                     STR_2:	
   968  1126  3453               	retlw	83	;'S'
   969  1127  346C               	retlw	108	;'l'
   970  1128  3465               	retlw	101	;'e'
   971  1129  3465               	retlw	101	;'e'
   972  112A  3470               	retlw	112	;'p'
   973  112B  3420               	retlw	32	;' '
   974  112C  3463               	retlw	99	;'c'
   975  112D  346F               	retlw	111	;'o'
   976  112E  3475               	retlw	117	;'u'
   977  112F  346E               	retlw	110	;'n'
   978  1130  3474               	retlw	116	;'t'
   979  1131  3465               	retlw	101	;'e'
   980  1132  3472               	retlw	114	;'r'
   981  1133  343A               	retlw	58	;':'
   982  1134  3420               	retlw	32	;' '
   983  1135  3425               	retlw	37	;'%'
   984  1136  3458               	retlw	88	;'X'
   985  1137  340D               	retlw	13
   986  1138  340A               	retlw	10
   987  1139  3400               	retlw	0
   988                           opt subtitle "HI-TECH Software Omniscient Code Generator (Lite mode) build 49521"
   989                           
   990  113A                     STR_1:	
   991  113A  3445               	retlw	69	;'E'
   992  113B  3463               	retlw	99	;'c'
   993  113C  3463               	retlw	99	;'c'
   994  113D  346F               	retlw	111	;'o'
   995  113E  346D               	retlw	109	;'m'
   996  113F  3469               	retlw	105	;'i'
   997  1140  3420               	retlw	32	;' '
   998  1141  346E               	retlw	110	;'n'
   999  1142  3465               	retlw	101	;'e'
  1000  1143  346C               	retlw	108	;'l'
  1001  1144  346C               	retlw	108	;'l'
  1002  1145  3427               	retlw	39	;'''
  1003  1146  3449               	retlw	73	;'I'
  1004  1147  3453               	retlw	83	;'S'
  1005  1148  3452               	retlw	82	;'R'
  1006  1149  3421               	retlw	33	;'!'
  1007  114A  340D               	retlw	13
  1008  114B  340A               	retlw	10
  1009  114C  3400               	retlw	0
  1010                           opt subtitle "HI-TECH Software Omniscient Code Generator (Lite mode) build 49521"
  1011                           
  1012  114D                     STR_7:	
  1013  114D  3453               	retlw	83	;'S'
  1014  114E  346C               	retlw	108	;'l'
  1015  114F  3465               	retlw	101	;'e'
  1016  1150  3465               	retlw	101	;'e'
  1017  1151  3470               	retlw	112	;'p'
  1018  1152  343A               	retlw	58	;':'
  1019  1153  3420               	retlw	32	;' '
  1020  1154  3425               	retlw	37	;'%'
  1021  1155  3464               	retlw	100	;'d'
  1022  1156  3420               	retlw	32	;' '
  1023  1157  346F               	retlw	111	;'o'
  1024  1158  346E               	retlw	110	;'n'
  1025  1159  3420               	retlw	32	;' '
  1026  115A  3425               	retlw	37	;'%'
  1027  115B  3464               	retlw	100	;'d'
  1028  115C  340D               	retlw	13
  1029  115D  340A               	retlw	10
  1030  115E  3400               	retlw	0
  1031                           opt subtitle "HI-TECH Software Omniscient Code Generator (Lite mode) build 49521"
  1032                           
  1033  115F                     STR_16:	
  1034  115F  3430               	retlw	48	;'0'
  1035  1160  3431               	retlw	49	;'1'
  1036  1161  3432               	retlw	50	;'2'
  1037  1162  3433               	retlw	51	;'3'
  1038  1163  3434               	retlw	52	;'4'
  1039  1164  3435               	retlw	53	;'5'
  1040  1165  3436               	retlw	54	;'6'
  1041  1166  3437               	retlw	55	;'7'
  1042  1167  3438               	retlw	56	;'8'
  1043  1168  3439               	retlw	57	;'9'
  1044  1169  3441               	retlw	65	;'A'
  1045  116A  3442               	retlw	66	;'B'
  1046  116B  3443               	retlw	67	;'C'
  1047  116C  3444               	retlw	68	;'D'
  1048  116D  3445               	retlw	69	;'E'
  1049  116E  3446               	retlw	70	;'F'
  1050  116F  3400               	retlw	0
  1051                           opt subtitle "HI-TECH Software Omniscient Code Generator (Lite mode) build 49521"
  1052                           
  1053  1170                     STR_11:	
  1054  1170  3444               	retlw	68	;'D'
  1055  1171  3461               	retlw	97	;'a'
  1056  1172  3474               	retlw	116	;'t'
  1057  1173  3461               	retlw	97	;'a'
  1058  1174  3420               	retlw	32	;' '
  1059  1175  3473               	retlw	115	;'s'
  1060  1176  3465               	retlw	101	;'e'
  1061  1177  346E               	retlw	110	;'n'
  1062  1178  3474               	retlw	116	;'t'
  1063  1179  343A               	retlw	58	;':'
  1064  117A  3420               	retlw	32	;' '
  1065  117B  344F               	retlw	79	;'O'
  1066  117C  344B               	retlw	75	;'K'
  1067  117D  3420               	retlw	32	;' '
  1068  117E  340D               	retlw	13
  1069  117F  340A               	retlw	10
  1070  1180  3400               	retlw	0
  1071                           opt subtitle "HI-TECH Software Omniscient Code Generator (Lite mode) build 49521"
  1072                           
  1073  1181                     STR_14:	
  1074  1181  3452               	retlw	82	;'R'
  1075  1182  3465               	retlw	101	;'e'
  1076  1183  3463               	retlw	99	;'c'
  1077  1184  3465               	retlw	101	;'e'
  1078  1185  3469               	retlw	105	;'i'
  1079  1186  3476               	retlw	118	;'v'
  1080  1187  3469               	retlw	105	;'i'
  1081  1188  346E               	retlw	110	;'n'
  1082  1189  3467               	retlw	103	;'g'
  1083  118A  343A               	retlw	58	;':'
  1084  118B  3420               	retlw	32	;' '
  1085  118C  3400               	retlw	0
  1086                           opt subtitle "HI-TECH Software Omniscient Code Generator (Lite mode) build 49521"
  1087                           
  1088  118D                     STR_8:	
  1089  118D  3453               	retlw	83	;'S'
  1090  118E  3465               	retlw	101	;'e'
  1091  118F  346E               	retlw	110	;'n'
  1092  1190  3464               	retlw	100	;'d'
  1093  1191  3469               	retlw	105	;'i'
  1094  1192  346E               	retlw	110	;'n'
  1095  1193  3467               	retlw	103	;'g'
  1096  1194  343A               	retlw	58	;':'
  1097  1195  3420               	retlw	32	;' '
  1098  1196  3400               	retlw	0
  1099                           opt subtitle "HI-TECH Software Omniscient Code Generator (Lite mode) build 49521"
  1100                           
  1101  1197                     STR_13:	
  1102  1197  340A               	retlw	10
  1103  1198  340D               	retlw	13
  1104  1199  340A               	retlw	10
  1105  119A  340D               	retlw	13
  1106  119B  3400               	retlw	0
  1107                           opt subtitle "HI-TECH Software Omniscient Code Generator (Lite mode) build 49521"
  1108                           
  1109  119C                     STR_9:	
  1110  119C  3425               	retlw	37	;'%'
  1111  119D  3458               	retlw	88	;'X'
  1112  119E  3400               	retlw	0
  1113                           opt subtitle "HI-TECH Software Omniscient Code Generator (Lite mode) build 49521"
  1114  1197                     STR_15	equ	STR_13+0
  1115  1199                     STR_10	equ	STR_13+2
  1116                           opt subtitle "HI-TECH Software Omniscient Code Generator (Lite mode) build 49521"
  1117  119F                     __end_of__stringdata:
  1118                           opt subtitle "HI-TECH Software Omniscient Code Generator (Lite mode) build 49521"
  1119                           
  1120  0000                     __CFG_PLLEN$ON equ 0x0
  1121                           opt subtitle "HI-TECH Software Omniscient Code Generator (Lite mode) build 49521"
  1122  0000                     __CFG_FOSC$INTOSC equ 0x0
  1123                           opt subtitle "HI-TECH Software Omniscient Code Generator (Lite mode) build 49521"
  1124  0000                     __CFG_MCLRE$ON equ 0x0
  1125                           opt subtitle "HI-TECH Software Omniscient Code Generator (Lite mode) build 49521"
  1126  0000                     __CFG_WDTE$OFF equ 0x0
  1127                           opt subtitle "HI-TECH Software Omniscient Code Generator (Lite mode) build 49521"
  1128  0000                     __CFG_CP$OFF equ 0x0
  1129                           opt subtitle "HI-TECH Software Omniscient Code Generator (Lite mode) build 49521"
  1130  0000                     __CFG_PWRTE$OFF equ 0x0
  1131                           opt subtitle "HI-TECH Software Omniscient Code Generator (Lite mode) build 49521"
  1132  0000                     __CFG_VCAPEN$RA0 equ 0x0
  1133                           opt subtitle "HI-TECH Software Omniscient Code Generator (Lite mode) build 49521"
  1134                           
  1135                           opt pagewidth 120
  1136                           
  1137  0B14                     start_initialization:
  1138                           opt subtitle "HI-TECH Software Omniscient Code Generator (Lite mode) build 49521"
  1139                           
  1140  0B14                     __initialization:
  1141                           opt subtitle "HI-TECH Software Omniscient Code Generator (Lite mode) build 49521"
  1142                           
  1143  02D8                     __pbitbssBANK0:
  1144  02D8                     _flag:
  1145  02D8                            ds      1
  1146                           opt subtitle "HI-TECH Software Omniscient Code Generator (Lite mode) build 49521"
  1147                           
  1148                           opt pagewidth 120
  1149  0054                     __pbssBANK0:
  1150  0054                     _charge_time:
  1151  0054                            ds      2
  1152                           opt subtitle "HI-TECH Software Omniscient Code Generator (Lite mode) build 49521"
  1153  0056                     _sleep_counter:
  1154  0056                            ds      1
  1155                           opt subtitle "HI-TECH Software Omniscient Code Generator (Lite mode) build 49521"
  1156  0057                     _tmr1Counter:
  1157  0057                            ds      1
  1158                           opt subtitle "HI-TECH Software Omniscient Code Generator (Lite mode) build 49521"
  1159                           
  1160                           opt pagewidth 120
  1161  0058                     __pdataBANK0:
  1162                           opt subtitle "HI-TECH Software Omniscient Code Generator (Lite mode) build 49521"
  1163                           
  1164  0058                     _charge_pulse:
  1165  0058                            ds      2
  1166                           opt subtitle "HI-TECH Software Omniscient Code Generator (Lite mode) build 49521"
  1167                           
  1168                           opt pagewidth 120
  1169                           
  1170  005A                     _tmr1Target:
  1171  005A                            ds      1
  1172                           opt subtitle "HI-TECH Software Omniscient Code Generator (Lite mode) build 49521"
  1173                           
  1174                           opt pagewidth 120
  1175  00DF                     __pbssBANK1:
  1176  00DF                     _timelapse_count:
  1177  00DF                            ds      2
  1178                           opt subtitle "HI-TECH Software Omniscient Code Generator (Lite mode) build 49521"
  1179  00E1                     _value:
  1180  00E1                            ds      2
  1181                           opt subtitle "HI-TECH Software Omniscient Code Generator (Lite mode) build 49521"
  1182  00E3                     _values:
  1183  00E3                            ds      2
  1184                           opt subtitle "HI-TECH Software Omniscient Code Generator (Lite mode) build 49521"
  1185  00E5                     _sleep_count:
  1186  00E5                            ds      1
  1187                           opt subtitle "HI-TECH Software Omniscient Code Generator (Lite mode) build 49521"
  1188                           
  1189                           opt pagewidth 120
  1190  00D7                     __pdataBANK1:
  1191                           opt subtitle "HI-TECH Software Omniscient Code Generator (Lite mode) build 49521"
  1192                           
  1193  00D7                     _tx_buf:
  1194  00D7                            ds      8
  1195                           opt subtitle "HI-TECH Software Omniscient Code Generator (Lite mode) build 49521"
  1196                           
  1197                           opt pagewidth 120
  1198  0190                     __pbssBANK3:
  1199  0190                     _rx_buf:
  1200  0190                            ds      32
  1201                           opt subtitle "HI-TECH Software Omniscient Code Generator (Lite mode) build 49521"
  1202                           
  1203                           opt pagewidth 120
  1204                           
  1205                           	opt lm
  1206  08C5                     clear_ram:
  1207  08C5  0064               	clrwdt			;clear the watchdog before getting into this loop
  1208  08C6                     clrloop:
  1209  08C6  0180               	clrf	indf		;clear RAM location pointed to by FSR
  1210  08C7  0A84               	incf	fsr,f		;increment pointer
  1211  08C8  0604               	xorwf	fsr,w		;XOR with final address
  1212  08C9  1903               	btfsc	status,2	;have we reached the end yet?
  1213  08CA  3400               	retlw	0		;all done for this memory range, return
  1214  08CB  0604               	xorwf	fsr,w		;XOR again to restore value
  1215  08CC  28C6               	goto	clrloop		;do the next byte
  1216                           opt subtitle "HI-TECH Software Omniscient Code Generator (Lite mode) build 49521"
  1217                           
  1218                           opt pagewidth 120
  1219  0B14  01DB               	clrf	((__pbitbssBANK0/8)+0)&07Fh
  1220                           opt subtitle "HI-TECH Software Omniscient Code Generator (Lite mode) build 49521"
  1221                           
  1222  0B15  01D4               	clrf	((__pbssBANK0)+0)&07Fh
  1223  0B16  01D5               	clrf	((__pbssBANK0)+1)&07Fh
  1224  0B17  01D6               	clrf	((__pbssBANK0)+2)&07Fh
  1225  0B18  01D7               	clrf	((__pbssBANK0)+3)&07Fh
  1226                           opt subtitle "HI-TECH Software Omniscient Code Generator (Lite mode) build 49521"
  1227                           
  1228  0B19  1683               	bsf	status, 5	;RP0=1, select bank1
  1229  0B1A  1303               	bcf	status, 6	;RP1=0, select bank1
  1230  0B1B  01DF               	clrf	((__pbssBANK1)+0)&07Fh
  1231  0B1C  01E0               	clrf	((__pbssBANK1)+1)&07Fh
  1232  0B1D  01E1               	clrf	((__pbssBANK1)+2)&07Fh
  1233  0B1E  01E2               	clrf	((__pbssBANK1)+3)&07Fh
  1234  0B1F  01E3               	clrf	((__pbssBANK1)+4)&07Fh
  1235  0B20  01E4               	clrf	((__pbssBANK1)+5)&07Fh
  1236  0B21  01E5               	clrf	((__pbssBANK1)+6)&07Fh
  1237                           opt subtitle "HI-TECH Software Omniscient Code Generator (Lite mode) build 49521"
  1238                           
  1239  0B22  1783               	bsf	status, 7	;select IRP bank2
  1240  0B23  3090               	movlw	low(__pbssBANK3)
  1241  0B24  0084               	movwf	fsr
  1242  0B25  30B0               	movlw	low((__pbssBANK3)+020h)
  1243  0B26  120A  158A  20C5   	fcall	clear_ram
              120A  158A         
  1244                           opt subtitle "HI-TECH Software Omniscient Code Generator (Lite mode) build 49521"
  1245                           
  1246                           opt pagewidth 120
  1247                           
  1248  08F7                     init_fetch:
  1249  08F7  087E               	movf btemp,w
  1250  08F8  008A               	movwf pclath
  1251  08F9  087F               	movf btemp+1,w
  1252  08FA  0082               	movwf pc
  1253                           opt subtitle "HI-TECH Software Omniscient Code Generator (Lite mode) build 49521"
  1254                           
  1255                           opt pagewidth 120
  1256                           
  1257                           	opt lm
  1258                           
  1259  08FB                     init_ram:
  1260  08FB  120A  158A  20F7   	fcall init_fetch
              120A  158A         
  1261  0900  0080               	movwf indf,f
  1262  0901  0A84               	incf fsr,f
  1263  0902  0804               	movf fsr,w
  1264  0903  067D               	xorwf btemp-1,w
  1265  0904  1903               	btfsc status,2
  1266  0905  3400               	retlw 0
  1267  0906  0AFF               	incf btemp+1,f
  1268  0907  1903               	btfsc status,2
  1269  0908  0AFE               	incf btemp,f
  1270  0909  28FB               	goto init_ram
  1271                           opt subtitle "HI-TECH Software Omniscient Code Generator (Lite mode) build 49521"
  1272                           
  1273                           opt pagewidth 120
  1274  0B2B  1383               	bcf	status, 7	;select IRP bank0
  1275  0B2C  30DF               	movlw low(__pdataBANK1+8)
  1276  0B2D  00FD               	movwf btemp-1,f
  1277  0B2E  3008               	movlw high(__pidataBANK1)
  1278  0B2F  00FE               	movwf btemp,f
  1279  0B30  30CD               	movlw low(__pidataBANK1)
  1280  0B31  00FF               	movwf btemp+1,f
  1281  0B32  30D7               	movlw low(__pdataBANK1)
  1282  0B33  0084               	movwf fsr,f
  1283  0B34  120A  158A  20FB   	fcall init_ram
              120A  158A         
  1284                           opt subtitle "HI-TECH Software Omniscient Code Generator (Lite mode) build 49521"
  1285                           
  1286                           opt pagewidth 120
  1287  0B39  305B               	movlw low(__pdataBANK0+3)
  1288  0B3A  00FD               	movwf btemp-1,f
  1289  0B3B  3008               	movlw high(__pidataBANK0)
  1290  0B3C  00FE               	movwf btemp,f
  1291  0B3D  30C2               	movlw low(__pidataBANK0)
  1292  0B3E  00FF               	movwf btemp+1,f
  1293  0B3F  3058               	movlw low(__pdataBANK0)
  1294  0B40  0084               	movwf fsr,f
  1295  0B41  120A  158A  20FB   	fcall init_ram
              120A  158A         
  1296                           opt subtitle "HI-TECH Software Omniscient Code Generator (Lite mode) build 49521"
  1297                           
  1298                           opt pagewidth 120
  1299                           
  1300                           	opt lm
  1301  0B46                     end_of_initialization:
  1302  0B46                     __end_of__initialization:clrf status
      + 0B46  0183               	clrf	3
  1303  0B47  120A  118A  2B25   ljmp _main	;jump to C main() function
  1304                           opt subtitle "HI-TECH Software Omniscient Code Generator (Lite mode) build 49521"
  1305                           
  1306  00A0                     __pcstackBANK1:
  1307                           opt subtitle "HI-TECH Software Omniscient Code Generator (Lite mode) build 49521"
  1308  00A0                     ?_Send_Packet:	; 0 bytes @ 0x0
  1309                           opt subtitle "HI-TECH Software Omniscient Code Generator (Lite mode) build 49521"
  1310  00A0                     Send_Packet@pbuf:	; 1 bytes @ 0x0
  1311  00A0                     	ds	1
  1312                           opt subtitle "HI-TECH Software Omniscient Code Generator (Lite mode) build 49521"
  1313  00A1                     Send_Packet@len:	; 1 bytes @ 0x1
  1314  00A1                     	ds	1
  1315  00A2                     ??_Send_Packet:	; 0 bytes @ 0x2
  1316  00A2                     	ds	3
  1317                           opt subtitle "HI-TECH Software Omniscient Code Generator (Lite mode) build 49521"
  1318  00A5                     Send_Packet@type:	; 1 bytes @ 0x5
  1319  00A5                     	ds	1
  1320                           opt subtitle "HI-TECH Software Omniscient Code Generator (Lite mode) build 49521"
  1321  00A6                     Send_Packet@fifo_sta:	; 1 bytes @ 0x6
  1322  00A6                     	ds	1
  1323                           opt subtitle "HI-TECH Software Omniscient Code Generator (Lite mode) build 49521"
  1324  00A7                     Send_Packet@i:	; 1 bytes @ 0x7
  1325  00A7                     	ds	1
  1326  00A8                     ?_main:	; 2 bytes @ 0x8
  1327  00A8                     main@argc:	; 2 bytes @ 0x8
  1328  00A8                     	ds	2
  1329  00AA                     main@argv:	; 2 bytes @ 0xA
  1330  00AA                     	ds	2
  1331  00AC                     ??_main:	; 0 bytes @ 0xC
  1332  00AC                     	ds	4
  1333                           opt subtitle "HI-TECH Software Omniscient Code Generator (Lite mode) build 49521"
  1334  00B0                     main@temp_tx_buf:	; 32 bytes @ 0x10
  1335  00B0                     	ds	32
  1336                           opt subtitle "HI-TECH Software Omniscient Code Generator (Lite mode) build 49521"
  1337  00D0                     main@temp:	; 2 bytes @ 0x30
  1338  00D0                     	ds	2
  1339                           opt subtitle "HI-TECH Software Omniscient Code Generator (Lite mode) build 49521"
  1340  00D2                     main@num_sleep:	; 1 bytes @ 0x32
  1341  00D2                     	ds	1
  1342                           opt subtitle "HI-TECH Software Omniscient Code Generator (Lite mode) build 49521"
  1343  00D3                     main@i:	; 4 bytes @ 0x33
  1344  00D3                     	ds	4
  1345                           opt subtitle "HI-TECH Software Omniscient Code Generator (Lite mode) build 49521"
  1346                           
  1347  0070                     __pcstackCOMMON:
  1348  0070                     ?_spiInit:	; 0 bytes @ 0x0
  1349  0070                     ?_uartInit:	; 0 bytes @ 0x0
  1350  0070                     ?_adcInit:	; 0 bytes @ 0x0
  1351  0070                     ?_rfm70setPowerdownMode:	; 0 bytes @ 0x0
  1352  0070                     ?_RFM70_Initialize:	; 0 bytes @ 0x0
  1353  0070                     ?_sleep:	; 0 bytes @ 0x0
  1354  0070                     ?_SwitchToTxMode:	; 0 bytes @ 0x0
  1355  0070                     ?_SwitchToRxMode:	; 0 bytes @ 0x0
  1356  0070                     ?_ISR:	; 0 bytes @ 0x0
  1357  0070                     ?_putch:	; 0 bytes @ 0x0
  1358  0070                     ?_SwitchCFG:	; 0 bytes @ 0x0
  1359  0070                     ?i1_putch:	; 0 bytes @ 0x0
  1360  0070                     ??i1_putch:	; 0 bytes @ 0x0
  1361  0070                     ?_adcReadVcap:	; 1 bytes @ 0x0
  1362  0070                     ?_adcReadTemp:	; 1 bytes @ 0x0
  1363  0070                     ?_adcReadVsupercap:	; 1 bytes @ 0x0
  1364  0070                     ?_SPI_Read_Reg:	; 1 bytes @ 0x0
  1365  0070                     ?_rfm70TxDataSentInterrupt:	; 1 bytes @ 0x0
  1366  0070                     ?_rfm70TxDataSentErrorInterrupt:	; 1 bytes @ 0x0
  1367  0070                     ?_SPI_RW:	; 1 bytes @ 0x0
  1368                           opt subtitle "HI-TECH Software Omniscient Code Generator (Lite mode) build 49521"
  1369  0070                     ?i1___lwdiv:	; 2 bytes @ 0x0
  1370                           opt subtitle "HI-TECH Software Omniscient Code Generator (Lite mode) build 49521"
  1371  0070                     i1putch@c:	; 1 bytes @ 0x0
  1372                           opt subtitle "HI-TECH Software Omniscient Code Generator (Lite mode) build 49521"
  1373  0070                     i1___lwdiv@divisor:	; 2 bytes @ 0x0
  1374  0070                     	ds	2
  1375                           opt subtitle "HI-TECH Software Omniscient Code Generator (Lite mode) build 49521"
  1376  0072                     i1___lwdiv@dividend:	; 2 bytes @ 0x2
  1377  0072                     	ds	2
  1378  0074                     ??i1___lwdiv:	; 0 bytes @ 0x4
  1379  0074                     	ds	1
  1380                           opt subtitle "HI-TECH Software Omniscient Code Generator (Lite mode) build 49521"
  1381  0075                     i1___lwdiv@counter:	; 1 bytes @ 0x5
  1382  0075                     	ds	1
  1383                           opt subtitle "HI-TECH Software Omniscient Code Generator (Lite mode) build 49521"
  1384  0076                     i1___lwdiv@quotient:	; 2 bytes @ 0x6
  1385  0076                     	ds	2
  1386                           opt subtitle "HI-TECH Software Omniscient Code Generator (Lite mode) build 49521"
  1387  0078                     ?i1___lwmod:	; 2 bytes @ 0x8
  1388                           opt subtitle "HI-TECH Software Omniscient Code Generator (Lite mode) build 49521"
  1389  0078                     i1___lwmod@divisor:	; 2 bytes @ 0x8
  1390  0078                     	ds	2
  1391                           opt subtitle "HI-TECH Software Omniscient Code Generator (Lite mode) build 49521"
  1392  007A                     i1___lwmod@dividend:	; 2 bytes @ 0xA
  1393  007A                     	ds	2
  1394  007C                     ??i1___lwmod:	; 0 bytes @ 0xC
  1395  007C                     	ds	1
  1396                           opt subtitle "HI-TECH Software Omniscient Code Generator (Lite mode) build 49521"
  1397  007D                     i1___lwmod@counter:	; 1 bytes @ 0xD
  1398  007D                     	ds	1
  1399                           opt subtitle "HI-TECH Software Omniscient Code Generator (Lite mode) build 49521"
  1400                           
  1401  0020                     __pcstackBANK0:
  1402                           opt subtitle "HI-TECH Software Omniscient Code Generator (Lite mode) build 49521"
  1403  0020                     ?i1_printf:	; 2 bytes @ 0x0
  1404                           opt subtitle "HI-TECH Software Omniscient Code Generator (Lite mode) build 49521"
  1405  0020                     i1printf@f:	; 2 bytes @ 0x0
  1406  0020                     	ds	2
  1407  0022                     ??i1_printf:	; 0 bytes @ 0x2
  1408  0022                     	ds	3
  1409                           opt subtitle "HI-TECH Software Omniscient Code Generator (Lite mode) build 49521"
  1410  0025                     i1printf@idx:	; 1 bytes @ 0x5
  1411  0025                     	ds	1
  1412                           opt subtitle "HI-TECH Software Omniscient Code Generator (Lite mode) build 49521"
  1413  0026                     i1printf@ap:	; 1 bytes @ 0x6
  1414  0026                     	ds	1
  1415                           opt subtitle "HI-TECH Software Omniscient Code Generator (Lite mode) build 49521"
  1416  0027                     i1printf@prec:	; 1 bytes @ 0x7
  1417  0027                     	ds	1
  1418                           opt subtitle "HI-TECH Software Omniscient Code Generator (Lite mode) build 49521"
  1419  0028                     i1printf@flag:	; 1 bytes @ 0x8
  1420  0028                     	ds	1
  1421                           opt subtitle "HI-TECH Software Omniscient Code Generator (Lite mode) build 49521"
  1422  0029                     i1printf@_val:	; 4 bytes @ 0x9
  1423  0029                     	ds	4
  1424                           opt subtitle "HI-TECH Software Omniscient Code Generator (Lite mode) build 49521"
  1425  002D                     i1printf@c:	; 1 bytes @ 0xD
  1426  002D                     	ds	1
  1427  002E                     ??_ISR:	; 0 bytes @ 0xE
  1428  002E                     	ds	6
  1429  0034                     ??_spiInit:	; 0 bytes @ 0x14
  1430  0034                     ??_uartInit:	; 0 bytes @ 0x14
  1431  0034                     ??_adcInit:	; 0 bytes @ 0x14
  1432  0034                     ??_adcReadVcap:	; 0 bytes @ 0x14
  1433  0034                     ??_adcReadTemp:	; 0 bytes @ 0x14
  1434  0034                     ??_adcReadVsupercap:	; 0 bytes @ 0x14
  1435  0034                     ??_putch:	; 0 bytes @ 0x14
  1436  0034                     ??_SPI_RW:	; 0 bytes @ 0x14
  1437                           opt subtitle "HI-TECH Software Omniscient Code Generator (Lite mode) build 49521"
  1438  0034                     ?___wmul:	; 2 bytes @ 0x14
  1439                           opt subtitle "HI-TECH Software Omniscient Code Generator (Lite mode) build 49521"
  1440  0034                     ?___lwdiv:	; 2 bytes @ 0x14
  1441                           opt subtitle "HI-TECH Software Omniscient Code Generator (Lite mode) build 49521"
  1442  0034                     putch@c:	; 1 bytes @ 0x14
  1443                           opt subtitle "HI-TECH Software Omniscient Code Generator (Lite mode) build 49521"
  1444  0034                     ___wmul@multiplier:	; 2 bytes @ 0x14
  1445                           opt subtitle "HI-TECH Software Omniscient Code Generator (Lite mode) build 49521"
  1446  0034                     ___lwdiv@divisor:	; 2 bytes @ 0x14
  1447  0034                     	ds	2
  1448                           opt subtitle "HI-TECH Software Omniscient Code Generator (Lite mode) build 49521"
  1449  0036                     adcReadTemp@value:	; 1 bytes @ 0x16
  1450                           opt subtitle "HI-TECH Software Omniscient Code Generator (Lite mode) build 49521"
  1451  0036                     adcReadVcap@value:	; 1 bytes @ 0x16
  1452                           opt subtitle "HI-TECH Software Omniscient Code Generator (Lite mode) build 49521"
  1453  0036                     adcReadVsupercap@value:	; 1 bytes @ 0x16
  1454                           opt subtitle "HI-TECH Software Omniscient Code Generator (Lite mode) build 49521"
  1455  0036                     SPI_RW@value:	; 1 bytes @ 0x16
  1456                           opt subtitle "HI-TECH Software Omniscient Code Generator (Lite mode) build 49521"
  1457  0036                     ___wmul@multiplicand:	; 2 bytes @ 0x16
  1458                           opt subtitle "HI-TECH Software Omniscient Code Generator (Lite mode) build 49521"
  1459  0036                     ___lwdiv@dividend:	; 2 bytes @ 0x16
  1460  0036                     	ds	1
  1461  0037                     ??_sleep:	; 0 bytes @ 0x17
  1462  0037                     ??_SPI_Read_Reg:	; 0 bytes @ 0x17
  1463                           opt subtitle "HI-TECH Software Omniscient Code Generator (Lite mode) build 49521"
  1464  0037                     ?_SPI_Write_Buf:	; 0 bytes @ 0x17
  1465                           opt subtitle "HI-TECH Software Omniscient Code Generator (Lite mode) build 49521"
  1466  0037                     ?_SPI_Write_Reg:	; 0 bytes @ 0x17
  1467                           opt subtitle "HI-TECH Software Omniscient Code Generator (Lite mode) build 49521"
  1468  0037                     SPI_Write_Reg@value:	; 1 bytes @ 0x17
  1469                           opt subtitle "HI-TECH Software Omniscient Code Generator (Lite mode) build 49521"
  1470  0037                     SPI_Write_Buf@pBuf:	; 1 bytes @ 0x17
  1471  0037                     	ds	1
  1472  0038                     ??_SPI_Write_Reg:	; 0 bytes @ 0x18
  1473  0038                     ??___wmul:	; 0 bytes @ 0x18
  1474  0038                     ??___lwdiv:	; 0 bytes @ 0x18
  1475                           opt subtitle "HI-TECH Software Omniscient Code Generator (Lite mode) build 49521"
  1476  0038                     SPI_Write_Reg@reg:	; 1 bytes @ 0x18
  1477                           opt subtitle "HI-TECH Software Omniscient Code Generator (Lite mode) build 49521"
  1478  0038                     SPI_Read_Reg@reg:	; 1 bytes @ 0x18
  1479                           opt subtitle "HI-TECH Software Omniscient Code Generator (Lite mode) build 49521"
  1480  0038                     SPI_Write_Buf@length:	; 1 bytes @ 0x18
  1481                           opt subtitle "HI-TECH Software Omniscient Code Generator (Lite mode) build 49521"
  1482  0038                     ___wmul@product:	; 2 bytes @ 0x18
  1483  0038                     	ds	1
  1484  0039                     ??_SPI_Write_Buf:	; 0 bytes @ 0x19
  1485                           opt subtitle "HI-TECH Software Omniscient Code Generator (Lite mode) build 49521"
  1486  0039                     sleep@new_value:	; 1 bytes @ 0x19
  1487                           opt subtitle "HI-TECH Software Omniscient Code Generator (Lite mode) build 49521"
  1488  0039                     SPI_Read_Reg@value:	; 1 bytes @ 0x19
  1489                           opt subtitle "HI-TECH Software Omniscient Code Generator (Lite mode) build 49521"
  1490  0039                     ___lwdiv@counter:	; 1 bytes @ 0x19
  1491  0039                     	ds	1
  1492  003A                     ??_rfm70setPowerdownMode:	; 0 bytes @ 0x1A
  1493  003A                     ??_SwitchToTxMode:	; 0 bytes @ 0x1A
  1494  003A                     ??_rfm70TxDataSentInterrupt:	; 0 bytes @ 0x1A
  1495  003A                     ??_SwitchToRxMode:	; 0 bytes @ 0x1A
  1496  003A                     ??_rfm70TxDataSentErrorInterrupt:	; 0 bytes @ 0x1A
  1497  003A                     ??_SwitchCFG:	; 0 bytes @ 0x1A
  1498                           opt subtitle "HI-TECH Software Omniscient Code Generator (Lite mode) build 49521"
  1499  003A                     SPI_Write_Buf@reg:	; 1 bytes @ 0x1A
  1500                           opt subtitle "HI-TECH Software Omniscient Code Generator (Lite mode) build 49521"
  1501  003A                     ___lwdiv@quotient:	; 2 bytes @ 0x1A
  1502  003A                     	ds	1
  1503                           opt subtitle "HI-TECH Software Omniscient Code Generator (Lite mode) build 49521"
  1504  003B                     SPI_Write_Buf@byte_ctr:	; 1 bytes @ 0x1B
  1505                           opt subtitle "HI-TECH Software Omniscient Code Generator (Lite mode) build 49521"
  1506  003B                     SwitchToRxMode@value:	; 1 bytes @ 0x1B
  1507                           opt subtitle "HI-TECH Software Omniscient Code Generator (Lite mode) build 49521"
  1508  003B                     SwitchToTxMode@value:	; 1 bytes @ 0x1B
  1509                           opt subtitle "HI-TECH Software Omniscient Code Generator (Lite mode) build 49521"
  1510  003B                     SwitchCFG@_cfg:	; 1 bytes @ 0x1B
  1511                           opt subtitle "HI-TECH Software Omniscient Code Generator (Lite mode) build 49521"
  1512  003B                     rfm70setPowerdownMode@value:	; 1 bytes @ 0x1B
  1513  003B                     	ds	1
  1514                           opt subtitle "HI-TECH Software Omniscient Code Generator (Lite mode) build 49521"
  1515  003C                     ?___lwmod:	; 2 bytes @ 0x1C
  1516                           opt subtitle "HI-TECH Software Omniscient Code Generator (Lite mode) build 49521"
  1517  003C                     SwitchCFG@Tmp:	; 1 bytes @ 0x1C
  1518                           opt subtitle "HI-TECH Software Omniscient Code Generator (Lite mode) build 49521"
  1519  003C                     rfm70setPowerdownMode@reg:	; 1 bytes @ 0x1C
  1520                           opt subtitle "HI-TECH Software Omniscient Code Generator (Lite mode) build 49521"
  1521  003C                     ___lwmod@divisor:	; 2 bytes @ 0x1C
  1522  003C                     	ds	1
  1523  003D                     ??_RFM70_Initialize:	; 0 bytes @ 0x1D
  1524  003D                     	ds	1
  1525                           opt subtitle "HI-TECH Software Omniscient Code Generator (Lite mode) build 49521"
  1526  003E                     ___lwmod@dividend:	; 2 bytes @ 0x1E
  1527  003E                     	ds	2
  1528  0040                     ??___lwmod:	; 0 bytes @ 0x20
  1529  0040                     	ds	1
  1530                           opt subtitle "HI-TECH Software Omniscient Code Generator (Lite mode) build 49521"
  1531  0041                     ___lwmod@counter:	; 1 bytes @ 0x21
  1532  0041                     	ds	1
  1533                           opt subtitle "HI-TECH Software Omniscient Code Generator (Lite mode) build 49521"
  1534  0042                     ?_printf:	; 2 bytes @ 0x22
  1535                           opt subtitle "HI-TECH Software Omniscient Code Generator (Lite mode) build 49521"
  1536  0042                     printf@f:	; 2 bytes @ 0x22
  1537  0042                     	ds	2
  1538                           opt subtitle "HI-TECH Software Omniscient Code Generator (Lite mode) build 49521"
  1539  0044                     RFM70_Initialize@WriteArr:	; 12 bytes @ 0x24
  1540  0044                     	ds	4
  1541  0048                     ??_printf:	; 0 bytes @ 0x28
  1542  0048                     	ds	3
  1543                           opt subtitle "HI-TECH Software Omniscient Code Generator (Lite mode) build 49521"
  1544  004B                     printf@idx:	; 1 bytes @ 0x2B
  1545  004B                     	ds	1
  1546                           opt subtitle "HI-TECH Software Omniscient Code Generator (Lite mode) build 49521"
  1547  004C                     printf@ap:	; 1 bytes @ 0x2C
  1548  004C                     	ds	1
  1549                           opt subtitle "HI-TECH Software Omniscient Code Generator (Lite mode) build 49521"
  1550  004D                     printf@prec:	; 1 bytes @ 0x2D
  1551  004D                     	ds	1
  1552                           opt subtitle "HI-TECH Software Omniscient Code Generator (Lite mode) build 49521"
  1553  004E                     printf@flag:	; 1 bytes @ 0x2E
  1554  004E                     	ds	1
  1555                           opt subtitle "HI-TECH Software Omniscient Code Generator (Lite mode) build 49521"
  1556  004F                     printf@_val:	; 4 bytes @ 0x2F
  1557  004F                     	ds	1
  1558                           opt subtitle "HI-TECH Software Omniscient Code Generator (Lite mode) build 49521"
  1559  0050                     RFM70_Initialize@i:	; 1 bytes @ 0x30
  1560  0050                     	ds	1
  1561                           opt subtitle "HI-TECH Software Omniscient Code Generator (Lite mode) build 49521"
  1562  0051                     RFM70_Initialize@j:	; 1 bytes @ 0x31
  1563  0051                     	ds	2
  1564                           opt subtitle "HI-TECH Software Omniscient Code Generator (Lite mode) build 49521"
  1565  0053                     printf@c:	; 1 bytes @ 0x33
  1566  0053                     	ds	1
  1567                           opt subtitle "HI-TECH Software Omniscient Code Generator (Lite mode) build 49521"
  1568                           
  1569                           opt pagewidth 120
  1570                           
  1571                           	opt lm
  1572                           
  1573                           	processor	16F707
  1574                           clrc	macro
  1575                           	bcf	3,0
  1576                           	endm
  1577                           clrz	macro
  1578                           	bcf	3,2
  1579                           	endm
  1580                           setc	macro
  1581                           	bsf	3,0
  1582                           	endm
  1583                           setz	macro
  1584                           	bsf	3,2
  1585                           	endm
  1586                           skipc	macro
  1587                           	btfss	3,0
  1588                           	endm
  1589                           skipz	macro
  1590                           	btfss	3,2
  1591                           	endm
  1592                           skipnc	macro
  1593                           	btfsc	3,0
  1594                           	endm
  1595                           skipnz	macro
  1596                           	btfsc	3,2
  1597                           	endm
  1598                           indf	equ	0
  1599                           indf0	equ	0
  1600                           pc	equ	2
  1601                           pcl	equ	2
  1602                           status	equ	3
  1603                           fsr	equ	4
  1604                           fsr0	equ	4
  1605                           c	equ	1
  1606                           z	equ	0
  1607                           pclath	equ	10
  1608                           # 46 "/Applications/microchip/xc8/v1.12/include/pic16f707.h"
  1609                           INDF equ 00h ;# 
  1610                           # 52 "/Applications/microchip/xc8/v1.12/include/pic16f707.h"
  1611                           TMR0 equ 01h ;# 
  1612                           # 58 "/Applications/microchip/xc8/v1.12/include/pic16f707.h"
  1613                           PCL equ 02h ;# 
  1614                           # 64 "/Applications/microchip/xc8/v1.12/include/pic16f707.h"
  1615                           STATUS equ 03h ;# 
  1616                           # 151 "/Applications/microchip/xc8/v1.12/include/pic16f707.h"
  1617                           FSR equ 04h ;# 
  1618                           # 157 "/Applications/microchip/xc8/v1.12/include/pic16f707.h"
  1619                           PORTA equ 05h ;# 
  1620                           # 346 "/Applications/microchip/xc8/v1.12/include/pic16f707.h"
  1621                           PORTB equ 06h ;# 
  1622                           # 520 "/Applications/microchip/xc8/v1.12/include/pic16f707.h"
  1623                           PORTC equ 07h ;# 
  1624                           # 715 "/Applications/microchip/xc8/v1.12/include/pic16f707.h"
  1625                           PORTD equ 08h ;# 
  1626                           # 834 "/Applications/microchip/xc8/v1.12/include/pic16f707.h"
  1627                           PORTE equ 09h ;# 
  1628                           # 917 "/Applications/microchip/xc8/v1.12/include/pic16f707.h"
  1629                           PCLATH equ 0Ah ;# 
  1630                           # 936 "/Applications/microchip/xc8/v1.12/include/pic16f707.h"
  1631                           INTCON equ 0Bh ;# 
  1632                           # 1013 "/Applications/microchip/xc8/v1.12/include/pic16f707.h"
  1633                           PIR1 equ 0Ch ;# 
  1634                           # 1074 "/Applications/microchip/xc8/v1.12/include/pic16f707.h"
  1635                           PIR2 equ 0Dh ;# 
  1636                           # 1118 "/Applications/microchip/xc8/v1.12/include/pic16f707.h"
  1637                           TMR1 equ 0Eh ;# 
  1638                           # 1124 "/Applications/microchip/xc8/v1.12/include/pic16f707.h"
  1639                           TMR1L equ 0Eh ;# 
  1640                           # 1130 "/Applications/microchip/xc8/v1.12/include/pic16f707.h"
  1641                           TMR1H equ 0Fh ;# 
  1642                           # 1136 "/Applications/microchip/xc8/v1.12/include/pic16f707.h"
  1643                           T1CON equ 010h ;# 
  1644                           # 1214 "/Applications/microchip/xc8/v1.12/include/pic16f707.h"
  1645                           TMR2 equ 011h ;# 
  1646                           # 1220 "/Applications/microchip/xc8/v1.12/include/pic16f707.h"
  1647                           T2CON equ 012h ;# 
  1648                           # 1290 "/Applications/microchip/xc8/v1.12/include/pic16f707.h"
  1649                           SSPBUF equ 013h ;# 
  1650                           # 1296 "/Applications/microchip/xc8/v1.12/include/pic16f707.h"
  1651                           SSPCON equ 014h ;# 
  1652                           # 1365 "/Applications/microchip/xc8/v1.12/include/pic16f707.h"
  1653                           CCPR1 equ 015h ;# 
  1654                           # 1371 "/Applications/microchip/xc8/v1.12/include/pic16f707.h"
  1655                           CCPR1L equ 015h ;# 
  1656                           # 1377 "/Applications/microchip/xc8/v1.12/include/pic16f707.h"
  1657                           CCPR1H equ 016h ;# 
  1658                           # 1383 "/Applications/microchip/xc8/v1.12/include/pic16f707.h"
  1659                           CCP1CON equ 017h ;# 
  1660                           # 1446 "/Applications/microchip/xc8/v1.12/include/pic16f707.h"
  1661                           RCSTA equ 018h ;# 
  1662                           # 1507 "/Applications/microchip/xc8/v1.12/include/pic16f707.h"
  1663                           TXREG equ 019h ;# 
  1664                           # 1513 "/Applications/microchip/xc8/v1.12/include/pic16f707.h"
  1665                           RCREG equ 01Ah ;# 
  1666                           # 1519 "/Applications/microchip/xc8/v1.12/include/pic16f707.h"
  1667                           CCPR2 equ 01Bh ;# 
  1668                           # 1525 "/Applications/microchip/xc8/v1.12/include/pic16f707.h"
  1669                           CCPR2L equ 01Bh ;# 
  1670                           # 1531 "/Applications/microchip/xc8/v1.12/include/pic16f707.h"
  1671                           CCPR2H equ 01Ch ;# 
  1672                           # 1537 "/Applications/microchip/xc8/v1.12/include/pic16f707.h"
  1673                           CCP2CON equ 01Dh ;# 
  1674                           # 1600 "/Applications/microchip/xc8/v1.12/include/pic16f707.h"
  1675                           ADRES equ 01Eh ;# 
  1676                           # 1606 "/Applications/microchip/xc8/v1.12/include/pic16f707.h"
  1677                           ADCON0 equ 01Fh ;# 
  1678                           # 1664 "/Applications/microchip/xc8/v1.12/include/pic16f707.h"
  1679                           OPTION_REG equ 081h ;# 
  1680                           # 1746 "/Applications/microchip/xc8/v1.12/include/pic16f707.h"
  1681                           TRISA equ 085h ;# 
  1682                           # 1807 "/Applications/microchip/xc8/v1.12/include/pic16f707.h"
  1683                           TRISB equ 086h ;# 
  1684                           # 1868 "/Applications/microchip/xc8/v1.12/include/pic16f707.h"
  1685                           TRISC equ 087h ;# 
  1686                           # 1929 "/Applications/microchip/xc8/v1.12/include/pic16f707.h"
  1687                           TRISD equ 088h ;# 
  1688                           # 1990 "/Applications/microchip/xc8/v1.12/include/pic16f707.h"
  1689                           TRISE equ 089h ;# 
  1690                           # 2027 "/Applications/microchip/xc8/v1.12/include/pic16f707.h"
  1691                           PIE1 equ 08Ch ;# 
  1692                           # 2088 "/Applications/microchip/xc8/v1.12/include/pic16f707.h"
  1693                           PIE2 equ 08Dh ;# 
  1694                           # 2132 "/Applications/microchip/xc8/v1.12/include/pic16f707.h"
  1695                           PCON equ 08Eh ;# 
  1696                           # 2157 "/Applications/microchip/xc8/v1.12/include/pic16f707.h"
  1697                           T1GCON equ 08Fh ;# 
  1698                           # 2226 "/Applications/microchip/xc8/v1.12/include/pic16f707.h"
  1699                           OSCCON equ 090h ;# 
  1700                           # 2273 "/Applications/microchip/xc8/v1.12/include/pic16f707.h"
  1701                           OSCTUNE equ 091h ;# 
  1702                           # 2292 "/Applications/microchip/xc8/v1.12/include/pic16f707.h"
  1703                           PR2 equ 092h ;# 
  1704                           # 2298 "/Applications/microchip/xc8/v1.12/include/pic16f707.h"
  1705                           SSPADD equ 093h ;# 
  1706                           # 2317 "/Applications/microchip/xc8/v1.12/include/pic16f707.h"
  1707                           SSPMSK equ 093h ;# 
  1708                           # 2336 "/Applications/microchip/xc8/v1.12/include/pic16f707.h"
  1709                           SSPSTAT equ 094h ;# 
  1710                           # 2397 "/Applications/microchip/xc8/v1.12/include/pic16f707.h"
  1711                           WPUB equ 095h ;# 
  1712                           # 2458 "/Applications/microchip/xc8/v1.12/include/pic16f707.h"
  1713                           IOCB equ 096h ;# 
  1714                           # 2519 "/Applications/microchip/xc8/v1.12/include/pic16f707.h"
  1715                           T3CON equ 097h ;# 
  1716                           # 2585 "/Applications/microchip/xc8/v1.12/include/pic16f707.h"
  1717                           TXSTA equ 098h ;# 
  1718                           # 2641 "/Applications/microchip/xc8/v1.12/include/pic16f707.h"
  1719                           SPBRG equ 099h ;# 
  1720                           # 2647 "/Applications/microchip/xc8/v1.12/include/pic16f707.h"
  1721                           TMR3 equ 09Ah ;# 
  1722                           # 2653 "/Applications/microchip/xc8/v1.12/include/pic16f707.h"
  1723                           TMR3L equ 09Ah ;# 
  1724                           # 2659 "/Applications/microchip/xc8/v1.12/include/pic16f707.h"
  1725                           TMR3H equ 09Bh ;# 
  1726                           # 2665 "/Applications/microchip/xc8/v1.12/include/pic16f707.h"
  1727                           APFCON equ 09Ch ;# 
  1728                           # 2690 "/Applications/microchip/xc8/v1.12/include/pic16f707.h"
  1729                           FVRCON equ 09Dh ;# 
  1730                           # 2755 "/Applications/microchip/xc8/v1.12/include/pic16f707.h"
  1731                           T3GCON equ 09Eh ;# 
  1732                           # 2824 "/Applications/microchip/xc8/v1.12/include/pic16f707.h"
  1733                           ADCON1 equ 09Fh ;# 
  1734                           # 2883 "/Applications/microchip/xc8/v1.12/include/pic16f707.h"
  1735                           TACON equ 0105h ;# 
  1736                           # 2993 "/Applications/microchip/xc8/v1.12/include/pic16f707.h"
  1737                           CPSBCON0 equ 0106h ;# 
  1738                           # 3052 "/Applications/microchip/xc8/v1.12/include/pic16f707.h"
  1739                           CPSBCON1 equ 0107h ;# 
  1740                           # 3097 "/Applications/microchip/xc8/v1.12/include/pic16f707.h"
  1741                           CPSACON0 equ 0108h ;# 
  1742                           # 3156 "/Applications/microchip/xc8/v1.12/include/pic16f707.h"
  1743                           CPSACON1 equ 0109h ;# 
  1744                           # 3201 "/Applications/microchip/xc8/v1.12/include/pic16f707.h"
  1745                           PMDATL equ 010Ch ;# 
  1746                           # 3207 "/Applications/microchip/xc8/v1.12/include/pic16f707.h"
  1747                           PMADRL equ 010Dh ;# 
  1748                           # 3213 "/Applications/microchip/xc8/v1.12/include/pic16f707.h"
  1749                           PMDATH equ 010Eh ;# 
  1750                           # 3219 "/Applications/microchip/xc8/v1.12/include/pic16f707.h"
  1751                           PMADRH equ 010Fh ;# 
  1752                           # 3225 "/Applications/microchip/xc8/v1.12/include/pic16f707.h"
  1753                           TMRA equ 0110h ;# 
  1754                           # 3231 "/Applications/microchip/xc8/v1.12/include/pic16f707.h"
  1755                           TBCON equ 0111h ;# 
  1756                           # 3341 "/Applications/microchip/xc8/v1.12/include/pic16f707.h"
  1757                           TMRB equ 0112h ;# 
  1758                           # 3347 "/Applications/microchip/xc8/v1.12/include/pic16f707.h"
  1759                           DACCON0 equ 0113h ;# 
  1760                           # 3401 "/Applications/microchip/xc8/v1.12/include/pic16f707.h"
  1761                           DACCON1 equ 0114h ;# 
  1762                           # 3452 "/Applications/microchip/xc8/v1.12/include/pic16f707.h"
  1763                           ANSELA equ 0185h ;# 
  1764                           # 3521 "/Applications/microchip/xc8/v1.12/include/pic16f707.h"
  1765                           ANSELB equ 0186h ;# 
  1766                           # 3590 "/Applications/microchip/xc8/v1.12/include/pic16f707.h"
  1767                           ANSELC equ 0187h ;# 
  1768                           # 3648 "/Applications/microchip/xc8/v1.12/include/pic16f707.h"
  1769                           ANSELD equ 0188h ;# 
  1770                           # 3717 "/Applications/microchip/xc8/v1.12/include/pic16f707.h"
  1771                           ANSELE equ 0189h ;# 
  1772                           # 3756 "/Applications/microchip/xc8/v1.12/include/pic16f707.h"
  1773                           PMCON1 equ 018Ch ;# 
  1774                           # 46 "/Applications/microchip/xc8/v1.12/include/pic16f707.h"
  1775                           INDF equ 00h ;# 
  1776                           # 52 "/Applications/microchip/xc8/v1.12/include/pic16f707.h"
  1777                           TMR0 equ 01h ;# 
  1778                           # 58 "/Applications/microchip/xc8/v1.12/include/pic16f707.h"
  1779                           PCL equ 02h ;# 
  1780                           # 64 "/Applications/microchip/xc8/v1.12/include/pic16f707.h"
  1781                           STATUS equ 03h ;# 
  1782                           # 151 "/Applications/microchip/xc8/v1.12/include/pic16f707.h"
  1783                           FSR equ 04h ;# 
  1784                           # 157 "/Applications/microchip/xc8/v1.12/include/pic16f707.h"
  1785                           PORTA equ 05h ;# 
  1786                           # 346 "/Applications/microchip/xc8/v1.12/include/pic16f707.h"
  1787                           PORTB equ 06h ;# 
  1788                           # 520 "/Applications/microchip/xc8/v1.12/include/pic16f707.h"
  1789                           PORTC equ 07h ;# 
  1790                           # 715 "/Applications/microchip/xc8/v1.12/include/pic16f707.h"
  1791                           PORTD equ 08h ;# 
  1792                           # 834 "/Applications/microchip/xc8/v1.12/include/pic16f707.h"
  1793                           PORTE equ 09h ;# 
  1794                           # 917 "/Applications/microchip/xc8/v1.12/include/pic16f707.h"
  1795                           PCLATH equ 0Ah ;# 
  1796                           # 936 "/Applications/microchip/xc8/v1.12/include/pic16f707.h"
  1797                           INTCON equ 0Bh ;# 
  1798                           # 1013 "/Applications/microchip/xc8/v1.12/include/pic16f707.h"
  1799                           PIR1 equ 0Ch ;# 
  1800                           # 1074 "/Applications/microchip/xc8/v1.12/include/pic16f707.h"
  1801                           PIR2 equ 0Dh ;# 
  1802                           # 1118 "/Applications/microchip/xc8/v1.12/include/pic16f707.h"
  1803                           TMR1 equ 0Eh ;# 
  1804                           # 1124 "/Applications/microchip/xc8/v1.12/include/pic16f707.h"
  1805                           TMR1L equ 0Eh ;# 
  1806                           # 1130 "/Applications/microchip/xc8/v1.12/include/pic16f707.h"
  1807                           TMR1H equ 0Fh ;# 
  1808                           # 1136 "/Applications/microchip/xc8/v1.12/include/pic16f707.h"
  1809                           T1CON equ 010h ;# 
  1810                           # 1214 "/Applications/microchip/xc8/v1.12/include/pic16f707.h"
  1811                           TMR2 equ 011h ;# 
  1812                           # 1220 "/Applications/microchip/xc8/v1.12/include/pic16f707.h"
  1813                           T2CON equ 012h ;# 
  1814                           # 1290 "/Applications/microchip/xc8/v1.12/include/pic16f707.h"
  1815                           SSPBUF equ 013h ;# 
  1816                           # 1296 "/Applications/microchip/xc8/v1.12/include/pic16f707.h"
  1817                           SSPCON equ 014h ;# 
  1818                           # 1365 "/Applications/microchip/xc8/v1.12/include/pic16f707.h"
  1819                           CCPR1 equ 015h ;# 
  1820                           # 1371 "/Applications/microchip/xc8/v1.12/include/pic16f707.h"
  1821                           CCPR1L equ 015h ;# 
  1822                           # 1377 "/Applications/microchip/xc8/v1.12/include/pic16f707.h"
  1823                           CCPR1H equ 016h ;# 
  1824                           # 1383 "/Applications/microchip/xc8/v1.12/include/pic16f707.h"
  1825                           CCP1CON equ 017h ;# 
  1826                           # 1446 "/Applications/microchip/xc8/v1.12/include/pic16f707.h"
  1827                           RCSTA equ 018h ;# 
  1828                           # 1507 "/Applications/microchip/xc8/v1.12/include/pic16f707.h"
  1829                           TXREG equ 019h ;# 
  1830                           # 1513 "/Applications/microchip/xc8/v1.12/include/pic16f707.h"
  1831                           RCREG equ 01Ah ;# 
  1832                           # 1519 "/Applications/microchip/xc8/v1.12/include/pic16f707.h"
  1833                           CCPR2 equ 01Bh ;# 
  1834                           # 1525 "/Applications/microchip/xc8/v1.12/include/pic16f707.h"
  1835                           CCPR2L equ 01Bh ;# 
  1836                           # 1531 "/Applications/microchip/xc8/v1.12/include/pic16f707.h"
  1837                           CCPR2H equ 01Ch ;# 
  1838                           # 1537 "/Applications/microchip/xc8/v1.12/include/pic16f707.h"
  1839                           CCP2CON equ 01Dh ;# 
  1840                           # 1600 "/Applications/microchip/xc8/v1.12/include/pic16f707.h"
  1841                           ADRES equ 01Eh ;# 
  1842                           # 1606 "/Applications/microchip/xc8/v1.12/include/pic16f707.h"
  1843                           ADCON0 equ 01Fh ;# 
  1844                           # 1664 "/Applications/microchip/xc8/v1.12/include/pic16f707.h"
  1845                           OPTION_REG equ 081h ;# 
  1846                           # 1746 "/Applications/microchip/xc8/v1.12/include/pic16f707.h"
  1847                           TRISA equ 085h ;# 
  1848                           # 1807 "/Applications/microchip/xc8/v1.12/include/pic16f707.h"
  1849                           TRISB equ 086h ;# 
  1850                           # 1868 "/Applications/microchip/xc8/v1.12/include/pic16f707.h"
  1851                           TRISC equ 087h ;# 
  1852                           # 1929 "/Applications/microchip/xc8/v1.12/include/pic16f707.h"
  1853                           TRISD equ 088h ;# 
  1854                           # 1990 "/Applications/microchip/xc8/v1.12/include/pic16f707.h"
  1855                           TRISE equ 089h ;# 
  1856                           # 2027 "/Applications/microchip/xc8/v1.12/include/pic16f707.h"
  1857                           PIE1 equ 08Ch ;# 
  1858                           # 2088 "/Applications/microchip/xc8/v1.12/include/pic16f707.h"
  1859                           PIE2 equ 08Dh ;# 
  1860                           # 2132 "/Applications/microchip/xc8/v1.12/include/pic16f707.h"
  1861                           PCON equ 08Eh ;# 
  1862                           # 2157 "/Applications/microchip/xc8/v1.12/include/pic16f707.h"
  1863                           T1GCON equ 08Fh ;# 
  1864                           # 2226 "/Applications/microchip/xc8/v1.12/include/pic16f707.h"
  1865                           OSCCON equ 090h ;# 
  1866                           # 2273 "/Applications/microchip/xc8/v1.12/include/pic16f707.h"
  1867                           OSCTUNE equ 091h ;# 
  1868                           # 2292 "/Applications/microchip/xc8/v1.12/include/pic16f707.h"
  1869                           PR2 equ 092h ;# 
  1870                           # 2298 "/Applications/microchip/xc8/v1.12/include/pic16f707.h"
  1871                           SSPADD equ 093h ;# 
  1872                           # 2317 "/Applications/microchip/xc8/v1.12/include/pic16f707.h"
  1873                           SSPMSK equ 093h ;# 
  1874                           # 2336 "/Applications/microchip/xc8/v1.12/include/pic16f707.h"
  1875                           SSPSTAT equ 094h ;# 
  1876                           # 2397 "/Applications/microchip/xc8/v1.12/include/pic16f707.h"
  1877                           WPUB equ 095h ;# 
  1878                           # 2458 "/Applications/microchip/xc8/v1.12/include/pic16f707.h"
  1879                           IOCB equ 096h ;# 
  1880                           # 2519 "/Applications/microchip/xc8/v1.12/include/pic16f707.h"
  1881                           T3CON equ 097h ;# 
  1882                           # 2585 "/Applications/microchip/xc8/v1.12/include/pic16f707.h"
  1883                           TXSTA equ 098h ;# 
  1884                           # 2641 "/Applications/microchip/xc8/v1.12/include/pic16f707.h"
  1885                           SPBRG equ 099h ;# 
  1886                           # 2647 "/Applications/microchip/xc8/v1.12/include/pic16f707.h"
  1887                           TMR3 equ 09Ah ;# 
  1888                           # 2653 "/Applications/microchip/xc8/v1.12/include/pic16f707.h"
  1889                           TMR3L equ 09Ah ;# 
  1890                           # 2659 "/Applications/microchip/xc8/v1.12/include/pic16f707.h"
  1891                           TMR3H equ 09Bh ;# 
  1892                           # 2665 "/Applications/microchip/xc8/v1.12/include/pic16f707.h"
  1893                           APFCON equ 09Ch ;# 
  1894                           # 2690 "/Applications/microchip/xc8/v1.12/include/pic16f707.h"
  1895                           FVRCON equ 09Dh ;# 
  1896                           # 2755 "/Applications/microchip/xc8/v1.12/include/pic16f707.h"
  1897                           T3GCON equ 09Eh ;# 
  1898                           # 2824 "/Applications/microchip/xc8/v1.12/include/pic16f707.h"
  1899                           ADCON1 equ 09Fh ;# 
  1900                           # 2883 "/Applications/microchip/xc8/v1.12/include/pic16f707.h"
  1901                           TACON equ 0105h ;# 
  1902                           # 2993 "/Applications/microchip/xc8/v1.12/include/pic16f707.h"
  1903                           CPSBCON0 equ 0106h ;# 
  1904                           # 3052 "/Applications/microchip/xc8/v1.12/include/pic16f707.h"
  1905                           CPSBCON1 equ 0107h ;# 
  1906                           # 3097 "/Applications/microchip/xc8/v1.12/include/pic16f707.h"
  1907                           CPSACON0 equ 0108h ;# 
  1908                           # 3156 "/Applications/microchip/xc8/v1.12/include/pic16f707.h"
  1909                           CPSACON1 equ 0109h ;# 
  1910                           # 3201 "/Applications/microchip/xc8/v1.12/include/pic16f707.h"
  1911                           PMDATL equ 010Ch ;# 
  1912                           # 3207 "/Applications/microchip/xc8/v1.12/include/pic16f707.h"
  1913                           PMADRL equ 010Dh ;# 
  1914                           # 3213 "/Applications/microchip/xc8/v1.12/include/pic16f707.h"
  1915                           PMDATH equ 010Eh ;# 
  1916                           # 3219 "/Applications/microchip/xc8/v1.12/include/pic16f707.h"
  1917                           PMADRH equ 010Fh ;# 
  1918                           # 3225 "/Applications/microchip/xc8/v1.12/include/pic16f707.h"
  1919                           TMRA equ 0110h ;# 
  1920                           # 3231 "/Applications/microchip/xc8/v1.12/include/pic16f707.h"
  1921                           TBCON equ 0111h ;# 
  1922                           # 3341 "/Applications/microchip/xc8/v1.12/include/pic16f707.h"
  1923                           TMRB equ 0112h ;# 
  1924                           # 3347 "/Applications/microchip/xc8/v1.12/include/pic16f707.h"
  1925                           DACCON0 equ 0113h ;# 
  1926                           # 3401 "/Applications/microchip/xc8/v1.12/include/pic16f707.h"
  1927                           DACCON1 equ 0114h ;# 
  1928                           # 3452 "/Applications/microchip/xc8/v1.12/include/pic16f707.h"
  1929                           ANSELA equ 0185h ;# 
  1930                           # 3521 "/Applications/microchip/xc8/v1.12/include/pic16f707.h"
  1931                           ANSELB equ 0186h ;# 
  1932                           # 3590 "/Applications/microchip/xc8/v1.12/include/pic16f707.h"
  1933                           ANSELC equ 0187h ;# 
  1934                           # 3648 "/Applications/microchip/xc8/v1.12/include/pic16f707.h"
  1935                           ANSELD equ 0188h ;# 
  1936                           # 3717 "/Applications/microchip/xc8/v1.12/include/pic16f707.h"
  1937                           ANSELE equ 0189h ;# 
  1938                           # 3756 "/Applications/microchip/xc8/v1.12/include/pic16f707.h"
  1939                           PMCON1 equ 018Ch ;# 
  1940                           	FNCALL	_main,_spiInit
  1941                           	FNCALL	_main,_uartInit
  1942                           	FNCALL	_main,_adcInit
  1943                           	FNCALL	_main,_rfm70setPowerdownMode
  1944                           	FNCALL	_main,_printf
  1945                           	FNCALL	_main,_adcReadVcap
  1946                           	FNCALL	_main,_RFM70_Initialize
  1947                           	FNCALL	_main,_adcReadTemp
  1948                           	FNCALL	_main,___wmul
  1949                           	FNCALL	_main,_adcReadVsupercap
  1950                           	FNCALL	_main,_Send_Packet
  1951                           	FNCALL	_main,_sleep
  1952                           	FNCALL	_rfm70setPowerdownMode,_SPI_Read_Reg
  1953                           	FNCALL	_rfm70setPowerdownMode,_SPI_Write_Reg
  1954                           	FNCALL	_RFM70_Initialize,_SwitchCFG
  1955                           	FNCALL	_RFM70_Initialize,_SPI_Write_Reg
  1956                           	FNCALL	_RFM70_Initialize,_SPI_Write_Buf
  1957                           	FNCALL	_RFM70_Initialize,_SPI_Read_Reg
  1958                           	FNCALL	_Send_Packet,_SwitchToTxMode
  1959                           	FNCALL	_Send_Packet,_SPI_Read_Reg
  1960                           	FNCALL	_Send_Packet,_printf
  1961                           	FNCALL	_Send_Packet,_SPI_Write_Buf
  1962                           	FNCALL	_Send_Packet,_rfm70TxDataSentInterrupt
  1963                           	FNCALL	_Send_Packet,_SwitchToRxMode
  1964                           	FNCALL	_Send_Packet,_rfm70TxDataSentErrorInterrupt
  1965                           	FNCALL	_printf,_putch
  1966                           	FNCALL	_printf,___lwdiv
  1967                           	FNCALL	_printf,___lwmod
  1968                           	FNCALL	_rfm70TxDataSentErrorInterrupt,_SPI_Read_Reg
  1969                           	FNCALL	_rfm70TxDataSentErrorInterrupt,_SPI_Write_Reg
  1970                           	FNCALL	_SwitchToRxMode,_SPI_Write_Reg
  1971                           	FNCALL	_SwitchToRxMode,_SPI_Read_Reg
  1972                           	FNCALL	_rfm70TxDataSentInterrupt,_SPI_Read_Reg
  1973                           	FNCALL	_rfm70TxDataSentInterrupt,_SPI_Write_Reg
  1974  0325                     __pmaintext:	;psect for function _main
  1975                           opt subtitle "HI-TECH Software Omniscient Code Generator (Lite mode) build 49521"
  1976                           
  1977                           opt pagewidth 120
  1978                           
  1979  02EB                     	__size_of_main	equ	__end_of_main-_main
  1980                           opt subtitle "HI-TECH Software Omniscient Code Generator (Lite mode) build 49521"
  1981  0325                     _main:	
  1982                           opt subtitle "HI-TECH Software Omniscient Code Generator (Lite mode) build 49521"
  1983                           
  1984                           opt pagewidth 120
  1985                           
  1986  0325                     l3348:	
  1987                           opt subtitle "HI-TECH Software Omniscient Code Generator (Lite mode) build 49521"
  1988  0325  3000               	movlw	0
  1989  0326  1683               	bsf	status, 5	;RP0=1, select bank1
  1990  0327  1303               	bcf	status, 6	;RP1=0, select bank1
  1991  0328  00D6               	movwf	(main@i+3)^080h
  1992  0329  3000               	movlw	0
  1993  032A  00D5               	movwf	(main@i+2)^080h
  1994  032B  3000               	movlw	0
  1995  032C  00D4               	movwf	(main@i+1)^080h
  1996  032D  3000               	movlw	0
  1997  032E  00D3               	movwf	(main@i)^080h
  1998                           opt subtitle "HI-TECH Software Omniscient Code Generator (Lite mode) build 49521"
  1999                           
  2000                           opt pagewidth 120
  2001  032F                     l3350:	
  2002                           opt subtitle "HI-TECH Software Omniscient Code Generator (Lite mode) build 49521"
  2003                           
  2004                           opt pagewidth 120
  2005                           
  2006                           	opt lm
  2007                           
  2008  032F  0810               	movf	(144)^080h,w	;volatile
  2009  0330  39CF               	andlw	not (((1<<2)-1)<<4)
  2010  0331  3820               	iorlw	(02h & ((1<<2)-1))<<4
  2011  0332  0090               	movwf	(144)^080h	;volatile
  2012                           opt subtitle "HI-TECH Software Omniscient Code Generator (Lite mode) build 49521"
  2013                           
  2014  0333                     l3352:	
  2015                           opt subtitle "HI-TECH Software Omniscient Code Generator (Lite mode) build 49521"
  2016  0333  1683               	bsf	status, 5	;RP0=1, select bank3
  2017  0334  1703               	bsf	status, 6	;RP1=1, select bank3
  2018  0335  1307               	bcf	(391)^0180h,6	;volatile
  2019                           opt subtitle "HI-TECH Software Omniscient Code Generator (Lite mode) build 49521"
  2020                           
  2021  0336                     l3354:	
  2022                           opt subtitle "HI-TECH Software Omniscient Code Generator (Lite mode) build 49521"
  2023  0336  1387               	bcf	(391)^0180h,7	;volatile
  2024                           opt subtitle "HI-TECH Software Omniscient Code Generator (Lite mode) build 49521"
  2025                           
  2026  0337                     l3356:	
  2027                           opt subtitle "HI-TECH Software Omniscient Code Generator (Lite mode) build 49521"
  2028  0337  1683               	bsf	status, 5	;RP0=1, select bank1
  2029  0338  1303               	bcf	status, 6	;RP1=0, select bank1
  2030  0339  1307               	bcf	(135)^080h,6	;volatile
  2031                           opt subtitle "HI-TECH Software Omniscient Code Generator (Lite mode) build 49521"
  2032                           
  2033  033A                     l3358:	
  2034                           opt subtitle "HI-TECH Software Omniscient Code Generator (Lite mode) build 49521"
  2035  033A  1683               	bsf	status, 5	;RP0=1, select bank3
  2036  033B  1703               	bsf	status, 6	;RP1=1, select bank3
  2037  033C  1107               	bcf	(391)^0180h,2	;volatile
  2038                           opt subtitle "HI-TECH Software Omniscient Code Generator (Lite mode) build 49521"
  2039                           
  2040  033D                     l3360:	
  2041                           opt subtitle "HI-TECH Software Omniscient Code Generator (Lite mode) build 49521"
  2042  033D  1108               	bcf	(392)^0180h,2	;volatile
  2043                           opt subtitle "HI-TECH Software Omniscient Code Generator (Lite mode) build 49521"
  2044                           
  2045  033E                     l3362:	
  2046                           opt subtitle "HI-TECH Software Omniscient Code Generator (Lite mode) build 49521"
  2047  033E  1287               	bcf	(391)^0180h,5	;volatile
  2048                           opt subtitle "HI-TECH Software Omniscient Code Generator (Lite mode) build 49521"
  2049                           
  2050  033F                     l3364:	
  2051                           opt subtitle "HI-TECH Software Omniscient Code Generator (Lite mode) build 49521"
  2052  033F  1088               	bcf	(392)^0180h,1	;volatile
  2053                           opt subtitle "HI-TECH Software Omniscient Code Generator (Lite mode) build 49521"
  2054                           
  2055  0340                     l3366:	
  2056                           opt subtitle "HI-TECH Software Omniscient Code Generator (Lite mode) build 49521"
  2057  0340  1683               	bsf	status, 5	;RP0=1, select bank1
  2058  0341  1303               	bcf	status, 6	;RP1=0, select bank1
  2059  0342  1509               	bsf	(137)^080h,2	;volatile
  2060                           opt subtitle "HI-TECH Software Omniscient Code Generator (Lite mode) build 49521"
  2061                           
  2062  0343                     l3368:	
  2063                           opt subtitle "HI-TECH Software Omniscient Code Generator (Lite mode) build 49521"
  2064  0343  1683               	bsf	status, 5	;RP0=1, select bank3
  2065  0344  1703               	bsf	status, 6	;RP1=1, select bank3
  2066  0345  1509               	bsf	(393)^0180h,2	;volatile
  2067                           opt subtitle "HI-TECH Software Omniscient Code Generator (Lite mode) build 49521"
  2068                           
  2069  0346                     l3370:	
  2070                           opt subtitle "HI-TECH Software Omniscient Code Generator (Lite mode) build 49521"
  2071  0346  1683               	bsf	status, 5	;RP0=1, select bank1
  2072  0347  1303               	bcf	status, 6	;RP1=0, select bank1
  2073  0348  1105               	bcf	(133)^080h,2	;volatile
  2074                           opt subtitle "HI-TECH Software Omniscient Code Generator (Lite mode) build 49521"
  2075                           
  2076  0349                     l3372:	
  2077                           opt subtitle "HI-TECH Software Omniscient Code Generator (Lite mode) build 49521"
  2078  0349  30A0               	movlw	(0A0h)
  2079  034A  1283               	bcf	status, 5	;RP0=0, select bank2
  2080  034B  1703               	bsf	status, 6	;RP1=1, select bank2
  2081  034C  0093               	movwf	(275)^0100h	;volatile
  2082                           opt subtitle "HI-TECH Software Omniscient Code Generator (Lite mode) build 49521"
  2083                           
  2084  034D                     l3374:	
  2085                           opt subtitle "HI-TECH Software Omniscient Code Generator (Lite mode) build 49521"
  2086  034D  300F               	movlw	(0Fh)
  2087  034E  0094               	movwf	(276)^0100h	;volatile
  2088                           opt subtitle "HI-TECH Software Omniscient Code Generator (Lite mode) build 49521"
  2089                           
  2090  034F                     l3376:	
  2091                           opt subtitle "HI-TECH Software Omniscient Code Generator (Lite mode) build 49521"
  2092  034F  1683               	bsf	status, 5	;RP0=1, select bank1
  2093  0350  1303               	bcf	status, 6	;RP1=0, select bank1
  2094  0351  1107               	bcf	(135)^080h,2	;volatile
  2095                           opt subtitle "HI-TECH Software Omniscient Code Generator (Lite mode) build 49521"
  2096                           
  2097  0352                     l3378:	
  2098                           opt subtitle "HI-TECH Software Omniscient Code Generator (Lite mode) build 49521"
  2099  0352  1108               	bcf	(136)^080h,2	;volatile
  2100                           opt subtitle "HI-TECH Software Omniscient Code Generator (Lite mode) build 49521"
  2101                           
  2102  0353                     l3380:	
  2103                           opt subtitle "HI-TECH Software Omniscient Code Generator (Lite mode) build 49521"
  2104  0353  1187               	bcf	(135)^080h,3	;volatile
  2105                           opt subtitle "HI-TECH Software Omniscient Code Generator (Lite mode) build 49521"
  2106                           
  2107  0354                     l3382:	
  2108                           opt subtitle "HI-TECH Software Omniscient Code Generator (Lite mode) build 49521"
  2109  0354  1287               	bcf	(135)^080h,5	;volatile
  2110                           opt subtitle "HI-TECH Software Omniscient Code Generator (Lite mode) build 49521"
  2111                           
  2112  0355                     l3384:	
  2113                           opt subtitle "HI-TECH Software Omniscient Code Generator (Lite mode) build 49521"
  2114  0355  1607               	bsf	(135)^080h,4	;volatile
  2115                           opt subtitle "HI-TECH Software Omniscient Code Generator (Lite mode) build 49521"
  2116                           
  2117  0356                     l3386:	
  2118                           opt subtitle "HI-TECH Software Omniscient Code Generator (Lite mode) build 49521"
  2119  0356  1488               	bsf	(136)^080h,1	;volatile
  2120                           opt subtitle "HI-TECH Software Omniscient Code Generator (Lite mode) build 49521"
  2121                           
  2122  0357                     l3388:	
  2123                           opt subtitle "HI-TECH Software Omniscient Code Generator (Lite mode) build 49521"
  2124  0357  1283               	bcf	status, 5	;RP0=0, select bank0
  2125  0358  1303               	bcf	status, 6	;RP1=0, select bank0
  2126  0359  1107               	bcf	(7),2	;volatile
  2127                           opt subtitle "HI-TECH Software Omniscient Code Generator (Lite mode) build 49521"
  2128                           
  2129  035A                     l3390:	
  2130                           opt subtitle "HI-TECH Software Omniscient Code Generator (Lite mode) build 49521"
  2131  035A  1508               	bsf	(8),2	;volatile
  2132                           opt subtitle "HI-TECH Software Omniscient Code Generator (Lite mode) build 49521"
  2133                           
  2134  035B                     l3392:	
  2135                           opt subtitle "HI-TECH Software Omniscient Code Generator (Lite mode) build 49521"
  2136  035B  1187               	bcf	(7),3	;volatile
  2137                           opt subtitle "HI-TECH Software Omniscient Code Generator (Lite mode) build 49521"
  2138                           
  2139  035C                     l3394:	
  2140                           opt subtitle "HI-TECH Software Omniscient Code Generator (Lite mode) build 49521"
  2141  035C  1287               	bcf	(7),5	;volatile
  2142                           opt subtitle "HI-TECH Software Omniscient Code Generator (Lite mode) build 49521"
  2143                           
  2144  035D                     l3396:	
  2145                           opt subtitle "HI-TECH Software Omniscient Code Generator (Lite mode) build 49521"
  2146  035D  1683               	bsf	status, 5	;RP0=1, select bank1
  2147  035E  1303               	bcf	status, 6	;RP1=0, select bank1
  2148  035F  1008               	bcf	(136)^080h,0	;volatile
  2149                           opt subtitle "HI-TECH Software Omniscient Code Generator (Lite mode) build 49521"
  2150                           
  2151  0360                     l3398:	
  2152                           opt subtitle "HI-TECH Software Omniscient Code Generator (Lite mode) build 49521"
  2153  0360  1683               	bsf	status, 5	;RP0=1, select bank3
  2154  0361  1703               	bsf	status, 6	;RP1=1, select bank3
  2155  0362  1008               	bcf	(392)^0180h,0	;volatile
  2156                           opt subtitle "HI-TECH Software Omniscient Code Generator (Lite mode) build 49521"
  2157                           
  2158  0363                     l3400:	
  2159                           opt subtitle "HI-TECH Software Omniscient Code Generator (Lite mode) build 49521"
  2160  0363  1683               	bsf	status, 5	;RP0=1, select bank1
  2161  0364  1303               	bcf	status, 6	;RP1=0, select bank1
  2162  0365  1509               	bsf	(137)^080h,2	;volatile
  2163                           opt subtitle "HI-TECH Software Omniscient Code Generator (Lite mode) build 49521"
  2164                           
  2165  0366                     l3402:	
  2166                           opt subtitle "HI-TECH Software Omniscient Code Generator (Lite mode) build 49521"
  2167  0366  1683               	bsf	status, 5	;RP0=1, select bank3
  2168  0367  1703               	bsf	status, 6	;RP1=1, select bank3
  2169  0368  1509               	bsf	(393)^0180h,2	;volatile
  2170                           opt subtitle "HI-TECH Software Omniscient Code Generator (Lite mode) build 49521"
  2171                           
  2172  0369                     l3404:	
  2173                           opt subtitle "HI-TECH Software Omniscient Code Generator (Lite mode) build 49521"
  2174  0369  1683               	bsf	status, 5	;RP0=1, select bank1
  2175  036A  1303               	bcf	status, 6	;RP1=0, select bank1
  2176  036B  1409               	bsf	(137)^080h,0	;volatile
  2177                           opt subtitle "HI-TECH Software Omniscient Code Generator (Lite mode) build 49521"
  2178                           
  2179  036C                     l3406:	
  2180                           opt subtitle "HI-TECH Software Omniscient Code Generator (Lite mode) build 49521"
  2181  036C  1683               	bsf	status, 5	;RP0=1, select bank3
  2182  036D  1703               	bsf	status, 6	;RP1=1, select bank3
  2183  036E  1009               	bcf	(393)^0180h,0	;volatile
  2184                           opt subtitle "HI-TECH Software Omniscient Code Generator (Lite mode) build 49521"
  2185                           
  2186  036F                     l3408:	
  2187                           opt subtitle "HI-TECH Software Omniscient Code Generator (Lite mode) build 49521"
  2188  036F  1283               	bcf	status, 5	;RP0=0, select bank0
  2189  0370  1303               	bcf	status, 6	;RP1=0, select bank0
  2190  0371  1008               	bcf	(8),0	;volatile
  2191                           opt subtitle "HI-TECH Software Omniscient Code Generator (Lite mode) build 49521"
  2192                           
  2193  0372                     l3410:	
  2194                           opt subtitle "HI-TECH Software Omniscient Code Generator (Lite mode) build 49521"
  2195  0372  1683               	bsf	status, 5	;RP0=1, select bank1
  2196  0373  1303               	bcf	status, 6	;RP1=0, select bank1
  2197  0374  1409               	bsf	(137)^080h,0	;volatile
  2198                           opt subtitle "HI-TECH Software Omniscient Code Generator (Lite mode) build 49521"
  2199                           
  2200  0375                     l3412:	
  2201                           opt subtitle "HI-TECH Software Omniscient Code Generator (Lite mode) build 49521"
  2202  0375  1683               	bsf	status, 5	;RP0=1, select bank3
  2203  0376  1703               	bsf	status, 6	;RP1=1, select bank3
  2204  0377  1409               	bsf	(393)^0180h,0	;volatile
  2205                           opt subtitle "HI-TECH Software Omniscient Code Generator (Lite mode) build 49521"
  2206                           
  2207  0378                     l3414:	
  2208                           opt subtitle "HI-TECH Software Omniscient Code Generator (Lite mode) build 49521"
  2209  0378  1683               	bsf	status, 5	;RP0=1, select bank1
  2210  0379  1303               	bcf	status, 6	;RP1=0, select bank1
  2211  037A  1188               	bcf	(136)^080h,3	;volatile
  2212                           opt subtitle "HI-TECH Software Omniscient Code Generator (Lite mode) build 49521"
  2213                           
  2214  037B                     l3416:	
  2215                           opt subtitle "HI-TECH Software Omniscient Code Generator (Lite mode) build 49521"
  2216  037B  1283               	bcf	status, 5	;RP0=0, select bank0
  2217  037C  1303               	bcf	status, 6	;RP1=0, select bank0
  2218  037D  1188               	bcf	(8),3	;volatile
  2219                           opt subtitle "HI-TECH Software Omniscient Code Generator (Lite mode) build 49521"
  2220                           
  2221  037E                     l3418:	
  2222                           opt subtitle "HI-TECH Software Omniscient Code Generator (Lite mode) build 49521"
  2223  037E  1683               	bsf	status, 5	;RP0=1, select bank1
  2224  037F  1303               	bcf	status, 6	;RP1=0, select bank1
  2225  0380  1688               	bsf	(136)^080h,5	;volatile
  2226                           opt subtitle "HI-TECH Software Omniscient Code Generator (Lite mode) build 49521"
  2227                           
  2228  0381                     l3420:	
  2229                           opt subtitle "HI-TECH Software Omniscient Code Generator (Lite mode) build 49521"
  2230  0381  1683               	bsf	status, 5	;RP0=1, select bank3
  2231  0382  1703               	bsf	status, 6	;RP1=1, select bank3
  2232  0383  1288               	bcf	(392)^0180h,5	;volatile
  2233                           opt subtitle "HI-TECH Software Omniscient Code Generator (Lite mode) build 49521"
  2234                           
  2235  0384                     l3422:	
  2236                           opt subtitle "HI-TECH Software Omniscient Code Generator (Lite mode) build 49521"
  2237  0384  1683               	bsf	status, 5	;RP0=1, select bank1
  2238  0385  1303               	bcf	status, 6	;RP1=0, select bank1
  2239  0386  1708               	bsf	(136)^080h,6	;volatile
  2240                           opt subtitle "HI-TECH Software Omniscient Code Generator (Lite mode) build 49521"
  2241                           
  2242  0387                     l3424:	
  2243                           opt subtitle "HI-TECH Software Omniscient Code Generator (Lite mode) build 49521"
  2244  0387  1788               	bsf	(136)^080h,7	;volatile
  2245                           opt subtitle "HI-TECH Software Omniscient Code Generator (Lite mode) build 49521"
  2246                           
  2247  0388                     l3426:	
  2248                           opt subtitle "HI-TECH Software Omniscient Code Generator (Lite mode) build 49521"
  2249  0388  1683               	bsf	status, 5	;RP0=1, select bank3
  2250  0389  1703               	bsf	status, 6	;RP1=1, select bank3
  2251  038A  1308               	bcf	(392)^0180h,6	;volatile
  2252                           opt subtitle "HI-TECH Software Omniscient Code Generator (Lite mode) build 49521"
  2253                           
  2254  038B                     l3428:	
  2255                           opt subtitle "HI-TECH Software Omniscient Code Generator (Lite mode) build 49521"
  2256  038B  1388               	bcf	(392)^0180h,7	;volatile
  2257                           opt subtitle "HI-TECH Software Omniscient Code Generator (Lite mode) build 49521"
  2258                           
  2259  038C                     l3430:	
  2260                           opt subtitle "HI-TECH Software Omniscient Code Generator (Lite mode) build 49521"
  2261  038C  178B               	bsf	(95/8),(95)&7	;volatile
  2262                           opt subtitle "HI-TECH Software Omniscient Code Generator (Lite mode) build 49521"
  2263                           
  2264  038D                     l3432:	
  2265                           opt subtitle "HI-TECH Software Omniscient Code Generator (Lite mode) build 49521"
  2266  038D  170B               	bsf	(94/8),(94)&7	;volatile
  2267                           opt subtitle "HI-TECH Software Omniscient Code Generator (Lite mode) build 49521"
  2268                           
  2269  038E                     l3434:	
  2270                           opt subtitle "HI-TECH Software Omniscient Code Generator (Lite mode) build 49521"
  2271  038E  1683               	bsf	status, 5	;RP0=1, select bank1
  2272  038F  1303               	bcf	status, 6	;RP1=0, select bank1
  2273  0390  140C               	bsf	(1120/8)^080h,(1120)&7	;volatile
  2274                           opt subtitle "HI-TECH Software Omniscient Code Generator (Lite mode) build 49521"
  2275                           
  2276  0391                     l3436:	
  2277                           opt subtitle "HI-TECH Software Omniscient Code Generator (Lite mode) build 49521"
  2278  0391  3010               	movlw	(010h)
  2279  0392  1283               	bcf	status, 5	;RP0=0, select bank0
  2280  0393  1303               	bcf	status, 6	;RP1=0, select bank0
  2281  0394  008F               	movwf	(15)	;volatile
  2282                           opt subtitle "HI-TECH Software Omniscient Code Generator (Lite mode) build 49521"
  2283                           
  2284  0395                     l3438:	
  2285                           opt subtitle "HI-TECH Software Omniscient Code Generator (Lite mode) build 49521"
  2286  0395  018E               	clrf	(14)	;volatile
  2287                           opt subtitle "HI-TECH Software Omniscient Code Generator (Lite mode) build 49521"
  2288                           
  2289  0396                     l3440:	
  2290                           opt subtitle "HI-TECH Software Omniscient Code Generator (Lite mode) build 49521"
  2291  0396  0810               	movf	(16),w	;volatile
  2292  0397  393F               	andlw	not (((1<<2)-1)<<6)
  2293  0398  3880               	iorlw	(02h & ((1<<2)-1))<<6
  2294  0399  0090               	movwf	(16)	;volatile
  2295                           opt subtitle "HI-TECH Software Omniscient Code Generator (Lite mode) build 49521"
  2296                           
  2297  039A                     l3442:	
  2298                           opt subtitle "HI-TECH Software Omniscient Code Generator (Lite mode) build 49521"
  2299  039A  3030               	movlw	(03h & ((1<<2)-1))<<4
  2300  039B  0490               	iorwf	(16),f	;volatile
  2301                           opt subtitle "HI-TECH Software Omniscient Code Generator (Lite mode) build 49521"
  2302                           
  2303  039C                     l3444:	
  2304                           opt subtitle "HI-TECH Software Omniscient Code Generator (Lite mode) build 49521"
  2305  039C  1683               	bsf	status, 5	;RP0=1, select bank1
  2306  039D  1303               	bcf	status, 6	;RP1=0, select bank1
  2307  039E  178F               	bsf	(143)^080h,7	;volatile
  2308                           opt subtitle "HI-TECH Software Omniscient Code Generator (Lite mode) build 49521"
  2309                           
  2310  039F                     l3446:	
  2311                           opt subtitle "HI-TECH Software Omniscient Code Generator (Lite mode) build 49521"
  2312  039F  1283               	bcf	status, 5	;RP0=0, select bank0
  2313  03A0  1303               	bcf	status, 6	;RP1=0, select bank0
  2314  03A1  1510               	bsf	(16),2	;volatile
  2315                           opt subtitle "HI-TECH Software Omniscient Code Generator (Lite mode) build 49521"
  2316                           
  2317  03A2                     l3448:	
  2318                           opt subtitle "HI-TECH Software Omniscient Code Generator (Lite mode) build 49521"
  2319  03A2  1590               	bsf	(16),3	;volatile
  2320                           opt subtitle "HI-TECH Software Omniscient Code Generator (Lite mode) build 49521"
  2321                           
  2322  03A3                     l3450:	
  2323                           opt subtitle "HI-TECH Software Omniscient Code Generator (Lite mode) build 49521"
  2324  03A3  1410               	bsf	(16),0	;volatile
  2325                           opt subtitle "HI-TECH Software Omniscient Code Generator (Lite mode) build 49521"
  2326                           
  2327  03A4                     l3452:	
  2328                           opt subtitle "HI-TECH Software Omniscient Code Generator (Lite mode) build 49521"
  2329  03A4  1683               	bsf	status, 5	;RP0=1, select bank1
  2330  03A5  1303               	bcf	status, 6	;RP1=0, select bank1
  2331  03A6  1085               	bcf	(133)^080h,1	;volatile
  2332                           opt subtitle "HI-TECH Software Omniscient Code Generator (Lite mode) build 49521"
  2333                           
  2334  03A7                     l3454:	
  2335                           opt subtitle "HI-TECH Software Omniscient Code Generator (Lite mode) build 49521"
  2336  03A7  1185               	bcf	(133)^080h,3	;volatile
  2337                           opt subtitle "HI-TECH Software Omniscient Code Generator (Lite mode) build 49521"
  2338                           
  2339  03A8                     l3456:	
  2340                           opt subtitle "HI-TECH Software Omniscient Code Generator (Lite mode) build 49521"
  2341  03A8  1205               	bcf	(133)^080h,4	;volatile
  2342                           opt subtitle "HI-TECH Software Omniscient Code Generator (Lite mode) build 49521"
  2343                           
  2344  03A9                     l3458:	
  2345                           opt subtitle "HI-TECH Software Omniscient Code Generator (Lite mode) build 49521"
  2346  03A9  1285               	bcf	(133)^080h,5	;volatile
  2347                           opt subtitle "HI-TECH Software Omniscient Code Generator (Lite mode) build 49521"
  2348                           
  2349  03AA                     l3460:	
  2350                           opt subtitle "HI-TECH Software Omniscient Code Generator (Lite mode) build 49521"
  2351  03AA  1305               	bcf	(133)^080h,6	;volatile
  2352                           opt subtitle "HI-TECH Software Omniscient Code Generator (Lite mode) build 49521"
  2353                           
  2354  03AB                     l3462:	
  2355                           opt subtitle "HI-TECH Software Omniscient Code Generator (Lite mode) build 49521"
  2356  03AB  1385               	bcf	(133)^080h,7	;volatile
  2357                           opt subtitle "HI-TECH Software Omniscient Code Generator (Lite mode) build 49521"
  2358                           
  2359  03AC                     l3464:	
  2360                           opt subtitle "HI-TECH Software Omniscient Code Generator (Lite mode) build 49521"
  2361  03AC  1683               	bsf	status, 5	;RP0=1, select bank3
  2362  03AD  1703               	bsf	status, 6	;RP1=1, select bank3
  2363  03AE  1085               	bcf	(389)^0180h,1	;volatile
  2364                           opt subtitle "HI-TECH Software Omniscient Code Generator (Lite mode) build 49521"
  2365                           
  2366  03AF                     l3466:	
  2367                           opt subtitle "HI-TECH Software Omniscient Code Generator (Lite mode) build 49521"
  2368  03AF  1185               	bcf	(389)^0180h,3	;volatile
  2369                           opt subtitle "HI-TECH Software Omniscient Code Generator (Lite mode) build 49521"
  2370                           
  2371  03B0                     l3468:	
  2372                           opt subtitle "HI-TECH Software Omniscient Code Generator (Lite mode) build 49521"
  2373  03B0  1205               	bcf	(389)^0180h,4	;volatile
  2374                           opt subtitle "HI-TECH Software Omniscient Code Generator (Lite mode) build 49521"
  2375                           
  2376  03B1                     l3470:	
  2377                           opt subtitle "HI-TECH Software Omniscient Code Generator (Lite mode) build 49521"
  2378  03B1  1285               	bcf	(389)^0180h,5	;volatile
  2379                           opt subtitle "HI-TECH Software Omniscient Code Generator (Lite mode) build 49521"
  2380                           
  2381  03B2                     l3472:	
  2382                           opt subtitle "HI-TECH Software Omniscient Code Generator (Lite mode) build 49521"
  2383  03B2  1305               	bcf	(389)^0180h,6	;volatile
  2384                           opt subtitle "HI-TECH Software Omniscient Code Generator (Lite mode) build 49521"
  2385                           
  2386  03B3                     l3474:	
  2387                           opt subtitle "HI-TECH Software Omniscient Code Generator (Lite mode) build 49521"
  2388  03B3  1385               	bcf	(389)^0180h,7	;volatile
  2389                           opt subtitle "HI-TECH Software Omniscient Code Generator (Lite mode) build 49521"
  2390                           
  2391  03B4                     l3476:	
  2392                           opt subtitle "HI-TECH Software Omniscient Code Generator (Lite mode) build 49521"
  2393  03B4  1283               	bcf	status, 5	;RP0=0, select bank0
  2394  03B5  1303               	bcf	status, 6	;RP1=0, select bank0
  2395  03B6  1085               	bcf	(5),1	;volatile
  2396                           opt subtitle "HI-TECH Software Omniscient Code Generator (Lite mode) build 49521"
  2397                           
  2398  03B7                     l3478:	
  2399                           opt subtitle "HI-TECH Software Omniscient Code Generator (Lite mode) build 49521"
  2400  03B7  1185               	bcf	(5),3	;volatile
  2401                           opt subtitle "HI-TECH Software Omniscient Code Generator (Lite mode) build 49521"
  2402                           
  2403  03B8                     l3480:	
  2404                           opt subtitle "HI-TECH Software Omniscient Code Generator (Lite mode) build 49521"
  2405  03B8  1205               	bcf	(5),4	;volatile
  2406                           opt subtitle "HI-TECH Software Omniscient Code Generator (Lite mode) build 49521"
  2407                           
  2408  03B9                     l3482:	
  2409                           opt subtitle "HI-TECH Software Omniscient Code Generator (Lite mode) build 49521"
  2410  03B9  1285               	bcf	(5),5	;volatile
  2411                           opt subtitle "HI-TECH Software Omniscient Code Generator (Lite mode) build 49521"
  2412                           
  2413  03BA                     l3484:	
  2414                           opt subtitle "HI-TECH Software Omniscient Code Generator (Lite mode) build 49521"
  2415  03BA  1305               	bcf	(5),6	;volatile
  2416                           opt subtitle "HI-TECH Software Omniscient Code Generator (Lite mode) build 49521"
  2417                           
  2418  03BB                     l3486:	
  2419                           opt subtitle "HI-TECH Software Omniscient Code Generator (Lite mode) build 49521"
  2420  03BB  1385               	bcf	(5),7	;volatile
  2421                           opt subtitle "HI-TECH Software Omniscient Code Generator (Lite mode) build 49521"
  2422                           
  2423  03BC                     l3488:	
  2424                           opt subtitle "HI-TECH Software Omniscient Code Generator (Lite mode) build 49521"
  2425  03BC  1683               	bsf	status, 5	;RP0=1, select bank1
  2426  03BD  1303               	bcf	status, 6	;RP1=0, select bank1
  2427  03BE  1006               	bcf	(134)^080h,0	;volatile
  2428                           opt subtitle "HI-TECH Software Omniscient Code Generator (Lite mode) build 49521"
  2429                           
  2430  03BF                     l3490:	
  2431                           opt subtitle "HI-TECH Software Omniscient Code Generator (Lite mode) build 49521"
  2432  03BF  1086               	bcf	(134)^080h,1	;volatile
  2433                           opt subtitle "HI-TECH Software Omniscient Code Generator (Lite mode) build 49521"
  2434                           
  2435  03C0                     l3492:	
  2436                           opt subtitle "HI-TECH Software Omniscient Code Generator (Lite mode) build 49521"
  2437  03C0  1106               	bcf	(134)^080h,2	;volatile
  2438                           opt subtitle "HI-TECH Software Omniscient Code Generator (Lite mode) build 49521"
  2439                           
  2440  03C1                     l3494:	
  2441                           opt subtitle "HI-TECH Software Omniscient Code Generator (Lite mode) build 49521"
  2442  03C1  1186               	bcf	(134)^080h,3	;volatile
  2443                           opt subtitle "HI-TECH Software Omniscient Code Generator (Lite mode) build 49521"
  2444                           
  2445  03C2                     l3496:	
  2446                           opt subtitle "HI-TECH Software Omniscient Code Generator (Lite mode) build 49521"
  2447  03C2  1206               	bcf	(134)^080h,4	;volatile
  2448                           opt subtitle "HI-TECH Software Omniscient Code Generator (Lite mode) build 49521"
  2449                           
  2450  03C3                     l3498:	
  2451                           opt subtitle "HI-TECH Software Omniscient Code Generator (Lite mode) build 49521"
  2452  03C3  1286               	bcf	(134)^080h,5	;volatile
  2453                           opt subtitle "HI-TECH Software Omniscient Code Generator (Lite mode) build 49521"
  2454                           
  2455  03C4                     l3500:	
  2456                           opt subtitle "HI-TECH Software Omniscient Code Generator (Lite mode) build 49521"
  2457  03C4  1683               	bsf	status, 5	;RP0=1, select bank3
  2458  03C5  1703               	bsf	status, 6	;RP1=1, select bank3
  2459  03C6  1006               	bcf	(390)^0180h,0	;volatile
  2460                           opt subtitle "HI-TECH Software Omniscient Code Generator (Lite mode) build 49521"
  2461                           
  2462  03C7                     l3502:	
  2463                           opt subtitle "HI-TECH Software Omniscient Code Generator (Lite mode) build 49521"
  2464  03C7  1086               	bcf	(390)^0180h,1	;volatile
  2465                           opt subtitle "HI-TECH Software Omniscient Code Generator (Lite mode) build 49521"
  2466                           
  2467  03C8                     l3504:	
  2468                           opt subtitle "HI-TECH Software Omniscient Code Generator (Lite mode) build 49521"
  2469  03C8  1106               	bcf	(390)^0180h,2	;volatile
  2470                           opt subtitle "HI-TECH Software Omniscient Code Generator (Lite mode) build 49521"
  2471                           
  2472  03C9                     l3506:	
  2473                           opt subtitle "HI-TECH Software Omniscient Code Generator (Lite mode) build 49521"
  2474  03C9  1186               	bcf	(390)^0180h,3	;volatile
  2475                           opt subtitle "HI-TECH Software Omniscient Code Generator (Lite mode) build 49521"
  2476                           
  2477  03CA                     l3508:	
  2478                           opt subtitle "HI-TECH Software Omniscient Code Generator (Lite mode) build 49521"
  2479  03CA  1206               	bcf	(390)^0180h,4	;volatile
  2480                           opt subtitle "HI-TECH Software Omniscient Code Generator (Lite mode) build 49521"
  2481                           
  2482  03CB                     l3510:	
  2483                           opt subtitle "HI-TECH Software Omniscient Code Generator (Lite mode) build 49521"
  2484  03CB  1286               	bcf	(390)^0180h,5	;volatile
  2485                           opt subtitle "HI-TECH Software Omniscient Code Generator (Lite mode) build 49521"
  2486                           
  2487  03CC                     l3512:	
  2488                           opt subtitle "HI-TECH Software Omniscient Code Generator (Lite mode) build 49521"
  2489  03CC  1283               	bcf	status, 5	;RP0=0, select bank0
  2490  03CD  1303               	bcf	status, 6	;RP1=0, select bank0
  2491  03CE  1006               	bcf	(6),0	;volatile
  2492                           opt subtitle "HI-TECH Software Omniscient Code Generator (Lite mode) build 49521"
  2493                           
  2494  03CF                     l3514:	
  2495                           opt subtitle "HI-TECH Software Omniscient Code Generator (Lite mode) build 49521"
  2496  03CF  1086               	bcf	(6),1	;volatile
  2497                           opt subtitle "HI-TECH Software Omniscient Code Generator (Lite mode) build 49521"
  2498                           
  2499  03D0                     l3516:	
  2500                           opt subtitle "HI-TECH Software Omniscient Code Generator (Lite mode) build 49521"
  2501  03D0  1106               	bcf	(6),2	;volatile
  2502                           opt subtitle "HI-TECH Software Omniscient Code Generator (Lite mode) build 49521"
  2503                           
  2504  03D1                     l3518:	
  2505                           opt subtitle "HI-TECH Software Omniscient Code Generator (Lite mode) build 49521"
  2506  03D1  1186               	bcf	(6),3	;volatile
  2507                           opt subtitle "HI-TECH Software Omniscient Code Generator (Lite mode) build 49521"
  2508                           
  2509  03D2                     l3520:	
  2510                           opt subtitle "HI-TECH Software Omniscient Code Generator (Lite mode) build 49521"
  2511  03D2  1606               	bsf	(6),4	;volatile
  2512                           opt subtitle "HI-TECH Software Omniscient Code Generator (Lite mode) build 49521"
  2513                           
  2514  03D3                     l3522:	
  2515                           opt subtitle "HI-TECH Software Omniscient Code Generator (Lite mode) build 49521"
  2516  03D3  1286               	bcf	(6),5	;volatile
  2517                           opt subtitle "HI-TECH Software Omniscient Code Generator (Lite mode) build 49521"
  2518                           
  2519  03D4                     l3524:	
  2520                           opt subtitle "HI-TECH Software Omniscient Code Generator (Lite mode) build 49521"
  2521  03D4  1683               	bsf	status, 5	;RP0=1, select bank1
  2522  03D5  1303               	bcf	status, 6	;RP1=0, select bank1
  2523  03D6  1208               	bcf	(136)^080h,4	;volatile
  2524                           opt subtitle "HI-TECH Software Omniscient Code Generator (Lite mode) build 49521"
  2525                           
  2526  03D7                     l3526:	
  2527                           opt subtitle "HI-TECH Software Omniscient Code Generator (Lite mode) build 49521"
  2528  03D7  1683               	bsf	status, 5	;RP0=1, select bank3
  2529  03D8  1703               	bsf	status, 6	;RP1=1, select bank3
  2530  03D9  1208               	bcf	(392)^0180h,4	;volatile
  2531                           opt subtitle "HI-TECH Software Omniscient Code Generator (Lite mode) build 49521"
  2532                           
  2533  03DA                     l3528:	
  2534                           opt subtitle "HI-TECH Software Omniscient Code Generator (Lite mode) build 49521"
  2535  03DA  1283               	bcf	status, 5	;RP0=0, select bank0
  2536  03DB  1303               	bcf	status, 6	;RP1=0, select bank0
  2537  03DC  1208               	bcf	(8),4	;volatile
  2538                           opt subtitle "HI-TECH Software Omniscient Code Generator (Lite mode) build 49521"
  2539                           
  2540  03DD                     l3530:	
  2541                           opt subtitle "HI-TECH Software Omniscient Code Generator (Lite mode) build 49521"
  2542  03DD  1683               	bsf	status, 5	;RP0=1, select bank1
  2543  03DE  1303               	bcf	status, 6	;RP1=0, select bank1
  2544  03DF  1489               	bsf	(137)^080h,1	;volatile
  2545                           opt subtitle "HI-TECH Software Omniscient Code Generator (Lite mode) build 49521"
  2546                           
  2547  03E0                     l3532:	
  2548                           opt subtitle "HI-TECH Software Omniscient Code Generator (Lite mode) build 49521"
  2549  03E0  1683               	bsf	status, 5	;RP0=1, select bank3
  2550  03E1  1703               	bsf	status, 6	;RP1=1, select bank3
  2551  03E2  1489               	bsf	(393)^0180h,1	;volatile
  2552                           opt subtitle "HI-TECH Software Omniscient Code Generator (Lite mode) build 49521"
  2553                           
  2554  03E3                     l3534:	
  2555                           opt subtitle "HI-TECH Software Omniscient Code Generator (Lite mode) build 49521"
  2556  03E3  1283               	bcf	status, 5	;RP0=0, select bank0
  2557  03E4  1303               	bcf	status, 6	;RP1=0, select bank0
  2558  03E5  1089               	bcf	(9),1	;volatile
  2559                           opt subtitle "HI-TECH Software Omniscient Code Generator (Lite mode) build 49521"
  2560                           
  2561  03E6                     l3536:	
  2562                           opt subtitle "HI-TECH Software Omniscient Code Generator (Lite mode) build 49521"
  2563  03E6  0808               	movf	(8),w	;volatile
  2564  03E7  1683               	bsf	status, 5	;RP0=1, select bank1
  2565  03E8  1303               	bcf	status, 6	;RP1=0, select bank1
  2566  03E9  00AC               	movwf	(??_main+0)^080h+0
  2567  03EA  3004               	movlw	04h
  2568  03EB                     u2995:
  2569  03EB  1003               	clrc
  2570  03EC  0CAC               	rrf	(??_main+0)^080h+0,f
  2571  03ED  3EFF               	addlw	-1
  2572  03EE  1D03               	skipz
  2573  03EF  2BEB               	goto	u2995
  2574  03F0  082C               	movf	0+(??_main+0)^080h+0,w
  2575  03F1  00AD               	movwf	(??_main+1)^080h+0
  2576  03F2  082D               	movf	(??_main+1)^080h+0,w
  2577  03F3  00E6               	movwf	(_jumper_stat)^080h
  2578                           opt subtitle "HI-TECH Software Omniscient Code Generator (Lite mode) build 49521"
  2579                           
  2580  03F4                     l3538:	
  2581                           opt subtitle "HI-TECH Software Omniscient Code Generator (Lite mode) build 49521"
  2582  03F4  120A  158A  2136   	fcall	_spiInit
              120A  118A         
  2583                           opt subtitle "HI-TECH Software Omniscient Code Generator (Lite mode) build 49521"
  2584                           
  2585  03F9                     l3540:	
  2586                           opt subtitle "HI-TECH Software Omniscient Code Generator (Lite mode) build 49521"
  2587  03F9  120A  158A  2120   	fcall	_uartInit
              120A  118A         
  2588                           opt subtitle "HI-TECH Software Omniscient Code Generator (Lite mode) build 49521"
  2589                           
  2590  03FE                     l3542:	
  2591                           opt subtitle "HI-TECH Software Omniscient Code Generator (Lite mode) build 49521"
  2592  03FE  120A  158A  20D5   	fcall	_adcInit
              120A  118A         
  2593                           opt subtitle "HI-TECH Software Omniscient Code Generator (Lite mode) build 49521"
  2594                           
  2595  0403                     l3544:	
  2596                           opt subtitle "HI-TECH Software Omniscient Code Generator (Lite mode) build 49521"
  2597  0403  3000               	movlw	(0)
  2598  0404  120A  158A  21BE   	fcall	_rfm70setPowerdownMode
              120A  118A         
  2599                           opt subtitle "HI-TECH Software Omniscient Code Generator (Lite mode) build 49521"
  2600                           
  2601  0409                     l3546:	
  2602                           opt subtitle "HI-TECH Software Omniscient Code Generator (Lite mode) build 49521"
  2603  0409  1283               	bcf	status, 5	;RP0=0, select bank0
  2604  040A  1303               	bcf	status, 6	;RP1=0, select bank0
  2605  040B  0808               	movf	(8),w	;volatile
  2606  040C  1683               	bsf	status, 5	;RP0=1, select bank1
  2607  040D  1303               	bcf	status, 6	;RP1=0, select bank1
  2608  040E  00AC               	movwf	(??_main+0)^080h+0
  2609  040F  3006               	movlw	06h
  2610  0410                     u3005:
  2611  0410  1003               	clrc
  2612  0411  0CAC               	rrf	(??_main+0)^080h+0,f
  2613  0412  3EFF               	addlw	-1
  2614  0413  1D03               	skipz
  2615  0414  2C10               	goto	u3005
  2616  0415  082C               	movf	0+(??_main+0)^080h+0,w
  2617  0416  3903               	andlw	03h
  2618  0417  00AD               	movwf	(??_main+1)^080h+0
  2619  0418  082D               	movf	(??_main+1)^080h+0,w
  2620  0419  1283               	bcf	status, 5	;RP0=0, select bank0
  2621  041A  1303               	bcf	status, 6	;RP1=0, select bank0
  2622  041B  00D6               	movwf	(_sleep_counter)
  2623                           opt subtitle "HI-TECH Software Omniscient Code Generator (Lite mode) build 49521"
  2624                           
  2625  041C                     l3548:	
  2626                           opt subtitle "HI-TECH Software Omniscient Code Generator (Lite mode) build 49521"
  2627  041C  3026               	movlw	low(STR_2|8000h)
  2628  041D  00C2               	movwf	(?_printf)
  2629  041E  3091               	movlw	high(STR_2|8000h)
  2630  041F  00C3               	movwf	((?_printf))+1
  2631  0420  0856               	movf	(_sleep_counter),w
  2632  0421  1683               	bsf	status, 5	;RP0=1, select bank1
  2633  0422  1303               	bcf	status, 6	;RP1=0, select bank1
  2634  0423  00AC               	movwf	(??_main+0)^080h+0+0
  2635  0424  01AD               	clrf	(??_main+0)^080h+0+1
  2636  0425  082C               	movf	0+(??_main+0)^080h+0,w
  2637  0426  1283               	bcf	status, 5	;RP0=0, select bank0
  2638  0427  1303               	bcf	status, 6	;RP1=0, select bank0
  2639  0428  00C4               	movwf	0+(?_printf)+02h
  2640  0429  1683               	bsf	status, 5	;RP0=1, select bank1
  2641  042A  1303               	bcf	status, 6	;RP1=0, select bank1
  2642  042B  082D               	movf	1+(??_main+0)^080h+0,w
  2643  042C  1283               	bcf	status, 5	;RP0=0, select bank0
  2644  042D  1303               	bcf	status, 6	;RP1=0, select bank0
  2645  042E  00C5               	movwf	1+(?_printf)+02h
  2646  042F  120A  118A  2610   	fcall	_printf
              120A  118A         
  2647                           opt subtitle "HI-TECH Software Omniscient Code Generator (Lite mode) build 49521"
  2648                           
  2649  0434  0063               sleep ;# 
  2650                           opt subtitle "HI-TECH Software Omniscient Code Generator (Lite mode) build 49521"
  2651                           
  2652  0435  0063               sleep ;# 
  2653                           opt subtitle "HI-TECH Software Omniscient Code Generator (Lite mode) build 49521"
  2654                           
  2655                           opt pagewidth 120
  2656  0436                     l3550:	
  2657                           opt subtitle "HI-TECH Software Omniscient Code Generator (Lite mode) build 49521"
  2658  0436  120A  158A  2260   	fcall	_adcReadVcap
              120A  118A         
  2659  043B  1683               	bsf	status, 5	;RP0=1, select bank1
  2660  043C  1303               	bcf	status, 6	;RP1=0, select bank1
  2661  043D  00AC               	movwf	(??_main+0)^080h+0+0
  2662  043E  01AD               	clrf	(??_main+0)^080h+0+1
  2663  043F  082C               	movf	0+(??_main+0)^080h+0,w
  2664  0440  00E1               	movwf	(_value)^080h
  2665  0441  082D               	movf	1+(??_main+0)^080h+0,w
  2666  0442  00E2               	movwf	(_value+1)^080h
  2667                           opt subtitle "HI-TECH Software Omniscient Code Generator (Lite mode) build 49521"
  2668                           
  2669  0443  2C6C               	goto	l3556
  2670                           opt subtitle "HI-TECH Software Omniscient Code Generator (Lite mode) build 49521"
  2671  0444                     l165:	
  2672                           opt subtitle "HI-TECH Software Omniscient Code Generator (Lite mode) build 49521"
  2673                           
  2674  0444  0063               sleep ;# 
  2675                           opt subtitle "HI-TECH Software Omniscient Code Generator (Lite mode) build 49521"
  2676                           
  2677                           opt pagewidth 120
  2678  0445                     l3552:	
  2679                           opt subtitle "HI-TECH Software Omniscient Code Generator (Lite mode) build 49521"
  2680  0445  120A  158A  2260   	fcall	_adcReadVcap
              120A  118A         
  2681  044A  1683               	bsf	status, 5	;RP0=1, select bank1
  2682  044B  1303               	bcf	status, 6	;RP1=0, select bank1
  2683  044C  00AC               	movwf	(??_main+0)^080h+0+0
  2684  044D  01AD               	clrf	(??_main+0)^080h+0+1
  2685  044E  082C               	movf	0+(??_main+0)^080h+0,w
  2686  044F  00E1               	movwf	(_value)^080h
  2687  0450  082D               	movf	1+(??_main+0)^080h+0,w
  2688  0451  00E2               	movwf	(_value+1)^080h
  2689                           opt subtitle "HI-TECH Software Omniscient Code Generator (Lite mode) build 49521"
  2690                           
  2691  0452                     l3554:	
  2692                           opt subtitle "HI-TECH Software Omniscient Code Generator (Lite mode) build 49521"
  2693  0452  30FA               	movlw	low(STR_3|8000h)
  2694  0453  1283               	bcf	status, 5	;RP0=0, select bank0
  2695  0454  1303               	bcf	status, 6	;RP1=0, select bank0
  2696  0455  00C2               	movwf	(?_printf)
  2697  0456  3090               	movlw	high(STR_3|8000h)
  2698  0457  00C3               	movwf	((?_printf))+1
  2699  0458  1683               	bsf	status, 5	;RP0=1, select bank1
  2700  0459  1303               	bcf	status, 6	;RP1=0, select bank1
  2701  045A  0862               	movf	(_value+1)^080h,w
  2702  045B  1283               	bcf	status, 5	;RP0=0, select bank0
  2703  045C  1303               	bcf	status, 6	;RP1=0, select bank0
  2704  045D  01C5               	clrf	1+(?_printf)+02h
  2705  045E  07C5               	addwf	1+(?_printf)+02h
  2706  045F  1683               	bsf	status, 5	;RP0=1, select bank1
  2707  0460  1303               	bcf	status, 6	;RP1=0, select bank1
  2708  0461  0861               	movf	(_value)^080h,w
  2709  0462  1283               	bcf	status, 5	;RP0=0, select bank0
  2710  0463  1303               	bcf	status, 6	;RP1=0, select bank0
  2711  0464  01C4               	clrf	0+(?_printf)+02h
  2712  0465  07C4               	addwf	0+(?_printf)+02h
  2713                           opt subtitle "HI-TECH Software Omniscient Code Generator (Lite mode) build 49521"
  2714  0466  120A  118A  2610   	fcall	_printf
              120A  118A         
  2715  046B  2C6C               	goto	l3556
  2716                           opt subtitle "HI-TECH Software Omniscient Code Generator (Lite mode) build 49521"
  2717                           
  2718  046C                     l164:	
  2719                           opt subtitle "HI-TECH Software Omniscient Code Generator (Lite mode) build 49521"
  2720                           
  2721  046C                     l3556:	
  2722  046C  3000               	movlw	high(06Eh)
  2723  046D  1683               	bsf	status, 5	;RP0=1, select bank1
  2724  046E  1303               	bcf	status, 6	;RP1=0, select bank1
  2725  046F  0262               	subwf	(_value+1)^080h,w
  2726  0470  306E               	movlw	low(06Eh)
  2727  0471  1903               	skipnz
  2728  0472  0261               	subwf	(_value)^080h,w
  2729  0473  1803               	skipnc
  2730  0474  2C76               	goto	u3011
  2731  0475  2C77               	goto	u3010
  2732  0476                     u3011:
  2733  0476  2C7F               	goto	l3560
  2734  0477                     u3010:
  2735                           opt subtitle "HI-TECH Software Omniscient Code Generator (Lite mode) build 49521"
  2736  0477                     l3558:	
  2737  0477  1283               	bcf	status, 5	;RP0=0, select bank0
  2738  0478  1303               	bcf	status, 6	;RP1=0, select bank0
  2739  0479  1E88               	btfss	(8),5	;volatile
  2740  047A  2C7C               	goto	u3021
  2741  047B  2C7D               	goto	u3020
  2742  047C                     u3021:
  2743  047C  2C44               	goto	l165
  2744  047D                     u3020:
  2745  047D  2C7F               	goto	l3560
  2746                           opt subtitle "HI-TECH Software Omniscient Code Generator (Lite mode) build 49521"
  2747  047E                     l167:	
  2748  047E  2C7F               	goto	l3560
  2749                           opt subtitle "HI-TECH Software Omniscient Code Generator (Lite mode) build 49521"
  2750  047F                     l168:	
  2751                           opt subtitle "HI-TECH Software Omniscient Code Generator (Lite mode) build 49521"
  2752                           
  2753  047F                     l3560:	
  2754                           opt subtitle "HI-TECH Software Omniscient Code Generator (Lite mode) build 49521"
  2755                           
  2756  047F  30A3               	movlw	low(STR_4|8000h)
  2757  0480  1283               	bcf	status, 5	;RP0=0, select bank0
  2758  0481  00C2               	movwf	(?_printf)
  2759  0482  3090               	movlw	high(STR_4|8000h)
  2760  0483  00C3               	movwf	((?_printf))+1
  2761  0484  1683               	bsf	status, 5	;RP0=1, select bank1
  2762  0485  1303               	bcf	status, 6	;RP1=0, select bank1
  2763  0486  0862               	movf	(_value+1)^080h,w
  2764  0487  1283               	bcf	status, 5	;RP0=0, select bank0
  2765  0488  1303               	bcf	status, 6	;RP1=0, select bank0
  2766  0489  01C5               	clrf	1+(?_printf)+02h
  2767  048A  07C5               	addwf	1+(?_printf)+02h
  2768  048B  1683               	bsf	status, 5	;RP0=1, select bank1
  2769  048C  1303               	bcf	status, 6	;RP1=0, select bank1
  2770  048D  0861               	movf	(_value)^080h,w
  2771  048E  1283               	bcf	status, 5	;RP0=0, select bank0
  2772  048F  1303               	bcf	status, 6	;RP1=0, select bank0
  2773  0490  01C4               	clrf	0+(?_printf)+02h
  2774  0491  07C4               	addwf	0+(?_printf)+02h
  2775                           opt subtitle "HI-TECH Software Omniscient Code Generator (Lite mode) build 49521"
  2776  0492  120A  118A  2610   	fcall	_printf
              120A  118A         
  2777                           opt subtitle "HI-TECH Software Omniscient Code Generator (Lite mode) build 49521"
  2778                           
  2779  0497                     l3562:	
  2780                           opt subtitle "HI-TECH Software Omniscient Code Generator (Lite mode) build 49521"
  2781  0497  120A  118A  2015   	fcall	_RFM70_Initialize
              120A  118A         
  2782                           opt subtitle "HI-TECH Software Omniscient Code Generator (Lite mode) build 49521"
  2783                           
  2784  049C                     l3564:	
  2785                           opt subtitle "HI-TECH Software Omniscient Code Generator (Lite mode) build 49521"
  2786  049C  3000               	movlw	(0)
  2787  049D  120A  158A  21BE   	fcall	_rfm70setPowerdownMode
              120A  118A         
  2788                           opt subtitle "HI-TECH Software Omniscient Code Generator (Lite mode) build 49521"
  2789                           
  2790  04A2  0063               sleep ;# 
  2791                           opt subtitle "HI-TECH Software Omniscient Code Generator (Lite mode) build 49521"
  2792                           
  2793                           opt pagewidth 120
  2794  04A3                     l3566:	
  2795                           opt subtitle "HI-TECH Software Omniscient Code Generator (Lite mode) build 49521"
  2796  04A3  1683               	bsf	status, 5	;RP0=1, select bank1
  2797  04A4  1303               	bcf	status, 6	;RP1=0, select bank1
  2798  04A5  01DF               	clrf	(_timelapse_count)^080h
  2799  04A6  01E0               	clrf	(_timelapse_count+1)^080h
  2800  04A7  2CA8               	goto	l3568
  2801                           opt subtitle "HI-TECH Software Omniscient Code Generator (Lite mode) build 49521"
  2802                           
  2803                           opt pagewidth 120
  2804  04A8                     l169:	
  2805                           opt subtitle "HI-TECH Software Omniscient Code Generator (Lite mode) build 49521"
  2806                           
  2807  04A8                     l3568:	
  2808                           opt subtitle "HI-TECH Software Omniscient Code Generator (Lite mode) build 49521"
  2809  04A8  3001               	movlw	(01h)
  2810  04A9  120A  158A  21BE   	fcall	_rfm70setPowerdownMode
              120A  118A         
  2811                           opt subtitle "HI-TECH Software Omniscient Code Generator (Lite mode) build 49521"
  2812                           
  2813  04AE                     l3570:	
  2814                           opt subtitle "HI-TECH Software Omniscient Code Generator (Lite mode) build 49521"
  2815  04AE  3000               	movlw	0
  2816  04AF  1683               	bsf	status, 5	;RP0=1, select bank1
  2817  04B0  1303               	bcf	status, 6	;RP1=0, select bank1
  2818  04B1  00D6               	movwf	(main@i+3)^080h
  2819  04B2  3000               	movlw	0
  2820  04B3  00D5               	movwf	(main@i+2)^080h
  2821  04B4  3000               	movlw	0
  2822  04B5  00D4               	movwf	(main@i+1)^080h
  2823  04B6  3000               	movlw	0
  2824  04B7  00D3               	movwf	(main@i)^080h
  2825                           opt subtitle "HI-TECH Software Omniscient Code Generator (Lite mode) build 49521"
  2826                           
  2827  04B8                     l3572:	
  2828  04B8  0856               	movf	(main@i+3)^080h,w
  2829  04B9  3A80               	xorlw	80h
  2830  04BA  00FF               	movwf	btemp+1
  2831  04BB  3000               	movlw	0
  2832  04BC  3A80               	xorlw	80h
  2833  04BD  027F               	subwf	btemp+1,w
  2834                           opt subtitle "HI-TECH Software Omniscient Code Generator (Lite mode) build 49521"
  2835  04BE  1D03               	skipz
  2836  04BF  2CCA               	goto	u3033
  2837  04C0  3000               	movlw	0
  2838  04C1  0255               	subwf	(main@i+2)^080h,w
  2839  04C2  1D03               	skipz
  2840  04C3  2CCA               	goto	u3033
  2841  04C4  3000               	movlw	0
  2842  04C5  0254               	subwf	(main@i+1)^080h,w
  2843  04C6  1D03               	skipz
  2844  04C7  2CCA               	goto	u3033
  2845  04C8  3002               	movlw	02h
  2846  04C9  0253               	subwf	(main@i)^080h,w
  2847  04CA                     u3033:
  2848  04CA  1C03               	skipc
  2849  04CB  2CCD               	goto	u3031
  2850  04CC  2CCE               	goto	u3030
  2851  04CD                     u3031:
  2852  04CD  2CD0               	goto	l3576
  2853  04CE                     u3030:
  2854  04CE  2D00               	goto	l3582
  2855                           opt subtitle "HI-TECH Software Omniscient Code Generator (Lite mode) build 49521"
  2856  04CF                     l3574:	
  2857  04CF  2D00               	goto	l3582
  2858                           opt subtitle "HI-TECH Software Omniscient Code Generator (Lite mode) build 49521"
  2859  04D0                     l170:	
  2860                           opt subtitle "HI-TECH Software Omniscient Code Generator (Lite mode) build 49521"
  2861                           
  2862  04D0                     l3576:	
  2863                           opt subtitle "HI-TECH Software Omniscient Code Generator (Lite mode) build 49521"
  2864  04D0  0853               	movf	(main@i)^080h,w
  2865  04D1  3ED7               	addlw	_tx_buf&0ffh
  2866  04D2  0084               	movwf	fsr0
  2867  04D3  1383               	bcf	status, 7	;select IRP bank1
  2868  04D4  0800               	movf	indf,w
  2869  04D5  00AC               	movwf	(??_main+0)^080h+0
  2870  04D6  0853               	movf	(main@i)^080h,w
  2871  04D7  3EB0               	addlw	main@temp_tx_buf&0ffh
  2872  04D8  0084               	movwf	fsr0
  2873  04D9  082C               	movf	(??_main+0)^080h+0,w
  2874  04DA  0080               	movwf	indf
  2875                           opt subtitle "HI-TECH Software Omniscient Code Generator (Lite mode) build 49521"
  2876                           
  2877  04DB                     l3578:	
  2878  04DB  3001               	movlw	01h
  2879  04DC  07D3               	addwf	(main@i)^080h,f
  2880  04DD  3000               	movlw	0
  2881  04DE  1803               	skipnc
  2882  04DF  3001               movlw 1
  2883  04E0  07D4               	addwf	(main@i+1)^080h,f
  2884  04E1  3000               	movlw	0
  2885  04E2  1803               	skipnc
  2886  04E3  3001               movlw 1
  2887  04E4  07D5               	addwf	(main@i+2)^080h,f
  2888  04E5  3000               	movlw	0
  2889  04E6  1803               	skipnc
  2890  04E7  3001               movlw 1
  2891  04E8  07D6               	addwf	(main@i+3)^080h,f
  2892                           opt subtitle "HI-TECH Software Omniscient Code Generator (Lite mode) build 49521"
  2893  04E9                     l3580:	
  2894  04E9  0856               	movf	(main@i+3)^080h,w
  2895  04EA  3A80               	xorlw	80h
  2896  04EB  00FF               	movwf	btemp+1
  2897  04EC  3000               	movlw	0
  2898  04ED  3A80               	xorlw	80h
  2899  04EE  027F               	subwf	btemp+1,w
  2900                           opt subtitle "HI-TECH Software Omniscient Code Generator (Lite mode) build 49521"
  2901  04EF  1D03               	skipz
  2902  04F0  2CFB               	goto	u3043
  2903  04F1  3000               	movlw	0
  2904  04F2  0255               	subwf	(main@i+2)^080h,w
  2905  04F3  1D03               	skipz
  2906  04F4  2CFB               	goto	u3043
  2907  04F5  3000               	movlw	0
  2908  04F6  0254               	subwf	(main@i+1)^080h,w
  2909  04F7  1D03               	skipz
  2910  04F8  2CFB               	goto	u3043
  2911  04F9  3002               	movlw	02h
  2912  04FA  0253               	subwf	(main@i)^080h,w
  2913  04FB                     u3043:
  2914  04FB  1C03               	skipc
  2915  04FC  2CFE               	goto	u3041
  2916  04FD  2CFF               	goto	u3040
  2917  04FE                     u3041:
  2918  04FE  2CD0               	goto	l3576
  2919  04FF                     u3040:
  2920  04FF  2D00               	goto	l3582
  2921                           opt subtitle "HI-TECH Software Omniscient Code Generator (Lite mode) build 49521"
  2922  0500                     l171:	
  2923                           opt subtitle "HI-TECH Software Omniscient Code Generator (Lite mode) build 49521"
  2924                           
  2925  0500                     l3582:	
  2926                           opt subtitle "HI-TECH Software Omniscient Code Generator (Lite mode) build 49521"
  2927                           
  2928  0500  120A  158A  228B   	fcall	_adcReadTemp
              120A  118A         
  2929  0505  1683               	bsf	status, 5	;RP0=1, select bank1
  2930  0506  1303               	bcf	status, 6	;RP1=0, select bank1
  2931  0507  00AC               	movwf	(??_main+0)^080h+0
  2932  0508  082C               	movf	(??_main+0)^080h+0,w
  2933  0509  00D7               	movwf	(_tx_buf)^080h
  2934                           opt subtitle "HI-TECH Software Omniscient Code Generator (Lite mode) build 49521"
  2935                           
  2936  050A  120A  158A  2260   	fcall	_adcReadVcap
              120A  118A         
  2937  050F  1683               	bsf	status, 5	;RP0=1, select bank1
  2938  0510  1303               	bcf	status, 6	;RP1=0, select bank1
  2939  0511  00AC               	movwf	(??_main+0)^080h+0
  2940  0512  082C               	movf	(??_main+0)^080h+0,w
  2941  0513  00D8               	movwf	0+(_tx_buf)^080h+01h
  2942                           opt subtitle "HI-TECH Software Omniscient Code Generator (Lite mode) build 49521"
  2943                           
  2944  0514                     l3584:	
  2945                           opt subtitle "HI-TECH Software Omniscient Code Generator (Lite mode) build 49521"
  2946  0514  085F               	movf	(_timelapse_count)^080h,w
  2947  0515  00AC               	movwf	(??_main+0)^080h+0
  2948  0516  082C               	movf	(??_main+0)^080h+0,w
  2949  0517  00D9               	movwf	0+(_tx_buf)^080h+02h
  2950                           opt subtitle "HI-TECH Software Omniscient Code Generator (Lite mode) build 49521"
  2951                           
  2952  0518                     l3586:	
  2953                           opt subtitle "HI-TECH Software Omniscient Code Generator (Lite mode) build 49521"
  2954  0518  0860               	movf	(_timelapse_count+1)^080h,w
  2955  0519  00AC               	movwf	(??_main+0)^080h+0
  2956  051A  082C               	movf	(??_main+0)^080h+0,w
  2957  051B  00DA               	movwf	0+(_tx_buf)^080h+03h
  2958                           opt subtitle "HI-TECH Software Omniscient Code Generator (Lite mode) build 49521"
  2959                           
  2960  051C                     l3588:	
  2961                           opt subtitle "HI-TECH Software Omniscient Code Generator (Lite mode) build 49521"
  2962  051C  0866               	movf	(_jumper_stat)^080h,w
  2963  051D  00AC               	movwf	(??_main+0)^080h+0
  2964  051E  082C               	movf	(??_main+0)^080h+0,w
  2965  051F  00DB               	movwf	0+(_tx_buf)^080h+04h
  2966                           opt subtitle "HI-TECH Software Omniscient Code Generator (Lite mode) build 49521"
  2967                           
  2968  0520                     l3590:	
  2969                           opt subtitle "HI-TECH Software Omniscient Code Generator (Lite mode) build 49521"
  2970  0520  0864               	movf	0+(_values)^080h+01h,w
  2971  0521  00AC               	movwf	(??_main+0)^080h+0+0
  2972  0522  01AD               	clrf	(??_main+0)^080h+0+1
  2973  0523  09AC               	comf	(??_main+0)^080h+0,f
  2974  0524  09AD               	comf	(??_main+0)^080h+1,f
  2975  0525  0AAC               	incf	(??_main+0)^080h+0,f
  2976  0526  1903               	skipnz
  2977  0527  0AAD               	incf	(??_main+0)^080h+1,f
  2978  0528  0863               	movf	(_values)^080h,w
  2979  0529  072C               	addwf	0+(??_main+0)^080h+0,w
  2980  052A  1283               	bcf	status, 5	;RP0=0, select bank0
  2981  052B  1303               	bcf	status, 6	;RP1=0, select bank0
  2982  052C  00B4               	movwf	(?___wmul)
  2983  052D  1683               	bsf	status, 5	;RP0=1, select bank1
  2984  052E  1303               	bcf	status, 6	;RP1=0, select bank1
  2985  052F  082D               	movf	1+(??_main+0)^080h+0,w
  2986  0530  1803               	skipnc
  2987  0531  0A2D               	incf	1+(??_main+0)^080h+0,w
  2988  0532  1283               	bcf	status, 5	;RP0=0, select bank0
  2989  0533  1303               	bcf	status, 6	;RP1=0, select bank0
  2990  0534  00B5               	movwf	((?___wmul))+1
  2991  0535  1683               	bsf	status, 5	;RP0=1, select bank1
  2992  0536  1303               	bcf	status, 6	;RP1=0, select bank1
  2993  0537  0863               	movf	(_values)^080h,w
  2994  0538  0764               	addwf	0+(_values)^080h+01h,w
  2995  0539  1283               	bcf	status, 5	;RP0=0, select bank0
  2996  053A  1303               	bcf	status, 6	;RP1=0, select bank0
  2997  053B  00B6               	movwf	0+(?___wmul)+02h
  2998  053C  01B7               	clrf	0+(?___wmul)+02h+1
  2999  053D  0DB7               	rlf	1+0+(?___wmul)+02h,f
  3000                           opt subtitle "HI-TECH Software Omniscient Code Generator (Lite mode) build 49521"
  3001  053E  120A  158A  22B6   	fcall	___wmul
              120A  118A         
  3002  0543  1283               	bcf	status, 5	;RP0=0, select bank0
  3003  0544  1303               	bcf	status, 6	;RP1=0, select bank0
  3004  0545  0835               	movf	(1+(?___wmul)),w
  3005  0546  1683               	bsf	status, 5	;RP0=1, select bank1
  3006  0547  1303               	bcf	status, 6	;RP1=0, select bank1
  3007  0548  01D1               	clrf	(main@temp+1)^080h
  3008  0549  07D1               	addwf	(main@temp+1)^080h
  3009  054A  1283               	bcf	status, 5	;RP0=0, select bank0
  3010  054B  1303               	bcf	status, 6	;RP1=0, select bank0
  3011  054C  0834               	movf	(0+(?___wmul)),w
  3012  054D  1683               	bsf	status, 5	;RP0=1, select bank1
  3013  054E  1303               	bcf	status, 6	;RP1=0, select bank1
  3014  054F  01D0               	clrf	(main@temp)^080h
  3015  0550  07D0               	addwf	(main@temp)^080h
  3016                           opt subtitle "HI-TECH Software Omniscient Code Generator (Lite mode) build 49521"
  3017                           
  3018                           opt pagewidth 120
  3019  0551                     l3592:	
  3020                           opt subtitle "HI-TECH Software Omniscient Code Generator (Lite mode) build 49521"
  3021  0551  0850               	movf	(main@temp)^080h,w
  3022  0552  00AC               	movwf	(??_main+0)^080h+0
  3023  0553  082C               	movf	(??_main+0)^080h+0,w
  3024  0554  00DC               	movwf	0+(_tx_buf)^080h+05h
  3025                           opt subtitle "HI-TECH Software Omniscient Code Generator (Lite mode) build 49521"
  3026                           
  3027  0555                     l3594:	
  3028                           opt subtitle "HI-TECH Software Omniscient Code Generator (Lite mode) build 49521"
  3029  0555  0851               	movf	(main@temp+1)^080h,w
  3030  0556  00AC               	movwf	(??_main+0)^080h+0
  3031  0557  082C               	movf	(??_main+0)^080h+0,w
  3032  0558  00DD               	movwf	0+(_tx_buf)^080h+06h
  3033                           opt subtitle "HI-TECH Software Omniscient Code Generator (Lite mode) build 49521"
  3034                           
  3035  0559                     l3596:	
  3036                           opt subtitle "HI-TECH Software Omniscient Code Generator (Lite mode) build 49521"
  3037  0559  120A  158A  21E3   	fcall	_adcReadVsupercap
              120A  118A         
  3038  055E  1683               	bsf	status, 5	;RP0=1, select bank1
  3039  055F  1303               	bcf	status, 6	;RP1=0, select bank1
  3040  0560  00AC               	movwf	(??_main+0)^080h+0
  3041  0561  082C               	movf	(??_main+0)^080h+0,w
  3042  0562  00DE               	movwf	0+(_tx_buf)^080h+07h
  3043                           opt subtitle "HI-TECH Software Omniscient Code Generator (Lite mode) build 49521"
  3044                           
  3045  0563                     l3598:	
  3046                           opt subtitle "HI-TECH Software Omniscient Code Generator (Lite mode) build 49521"
  3047  0563  306F               	movlw	(06Fh)
  3048  0564  0258               	subwf	0+(_tx_buf)^080h+01h,w
  3049  0565  1803               	skipnc
  3050  0566  2D68               	goto	u3051
  3051  0567  2D69               	goto	u3050
  3052  0568                     u3051:
  3053  0568  2D70               	goto	l3602
  3054  0569                     u3050:
  3055                           opt subtitle "HI-TECH Software Omniscient Code Generator (Lite mode) build 49521"
  3056  0569                     l3600:	
  3057  0569  1283               	bcf	status, 5	;RP0=0, select bank0
  3058  056A  1303               	bcf	status, 6	;RP1=0, select bank0
  3059  056B  1E88               	btfss	(8),5	;volatile
  3060  056C  2D6E               	goto	u3061
  3061  056D  2D6F               	goto	u3060
  3062  056E                     u3061:
  3063  056E  2D81               	goto	l3604
  3064  056F                     u3060:
  3065  056F  2D70               	goto	l3602
  3066                           opt subtitle "HI-TECH Software Omniscient Code Generator (Lite mode) build 49521"
  3067  0570                     l174:	
  3068                           opt subtitle "HI-TECH Software Omniscient Code Generator (Lite mode) build 49521"
  3069                           
  3070  0570                     l3602:	
  3071                           opt subtitle "HI-TECH Software Omniscient Code Generator (Lite mode) build 49521"
  3072  0570  30D7               	movlw	(_tx_buf)&0ffh
  3073  0571  1683               	bsf	status, 5	;RP0=1, select bank1
  3074  0572  1303               	bcf	status, 6	;RP1=0, select bank1
  3075  0573  00AC               	movwf	(??_main+0)^080h+0
  3076  0574  082C               	movf	(??_main+0)^080h+0,w
  3077  0575  00A0               	movwf	(?_Send_Packet)^080h
  3078  0576  3008               	movlw	(08h)
  3079  0577  00AD               	movwf	(??_main+1)^080h+0
  3080  0578  082D               	movf	(??_main+1)^080h+0,w
  3081  0579  00A1               	movwf	0+(?_Send_Packet)^080h+01h
  3082  057A  30B0               	movlw	(0B0h)
  3083  057B  120A  158A  2576   	fcall	_Send_Packet
              120A  118A         
  3084                           opt subtitle "HI-TECH Software Omniscient Code Generator (Lite mode) build 49521"
  3085                           
  3086  0580  2D9C               	goto	l3606
  3087                           opt subtitle "HI-TECH Software Omniscient Code Generator (Lite mode) build 49521"
  3088                           
  3089  0581                     l172:	
  3090                           opt subtitle "HI-TECH Software Omniscient Code Generator (Lite mode) build 49521"
  3091                           
  3092  0581                     l3604:	
  3093                           opt subtitle "HI-TECH Software Omniscient Code Generator (Lite mode) build 49521"
  3094                           
  3095  0581  30C8               	movlw	low(STR_5|8000h)
  3096  0582  1283               	bcf	status, 5	;RP0=0, select bank0
  3097  0583  1303               	bcf	status, 6	;RP1=0, select bank0
  3098  0584  00C2               	movwf	(?_printf)
  3099  0585  3090               	movlw	high(STR_5|8000h)
  3100  0586  00C3               	movwf	((?_printf))+1
  3101  0587  1683               	bsf	status, 5	;RP0=1, select bank1
  3102  0588  1303               	bcf	status, 6	;RP1=0, select bank1
  3103  0589  0858               	movf	0+(_tx_buf)^080h+01h,w
  3104  058A  00AC               	movwf	(??_main+0)^080h+0+0
  3105  058B  01AD               	clrf	(??_main+0)^080h+0+1
  3106  058C  082C               	movf	0+(??_main+0)^080h+0,w
  3107  058D  1283               	bcf	status, 5	;RP0=0, select bank0
  3108  058E  1303               	bcf	status, 6	;RP1=0, select bank0
  3109  058F  00C4               	movwf	0+(?_printf)+02h
  3110  0590  1683               	bsf	status, 5	;RP0=1, select bank1
  3111  0591  1303               	bcf	status, 6	;RP1=0, select bank1
  3112  0592  082D               	movf	1+(??_main+0)^080h+0,w
  3113  0593  1283               	bcf	status, 5	;RP0=0, select bank0
  3114  0594  1303               	bcf	status, 6	;RP1=0, select bank0
  3115  0595  00C5               	movwf	1+(?_printf)+02h
  3116  0596  120A  118A  2610   	fcall	_printf
              120A  118A         
  3117  059B  2D9C               	goto	l3606
  3118                           opt subtitle "HI-TECH Software Omniscient Code Generator (Lite mode) build 49521"
  3119  059C                     l175:	
  3120                           opt subtitle "HI-TECH Software Omniscient Code Generator (Lite mode) build 49521"
  3121                           
  3122  059C                     l3606:	
  3123                           opt subtitle "HI-TECH Software Omniscient Code Generator (Lite mode) build 49521"
  3124  059C  1283               	bcf	status, 5	;RP0=0, select bank0
  3125  059D  1303               	bcf	status, 6	;RP1=0, select bank0
  3126  059E  1107               	bcf	(7),2	;volatile
  3127                           opt subtitle "HI-TECH Software Omniscient Code Generator (Lite mode) build 49521"
  3128                           
  3129  059F                     l3608:	
  3130                           opt subtitle "HI-TECH Software Omniscient Code Generator (Lite mode) build 49521"
  3131  059F  3000               	movlw	(0)
  3132  05A0  120A  158A  21BE   	fcall	_rfm70setPowerdownMode
              120A  118A         
  3133                           opt subtitle "HI-TECH Software Omniscient Code Generator (Lite mode) build 49521"
  3134                           
  3135  05A5                     l3610:	
  3136                           opt subtitle "HI-TECH Software Omniscient Code Generator (Lite mode) build 49521"
  3137  05A5  1283               	bcf	status, 5	;RP0=0, select bank0
  3138  05A6  1303               	bcf	status, 6	;RP1=0, select bank0
  3139  05A7  1010               	bcf	(16),0	;volatile
  3140                           opt subtitle "HI-TECH Software Omniscient Code Generator (Lite mode) build 49521"
  3141                           
  3142  05A8                     l3612:	
  3143                           opt subtitle "HI-TECH Software Omniscient Code Generator (Lite mode) build 49521"
  3144  05A8  3010               	movlw	(010h)
  3145  05A9  008F               	movwf	(15)	;volatile
  3146                           opt subtitle "HI-TECH Software Omniscient Code Generator (Lite mode) build 49521"
  3147                           
  3148  05AA                     l3614:	
  3149                           opt subtitle "HI-TECH Software Omniscient Code Generator (Lite mode) build 49521"
  3150  05AA  018E               	clrf	(14)	;volatile
  3151                           opt subtitle "HI-TECH Software Omniscient Code Generator (Lite mode) build 49521"
  3152                           
  3153  05AB                     l3616:	
  3154                           opt subtitle "HI-TECH Software Omniscient Code Generator (Lite mode) build 49521"
  3155  05AB  1410               	bsf	(16),0	;volatile
  3156                           opt subtitle "HI-TECH Software Omniscient Code Generator (Lite mode) build 49521"
  3157                           
  3158  05AC                     l3618:	
  3159                           opt subtitle "HI-TECH Software Omniscient Code Generator (Lite mode) build 49521"
  3160  05AC  3011               	movlw	low(STR_6|8000h)
  3161  05AD  00C2               	movwf	(?_printf)
  3162  05AE  3091               	movlw	high(STR_6|8000h)
  3163  05AF  00C3               	movwf	((?_printf))+1
  3164  05B0  0856               	movf	(_sleep_counter),w
  3165  05B1  1683               	bsf	status, 5	;RP0=1, select bank1
  3166  05B2  1303               	bcf	status, 6	;RP1=0, select bank1
  3167  05B3  00AC               	movwf	(??_main+0)^080h+0+0
  3168  05B4  01AD               	clrf	(??_main+0)^080h+0+1
  3169  05B5  082C               	movf	0+(??_main+0)^080h+0,w
  3170  05B6  1283               	bcf	status, 5	;RP0=0, select bank0
  3171  05B7  1303               	bcf	status, 6	;RP1=0, select bank0
  3172  05B8  00C4               	movwf	0+(?_printf)+02h
  3173  05B9  1683               	bsf	status, 5	;RP0=1, select bank1
  3174  05BA  1303               	bcf	status, 6	;RP1=0, select bank1
  3175  05BB  082D               	movf	1+(??_main+0)^080h+0,w
  3176  05BC  1283               	bcf	status, 5	;RP0=0, select bank0
  3177  05BD  1303               	bcf	status, 6	;RP1=0, select bank0
  3178  05BE  00C5               	movwf	1+(?_printf)+02h
  3179  05BF  120A  118A  2610   	fcall	_printf
              120A  118A         
  3180                           opt subtitle "HI-TECH Software Omniscient Code Generator (Lite mode) build 49521"
  3181                           
  3182  05C4                     l3620:	
  3183                           opt subtitle "HI-TECH Software Omniscient Code Generator (Lite mode) build 49521"
  3184  05C4  1683               	bsf	status, 5	;RP0=1, select bank1
  3185  05C5  1303               	bcf	status, 6	;RP1=0, select bank1
  3186  05C6  01D2               	clrf	(main@num_sleep)^080h
  3187                           opt subtitle "HI-TECH Software Omniscient Code Generator (Lite mode) build 49521"
  3188                           
  3189  05C7  2DF7               	goto	l3626
  3190                           opt subtitle "HI-TECH Software Omniscient Code Generator (Lite mode) build 49521"
  3191  05C8                     l177:	
  3192                           opt subtitle "HI-TECH Software Omniscient Code Generator (Lite mode) build 49521"
  3193                           
  3194  05C8                     l3622:	
  3195                           opt subtitle "HI-TECH Software Omniscient Code Generator (Lite mode) build 49521"
  3196  05C8  304D               	movlw	low(STR_7|8000h)
  3197  05C9  1283               	bcf	status, 5	;RP0=0, select bank0
  3198  05CA  1303               	bcf	status, 6	;RP1=0, select bank0
  3199  05CB  00C2               	movwf	(?_printf)
  3200  05CC  3091               	movlw	high(STR_7|8000h)
  3201  05CD  00C3               	movwf	((?_printf))+1
  3202  05CE  1683               	bsf	status, 5	;RP0=1, select bank1
  3203  05CF  1303               	bcf	status, 6	;RP1=0, select bank1
  3204  05D0  0852               	movf	(main@num_sleep)^080h,w
  3205  05D1  00AC               	movwf	(??_main+0)^080h+0+0
  3206  05D2  01AD               	clrf	(??_main+0)^080h+0+1
  3207  05D3  082C               	movf	0+(??_main+0)^080h+0,w
  3208  05D4  1283               	bcf	status, 5	;RP0=0, select bank0
  3209  05D5  1303               	bcf	status, 6	;RP1=0, select bank0
  3210  05D6  00C4               	movwf	0+(?_printf)+02h
  3211  05D7  1683               	bsf	status, 5	;RP0=1, select bank1
  3212  05D8  1303               	bcf	status, 6	;RP1=0, select bank1
  3213  05D9  082D               	movf	1+(??_main+0)^080h+0,w
  3214  05DA  1283               	bcf	status, 5	;RP0=0, select bank0
  3215  05DB  1303               	bcf	status, 6	;RP1=0, select bank0
  3216  05DC  00C5               	movwf	1+(?_printf)+02h
  3217  05DD  1683               	bsf	status, 5	;RP0=1, select bank1
  3218  05DE  1303               	bcf	status, 6	;RP1=0, select bank1
  3219  05DF  0865               	movf	(_sleep_count)^080h,w
  3220  05E0  00AE               	movwf	(??_main+2)^080h+0+0
  3221  05E1  01AF               	clrf	(??_main+2)^080h+0+1
  3222  05E2  082E               	movf	0+(??_main+2)^080h+0,w
  3223  05E3  1283               	bcf	status, 5	;RP0=0, select bank0
  3224  05E4  1303               	bcf	status, 6	;RP1=0, select bank0
  3225  05E5  00C6               	movwf	0+(?_printf)+04h
  3226  05E6  1683               	bsf	status, 5	;RP0=1, select bank1
  3227  05E7  1303               	bcf	status, 6	;RP1=0, select bank1
  3228  05E8  082F               	movf	1+(??_main+2)^080h+0,w
  3229  05E9  1283               	bcf	status, 5	;RP0=0, select bank0
  3230  05EA  1303               	bcf	status, 6	;RP1=0, select bank0
  3231  05EB  00C7               	movwf	1+(?_printf)+04h
  3232  05EC  120A  118A  2610   	fcall	_printf
              120A  118A         
  3233                           opt subtitle "HI-TECH Software Omniscient Code Generator (Lite mode) build 49521"
  3234                           
  3235  05F1                     l3624:	
  3236                           opt subtitle "HI-TECH Software Omniscient Code Generator (Lite mode) build 49521"
  3237  05F1  120A  158A  24E5   	fcall	_sleep
              120A  118A         
  3238  05F6  2DF7               	goto	l3626
  3239                           opt subtitle "HI-TECH Software Omniscient Code Generator (Lite mode) build 49521"
  3240                           
  3241  05F7                     l176:	
  3242                           opt subtitle "HI-TECH Software Omniscient Code Generator (Lite mode) build 49521"
  3243                           
  3244  05F7                     l3626:	
  3245  05F7  3001               	movlw	01h
  3246  05F8  1683               	bsf	status, 5	;RP0=1, select bank1
  3247  05F9  1303               	bcf	status, 6	;RP1=0, select bank1
  3248  05FA  07D2               	addwf	(main@num_sleep)^080h,f
  3249  05FB  30FF               	movlw	-01h
  3250  05FC  0752               	addwf	(main@num_sleep)^080h,w
  3251  05FD  00AC               	movwf	(??_main+0)^080h+0
  3252  05FE  0865               	movf	(_sleep_count)^080h,w
  3253  05FF  022C               	subwf	(??_main+0)^080h+0,w
  3254  0600  1C03               	skipc
  3255  0601  2E03               	goto	u3071
  3256  0602  2E04               	goto	u3070
  3257  0603                     u3071:
  3258  0603  2DC8               	goto	l3622
  3259  0604                     u3070:
  3260  0604  2E05               	goto	l3628
  3261                           opt subtitle "HI-TECH Software Omniscient Code Generator (Lite mode) build 49521"
  3262  0605                     l178:	
  3263                           opt subtitle "HI-TECH Software Omniscient Code Generator (Lite mode) build 49521"
  3264                           
  3265  0605                     l3628:	
  3266                           opt subtitle "HI-TECH Software Omniscient Code Generator (Lite mode) build 49521"
  3267                           
  3268  0605  3001               	movlw	low(01h)
  3269  0606  07DF               	addwf	(_timelapse_count)^080h,f
  3270  0607  1803               	skipnc
  3271  0608  0AE0               	incf	(_timelapse_count+1)^080h,f
  3272  0609  3000               	movlw	high(01h)
  3273  060A  07E0               	addwf	(_timelapse_count+1)^080h,f
  3274  060B  2CA8               	goto	l3568
  3275                           opt subtitle "HI-TECH Software Omniscient Code Generator (Lite mode) build 49521"
  3276                           
  3277  060C                     l179:	
  3278                           opt subtitle "HI-TECH Software Omniscient Code Generator (Lite mode) build 49521"
  3279  060C  2CA8               	goto	l3568
  3280                           opt subtitle "HI-TECH Software Omniscient Code Generator (Lite mode) build 49521"
  3281  060D                     l180:	
  3282                           opt subtitle "HI-TECH Software Omniscient Code Generator (Lite mode) build 49521"
  3283                           
  3284                           opt pagewidth 120
  3285                           
  3286                           	opt lm
  3287  060D                     l181:	
  3288                           opt subtitle "HI-TECH Software Omniscient Code Generator (Lite mode) build 49521"
  3289  060D  120A  118A  2812   	ljmp	start
  3290                           opt subtitle "HI-TECH Software Omniscient Code Generator (Lite mode) build 49521"
  3291                           
  3292  0610                     	__end_of_main:
  3293                           opt subtitle "HI-TECH Software Omniscient Code Generator (Lite mode) build 49521"
  3294                           
  3295                           opt pagewidth 120
  3296                           
  3297                           	opt lm
  3298                           
  3299                           	processor	16F707
  3300                           clrc	macro
  3301                           	bcf	3,0
  3302                           	endm
  3303                           clrz	macro
  3304                           	bcf	3,2
  3305                           	endm
  3306                           setc	macro
  3307                           	bsf	3,0
  3308                           	endm
  3309                           setz	macro
  3310                           	bsf	3,2
  3311                           	endm
  3312                           skipc	macro
  3313                           	btfss	3,0
  3314                           	endm
  3315                           skipz	macro
  3316                           	btfss	3,2
  3317                           	endm
  3318                           skipnc	macro
  3319                           	btfsc	3,0
  3320                           	endm
  3321                           skipnz	macro
  3322                           	btfsc	3,2
  3323                           	endm
  3324                           indf	equ	0
  3325                           indf0	equ	0
  3326                           pc	equ	2
  3327  0936                     __ptext1031:	;psect for function _spiInit
  3328                           opt subtitle "HI-TECH Software Omniscient Code Generator (Lite mode) build 49521"
  3329                           
  3330                           opt pagewidth 120
  3331                           
  3332  0018                     	__size_of_spiInit	equ	__end_of_spiInit-_spiInit
  3333                           opt subtitle "HI-TECH Software Omniscient Code Generator (Lite mode) build 49521"
  3334  0936                     _spiInit:	
  3335                           opt subtitle "HI-TECH Software Omniscient Code Generator (Lite mode) build 49521"
  3336                           
  3337                           opt pagewidth 120
  3338                           
  3339  0936                     l2538:	
  3340                           opt subtitle "HI-TECH Software Omniscient Code Generator (Lite mode) build 49521"
  3341  0936  1283               	bcf	status, 5	;RP0=0, select bank0
  3342  0937  1303               	bcf	status, 6	;RP1=0, select bank0
  3343  0938  1694               	bsf	(20),5	;volatile
  3344                           opt subtitle "HI-TECH Software Omniscient Code Generator (Lite mode) build 49521"
  3345                           
  3346  0939  1214               	bcf	(20),4	;volatile
  3347                           opt subtitle "HI-TECH Software Omniscient Code Generator (Lite mode) build 49521"
  3348                           
  3349  093A                     l2540:	
  3350                           opt subtitle "HI-TECH Software Omniscient Code Generator (Lite mode) build 49521"
  3351  093A  0814               	movf	(20),w	;volatile
  3352  093B  39F0               	andlw	not (((1<<4)-1)<<0)
  3353  093C  3802               	iorlw	(02h & ((1<<4)-1))<<0
  3354  093D  0094               	movwf	(20)	;volatile
  3355                           opt subtitle "HI-TECH Software Omniscient Code Generator (Lite mode) build 49521"
  3356                           
  3357  093E                     l2542:	
  3358                           opt subtitle "HI-TECH Software Omniscient Code Generator (Lite mode) build 49521"
  3359  093E  1683               	bsf	status, 5	;RP0=1, select bank1
  3360  093F  1303               	bcf	status, 6	;RP1=0, select bank1
  3361  0940  1394               	bcf	(148)^080h,7	;volatile
  3362                           opt subtitle "HI-TECH Software Omniscient Code Generator (Lite mode) build 49521"
  3363                           
  3364  0941                     l2544:	
  3365                           opt subtitle "HI-TECH Software Omniscient Code Generator (Lite mode) build 49521"
  3366  0941  1714               	bsf	(148)^080h,6	;volatile
  3367                           opt subtitle "HI-TECH Software Omniscient Code Generator (Lite mode) build 49521"
  3368                           
  3369  0942                     l2546:	
  3370                           opt subtitle "HI-TECH Software Omniscient Code Generator (Lite mode) build 49521"
  3371                           
  3372  0942  3082               movlw	130
  3373  0943  1283               	bcf	status, 5	;RP0=0, select bank0
  3374  0944  1303               	bcf	status, 6	;RP1=0, select bank0
  3375  0945  00B5               movwf	((??_spiInit+0)+0+1),f
  3376  0946  30DD               	movlw	221
  3377  0947  00B4               movwf	((??_spiInit+0)+0),f
  3378  0948                     u3747:
  3379  0948  0BB4               	decfsz	((??_spiInit+0)+0),f
  3380  0949  2948               	goto	u3747
  3381  094A  0BB5               	decfsz	((??_spiInit+0)+0+1),f
  3382  094B  2948               	goto	u3747
  3383  094C  294D               	nop2
  3384                           opt subtitle "HI-TECH Software Omniscient Code Generator (Lite mode) build 49521"
  3385                           
  3386                           opt pagewidth 120
  3387                           
  3388  094D                     l221:	
  3389  094D  0008               	return
  3390                           opt subtitle "HI-TECH Software Omniscient Code Generator (Lite mode) build 49521"
  3391                           
  3392  094E                     	__end_of_spiInit:
  3393                           opt subtitle "HI-TECH Software Omniscient Code Generator (Lite mode) build 49521"
  3394                           
  3395                           opt pagewidth 120
  3396                           
  3397                           	opt lm
  3398                           
  3399                           	processor	16F707
  3400                           clrc	macro
  3401                           	bcf	3,0
  3402                           	endm
  3403                           clrz	macro
  3404                           	bcf	3,2
  3405                           	endm
  3406                           setc	macro
  3407                           	bsf	3,0
  3408                           	endm
  3409                           setz	macro
  3410                           	bsf	3,2
  3411                           	endm
  3412                           skipc	macro
  3413                           	btfss	3,0
  3414                           	endm
  3415                           skipz	macro
  3416                           	btfss	3,2
  3417                           	endm
  3418                           skipnc	macro
  3419                           	btfsc	3,0
  3420                           	endm
  3421                           skipnz	macro
  3422                           	btfsc	3,2
  3423                           	endm
  3424                           indf	equ	0
  3425                           indf0	equ	0
  3426                           pc	equ	2
  3427  0920                     __ptext1032:	;psect for function _uartInit
  3428                           opt subtitle "HI-TECH Software Omniscient Code Generator (Lite mode) build 49521"
  3429                           
  3430                           opt pagewidth 120
  3431                           
  3432  0016                     	__size_of_uartInit	equ	__end_of_uartInit-_uartInit
  3433                           opt subtitle "HI-TECH Software Omniscient Code Generator (Lite mode) build 49521"
  3434  0920                     _uartInit:	
  3435                           opt subtitle "HI-TECH Software Omniscient Code Generator (Lite mode) build 49521"
  3436                           
  3437                           opt pagewidth 120
  3438                           
  3439  0920                     l2548:	
  3440                           opt subtitle "HI-TECH Software Omniscient Code Generator (Lite mode) build 49521"
  3441  0920  1683               	bsf	status, 5	;RP0=1, select bank1
  3442  0921  1303               	bcf	status, 6	;RP1=0, select bank1
  3443  0922  1787               	bsf	(135)^080h,7	;volatile
  3444                           opt subtitle "HI-TECH Software Omniscient Code Generator (Lite mode) build 49521"
  3445                           
  3446  0923  1307               	bcf	(135)^080h,6	;volatile
  3447                           opt subtitle "HI-TECH Software Omniscient Code Generator (Lite mode) build 49521"
  3448                           
  3449  0924                     l2550:	
  3450                           opt subtitle "HI-TECH Software Omniscient Code Generator (Lite mode) build 49521"
  3451  0924  3002               	movlw	(02h)
  3452  0925  0098               	movwf	(152)^080h	;volatile
  3453                           opt subtitle "HI-TECH Software Omniscient Code Generator (Lite mode) build 49521"
  3454                           
  3455  0926                     l2552:	
  3456                           opt subtitle "HI-TECH Software Omniscient Code Generator (Lite mode) build 49521"
  3457  0926  1283               	bcf	status, 5	;RP0=0, select bank0
  3458  0927  1303               	bcf	status, 6	;RP1=0, select bank0
  3459  0928  0198               	clrf	(24)	;volatile
  3460                           opt subtitle "HI-TECH Software Omniscient Code Generator (Lite mode) build 49521"
  3461                           
  3462  0929                     l2554:	
  3463                           opt subtitle "HI-TECH Software Omniscient Code Generator (Lite mode) build 49521"
  3464  0929  1683               	bsf	status, 5	;RP0=1, select bank1
  3465  092A  1303               	bcf	status, 6	;RP1=0, select bank1
  3466  092B  1118               	bcf	(152)^080h,2	;volatile
  3467                           opt subtitle "HI-TECH Software Omniscient Code Generator (Lite mode) build 49521"
  3468                           
  3469  092C                     l2556:	
  3470                           opt subtitle "HI-TECH Software Omniscient Code Generator (Lite mode) build 49521"
  3471  092C  1218               	bcf	(152)^080h,4	;volatile
  3472                           opt subtitle "HI-TECH Software Omniscient Code Generator (Lite mode) build 49521"
  3473                           
  3474  092D                     l2558:	
  3475                           opt subtitle "HI-TECH Software Omniscient Code Generator (Lite mode) build 49521"
  3476  092D  300C               	movlw	(0Ch)
  3477  092E  0099               	movwf	(153)^080h	;volatile
  3478                           opt subtitle "HI-TECH Software Omniscient Code Generator (Lite mode) build 49521"
  3479                           
  3480  092F                     l2560:	
  3481                           opt subtitle "HI-TECH Software Omniscient Code Generator (Lite mode) build 49521"
  3482  092F  1283               	bcf	status, 5	;RP0=0, select bank0
  3483  0930  1303               	bcf	status, 6	;RP1=0, select bank0
  3484  0931  1798               	bsf	(24),7	;volatile
  3485                           opt subtitle "HI-TECH Software Omniscient Code Generator (Lite mode) build 49521"
  3486                           
  3487  0932                     l2562:	
  3488                           opt subtitle "HI-TECH Software Omniscient Code Generator (Lite mode) build 49521"
  3489  0932  1683               	bsf	status, 5	;RP0=1, select bank1
  3490  0933  1303               	bcf	status, 6	;RP1=0, select bank1
  3491  0934  1698               	bsf	(152)^080h,5	;volatile
  3492                           opt subtitle "HI-TECH Software Omniscient Code Generator (Lite mode) build 49521"
  3493                           
  3494  0935                     l218:	
  3495  0935  0008               	return
  3496                           opt subtitle "HI-TECH Software Omniscient Code Generator (Lite mode) build 49521"
  3497                           
  3498  0936                     	__end_of_uartInit:
  3499                           opt subtitle "HI-TECH Software Omniscient Code Generator (Lite mode) build 49521"
  3500                           
  3501                           opt pagewidth 120
  3502                           
  3503                           	opt lm
  3504                           
  3505                           	processor	16F707
  3506                           clrc	macro
  3507                           	bcf	3,0
  3508                           	endm
  3509                           clrz	macro
  3510                           	bcf	3,2
  3511                           	endm
  3512                           setc	macro
  3513                           	bsf	3,0
  3514                           	endm
  3515                           setz	macro
  3516                           	bsf	3,2
  3517                           	endm
  3518                           skipc	macro
  3519                           	btfss	3,0
  3520                           	endm
  3521                           skipz	macro
  3522                           	btfss	3,2
  3523                           	endm
  3524                           skipnc	macro
  3525                           	btfsc	3,0
  3526                           	endm
  3527                           skipnz	macro
  3528                           	btfsc	3,2
  3529                           	endm
  3530                           indf	equ	0
  3531                           indf0	equ	0
  3532                           pc	equ	2
  3533  08D5                     __ptext1033:	;psect for function _adcInit
  3534                           opt subtitle "HI-TECH Software Omniscient Code Generator (Lite mode) build 49521"
  3535                           
  3536                           opt pagewidth 120
  3537                           
  3538  000A                     	__size_of_adcInit	equ	__end_of_adcInit-_adcInit
  3539                           opt subtitle "HI-TECH Software Omniscient Code Generator (Lite mode) build 49521"
  3540  08D5                     _adcInit:	
  3541                           opt subtitle "HI-TECH Software Omniscient Code Generator (Lite mode) build 49521"
  3542                           
  3543                           opt pagewidth 120
  3544                           
  3545  08D5                     l2564:	
  3546                           opt subtitle "HI-TECH Software Omniscient Code Generator (Lite mode) build 49521"
  3547  08D5  1683               	bsf	status, 5	;RP0=1, select bank1
  3548  08D6  1303               	bcf	status, 6	;RP1=0, select bank1
  3549  08D7  081F               	movf	(159)^080h,w	;volatile
  3550  08D8  398F               	andlw	not (((1<<3)-1)<<4)
  3551  08D9  3810               	iorlw	(01h & ((1<<3)-1))<<4
  3552  08DA  009F               	movwf	(159)^080h	;volatile
  3553                           opt subtitle "HI-TECH Software Omniscient Code Generator (Lite mode) build 49521"
  3554                           
  3555  08DB  3003               	movlw	(03h & ((1<<2)-1))<<0
  3556  08DC  049F               	iorwf	(159)^080h,f	;volatile
  3557                           opt subtitle "HI-TECH Software Omniscient Code Generator (Lite mode) build 49521"
  3558                           
  3559  08DD                     l2566:	
  3560                           opt subtitle "HI-TECH Software Omniscient Code Generator (Lite mode) build 49521"
  3561  08DD  171D               	bsf	(157)^080h,6	;volatile
  3562                           opt subtitle "HI-TECH Software Omniscient Code Generator (Lite mode) build 49521"
  3563                           
  3564  08DE                     l224:	
  3565  08DE  0008               	return
  3566                           opt subtitle "HI-TECH Software Omniscient Code Generator (Lite mode) build 49521"
  3567                           
  3568  08DF                     	__end_of_adcInit:
  3569                           opt subtitle "HI-TECH Software Omniscient Code Generator (Lite mode) build 49521"
  3570                           
  3571                           opt pagewidth 120
  3572                           
  3573                           	opt lm
  3574                           
  3575                           	processor	16F707
  3576                           clrc	macro
  3577                           	bcf	3,0
  3578                           	endm
  3579                           clrz	macro
  3580                           	bcf	3,2
  3581                           	endm
  3582                           setc	macro
  3583                           	bsf	3,0
  3584                           	endm
  3585                           setz	macro
  3586                           	bsf	3,2
  3587                           	endm
  3588                           skipc	macro
  3589                           	btfss	3,0
  3590                           	endm
  3591                           skipz	macro
  3592                           	btfss	3,2
  3593                           	endm
  3594                           skipnc	macro
  3595                           	btfsc	3,0
  3596                           	endm
  3597                           skipnz	macro
  3598                           	btfsc	3,2
  3599                           	endm
  3600                           indf	equ	0
  3601                           indf0	equ	0
  3602                           pc	equ	2
  3603                           pcl	equ	2
  3604                           status	equ	3
  3605  09BE                     __ptext1034:	;psect for function _rfm70setPowerdownMode
  3606                           opt subtitle "HI-TECH Software Omniscient Code Generator (Lite mode) build 49521"
  3607                           
  3608                           opt pagewidth 120
  3609                           
  3610  0025                     	__size_of_rfm70setPowerdownMode	equ	__end_of_rfm70setPowerdownMode-_rfm70setPowerdownMo
                                 de
  3611                           opt subtitle "HI-TECH Software Omniscient Code Generator (Lite mode) build 49521"
  3612  09BE                     _rfm70setPowerdownMode:	
  3613                           opt subtitle "HI-TECH Software Omniscient Code Generator (Lite mode) build 49521"
  3614                           
  3615                           opt pagewidth 120
  3616                           
  3617  09BE  1283               	bcf	status, 5	;RP0=0, select bank0
  3618  09BF  1303               	bcf	status, 6	;RP1=0, select bank0
  3619  09C0  00BB               	movwf	(rfm70setPowerdownMode@value)
  3620                           opt subtitle "HI-TECH Software Omniscient Code Generator (Lite mode) build 49521"
  3621  09C1                     l3630:	
  3622                           opt subtitle "HI-TECH Software Omniscient Code Generator (Lite mode) build 49521"
  3623                           
  3624  09C1  3000               	movlw	(0)
  3625  09C2  120A  158A  2167   	fcall	_SPI_Read_Reg
              120A  158A         
  3626  09C7  1283               	bcf	status, 5	;RP0=0, select bank0
  3627  09C8  1303               	bcf	status, 6	;RP1=0, select bank0
  3628  09C9  00BA               	movwf	(??_rfm70setPowerdownMode+0)+0
  3629  09CA  083A               	movf	(??_rfm70setPowerdownMode+0)+0,w
  3630  09CB  00BC               	movwf	(rfm70setPowerdownMode@reg)
  3631                           opt subtitle "HI-TECH Software Omniscient Code Generator (Lite mode) build 49521"
  3632                           
  3633  09CC                     l3632:	
  3634                           opt subtitle "HI-TECH Software Omniscient Code Generator (Lite mode) build 49521"
  3635  09CC  08BB               	movf	(rfm70setPowerdownMode@value),f
  3636  09CD  1D03               	skipz
  3637  09CE  29D0               	goto	u3081
  3638  09CF  29D1               	goto	u3080
  3639  09D0                     u3081:
  3640  09D0  29D6               	goto	l378
  3641  09D1                     u3080:
  3642                           opt subtitle "HI-TECH Software Omniscient Code Generator (Lite mode) build 49521"
  3643                           
  3644  09D1                     l3634:	
  3645                           opt subtitle "HI-TECH Software Omniscient Code Generator (Lite mode) build 49521"
  3646  09D1  30FD               	movlw	(0FDh)
  3647  09D2  00BA               	movwf	(??_rfm70setPowerdownMode+0)+0
  3648  09D3  083A               	movf	(??_rfm70setPowerdownMode+0)+0,w
  3649  09D4  05BC               	andwf	(rfm70setPowerdownMode@reg),f
  3650                           opt subtitle "HI-TECH Software Omniscient Code Generator (Lite mode) build 49521"
  3651                           
  3652  09D5  29D8               	goto	l3636
  3653                           opt subtitle "HI-TECH Software Omniscient Code Generator (Lite mode) build 49521"
  3654                           
  3655  09D6                     l378:	
  3656                           opt subtitle "HI-TECH Software Omniscient Code Generator (Lite mode) build 49521"
  3657                           
  3658                           opt pagewidth 120
  3659  09D6  14BC               	bsf	(rfm70setPowerdownMode@reg)+(1/8),(1)&7
  3660  09D7  29D8               	goto	l3636
  3661                           opt subtitle "HI-TECH Software Omniscient Code Generator (Lite mode) build 49521"
  3662                           
  3663  09D8                     l379:	
  3664                           opt subtitle "HI-TECH Software Omniscient Code Generator (Lite mode) build 49521"
  3665                           
  3666  09D8                     l3636:	
  3667                           opt subtitle "HI-TECH Software Omniscient Code Generator (Lite mode) build 49521"
  3668                           
  3669  09D8  083C               	movf	(rfm70setPowerdownMode@reg),w
  3670  09D9  00BA               	movwf	(??_rfm70setPowerdownMode+0)+0
  3671  09DA  083A               	movf	(??_rfm70setPowerdownMode+0)+0,w
  3672  09DB  00B7               	movwf	(?_SPI_Write_Reg)
  3673  09DC  3020               	movlw	(020h)
  3674  09DD  120A  158A  210A   	fcall	_SPI_Write_Reg
              120A  158A         
  3675                           opt subtitle "HI-TECH Software Omniscient Code Generator (Lite mode) build 49521"
  3676                           
  3677  09E2                     l380:	
  3678  09E2  0008               	return
  3679                           opt subtitle "HI-TECH Software Omniscient Code Generator (Lite mode) build 49521"
  3680                           
  3681  09E3                     	__end_of_rfm70setPowerdownMode:
  3682                           opt subtitle "HI-TECH Software Omniscient Code Generator (Lite mode) build 49521"
  3683                           
  3684                           opt pagewidth 120
  3685                           
  3686                           	opt lm
  3687                           
  3688                           	processor	16F707
  3689                           clrc	macro
  3690                           	bcf	3,0
  3691                           	endm
  3692                           clrz	macro
  3693                           	bcf	3,2
  3694                           	endm
  3695                           setc	macro
  3696                           	bsf	3,0
  3697                           	endm
  3698                           setz	macro
  3699                           	bsf	3,2
  3700                           	endm
  3701                           skipc	macro
  3702                           	btfss	3,0
  3703                           	endm
  3704                           skipz	macro
  3705                           	btfss	3,2
  3706                           	endm
  3707                           skipnc	macro
  3708                           	btfsc	3,0
  3709                           	endm
  3710                           skipnz	macro
  3711                           	btfsc	3,2
  3712                           	endm
  3713                           indf	equ	0
  3714                           indf0	equ	0
  3715                           pc	equ	2
  3716                           pcl	equ	2
  3717                           status	equ	3
  3718                           fsr	equ	4
  3719                           fsr0	equ	4
  3720                           c	equ	1
  3721  0015                     __ptext1035:	;psect for function _RFM70_Initialize
  3722                           opt subtitle "HI-TECH Software Omniscient Code Generator (Lite mode) build 49521"
  3723                           
  3724                           opt pagewidth 120
  3725                           
  3726  0310                     	__size_of_RFM70_Initialize	equ	__end_of_RFM70_Initialize-_RFM70_Initialize
  3727                           opt subtitle "HI-TECH Software Omniscient Code Generator (Lite mode) build 49521"
  3728  0015                     _RFM70_Initialize:	
  3729                           opt subtitle "HI-TECH Software Omniscient Code Generator (Lite mode) build 49521"
  3730                           
  3731                           opt pagewidth 120
  3732                           
  3733  0015                     l3638:	
  3734                           opt subtitle "HI-TECH Software Omniscient Code Generator (Lite mode) build 49521"
  3735                           
  3736                           opt pagewidth 120
  3737                           
  3738  0015  3003               movlw  3
  3739  0016  1283               	bcf	status, 5	;RP0=0, select bank0
  3740  0017  1303               	bcf	status, 6	;RP1=0, select bank0
  3741  0018  00BF               movwf	((??_RFM70_Initialize+0)+0+2),f
  3742  0019  3008               movlw	8
  3743  001A  00BE               movwf	((??_RFM70_Initialize+0)+0+1),f
  3744  001B  3078               	movlw	120
  3745  001C  00BD               movwf	((??_RFM70_Initialize+0)+0),f
  3746  001D                     u3757:
  3747  001D  0BBD               	decfsz	((??_RFM70_Initialize+0)+0),f
  3748  001E  281D               	goto	u3757
  3749  001F  0BBE               	decfsz	((??_RFM70_Initialize+0)+0+1),f
  3750  0020  281D               	goto	u3757
  3751  0021  0BBF               	decfsz	((??_RFM70_Initialize+0)+0+2),f
  3752  0022  281D               	goto	u3757
  3753                           opt subtitle "HI-TECH Software Omniscient Code Generator (Lite mode) build 49521"
  3754                           
  3755                           opt pagewidth 120
  3756                           
  3757  0023                     l3640:	
  3758                           opt subtitle "HI-TECH Software Omniscient Code Generator (Lite mode) build 49521"
  3759  0023  3000               	movlw	(0)
  3760  0024  120A  158A  22E2   	fcall	_SwitchCFG
              120A  118A         
  3761                           opt subtitle "HI-TECH Software Omniscient Code Generator (Lite mode) build 49521"
  3762                           
  3763  0029                     l3642:	
  3764                           opt subtitle "HI-TECH Software Omniscient Code Generator (Lite mode) build 49521"
  3765  0029  1283               	bcf	status, 5	;RP0=0, select bank0
  3766  002A  1303               	bcf	status, 6	;RP1=0, select bank0
  3767  002B  01D0               	clrf	(RFM70_Initialize@i)
  3768                           opt subtitle "HI-TECH Software Omniscient Code Generator (Lite mode) build 49521"
  3769  002C                     l3644:	
  3770  002C  3014               	movlw	(014h)
  3771  002D  0250               	subwf	(RFM70_Initialize@i),w
  3772  002E  1C03               	skipc
  3773  002F  2831               	goto	u3091
  3774  0030  2832               	goto	u3090
  3775  0031                     u3091:
  3776  0031  2834               	goto	l3648
  3777  0032                     u3090:
  3778  0032  2864               	goto	l333
  3779                           opt subtitle "HI-TECH Software Omniscient Code Generator (Lite mode) build 49521"
  3780  0033                     l3646:	
  3781  0033  2864               	goto	l333
  3782                           opt subtitle "HI-TECH Software Omniscient Code Generator (Lite mode) build 49521"
  3783                           
  3784  0034                     l332:	
  3785                           opt subtitle "HI-TECH Software Omniscient Code Generator (Lite mode) build 49521"
  3786                           
  3787  0034                     l3648:	
  3788                           opt subtitle "HI-TECH Software Omniscient Code Generator (Lite mode) build 49521"
  3789                           
  3790  0034  1403               	setc
  3791  0035  0D50               	rlf	(RFM70_Initialize@i),w
  3792  0036  3E4A               	addlw	low(_Bank0_Reg|8000h)
  3793  0037  0084               	movwf	fsr0
  3794  0038  3090               	movlw	high(_Bank0_Reg|8000h)
  3795  0039  1803               	skipnc
  3796  003A  3E01               	addlw	1
  3797  003B  00FF               	movwf	btemp+1
  3798  003C  160A  118A  2000   	fcall	stringtab
              120A  118A         
  3799  0041  00BD               	movwf	(??_RFM70_Initialize+0)+0
  3800  0042  083D               	movf	(??_RFM70_Initialize+0)+0,w
  3801  0043  00B7               	movwf	(?_SPI_Write_Reg)
  3802  0044  0850               	movf	(RFM70_Initialize@i),w
  3803  0045  00BE               	movwf	(??_RFM70_Initialize+1)+0
  3804  0046  073E               	addwf	(??_RFM70_Initialize+1)+0,w
  3805  0047  3E4A               	addlw	low(_Bank0_Reg|8000h)
  3806  0048  0084               	movwf	fsr0
  3807  0049  3090               	movlw	high(_Bank0_Reg|8000h)
  3808  004A  1803               	skipnc
  3809  004B  3E01               	addlw	1
  3810  004C  00FF               	movwf	btemp+1
  3811  004D  160A  118A  2000   	fcall	stringtab
              120A  118A         
  3812  0052  3820               	iorlw	020h
  3813  0053  120A  158A  210A   	fcall	_SPI_Write_Reg
              120A  118A         
  3814                           opt subtitle "HI-TECH Software Omniscient Code Generator (Lite mode) build 49521"
  3815                           
  3816  0058                     l3650:	
  3817  0058  3001               	movlw	(01h)
  3818  0059  1283               	bcf	status, 5	;RP0=0, select bank0
  3819  005A  1303               	bcf	status, 6	;RP1=0, select bank0
  3820  005B  00BD               	movwf	(??_RFM70_Initialize+0)+0
  3821  005C  083D               	movf	(??_RFM70_Initialize+0)+0,w
  3822  005D  07D0               	addwf	(RFM70_Initialize@i),f
  3823                           opt subtitle "HI-TECH Software Omniscient Code Generator (Lite mode) build 49521"
  3824  005E                     l3652:	
  3825  005E  3014               	movlw	(014h)
  3826  005F  0250               	subwf	(RFM70_Initialize@i),w
  3827  0060  1C03               	skipc
  3828  0061  2863               	goto	u3101
  3829  0062  2864               	goto	u3100
  3830  0063                     u3101:
  3831  0063  2834               	goto	l3648
  3832  0064                     u3100:
  3833                           opt subtitle "HI-TECH Software Omniscient Code Generator (Lite mode) build 49521"
  3834  0064                     l333:	
  3835                           opt subtitle "HI-TECH Software Omniscient Code Generator (Lite mode) build 49521"
  3836                           
  3837                           opt pagewidth 120
  3838  0064  01D1               	clrf	(RFM70_Initialize@j)
  3839                           opt subtitle "HI-TECH Software Omniscient Code Generator (Lite mode) build 49521"
  3840  0065                     l3654:	
  3841  0065  3005               	movlw	(05h)
  3842  0066  0251               	subwf	(RFM70_Initialize@j),w
  3843  0067  1C03               	skipc
  3844  0068  286A               	goto	u3111
  3845  0069  286B               	goto	u3110
  3846  006A                     u3111:
  3847  006A  286D               	goto	l3658
  3848  006B                     u3110:
  3849  006B  288B               	goto	l3664
  3850                           opt subtitle "HI-TECH Software Omniscient Code Generator (Lite mode) build 49521"
  3851  006C                     l3656:	
  3852  006C  288B               	goto	l3664
  3853                           opt subtitle "HI-TECH Software Omniscient Code Generator (Lite mode) build 49521"
  3854                           
  3855  006D                     l334:	
  3856                           opt subtitle "HI-TECH Software Omniscient Code Generator (Lite mode) build 49521"
  3857                           
  3858  006D                     l3658:	
  3859                           opt subtitle "HI-TECH Software Omniscient Code Generator (Lite mode) build 49521"
  3860                           
  3861  006D  0851               	movf	(RFM70_Initialize@j),w
  3862  006E  3E95               	addlw	low(_RX0_Address|8000h)
  3863  006F  0084               	movwf	fsr0
  3864  0070  3090               	movlw	high(_RX0_Address|8000h)
  3865  0071  1803               	skipnc
  3866  0072  3E01               	addlw	1
  3867  0073  00FF               	movwf	btemp+1
  3868  0074  160A  118A  2000   	fcall	stringtab
              120A  118A         
  3869  0079  00BD               	movwf	(??_RFM70_Initialize+0)+0
  3870  007A  0851               	movf	(RFM70_Initialize@j),w
  3871  007B  3E44               	addlw	RFM70_Initialize@WriteArr&0ffh
  3872  007C  0084               	movwf	fsr0
  3873  007D  083D               	movf	(??_RFM70_Initialize+0)+0,w
  3874  007E  1383               	bcf	status, 7	;select IRP bank0
  3875  007F  0080               	movwf	indf
  3876                           opt subtitle "HI-TECH Software Omniscient Code Generator (Lite mode) build 49521"
  3877                           
  3878  0080                     l3660:	
  3879  0080  3001               	movlw	(01h)
  3880  0081  00BD               	movwf	(??_RFM70_Initialize+0)+0
  3881  0082  083D               	movf	(??_RFM70_Initialize+0)+0,w
  3882  0083  07D1               	addwf	(RFM70_Initialize@j),f
  3883                           opt subtitle "HI-TECH Software Omniscient Code Generator (Lite mode) build 49521"
  3884  0084                     l3662:	
  3885  0084  3005               	movlw	(05h)
  3886  0085  0251               	subwf	(RFM70_Initialize@j),w
  3887  0086  1C03               	skipc
  3888  0087  2889               	goto	u3121
  3889  0088  288A               	goto	u3120
  3890  0089                     u3121:
  3891  0089  286D               	goto	l3658
  3892  008A                     u3120:
  3893  008A  288B               	goto	l3664
  3894                           opt subtitle "HI-TECH Software Omniscient Code Generator (Lite mode) build 49521"
  3895  008B                     l335:	
  3896                           opt subtitle "HI-TECH Software Omniscient Code Generator (Lite mode) build 49521"
  3897                           
  3898  008B                     l3664:	
  3899                           opt subtitle "HI-TECH Software Omniscient Code Generator (Lite mode) build 49521"
  3900                           
  3901  008B  3044               	movlw	(RFM70_Initialize@WriteArr)&0ffh
  3902  008C  00BD               	movwf	(??_RFM70_Initialize+0)+0
  3903  008D  083D               	movf	(??_RFM70_Initialize+0)+0,w
  3904  008E  00B7               	movwf	(?_SPI_Write_Buf)
  3905  008F  3005               	movlw	(05h)
  3906  0090  00BE               	movwf	(??_RFM70_Initialize+1)+0
  3907  0091  083E               	movf	(??_RFM70_Initialize+1)+0,w
  3908  0092  00B8               	movwf	0+(?_SPI_Write_Buf)+01h
  3909  0093  302A               	movlw	(02Ah)
  3910  0094  120A  158A  2236   	fcall	_SPI_Write_Buf
              120A  118A         
  3911                           opt subtitle "HI-TECH Software Omniscient Code Generator (Lite mode) build 49521"
  3912                           
  3913  0099                     l3666:	
  3914                           opt subtitle "HI-TECH Software Omniscient Code Generator (Lite mode) build 49521"
  3915  0099  1283               	bcf	status, 5	;RP0=0, select bank0
  3916  009A  1303               	bcf	status, 6	;RP1=0, select bank0
  3917  009B  01D1               	clrf	(RFM70_Initialize@j)
  3918                           opt subtitle "HI-TECH Software Omniscient Code Generator (Lite mode) build 49521"
  3919  009C                     l3668:	
  3920  009C  3005               	movlw	(05h)
  3921  009D  0251               	subwf	(RFM70_Initialize@j),w
  3922  009E  1C03               	skipc
  3923  009F  28A1               	goto	u3131
  3924  00A0  28A2               	goto	u3130
  3925  00A1                     u3131:
  3926  00A1  28A4               	goto	l3672
  3927  00A2                     u3130:
  3928  00A2  28C2               	goto	l3678
  3929                           opt subtitle "HI-TECH Software Omniscient Code Generator (Lite mode) build 49521"
  3930  00A3                     l3670:	
  3931  00A3  28C2               	goto	l3678
  3932                           opt subtitle "HI-TECH Software Omniscient Code Generator (Lite mode) build 49521"
  3933                           
  3934  00A4                     l336:	
  3935                           opt subtitle "HI-TECH Software Omniscient Code Generator (Lite mode) build 49521"
  3936                           
  3937  00A4                     l3672:	
  3938                           opt subtitle "HI-TECH Software Omniscient Code Generator (Lite mode) build 49521"
  3939                           
  3940  00A4  0851               	movf	(RFM70_Initialize@j),w
  3941  00A5  3E9A               	addlw	low(_RX1_Address|8000h)
  3942  00A6  0084               	movwf	fsr0
  3943  00A7  3090               	movlw	high(_RX1_Address|8000h)
  3944  00A8  1803               	skipnc
  3945  00A9  3E01               	addlw	1
  3946  00AA  00FF               	movwf	btemp+1
  3947  00AB  160A  118A  2000   	fcall	stringtab
              120A  118A         
  3948  00B0  00BD               	movwf	(??_RFM70_Initialize+0)+0
  3949  00B1  0851               	movf	(RFM70_Initialize@j),w
  3950  00B2  3E44               	addlw	RFM70_Initialize@WriteArr&0ffh
  3951  00B3  0084               	movwf	fsr0
  3952  00B4  083D               	movf	(??_RFM70_Initialize+0)+0,w
  3953  00B5  1383               	bcf	status, 7	;select IRP bank0
  3954  00B6  0080               	movwf	indf
  3955                           opt subtitle "HI-TECH Software Omniscient Code Generator (Lite mode) build 49521"
  3956                           
  3957  00B7                     l3674:	
  3958  00B7  3001               	movlw	(01h)
  3959  00B8  00BD               	movwf	(??_RFM70_Initialize+0)+0
  3960  00B9  083D               	movf	(??_RFM70_Initialize+0)+0,w
  3961  00BA  07D1               	addwf	(RFM70_Initialize@j),f
  3962                           opt subtitle "HI-TECH Software Omniscient Code Generator (Lite mode) build 49521"
  3963  00BB                     l3676:	
  3964  00BB  3005               	movlw	(05h)
  3965  00BC  0251               	subwf	(RFM70_Initialize@j),w
  3966  00BD  1C03               	skipc
  3967  00BE  28C0               	goto	u3141
  3968  00BF  28C1               	goto	u3140
  3969  00C0                     u3141:
  3970  00C0  28A4               	goto	l3672
  3971  00C1                     u3140:
  3972  00C1  28C2               	goto	l3678
  3973                           opt subtitle "HI-TECH Software Omniscient Code Generator (Lite mode) build 49521"
  3974  00C2                     l337:	
  3975                           opt subtitle "HI-TECH Software Omniscient Code Generator (Lite mode) build 49521"
  3976                           
  3977  00C2                     l3678:	
  3978                           opt subtitle "HI-TECH Software Omniscient Code Generator (Lite mode) build 49521"
  3979                           
  3980  00C2  3044               	movlw	(RFM70_Initialize@WriteArr)&0ffh
  3981  00C3  00BD               	movwf	(??_RFM70_Initialize+0)+0
  3982  00C4  083D               	movf	(??_RFM70_Initialize+0)+0,w
  3983  00C5  00B7               	movwf	(?_SPI_Write_Buf)
  3984  00C6  3005               	movlw	(05h)
  3985  00C7  00BE               	movwf	(??_RFM70_Initialize+1)+0
  3986  00C8  083E               	movf	(??_RFM70_Initialize+1)+0,w
  3987  00C9  00B8               	movwf	0+(?_SPI_Write_Buf)+01h
  3988  00CA  302B               	movlw	(02Bh)
  3989  00CB  120A  158A  2236   	fcall	_SPI_Write_Buf
              120A  118A         
  3990                           opt subtitle "HI-TECH Software Omniscient Code Generator (Lite mode) build 49521"
  3991                           
  3992  00D0                     l3680:	
  3993                           opt subtitle "HI-TECH Software Omniscient Code Generator (Lite mode) build 49521"
  3994  00D0  1283               	bcf	status, 5	;RP0=0, select bank0
  3995  00D1  1303               	bcf	status, 6	;RP1=0, select bank0
  3996  00D2  01D1               	clrf	(RFM70_Initialize@j)
  3997                           opt subtitle "HI-TECH Software Omniscient Code Generator (Lite mode) build 49521"
  3998  00D3                     l3682:	
  3999  00D3  3005               	movlw	(05h)
  4000  00D4  0251               	subwf	(RFM70_Initialize@j),w
  4001  00D5  1C03               	skipc
  4002  00D6  28D8               	goto	u3151
  4003  00D7  28D9               	goto	u3150
  4004  00D8                     u3151:
  4005  00D8  28DB               	goto	l3686
  4006  00D9                     u3150:
  4007  00D9  28F9               	goto	l3692
  4008                           opt subtitle "HI-TECH Software Omniscient Code Generator (Lite mode) build 49521"
  4009  00DA                     l3684:	
  4010  00DA  28F9               	goto	l3692
  4011                           opt subtitle "HI-TECH Software Omniscient Code Generator (Lite mode) build 49521"
  4012                           
  4013  00DB                     l338:	
  4014                           opt subtitle "HI-TECH Software Omniscient Code Generator (Lite mode) build 49521"
  4015                           
  4016  00DB                     l3686:	
  4017                           opt subtitle "HI-TECH Software Omniscient Code Generator (Lite mode) build 49521"
  4018                           
  4019  00DB  0851               	movf	(RFM70_Initialize@j),w
  4020  00DC  3E95               	addlw	low(_RX0_Address|8000h)
  4021  00DD  0084               	movwf	fsr0
  4022  00DE  3090               	movlw	high(_RX0_Address|8000h)
  4023  00DF  1803               	skipnc
  4024  00E0  3E01               	addlw	1
  4025  00E1  00FF               	movwf	btemp+1
  4026  00E2  160A  118A  2000   	fcall	stringtab
              120A  118A         
  4027  00E7  00BD               	movwf	(??_RFM70_Initialize+0)+0
  4028  00E8  0851               	movf	(RFM70_Initialize@j),w
  4029  00E9  3E44               	addlw	RFM70_Initialize@WriteArr&0ffh
  4030  00EA  0084               	movwf	fsr0
  4031  00EB  083D               	movf	(??_RFM70_Initialize+0)+0,w
  4032  00EC  1383               	bcf	status, 7	;select IRP bank0
  4033  00ED  0080               	movwf	indf
  4034                           opt subtitle "HI-TECH Software Omniscient Code Generator (Lite mode) build 49521"
  4035                           
  4036  00EE                     l3688:	
  4037  00EE  3001               	movlw	(01h)
  4038  00EF  00BD               	movwf	(??_RFM70_Initialize+0)+0
  4039  00F0  083D               	movf	(??_RFM70_Initialize+0)+0,w
  4040  00F1  07D1               	addwf	(RFM70_Initialize@j),f
  4041                           opt subtitle "HI-TECH Software Omniscient Code Generator (Lite mode) build 49521"
  4042  00F2                     l3690:	
  4043  00F2  3005               	movlw	(05h)
  4044  00F3  0251               	subwf	(RFM70_Initialize@j),w
  4045  00F4  1C03               	skipc
  4046  00F5  28F7               	goto	u3161
  4047  00F6  28F8               	goto	u3160
  4048  00F7                     u3161:
  4049  00F7  28DB               	goto	l3686
  4050  00F8                     u3160:
  4051  00F8  28F9               	goto	l3692
  4052                           opt subtitle "HI-TECH Software Omniscient Code Generator (Lite mode) build 49521"
  4053  00F9                     l339:	
  4054                           opt subtitle "HI-TECH Software Omniscient Code Generator (Lite mode) build 49521"
  4055                           
  4056  00F9                     l3692:	
  4057                           opt subtitle "HI-TECH Software Omniscient Code Generator (Lite mode) build 49521"
  4058                           
  4059  00F9  3044               	movlw	(RFM70_Initialize@WriteArr)&0ffh
  4060  00FA  00BD               	movwf	(??_RFM70_Initialize+0)+0
  4061  00FB  083D               	movf	(??_RFM70_Initialize+0)+0,w
  4062  00FC  00B7               	movwf	(?_SPI_Write_Buf)
  4063  00FD  3005               	movlw	(05h)
  4064  00FE  00BE               	movwf	(??_RFM70_Initialize+1)+0
  4065  00FF  083E               	movf	(??_RFM70_Initialize+1)+0,w
  4066  0100  00B8               	movwf	0+(?_SPI_Write_Buf)+01h
  4067  0101  3030               	movlw	(030h)
  4068  0102  120A  158A  2236   	fcall	_SPI_Write_Buf
              120A  118A         
  4069                           opt subtitle "HI-TECH Software Omniscient Code Generator (Lite mode) build 49521"
  4070                           
  4071  0107                     l3694:	
  4072                           opt subtitle "HI-TECH Software Omniscient Code Generator (Lite mode) build 49521"
  4073  0107  301D               	movlw	(01Dh)
  4074  0108  120A  158A  2167   	fcall	_SPI_Read_Reg
              120A  118A         
  4075  010D  1283               	bcf	status, 5	;RP0=0, select bank0
  4076  010E  1303               	bcf	status, 6	;RP1=0, select bank0
  4077  010F  00BD               	movwf	(??_RFM70_Initialize+0)+0
  4078  0110  083D               	movf	(??_RFM70_Initialize+0)+0,w
  4079  0111  00D0               	movwf	(RFM70_Initialize@i)
  4080                           opt subtitle "HI-TECH Software Omniscient Code Generator (Lite mode) build 49521"
  4081                           
  4082  0112                     l3696:	
  4083                           opt subtitle "HI-TECH Software Omniscient Code Generator (Lite mode) build 49521"
  4084  0112  08D0               	movf	(RFM70_Initialize@i),f
  4085  0113  1D03               	skipz
  4086  0114  2916               	goto	u3171
  4087  0115  2917               	goto	u3170
  4088  0116                     u3171:
  4089  0116  2922               	goto	l3700
  4090  0117                     u3170:
  4091                           opt subtitle "HI-TECH Software Omniscient Code Generator (Lite mode) build 49521"
  4092                           
  4093  0117                     l3698:	
  4094                           opt subtitle "HI-TECH Software Omniscient Code Generator (Lite mode) build 49521"
  4095  0117  3073               	movlw	(073h)
  4096  0118  00BD               	movwf	(??_RFM70_Initialize+0)+0
  4097  0119  083D               	movf	(??_RFM70_Initialize+0)+0,w
  4098  011A  00B7               	movwf	(?_SPI_Write_Reg)
  4099  011B  3050               	movlw	(050h)
  4100  011C  120A  158A  210A   	fcall	_SPI_Write_Reg
              120A  118A         
  4101  0121  2922               	goto	l3700
  4102                           opt subtitle "HI-TECH Software Omniscient Code Generator (Lite mode) build 49521"
  4103  0122                     l340:	
  4104                           opt subtitle "HI-TECH Software Omniscient Code Generator (Lite mode) build 49521"
  4105                           
  4106  0122                     l3700:	
  4107                           opt subtitle "HI-TECH Software Omniscient Code Generator (Lite mode) build 49521"
  4108  0122  3016               	movlw	(016h)
  4109  0123  1283               	bcf	status, 5	;RP0=0, select bank0
  4110  0124  1303               	bcf	status, 6	;RP1=0, select bank0
  4111  0125  00BD               	movwf	(??_RFM70_Initialize+0)+0
  4112  0126  083D               	movf	(??_RFM70_Initialize+0)+0,w
  4113  0127  00D0               	movwf	(RFM70_Initialize@i)
  4114                           opt subtitle "HI-TECH Software Omniscient Code Generator (Lite mode) build 49521"
  4115  0128                     l3702:	
  4116  0128  3015               	movlw	(015h)
  4117  0129  0250               	subwf	(RFM70_Initialize@i),w
  4118  012A  1803               	skipnc
  4119  012B  292D               	goto	u3181
  4120  012C  292E               	goto	u3180
  4121  012D                     u3181:
  4122  012D  2930               	goto	l3706
  4123  012E                     u3180:
  4124  012E  295F               	goto	l3712
  4125                           opt subtitle "HI-TECH Software Omniscient Code Generator (Lite mode) build 49521"
  4126  012F                     l3704:	
  4127  012F  295F               	goto	l3712
  4128                           opt subtitle "HI-TECH Software Omniscient Code Generator (Lite mode) build 49521"
  4129                           
  4130  0130                     l341:	
  4131                           opt subtitle "HI-TECH Software Omniscient Code Generator (Lite mode) build 49521"
  4132                           
  4133  0130                     l3706:	
  4134                           opt subtitle "HI-TECH Software Omniscient Code Generator (Lite mode) build 49521"
  4135                           
  4136  0130  1403               	setc
  4137  0131  0D50               	rlf	(RFM70_Initialize@i),w
  4138  0132  3E4A               	addlw	low(_Bank0_Reg|8000h)
  4139  0133  0084               	movwf	fsr0
  4140  0134  3090               	movlw	high(_Bank0_Reg|8000h)
  4141  0135  1803               	skipnc
  4142  0136  3E01               	addlw	1
  4143  0137  00FF               	movwf	btemp+1
  4144  0138  160A  118A  2000   	fcall	stringtab
              120A  118A         
  4145  013D  00BD               	movwf	(??_RFM70_Initialize+0)+0
  4146  013E  083D               	movf	(??_RFM70_Initialize+0)+0,w
  4147  013F  00B7               	movwf	(?_SPI_Write_Reg)
  4148  0140  0850               	movf	(RFM70_Initialize@i),w
  4149  0141  00BE               	movwf	(??_RFM70_Initialize+1)+0
  4150  0142  073E               	addwf	(??_RFM70_Initialize+1)+0,w
  4151  0143  3E4A               	addlw	low(_Bank0_Reg|8000h)
  4152  0144  0084               	movwf	fsr0
  4153  0145  3090               	movlw	high(_Bank0_Reg|8000h)
  4154  0146  1803               	skipnc
  4155  0147  3E01               	addlw	1
  4156  0148  00FF               	movwf	btemp+1
  4157  0149  160A  118A  2000   	fcall	stringtab
              120A  118A         
  4158  014E  3820               	iorlw	020h
  4159  014F  120A  158A  210A   	fcall	_SPI_Write_Reg
              120A  118A         
  4160                           opt subtitle "HI-TECH Software Omniscient Code Generator (Lite mode) build 49521"
  4161                           
  4162  0154                     l3708:	
  4163  0154  3001               	movlw	low(01h)
  4164  0155  1283               	bcf	status, 5	;RP0=0, select bank0
  4165  0156  1303               	bcf	status, 6	;RP1=0, select bank0
  4166  0157  02D0               	subwf	(RFM70_Initialize@i),f
  4167                           opt subtitle "HI-TECH Software Omniscient Code Generator (Lite mode) build 49521"
  4168  0158                     l3710:	
  4169  0158  3015               	movlw	(015h)
  4170  0159  0250               	subwf	(RFM70_Initialize@i),w
  4171  015A  1803               	skipnc
  4172  015B  295D               	goto	u3191
  4173  015C  295E               	goto	u3190
  4174  015D                     u3191:
  4175  015D  2930               	goto	l3706
  4176  015E                     u3190:
  4177  015E  295F               	goto	l3712
  4178                           opt subtitle "HI-TECH Software Omniscient Code Generator (Lite mode) build 49521"
  4179  015F                     l342:	
  4180                           opt subtitle "HI-TECH Software Omniscient Code Generator (Lite mode) build 49521"
  4181                           
  4182  015F                     l3712:	
  4183                           opt subtitle "HI-TECH Software Omniscient Code Generator (Lite mode) build 49521"
  4184                           
  4185  015F  3001               	movlw	(01h)
  4186  0160  120A  158A  22E2   	fcall	_SwitchCFG
              120A  118A         
  4187                           opt subtitle "HI-TECH Software Omniscient Code Generator (Lite mode) build 49521"
  4188                           
  4189  0165                     l3714:	
  4190                           opt subtitle "HI-TECH Software Omniscient Code Generator (Lite mode) build 49521"
  4191  0165  1283               	bcf	status, 5	;RP0=0, select bank0
  4192  0166  1303               	bcf	status, 6	;RP1=0, select bank0
  4193  0167  01D0               	clrf	(RFM70_Initialize@i)
  4194                           opt subtitle "HI-TECH Software Omniscient Code Generator (Lite mode) build 49521"
  4195  0168                     l3716:	
  4196  0168  3009               	movlw	(09h)
  4197  0169  0250               	subwf	(RFM70_Initialize@i),w
  4198  016A  1C03               	skipc
  4199  016B  296D               	goto	u3201
  4200  016C  296E               	goto	u3200
  4201  016D                     u3201:
  4202  016D  2970               	goto	l343
  4203  016E                     u3200:
  4204  016E  29E4               	goto	l3736
  4205                           opt subtitle "HI-TECH Software Omniscient Code Generator (Lite mode) build 49521"
  4206  016F                     l3718:	
  4207  016F  29E4               	goto	l3736
  4208                           opt subtitle "HI-TECH Software Omniscient Code Generator (Lite mode) build 49521"
  4209                           
  4210  0170                     l343:	
  4211                           opt subtitle "HI-TECH Software Omniscient Code Generator (Lite mode) build 49521"
  4212                           
  4213                           opt pagewidth 120
  4214  0170  01D1               	clrf	(RFM70_Initialize@j)
  4215                           opt subtitle "HI-TECH Software Omniscient Code Generator (Lite mode) build 49521"
  4216  0171                     l3720:	
  4217  0171  3004               	movlw	(04h)
  4218  0172  0251               	subwf	(RFM70_Initialize@j),w
  4219  0173  1C03               	skipc
  4220  0174  2976               	goto	u3211
  4221  0175  2977               	goto	u3210
  4222  0176                     u3211:
  4223  0176  2979               	goto	l3724
  4224  0177                     u3210:
  4225  0177  29C8               	goto	l3730
  4226                           opt subtitle "HI-TECH Software Omniscient Code Generator (Lite mode) build 49521"
  4227  0178                     l3722:	
  4228  0178  29C8               	goto	l3730
  4229                           opt subtitle "HI-TECH Software Omniscient Code Generator (Lite mode) build 49521"
  4230                           
  4231  0179                     l345:	
  4232                           opt subtitle "HI-TECH Software Omniscient Code Generator (Lite mode) build 49521"
  4233  0179                     l3724:	
  4234                           opt subtitle "HI-TECH Software Omniscient Code Generator (Lite mode) build 49521"
  4235  0179  0850               	movf	(RFM70_Initialize@i),w
  4236  017A  00BD               	movwf	(??_RFM70_Initialize+0)+0
  4237  017B  3001               	movlw	(02h)-1
  4238  017C                     u3225:
  4239  017C  1003               	clrc
  4240  017D  0DBD               	rlf	(??_RFM70_Initialize+0)+0,f
  4241  017E  3EFF               	addlw	-1
  4242  017F  1D03               	skipz
  4243  0180  297C               	goto	u3225
  4244  0181  1003               	clrc
  4245  0182  0D3D               	rlf	(??_RFM70_Initialize+0)+0,w
  4246  0183  3E12               	addlw	low(_Bank1_Reg0_13|8000h)
  4247  0184  0084               	movwf	fsr0
  4248  0185  3090               	movlw	high(_Bank1_Reg0_13|8000h)
  4249  0186  1803               	skipnc
  4250  0187  3E01               	addlw	1
  4251  0188  00FF               	movwf	btemp+1
  4252  0189  160A  118A  2000   	fcall	stringtab
              120A  118A         
  4253  018E  00BE               	movwf	((??_RFM70_Initialize+1)+0)
  4254  018F  160A  118A  2000   	fcall	stringtab
              120A  118A         
  4255  0194  00BF               	movwf	((??_RFM70_Initialize+1)+0+1)
  4256  0195  160A  118A  2000   	fcall	stringtab
              120A  118A         
  4257  019A  00C0               	movwf	((??_RFM70_Initialize+1)+0+2)
  4258  019B  160A  118A  2000   	fcall	stringtab
              120A  118A         
  4259  01A0  00C1               	movwf	((??_RFM70_Initialize+1)+0+3)
  4260  01A1  0851               	movf	(RFM70_Initialize@j),w
  4261  01A2  00C2               	movwf	(??_RFM70_Initialize+5)+0
  4262  01A3  3002               	movlw	(03h)-1
  4263  01A4                     u3235:
  4264  01A4  1003               	clrc
  4265  01A5  0DC2               	rlf	(??_RFM70_Initialize+5)+0,f
  4266  01A6  3EFF               	addlw	-1
  4267  01A7  1D03               	skipz
  4268  01A8  29A4               	goto	u3235
  4269  01A9  1003               	clrc
  4270  01AA  0D42               	rlf	(??_RFM70_Initialize+5)+0,w
  4271  01AB  3E01               	addlw	1
  4272  01AC  29B2               	goto	u3240
  4273  01AD                     u3245:
  4274  01AD  1003               	clrc
  4275  01AE  0CC1               	rrf	(??_RFM70_Initialize+1)+3,f
  4276  01AF  0CC0               	rrf	(??_RFM70_Initialize+1)+2,f
  4277  01B0  0CBF               	rrf	(??_RFM70_Initialize+1)+1,f
  4278  01B1  0CBE               	rrf	(??_RFM70_Initialize+1)+0,f
  4279  01B2                     u3240:
  4280  01B2  3EFF               	addlw	-1
  4281  01B3  1D03               	skipz
  4282  01B4  29AD               	goto	u3245
  4283  01B5  083E               	movf	0+(??_RFM70_Initialize+1)+0,w
  4284  01B6  00C3               	movwf	(??_RFM70_Initialize+6)+0
  4285  01B7  0851               	movf	(RFM70_Initialize@j),w
  4286  01B8  3E44               	addlw	RFM70_Initialize@WriteArr&0ffh
  4287  01B9  0084               	movwf	fsr0
  4288  01BA  0843               	movf	(??_RFM70_Initialize+6)+0,w
  4289  01BB  1383               	bcf	status, 7	;select IRP bank0
  4290  01BC  0080               	movwf	indf
  4291                           opt subtitle "HI-TECH Software Omniscient Code Generator (Lite mode) build 49521"
  4292                           
  4293  01BD                     l3726:	
  4294  01BD  3001               	movlw	(01h)
  4295  01BE  00BD               	movwf	(??_RFM70_Initialize+0)+0
  4296  01BF  083D               	movf	(??_RFM70_Initialize+0)+0,w
  4297  01C0  07D1               	addwf	(RFM70_Initialize@j),f
  4298                           opt subtitle "HI-TECH Software Omniscient Code Generator (Lite mode) build 49521"
  4299  01C1                     l3728:	
  4300  01C1  3004               	movlw	(04h)
  4301  01C2  0251               	subwf	(RFM70_Initialize@j),w
  4302  01C3  1C03               	skipc
  4303  01C4  29C6               	goto	u3251
  4304  01C5  29C7               	goto	u3250
  4305  01C6                     u3251:
  4306  01C6  2979               	goto	l3724
  4307  01C7                     u3250:
  4308  01C7  29C8               	goto	l3730
  4309                           opt subtitle "HI-TECH Software Omniscient Code Generator (Lite mode) build 49521"
  4310  01C8                     l346:	
  4311                           opt subtitle "HI-TECH Software Omniscient Code Generator (Lite mode) build 49521"
  4312                           
  4313  01C8                     l3730:	
  4314                           opt subtitle "HI-TECH Software Omniscient Code Generator (Lite mode) build 49521"
  4315  01C8  3044               	movlw	(RFM70_Initialize@WriteArr)&0ffh
  4316  01C9  00BD               	movwf	(??_RFM70_Initialize+0)+0
  4317  01CA  083D               	movf	(??_RFM70_Initialize+0)+0,w
  4318  01CB  00B7               	movwf	(?_SPI_Write_Buf)
  4319  01CC  3004               	movlw	(04h)
  4320  01CD  00BE               	movwf	(??_RFM70_Initialize+1)+0
  4321  01CE  083E               	movf	(??_RFM70_Initialize+1)+0,w
  4322  01CF  00B8               	movwf	0+(?_SPI_Write_Buf)+01h
  4323  01D0  0850               	movf	(RFM70_Initialize@i),w
  4324  01D1  3820               	iorlw	020h
  4325  01D2  120A  158A  2236   	fcall	_SPI_Write_Buf
              120A  118A         
  4326                           opt subtitle "HI-TECH Software Omniscient Code Generator (Lite mode) build 49521"
  4327                           
  4328  01D7                     l3732:	
  4329  01D7  3001               	movlw	(01h)
  4330  01D8  1283               	bcf	status, 5	;RP0=0, select bank0
  4331  01D9  1303               	bcf	status, 6	;RP1=0, select bank0
  4332  01DA  00BD               	movwf	(??_RFM70_Initialize+0)+0
  4333  01DB  083D               	movf	(??_RFM70_Initialize+0)+0,w
  4334  01DC  07D0               	addwf	(RFM70_Initialize@i),f
  4335                           opt subtitle "HI-TECH Software Omniscient Code Generator (Lite mode) build 49521"
  4336  01DD                     l3734:	
  4337  01DD  3009               	movlw	(09h)
  4338  01DE  0250               	subwf	(RFM70_Initialize@i),w
  4339  01DF  1C03               	skipc
  4340  01E0  29E2               	goto	u3261
  4341  01E1  29E3               	goto	u3260
  4342  01E2                     u3261:
  4343  01E2  2970               	goto	l343
  4344  01E3                     u3260:
  4345  01E3  29E4               	goto	l3736
  4346                           opt subtitle "HI-TECH Software Omniscient Code Generator (Lite mode) build 49521"
  4347  01E4                     l344:	
  4348                           opt subtitle "HI-TECH Software Omniscient Code Generator (Lite mode) build 49521"
  4349                           
  4350  01E4                     l3736:	
  4351                           opt subtitle "HI-TECH Software Omniscient Code Generator (Lite mode) build 49521"
  4352                           
  4353  01E4  3009               	movlw	(09h)
  4354  01E5  00BD               	movwf	(??_RFM70_Initialize+0)+0
  4355  01E6  083D               	movf	(??_RFM70_Initialize+0)+0,w
  4356  01E7  00D0               	movwf	(RFM70_Initialize@i)
  4357  01E8  300E               	movlw	(0Eh)
  4358  01E9  0250               	subwf	(RFM70_Initialize@i),w
  4359  01EA  1C03               	skipc
  4360  01EB  29ED               	goto	u3271
  4361  01EC  29EE               	goto	u3270
  4362  01ED                     u3271:
  4363  01ED  29F0               	goto	l347
  4364  01EE                     u3270:
  4365  01EE  2A65               	goto	l348
  4366                           opt subtitle "HI-TECH Software Omniscient Code Generator (Lite mode) build 49521"
  4367  01EF                     l3738:	
  4368  01EF  2A65               	goto	l348
  4369                           opt subtitle "HI-TECH Software Omniscient Code Generator (Lite mode) build 49521"
  4370                           
  4371  01F0                     l347:	
  4372                           opt subtitle "HI-TECH Software Omniscient Code Generator (Lite mode) build 49521"
  4373                           
  4374                           opt pagewidth 120
  4375  01F0  01D1               	clrf	(RFM70_Initialize@j)
  4376                           opt subtitle "HI-TECH Software Omniscient Code Generator (Lite mode) build 49521"
  4377  01F1                     l3740:	
  4378  01F1  3004               	movlw	(04h)
  4379  01F2  0251               	subwf	(RFM70_Initialize@j),w
  4380  01F3  1C03               	skipc
  4381  01F4  29F6               	goto	u3281
  4382  01F5  29F7               	goto	u3280
  4383  01F6                     u3281:
  4384  01F6  29F9               	goto	l3744
  4385  01F7                     u3280:
  4386  01F7  2A4A               	goto	l3750
  4387                           opt subtitle "HI-TECH Software Omniscient Code Generator (Lite mode) build 49521"
  4388  01F8                     l3742:	
  4389  01F8  2A4A               	goto	l3750
  4390                           opt subtitle "HI-TECH Software Omniscient Code Generator (Lite mode) build 49521"
  4391                           
  4392  01F9                     l349:	
  4393                           opt subtitle "HI-TECH Software Omniscient Code Generator (Lite mode) build 49521"
  4394  01F9                     l3744:	
  4395                           opt subtitle "HI-TECH Software Omniscient Code Generator (Lite mode) build 49521"
  4396  01F9  0850               	movf	(RFM70_Initialize@i),w
  4397  01FA  00BD               	movwf	(??_RFM70_Initialize+0)+0
  4398  01FB  3001               	movlw	(02h)-1
  4399  01FC                     u3295:
  4400  01FC  1003               	clrc
  4401  01FD  0DBD               	rlf	(??_RFM70_Initialize+0)+0,f
  4402  01FE  3EFF               	addlw	-1
  4403  01FF  1D03               	skipz
  4404  0200  29FC               	goto	u3295
  4405  0201  1003               	clrc
  4406  0202  0D3D               	rlf	(??_RFM70_Initialize+0)+0,w
  4407  0203  3E12               	addlw	low(_Bank1_Reg0_13|8000h)
  4408  0204  0084               	movwf	fsr0
  4409  0205  3090               	movlw	high(_Bank1_Reg0_13|8000h)
  4410  0206  1803               	skipnc
  4411  0207  3E01               	addlw	1
  4412  0208  00FF               	movwf	btemp+1
  4413  0209  160A  118A  2000   	fcall	stringtab
              120A  118A         
  4414  020E  00BE               	movwf	((??_RFM70_Initialize+1)+0)
  4415  020F  160A  118A  2000   	fcall	stringtab
              120A  118A         
  4416  0214  00BF               	movwf	((??_RFM70_Initialize+1)+0+1)
  4417  0215  160A  118A  2000   	fcall	stringtab
              120A  118A         
  4418  021A  00C0               	movwf	((??_RFM70_Initialize+1)+0+2)
  4419  021B  160A  118A  2000   	fcall	stringtab
              120A  118A         
  4420  0220  00C1               	movwf	((??_RFM70_Initialize+1)+0+3)
  4421  0221  0351               	decf	(RFM70_Initialize@j),w
  4422  0222  3AFF               	xorlw	0ffh
  4423  0223  00C2               	movwf	(??_RFM70_Initialize+5)+0
  4424  0224  3002               	movlw	(03h)-1
  4425  0225                     u3305:
  4426  0225  1003               	clrc
  4427  0226  0DC2               	rlf	(??_RFM70_Initialize+5)+0,f
  4428  0227  3EFF               	addlw	-1
  4429  0228  1D03               	skipz
  4430  0229  2A25               	goto	u3305
  4431  022A  1003               	clrc
  4432  022B  0D42               	rlf	(??_RFM70_Initialize+5)+0,w
  4433  022C  3E18               	addlw	018h
  4434  022D  3E01               	addlw	1
  4435  022E  2A34               	goto	u3310
  4436  022F                     u3315:
  4437  022F  1003               	clrc
  4438  0230  0CC1               	rrf	(??_RFM70_Initialize+1)+3,f
  4439  0231  0CC0               	rrf	(??_RFM70_Initialize+1)+2,f
  4440  0232  0CBF               	rrf	(??_RFM70_Initialize+1)+1,f
  4441  0233  0CBE               	rrf	(??_RFM70_Initialize+1)+0,f
  4442  0234                     u3310:
  4443  0234  3EFF               	addlw	-1
  4444  0235  1D03               	skipz
  4445  0236  2A2F               	goto	u3315
  4446  0237  083E               	movf	0+(??_RFM70_Initialize+1)+0,w
  4447  0238  00C3               	movwf	(??_RFM70_Initialize+6)+0
  4448  0239  0851               	movf	(RFM70_Initialize@j),w
  4449  023A  3E44               	addlw	RFM70_Initialize@WriteArr&0ffh
  4450  023B  0084               	movwf	fsr0
  4451  023C  0843               	movf	(??_RFM70_Initialize+6)+0,w
  4452  023D  1383               	bcf	status, 7	;select IRP bank0
  4453  023E  0080               	movwf	indf
  4454                           opt subtitle "HI-TECH Software Omniscient Code Generator (Lite mode) build 49521"
  4455                           
  4456  023F                     l3746:	
  4457  023F  3001               	movlw	(01h)
  4458  0240  00BD               	movwf	(??_RFM70_Initialize+0)+0
  4459  0241  083D               	movf	(??_RFM70_Initialize+0)+0,w
  4460  0242  07D1               	addwf	(RFM70_Initialize@j),f
  4461                           opt subtitle "HI-TECH Software Omniscient Code Generator (Lite mode) build 49521"
  4462  0243                     l3748:	
  4463  0243  3004               	movlw	(04h)
  4464  0244  0251               	subwf	(RFM70_Initialize@j),w
  4465  0245  1C03               	skipc
  4466  0246  2A48               	goto	u3321
  4467  0247  2A49               	goto	u3320
  4468  0248                     u3321:
  4469  0248  29F9               	goto	l3744
  4470  0249                     u3320:
  4471  0249  2A4A               	goto	l3750
  4472                           opt subtitle "HI-TECH Software Omniscient Code Generator (Lite mode) build 49521"
  4473  024A                     l350:	
  4474                           opt subtitle "HI-TECH Software Omniscient Code Generator (Lite mode) build 49521"
  4475                           
  4476  024A                     l3750:	
  4477                           opt subtitle "HI-TECH Software Omniscient Code Generator (Lite mode) build 49521"
  4478  024A  3044               	movlw	(RFM70_Initialize@WriteArr)&0ffh
  4479  024B  00BD               	movwf	(??_RFM70_Initialize+0)+0
  4480  024C  083D               	movf	(??_RFM70_Initialize+0)+0,w
  4481  024D  00B7               	movwf	(?_SPI_Write_Buf)
  4482  024E  3004               	movlw	(04h)
  4483  024F  00BE               	movwf	(??_RFM70_Initialize+1)+0
  4484  0250  083E               	movf	(??_RFM70_Initialize+1)+0,w
  4485  0251  00B8               	movwf	0+(?_SPI_Write_Buf)+01h
  4486  0252  0850               	movf	(RFM70_Initialize@i),w
  4487  0253  3820               	iorlw	020h
  4488  0254  120A  158A  2236   	fcall	_SPI_Write_Buf
              120A  118A         
  4489                           opt subtitle "HI-TECH Software Omniscient Code Generator (Lite mode) build 49521"
  4490                           
  4491  0259                     l3752:	
  4492  0259  3001               	movlw	(01h)
  4493  025A  1283               	bcf	status, 5	;RP0=0, select bank0
  4494  025B  1303               	bcf	status, 6	;RP1=0, select bank0
  4495  025C  00BD               	movwf	(??_RFM70_Initialize+0)+0
  4496  025D  083D               	movf	(??_RFM70_Initialize+0)+0,w
  4497  025E  07D0               	addwf	(RFM70_Initialize@i),f
  4498                           opt subtitle "HI-TECH Software Omniscient Code Generator (Lite mode) build 49521"
  4499  025F                     l3754:	
  4500  025F  300E               	movlw	(0Eh)
  4501  0260  0250               	subwf	(RFM70_Initialize@i),w
  4502  0261  1C03               	skipc
  4503  0262  2A64               	goto	u3331
  4504  0263  2A65               	goto	u3330
  4505  0264                     u3331:
  4506  0264  29F0               	goto	l347
  4507  0265                     u3330:
  4508                           opt subtitle "HI-TECH Software Omniscient Code Generator (Lite mode) build 49521"
  4509  0265                     l348:	
  4510                           opt subtitle "HI-TECH Software Omniscient Code Generator (Lite mode) build 49521"
  4511                           
  4512                           opt pagewidth 120
  4513  0265  01D1               	clrf	(RFM70_Initialize@j)
  4514                           opt subtitle "HI-TECH Software Omniscient Code Generator (Lite mode) build 49521"
  4515  0266                     l3756:	
  4516  0266  300B               	movlw	(0Bh)
  4517  0267  0251               	subwf	(RFM70_Initialize@j),w
  4518  0268  1C03               	skipc
  4519  0269  2A6B               	goto	u3341
  4520  026A  2A6C               	goto	u3340
  4521  026B                     u3341:
  4522  026B  2A6E               	goto	l3760
  4523  026C                     u3340:
  4524  026C  2A8C               	goto	l3766
  4525                           opt subtitle "HI-TECH Software Omniscient Code Generator (Lite mode) build 49521"
  4526  026D                     l3758:	
  4527  026D  2A8C               	goto	l3766
  4528                           opt subtitle "HI-TECH Software Omniscient Code Generator (Lite mode) build 49521"
  4529                           
  4530  026E                     l351:	
  4531                           opt subtitle "HI-TECH Software Omniscient Code Generator (Lite mode) build 49521"
  4532                           
  4533  026E                     l3760:	
  4534                           opt subtitle "HI-TECH Software Omniscient Code Generator (Lite mode) build 49521"
  4535                           
  4536  026E  0851               	movf	(RFM70_Initialize@j),w
  4537  026F  3E78               	addlw	low(_Bank1_Reg14|8000h)
  4538  0270  0084               	movwf	fsr0
  4539  0271  3090               	movlw	high(_Bank1_Reg14|8000h)
  4540  0272  1803               	skipnc
  4541  0273  3E01               	addlw	1
  4542  0274  00FF               	movwf	btemp+1
  4543  0275  160A  118A  2000   	fcall	stringtab
              120A  118A         
  4544  027A  00BD               	movwf	(??_RFM70_Initialize+0)+0
  4545  027B  0851               	movf	(RFM70_Initialize@j),w
  4546  027C  3E44               	addlw	RFM70_Initialize@WriteArr&0ffh
  4547  027D  0084               	movwf	fsr0
  4548  027E  083D               	movf	(??_RFM70_Initialize+0)+0,w
  4549  027F  1383               	bcf	status, 7	;select IRP bank0
  4550  0280  0080               	movwf	indf
  4551                           opt subtitle "HI-TECH Software Omniscient Code Generator (Lite mode) build 49521"
  4552                           
  4553  0281                     l3762:	
  4554  0281  3001               	movlw	(01h)
  4555  0282  00BD               	movwf	(??_RFM70_Initialize+0)+0
  4556  0283  083D               	movf	(??_RFM70_Initialize+0)+0,w
  4557  0284  07D1               	addwf	(RFM70_Initialize@j),f
  4558                           opt subtitle "HI-TECH Software Omniscient Code Generator (Lite mode) build 49521"
  4559  0285                     l3764:	
  4560  0285  300B               	movlw	(0Bh)
  4561  0286  0251               	subwf	(RFM70_Initialize@j),w
  4562  0287  1C03               	skipc
  4563  0288  2A8A               	goto	u3351
  4564  0289  2A8B               	goto	u3350
  4565  028A                     u3351:
  4566  028A  2A6E               	goto	l3760
  4567  028B                     u3350:
  4568  028B  2A8C               	goto	l3766
  4569                           opt subtitle "HI-TECH Software Omniscient Code Generator (Lite mode) build 49521"
  4570  028C                     l352:	
  4571                           opt subtitle "HI-TECH Software Omniscient Code Generator (Lite mode) build 49521"
  4572                           
  4573  028C                     l3766:	
  4574                           opt subtitle "HI-TECH Software Omniscient Code Generator (Lite mode) build 49521"
  4575                           
  4576  028C  3044               	movlw	(RFM70_Initialize@WriteArr)&0ffh
  4577  028D  00BD               	movwf	(??_RFM70_Initialize+0)+0
  4578  028E  083D               	movf	(??_RFM70_Initialize+0)+0,w
  4579  028F  00B7               	movwf	(?_SPI_Write_Buf)
  4580  0290  300B               	movlw	(0Bh)
  4581  0291  00BE               	movwf	(??_RFM70_Initialize+1)+0
  4582  0292  083E               	movf	(??_RFM70_Initialize+1)+0,w
  4583  0293  00B8               	movwf	0+(?_SPI_Write_Buf)+01h
  4584  0294  302E               	movlw	(02Eh)
  4585  0295  120A  158A  2236   	fcall	_SPI_Write_Buf
              120A  118A         
  4586                           opt subtitle "HI-TECH Software Omniscient Code Generator (Lite mode) build 49521"
  4587                           
  4588  029A                     l3768:	
  4589                           opt subtitle "HI-TECH Software Omniscient Code Generator (Lite mode) build 49521"
  4590  029A  1283               	bcf	status, 5	;RP0=0, select bank0
  4591  029B  1303               	bcf	status, 6	;RP1=0, select bank0
  4592  029C  01D1               	clrf	(RFM70_Initialize@j)
  4593                           opt subtitle "HI-TECH Software Omniscient Code Generator (Lite mode) build 49521"
  4594  029D                     l3770:	
  4595  029D  3004               	movlw	(04h)
  4596  029E  0251               	subwf	(RFM70_Initialize@j),w
  4597  029F  1C03               	skipc
  4598  02A0  2AA2               	goto	u3361
  4599  02A1  2AA3               	goto	u3360
  4600  02A2                     u3361:
  4601  02A2  2AA5               	goto	l3774
  4602  02A3                     u3360:
  4603  02A3  2AE8               	goto	l3780
  4604                           opt subtitle "HI-TECH Software Omniscient Code Generator (Lite mode) build 49521"
  4605  02A4                     l3772:	
  4606  02A4  2AE8               	goto	l3780
  4607                           opt subtitle "HI-TECH Software Omniscient Code Generator (Lite mode) build 49521"
  4608                           
  4609  02A5                     l353:	
  4610                           opt subtitle "HI-TECH Software Omniscient Code Generator (Lite mode) build 49521"
  4611  02A5                     l3774:	
  4612                           opt subtitle "HI-TECH Software Omniscient Code Generator (Lite mode) build 49521"
  4613  02A5  3022               	movlw	low(_Bank1_Reg0_13|8000h+010h)
  4614  02A6  0084               	movwf	fsr0
  4615  02A7  3090               	movlw	high(_Bank1_Reg0_13|8000h+010h)
  4616  02A8  00FF               	movwf	btemp+1
  4617  02A9  160A  118A  2000   	fcall	stringtab
              120A  118A         
  4618  02AE  00BD               	movwf	((??_RFM70_Initialize+0)+0)
  4619  02AF  160A  118A  2000   	fcall	stringtab
              120A  118A         
  4620  02B4  00BE               	movwf	((??_RFM70_Initialize+0)+0+1)
  4621  02B5  160A  118A  2000   	fcall	stringtab
              120A  118A         
  4622  02BA  00BF               	movwf	((??_RFM70_Initialize+0)+0+2)
  4623  02BB  160A  118A  2000   	fcall	stringtab
              120A  118A         
  4624  02C0  00C0               	movwf	((??_RFM70_Initialize+0)+0+3)
  4625  02C1  0851               	movf	(RFM70_Initialize@j),w
  4626  02C2  00C1               	movwf	(??_RFM70_Initialize+4)+0
  4627  02C3  3002               	movlw	(03h)-1
  4628  02C4                     u3375:
  4629  02C4  1003               	clrc
  4630  02C5  0DC1               	rlf	(??_RFM70_Initialize+4)+0,f
  4631  02C6  3EFF               	addlw	-1
  4632  02C7  1D03               	skipz
  4633  02C8  2AC4               	goto	u3375
  4634  02C9  1003               	clrc
  4635  02CA  0D41               	rlf	(??_RFM70_Initialize+4)+0,w
  4636  02CB  3E01               	addlw	1
  4637  02CC  2AD2               	goto	u3380
  4638  02CD                     u3385:
  4639  02CD  1003               	clrc
  4640  02CE  0CC0               	rrf	(??_RFM70_Initialize+0)+3,f
  4641  02CF  0CBF               	rrf	(??_RFM70_Initialize+0)+2,f
  4642  02D0  0CBE               	rrf	(??_RFM70_Initialize+0)+1,f
  4643  02D1  0CBD               	rrf	(??_RFM70_Initialize+0)+0,f
  4644  02D2                     u3380:
  4645  02D2  3EFF               	addlw	-1
  4646  02D3  1D03               	skipz
  4647  02D4  2ACD               	goto	u3385
  4648  02D5  083D               	movf	0+(??_RFM70_Initialize+0)+0,w
  4649  02D6  00C2               	movwf	(??_RFM70_Initialize+5)+0
  4650  02D7  0851               	movf	(RFM70_Initialize@j),w
  4651  02D8  3E44               	addlw	RFM70_Initialize@WriteArr&0ffh
  4652  02D9  0084               	movwf	fsr0
  4653  02DA  0842               	movf	(??_RFM70_Initialize+5)+0,w
  4654  02DB  1383               	bcf	status, 7	;select IRP bank0
  4655  02DC  0080               	movwf	indf
  4656                           opt subtitle "HI-TECH Software Omniscient Code Generator (Lite mode) build 49521"
  4657                           
  4658  02DD                     l3776:	
  4659  02DD  3001               	movlw	(01h)
  4660  02DE  00BD               	movwf	(??_RFM70_Initialize+0)+0
  4661  02DF  083D               	movf	(??_RFM70_Initialize+0)+0,w
  4662  02E0  07D1               	addwf	(RFM70_Initialize@j),f
  4663                           opt subtitle "HI-TECH Software Omniscient Code Generator (Lite mode) build 49521"
  4664  02E1                     l3778:	
  4665  02E1  3004               	movlw	(04h)
  4666  02E2  0251               	subwf	(RFM70_Initialize@j),w
  4667  02E3  1C03               	skipc
  4668  02E4  2AE6               	goto	u3391
  4669  02E5  2AE7               	goto	u3390
  4670  02E6                     u3391:
  4671  02E6  2AA5               	goto	l3774
  4672  02E7                     u3390:
  4673  02E7  2AE8               	goto	l3780
  4674                           opt subtitle "HI-TECH Software Omniscient Code Generator (Lite mode) build 49521"
  4675  02E8                     l354:	
  4676                           opt subtitle "HI-TECH Software Omniscient Code Generator (Lite mode) build 49521"
  4677                           
  4678  02E8                     l3780:	
  4679                           opt subtitle "HI-TECH Software Omniscient Code Generator (Lite mode) build 49521"
  4680  02E8  0844               	movf	(RFM70_Initialize@WriteArr),w
  4681  02E9  3806               	iorlw	06h
  4682  02EA  00BD               	movwf	(??_RFM70_Initialize+0)+0
  4683  02EB  083D               	movf	(??_RFM70_Initialize+0)+0,w
  4684  02EC  00C4               	movwf	(RFM70_Initialize@WriteArr)
  4685                           opt subtitle "HI-TECH Software Omniscient Code Generator (Lite mode) build 49521"
  4686                           
  4687  02ED                     l3782:	
  4688                           opt subtitle "HI-TECH Software Omniscient Code Generator (Lite mode) build 49521"
  4689  02ED  3044               	movlw	(RFM70_Initialize@WriteArr)&0ffh
  4690  02EE  00BD               	movwf	(??_RFM70_Initialize+0)+0
  4691  02EF  083D               	movf	(??_RFM70_Initialize+0)+0,w
  4692  02F0  00B7               	movwf	(?_SPI_Write_Buf)
  4693  02F1  3004               	movlw	(04h)
  4694  02F2  00BE               	movwf	(??_RFM70_Initialize+1)+0
  4695  02F3  083E               	movf	(??_RFM70_Initialize+1)+0,w
  4696  02F4  00B8               	movwf	0+(?_SPI_Write_Buf)+01h
  4697  02F5  3024               	movlw	(024h)
  4698  02F6  120A  158A  2236   	fcall	_SPI_Write_Buf
              120A  118A         
  4699                           opt subtitle "HI-TECH Software Omniscient Code Generator (Lite mode) build 49521"
  4700                           
  4701  02FB                     l3784:	
  4702                           opt subtitle "HI-TECH Software Omniscient Code Generator (Lite mode) build 49521"
  4703  02FB  1283               	bcf	status, 5	;RP0=0, select bank0
  4704  02FC  1303               	bcf	status, 6	;RP1=0, select bank0
  4705  02FD  0844               	movf	(RFM70_Initialize@WriteArr),w
  4706  02FE  39F9               	andlw	0F9h
  4707  02FF  00BD               	movwf	(??_RFM70_Initialize+0)+0
  4708  0300  083D               	movf	(??_RFM70_Initialize+0)+0,w
  4709  0301  00C4               	movwf	(RFM70_Initialize@WriteArr)
  4710                           opt subtitle "HI-TECH Software Omniscient Code Generator (Lite mode) build 49521"
  4711                           
  4712  0302  3044               	movlw	(RFM70_Initialize@WriteArr)&0ffh
  4713  0303  00BD               	movwf	(??_RFM70_Initialize+0)+0
  4714  0304  083D               	movf	(??_RFM70_Initialize+0)+0,w
  4715  0305  00B7               	movwf	(?_SPI_Write_Buf)
  4716  0306  3004               	movlw	(04h)
  4717  0307  00BE               	movwf	(??_RFM70_Initialize+1)+0
  4718  0308  083E               	movf	(??_RFM70_Initialize+1)+0,w
  4719  0309  00B8               	movwf	0+(?_SPI_Write_Buf)+01h
  4720  030A  3024               	movlw	(024h)
  4721  030B  120A  158A  2236   	fcall	_SPI_Write_Buf
              120A  118A         
  4722                           opt subtitle "HI-TECH Software Omniscient Code Generator (Lite mode) build 49521"
  4723                           
  4724  0310                     l3786:	
  4725                           opt subtitle "HI-TECH Software Omniscient Code Generator (Lite mode) build 49521"
  4726                           
  4727  0310  3082               movlw	130
  4728  0311  1283               	bcf	status, 5	;RP0=0, select bank0
  4729  0312  1303               	bcf	status, 6	;RP1=0, select bank0
  4730  0313  00BE               movwf	((??_RFM70_Initialize+0)+0+1),f
  4731  0314  30DD               	movlw	221
  4732  0315  00BD               movwf	((??_RFM70_Initialize+0)+0),f
  4733  0316                     u3767:
  4734  0316  0BBD               	decfsz	((??_RFM70_Initialize+0)+0),f
  4735  0317  2B16               	goto	u3767
  4736  0318  0BBE               	decfsz	((??_RFM70_Initialize+0)+0+1),f
  4737  0319  2B16               	goto	u3767
  4738  031A  2B1B               	nop2
  4739                           opt subtitle "HI-TECH Software Omniscient Code Generator (Lite mode) build 49521"
  4740                           
  4741                           opt pagewidth 120
  4742                           
  4743  031B                     l3788:	
  4744                           opt subtitle "HI-TECH Software Omniscient Code Generator (Lite mode) build 49521"
  4745  031B  3000               	movlw	(0)
  4746  031C  120A  158A  22E2   	fcall	_SwitchCFG
              120A  118A         
  4747                           opt subtitle "HI-TECH Software Omniscient Code Generator (Lite mode) build 49521"
  4748                           
  4749  0321                     l3790:	
  4750                           opt subtitle "HI-TECH Software Omniscient Code Generator (Lite mode) build 49521"
  4751  0321  1283               	bcf	status, 5	;RP0=0, select bank0
  4752  0322  1303               	bcf	status, 6	;RP1=0, select bank0
  4753  0323  1107               	bcf	(7),2	;volatile
  4754                           opt subtitle "HI-TECH Software Omniscient Code Generator (Lite mode) build 49521"
  4755                           
  4756  0324                     l355:	
  4757  0324  0008               	return
  4758                           opt subtitle "HI-TECH Software Omniscient Code Generator (Lite mode) build 49521"
  4759                           
  4760  0325                     	__end_of_RFM70_Initialize:
  4761                           opt subtitle "HI-TECH Software Omniscient Code Generator (Lite mode) build 49521"
  4762                           
  4763                           opt pagewidth 120
  4764                           
  4765                           	opt lm
  4766                           
  4767                           	processor	16F707
  4768                           clrc	macro
  4769                           	bcf	3,0
  4770                           	endm
  4771                           clrz	macro
  4772                           	bcf	3,2
  4773                           	endm
  4774                           setc	macro
  4775                           	bsf	3,0
  4776                           	endm
  4777                           setz	macro
  4778                           	bsf	3,2
  4779                           	endm
  4780                           skipc	macro
  4781                           	btfss	3,0
  4782                           	endm
  4783                           skipz	macro
  4784                           	btfss	3,2
  4785                           	endm
  4786                           skipnc	macro
  4787                           	btfsc	3,0
  4788                           	endm
  4789                           skipnz	macro
  4790                           	btfsc	3,2
  4791                           	endm
  4792                           indf	equ	0
  4793                           indf0	equ	0
  4794                           pc	equ	2
  4795  0A8B                     __ptext1036:	;psect for function _adcReadTemp
  4796                           opt subtitle "HI-TECH Software Omniscient Code Generator (Lite mode) build 49521"
  4797                           
  4798                           opt pagewidth 120
  4799                           
  4800  002B                     	__size_of_adcReadTemp	equ	__end_of_adcReadTemp-_adcReadTemp
  4801                           opt subtitle "HI-TECH Software Omniscient Code Generator (Lite mode) build 49521"
  4802  0A8B                     _adcReadTemp:	
  4803                           opt subtitle "HI-TECH Software Omniscient Code Generator (Lite mode) build 49521"
  4804                           
  4805                           opt pagewidth 120
  4806                           
  4807  0A8B                     l2746:	
  4808                           opt subtitle "HI-TECH Software Omniscient Code Generator (Lite mode) build 49521"
  4809                           
  4810  0A8B  1283               	bcf	status, 5	;RP0=0, select bank0
  4811  0A8C  1303               	bcf	status, 6	;RP1=0, select bank0
  4812  0A8D  081F               	movf	(31),w	;volatile
  4813  0A8E  39C3               	andlw	not (((1<<4)-1)<<2)
  4814  0A8F  381C               	iorlw	(07h & ((1<<4)-1))<<2
  4815  0A90  009F               	movwf	(31)	;volatile
  4816                           opt subtitle "HI-TECH Software Omniscient Code Generator (Lite mode) build 49521"
  4817                           
  4818  0A91  1683               	bsf	status, 5	;RP0=1, select bank1
  4819  0A92  1303               	bcf	status, 6	;RP1=0, select bank1
  4820  0A93  081D               	movf	(157)^080h,w	;volatile
  4821  0A94  39FC               	andlw	not (((1<<2)-1)<<0)
  4822  0A95  3801               	iorlw	(01h & ((1<<2)-1))<<0
  4823  0A96  009D               	movwf	(157)^080h	;volatile
  4824                           opt subtitle "HI-TECH Software Omniscient Code Generator (Lite mode) build 49521"
  4825                           
  4826  0A97                     l2748:	
  4827                           opt subtitle "HI-TECH Software Omniscient Code Generator (Lite mode) build 49521"
  4828  0A97  1283               	bcf	status, 5	;RP0=0, select bank0
  4829  0A98  1303               	bcf	status, 6	;RP1=0, select bank0
  4830  0A99  141F               	bsf	(31),0	;volatile
  4831                           opt subtitle "HI-TECH Software Omniscient Code Generator (Lite mode) build 49521"
  4832                           
  4833  0A9A                     l2750:	
  4834                           opt subtitle "HI-TECH Software Omniscient Code Generator (Lite mode) build 49521"
  4835  0A9A  1408               	bsf	(8),0	;volatile
  4836                           opt subtitle "HI-TECH Software Omniscient Code Generator (Lite mode) build 49521"
  4837                           
  4838  0A9B                     l2752:	
  4839                           opt subtitle "HI-TECH Software Omniscient Code Generator (Lite mode) build 49521"
  4840                           
  4841  0A9B  300D               movlw	13
  4842  0A9C  00B5               movwf	((??_adcReadTemp+0)+0+1),f
  4843  0A9D  30FB               	movlw	251
  4844  0A9E  00B4               movwf	((??_adcReadTemp+0)+0),f
  4845  0A9F                     u3777:
  4846  0A9F  0BB4               	decfsz	((??_adcReadTemp+0)+0),f
  4847  0AA0  2A9F               	goto	u3777
  4848  0AA1  0BB5               	decfsz	((??_adcReadTemp+0)+0+1),f
  4849  0AA2  2A9F               	goto	u3777
  4850  0AA3  2AA4               	nop2
  4851                           opt subtitle "HI-TECH Software Omniscient Code Generator (Lite mode) build 49521"
  4852                           
  4853                           opt pagewidth 120
  4854                           
  4855  0AA4                     l2754:	
  4856                           opt subtitle "HI-TECH Software Omniscient Code Generator (Lite mode) build 49521"
  4857  0AA4  1283               	bcf	status, 5	;RP0=0, select bank0
  4858  0AA5  1303               	bcf	status, 6	;RP1=0, select bank0
  4859  0AA6  149F               	bsf	(31),1	;volatile
  4860                           opt subtitle "HI-TECH Software Omniscient Code Generator (Lite mode) build 49521"
  4861                           
  4862  0AA7  2AA8               	goto	l189
  4863                           opt subtitle "HI-TECH Software Omniscient Code Generator (Lite mode) build 49521"
  4864  0AA8                     l190:	
  4865                           opt subtitle "HI-TECH Software Omniscient Code Generator (Lite mode) build 49521"
  4866  0AA8                     l189:	
  4867  0AA8  189F               	btfsc	(31),1	;volatile
  4868  0AA9  2AAB               	goto	u2131
  4869  0AAA  2AAC               	goto	u2130
  4870  0AAB                     u2131:
  4871  0AAB  2AA8               	goto	l189
  4872  0AAC                     u2130:
  4873  0AAC  2AAD               	goto	l2756
  4874                           opt subtitle "HI-TECH Software Omniscient Code Generator (Lite mode) build 49521"
  4875  0AAD                     l191:	
  4876                           opt subtitle "HI-TECH Software Omniscient Code Generator (Lite mode) build 49521"
  4877                           
  4878  0AAD                     l2756:	
  4879                           opt subtitle "HI-TECH Software Omniscient Code Generator (Lite mode) build 49521"
  4880  0AAD  081E               	movf	(30),w	;volatile
  4881  0AAE  00B4               	movwf	(??_adcReadTemp+0)+0
  4882  0AAF  0834               	movf	(??_adcReadTemp+0)+0,w
  4883  0AB0  00B6               	movwf	(adcReadTemp@value)
  4884                           opt subtitle "HI-TECH Software Omniscient Code Generator (Lite mode) build 49521"
  4885                           
  4886  0AB1                     l2758:	
  4887                           opt subtitle "HI-TECH Software Omniscient Code Generator (Lite mode) build 49521"
  4888  0AB1  101F               	bcf	(31),0	;volatile
  4889                           opt subtitle "HI-TECH Software Omniscient Code Generator (Lite mode) build 49521"
  4890                           
  4891  0AB2                     l2760:	
  4892                           opt subtitle "HI-TECH Software Omniscient Code Generator (Lite mode) build 49521"
  4893  0AB2  1008               	bcf	(8),0	;volatile
  4894                           opt subtitle "HI-TECH Software Omniscient Code Generator (Lite mode) build 49521"
  4895                           
  4896  0AB3  0836               	movf	(adcReadTemp@value),w
  4897  0AB4  2AB5               	goto	l192
  4898                           opt subtitle "HI-TECH Software Omniscient Code Generator (Lite mode) build 49521"
  4899  0AB5                     l2762:	
  4900                           opt subtitle "HI-TECH Software Omniscient Code Generator (Lite mode) build 49521"
  4901                           
  4902  0AB5                     l192:	
  4903  0AB5  0008               	return
  4904                           opt subtitle "HI-TECH Software Omniscient Code Generator (Lite mode) build 49521"
  4905                           
  4906  0AB6                     	__end_of_adcReadTemp:
  4907                           opt subtitle "HI-TECH Software Omniscient Code Generator (Lite mode) build 49521"
  4908                           
  4909                           opt pagewidth 120
  4910                           
  4911                           	opt lm
  4912                           
  4913                           	processor	16F707
  4914                           clrc	macro
  4915                           	bcf	3,0
  4916                           	endm
  4917                           clrz	macro
  4918                           	bcf	3,2
  4919                           	endm
  4920                           setc	macro
  4921                           	bsf	3,0
  4922                           	endm
  4923                           setz	macro
  4924                           	bsf	3,2
  4925                           	endm
  4926                           skipc	macro
  4927                           	btfss	3,0
  4928                           	endm
  4929                           skipz	macro
  4930                           	btfss	3,2
  4931                           	endm
  4932                           skipnc	macro
  4933                           	btfsc	3,0
  4934                           	endm
  4935                           skipnz	macro
  4936                           	btfsc	3,2
  4937                           	endm
  4938                           indf	equ	0
  4939                           indf0	equ	0
  4940                           pc	equ	2
  4941  09E3                     __ptext1037:	;psect for function _adcReadVsupercap
  4942                           opt subtitle "HI-TECH Software Omniscient Code Generator (Lite mode) build 49521"
  4943                           
  4944                           opt pagewidth 120
  4945                           
  4946  0029                     	__size_of_adcReadVsupercap	equ	__end_of_adcReadVsupercap-_adcReadVsupercap
  4947                           opt subtitle "HI-TECH Software Omniscient Code Generator (Lite mode) build 49521"
  4948  09E3                     _adcReadVsupercap:	
  4949                           opt subtitle "HI-TECH Software Omniscient Code Generator (Lite mode) build 49521"
  4950                           
  4951                           opt pagewidth 120
  4952                           
  4953  09E3                     l2764:	
  4954                           opt subtitle "HI-TECH Software Omniscient Code Generator (Lite mode) build 49521"
  4955                           
  4956  09E3  1283               	bcf	status, 5	;RP0=0, select bank0
  4957  09E4  1303               	bcf	status, 6	;RP1=0, select bank0
  4958  09E5  081F               	movf	(31),w	;volatile
  4959  09E6  39C3               	andlw	not (((1<<4)-1)<<2)
  4960  09E7  3818               	iorlw	(06h & ((1<<4)-1))<<2
  4961  09E8  009F               	movwf	(31)	;volatile
  4962                           opt subtitle "HI-TECH Software Omniscient Code Generator (Lite mode) build 49521"
  4963                           
  4964  09E9  1683               	bsf	status, 5	;RP0=1, select bank1
  4965  09EA  1303               	bcf	status, 6	;RP1=0, select bank1
  4966  09EB  081D               	movf	(157)^080h,w	;volatile
  4967  09EC  39FC               	andlw	not (((1<<2)-1)<<0)
  4968  09ED  3802               	iorlw	(02h & ((1<<2)-1))<<0
  4969  09EE  009D               	movwf	(157)^080h	;volatile
  4970                           opt subtitle "HI-TECH Software Omniscient Code Generator (Lite mode) build 49521"
  4971                           
  4972  09EF                     l2766:	
  4973                           opt subtitle "HI-TECH Software Omniscient Code Generator (Lite mode) build 49521"
  4974  09EF  1283               	bcf	status, 5	;RP0=0, select bank0
  4975  09F0  1303               	bcf	status, 6	;RP1=0, select bank0
  4976  09F1  141F               	bsf	(31),0	;volatile
  4977                           opt subtitle "HI-TECH Software Omniscient Code Generator (Lite mode) build 49521"
  4978                           
  4979  09F2                     l2768:	
  4980                           opt subtitle "HI-TECH Software Omniscient Code Generator (Lite mode) build 49521"
  4981                           
  4982  09F2  3003               movlw	3
  4983  09F3  00B5               movwf	((??_adcReadVsupercap+0)+0+1),f
  4984  09F4  3097               	movlw	151
  4985  09F5  00B4               movwf	((??_adcReadVsupercap+0)+0),f
  4986  09F6                     u3787:
  4987  09F6  0BB4               	decfsz	((??_adcReadVsupercap+0)+0),f
  4988  09F7  29F6               	goto	u3787
  4989  09F8  0BB5               	decfsz	((??_adcReadVsupercap+0)+0+1),f
  4990  09F9  29F6               	goto	u3787
  4991  09FA  29FB               	nop2
  4992                           opt subtitle "HI-TECH Software Omniscient Code Generator (Lite mode) build 49521"
  4993                           
  4994                           opt pagewidth 120
  4995                           
  4996  09FB                     l2770:	
  4997                           opt subtitle "HI-TECH Software Omniscient Code Generator (Lite mode) build 49521"
  4998  09FB  1283               	bcf	status, 5	;RP0=0, select bank0
  4999  09FC  1303               	bcf	status, 6	;RP1=0, select bank0
  5000  09FD  149F               	bsf	(31),1	;volatile
  5001                           opt subtitle "HI-TECH Software Omniscient Code Generator (Lite mode) build 49521"
  5002                           
  5003  09FE  29FF               	goto	l201
  5004                           opt subtitle "HI-TECH Software Omniscient Code Generator (Lite mode) build 49521"
  5005  09FF                     l202:	
  5006                           opt subtitle "HI-TECH Software Omniscient Code Generator (Lite mode) build 49521"
  5007  09FF                     l201:	
  5008  09FF  189F               	btfsc	(31),1	;volatile
  5009  0A00  2A02               	goto	u2141
  5010  0A01  2A03               	goto	u2140
  5011  0A02                     u2141:
  5012  0A02  29FF               	goto	l201
  5013  0A03                     u2140:
  5014  0A03  2A04               	goto	l2772
  5015                           opt subtitle "HI-TECH Software Omniscient Code Generator (Lite mode) build 49521"
  5016  0A04                     l203:	
  5017                           opt subtitle "HI-TECH Software Omniscient Code Generator (Lite mode) build 49521"
  5018                           
  5019  0A04                     l2772:	
  5020                           opt subtitle "HI-TECH Software Omniscient Code Generator (Lite mode) build 49521"
  5021  0A04  081E               	movf	(30),w	;volatile
  5022  0A05  00B4               	movwf	(??_adcReadVsupercap+0)+0
  5023  0A06  0834               	movf	(??_adcReadVsupercap+0)+0,w
  5024  0A07  00B6               	movwf	(adcReadVsupercap@value)
  5025                           opt subtitle "HI-TECH Software Omniscient Code Generator (Lite mode) build 49521"
  5026                           
  5027  0A08                     l2774:	
  5028                           opt subtitle "HI-TECH Software Omniscient Code Generator (Lite mode) build 49521"
  5029  0A08  101F               	bcf	(31),0	;volatile
  5030                           opt subtitle "HI-TECH Software Omniscient Code Generator (Lite mode) build 49521"
  5031                           
  5032  0A09  0836               	movf	(adcReadVsupercap@value),w
  5033  0A0A  2A0B               	goto	l204
  5034                           opt subtitle "HI-TECH Software Omniscient Code Generator (Lite mode) build 49521"
  5035  0A0B                     l2776:	
  5036                           opt subtitle "HI-TECH Software Omniscient Code Generator (Lite mode) build 49521"
  5037                           
  5038  0A0B                     l204:	
  5039  0A0B  0008               	return
  5040                           opt subtitle "HI-TECH Software Omniscient Code Generator (Lite mode) build 49521"
  5041                           
  5042  0A0C                     	__end_of_adcReadVsupercap:
  5043                           opt subtitle "HI-TECH Software Omniscient Code Generator (Lite mode) build 49521"
  5044                           
  5045                           opt pagewidth 120
  5046                           
  5047                           	opt lm
  5048                           
  5049                           	processor	16F707
  5050                           clrc	macro
  5051                           	bcf	3,0
  5052                           	endm
  5053                           clrz	macro
  5054                           	bcf	3,2
  5055                           	endm
  5056                           setc	macro
  5057                           	bsf	3,0
  5058                           	endm
  5059                           setz	macro
  5060                           	bsf	3,2
  5061                           	endm
  5062                           skipc	macro
  5063                           	btfss	3,0
  5064                           	endm
  5065                           skipz	macro
  5066                           	btfss	3,2
  5067                           	endm
  5068                           skipnc	macro
  5069                           	btfsc	3,0
  5070                           	endm
  5071                           skipnz	macro
  5072                           	btfsc	3,2
  5073                           	endm
  5074                           indf	equ	0
  5075                           indf0	equ	0
  5076                           pc	equ	2
  5077                           pcl	equ	2
  5078                           status	equ	3
  5079                           fsr	equ	4
  5080                           fsr0	equ	4
  5081                           c	equ	1
  5082                           z	equ	0
  5083                           pclath	equ	10
  5084                           # 46 "/Applications/microchip/xc8/v1.12/include/pic16f707.h"
  5085                           INDF equ 00h ;# 
  5086                           # 52 "/Applications/microchip/xc8/v1.12/include/pic16f707.h"
  5087                           TMR0 equ 01h ;# 
  5088  0D76                     __ptext1038:	;psect for function _Send_Packet
  5089                           opt subtitle "HI-TECH Software Omniscient Code Generator (Lite mode) build 49521"
  5090                           
  5091                           opt pagewidth 120
  5092                           
  5093  00DC                     	__size_of_Send_Packet	equ	__end_of_Send_Packet-_Send_Packet
  5094                           opt subtitle "HI-TECH Software Omniscient Code Generator (Lite mode) build 49521"
  5095  0D76                     _Send_Packet:	
  5096                           opt subtitle "HI-TECH Software Omniscient Code Generator (Lite mode) build 49521"
  5097                           
  5098                           opt pagewidth 120
  5099                           
  5100  0D76  1683               	bsf	status, 5	;RP0=1, select bank1
  5101  0D77  1303               	bcf	status, 6	;RP1=0, select bank1
  5102  0D78  00A5               	movwf	(Send_Packet@type)^080h
  5103                           opt subtitle "HI-TECH Software Omniscient Code Generator (Lite mode) build 49521"
  5104  0D79                     l3792:	
  5105                           opt subtitle "HI-TECH Software Omniscient Code Generator (Lite mode) build 49521"
  5106                           
  5107  0D79  120A  158A  220C   	fcall	_SwitchToTxMode
              120A  158A         
  5108                           opt subtitle "HI-TECH Software Omniscient Code Generator (Lite mode) build 49521"
  5109                           
  5110  0D7E                     l3794:	
  5111                           opt subtitle "HI-TECH Software Omniscient Code Generator (Lite mode) build 49521"
  5112  0D7E  3017               	movlw	(017h)
  5113  0D7F  120A  158A  2167   	fcall	_SPI_Read_Reg
              120A  158A         
  5114  0D84  1683               	bsf	status, 5	;RP0=1, select bank1
  5115  0D85  1303               	bcf	status, 6	;RP1=0, select bank1
  5116  0D86  00A2               	movwf	(??_Send_Packet+0)^080h+0
  5117  0D87  0822               	movf	(??_Send_Packet+0)^080h+0,w
  5118  0D88  00A6               	movwf	(Send_Packet@fifo_sta)^080h
  5119                           opt subtitle "HI-TECH Software Omniscient Code Generator (Lite mode) build 49521"
  5120                           
  5121  0D89                     l3796:	
  5122                           opt subtitle "HI-TECH Software Omniscient Code Generator (Lite mode) build 49521"
  5123  0D89  1AA6               	btfsc	(Send_Packet@fifo_sta)^080h,(5)&7
  5124  0D8A  2D8C               	goto	u3401
  5125  0D8B  2D8D               	goto	u3400
  5126  0D8C                     u3401:
  5127  0D8C  2E51               	goto	l254
  5128  0D8D                     u3400:
  5129                           opt subtitle "HI-TECH Software Omniscient Code Generator (Lite mode) build 49521"
  5130                           
  5131  0D8D                     l3798:	
  5132                           opt subtitle "HI-TECH Software Omniscient Code Generator (Lite mode) build 49521"
  5133                           
  5134  0D8D  308D               	movlw	low(STR_8|8000h)
  5135  0D8E  1283               	bcf	status, 5	;RP0=0, select bank0
  5136  0D8F  1303               	bcf	status, 6	;RP1=0, select bank0
  5137  0D90  00C2               	movwf	(?_printf)
  5138  0D91  3091               	movlw	high(STR_8|8000h)
  5139  0D92  00C3               	movwf	((?_printf))+1
  5140  0D93  120A  118A  2610   	fcall	_printf
              120A  158A         
  5141                           opt subtitle "HI-TECH Software Omniscient Code Generator (Lite mode) build 49521"
  5142                           
  5143  0D98                     l3800:	
  5144                           opt subtitle "HI-TECH Software Omniscient Code Generator (Lite mode) build 49521"
  5145  0D98  1683               	bsf	status, 5	;RP0=1, select bank1
  5146  0D99  1303               	bcf	status, 6	;RP1=0, select bank1
  5147  0D9A  01A7               	clrf	(Send_Packet@i)^080h
  5148  0D9B  2DC3               	goto	l3806
  5149                           opt subtitle "HI-TECH Software Omniscient Code Generator (Lite mode) build 49521"
  5150  0D9C                     l247:	
  5151                           opt subtitle "HI-TECH Software Omniscient Code Generator (Lite mode) build 49521"
  5152                           
  5153  0D9C                     l3802:	
  5154                           opt subtitle "HI-TECH Software Omniscient Code Generator (Lite mode) build 49521"
  5155  0D9C  309C               	movlw	low(STR_9|8000h)
  5156  0D9D  1283               	bcf	status, 5	;RP0=0, select bank0
  5157  0D9E  1303               	bcf	status, 6	;RP1=0, select bank0
  5158  0D9F  00C2               	movwf	(?_printf)
  5159  0DA0  3091               	movlw	high(STR_9|8000h)
  5160  0DA1  00C3               	movwf	((?_printf))+1
  5161  0DA2  1683               	bsf	status, 5	;RP0=1, select bank1
  5162  0DA3  1303               	bcf	status, 6	;RP1=0, select bank1
  5163  0DA4  0827               	movf	(Send_Packet@i)^080h,w
  5164  0DA5  0720               	addwf	(Send_Packet@pbuf)^080h,w
  5165  0DA6  00A2               	movwf	(??_Send_Packet+0)^080h+0
  5166  0DA7  0822               	movf	0+(??_Send_Packet+0)^080h+0,w
  5167  0DA8  0084               	movwf	fsr0
  5168  0DA9  1383               	bcf	status, 7	;select IRP bank0
  5169  0DAA  0800               	movf	indf,w
  5170  0DAB  00A3               	movwf	(??_Send_Packet+1)^080h+0+0
  5171  0DAC  01A4               	clrf	(??_Send_Packet+1)^080h+0+1
  5172  0DAD  0823               	movf	0+(??_Send_Packet+1)^080h+0,w
  5173  0DAE  1283               	bcf	status, 5	;RP0=0, select bank0
  5174  0DAF  1303               	bcf	status, 6	;RP1=0, select bank0
  5175  0DB0  00C4               	movwf	0+(?_printf)+02h
  5176  0DB1  1683               	bsf	status, 5	;RP0=1, select bank1
  5177  0DB2  1303               	bcf	status, 6	;RP1=0, select bank1
  5178  0DB3  0824               	movf	1+(??_Send_Packet+1)^080h+0,w
  5179  0DB4  1283               	bcf	status, 5	;RP0=0, select bank0
  5180  0DB5  1303               	bcf	status, 6	;RP1=0, select bank0
  5181  0DB6  00C5               	movwf	1+(?_printf)+02h
  5182  0DB7  120A  118A  2610   	fcall	_printf
              120A  158A         
  5183                           opt subtitle "HI-TECH Software Omniscient Code Generator (Lite mode) build 49521"
  5184                           
  5185  0DBC                     l3804:	
  5186  0DBC  3001               	movlw	(01h)
  5187  0DBD  1683               	bsf	status, 5	;RP0=1, select bank1
  5188  0DBE  1303               	bcf	status, 6	;RP1=0, select bank1
  5189  0DBF  00A2               	movwf	(??_Send_Packet+0)^080h+0
  5190  0DC0  0822               	movf	(??_Send_Packet+0)^080h+0,w
  5191  0DC1  07A7               	addwf	(Send_Packet@i)^080h,f
  5192  0DC2  2DC3               	goto	l3806
  5193                           opt subtitle "HI-TECH Software Omniscient Code Generator (Lite mode) build 49521"
  5194  0DC3                     l246:	
  5195                           opt subtitle "HI-TECH Software Omniscient Code Generator (Lite mode) build 49521"
  5196  0DC3                     l3806:	
  5197  0DC3  0821               	movf	(Send_Packet@len)^080h,w
  5198  0DC4  0227               	subwf	(Send_Packet@i)^080h,w
  5199  0DC5  1C03               	skipc
  5200  0DC6  2DC8               	goto	u3411
  5201  0DC7  2DC9               	goto	u3410
  5202  0DC8                     u3411:
  5203  0DC8  2D9C               	goto	l3802
  5204  0DC9                     u3410:
  5205  0DC9  2DCA               	goto	l3808
  5206                           opt subtitle "HI-TECH Software Omniscient Code Generator (Lite mode) build 49521"
  5207  0DCA                     l248:	
  5208                           opt subtitle "HI-TECH Software Omniscient Code Generator (Lite mode) build 49521"
  5209                           
  5210  0DCA                     l3808:	
  5211                           opt subtitle "HI-TECH Software Omniscient Code Generator (Lite mode) build 49521"
  5212                           
  5213  0DCA  3099               	movlw	low(STR_10|8000h)
  5214  0DCB  1283               	bcf	status, 5	;RP0=0, select bank0
  5215  0DCC  1303               	bcf	status, 6	;RP1=0, select bank0
  5216  0DCD  00C2               	movwf	(?_printf)
  5217  0DCE  3091               	movlw	high(STR_10|8000h)
  5218  0DCF  00C3               	movwf	((?_printf))+1
  5219  0DD0  120A  118A  2610   	fcall	_printf
              120A  158A         
  5220                           opt subtitle "HI-TECH Software Omniscient Code Generator (Lite mode) build 49521"
  5221                           
  5222  0DD5                     l3810:	
  5223                           opt subtitle "HI-TECH Software Omniscient Code Generator (Lite mode) build 49521"
  5224  0DD5  1283               	bcf	status, 5	;RP0=0, select bank0
  5225  0DD6  1303               	bcf	status, 6	;RP1=0, select bank0
  5226  0DD7  1107               	bcf	(7),2	;volatile
  5227                           opt subtitle "HI-TECH Software Omniscient Code Generator (Lite mode) build 49521"
  5228                           
  5229  0DD8                     l3812:	
  5230                           opt subtitle "HI-TECH Software Omniscient Code Generator (Lite mode) build 49521"
  5231  0DD8  1683               	bsf	status, 5	;RP0=1, select bank1
  5232  0DD9  1303               	bcf	status, 6	;RP1=0, select bank1
  5233  0DDA  0820               	movf	(Send_Packet@pbuf)^080h,w
  5234  0DDB  00A2               	movwf	(??_Send_Packet+0)^080h+0
  5235  0DDC  0822               	movf	(??_Send_Packet+0)^080h+0,w
  5236  0DDD  1283               	bcf	status, 5	;RP0=0, select bank0
  5237  0DDE  1303               	bcf	status, 6	;RP1=0, select bank0
  5238  0DDF  00B7               	movwf	(?_SPI_Write_Buf)
  5239  0DE0  1683               	bsf	status, 5	;RP0=1, select bank1
  5240  0DE1  1303               	bcf	status, 6	;RP1=0, select bank1
  5241  0DE2  0821               	movf	(Send_Packet@len)^080h,w
  5242  0DE3  00A3               	movwf	(??_Send_Packet+1)^080h+0
  5243  0DE4  0823               	movf	(??_Send_Packet+1)^080h+0,w
  5244  0DE5  1283               	bcf	status, 5	;RP0=0, select bank0
  5245  0DE6  1303               	bcf	status, 6	;RP1=0, select bank0
  5246  0DE7  00B8               	movwf	0+(?_SPI_Write_Buf)+01h
  5247  0DE8  1683               	bsf	status, 5	;RP0=1, select bank1
  5248  0DE9  1303               	bcf	status, 6	;RP1=0, select bank1
  5249  0DEA  0825               	movf	(Send_Packet@type)^080h,w
  5250  0DEB  120A  158A  2236   	fcall	_SPI_Write_Buf
              120A  158A         
  5251                           opt subtitle "HI-TECH Software Omniscient Code Generator (Lite mode) build 49521"
  5252                           
  5253  0DF0                     l3814:	
  5254                           opt subtitle "HI-TECH Software Omniscient Code Generator (Lite mode) build 49521"
  5255  0DF0  1283               	bcf	status, 5	;RP0=0, select bank0
  5256  0DF1  1303               	bcf	status, 6	;RP1=0, select bank0
  5257  0DF2  1507               	bsf	(7),2	;volatile
  5258                           opt subtitle "HI-TECH Software Omniscient Code Generator (Lite mode) build 49521"
  5259                           
  5260  0DF3                     l3816:	
  5261                           opt subtitle "HI-TECH Software Omniscient Code Generator (Lite mode) build 49521"
  5262                           
  5263  0DF3  3006               movlw	6
  5264  0DF4  1683               	bsf	status, 5	;RP0=1, select bank1
  5265  0DF5  1303               	bcf	status, 6	;RP1=0, select bank1
  5266  0DF6  00A2               movwf	(??_Send_Packet+0)^080h+0,f
  5267  0DF7                     u3797:
  5268  0DF7  0BA2               decfsz	(??_Send_Packet+0)^080h+0,f
  5269  0DF8  2DF7               	goto	u3797
  5270  0DF9  0000               	nop
  5271                           opt subtitle "HI-TECH Software Omniscient Code Generator (Lite mode) build 49521"
  5272                           
  5273                           opt pagewidth 120
  5274                           
  5275  0DFA                     l3818:	
  5276                           opt subtitle "HI-TECH Software Omniscient Code Generator (Lite mode) build 49521"
  5277  0DFA  1283               	bcf	status, 5	;RP0=0, select bank0
  5278  0DFB  1303               	bcf	status, 6	;RP1=0, select bank0
  5279  0DFC  1107               	bcf	(7),2	;volatile
  5280                           opt subtitle "HI-TECH Software Omniscient Code Generator (Lite mode) build 49521"
  5281                           
  5282  0DFD                     l3820:	
  5283                           opt subtitle "HI-TECH Software Omniscient Code Generator (Lite mode) build 49521"
  5284                           
  5285  0DFD  3003               movlw	3
  5286  0DFE  1683               	bsf	status, 5	;RP0=1, select bank1
  5287  0DFF  1303               	bcf	status, 6	;RP1=0, select bank1
  5288  0E00  00A3               movwf	((??_Send_Packet+0)^080h+0+1),f
  5289  0E01  3097               	movlw	151
  5290  0E02  00A2               movwf	((??_Send_Packet+0)^080h+0),f
  5291  0E03                     u3807:
  5292  0E03  0BA2               	decfsz	((??_Send_Packet+0)^080h+0),f
  5293  0E04  2E03               	goto	u3807
  5294  0E05  0BA3               	decfsz	((??_Send_Packet+0)^080h+0+1),f
  5295  0E06  2E03               	goto	u3807
  5296  0E07  2E08               	nop2
  5297                           opt subtitle "HI-TECH Software Omniscient Code Generator (Lite mode) build 49521"
  5298                           
  5299                           opt pagewidth 120
  5300                           
  5301  0E08  2E40               	goto	l3834
  5302                           opt subtitle "HI-TECH Software Omniscient Code Generator (Lite mode) build 49521"
  5303  0E09                     l250:	
  5304                           opt subtitle "HI-TECH Software Omniscient Code Generator (Lite mode) build 49521"
  5305                           
  5306  0E09                     l3822:	
  5307                           opt subtitle "HI-TECH Software Omniscient Code Generator (Lite mode) build 49521"
  5308  0E09  120A  158A  2180   	fcall	_rfm70TxDataSentInterrupt
              120A  158A         
  5309  0E0E  3A00               	xorlw	0
  5310  0E0F  1903               	skipnz
  5311  0E10  2E12               	goto	u3421
  5312  0E11  2E13               	goto	u3420
  5313  0E12                     u3421:
  5314  0E12  2E24               	goto	l3828
  5315  0E13                     u3420:
  5316                           opt subtitle "HI-TECH Software Omniscient Code Generator (Lite mode) build 49521"
  5317                           
  5318  0E13                     l3824:	
  5319                           opt subtitle "HI-TECH Software Omniscient Code Generator (Lite mode) build 49521"
  5320  0E13  3070               	movlw	low(STR_11|8000h)
  5321  0E14  1283               	bcf	status, 5	;RP0=0, select bank0
  5322  0E15  1303               	bcf	status, 6	;RP1=0, select bank0
  5323  0E16  00C2               	movwf	(?_printf)
  5324  0E17  3091               	movlw	high(STR_11|8000h)
  5325  0E18  00C3               	movwf	((?_printf))+1
  5326  0E19  120A  118A  2610   	fcall	_printf
              120A  158A         
  5327                           opt subtitle "HI-TECH Software Omniscient Code Generator (Lite mode) build 49521"
  5328                           
  5329  0E1E                     l3826:	
  5330                           opt subtitle "HI-TECH Software Omniscient Code Generator (Lite mode) build 49521"
  5331  0E1E  120A  118A  27C0   	fcall	_SwitchToRxMode
              120A  158A         
  5332  0E23  2E24               	goto	l3828
  5333                           opt subtitle "HI-TECH Software Omniscient Code Generator (Lite mode) build 49521"
  5334                           
  5335  0E24                     l251:	
  5336                           opt subtitle "HI-TECH Software Omniscient Code Generator (Lite mode) build 49521"
  5337                           
  5338  0E24                     l3828:	
  5339                           opt subtitle "HI-TECH Software Omniscient Code Generator (Lite mode) build 49521"
  5340                           
  5341  0E24  120A  158A  219F   	fcall	_rfm70TxDataSentErrorInterrupt
              120A  158A         
  5342  0E29  3A00               	xorlw	0
  5343  0E2A  1903               	skipnz
  5344  0E2B  2E2D               	goto	u3431
  5345  0E2C  2E2E               	goto	u3430
  5346  0E2D                     u3431:
  5347  0E2D  2E40               	goto	l3834
  5348  0E2E                     u3430:
  5349                           opt subtitle "HI-TECH Software Omniscient Code Generator (Lite mode) build 49521"
  5350                           
  5351  0E2E                     l3830:	
  5352                           opt subtitle "HI-TECH Software Omniscient Code Generator (Lite mode) build 49521"
  5353  0E2E  30E2               	movlw	low(STR_12|8000h)
  5354  0E2F  1283               	bcf	status, 5	;RP0=0, select bank0
  5355  0E30  1303               	bcf	status, 6	;RP1=0, select bank0
  5356  0E31  00C2               	movwf	(?_printf)
  5357  0E32  3090               	movlw	high(STR_12|8000h)
  5358  0E33  00C3               	movwf	((?_printf))+1
  5359  0E34  120A  118A  2610   	fcall	_printf
              120A  158A         
  5360                           opt subtitle "HI-TECH Software Omniscient Code Generator (Lite mode) build 49521"
  5361                           
  5362  0E39                     l3832:	
  5363                           opt subtitle "HI-TECH Software Omniscient Code Generator (Lite mode) build 49521"
  5364  0E39  120A  118A  27C0   	fcall	_SwitchToRxMode
              120A  158A         
  5365  0E3E  2E40               	goto	l3834
  5366                           opt subtitle "HI-TECH Software Omniscient Code Generator (Lite mode) build 49521"
  5367                           
  5368  0E3F                     l252:	
  5369  0E3F  2E40               	goto	l3834
  5370                           opt subtitle "HI-TECH Software Omniscient Code Generator (Lite mode) build 49521"
  5371                           
  5372  0E40                     l249:	
  5373                           opt subtitle "HI-TECH Software Omniscient Code Generator (Lite mode) build 49521"
  5374                           
  5375  0E40                     l3834:	
  5376  0E40  1283               	bcf	status, 5	;RP0=0, select bank0
  5377  0E41  1303               	bcf	status, 6	;RP1=0, select bank0
  5378  0E42  1C88               	btfss	(8),1	;volatile
  5379  0E43  2E45               	goto	u3441
  5380  0E44  2E46               	goto	u3440
  5381  0E45                     u3441:
  5382  0E45  2E09               	goto	l3822
  5383  0E46                     u3440:
  5384  0E46  2E47               	goto	l3836
  5385                           opt subtitle "HI-TECH Software Omniscient Code Generator (Lite mode) build 49521"
  5386  0E47                     l253:	
  5387                           opt subtitle "HI-TECH Software Omniscient Code Generator (Lite mode) build 49521"
  5388                           
  5389  0E47                     l3836:	
  5390                           opt subtitle "HI-TECH Software Omniscient Code Generator (Lite mode) build 49521"
  5391                           
  5392                           opt pagewidth 120
  5393  0E47  3097               	movlw	low(STR_13|8000h)
  5394  0E48  00C2               	movwf	(?_printf)
  5395  0E49  3091               	movlw	high(STR_13|8000h)
  5396  0E4A  00C3               	movwf	((?_printf))+1
  5397  0E4B  120A  118A  2610   	fcall	_printf
              120A  158A         
  5398  0E50  2E51               	goto	l254
  5399                           opt subtitle "HI-TECH Software Omniscient Code Generator (Lite mode) build 49521"
  5400                           
  5401  0E51                     l245:	
  5402                           opt subtitle "HI-TECH Software Omniscient Code Generator (Lite mode) build 49521"
  5403                           
  5404  0E51                     l254:	
  5405  0E51  0008               	return
  5406                           opt subtitle "HI-TECH Software Omniscient Code Generator (Lite mode) build 49521"
  5407                           
  5408  0E52                     	__end_of_Send_Packet:
  5409                           opt subtitle "HI-TECH Software Omniscient Code Generator (Lite mode) build 49521"
  5410                           
  5411                           opt pagewidth 120
  5412                           
  5413                           	opt lm
  5414                           
  5415                           	processor	16F707
  5416                           clrc	macro
  5417                           	bcf	3,0
  5418                           	endm
  5419                           clrz	macro
  5420                           	bcf	3,2
  5421                           	endm
  5422                           setc	macro
  5423                           	bsf	3,0
  5424                           	endm
  5425                           setz	macro
  5426                           	bsf	3,2
  5427                           	endm
  5428                           skipc	macro
  5429                           	btfss	3,0
  5430                           	endm
  5431                           skipz	macro
  5432                           	btfss	3,2
  5433                           	endm
  5434                           skipnc	macro
  5435                           	btfsc	3,0
  5436                           	endm
  5437                           skipnz	macro
  5438                           	btfsc	3,2
  5439                           	endm
  5440                           indf	equ	0
  5441                           indf0	equ	0
  5442                           pc	equ	2
  5443                           pcl	equ	2
  5444                           status	equ	3
  5445                           fsr	equ	4
  5446                           fsr0	equ	4
  5447                           c	equ	1
  5448                           z	equ	0
  5449                           pclath	equ	10
  5450                           # 46 "/Applications/microchip/xc8/v1.12/include/pic16f707.h"
  5451                           INDF equ 00h ;# 
  5452                           # 52 "/Applications/microchip/xc8/v1.12/include/pic16f707.h"
  5453                           TMR0 equ 01h ;# 
  5454                           # 58 "/Applications/microchip/xc8/v1.12/include/pic16f707.h"
  5455                           PCL equ 02h ;# 
  5456                           # 64 "/Applications/microchip/xc8/v1.12/include/pic16f707.h"
  5457  0610                     __ptext1039:	;psect for function _printf
  5458                           opt subtitle "HI-TECH Software Omniscient Code Generator (Lite mode) build 49521"
  5459                           
  5460                           opt pagewidth 120
  5461                           
  5462  01B0                     	__size_of_printf	equ	__end_of_printf-_printf
  5463                           opt subtitle "HI-TECH Software Omniscient Code Generator (Lite mode) build 49521"
  5464  0610                     _printf:	
  5465                           opt subtitle "HI-TECH Software Omniscient Code Generator (Lite mode) build 49521"
  5466                           
  5467                           opt pagewidth 120
  5468                           
  5469  0610                     l3272:	
  5470                           opt subtitle "HI-TECH Software Omniscient Code Generator (Lite mode) build 49521"
  5471                           
  5472                           opt pagewidth 120
  5473                           
  5474                           	opt lm
  5475                           
  5476                           	processor	16F707
  5477                           clrc	macro
  5478                           	bcf	3,0
  5479                           	endm
  5480                           clrz	macro
  5481                           	bcf	3,2
  5482  0610  3044               	movlw	(?_printf+02h)&0ffh
  5483  0611  1283               	bcf	status, 5	;RP0=0, select bank0
  5484  0612  1303               	bcf	status, 6	;RP1=0, select bank0
  5485  0613  00C8               	movwf	(??_printf+0)+0
  5486  0614  0848               	movf	(??_printf+0)+0,w
  5487  0615  00CC               	movwf	(printf@ap)
  5488                           opt subtitle "HI-TECH Software Omniscient Code Generator (Lite mode) build 49521"
  5489                           
  5490  0616  2FA2               	goto	l3346
  5491                           opt subtitle "HI-TECH Software Omniscient Code Generator (Lite mode) build 49521"
  5492  0617                     l394:	
  5493                           opt subtitle "HI-TECH Software Omniscient Code Generator (Lite mode) build 49521"
  5494                           
  5495  0617                     l3274:	
  5496                           opt subtitle "HI-TECH Software Omniscient Code Generator (Lite mode) build 49521"
  5497  0617  0853               	movf	(printf@c),w
  5498  0618  3A25               	xorlw	025h
  5499  0619  1903               	skipnz
  5500  061A  2E1C               	goto	u2871
  5501  061B  2E1D               	goto	u2870
  5502  061C                     u2871:
  5503  061C  2E24               	goto	l395
  5504  061D                     u2870:
  5505                           opt subtitle "HI-TECH Software Omniscient Code Generator (Lite mode) build 49521"
  5506                           
  5507  061D                     l3276:	
  5508                           opt subtitle "HI-TECH Software Omniscient Code Generator (Lite mode) build 49521"
  5509                           
  5510  061D  0853               	movf	(printf@c),w
  5511  061E  120A  158A  20EB   	fcall	_putch
              120A  118A         
  5512                           opt subtitle "HI-TECH Software Omniscient Code Generator (Lite mode) build 49521"
  5513                           
  5514  0623  2FA2               	goto	l3346
  5515                           opt subtitle "HI-TECH Software Omniscient Code Generator (Lite mode) build 49521"
  5516                           
  5517  0624                     l395:	
  5518                           opt subtitle "HI-TECH Software Omniscient Code Generator (Lite mode) build 49521"
  5519                           
  5520                           opt pagewidth 120
  5521  0624  01CE               	clrf	(printf@flag)
  5522                           opt subtitle "HI-TECH Software Omniscient Code Generator (Lite mode) build 49521"
  5523                           
  5524  0625  2E33               	goto	l3282
  5525                           opt subtitle "HI-TECH Software Omniscient Code Generator (Lite mode) build 49521"
  5526                           
  5527                           opt pagewidth 120
  5528  0626                     l397:	
  5529                           opt subtitle "HI-TECH Software Omniscient Code Generator (Lite mode) build 49521"
  5530                           
  5531  0626  2FBF               	goto	l427
  5532                           opt subtitle "HI-TECH Software Omniscient Code Generator (Lite mode) build 49521"
  5533                           
  5534                           opt pagewidth 120
  5535  0627                     l399:	
  5536  0627  2E57               	goto	l401
  5537                           opt subtitle "HI-TECH Software Omniscient Code Generator (Lite mode) build 49521"
  5538                           
  5539  0628                     l400:	
  5540                           opt subtitle "HI-TECH Software Omniscient Code Generator (Lite mode) build 49521"
  5541                           
  5542                           opt pagewidth 120
  5543  0628  2E57               	goto	l401
  5544                           opt subtitle "HI-TECH Software Omniscient Code Generator (Lite mode) build 49521"
  5545                           
  5546                           opt pagewidth 120
  5547  0629                     l402:	
  5548                           opt subtitle "HI-TECH Software Omniscient Code Generator (Lite mode) build 49521"
  5549                           
  5550  0629                     l403:	
  5551                           opt subtitle "HI-TECH Software Omniscient Code Generator (Lite mode) build 49521"
  5552                           
  5553                           opt pagewidth 120
  5554  0629  17CE               	bsf	(printf@flag)+(7/8),(7)&7
  5555                           opt subtitle "HI-TECH Software Omniscient Code Generator (Lite mode) build 49521"
  5556                           
  5557  062A  2E57               	goto	l401
  5558                           opt subtitle "HI-TECH Software Omniscient Code Generator (Lite mode) build 49521"
  5559                           
  5560                           opt pagewidth 120
  5561  062B                     l404:	
  5562                           opt subtitle "HI-TECH Software Omniscient Code Generator (Lite mode) build 49521"
  5563                           
  5564  062B                     l3278:	
  5565                           opt subtitle "HI-TECH Software Omniscient Code Generator (Lite mode) build 49521"
  5566  062B  0853               	movf	(printf@c),w
  5567  062C  120A  158A  20EB   	fcall	_putch
              120A  118A         
  5568                           opt subtitle "HI-TECH Software Omniscient Code Generator (Lite mode) build 49521"
  5569                           
  5570  0631  2FA2               	goto	l3346
  5571                           opt subtitle "HI-TECH Software Omniscient Code Generator (Lite mode) build 49521"
  5572                           
  5573  0632                     l3280:	
  5574                           opt subtitle "HI-TECH Software Omniscient Code Generator (Lite mode) build 49521"
  5575  0632  2E57               	goto	l401
  5576                           opt subtitle "HI-TECH Software Omniscient Code Generator (Lite mode) build 49521"
  5577                           
  5578  0633                     l396:	
  5579                           opt subtitle "HI-TECH Software Omniscient Code Generator (Lite mode) build 49521"
  5580  0633                     l3282:	
  5581  0633  1283               	bcf	status, 5	;RP0=0, select bank0
  5582  0634  1303               	bcf	status, 6	;RP1=0, select bank0
  5583  0635  0843               	movf	(printf@f+1),w
  5584  0636  00C9               	movwf	(??_printf+0)+0+1
  5585  0637  0842               	movf	(printf@f),w
  5586  0638  00C8               	movwf	(??_printf+0)+0
  5587  0639  3001               	movlw	(01h)
  5588  063A  07C2               	addwf	(printf@f),f
  5589  063B  1803               	skipnc
  5590  063C  0AC3               	incf	(printf@f+1),f
  5591  063D  0849               	movf	1+(??_printf+0)+0,w
  5592  063E  00FF               	movwf	btemp+1
  5593  063F  0848               	movf	0+(??_printf+0)+0,w
  5594  0640  0084               	movwf	fsr0
  5595  0641  160A  118A  2000   	fcall	stringtab
              120A  118A         
  5596  0646  00D3               	movwf	(printf@c)
  5597                           opt subtitle "HI-TECH Software Omniscient Code Generator (Lite mode) build 49521"
  5598                           
  5599                           opt pagewidth 120
  5600                           
  5601                           	opt lm
  5602                           
  5603                           	processor	16F707
  5604                           clrc	macro
  5605                           	bcf	3,0
  5606                           	endm
  5607                           clrz	macro
  5608                           	bcf	3,2
  5609  0647  3A00               	xorlw	0^0	; case 0
  5610  0648  1903               	skipnz
  5611  0649  2FBF               	goto	l427
  5612  064A  3A58               	xorlw	88^0	; case 88
  5613  064B  1903               	skipnz
  5614  064C  2E29               	goto	l403
  5615  064D  3A3C               	xorlw	100^88	; case 100
  5616  064E  1903               	skipnz
  5617  064F  2E57               	goto	l401
  5618  0650  3A0D               	xorlw	105^100	; case 105
  5619  0651  1903               	skipnz
  5620  0652  2E57               	goto	l401
  5621  0653  3A11               	xorlw	120^105	; case 120
  5622  0654  1903               	skipnz
  5623  0655  2E29               	goto	l403
  5624  0656  2E2B               	goto	l3278
  5625                           opt subtitle "HI-TECH Software Omniscient Code Generator (Lite mode) build 49521"
  5626                           
  5627                           opt pagewidth 120
  5628                           
  5629  0657                     l401:	
  5630                           opt subtitle "HI-TECH Software Omniscient Code Generator (Lite mode) build 49521"
  5631                           
  5632  0657  1283               	bcf	status, 5	;RP0=0, select bank0
  5633  0658  1303               	bcf	status, 6	;RP1=0, select bank0
  5634  0659  1BCE               	btfsc	(printf@flag),(7)&7
  5635  065A  2E5C               	goto	u2881
  5636  065B  2E5D               	goto	u2880
  5637  065C                     u2881:
  5638  065C  2E78               	goto	l3294
  5639  065D                     u2880:
  5640                           opt subtitle "HI-TECH Software Omniscient Code Generator (Lite mode) build 49521"
  5641                           
  5642  065D                     l3284:	
  5643                           opt subtitle "HI-TECH Software Omniscient Code Generator (Lite mode) build 49521"
  5644                           
  5645  065D  084C               	movf	(printf@ap),w
  5646  065E  0084               	movwf	fsr0
  5647  065F  1383               	bcf	status, 7	;select IRP bank0
  5648  0660  0800               	movf	indf,w
  5649  0661  00CF               	movwf	(printf@_val)
  5650  0662  0A84               	incf	fsr0,f
  5651  0663  0800               	movf	indf,w
  5652  0664  00D0               	movwf	(printf@_val+1)
  5653                           opt subtitle "HI-TECH Software Omniscient Code Generator (Lite mode) build 49521"
  5654  0665                     l3286:	
  5655  0665  3002               	movlw	(02h)
  5656  0666  00C8               	movwf	(??_printf+0)+0
  5657  0667  0848               	movf	(??_printf+0)+0,w
  5658  0668  07CC               	addwf	(printf@ap),f
  5659                           opt subtitle "HI-TECH Software Omniscient Code Generator (Lite mode) build 49521"
  5660                           
  5661  0669                     l3288:	
  5662                           opt subtitle "HI-TECH Software Omniscient Code Generator (Lite mode) build 49521"
  5663  0669  1FD0               	btfss	(printf@_val+1),7
  5664  066A  2E6C               	goto	u2891
  5665  066B  2E6D               	goto	u2890
  5666  066C                     u2891:
  5667  066C  2EF5               	goto	l3324
  5668  066D                     u2890:
  5669                           opt subtitle "HI-TECH Software Omniscient Code Generator (Lite mode) build 49521"
  5670                           
  5671  066D                     l3290:	
  5672                           opt subtitle "HI-TECH Software Omniscient Code Generator (Lite mode) build 49521"
  5673  066D  3003               	movlw	(03h)
  5674  066E  00C8               	movwf	(??_printf+0)+0
  5675  066F  0848               	movf	(??_printf+0)+0,w
  5676  0670  04CE               	iorwf	(printf@flag),f
  5677                           opt subtitle "HI-TECH Software Omniscient Code Generator (Lite mode) build 49521"
  5678                           
  5679  0671                     l3292:	
  5680                           opt subtitle "HI-TECH Software Omniscient Code Generator (Lite mode) build 49521"
  5681  0671  09CF               	comf	(printf@_val),f
  5682  0672  09D0               	comf	(printf@_val+1),f
  5683  0673  0ACF               	incf	(printf@_val),f
  5684  0674  1903               	skipnz
  5685  0675  0AD0               	incf	(printf@_val+1),f
  5686  0676  2EF5               	goto	l3324
  5687                           opt subtitle "HI-TECH Software Omniscient Code Generator (Lite mode) build 49521"
  5688                           
  5689  0677                     l406:	
  5690                           opt subtitle "HI-TECH Software Omniscient Code Generator (Lite mode) build 49521"
  5691                           
  5692                           opt pagewidth 120
  5693  0677  2EF5               	goto	l3324
  5694                           opt subtitle "HI-TECH Software Omniscient Code Generator (Lite mode) build 49521"
  5695                           
  5696  0678                     l405:	
  5697                           opt subtitle "HI-TECH Software Omniscient Code Generator (Lite mode) build 49521"
  5698                           
  5699  0678                     l3294:	
  5700                           opt subtitle "HI-TECH Software Omniscient Code Generator (Lite mode) build 49521"
  5701                           
  5702                           opt pagewidth 120
  5703  0678  084C               	movf	(printf@ap),w
  5704  0679  0084               	movwf	fsr0
  5705  067A  1383               	bcf	status, 7	;select IRP bank0
  5706  067B  0800               	movf	indf,w
  5707  067C  00CF               	movwf	(printf@_val)
  5708  067D  0A84               	incf	fsr0,f
  5709  067E  0800               	movf	indf,w
  5710  067F  00D0               	movwf	(printf@_val+1)
  5711                           opt subtitle "HI-TECH Software Omniscient Code Generator (Lite mode) build 49521"
  5712  0680                     l3296:	
  5713  0680  3002               	movlw	(02h)
  5714  0681  00C8               	movwf	(??_printf+0)+0
  5715  0682  0848               	movf	(??_printf+0)+0,w
  5716  0683  07CC               	addwf	(printf@ap),f
  5717  0684  2EF5               	goto	l3324
  5718                           opt subtitle "HI-TECH Software Omniscient Code Generator (Lite mode) build 49521"
  5719                           
  5720  0685                     l407:	
  5721                           opt subtitle "HI-TECH Software Omniscient Code Generator (Lite mode) build 49521"
  5722                           
  5723                           opt pagewidth 120
  5724  0685  2EF5               	goto	l3324
  5725                           opt subtitle "HI-TECH Software Omniscient Code Generator (Lite mode) build 49521"
  5726                           
  5727                           opt pagewidth 120
  5728  0686                     l409:	
  5729                           opt subtitle "HI-TECH Software Omniscient Code Generator (Lite mode) build 49521"
  5730                           
  5731  0686  01D3               	clrf	(printf@c)
  5732  0687  0AD3               	incf	(printf@c),f
  5733                           opt subtitle "HI-TECH Software Omniscient Code Generator (Lite mode) build 49521"
  5734  0688                     l3298:	
  5735  0688  0853               	movf	(printf@c),w
  5736  0689  3A05               	xorlw	05h
  5737  068A  1D03               	skipz
  5738  068B  2E8D               	goto	u2901
  5739  068C  2E8E               	goto	u2900
  5740  068D                     u2901:
  5741  068D  2E90               	goto	l3302
  5742  068E                     u2900:
  5743  068E  2EFE               	goto	l3326
  5744                           opt subtitle "HI-TECH Software Omniscient Code Generator (Lite mode) build 49521"
  5745  068F                     l3300:	
  5746  068F  2EFE               	goto	l3326
  5747                           opt subtitle "HI-TECH Software Omniscient Code Generator (Lite mode) build 49521"
  5748                           
  5749  0690                     l410:	
  5750                           opt subtitle "HI-TECH Software Omniscient Code Generator (Lite mode) build 49521"
  5751  0690                     l3302:	
  5752                           opt subtitle "HI-TECH Software Omniscient Code Generator (Lite mode) build 49521"
  5753  0690  0853               	movf	(printf@c),w
  5754  0691  00C8               	movwf	(??_printf+0)+0
  5755  0692  0748               	addwf	(??_printf+0)+0,w
  5756  0693  3E83               	addlw	low(_dpowers|8000h)
  5757  0694  0084               	movwf	fsr0
  5758  0695  3090               	movlw	high(_dpowers|8000h)
  5759  0696  1803               	skipnc
  5760  0697  3E01               	addlw	1
  5761  0698  00FF               	movwf	btemp+1
  5762  0699  160A  118A  2000   	fcall	stringtab
              120A  118A         
  5763  069E  00C9               	movwf	(??_printf+1)+0
  5764  069F  160A  118A  2000   	fcall	stringtab
              120A  118A         
  5765  06A4  00CA               	movwf	(??_printf+1)+0+1
  5766  06A5  084A               	movf	1+(??_printf+1)+0,w
  5767  06A6  0250               	subwf	(printf@_val+1),w
  5768  06A7  1D03               	skipz
  5769  06A8  2EAB               	goto	u2915
  5770  06A9  0849               	movf	0+(??_printf+1)+0,w
  5771  06AA  024F               	subwf	(printf@_val),w
  5772  06AB                     u2915:
  5773  06AB  1803               	skipnc
  5774  06AC  2EAE               	goto	u2911
  5775  06AD  2EAF               	goto	u2910
  5776  06AE                     u2911:
  5777  06AE  2EB1               	goto	l3306
  5778  06AF                     u2910:
  5779  06AF  2EFE               	goto	l3326
  5780                           opt subtitle "HI-TECH Software Omniscient Code Generator (Lite mode) build 49521"
  5781                           
  5782  06B0                     l3304:	
  5783                           opt subtitle "HI-TECH Software Omniscient Code Generator (Lite mode) build 49521"
  5784  06B0  2EFE               	goto	l3326
  5785                           opt subtitle "HI-TECH Software Omniscient Code Generator (Lite mode) build 49521"
  5786  06B1                     l412:	
  5787                           opt subtitle "HI-TECH Software Omniscient Code Generator (Lite mode) build 49521"
  5788                           
  5789  06B1                     l3306:	
  5790  06B1  3001               	movlw	(01h)
  5791  06B2  00C8               	movwf	(??_printf+0)+0
  5792  06B3  0848               	movf	(??_printf+0)+0,w
  5793  06B4  07D3               	addwf	(printf@c),f
  5794                           opt subtitle "HI-TECH Software Omniscient Code Generator (Lite mode) build 49521"
  5795  06B5                     l3308:	
  5796  06B5  0853               	movf	(printf@c),w
  5797  06B6  3A05               	xorlw	05h
  5798  06B7  1D03               	skipz
  5799  06B8  2EBA               	goto	u2921
  5800  06B9  2EBB               	goto	u2920
  5801  06BA                     u2921:
  5802  06BA  2E90               	goto	l3302
  5803  06BB                     u2920:
  5804  06BB  2EFE               	goto	l3326
  5805                           opt subtitle "HI-TECH Software Omniscient Code Generator (Lite mode) build 49521"
  5806  06BC                     l411:	
  5807                           opt subtitle "HI-TECH Software Omniscient Code Generator (Lite mode) build 49521"
  5808                           
  5809  06BC  2EFE               	goto	l3326
  5810                           opt subtitle "HI-TECH Software Omniscient Code Generator (Lite mode) build 49521"
  5811                           
  5812                           opt pagewidth 120
  5813  06BD                     l414:	
  5814                           opt subtitle "HI-TECH Software Omniscient Code Generator (Lite mode) build 49521"
  5815                           
  5816  06BD  01D3               	clrf	(printf@c)
  5817  06BE  0AD3               	incf	(printf@c),f
  5818                           opt subtitle "HI-TECH Software Omniscient Code Generator (Lite mode) build 49521"
  5819  06BF                     l3310:	
  5820  06BF  0853               	movf	(printf@c),w
  5821  06C0  3A04               	xorlw	04h
  5822  06C1  1D03               	skipz
  5823  06C2  2EC4               	goto	u2931
  5824  06C3  2EC5               	goto	u2930
  5825  06C4                     u2931:
  5826  06C4  2EC7               	goto	l3314
  5827  06C5                     u2930:
  5828  06C5  2EFE               	goto	l3326
  5829                           opt subtitle "HI-TECH Software Omniscient Code Generator (Lite mode) build 49521"
  5830  06C6                     l3312:	
  5831  06C6  2EFE               	goto	l3326
  5832                           opt subtitle "HI-TECH Software Omniscient Code Generator (Lite mode) build 49521"
  5833                           
  5834  06C7                     l415:	
  5835                           opt subtitle "HI-TECH Software Omniscient Code Generator (Lite mode) build 49521"
  5836  06C7                     l3314:	
  5837                           opt subtitle "HI-TECH Software Omniscient Code Generator (Lite mode) build 49521"
  5838  06C7  0853               	movf	(printf@c),w
  5839  06C8  00C8               	movwf	(??_printf+0)+0
  5840  06C9  0748               	addwf	(??_printf+0)+0,w
  5841  06CA  3E8D               	addlw	low(_hexpowers|8000h)
  5842  06CB  0084               	movwf	fsr0
  5843  06CC  3090               	movlw	high(_hexpowers|8000h)
  5844  06CD  1803               	skipnc
  5845  06CE  3E01               	addlw	1
  5846  06CF  00FF               	movwf	btemp+1
  5847  06D0  160A  118A  2000   	fcall	stringtab
              120A  118A         
  5848  06D5  00C9               	movwf	(??_printf+1)+0
  5849  06D6  160A  118A  2000   	fcall	stringtab
              120A  118A         
  5850  06DB  00CA               	movwf	(??_printf+1)+0+1
  5851  06DC  084A               	movf	1+(??_printf+1)+0,w
  5852  06DD  0250               	subwf	(printf@_val+1),w
  5853  06DE  1D03               	skipz
  5854  06DF  2EE2               	goto	u2945
  5855  06E0  0849               	movf	0+(??_printf+1)+0,w
  5856  06E1  024F               	subwf	(printf@_val),w
  5857  06E2                     u2945:
  5858  06E2  1803               	skipnc
  5859  06E3  2EE5               	goto	u2941
  5860  06E4  2EE6               	goto	u2940
  5861  06E5                     u2941:
  5862  06E5  2EE8               	goto	l3318
  5863  06E6                     u2940:
  5864  06E6  2EFE               	goto	l3326
  5865                           opt subtitle "HI-TECH Software Omniscient Code Generator (Lite mode) build 49521"
  5866                           
  5867  06E7                     l3316:	
  5868                           opt subtitle "HI-TECH Software Omniscient Code Generator (Lite mode) build 49521"
  5869  06E7  2EFE               	goto	l3326
  5870                           opt subtitle "HI-TECH Software Omniscient Code Generator (Lite mode) build 49521"
  5871  06E8                     l417:	
  5872                           opt subtitle "HI-TECH Software Omniscient Code Generator (Lite mode) build 49521"
  5873                           
  5874  06E8                     l3318:	
  5875  06E8  3001               	movlw	(01h)
  5876  06E9  00C8               	movwf	(??_printf+0)+0
  5877  06EA  0848               	movf	(??_printf+0)+0,w
  5878  06EB  07D3               	addwf	(printf@c),f
  5879                           opt subtitle "HI-TECH Software Omniscient Code Generator (Lite mode) build 49521"
  5880  06EC                     l3320:	
  5881  06EC  0853               	movf	(printf@c),w
  5882  06ED  3A04               	xorlw	04h
  5883  06EE  1D03               	skipz
  5884  06EF  2EF1               	goto	u2951
  5885  06F0  2EF2               	goto	u2950
  5886  06F1                     u2951:
  5887  06F1  2EC7               	goto	l3314
  5888  06F2                     u2950:
  5889  06F2  2EFE               	goto	l3326
  5890                           opt subtitle "HI-TECH Software Omniscient Code Generator (Lite mode) build 49521"
  5891  06F3                     l416:	
  5892                           opt subtitle "HI-TECH Software Omniscient Code Generator (Lite mode) build 49521"
  5893                           
  5894  06F3  2EFE               	goto	l3326
  5895                           opt subtitle "HI-TECH Software Omniscient Code Generator (Lite mode) build 49521"
  5896                           
  5897  06F4                     l3322:	
  5898                           opt subtitle "HI-TECH Software Omniscient Code Generator (Lite mode) build 49521"
  5899  06F4  2EFE               	goto	l3326
  5900                           opt subtitle "HI-TECH Software Omniscient Code Generator (Lite mode) build 49521"
  5901                           
  5902  06F5                     l408:	
  5903                           opt subtitle "HI-TECH Software Omniscient Code Generator (Lite mode) build 49521"
  5904  06F5                     l3324:	
  5905  06F5  084E               	movf	(printf@flag),w
  5906  06F6  3980               	andlw	080h
  5907                           opt subtitle "HI-TECH Software Omniscient Code Generator (Lite mode) build 49521"
  5908                           
  5909                           opt pagewidth 120
  5910                           
  5911                           	opt lm
  5912                           
  5913                           	processor	16F707
  5914                           clrc	macro
  5915                           	bcf	3,0
  5916                           	endm
  5917                           clrz	macro
  5918                           	bcf	3,2
  5919  06F7  3A00               	xorlw	0^0	; case 0
  5920  06F8  1903               	skipnz
  5921  06F9  2E86               	goto	l409
  5922  06FA  3A80               	xorlw	128^0	; case 128
  5923  06FB  1903               	skipnz
  5924  06FC  2EBD               	goto	l414
  5925  06FD  2EFE               	goto	l3326
  5926                           opt subtitle "HI-TECH Software Omniscient Code Generator (Lite mode) build 49521"
  5927                           
  5928                           opt pagewidth 120
  5929                           
  5930  06FE                     l413:	
  5931                           opt subtitle "HI-TECH Software Omniscient Code Generator (Lite mode) build 49521"
  5932                           
  5933  06FE                     l3326:	
  5934                           opt subtitle "HI-TECH Software Omniscient Code Generator (Lite mode) build 49521"
  5935                           
  5936  06FE  084E               	movf	(printf@flag),w
  5937  06FF  3903               	andlw	03h
  5938  0700  1903               	btfsc	status,2
  5939  0701  2F03               	goto	u2961
  5940  0702  2F04               	goto	u2960
  5941  0703                     u2961:
  5942  0703  2F0B               	goto	l3330
  5943  0704                     u2960:
  5944                           opt subtitle "HI-TECH Software Omniscient Code Generator (Lite mode) build 49521"
  5945                           
  5946  0704                     l3328:	
  5947                           opt subtitle "HI-TECH Software Omniscient Code Generator (Lite mode) build 49521"
  5948  0704  302D               	movlw	(02Dh)
  5949  0705  120A  158A  20EB   	fcall	_putch
              120A  118A         
  5950  070A  2F0B               	goto	l3330
  5951                           opt subtitle "HI-TECH Software Omniscient Code Generator (Lite mode) build 49521"
  5952  070B                     l418:	
  5953                           opt subtitle "HI-TECH Software Omniscient Code Generator (Lite mode) build 49521"
  5954                           
  5955  070B                     l3330:	
  5956                           opt subtitle "HI-TECH Software Omniscient Code Generator (Lite mode) build 49521"
  5957                           
  5958  070B  1283               	bcf	status, 5	;RP0=0, select bank0
  5959  070C  1303               	bcf	status, 6	;RP1=0, select bank0
  5960  070D  0853               	movf	(printf@c),w
  5961  070E  00C8               	movwf	(??_printf+0)+0
  5962  070F  0848               	movf	(??_printf+0)+0,w
  5963  0710  00CD               	movwf	(printf@prec)
  5964                           opt subtitle "HI-TECH Software Omniscient Code Generator (Lite mode) build 49521"
  5965                           
  5966  0711  2F94               	goto	l3344
  5967                           opt subtitle "HI-TECH Software Omniscient Code Generator (Lite mode) build 49521"
  5968  0712                     l420:	
  5969                           opt subtitle "HI-TECH Software Omniscient Code Generator (Lite mode) build 49521"
  5970                           
  5971  0712  2F84               	goto	l3340
  5972                           opt subtitle "HI-TECH Software Omniscient Code Generator (Lite mode) build 49521"
  5973                           
  5974                           opt pagewidth 120
  5975                           
  5976  0713                     l422:	
  5977                           opt subtitle "HI-TECH Software Omniscient Code Generator (Lite mode) build 49521"
  5978                           
  5979  0713                     l3332:	
  5980                           opt subtitle "HI-TECH Software Omniscient Code Generator (Lite mode) build 49521"
  5981  0713  300A               	movlw	low(0Ah)
  5982  0714  00BC               	movwf	(?___lwmod)
  5983  0715  3000               	movlw	high(0Ah)
  5984  0716  00BD               	movwf	((?___lwmod))+1
  5985  0717  084D               	movf	(printf@prec),w
  5986  0718  00C8               	movwf	(??_printf+0)+0
  5987  0719  0748               	addwf	(??_printf+0)+0,w
  5988  071A  3E83               	addlw	low(_dpowers|8000h)
  5989  071B  0084               	movwf	fsr0
  5990  071C  3090               	movlw	high(_dpowers|8000h)
  5991  071D  1803               	skipnc
  5992  071E  3E01               	addlw	1
  5993  071F  00FF               	movwf	btemp+1
  5994  0720  160A  118A  2000   	fcall	stringtab
              120A  118A         
  5995  0725  00B4               	movwf	(?___lwdiv)
  5996  0726  160A  118A  2000   	fcall	stringtab
              120A  118A         
  5997  072B  00B5               	movwf	(?___lwdiv+1)
  5998  072C  0850               	movf	(printf@_val+1),w
  5999  072D  01B7               	clrf	1+(?___lwdiv)+02h
  6000  072E  07B7               	addwf	1+(?___lwdiv)+02h
  6001  072F  084F               	movf	(printf@_val),w
  6002  0730  01B6               	clrf	0+(?___lwdiv)+02h
  6003  0731  07B6               	addwf	0+(?___lwdiv)+02h
  6004                           opt subtitle "HI-TECH Software Omniscient Code Generator (Lite mode) build 49521"
  6005  0732  120A  158A  241F   	fcall	___lwdiv
              120A  118A         
  6006  0737  1283               	bcf	status, 5	;RP0=0, select bank0
  6007  0738  1303               	bcf	status, 6	;RP1=0, select bank0
  6008  0739  0835               	movf	(1+(?___lwdiv)),w
  6009  073A  01BF               	clrf	1+(?___lwmod)+02h
  6010  073B  07BF               	addwf	1+(?___lwmod)+02h
  6011  073C  0834               	movf	(0+(?___lwdiv)),w
  6012  073D  01BE               	clrf	0+(?___lwmod)+02h
  6013  073E  07BE               	addwf	0+(?___lwmod)+02h
  6014                           opt subtitle "HI-TECH Software Omniscient Code Generator (Lite mode) build 49521"
  6015  073F  120A  158A  238D   	fcall	___lwmod
              120A  118A         
  6016  0744  1283               	bcf	status, 5	;RP0=0, select bank0
  6017  0745  1303               	bcf	status, 6	;RP1=0, select bank0
  6018  0746  083C               	movf	(0+(?___lwmod)),w
  6019  0747  3E30               	addlw	030h
  6020  0748  00C9               	movwf	(??_printf+1)+0
  6021  0749  0849               	movf	(??_printf+1)+0,w
  6022  074A  00D3               	movwf	(printf@c)
  6023                           opt subtitle "HI-TECH Software Omniscient Code Generator (Lite mode) build 49521"
  6024                           
  6025  074B  2F8D               	goto	l3342
  6026                           opt subtitle "HI-TECH Software Omniscient Code Generator (Lite mode) build 49521"
  6027                           
  6028                           opt pagewidth 120
  6029  074C                     l424:	
  6030                           opt subtitle "HI-TECH Software Omniscient Code Generator (Lite mode) build 49521"
  6031                           
  6032  074C                     l3334:	
  6033                           opt subtitle "HI-TECH Software Omniscient Code Generator (Lite mode) build 49521"
  6034                           
  6035  074C  084D               	movf	(printf@prec),w
  6036  074D  00C8               	movwf	(??_printf+0)+0
  6037  074E  0748               	addwf	(??_printf+0)+0,w
  6038  074F  3E8D               	addlw	low(_hexpowers|8000h)
  6039  0750  0084               	movwf	fsr0
  6040  0751  3090               	movlw	high(_hexpowers|8000h)
  6041  0752  1803               	skipnc
  6042  0753  3E01               	addlw	1
  6043  0754  00FF               	movwf	btemp+1
  6044  0755  160A  118A  2000   	fcall	stringtab
              120A  118A         
  6045  075A  00B4               	movwf	(?___lwdiv)
  6046  075B  160A  118A  2000   	fcall	stringtab
              120A  118A         
  6047  0760  00B5               	movwf	(?___lwdiv+1)
  6048  0761  0850               	movf	(printf@_val+1),w
  6049  0762  01B7               	clrf	1+(?___lwdiv)+02h
  6050  0763  07B7               	addwf	1+(?___lwdiv)+02h
  6051  0764  084F               	movf	(printf@_val),w
  6052  0765  01B6               	clrf	0+(?___lwdiv)+02h
  6053  0766  07B6               	addwf	0+(?___lwdiv)+02h
  6054                           opt subtitle "HI-TECH Software Omniscient Code Generator (Lite mode) build 49521"
  6055  0767  120A  158A  241F   	fcall	___lwdiv
              120A  118A         
  6056  076C  1283               	bcf	status, 5	;RP0=0, select bank0
  6057  076D  1303               	bcf	status, 6	;RP1=0, select bank0
  6058  076E  0834               	movf	(0+(?___lwdiv)),w
  6059  076F  390F               	andlw	0Fh
  6060  0770  00C9               	movwf	(??_printf+1)+0
  6061  0771  0849               	movf	(??_printf+1)+0,w
  6062  0772  00CB               	movwf	(printf@idx)
  6063                           opt subtitle "HI-TECH Software Omniscient Code Generator (Lite mode) build 49521"
  6064                           
  6065  0773                     l3336:	
  6066                           opt subtitle "HI-TECH Software Omniscient Code Generator (Lite mode) build 49521"
  6067  0773  084B               	movf	(printf@idx),w
  6068  0774  3E5F               	addlw	low(STR_16|8000h)
  6069  0775  0084               	movwf	fsr0
  6070  0776  3091               	movlw	high(STR_16|8000h)
  6071  0777  1803               	skipnc
  6072  0778  3E01               	addlw	1
  6073  0779  00FF               	movwf	btemp+1
  6074  077A  160A  118A  2000   	fcall	stringtab
              120A  118A         
  6075  077F  00C8               	movwf	(??_printf+0)+0
  6076  0780  0848               	movf	(??_printf+0)+0,w
  6077  0781  00D3               	movwf	(printf@c)
  6078                           opt subtitle "HI-TECH Software Omniscient Code Generator (Lite mode) build 49521"
  6079                           
  6080                           opt pagewidth 120
  6081  0782  2F8D               	goto	l3342
  6082                           opt subtitle "HI-TECH Software Omniscient Code Generator (Lite mode) build 49521"
  6083                           
  6084  0783                     l3338:	
  6085                           opt subtitle "HI-TECH Software Omniscient Code Generator (Lite mode) build 49521"
  6086  0783  2F8D               	goto	l3342
  6087                           opt subtitle "HI-TECH Software Omniscient Code Generator (Lite mode) build 49521"
  6088                           
  6089  0784                     l421:	
  6090                           opt subtitle "HI-TECH Software Omniscient Code Generator (Lite mode) build 49521"
  6091  0784                     l3340:	
  6092  0784  084E               	movf	(printf@flag),w
  6093  0785  3980               	andlw	080h
  6094                           opt subtitle "HI-TECH Software Omniscient Code Generator (Lite mode) build 49521"
  6095                           
  6096                           opt pagewidth 120
  6097                           
  6098                           	opt lm
  6099                           
  6100                           	processor	16F707
  6101                           clrc	macro
  6102                           	bcf	3,0
  6103                           	endm
  6104                           clrz	macro
  6105                           	bcf	3,2
  6106  0786  3A00               	xorlw	0^0	; case 0
  6107  0787  1903               	skipnz
  6108  0788  2F13               	goto	l3332
  6109  0789  3A80               	xorlw	128^0	; case 128
  6110  078A  1903               	skipnz
  6111  078B  2F4C               	goto	l3334
  6112  078C  2F8D               	goto	l3342
  6113                           opt subtitle "HI-TECH Software Omniscient Code Generator (Lite mode) build 49521"
  6114                           
  6115                           opt pagewidth 120
  6116                           
  6117  078D                     l423:	
  6118                           opt subtitle "HI-TECH Software Omniscient Code Generator (Lite mode) build 49521"
  6119                           
  6120  078D                     l3342:	
  6121                           opt subtitle "HI-TECH Software Omniscient Code Generator (Lite mode) build 49521"
  6122  078D  0853               	movf	(printf@c),w
  6123  078E  120A  158A  20EB   	fcall	_putch
              120A  118A         
  6124  0793  2F94               	goto	l3344
  6125                           opt subtitle "HI-TECH Software Omniscient Code Generator (Lite mode) build 49521"
  6126                           
  6127  0794                     l419:	
  6128                           opt subtitle "HI-TECH Software Omniscient Code Generator (Lite mode) build 49521"
  6129                           
  6130  0794                     l3344:	
  6131  0794  30FF               	movlw	(-1)
  6132  0795  1283               	bcf	status, 5	;RP0=0, select bank0
  6133  0796  1303               	bcf	status, 6	;RP1=0, select bank0
  6134  0797  00C8               	movwf	(??_printf+0)+0
  6135  0798  0848               	movf	(??_printf+0)+0,w
  6136  0799  07CD               	addwf	(printf@prec),f
  6137  079A  084D               	movf	((printf@prec)),w
  6138  079B  3AFF               	xorlw	-1
  6139  079C  1D03               	skipz
  6140  079D  2F9F               	goto	u2971
  6141  079E  2FA0               	goto	u2970
  6142  079F                     u2971:
  6143  079F  2F84               	goto	l3340
  6144  07A0                     u2970:
  6145  07A0  2FA2               	goto	l3346
  6146                           opt subtitle "HI-TECH Software Omniscient Code Generator (Lite mode) build 49521"
  6147  07A1                     l425:	
  6148  07A1  2FA2               	goto	l3346
  6149                           opt subtitle "HI-TECH Software Omniscient Code Generator (Lite mode) build 49521"
  6150                           
  6151  07A2                     l393:	
  6152                           opt subtitle "HI-TECH Software Omniscient Code Generator (Lite mode) build 49521"
  6153                           
  6154  07A2                     l3346:	
  6155  07A2  1283               	bcf	status, 5	;RP0=0, select bank0
  6156  07A3  1303               	bcf	status, 6	;RP1=0, select bank0
  6157  07A4  0843               	movf	(printf@f+1),w
  6158  07A5  00C9               	movwf	(??_printf+0)+0+1
  6159  07A6  0842               	movf	(printf@f),w
  6160  07A7  00C8               	movwf	(??_printf+0)+0
  6161  07A8  3001               	movlw	(01h)
  6162  07A9  07C2               	addwf	(printf@f),f
  6163  07AA  1803               	skipnc
  6164  07AB  0AC3               	incf	(printf@f+1),f
  6165  07AC  0849               	movf	1+(??_printf+0)+0,w
  6166  07AD  00FF               	movwf	btemp+1
  6167  07AE  0848               	movf	0+(??_printf+0)+0,w
  6168  07AF  0084               	movwf	fsr0
  6169  07B0  160A  118A  2000   	fcall	stringtab
              120A  118A         
  6170  07B5  00CA               	movwf	(??_printf+2)+0
  6171  07B6  084A               	movf	(??_printf+2)+0,w
  6172  07B7  00D3               	movwf	(printf@c)
  6173  07B8  08D3               	movf	((printf@c)),f
  6174  07B9  1D03               	skipz
  6175  07BA  2FBC               	goto	u2981
  6176  07BB  2FBD               	goto	u2980
  6177  07BC                     u2981:
  6178  07BC  2E17               	goto	l3274
  6179  07BD                     u2980:
  6180  07BD  2FBF               	goto	l427
  6181                           opt subtitle "HI-TECH Software Omniscient Code Generator (Lite mode) build 49521"
  6182  07BE                     l426:	
  6183  07BE  2FBF               	goto	l427
  6184                           opt subtitle "HI-TECH Software Omniscient Code Generator (Lite mode) build 49521"
  6185                           
  6186                           opt pagewidth 120
  6187                           
  6188                           	opt lm
  6189  07BF                     l398:	
  6190                           opt subtitle "HI-TECH Software Omniscient Code Generator (Lite mode) build 49521"
  6191                           
  6192                           opt pagewidth 120
  6193                           
  6194  07BF                     l427:	
  6195  07BF  0008               	return
  6196                           opt subtitle "HI-TECH Software Omniscient Code Generator (Lite mode) build 49521"
  6197                           
  6198  07C0                     	__end_of_printf:
  6199                           opt subtitle "HI-TECH Software Omniscient Code Generator (Lite mode) build 49521"
  6200                           
  6201                           opt pagewidth 120
  6202                           
  6203                           	opt lm
  6204                           
  6205                           	processor	16F707
  6206                           clrc	macro
  6207                           	bcf	3,0
  6208                           	endm
  6209                           clrz	macro
  6210                           	bcf	3,2
  6211                           	endm
  6212                           setc	macro
  6213                           	bsf	3,0
  6214                           	endm
  6215                           setz	macro
  6216                           	bsf	3,2
  6217                           	endm
  6218                           skipc	macro
  6219                           	btfss	3,0
  6220                           	endm
  6221                           skipz	macro
  6222                           	btfss	3,2
  6223                           	endm
  6224                           skipnc	macro
  6225                           	btfsc	3,0
  6226                           	endm
  6227                           skipnz	macro
  6228                           	btfsc	3,2
  6229                           	endm
  6230                           indf	equ	0
  6231                           indf0	equ	0
  6232                           pc	equ	2
  6233                           pcl	equ	2
  6234  099F                     __ptext1040:	;psect for function _rfm70TxDataSentErrorInterrupt
  6235                           opt subtitle "HI-TECH Software Omniscient Code Generator (Lite mode) build 49521"
  6236                           
  6237                           opt pagewidth 120
  6238                           
  6239  001F                     	__size_of_rfm70TxDataSentErrorInterrupt	equ	__end_of_rfm70TxDataSentErrorInterrupt-_rfm
                                 70TxDataSentErrorInterrupt
  6240                           opt subtitle "HI-TECH Software Omniscient Code Generator (Lite mode) build 49521"
  6241  099F                     _rfm70TxDataSentErrorInterrupt:	
  6242                           opt subtitle "HI-TECH Software Omniscient Code Generator (Lite mode) build 49521"
  6243                           
  6244                           opt pagewidth 120
  6245                           
  6246  099F                     l3906:	
  6247                           opt subtitle "HI-TECH Software Omniscient Code Generator (Lite mode) build 49521"
  6248  099F  3007               	movlw	(07h)
  6249  09A0  120A  158A  2167   	fcall	_SPI_Read_Reg
              120A  158A         
  6250  09A5  1283               	bcf	status, 5	;RP0=0, select bank0
  6251  09A6  1303               	bcf	status, 6	;RP1=0, select bank0
  6252  09A7  00BA               	movwf	(??_rfm70TxDataSentErrorInterrupt+0)+0
  6253  09A8  1EBA               	btfss	0+(??_rfm70TxDataSentErrorInterrupt+0)+0,(5)&7
  6254  09A9  29AB               	goto	u3481
  6255  09AA  29AC               	goto	u3480
  6256  09AB                     u3481:
  6257  09AB  29BA               	goto	l3916
  6258  09AC                     u3480:
  6259                           opt subtitle "HI-TECH Software Omniscient Code Generator (Lite mode) build 49521"
  6260                           
  6261  09AC                     l3908:	
  6262                           opt subtitle "HI-TECH Software Omniscient Code Generator (Lite mode) build 49521"
  6263  09AC  3010               	movlw	(010h)
  6264  09AD  00BA               	movwf	(??_rfm70TxDataSentErrorInterrupt+0)+0
  6265  09AE  083A               	movf	(??_rfm70TxDataSentErrorInterrupt+0)+0,w
  6266  09AF  00B7               	movwf	(?_SPI_Write_Reg)
  6267  09B0  3027               	movlw	(027h)
  6268  09B1  120A  158A  210A   	fcall	_SPI_Write_Reg
              120A  158A         
  6269                           opt subtitle "HI-TECH Software Omniscient Code Generator (Lite mode) build 49521"
  6270                           
  6271  09B6                     l3910:	
  6272                           opt subtitle "HI-TECH Software Omniscient Code Generator (Lite mode) build 49521"
  6273  09B6  3001               	movlw	(01h)
  6274  09B7  29BD               	goto	l369
  6275                           opt subtitle "HI-TECH Software Omniscient Code Generator (Lite mode) build 49521"
  6276  09B8                     l3912:	
  6277  09B8  29BD               	goto	l369
  6278                           opt subtitle "HI-TECH Software Omniscient Code Generator (Lite mode) build 49521"
  6279                           
  6280  09B9                     l3914:	
  6281                           opt subtitle "HI-TECH Software Omniscient Code Generator (Lite mode) build 49521"
  6282  09B9  29BD               	goto	l369
  6283                           opt subtitle "HI-TECH Software Omniscient Code Generator (Lite mode) build 49521"
  6284                           
  6285  09BA                     l368:	
  6286                           opt subtitle "HI-TECH Software Omniscient Code Generator (Lite mode) build 49521"
  6287                           
  6288  09BA                     l3916:	
  6289                           opt subtitle "HI-TECH Software Omniscient Code Generator (Lite mode) build 49521"
  6290                           
  6291  09BA  3000               	movlw	(0)
  6292  09BB  29BD               	goto	l369
  6293                           opt subtitle "HI-TECH Software Omniscient Code Generator (Lite mode) build 49521"
  6294  09BC                     l3918:	
  6295  09BC  29BD               	goto	l369
  6296                           opt subtitle "HI-TECH Software Omniscient Code Generator (Lite mode) build 49521"
  6297  09BD                     l370:	
  6298                           opt subtitle "HI-TECH Software Omniscient Code Generator (Lite mode) build 49521"
  6299                           
  6300  09BD                     l369:	
  6301  09BD  0008               	return
  6302                           opt subtitle "HI-TECH Software Omniscient Code Generator (Lite mode) build 49521"
  6303                           
  6304  09BE                     	__end_of_rfm70TxDataSentErrorInterrupt:
  6305                           opt subtitle "HI-TECH Software Omniscient Code Generator (Lite mode) build 49521"
  6306                           
  6307                           opt pagewidth 120
  6308                           
  6309                           	opt lm
  6310                           
  6311                           	processor	16F707
  6312                           clrc	macro
  6313                           	bcf	3,0
  6314                           	endm
  6315                           clrz	macro
  6316                           	bcf	3,2
  6317                           	endm
  6318                           setc	macro
  6319                           	bsf	3,0
  6320                           	endm
  6321                           setz	macro
  6322                           	bsf	3,2
  6323                           	endm
  6324                           skipc	macro
  6325                           	btfss	3,0
  6326                           	endm
  6327                           skipz	macro
  6328                           	btfss	3,2
  6329                           	endm
  6330                           skipnc	macro
  6331                           	btfsc	3,0
  6332                           	endm
  6333                           skipnz	macro
  6334                           	btfsc	3,2
  6335                           	endm
  6336                           indf	equ	0
  6337                           indf0	equ	0
  6338                           pc	equ	2
  6339                           pcl	equ	2
  6340                           status	equ	3
  6341  07C0                     __ptext1041:	;psect for function _SwitchToRxMode
  6342                           opt subtitle "HI-TECH Software Omniscient Code Generator (Lite mode) build 49521"
  6343                           
  6344                           opt pagewidth 120
  6345                           
  6346  003F                     	__size_of_SwitchToRxMode	equ	__end_of_SwitchToRxMode-_SwitchToRxMode
  6347                           opt subtitle "HI-TECH Software Omniscient Code Generator (Lite mode) build 49521"
  6348  07C0                     _SwitchToRxMode:	
  6349                           opt subtitle "HI-TECH Software Omniscient Code Generator (Lite mode) build 49521"
  6350                           
  6351                           opt pagewidth 120
  6352                           
  6353  07C0                     l3896:	
  6354                           opt subtitle "HI-TECH Software Omniscient Code Generator (Lite mode) build 49521"
  6355                           
  6356  07C0  1283               	bcf	status, 5	;RP0=0, select bank0
  6357  07C1  1303               	bcf	status, 6	;RP1=0, select bank0
  6358  07C2  01B7               	clrf	(?_SPI_Write_Reg)
  6359  07C3  30E2               	movlw	(0E2h)
  6360  07C4  120A  158A  210A   	fcall	_SPI_Write_Reg
              120A  118A         
  6361                           opt subtitle "HI-TECH Software Omniscient Code Generator (Lite mode) build 49521"
  6362                           
  6363  07C9  3007               	movlw	(07h)
  6364  07CA  120A  158A  2167   	fcall	_SPI_Read_Reg
              120A  118A         
  6365  07CF  1283               	bcf	status, 5	;RP0=0, select bank0
  6366  07D0  1303               	bcf	status, 6	;RP1=0, select bank0
  6367  07D1  00BA               	movwf	(??_SwitchToRxMode+0)+0
  6368  07D2  083A               	movf	(??_SwitchToRxMode+0)+0,w
  6369  07D3  00BB               	movwf	(SwitchToRxMode@value)
  6370                           opt subtitle "HI-TECH Software Omniscient Code Generator (Lite mode) build 49521"
  6371                           
  6372  07D4  083B               	movf	(SwitchToRxMode@value),w
  6373  07D5  00BA               	movwf	(??_SwitchToRxMode+0)+0
  6374  07D6  083A               	movf	(??_SwitchToRxMode+0)+0,w
  6375  07D7  00B7               	movwf	(?_SPI_Write_Reg)
  6376  07D8  3027               	movlw	(027h)
  6377  07D9  120A  158A  210A   	fcall	_SPI_Write_Reg
              120A  118A         
  6378                           opt subtitle "HI-TECH Software Omniscient Code Generator (Lite mode) build 49521"
  6379                           
  6380  07DE                     l3898:	
  6381                           opt subtitle "HI-TECH Software Omniscient Code Generator (Lite mode) build 49521"
  6382  07DE  1283               	bcf	status, 5	;RP0=0, select bank0
  6383  07DF  1303               	bcf	status, 6	;RP1=0, select bank0
  6384  07E0  1107               	bcf	(7),2	;volatile
  6385                           opt subtitle "HI-TECH Software Omniscient Code Generator (Lite mode) build 49521"
  6386                           
  6387  07E1  3000               	movlw	(0)
  6388  07E2  120A  158A  2167   	fcall	_SPI_Read_Reg
              120A  118A         
  6389  07E7  1283               	bcf	status, 5	;RP0=0, select bank0
  6390  07E8  1303               	bcf	status, 6	;RP1=0, select bank0
  6391  07E9  00BA               	movwf	(??_SwitchToRxMode+0)+0
  6392  07EA  083A               	movf	(??_SwitchToRxMode+0)+0,w
  6393  07EB  00BB               	movwf	(SwitchToRxMode@value)
  6394                           opt subtitle "HI-TECH Software Omniscient Code Generator (Lite mode) build 49521"
  6395                           
  6396  07EC                     l3900:	
  6397                           opt subtitle "HI-TECH Software Omniscient Code Generator (Lite mode) build 49521"
  6398  07EC  083B               	movf	(SwitchToRxMode@value),w
  6399  07ED  3801               	iorlw	01h
  6400  07EE  00BA               	movwf	(??_SwitchToRxMode+0)+0
  6401  07EF  083A               	movf	(??_SwitchToRxMode+0)+0,w
  6402  07F0  00BB               	movwf	(SwitchToRxMode@value)
  6403                           opt subtitle "HI-TECH Software Omniscient Code Generator (Lite mode) build 49521"
  6404                           
  6405  07F1                     l3902:	
  6406                           opt subtitle "HI-TECH Software Omniscient Code Generator (Lite mode) build 49521"
  6407  07F1  083B               	movf	(SwitchToRxMode@value),w
  6408  07F2  00BA               	movwf	(??_SwitchToRxMode+0)+0
  6409  07F3  083A               	movf	(??_SwitchToRxMode+0)+0,w
  6410  07F4  00B7               	movwf	(?_SPI_Write_Reg)
  6411  07F5  3020               	movlw	(020h)
  6412  07F6  120A  158A  210A   	fcall	_SPI_Write_Reg
              120A  118A         
  6413                           opt subtitle "HI-TECH Software Omniscient Code Generator (Lite mode) build 49521"
  6414                           
  6415  07FB                     l3904:	
  6416                           opt subtitle "HI-TECH Software Omniscient Code Generator (Lite mode) build 49521"
  6417  07FB  1283               	bcf	status, 5	;RP0=0, select bank0
  6418  07FC  1303               	bcf	status, 6	;RP1=0, select bank0
  6419  07FD  1507               	bsf	(7),2	;volatile
  6420                           opt subtitle "HI-TECH Software Omniscient Code Generator (Lite mode) build 49521"
  6421                           
  6422  07FE                     l315:	
  6423  07FE  0008               	return
  6424                           opt subtitle "HI-TECH Software Omniscient Code Generator (Lite mode) build 49521"
  6425                           
  6426  07FF                     	__end_of_SwitchToRxMode:
  6427                           opt subtitle "HI-TECH Software Omniscient Code Generator (Lite mode) build 49521"
  6428                           
  6429                           opt pagewidth 120
  6430                           
  6431                           	opt lm
  6432                           
  6433                           	processor	16F707
  6434                           clrc	macro
  6435                           	bcf	3,0
  6436                           	endm
  6437                           clrz	macro
  6438                           	bcf	3,2
  6439                           	endm
  6440                           setc	macro
  6441                           	bsf	3,0
  6442                           	endm
  6443                           setz	macro
  6444                           	bsf	3,2
  6445                           	endm
  6446                           skipc	macro
  6447                           	btfss	3,0
  6448                           	endm
  6449                           skipz	macro
  6450                           	btfss	3,2
  6451                           	endm
  6452                           skipnc	macro
  6453                           	btfsc	3,0
  6454                           	endm
  6455                           skipnz	macro
  6456                           	btfsc	3,2
  6457                           	endm
  6458                           indf	equ	0
  6459                           indf0	equ	0
  6460                           pc	equ	2
  6461                           pcl	equ	2
  6462  0980                     __ptext1042:	;psect for function _rfm70TxDataSentInterrupt
  6463                           opt subtitle "HI-TECH Software Omniscient Code Generator (Lite mode) build 49521"
  6464                           
  6465                           opt pagewidth 120
  6466                           
  6467  001F                     	__size_of_rfm70TxDataSentInterrupt	equ	__end_of_rfm70TxDataSentInterrupt-_rfm70TxDataSe
                                 ntInterrupt
  6468                           opt subtitle "HI-TECH Software Omniscient Code Generator (Lite mode) build 49521"
  6469  0980                     _rfm70TxDataSentInterrupt:	
  6470                           opt subtitle "HI-TECH Software Omniscient Code Generator (Lite mode) build 49521"
  6471                           
  6472                           opt pagewidth 120
  6473                           
  6474  0980                     l3882:	
  6475                           opt subtitle "HI-TECH Software Omniscient Code Generator (Lite mode) build 49521"
  6476  0980  3007               	movlw	(07h)
  6477  0981  120A  158A  2167   	fcall	_SPI_Read_Reg
              120A  158A         
  6478  0986  1283               	bcf	status, 5	;RP0=0, select bank0
  6479  0987  1303               	bcf	status, 6	;RP1=0, select bank0
  6480  0988  00BA               	movwf	(??_rfm70TxDataSentInterrupt+0)+0
  6481  0989  1EBA               	btfss	0+(??_rfm70TxDataSentInterrupt+0)+0,(5)&7
  6482  098A  298C               	goto	u3471
  6483  098B  298D               	goto	u3470
  6484  098C                     u3471:
  6485  098C  299B               	goto	l3892
  6486  098D                     u3470:
  6487                           opt subtitle "HI-TECH Software Omniscient Code Generator (Lite mode) build 49521"
  6488                           
  6489  098D                     l3884:	
  6490                           opt subtitle "HI-TECH Software Omniscient Code Generator (Lite mode) build 49521"
  6491  098D  3020               	movlw	(020h)
  6492  098E  00BA               	movwf	(??_rfm70TxDataSentInterrupt+0)+0
  6493  098F  083A               	movf	(??_rfm70TxDataSentInterrupt+0)+0,w
  6494  0990  00B7               	movwf	(?_SPI_Write_Reg)
  6495  0991  3027               	movlw	(027h)
  6496  0992  120A  158A  210A   	fcall	_SPI_Write_Reg
              120A  158A         
  6497                           opt subtitle "HI-TECH Software Omniscient Code Generator (Lite mode) build 49521"
  6498                           
  6499  0997                     l3886:	
  6500                           opt subtitle "HI-TECH Software Omniscient Code Generator (Lite mode) build 49521"
  6501  0997  3001               	movlw	(01h)
  6502  0998  299E               	goto	l364
  6503                           opt subtitle "HI-TECH Software Omniscient Code Generator (Lite mode) build 49521"
  6504  0999                     l3888:	
  6505  0999  299E               	goto	l364
  6506                           opt subtitle "HI-TECH Software Omniscient Code Generator (Lite mode) build 49521"
  6507                           
  6508  099A                     l3890:	
  6509                           opt subtitle "HI-TECH Software Omniscient Code Generator (Lite mode) build 49521"
  6510  099A  299E               	goto	l364
  6511                           opt subtitle "HI-TECH Software Omniscient Code Generator (Lite mode) build 49521"
  6512                           
  6513  099B                     l363:	
  6514                           opt subtitle "HI-TECH Software Omniscient Code Generator (Lite mode) build 49521"
  6515                           
  6516  099B                     l3892:	
  6517                           opt subtitle "HI-TECH Software Omniscient Code Generator (Lite mode) build 49521"
  6518                           
  6519  099B  3000               	movlw	(0)
  6520  099C  299E               	goto	l364
  6521                           opt subtitle "HI-TECH Software Omniscient Code Generator (Lite mode) build 49521"
  6522  099D                     l3894:	
  6523  099D  299E               	goto	l364
  6524                           opt subtitle "HI-TECH Software Omniscient Code Generator (Lite mode) build 49521"
  6525  099E                     l365:	
  6526                           opt subtitle "HI-TECH Software Omniscient Code Generator (Lite mode) build 49521"
  6527                           
  6528  099E                     l364:	
  6529  099E  0008               	return
  6530                           opt subtitle "HI-TECH Software Omniscient Code Generator (Lite mode) build 49521"
  6531                           
  6532  099F                     	__end_of_rfm70TxDataSentInterrupt:
  6533                           opt subtitle "HI-TECH Software Omniscient Code Generator (Lite mode) build 49521"
  6534                           
  6535                           opt pagewidth 120
  6536                           
  6537                           	opt lm
  6538                           
  6539                           	processor	16F707
  6540                           clrc	macro
  6541                           	bcf	3,0
  6542                           	endm
  6543                           clrz	macro
  6544                           	bcf	3,2
  6545                           	endm
  6546                           setc	macro
  6547                           	bsf	3,0
  6548                           	endm
  6549                           setz	macro
  6550                           	bsf	3,2
  6551                           	endm
  6552                           skipc	macro
  6553                           	btfss	3,0
  6554                           	endm
  6555                           skipz	macro
  6556                           	btfss	3,2
  6557                           	endm
  6558                           skipnc	macro
  6559                           	btfsc	3,0
  6560                           	endm
  6561                           skipnz	macro
  6562                           	btfsc	3,2
  6563                           	endm
  6564                           indf	equ	0
  6565                           indf0	equ	0
  6566                           pc	equ	2
  6567                           pcl	equ	2
  6568                           status	equ	3
  6569                           fsr	equ	4
  6570                           fsr0	equ	4
  6571                           c	equ	1
  6572  0A36                     __ptext1043:	;psect for function _SPI_Write_Buf
  6573                           opt subtitle "HI-TECH Software Omniscient Code Generator (Lite mode) build 49521"
  6574                           
  6575                           opt pagewidth 120
  6576                           
  6577  002A                     	__size_of_SPI_Write_Buf	equ	__end_of_SPI_Write_Buf-_SPI_Write_Buf
  6578                           opt subtitle "HI-TECH Software Omniscient Code Generator (Lite mode) build 49521"
  6579  0A36                     _SPI_Write_Buf:	
  6580                           opt subtitle "HI-TECH Software Omniscient Code Generator (Lite mode) build 49521"
  6581                           
  6582                           opt pagewidth 120
  6583                           
  6584  0A36  1283               	bcf	status, 5	;RP0=0, select bank0
  6585  0A37  1303               	bcf	status, 6	;RP1=0, select bank0
  6586  0A38  00BA               	movwf	(SPI_Write_Buf@reg)
  6587                           opt subtitle "HI-TECH Software Omniscient Code Generator (Lite mode) build 49521"
  6588  0A39                     l3868:	
  6589                           opt subtitle "HI-TECH Software Omniscient Code Generator (Lite mode) build 49521"
  6590                           
  6591  0A39  1108               	bcf	(8),2	;volatile
  6592                           opt subtitle "HI-TECH Software Omniscient Code Generator (Lite mode) build 49521"
  6593                           
  6594  0A3A                     l3870:	
  6595                           opt subtitle "HI-TECH Software Omniscient Code Generator (Lite mode) build 49521"
  6596  0A3A  083A               	movf	(SPI_Write_Buf@reg),w
  6597  0A3B  120A  158A  214E   	fcall	_SPI_RW
              120A  158A         
  6598                           opt subtitle "HI-TECH Software Omniscient Code Generator (Lite mode) build 49521"
  6599                           
  6600  0A40                     l3872:	
  6601                           opt subtitle "HI-TECH Software Omniscient Code Generator (Lite mode) build 49521"
  6602  0A40  1283               	bcf	status, 5	;RP0=0, select bank0
  6603  0A41  1303               	bcf	status, 6	;RP1=0, select bank0
  6604  0A42  01BB               	clrf	(SPI_Write_Buf@byte_ctr)
  6605  0A43  2A58               	goto	l3880
  6606                           opt subtitle "HI-TECH Software Omniscient Code Generator (Lite mode) build 49521"
  6607                           
  6608  0A44                     l310:	
  6609                           opt subtitle "HI-TECH Software Omniscient Code Generator (Lite mode) build 49521"
  6610  0A44                     l3874:	
  6611                           opt subtitle "HI-TECH Software Omniscient Code Generator (Lite mode) build 49521"
  6612  0A44  0837               	movf	(SPI_Write_Buf@pBuf),w
  6613  0A45  0084               	movwf	fsr0
  6614  0A46  1383               	bcf	status, 7	;select IRP bank0
  6615  0A47  0800               	movf	indf,w
  6616  0A48  120A  158A  214E   	fcall	_SPI_RW
              120A  158A         
  6617                           opt subtitle "HI-TECH Software Omniscient Code Generator (Lite mode) build 49521"
  6618  0A4D                     l3876:	
  6619  0A4D  3001               	movlw	(01h)
  6620  0A4E  1283               	bcf	status, 5	;RP0=0, select bank0
  6621  0A4F  1303               	bcf	status, 6	;RP1=0, select bank0
  6622  0A50  00B9               	movwf	(??_SPI_Write_Buf+0)+0
  6623  0A51  0839               	movf	(??_SPI_Write_Buf+0)+0,w
  6624  0A52  07B7               	addwf	(SPI_Write_Buf@pBuf),f
  6625                           opt subtitle "HI-TECH Software Omniscient Code Generator (Lite mode) build 49521"
  6626                           
  6627  0A53                     l3878:	
  6628  0A53  3001               	movlw	(01h)
  6629  0A54  00B9               	movwf	(??_SPI_Write_Buf+0)+0
  6630  0A55  0839               	movf	(??_SPI_Write_Buf+0)+0,w
  6631  0A56  07BB               	addwf	(SPI_Write_Buf@byte_ctr),f
  6632  0A57  2A58               	goto	l3880
  6633                           opt subtitle "HI-TECH Software Omniscient Code Generator (Lite mode) build 49521"
  6634  0A58                     l309:	
  6635                           opt subtitle "HI-TECH Software Omniscient Code Generator (Lite mode) build 49521"
  6636  0A58                     l3880:	
  6637  0A58  0838               	movf	(SPI_Write_Buf@length),w
  6638  0A59  023B               	subwf	(SPI_Write_Buf@byte_ctr),w
  6639  0A5A  1C03               	skipc
  6640  0A5B  2A5D               	goto	u3461
  6641  0A5C  2A5E               	goto	u3460
  6642  0A5D                     u3461:
  6643  0A5D  2A44               	goto	l3874
  6644  0A5E                     u3460:
  6645                           opt subtitle "HI-TECH Software Omniscient Code Generator (Lite mode) build 49521"
  6646  0A5E                     l311:	
  6647                           opt subtitle "HI-TECH Software Omniscient Code Generator (Lite mode) build 49521"
  6648                           
  6649  0A5E  1508               	bsf	(8),2	;volatile
  6650                           opt subtitle "HI-TECH Software Omniscient Code Generator (Lite mode) build 49521"
  6651                           
  6652  0A5F                     l312:	
  6653  0A5F  0008               	return
  6654                           opt subtitle "HI-TECH Software Omniscient Code Generator (Lite mode) build 49521"
  6655                           
  6656  0A60                     	__end_of_SPI_Write_Buf:
  6657                           opt subtitle "HI-TECH Software Omniscient Code Generator (Lite mode) build 49521"
  6658                           
  6659                           opt pagewidth 120
  6660                           
  6661                           	opt lm
  6662                           
  6663                           	processor	16F707
  6664                           clrc	macro
  6665                           	bcf	3,0
  6666                           	endm
  6667                           clrz	macro
  6668                           	bcf	3,2
  6669                           	endm
  6670                           setc	macro
  6671                           	bsf	3,0
  6672                           	endm
  6673                           setz	macro
  6674                           	bsf	3,2
  6675                           	endm
  6676                           skipc	macro
  6677                           	btfss	3,0
  6678                           	endm
  6679                           skipz	macro
  6680                           	btfss	3,2
  6681                           	endm
  6682                           skipnc	macro
  6683                           	btfsc	3,0
  6684                           	endm
  6685                           skipnz	macro
  6686                           	btfsc	3,2
  6687                           	endm
  6688                           indf	equ	0
  6689                           indf0	equ	0
  6690                           pc	equ	2
  6691                           pcl	equ	2
  6692  0A0C                     __ptext1044:	;psect for function _SwitchToTxMode
  6693                           opt subtitle "HI-TECH Software Omniscient Code Generator (Lite mode) build 49521"
  6694                           
  6695                           opt pagewidth 120
  6696                           
  6697  002A                     	__size_of_SwitchToTxMode	equ	__end_of_SwitchToTxMode-_SwitchToTxMode
  6698                           opt subtitle "HI-TECH Software Omniscient Code Generator (Lite mode) build 49521"
  6699  0A0C                     _SwitchToTxMode:	
  6700                           opt subtitle "HI-TECH Software Omniscient Code Generator (Lite mode) build 49521"
  6701                           
  6702                           opt pagewidth 120
  6703                           
  6704  0A0C                     l3846:	
  6705                           opt subtitle "HI-TECH Software Omniscient Code Generator (Lite mode) build 49521"
  6706                           
  6707  0A0C  1283               	bcf	status, 5	;RP0=0, select bank0
  6708  0A0D  1303               	bcf	status, 6	;RP1=0, select bank0
  6709  0A0E  01B7               	clrf	(?_SPI_Write_Reg)
  6710  0A0F  30E1               	movlw	(0E1h)
  6711  0A10  120A  158A  210A   	fcall	_SPI_Write_Reg
              120A  158A         
  6712                           opt subtitle "HI-TECH Software Omniscient Code Generator (Lite mode) build 49521"
  6713                           
  6714  0A15                     l3848:	
  6715                           opt subtitle "HI-TECH Software Omniscient Code Generator (Lite mode) build 49521"
  6716  0A15  1283               	bcf	status, 5	;RP0=0, select bank0
  6717  0A16  1303               	bcf	status, 6	;RP1=0, select bank0
  6718  0A17  1107               	bcf	(7),2	;volatile
  6719                           opt subtitle "HI-TECH Software Omniscient Code Generator (Lite mode) build 49521"
  6720                           
  6721  0A18  3000               	movlw	(0)
  6722  0A19  120A  158A  2167   	fcall	_SPI_Read_Reg
              120A  158A         
  6723  0A1E  1283               	bcf	status, 5	;RP0=0, select bank0
  6724  0A1F  1303               	bcf	status, 6	;RP1=0, select bank0
  6725  0A20  00BA               	movwf	(??_SwitchToTxMode+0)+0
  6726  0A21  083A               	movf	(??_SwitchToTxMode+0)+0,w
  6727  0A22  00BB               	movwf	(SwitchToTxMode@value)
  6728                           opt subtitle "HI-TECH Software Omniscient Code Generator (Lite mode) build 49521"
  6729                           
  6730  0A23                     l3850:	
  6731                           opt subtitle "HI-TECH Software Omniscient Code Generator (Lite mode) build 49521"
  6732  0A23  083B               	movf	(SwitchToTxMode@value),w
  6733  0A24  39FE               	andlw	0FEh
  6734  0A25  00BA               	movwf	(??_SwitchToTxMode+0)+0
  6735  0A26  083A               	movf	(??_SwitchToTxMode+0)+0,w
  6736  0A27  00BB               	movwf	(SwitchToTxMode@value)
  6737                           opt subtitle "HI-TECH Software Omniscient Code Generator (Lite mode) build 49521"
  6738                           
  6739  0A28                     l3852:	
  6740                           opt subtitle "HI-TECH Software Omniscient Code Generator (Lite mode) build 49521"
  6741  0A28  083B               	movf	(SwitchToTxMode@value),w
  6742  0A29  00BA               	movwf	(??_SwitchToTxMode+0)+0
  6743  0A2A  083A               	movf	(??_SwitchToTxMode+0)+0,w
  6744  0A2B  00B7               	movwf	(?_SPI_Write_Reg)
  6745  0A2C  3020               	movlw	(020h)
  6746  0A2D  120A  158A  210A   	fcall	_SPI_Write_Reg
              120A  158A         
  6747                           opt subtitle "HI-TECH Software Omniscient Code Generator (Lite mode) build 49521"
  6748                           
  6749  0A32                     l3854:	
  6750                           opt subtitle "HI-TECH Software Omniscient Code Generator (Lite mode) build 49521"
  6751  0A32  1283               	bcf	status, 5	;RP0=0, select bank0
  6752  0A33  1303               	bcf	status, 6	;RP1=0, select bank0
  6753  0A34  1507               	bsf	(7),2	;volatile
  6754                           opt subtitle "HI-TECH Software Omniscient Code Generator (Lite mode) build 49521"
  6755                           
  6756  0A35                     l318:	
  6757  0A35  0008               	return
  6758                           opt subtitle "HI-TECH Software Omniscient Code Generator (Lite mode) build 49521"
  6759                           
  6760  0A36                     	__end_of_SwitchToTxMode:
  6761                           opt subtitle "HI-TECH Software Omniscient Code Generator (Lite mode) build 49521"
  6762                           
  6763                           opt pagewidth 120
  6764                           
  6765                           	opt lm
  6766                           
  6767                           	processor	16F707
  6768                           clrc	macro
  6769                           	bcf	3,0
  6770                           	endm
  6771                           clrz	macro
  6772                           	bcf	3,2
  6773                           	endm
  6774                           setc	macro
  6775                           	bsf	3,0
  6776                           	endm
  6777                           setz	macro
  6778                           	bsf	3,2
  6779                           	endm
  6780                           skipc	macro
  6781                           	btfss	3,0
  6782                           	endm
  6783                           skipz	macro
  6784                           	btfss	3,2
  6785                           	endm
  6786                           skipnc	macro
  6787                           	btfsc	3,0
  6788                           	endm
  6789                           skipnz	macro
  6790                           	btfsc	3,2
  6791                           	endm
  6792                           indf	equ	0
  6793                           indf0	equ	0
  6794                           pc	equ	2
  6795  0CE5                     __ptext1045:	;psect for function _sleep
  6796                           opt subtitle "HI-TECH Software Omniscient Code Generator (Lite mode) build 49521"
  6797                           
  6798                           opt pagewidth 120
  6799                           
  6800  0091                     	__size_of_sleep	equ	__end_of_sleep-_sleep
  6801                           opt subtitle "HI-TECH Software Omniscient Code Generator (Lite mode) build 49521"
  6802  0CE5                     _sleep:	
  6803                           opt subtitle "HI-TECH Software Omniscient Code Generator (Lite mode) build 49521"
  6804                           
  6805                           opt pagewidth 120
  6806                           
  6807  0CE5                     l2822:	
  6808                           opt subtitle "HI-TECH Software Omniscient Code Generator (Lite mode) build 49521"
  6809                           
  6810  0CE5  120A  158A  2260   	fcall	_adcReadVcap
              120A  158A         
  6811  0CEA  1283               	bcf	status, 5	;RP0=0, select bank0
  6812  0CEB  1303               	bcf	status, 6	;RP1=0, select bank0
  6813  0CEC  00B7               	movwf	(??_sleep+0)+0+0
  6814  0CED  01B8               	clrf	(??_sleep+0)+0+1
  6815  0CEE  0837               	movf	0+(??_sleep+0)+0,w
  6816  0CEF  1683               	bsf	status, 5	;RP0=1, select bank1
  6817  0CF0  1303               	bcf	status, 6	;RP1=0, select bank1
  6818  0CF1  00E1               	movwf	(_value)^080h
  6819  0CF2  1283               	bcf	status, 5	;RP0=0, select bank0
  6820  0CF3  1303               	bcf	status, 6	;RP1=0, select bank0
  6821  0CF4  0838               	movf	1+(??_sleep+0)+0,w
  6822  0CF5  1683               	bsf	status, 5	;RP0=1, select bank1
  6823  0CF6  1303               	bcf	status, 6	;RP1=0, select bank1
  6824  0CF7  00E2               	movwf	(_value+1)^080h
  6825                           opt subtitle "HI-TECH Software Omniscient Code Generator (Lite mode) build 49521"
  6826                           
  6827  0CF8                     l2824:	
  6828                           opt subtitle "HI-TECH Software Omniscient Code Generator (Lite mode) build 49521"
  6829  0CF8  3000               	movlw	high(07Ah)
  6830  0CF9  0262               	subwf	(_value+1)^080h,w
  6831  0CFA  307A               	movlw	low(07Ah)
  6832  0CFB  1903               	skipnz
  6833  0CFC  0261               	subwf	(_value)^080h,w
  6834  0CFD  1C03               	skipc
  6835  0CFE  2D00               	goto	u2201
  6836  0CFF  2D01               	goto	u2200
  6837  0D00                     u2201:
  6838  0D00  2D5D               	goto	l184
  6839  0D01                     u2200:
  6840                           opt subtitle "HI-TECH Software Omniscient Code Generator (Lite mode) build 49521"
  6841  0D01                     l2826:	
  6842  0D01  1283               	bcf	status, 5	;RP0=0, select bank0
  6843  0D02  1303               	bcf	status, 6	;RP1=0, select bank0
  6844  0D03  0859               	movf	(_charge_pulse+1),w
  6845  0D04  0458               	iorwf	(_charge_pulse),w
  6846  0D05  1903               	skipnz
  6847  0D06  2D08               	goto	u2211
  6848  0D07  2D09               	goto	u2210
  6849  0D08                     u2211:
  6850  0D08  2D5D               	goto	l184
  6851  0D09                     u2210:
  6852                           opt subtitle "HI-TECH Software Omniscient Code Generator (Lite mode) build 49521"
  6853  0D09                     l2828:	
  6854  0D09  1A88               	btfsc	(8),5	;volatile
  6855  0D0A  2D0C               	goto	u2221
  6856  0D0B  2D0D               	goto	u2220
  6857  0D0C                     u2221:
  6858  0D0C  2D5D               	goto	l184
  6859  0D0D                     u2220:
  6860                           opt subtitle "HI-TECH Software Omniscient Code Generator (Lite mode) build 49521"
  6861                           
  6862  0D0D                     l2830:	
  6863                           opt subtitle "HI-TECH Software Omniscient Code Generator (Lite mode) build 49521"
  6864  0D0D  1206               	bcf	(6),4	;volatile
  6865                           opt subtitle "HI-TECH Software Omniscient Code Generator (Lite mode) build 49521"
  6866                           
  6867  0D0E  1010               	bcf	(16),0	;volatile
  6868                           opt subtitle "HI-TECH Software Omniscient Code Generator (Lite mode) build 49521"
  6869                           
  6870  0D0F                     l2832:	
  6871                           opt subtitle "HI-TECH Software Omniscient Code Generator (Lite mode) build 49521"
  6872  0D0F  0859               	movf	(_charge_pulse+1),w
  6873  0D10  00B8               	movwf	(??_sleep+0)+0+1
  6874  0D11  0858               	movf	(_charge_pulse),w
  6875  0D12  00B7               	movwf	(??_sleep+0)+0
  6876  0D13  3002               	movlw	02h
  6877  0D14  00FF               	movwf	btemp+1
  6878  0D15                     u2235:
  6879  0D15  1003               	clrc
  6880  0D16  0DB7               	rlf	(??_sleep+0)+0,f
  6881  0D17  0DB8               	rlf	(??_sleep+0)+1,f
  6882  0D18  0BFF               	decfsz	btemp+1,f
  6883  0D19  2D15               	goto	u2235
  6884  0D1A  09B7               	comf	(??_sleep+0)+0,f
  6885  0D1B  09B8               	comf	(??_sleep+0)+1,f
  6886  0D1C  0AB7               	incf	(??_sleep+0)+0,f
  6887  0D1D  1903               	skipnz
  6888  0D1E  0AB8               	incf	(??_sleep+0)+1,f
  6889  0D1F  0837               	movf	0+(??_sleep+0)+0,w
  6890  0D20  00D4               	movwf	(_charge_time)
  6891  0D21  0838               	movf	1+(??_sleep+0)+0,w
  6892  0D22  00D5               	movwf	(_charge_time+1)
  6893                           opt subtitle "HI-TECH Software Omniscient Code Generator (Lite mode) build 49521"
  6894                           
  6895  0D23                     l2834:	
  6896                           opt subtitle "HI-TECH Software Omniscient Code Generator (Lite mode) build 49521"
  6897  0D23  0855               	movf	(_charge_time+1),w
  6898  0D24  008F               	movwf	(15)	;volatile
  6899                           opt subtitle "HI-TECH Software Omniscient Code Generator (Lite mode) build 49521"
  6900                           
  6901  0D25                     l2836:	
  6902                           opt subtitle "HI-TECH Software Omniscient Code Generator (Lite mode) build 49521"
  6903  0D25  0854               	movf	(_charge_time),w
  6904  0D26  008E               	movwf	(14)	;volatile
  6905                           opt subtitle "HI-TECH Software Omniscient Code Generator (Lite mode) build 49521"
  6906                           
  6907  0D27                     l2838:	
  6908                           opt subtitle "HI-TECH Software Omniscient Code Generator (Lite mode) build 49521"
  6909  0D27  1410               	bsf	(16),0	;volatile
  6910                           opt subtitle "HI-TECH Software Omniscient Code Generator (Lite mode) build 49521"
  6911                           
  6912  0D28  0063               sleep ;# 
  6913                           opt subtitle "HI-TECH Software Omniscient Code Generator (Lite mode) build 49521"
  6914                           
  6915                           opt pagewidth 120
  6916  0D29                     l2840:	
  6917                           opt subtitle "HI-TECH Software Omniscient Code Generator (Lite mode) build 49521"
  6918  0D29  120A  158A  2260   	fcall	_adcReadVcap
              120A  158A         
  6919  0D2E  1283               	bcf	status, 5	;RP0=0, select bank0
  6920  0D2F  1303               	bcf	status, 6	;RP1=0, select bank0
  6921  0D30  00B7               	movwf	(??_sleep+0)+0
  6922  0D31  0837               	movf	(??_sleep+0)+0,w
  6923  0D32  00B9               	movwf	(sleep@new_value)
  6924                           opt subtitle "HI-TECH Software Omniscient Code Generator (Lite mode) build 49521"
  6925                           
  6926  0D33                     l2842:	
  6927                           opt subtitle "HI-TECH Software Omniscient Code Generator (Lite mode) build 49521"
  6928  0D33  1606               	bsf	(6),4	;volatile
  6929                           opt subtitle "HI-TECH Software Omniscient Code Generator (Lite mode) build 49521"
  6930                           
  6931  0D34                     l2844:	
  6932                           opt subtitle "HI-TECH Software Omniscient Code Generator (Lite mode) build 49521"
  6933  0D34  0954               	comf	(_charge_time),w
  6934  0D35  00B7               	movwf	(??_sleep+0)+0
  6935  0D36  0955               	comf	(_charge_time+1),w
  6936  0D37  00B8               	movwf	((??_sleep+0)+0+1)
  6937  0D38  0AB7               	incf	(??_sleep+0)+0,f
  6938  0D39  1903               	skipnz
  6939  0D3A  0AB8               	incf	((??_sleep+0)+0+1),f
  6940  0D3B  0837               	movf	0+(??_sleep+0)+0,w
  6941  0D3C  3E00               	addlw	low(01000h)
  6942  0D3D  00D4               	movwf	(_charge_time)
  6943  0D3E  0838               	movf	1+(??_sleep+0)+0,w
  6944  0D3F  1803               	skipnc
  6945  0D40  3E01               	addlw	1
  6946  0D41  3E10               	addlw	high(01000h)
  6947  0D42  00D5               	movwf	1+(_charge_time)
  6948                           opt subtitle "HI-TECH Software Omniscient Code Generator (Lite mode) build 49521"
  6949                           
  6950  0D43                     l2846:	
  6951                           opt subtitle "HI-TECH Software Omniscient Code Generator (Lite mode) build 49521"
  6952  0D43  1010               	bcf	(16),0	;volatile
  6953                           opt subtitle "HI-TECH Software Omniscient Code Generator (Lite mode) build 49521"
  6954                           
  6955  0D44                     l2848:	
  6956                           opt subtitle "HI-TECH Software Omniscient Code Generator (Lite mode) build 49521"
  6957  0D44  0855               	movf	(_charge_time+1),w
  6958  0D45  008F               	movwf	(15)	;volatile
  6959                           opt subtitle "HI-TECH Software Omniscient Code Generator (Lite mode) build 49521"
  6960                           
  6961  0D46                     l2850:	
  6962                           opt subtitle "HI-TECH Software Omniscient Code Generator (Lite mode) build 49521"
  6963  0D46  0854               	movf	(_charge_time),w
  6964  0D47  008E               	movwf	(14)	;volatile
  6965                           opt subtitle "HI-TECH Software Omniscient Code Generator (Lite mode) build 49521"
  6966                           
  6967  0D48                     l2852:	
  6968                           opt subtitle "HI-TECH Software Omniscient Code Generator (Lite mode) build 49521"
  6969  0D48  1410               	bsf	(16),0	;volatile
  6970                           opt subtitle "HI-TECH Software Omniscient Code Generator (Lite mode) build 49521"
  6971                           
  6972  0D49  0063               sleep ;# 
  6973                           opt subtitle "HI-TECH Software Omniscient Code Generator (Lite mode) build 49521"
  6974                           
  6975                           opt pagewidth 120
  6976  0D4A                     l2854:	
  6977                           opt subtitle "HI-TECH Software Omniscient Code Generator (Lite mode) build 49521"
  6978  0D4A  1683               	bsf	status, 5	;RP0=1, select bank1
  6979  0D4B  1303               	bcf	status, 6	;RP1=0, select bank1
  6980  0D4C  0861               	movf	(_value)^080h,w
  6981  0D4D  1283               	bcf	status, 5	;RP0=0, select bank0
  6982  0D4E  1303               	bcf	status, 6	;RP1=0, select bank0
  6983  0D4F  00B7               	movwf	(??_sleep+0)+0
  6984  0D50  0837               	movf	(??_sleep+0)+0,w
  6985  0D51  1683               	bsf	status, 5	;RP0=1, select bank1
  6986  0D52  1303               	bcf	status, 6	;RP1=0, select bank1
  6987  0D53  00E3               	movwf	(_values)^080h
  6988                           opt subtitle "HI-TECH Software Omniscient Code Generator (Lite mode) build 49521"
  6989                           
  6990  0D54                     l2856:	
  6991                           opt subtitle "HI-TECH Software Omniscient Code Generator (Lite mode) build 49521"
  6992  0D54  1283               	bcf	status, 5	;RP0=0, select bank0
  6993  0D55  1303               	bcf	status, 6	;RP1=0, select bank0
  6994  0D56  0839               	movf	(sleep@new_value),w
  6995  0D57  00B7               	movwf	(??_sleep+0)+0
  6996  0D58  0837               	movf	(??_sleep+0)+0,w
  6997  0D59  1683               	bsf	status, 5	;RP0=1, select bank1
  6998  0D5A  1303               	bcf	status, 6	;RP1=0, select bank1
  6999  0D5B  00E4               	movwf	0+(_values)^080h+01h
  7000                           opt subtitle "HI-TECH Software Omniscient Code Generator (Lite mode) build 49521"
  7001                           
  7002  0D5C  2D75               	goto	l186
  7003                           opt subtitle "HI-TECH Software Omniscient Code Generator (Lite mode) build 49521"
  7004                           
  7005  0D5D                     l184:	
  7006                           opt subtitle "HI-TECH Software Omniscient Code Generator (Lite mode) build 49521"
  7007                           
  7008                           opt pagewidth 120
  7009  0D5D  1283               	bcf	status, 5	;RP0=0, select bank0
  7010  0D5E  1010               	bcf	(16),0	;volatile
  7011                           opt subtitle "HI-TECH Software Omniscient Code Generator (Lite mode) build 49521"
  7012                           
  7013  0D5F                     l2858:	
  7014                           opt subtitle "HI-TECH Software Omniscient Code Generator (Lite mode) build 49521"
  7015  0D5F  3010               	movlw	(010h)
  7016  0D60  008F               	movwf	(15)	;volatile
  7017                           opt subtitle "HI-TECH Software Omniscient Code Generator (Lite mode) build 49521"
  7018                           
  7019  0D61                     l2860:	
  7020                           opt subtitle "HI-TECH Software Omniscient Code Generator (Lite mode) build 49521"
  7021  0D61  018E               	clrf	(14)	;volatile
  7022                           opt subtitle "HI-TECH Software Omniscient Code Generator (Lite mode) build 49521"
  7023                           
  7024  0D62                     l2862:	
  7025                           opt subtitle "HI-TECH Software Omniscient Code Generator (Lite mode) build 49521"
  7026  0D62  1410               	bsf	(16),0	;volatile
  7027                           opt subtitle "HI-TECH Software Omniscient Code Generator (Lite mode) build 49521"
  7028                           
  7029  0D63  0063               sleep ;# 
  7030                           opt subtitle "HI-TECH Software Omniscient Code Generator (Lite mode) build 49521"
  7031                           
  7032                           opt pagewidth 120
  7033  0D64                     l2864:	
  7034                           opt subtitle "HI-TECH Software Omniscient Code Generator (Lite mode) build 49521"
  7035  0D64  30FF               	movlw	(0FFh)
  7036  0D65  1283               	bcf	status, 5	;RP0=0, select bank0
  7037  0D66  1303               	bcf	status, 6	;RP1=0, select bank0
  7038  0D67  00B7               	movwf	(??_sleep+0)+0
  7039  0D68  0837               	movf	(??_sleep+0)+0,w
  7040  0D69  1683               	bsf	status, 5	;RP0=1, select bank1
  7041  0D6A  1303               	bcf	status, 6	;RP1=0, select bank1
  7042  0D6B  00E3               	movwf	(_values)^080h
  7043                           opt subtitle "HI-TECH Software Omniscient Code Generator (Lite mode) build 49521"
  7044                           
  7045  0D6C                     l2866:	
  7046                           opt subtitle "HI-TECH Software Omniscient Code Generator (Lite mode) build 49521"
  7047  0D6C  30FF               	movlw	(0FFh)
  7048  0D6D  1283               	bcf	status, 5	;RP0=0, select bank0
  7049  0D6E  1303               	bcf	status, 6	;RP1=0, select bank0
  7050  0D6F  00B7               	movwf	(??_sleep+0)+0
  7051  0D70  0837               	movf	(??_sleep+0)+0,w
  7052  0D71  1683               	bsf	status, 5	;RP0=1, select bank1
  7053  0D72  1303               	bcf	status, 6	;RP1=0, select bank1
  7054  0D73  00E4               	movwf	0+(_values)^080h+01h
  7055  0D74  2D75               	goto	l186
  7056                           opt subtitle "HI-TECH Software Omniscient Code Generator (Lite mode) build 49521"
  7057                           
  7058  0D75                     l185:	
  7059                           opt subtitle "HI-TECH Software Omniscient Code Generator (Lite mode) build 49521"
  7060                           
  7061  0D75                     l186:	
  7062  0D75  0008               	return
  7063                           opt subtitle "HI-TECH Software Omniscient Code Generator (Lite mode) build 49521"
  7064                           
  7065  0D76                     	__end_of_sleep:
  7066                           opt subtitle "HI-TECH Software Omniscient Code Generator (Lite mode) build 49521"
  7067                           
  7068                           opt pagewidth 120
  7069                           
  7070                           	opt lm
  7071                           
  7072                           	processor	16F707
  7073                           clrc	macro
  7074                           	bcf	3,0
  7075                           	endm
  7076                           clrz	macro
  7077                           	bcf	3,2
  7078                           	endm
  7079                           setc	macro
  7080                           	bsf	3,0
  7081                           	endm
  7082                           setz	macro
  7083                           	bsf	3,2
  7084                           	endm
  7085                           skipc	macro
  7086                           	btfss	3,0
  7087                           	endm
  7088                           skipz	macro
  7089                           	btfss	3,2
  7090                           	endm
  7091                           skipnc	macro
  7092                           	btfsc	3,0
  7093                           	endm
  7094                           skipnz	macro
  7095                           	btfsc	3,2
  7096                           	endm
  7097                           indf	equ	0
  7098                           indf0	equ	0
  7099                           pc	equ	2
  7100                           pcl	equ	2
  7101  0A60                     __ptext1046:	;psect for function _adcReadVcap
  7102                           opt subtitle "HI-TECH Software Omniscient Code Generator (Lite mode) build 49521"
  7103                           
  7104                           opt pagewidth 120
  7105                           
  7106  002B                     	__size_of_adcReadVcap	equ	__end_of_adcReadVcap-_adcReadVcap
  7107                           opt subtitle "HI-TECH Software Omniscient Code Generator (Lite mode) build 49521"
  7108  0A60                     _adcReadVcap:	
  7109                           opt subtitle "HI-TECH Software Omniscient Code Generator (Lite mode) build 49521"
  7110                           
  7111                           opt pagewidth 120
  7112                           
  7113  0A60                     l2576:	
  7114                           opt subtitle "HI-TECH Software Omniscient Code Generator (Lite mode) build 49521"
  7115                           
  7116  0A60  1283               	bcf	status, 5	;RP0=0, select bank0
  7117  0A61  1303               	bcf	status, 6	;RP1=0, select bank0
  7118  0A62  081F               	movf	(31),w	;volatile
  7119  0A63  39C3               	andlw	not (((1<<4)-1)<<2)
  7120  0A64  3814               	iorlw	(05h & ((1<<4)-1))<<2
  7121  0A65  009F               	movwf	(31)	;volatile
  7122                           opt subtitle "HI-TECH Software Omniscient Code Generator (Lite mode) build 49521"
  7123                           
  7124  0A66  1683               	bsf	status, 5	;RP0=1, select bank1
  7125  0A67  1303               	bcf	status, 6	;RP1=0, select bank1
  7126  0A68  081D               	movf	(157)^080h,w	;volatile
  7127  0A69  39FC               	andlw	not (((1<<2)-1)<<0)
  7128  0A6A  3802               	iorlw	(02h & ((1<<2)-1))<<0
  7129  0A6B  009D               	movwf	(157)^080h	;volatile
  7130                           opt subtitle "HI-TECH Software Omniscient Code Generator (Lite mode) build 49521"
  7131                           
  7132  0A6C                     l2578:	
  7133                           opt subtitle "HI-TECH Software Omniscient Code Generator (Lite mode) build 49521"
  7134  0A6C  1283               	bcf	status, 5	;RP0=0, select bank0
  7135  0A6D  1303               	bcf	status, 6	;RP1=0, select bank0
  7136  0A6E  141F               	bsf	(31),0	;volatile
  7137                           opt subtitle "HI-TECH Software Omniscient Code Generator (Lite mode) build 49521"
  7138                           
  7139  0A6F                     l2580:	
  7140                           opt subtitle "HI-TECH Software Omniscient Code Generator (Lite mode) build 49521"
  7141  0A6F  1588               	bsf	(8),3	;volatile
  7142                           opt subtitle "HI-TECH Software Omniscient Code Generator (Lite mode) build 49521"
  7143                           
  7144  0A70                     l2582:	
  7145                           opt subtitle "HI-TECH Software Omniscient Code Generator (Lite mode) build 49521"
  7146                           
  7147  0A70  3003               movlw	3
  7148  0A71  00B5               movwf	((??_adcReadVcap+0)+0+1),f
  7149  0A72  3097               	movlw	151
  7150  0A73  00B4               movwf	((??_adcReadVcap+0)+0),f
  7151  0A74                     u3817:
  7152  0A74  0BB4               	decfsz	((??_adcReadVcap+0)+0),f
  7153  0A75  2A74               	goto	u3817
  7154  0A76  0BB5               	decfsz	((??_adcReadVcap+0)+0+1),f
  7155  0A77  2A74               	goto	u3817
  7156  0A78  2A79               	nop2
  7157                           opt subtitle "HI-TECH Software Omniscient Code Generator (Lite mode) build 49521"
  7158                           
  7159                           opt pagewidth 120
  7160                           
  7161  0A79                     l2584:	
  7162                           opt subtitle "HI-TECH Software Omniscient Code Generator (Lite mode) build 49521"
  7163  0A79  1283               	bcf	status, 5	;RP0=0, select bank0
  7164  0A7A  1303               	bcf	status, 6	;RP1=0, select bank0
  7165  0A7B  149F               	bsf	(31),1	;volatile
  7166                           opt subtitle "HI-TECH Software Omniscient Code Generator (Lite mode) build 49521"
  7167                           
  7168  0A7C  2A7D               	goto	l195
  7169                           opt subtitle "HI-TECH Software Omniscient Code Generator (Lite mode) build 49521"
  7170  0A7D                     l196:	
  7171                           opt subtitle "HI-TECH Software Omniscient Code Generator (Lite mode) build 49521"
  7172  0A7D                     l195:	
  7173  0A7D  189F               	btfsc	(31),1	;volatile
  7174  0A7E  2A80               	goto	u1811
  7175  0A7F  2A81               	goto	u1810
  7176  0A80                     u1811:
  7177  0A80  2A7D               	goto	l195
  7178  0A81                     u1810:
  7179  0A81  2A82               	goto	l2586
  7180                           opt subtitle "HI-TECH Software Omniscient Code Generator (Lite mode) build 49521"
  7181  0A82                     l197:	
  7182                           opt subtitle "HI-TECH Software Omniscient Code Generator (Lite mode) build 49521"
  7183                           
  7184  0A82                     l2586:	
  7185                           opt subtitle "HI-TECH Software Omniscient Code Generator (Lite mode) build 49521"
  7186  0A82  081E               	movf	(30),w	;volatile
  7187  0A83  00B4               	movwf	(??_adcReadVcap+0)+0
  7188  0A84  0834               	movf	(??_adcReadVcap+0)+0,w
  7189  0A85  00B6               	movwf	(adcReadVcap@value)
  7190                           opt subtitle "HI-TECH Software Omniscient Code Generator (Lite mode) build 49521"
  7191                           
  7192  0A86                     l2588:	
  7193                           opt subtitle "HI-TECH Software Omniscient Code Generator (Lite mode) build 49521"
  7194  0A86  101F               	bcf	(31),0	;volatile
  7195                           opt subtitle "HI-TECH Software Omniscient Code Generator (Lite mode) build 49521"
  7196                           
  7197  0A87                     l2590:	
  7198                           opt subtitle "HI-TECH Software Omniscient Code Generator (Lite mode) build 49521"
  7199  0A87  1188               	bcf	(8),3	;volatile
  7200                           opt subtitle "HI-TECH Software Omniscient Code Generator (Lite mode) build 49521"
  7201                           
  7202  0A88  0836               	movf	(adcReadVcap@value),w
  7203  0A89  2A8A               	goto	l198
  7204                           opt subtitle "HI-TECH Software Omniscient Code Generator (Lite mode) build 49521"
  7205  0A8A                     l2592:	
  7206                           opt subtitle "HI-TECH Software Omniscient Code Generator (Lite mode) build 49521"
  7207                           
  7208  0A8A                     l198:	
  7209  0A8A  0008               	return
  7210                           opt subtitle "HI-TECH Software Omniscient Code Generator (Lite mode) build 49521"
  7211                           
  7212  0A8B                     	__end_of_adcReadVcap:
  7213                           opt subtitle "HI-TECH Software Omniscient Code Generator (Lite mode) build 49521"
  7214                           
  7215                           opt pagewidth 120
  7216                           
  7217                           	opt lm
  7218                           
  7219                           	processor	16F707
  7220                           clrc	macro
  7221                           	bcf	3,0
  7222                           	endm
  7223                           clrz	macro
  7224                           	bcf	3,2
  7225                           	endm
  7226                           setc	macro
  7227                           	bsf	3,0
  7228                           	endm
  7229                           setz	macro
  7230                           	bsf	3,2
  7231                           	endm
  7232                           skipc	macro
  7233                           	btfss	3,0
  7234                           	endm
  7235                           skipz	macro
  7236                           	btfss	3,2
  7237                           	endm
  7238                           skipnc	macro
  7239                           	btfsc	3,0
  7240                           	endm
  7241                           skipnz	macro
  7242                           	btfsc	3,2
  7243                           	endm
  7244                           indf	equ	0
  7245                           indf0	equ	0
  7246                           pc	equ	2
  7247                           pcl	equ	2
  7248  08EB                     __ptext1047:	;psect for function _putch
  7249                           opt subtitle "HI-TECH Software Omniscient Code Generator (Lite mode) build 49521"
  7250                           
  7251                           opt pagewidth 120
  7252                           
  7253  000C                     	__size_of_putch	equ	__end_of_putch-_putch
  7254                           opt subtitle "HI-TECH Software Omniscient Code Generator (Lite mode) build 49521"
  7255  08EB                     _putch:	
  7256                           opt subtitle "HI-TECH Software Omniscient Code Generator (Lite mode) build 49521"
  7257                           
  7258                           opt pagewidth 120
  7259  08EB  1283               	bcf	status, 5	;RP0=0, select bank0
  7260  08EC  1303               	bcf	status, 6	;RP1=0, select bank0
  7261  08ED  00B4               	movwf	(putch@c)
  7262                           opt subtitle "HI-TECH Software Omniscient Code Generator (Lite mode) build 49521"
  7263                           
  7264  08EE                     l3838:	
  7265                           opt subtitle "HI-TECH Software Omniscient Code Generator (Lite mode) build 49521"
  7266  08EE  28EF               	goto	l227
  7267                           opt subtitle "HI-TECH Software Omniscient Code Generator (Lite mode) build 49521"
  7268  08EF                     l228:	
  7269                           opt subtitle "HI-TECH Software Omniscient Code Generator (Lite mode) build 49521"
  7270  08EF                     l227:	
  7271  08EF  1E0C               	btfss	(100/8),(100)&7	;volatile
  7272  08F0  28F2               	goto	u3451
  7273  08F1  28F3               	goto	u3450
  7274  08F2                     u3451:
  7275  08F2  28EF               	goto	l227
  7276  08F3                     u3450:
  7277  08F3  28F4               	goto	l3840
  7278                           opt subtitle "HI-TECH Software Omniscient Code Generator (Lite mode) build 49521"
  7279  08F4                     l229:	
  7280                           opt subtitle "HI-TECH Software Omniscient Code Generator (Lite mode) build 49521"
  7281                           
  7282  08F4                     l3840:	
  7283                           opt subtitle "HI-TECH Software Omniscient Code Generator (Lite mode) build 49521"
  7284  08F4  0834               	movf	(putch@c),w
  7285  08F5  0099               	movwf	(25)	;volatile
  7286                           opt subtitle "HI-TECH Software Omniscient Code Generator (Lite mode) build 49521"
  7287                           
  7288  08F6                     l230:	
  7289  08F6  0008               	return
  7290                           opt subtitle "HI-TECH Software Omniscient Code Generator (Lite mode) build 49521"
  7291                           
  7292  08F7                     	__end_of_putch:
  7293                           opt subtitle "HI-TECH Software Omniscient Code Generator (Lite mode) build 49521"
  7294                           
  7295                           opt pagewidth 120
  7296                           
  7297                           	opt lm
  7298                           
  7299                           	processor	16F707
  7300                           clrc	macro
  7301                           	bcf	3,0
  7302                           	endm
  7303                           clrz	macro
  7304                           	bcf	3,2
  7305                           	endm
  7306                           setc	macro
  7307                           	bsf	3,0
  7308                           	endm
  7309                           setz	macro
  7310                           	bsf	3,2
  7311                           	endm
  7312                           skipc	macro
  7313                           	btfss	3,0
  7314                           	endm
  7315                           skipz	macro
  7316                           	btfss	3,2
  7317                           	endm
  7318                           skipnc	macro
  7319                           	btfsc	3,0
  7320                           	endm
  7321                           skipnz	macro
  7322                           	btfsc	3,2
  7323                           	endm
  7324                           indf	equ	0
  7325                           indf0	equ	0
  7326                           pc	equ	2
  7327                           pcl	equ	2
  7328                           status	equ	3
  7329  0AE2                     __ptext1048:	;psect for function _SwitchCFG
  7330                           opt subtitle "HI-TECH Software Omniscient Code Generator (Lite mode) build 49521"
  7331                           
  7332                           opt pagewidth 120
  7333                           
  7334  0032                     	__size_of_SwitchCFG	equ	__end_of_SwitchCFG-_SwitchCFG
  7335                           opt subtitle "HI-TECH Software Omniscient Code Generator (Lite mode) build 49521"
  7336  0AE2                     _SwitchCFG:	
  7337                           opt subtitle "HI-TECH Software Omniscient Code Generator (Lite mode) build 49521"
  7338                           
  7339                           opt pagewidth 120
  7340                           
  7341  0AE2  1283               	bcf	status, 5	;RP0=0, select bank0
  7342  0AE3  1303               	bcf	status, 6	;RP1=0, select bank0
  7343  0AE4  00BB               	movwf	(SwitchCFG@_cfg)
  7344                           opt subtitle "HI-TECH Software Omniscient Code Generator (Lite mode) build 49521"
  7345  0AE5                     l3990:	
  7346                           opt subtitle "HI-TECH Software Omniscient Code Generator (Lite mode) build 49521"
  7347                           
  7348  0AE5  3007               	movlw	(07h)
  7349  0AE6  120A  158A  2167   	fcall	_SPI_Read_Reg
              120A  158A         
  7350  0AEB  1283               	bcf	status, 5	;RP0=0, select bank0
  7351  0AEC  1303               	bcf	status, 6	;RP1=0, select bank0
  7352  0AED  00BA               	movwf	(??_SwitchCFG+0)+0
  7353  0AEE  083A               	movf	(??_SwitchCFG+0)+0,w
  7354  0AEF  00BC               	movwf	(SwitchCFG@Tmp)
  7355                           opt subtitle "HI-TECH Software Omniscient Code Generator (Lite mode) build 49521"
  7356                           
  7357  0AF0                     l3992:	
  7358                           opt subtitle "HI-TECH Software Omniscient Code Generator (Lite mode) build 49521"
  7359  0AF0  083C               	movf	(SwitchCFG@Tmp),w
  7360  0AF1  3980               	andlw	080h
  7361  0AF2  00BA               	movwf	(??_SwitchCFG+0)+0
  7362  0AF3  083A               	movf	(??_SwitchCFG+0)+0,w
  7363  0AF4  00BC               	movwf	(SwitchCFG@Tmp)
  7364                           opt subtitle "HI-TECH Software Omniscient Code Generator (Lite mode) build 49521"
  7365                           
  7366  0AF5                     l3994:	
  7367                           opt subtitle "HI-TECH Software Omniscient Code Generator (Lite mode) build 49521"
  7368                           
  7369  0AF5  083C               	movf	(SwitchCFG@Tmp),w
  7370  0AF6  1D03               	skipz
  7371  0AF7  2AF9               	goto	u3560
  7372  0AF8  2AFE               	goto	l3998
  7373  0AF9                     u3560:
  7374                           opt subtitle "HI-TECH Software Omniscient Code Generator (Lite mode) build 49521"
  7375  0AF9                     l3996:	
  7376  0AF9  083B               	movf	(SwitchCFG@_cfg),w
  7377  0AFA  1D03               	skipz
  7378  0AFB  2AFD               	goto	u3570
  7379  0AFC  2B08               	goto	l4002
  7380  0AFD                     u3570:
  7381  0AFD  2AFE               	goto	l3998
  7382                           opt subtitle "HI-TECH Software Omniscient Code Generator (Lite mode) build 49521"
  7383  0AFE                     l325:	
  7384                           opt subtitle "HI-TECH Software Omniscient Code Generator (Lite mode) build 49521"
  7385  0AFE                     l3998:	
  7386  0AFE  08BC               	movf	(SwitchCFG@Tmp),f
  7387  0AFF  1D03               	skipz
  7388  0B00  2B02               	goto	u3581
  7389  0B01  2B03               	goto	u3580
  7390  0B02                     u3581:
  7391  0B02  2B13               	goto	l326
  7392  0B03                     u3580:
  7393                           opt subtitle "HI-TECH Software Omniscient Code Generator (Lite mode) build 49521"
  7394  0B03                     l4000:	
  7395  0B03  083B               	movf	(SwitchCFG@_cfg),w
  7396  0B04  1D03               	skipz
  7397  0B05  2B07               	goto	u3590
  7398  0B06  2B13               	goto	l326
  7399  0B07                     u3590:
  7400  0B07  2B08               	goto	l4002
  7401                           opt subtitle "HI-TECH Software Omniscient Code Generator (Lite mode) build 49521"
  7402  0B08                     l323:	
  7403                           opt subtitle "HI-TECH Software Omniscient Code Generator (Lite mode) build 49521"
  7404                           
  7405  0B08                     l4002:	
  7406                           opt subtitle "HI-TECH Software Omniscient Code Generator (Lite mode) build 49521"
  7407                           
  7408  0B08  3053               	movlw	(053h)
  7409  0B09  00BA               	movwf	(??_SwitchCFG+0)+0
  7410  0B0A  083A               	movf	(??_SwitchCFG+0)+0,w
  7411  0B0B  00B7               	movwf	(?_SPI_Write_Reg)
  7412  0B0C  3050               	movlw	(050h)
  7413  0B0D  120A  158A  210A   	fcall	_SPI_Write_Reg
              120A  158A         
  7414  0B12  2B13               	goto	l326
  7415                           opt subtitle "HI-TECH Software Omniscient Code Generator (Lite mode) build 49521"
  7416                           
  7417  0B13                     l321:	
  7418                           opt subtitle "HI-TECH Software Omniscient Code Generator (Lite mode) build 49521"
  7419                           
  7420  0B13                     l326:	
  7421  0B13  0008               	return
  7422                           opt subtitle "HI-TECH Software Omniscient Code Generator (Lite mode) build 49521"
  7423                           
  7424  0B14                     	__end_of_SwitchCFG:
  7425                           opt subtitle "HI-TECH Software Omniscient Code Generator (Lite mode) build 49521"
  7426                           
  7427                           opt pagewidth 120
  7428                           
  7429                           	opt lm
  7430                           
  7431                           	processor	16F707
  7432                           clrc	macro
  7433                           	bcf	3,0
  7434                           	endm
  7435                           clrz	macro
  7436                           	bcf	3,2
  7437                           	endm
  7438                           setc	macro
  7439                           	bsf	3,0
  7440                           	endm
  7441                           setz	macro
  7442                           	bsf	3,2
  7443                           	endm
  7444                           skipc	macro
  7445                           	btfss	3,0
  7446                           	endm
  7447                           skipz	macro
  7448                           	btfss	3,2
  7449                           	endm
  7450                           skipnc	macro
  7451                           	btfsc	3,0
  7452                           	endm
  7453                           skipnz	macro
  7454                           	btfsc	3,2
  7455                           	endm
  7456                           indf	equ	0
  7457                           indf0	equ	0
  7458                           pc	equ	2
  7459                           pcl	equ	2
  7460                           status	equ	3
  7461                           fsr	equ	4
  7462                           fsr0	equ	4
  7463                           c	equ	1
  7464                           z	equ	0
  7465                           pclath	equ	10
  7466                           # 46 "/Applications/microchip/xc8/v1.12/include/pic16f707.h"
  7467                           INDF equ 00h ;# 
  7468                           # 52 "/Applications/microchip/xc8/v1.12/include/pic16f707.h"
  7469  090A                     __ptext1049:	;psect for function _SPI_Write_Reg
  7470                           opt subtitle "HI-TECH Software Omniscient Code Generator (Lite mode) build 49521"
  7471                           
  7472                           opt pagewidth 120
  7473                           
  7474  0016                     	__size_of_SPI_Write_Reg	equ	__end_of_SPI_Write_Reg-_SPI_Write_Reg
  7475                           opt subtitle "HI-TECH Software Omniscient Code Generator (Lite mode) build 49521"
  7476  090A                     _SPI_Write_Reg:	
  7477                           opt subtitle "HI-TECH Software Omniscient Code Generator (Lite mode) build 49521"
  7478                           
  7479                           opt pagewidth 120
  7480  090A  1283               	bcf	status, 5	;RP0=0, select bank0
  7481  090B  1303               	bcf	status, 6	;RP1=0, select bank0
  7482  090C  00B8               	movwf	(SPI_Write_Reg@reg)
  7483                           opt subtitle "HI-TECH Software Omniscient Code Generator (Lite mode) build 49521"
  7484                           
  7485  090D                     l3978:	
  7486                           opt subtitle "HI-TECH Software Omniscient Code Generator (Lite mode) build 49521"
  7487  090D  1108               	bcf	(8),2	;volatile
  7488                           opt subtitle "HI-TECH Software Omniscient Code Generator (Lite mode) build 49521"
  7489                           
  7490  090E                     l3980:	
  7491                           opt subtitle "HI-TECH Software Omniscient Code Generator (Lite mode) build 49521"
  7492  090E  0838               	movf	(SPI_Write_Reg@reg),w
  7493  090F  120A  158A  214E   	fcall	_SPI_RW
              120A  158A         
  7494                           opt subtitle "HI-TECH Software Omniscient Code Generator (Lite mode) build 49521"
  7495                           
  7496  0914  1283               	bcf	status, 5	;RP0=0, select bank0
  7497  0915  1303               	bcf	status, 6	;RP1=0, select bank0
  7498  0916  0837               	movf	(SPI_Write_Reg@value),w
  7499  0917  120A  158A  214E   	fcall	_SPI_RW
              120A  158A         
  7500                           opt subtitle "HI-TECH Software Omniscient Code Generator (Lite mode) build 49521"
  7501                           
  7502  091C                     l3982:	
  7503                           opt subtitle "HI-TECH Software Omniscient Code Generator (Lite mode) build 49521"
  7504  091C  1283               	bcf	status, 5	;RP0=0, select bank0
  7505  091D  1303               	bcf	status, 6	;RP1=0, select bank0
  7506  091E  1508               	bsf	(8),2	;volatile
  7507                           opt subtitle "HI-TECH Software Omniscient Code Generator (Lite mode) build 49521"
  7508                           
  7509  091F                     l297:	
  7510  091F  0008               	return
  7511                           opt subtitle "HI-TECH Software Omniscient Code Generator (Lite mode) build 49521"
  7512                           
  7513  0920                     	__end_of_SPI_Write_Reg:
  7514                           opt subtitle "HI-TECH Software Omniscient Code Generator (Lite mode) build 49521"
  7515                           
  7516                           opt pagewidth 120
  7517                           
  7518                           	opt lm
  7519                           
  7520                           	processor	16F707
  7521                           clrc	macro
  7522                           	bcf	3,0
  7523                           	endm
  7524                           clrz	macro
  7525                           	bcf	3,2
  7526                           	endm
  7527                           setc	macro
  7528                           	bsf	3,0
  7529                           	endm
  7530                           setz	macro
  7531                           	bsf	3,2
  7532                           	endm
  7533                           skipc	macro
  7534                           	btfss	3,0
  7535                           	endm
  7536                           skipz	macro
  7537                           	btfss	3,2
  7538                           	endm
  7539                           skipnc	macro
  7540                           	btfsc	3,0
  7541                           	endm
  7542                           skipnz	macro
  7543                           	btfsc	3,2
  7544                           	endm
  7545                           indf	equ	0
  7546                           indf0	equ	0
  7547                           pc	equ	2
  7548                           pcl	equ	2
  7549                           status	equ	3
  7550                           fsr	equ	4
  7551                           fsr0	equ	4
  7552                           c	equ	1
  7553                           z	equ	0
  7554                           pclath	equ	10
  7555                           # 46 "/Applications/microchip/xc8/v1.12/include/pic16f707.h"
  7556                           INDF equ 00h ;# 
  7557                           # 52 "/Applications/microchip/xc8/v1.12/include/pic16f707.h"
  7558  0967                     __ptext1050:	;psect for function _SPI_Read_Reg
  7559                           opt subtitle "HI-TECH Software Omniscient Code Generator (Lite mode) build 49521"
  7560                           
  7561                           opt pagewidth 120
  7562                           
  7563  0019                     	__size_of_SPI_Read_Reg	equ	__end_of_SPI_Read_Reg-_SPI_Read_Reg
  7564                           opt subtitle "HI-TECH Software Omniscient Code Generator (Lite mode) build 49521"
  7565  0967                     _SPI_Read_Reg:	
  7566                           opt subtitle "HI-TECH Software Omniscient Code Generator (Lite mode) build 49521"
  7567                           
  7568                           opt pagewidth 120
  7569                           
  7570  0967  1283               	bcf	status, 5	;RP0=0, select bank0
  7571  0968  1303               	bcf	status, 6	;RP1=0, select bank0
  7572  0969  00B8               	movwf	(SPI_Read_Reg@reg)
  7573                           opt subtitle "HI-TECH Software Omniscient Code Generator (Lite mode) build 49521"
  7574  096A                     l3856:	
  7575                           opt subtitle "HI-TECH Software Omniscient Code Generator (Lite mode) build 49521"
  7576                           
  7577  096A  1108               	bcf	(8),2	;volatile
  7578                           opt subtitle "HI-TECH Software Omniscient Code Generator (Lite mode) build 49521"
  7579                           
  7580  096B                     l3858:	
  7581                           opt subtitle "HI-TECH Software Omniscient Code Generator (Lite mode) build 49521"
  7582  096B  0838               	movf	(SPI_Read_Reg@reg),w
  7583  096C  120A  158A  214E   	fcall	_SPI_RW
              120A  158A         
  7584                           opt subtitle "HI-TECH Software Omniscient Code Generator (Lite mode) build 49521"
  7585                           
  7586  0971                     l3860:	
  7587                           opt subtitle "HI-TECH Software Omniscient Code Generator (Lite mode) build 49521"
  7588  0971  3000               	movlw	(0)
  7589  0972  120A  158A  214E   	fcall	_SPI_RW
              120A  158A         
  7590  0977  1283               	bcf	status, 5	;RP0=0, select bank0
  7591  0978  1303               	bcf	status, 6	;RP1=0, select bank0
  7592  0979  00B7               	movwf	(??_SPI_Read_Reg+0)+0
  7593  097A  0837               	movf	(??_SPI_Read_Reg+0)+0,w
  7594  097B  00B9               	movwf	(SPI_Read_Reg@value)
  7595                           opt subtitle "HI-TECH Software Omniscient Code Generator (Lite mode) build 49521"
  7596                           
  7597  097C                     l3862:	
  7598                           opt subtitle "HI-TECH Software Omniscient Code Generator (Lite mode) build 49521"
  7599  097C  1508               	bsf	(8),2	;volatile
  7600                           opt subtitle "HI-TECH Software Omniscient Code Generator (Lite mode) build 49521"
  7601                           
  7602  097D                     l3864:	
  7603                           opt subtitle "HI-TECH Software Omniscient Code Generator (Lite mode) build 49521"
  7604  097D  0839               	movf	(SPI_Read_Reg@value),w
  7605  097E  297F               	goto	l300
  7606                           opt subtitle "HI-TECH Software Omniscient Code Generator (Lite mode) build 49521"
  7607  097F                     l3866:	
  7608                           opt subtitle "HI-TECH Software Omniscient Code Generator (Lite mode) build 49521"
  7609                           
  7610  097F                     l300:	
  7611  097F  0008               	return
  7612                           opt subtitle "HI-TECH Software Omniscient Code Generator (Lite mode) build 49521"
  7613                           
  7614  0980                     	__end_of_SPI_Read_Reg:
  7615                           opt subtitle "HI-TECH Software Omniscient Code Generator (Lite mode) build 49521"
  7616                           
  7617                           opt pagewidth 120
  7618                           
  7619                           	opt lm
  7620                           
  7621                           	processor	16F707
  7622                           clrc	macro
  7623                           	bcf	3,0
  7624                           	endm
  7625                           clrz	macro
  7626                           	bcf	3,2
  7627                           	endm
  7628                           setc	macro
  7629                           	bsf	3,0
  7630                           	endm
  7631                           setz	macro
  7632                           	bsf	3,2
  7633                           	endm
  7634                           skipc	macro
  7635                           	btfss	3,0
  7636                           	endm
  7637                           skipz	macro
  7638                           	btfss	3,2
  7639                           	endm
  7640                           skipnc	macro
  7641                           	btfsc	3,0
  7642                           	endm
  7643                           skipnz	macro
  7644                           	btfsc	3,2
  7645                           	endm
  7646                           indf	equ	0
  7647                           indf0	equ	0
  7648                           pc	equ	2
  7649                           pcl	equ	2
  7650                           status	equ	3
  7651                           fsr	equ	4
  7652  094E                     __ptext1051:	;psect for function _SPI_RW
  7653                           opt subtitle "HI-TECH Software Omniscient Code Generator (Lite mode) build 49521"
  7654                           
  7655                           opt pagewidth 120
  7656                           
  7657  0019                     	__size_of_SPI_RW	equ	__end_of_SPI_RW-_SPI_RW
  7658                           opt subtitle "HI-TECH Software Omniscient Code Generator (Lite mode) build 49521"
  7659  094E                     _SPI_RW:	
  7660                           opt subtitle "HI-TECH Software Omniscient Code Generator (Lite mode) build 49521"
  7661                           
  7662                           opt pagewidth 120
  7663  094E  1283               	bcf	status, 5	;RP0=0, select bank0
  7664  094F  1303               	bcf	status, 6	;RP1=0, select bank0
  7665  0950  00B6               	movwf	(SPI_RW@value)
  7666                           opt subtitle "HI-TECH Software Omniscient Code Generator (Lite mode) build 49521"
  7667                           
  7668  0951                     l3984:	
  7669                           opt subtitle "HI-TECH Software Omniscient Code Generator (Lite mode) build 49521"
  7670  0951  0836               	movf	(SPI_RW@value),w
  7671  0952  0093               	movwf	(19)	;volatile
  7672                           opt subtitle "HI-TECH Software Omniscient Code Generator (Lite mode) build 49521"
  7673                           
  7674                           opt pagewidth 120
  7675  0953  3003               movlw	3
  7676  0954  00B5               movwf	((??_SPI_RW+0)+0+1),f
  7677  0955  3097               	movlw	151
  7678  0956  00B4               movwf	((??_SPI_RW+0)+0),f
  7679  0957                     u3827:
  7680  0957  0BB4               	decfsz	((??_SPI_RW+0)+0),f
  7681  0958  2957               	goto	u3827
  7682  0959  0BB5               	decfsz	((??_SPI_RW+0)+0+1),f
  7683  095A  2957               	goto	u3827
  7684  095B  295C               	nop2
  7685                           opt subtitle "HI-TECH Software Omniscient Code Generator (Lite mode) build 49521"
  7686                           
  7687                           opt pagewidth 120
  7688                           
  7689  095C  295D               	goto	l291
  7690                           opt subtitle "HI-TECH Software Omniscient Code Generator (Lite mode) build 49521"
  7691  095D                     l292:	
  7692                           opt subtitle "HI-TECH Software Omniscient Code Generator (Lite mode) build 49521"
  7693  095D                     l291:	
  7694  095D  1283               	bcf	status, 5	;RP0=0, select bank0
  7695  095E  1303               	bcf	status, 6	;RP1=0, select bank0
  7696  095F  1D8C               	btfss	(12),3	;volatile
  7697  0960  2962               	goto	u3551
  7698  0961  2963               	goto	u3550
  7699  0962                     u3551:
  7700  0962  295D               	goto	l291
  7701  0963                     u3550:
  7702  0963  2964               	goto	l3986
  7703                           opt subtitle "HI-TECH Software Omniscient Code Generator (Lite mode) build 49521"
  7704  0964                     l293:	
  7705                           opt subtitle "HI-TECH Software Omniscient Code Generator (Lite mode) build 49521"
  7706                           
  7707  0964                     l3986:	
  7708                           opt subtitle "HI-TECH Software Omniscient Code Generator (Lite mode) build 49521"
  7709  0964  0813               	movf	(19),w	;volatile
  7710  0965  2966               	goto	l294
  7711                           opt subtitle "HI-TECH Software Omniscient Code Generator (Lite mode) build 49521"
  7712  0966                     l3988:	
  7713                           opt subtitle "HI-TECH Software Omniscient Code Generator (Lite mode) build 49521"
  7714                           
  7715  0966                     l294:	
  7716  0966  0008               	return
  7717                           opt subtitle "HI-TECH Software Omniscient Code Generator (Lite mode) build 49521"
  7718                           
  7719  0967                     	__end_of_SPI_RW:
  7720                           opt subtitle "HI-TECH Software Omniscient Code Generator (Lite mode) build 49521"
  7721                           
  7722                           opt pagewidth 120
  7723                           
  7724                           	opt lm
  7725                           
  7726                           	processor	16F707
  7727                           clrc	macro
  7728                           	bcf	3,0
  7729                           	endm
  7730                           clrz	macro
  7731                           	bcf	3,2
  7732                           	endm
  7733                           setc	macro
  7734                           	bsf	3,0
  7735                           	endm
  7736                           setz	macro
  7737                           	bsf	3,2
  7738                           	endm
  7739                           skipc	macro
  7740                           	btfss	3,0
  7741                           	endm
  7742                           skipz	macro
  7743                           	btfss	3,2
  7744                           	endm
  7745                           skipnc	macro
  7746                           	btfsc	3,0
  7747                           	endm
  7748                           skipnz	macro
  7749                           	btfsc	3,2
  7750                           	endm
  7751                           indf	equ	0
  7752                           indf0	equ	0
  7753                           pc	equ	2
  7754                           pcl	equ	2
  7755  0AB6                     __ptext1052:	;psect for function ___wmul
  7756                           opt subtitle "HI-TECH Software Omniscient Code Generator (Lite mode) build 49521"
  7757                           
  7758                           opt pagewidth 120
  7759                           
  7760  002C                     	__size_of___wmul	equ	__end_of___wmul-___wmul
  7761                           opt subtitle "HI-TECH Software Omniscient Code Generator (Lite mode) build 49521"
  7762  0AB6                     ___wmul:	
  7763                           opt subtitle "HI-TECH Software Omniscient Code Generator (Lite mode) build 49521"
  7764                           
  7765                           opt pagewidth 120
  7766                           
  7767  0AB6                     l3050:	
  7768  0AB6  1283               	bcf	status, 5	;RP0=0, select bank0
  7769  0AB7  1303               	bcf	status, 6	;RP1=0, select bank0
  7770  0AB8  01B8               	clrf	(___wmul@product)
  7771  0AB9  01B9               	clrf	(___wmul@product+1)
  7772  0ABA  2ABB               	goto	l3052
  7773                           opt subtitle "HI-TECH Software Omniscient Code Generator (Lite mode) build 49521"
  7774                           
  7775  0ABB                     l436:	
  7776                           opt subtitle "HI-TECH Software Omniscient Code Generator (Lite mode) build 49521"
  7777                           
  7778  0ABB                     l3052:	
  7779  0ABB  1C34               	btfss	(___wmul@multiplier),(0)&7
  7780  0ABC  2ABE               	goto	u2401
  7781  0ABD  2ABF               	goto	u2400
  7782  0ABE                     u2401:
  7783  0ABE  2AC5               	goto	l437
  7784  0ABF                     u2400:
  7785                           opt subtitle "HI-TECH Software Omniscient Code Generator (Lite mode) build 49521"
  7786                           
  7787  0ABF                     l3054:	
  7788  0ABF  0836               	movf	(___wmul@multiplicand),w
  7789  0AC0  07B8               	addwf	(___wmul@product),f
  7790  0AC1  1803               	skipnc
  7791  0AC2  0AB9               	incf	(___wmul@product+1),f
  7792  0AC3  0837               	movf	(___wmul@multiplicand+1),w
  7793  0AC4  07B9               	addwf	(___wmul@product+1),f
  7794                           opt subtitle "HI-TECH Software Omniscient Code Generator (Lite mode) build 49521"
  7795  0AC5                     l437:	
  7796                           opt subtitle "HI-TECH Software Omniscient Code Generator (Lite mode) build 49521"
  7797  0AC5  3001               	movlw	01h
  7798                           opt subtitle "HI-TECH Software Omniscient Code Generator (Lite mode) build 49521"
  7799  0AC6                     u2415:
  7800  0AC6  1003               	clrc
  7801  0AC7  0DB6               	rlf	(___wmul@multiplicand),f
  7802  0AC8  0DB7               	rlf	(___wmul@multiplicand+1),f
  7803  0AC9  3EFF               	addlw	-1
  7804  0ACA  1D03               	skipz
  7805  0ACB  2AC6               	goto	u2415
  7806                           opt subtitle "HI-TECH Software Omniscient Code Generator (Lite mode) build 49521"
  7807                           
  7808  0ACC                     l3056:	
  7809  0ACC  3001               	movlw	01h
  7810                           opt subtitle "HI-TECH Software Omniscient Code Generator (Lite mode) build 49521"
  7811  0ACD                     u2425:
  7812  0ACD  1003               	clrc
  7813  0ACE  0CB5               	rrf	(___wmul@multiplier+1),f
  7814  0ACF  0CB4               	rrf	(___wmul@multiplier),f
  7815  0AD0  3EFF               	addlw	-1
  7816  0AD1  1D03               	skipz
  7817  0AD2  2ACD               	goto	u2425
  7818                           opt subtitle "HI-TECH Software Omniscient Code Generator (Lite mode) build 49521"
  7819  0AD3  0835               	movf	((___wmul@multiplier+1)),w
  7820  0AD4  0434               	iorwf	((___wmul@multiplier)),w
  7821  0AD5  1D03               	skipz
  7822  0AD6  2AD8               	goto	u2431
  7823  0AD7  2AD9               	goto	u2430
  7824  0AD8                     u2431:
  7825  0AD8  2ABB               	goto	l3052
  7826  0AD9                     u2430:
  7827  0AD9  2ADA               	goto	l3058
  7828                           opt subtitle "HI-TECH Software Omniscient Code Generator (Lite mode) build 49521"
  7829  0ADA                     l438:	
  7830                           opt subtitle "HI-TECH Software Omniscient Code Generator (Lite mode) build 49521"
  7831                           
  7832  0ADA                     l3058:	
  7833  0ADA  0839               	movf	(___wmul@product+1),w
  7834  0ADB  01B5               	clrf	(?___wmul+1)
  7835  0ADC  07B5               	addwf	(?___wmul+1)
  7836  0ADD  0838               	movf	(___wmul@product),w
  7837  0ADE  01B4               	clrf	(?___wmul)
  7838  0ADF  07B4               	addwf	(?___wmul)
  7839                           opt subtitle "HI-TECH Software Omniscient Code Generator (Lite mode) build 49521"
  7840  0AE0  2AE1               	goto	l439
  7841                           opt subtitle "HI-TECH Software Omniscient Code Generator (Lite mode) build 49521"
  7842  0AE1                     l3060:	
  7843                           opt subtitle "HI-TECH Software Omniscient Code Generator (Lite mode) build 49521"
  7844                           
  7845  0AE1                     l439:	
  7846  0AE1  0008               	return
  7847                           opt subtitle "HI-TECH Software Omniscient Code Generator (Lite mode) build 49521"
  7848                           
  7849  0AE2                     	__end_of___wmul:
  7850                           opt subtitle "HI-TECH Software Omniscient Code Generator (Lite mode) build 49521"
  7851                           
  7852                           opt pagewidth 120
  7853                           
  7854                           	opt lm
  7855                           
  7856                           	processor	16F707
  7857                           clrc	macro
  7858                           	bcf	3,0
  7859                           	endm
  7860                           clrz	macro
  7861                           	bcf	3,2
  7862                           	endm
  7863                           setc	macro
  7864                           	bsf	3,0
  7865                           	endm
  7866                           setz	macro
  7867                           	bsf	3,2
  7868                           	endm
  7869                           skipc	macro
  7870                           	btfss	3,0
  7871                           	endm
  7872                           skipz	macro
  7873                           	btfss	3,2
  7874                           	endm
  7875                           skipnc	macro
  7876                           	btfsc	3,0
  7877                           	endm
  7878                           skipnz	macro
  7879                           	btfsc	3,2
  7880                           	endm
  7881                           indf	equ	0
  7882                           indf0	equ	0
  7883                           pc	equ	2
  7884                           pcl	equ	2
  7885                           status	equ	3
  7886  0C1F                     __ptext1053:	;psect for function ___lwdiv
  7887                           opt subtitle "HI-TECH Software Omniscient Code Generator (Lite mode) build 49521"
  7888                           
  7889                           opt pagewidth 120
  7890                           
  7891  004F                     	__size_of___lwdiv	equ	__end_of___lwdiv-___lwdiv
  7892                           opt subtitle "HI-TECH Software Omniscient Code Generator (Lite mode) build 49521"
  7893  0C1F                     ___lwdiv:	
  7894                           opt subtitle "HI-TECH Software Omniscient Code Generator (Lite mode) build 49521"
  7895                           
  7896                           opt pagewidth 120
  7897                           
  7898  0C1F                     l4014:	
  7899  0C1F  1283               	bcf	status, 5	;RP0=0, select bank0
  7900  0C20  1303               	bcf	status, 6	;RP1=0, select bank0
  7901  0C21  01BA               	clrf	(___lwdiv@quotient)
  7902  0C22  01BB               	clrf	(___lwdiv@quotient+1)
  7903                           opt subtitle "HI-TECH Software Omniscient Code Generator (Lite mode) build 49521"
  7904                           
  7905  0C23                     l4016:	
  7906  0C23  0835               	movf	(___lwdiv@divisor+1),w
  7907  0C24  0434               	iorwf	(___lwdiv@divisor),w
  7908  0C25  1903               	skipnz
  7909  0C26  2C28               	goto	u3611
  7910  0C27  2C29               	goto	u3610
  7911  0C28                     u3611:
  7912  0C28  2C66               	goto	l4036
  7913  0C29                     u3610:
  7914                           opt subtitle "HI-TECH Software Omniscient Code Generator (Lite mode) build 49521"
  7915                           
  7916  0C29                     l4018:	
  7917  0C29  01B9               	clrf	(___lwdiv@counter)
  7918  0C2A  0AB9               	incf	(___lwdiv@counter),f
  7919                           opt subtitle "HI-TECH Software Omniscient Code Generator (Lite mode) build 49521"
  7920  0C2B  2C38               	goto	l4024
  7921                           opt subtitle "HI-TECH Software Omniscient Code Generator (Lite mode) build 49521"
  7922  0C2C                     l444:	
  7923                           opt subtitle "HI-TECH Software Omniscient Code Generator (Lite mode) build 49521"
  7924                           
  7925  0C2C                     l4020:	
  7926  0C2C  3001               	movlw	01h
  7927                           opt subtitle "HI-TECH Software Omniscient Code Generator (Lite mode) build 49521"
  7928  0C2D                     u3625:
  7929  0C2D  1003               	clrc
  7930  0C2E  0DB4               	rlf	(___lwdiv@divisor),f
  7931  0C2F  0DB5               	rlf	(___lwdiv@divisor+1),f
  7932  0C30  3EFF               	addlw	-1
  7933  0C31  1D03               	skipz
  7934  0C32  2C2D               	goto	u3625
  7935                           opt subtitle "HI-TECH Software Omniscient Code Generator (Lite mode) build 49521"
  7936                           
  7937  0C33                     l4022:	
  7938  0C33  3001               	movlw	(01h)
  7939  0C34  00B8               	movwf	(??___lwdiv+0)+0
  7940  0C35  0838               	movf	(??___lwdiv+0)+0,w
  7941  0C36  07B9               	addwf	(___lwdiv@counter),f
  7942  0C37  2C38               	goto	l4024
  7943                           opt subtitle "HI-TECH Software Omniscient Code Generator (Lite mode) build 49521"
  7944                           
  7945  0C38                     l443:	
  7946                           opt subtitle "HI-TECH Software Omniscient Code Generator (Lite mode) build 49521"
  7947                           
  7948  0C38                     l4024:	
  7949  0C38  1FB5               	btfss	(___lwdiv@divisor+1),(15)&7
  7950  0C39  2C3B               	goto	u3631
  7951  0C3A  2C3C               	goto	u3630
  7952  0C3B                     u3631:
  7953  0C3B  2C2C               	goto	l4020
  7954  0C3C                     u3630:
  7955  0C3C  2C3E               	goto	l4026
  7956                           opt subtitle "HI-TECH Software Omniscient Code Generator (Lite mode) build 49521"
  7957  0C3D                     l445:	
  7958  0C3D  2C3E               	goto	l4026
  7959                           opt subtitle "HI-TECH Software Omniscient Code Generator (Lite mode) build 49521"
  7960                           
  7961  0C3E                     l446:	
  7962                           opt subtitle "HI-TECH Software Omniscient Code Generator (Lite mode) build 49521"
  7963                           
  7964  0C3E                     l4026:	
  7965  0C3E  3001               	movlw	01h
  7966                           opt subtitle "HI-TECH Software Omniscient Code Generator (Lite mode) build 49521"
  7967  0C3F                     u3645:
  7968  0C3F  1003               	clrc
  7969  0C40  0DBA               	rlf	(___lwdiv@quotient),f
  7970  0C41  0DBB               	rlf	(___lwdiv@quotient+1),f
  7971  0C42  3EFF               	addlw	-1
  7972  0C43  1D03               	skipz
  7973  0C44  2C3F               	goto	u3645
  7974                           opt subtitle "HI-TECH Software Omniscient Code Generator (Lite mode) build 49521"
  7975  0C45  0835               	movf	(___lwdiv@divisor+1),w
  7976  0C46  0237               	subwf	(___lwdiv@dividend+1),w
  7977  0C47  1D03               	skipz
  7978  0C48  2C4B               	goto	u3655
  7979  0C49  0834               	movf	(___lwdiv@divisor),w
  7980  0C4A  0236               	subwf	(___lwdiv@dividend),w
  7981  0C4B                     u3655:
  7982  0C4B  1C03               	skipc
  7983  0C4C  2C4E               	goto	u3651
  7984  0C4D  2C4F               	goto	u3650
  7985  0C4E                     u3651:
  7986  0C4E  2C57               	goto	l4032
  7987  0C4F                     u3650:
  7988                           opt subtitle "HI-TECH Software Omniscient Code Generator (Lite mode) build 49521"
  7989                           
  7990  0C4F                     l4028:	
  7991  0C4F  0834               	movf	(___lwdiv@divisor),w
  7992  0C50  02B6               	subwf	(___lwdiv@dividend),f
  7993  0C51  0835               	movf	(___lwdiv@divisor+1),w
  7994  0C52  1C03               	skipc
  7995  0C53  03B7               	decf	(___lwdiv@dividend+1),f
  7996  0C54  02B7               	subwf	(___lwdiv@dividend+1),f
  7997                           opt subtitle "HI-TECH Software Omniscient Code Generator (Lite mode) build 49521"
  7998                           
  7999  0C55                     l4030:	
  8000  0C55  143A               	bsf	(___lwdiv@quotient)+(0/8),(0)&7
  8001  0C56  2C57               	goto	l4032
  8002                           opt subtitle "HI-TECH Software Omniscient Code Generator (Lite mode) build 49521"
  8003                           
  8004  0C57                     l447:	
  8005                           opt subtitle "HI-TECH Software Omniscient Code Generator (Lite mode) build 49521"
  8006                           
  8007  0C57                     l4032:	
  8008  0C57  3001               	movlw	01h
  8009                           opt subtitle "HI-TECH Software Omniscient Code Generator (Lite mode) build 49521"
  8010  0C58                     u3665:
  8011  0C58  1003               	clrc
  8012  0C59  0CB5               	rrf	(___lwdiv@divisor+1),f
  8013  0C5A  0CB4               	rrf	(___lwdiv@divisor),f
  8014  0C5B  3EFF               	addlw	-1
  8015  0C5C  1D03               	skipz
  8016  0C5D  2C58               	goto	u3665
  8017                           opt subtitle "HI-TECH Software Omniscient Code Generator (Lite mode) build 49521"
  8018                           
  8019  0C5E                     l4034:	
  8020  0C5E  3001               	movlw	low(01h)
  8021  0C5F  02B9               	subwf	(___lwdiv@counter),f
  8022  0C60  1D03               	btfss	status,2
  8023  0C61  2C63               	goto	u3671
  8024  0C62  2C64               	goto	u3670
  8025  0C63                     u3671:
  8026  0C63  2C3E               	goto	l4026
  8027  0C64                     u3670:
  8028  0C64  2C66               	goto	l4036
  8029                           opt subtitle "HI-TECH Software Omniscient Code Generator (Lite mode) build 49521"
  8030  0C65                     l448:	
  8031  0C65  2C66               	goto	l4036
  8032                           opt subtitle "HI-TECH Software Omniscient Code Generator (Lite mode) build 49521"
  8033                           
  8034  0C66                     l442:	
  8035                           opt subtitle "HI-TECH Software Omniscient Code Generator (Lite mode) build 49521"
  8036                           
  8037  0C66                     l4036:	
  8038  0C66  083B               	movf	(___lwdiv@quotient+1),w
  8039  0C67  01B5               	clrf	(?___lwdiv+1)
  8040  0C68  07B5               	addwf	(?___lwdiv+1)
  8041  0C69  083A               	movf	(___lwdiv@quotient),w
  8042  0C6A  01B4               	clrf	(?___lwdiv)
  8043  0C6B  07B4               	addwf	(?___lwdiv)
  8044                           opt subtitle "HI-TECH Software Omniscient Code Generator (Lite mode) build 49521"
  8045  0C6C  2C6D               	goto	l449
  8046                           opt subtitle "HI-TECH Software Omniscient Code Generator (Lite mode) build 49521"
  8047  0C6D                     l4038:	
  8048                           opt subtitle "HI-TECH Software Omniscient Code Generator (Lite mode) build 49521"
  8049                           
  8050  0C6D                     l449:	
  8051  0C6D  0008               	return
  8052                           opt subtitle "HI-TECH Software Omniscient Code Generator (Lite mode) build 49521"
  8053                           
  8054  0C6E                     	__end_of___lwdiv:
  8055                           opt subtitle "HI-TECH Software Omniscient Code Generator (Lite mode) build 49521"
  8056                           
  8057                           opt pagewidth 120
  8058                           
  8059                           	opt lm
  8060                           
  8061                           	processor	16F707
  8062                           clrc	macro
  8063                           	bcf	3,0
  8064                           	endm
  8065                           clrz	macro
  8066                           	bcf	3,2
  8067                           	endm
  8068                           setc	macro
  8069                           	bsf	3,0
  8070                           	endm
  8071                           setz	macro
  8072                           	bsf	3,2
  8073                           	endm
  8074                           skipc	macro
  8075                           	btfss	3,0
  8076                           	endm
  8077                           skipz	macro
  8078                           	btfss	3,2
  8079                           	endm
  8080                           skipnc	macro
  8081                           	btfsc	3,0
  8082                           	endm
  8083                           skipnz	macro
  8084                           	btfsc	3,2
  8085                           	endm
  8086                           indf	equ	0
  8087                           indf0	equ	0
  8088                           pc	equ	2
  8089                           pcl	equ	2
  8090  0B8D                     __ptext1054:	;psect for function ___lwmod
  8091                           opt subtitle "HI-TECH Software Omniscient Code Generator (Lite mode) build 49521"
  8092                           
  8093                           opt pagewidth 120
  8094                           
  8095  0045                     	__size_of___lwmod	equ	__end_of___lwmod-___lwmod
  8096                           opt subtitle "HI-TECH Software Omniscient Code Generator (Lite mode) build 49521"
  8097  0B8D                     ___lwmod:	
  8098                           opt subtitle "HI-TECH Software Omniscient Code Generator (Lite mode) build 49521"
  8099                           
  8100                           opt pagewidth 120
  8101                           
  8102  0B8D                     l4040:	
  8103  0B8D  1283               	bcf	status, 5	;RP0=0, select bank0
  8104  0B8E  1303               	bcf	status, 6	;RP1=0, select bank0
  8105  0B8F  083D               	movf	(___lwmod@divisor+1),w
  8106  0B90  043C               	iorwf	(___lwmod@divisor),w
  8107  0B91  1903               	skipnz
  8108  0B92  2B94               	goto	u3681
  8109  0B93  2B95               	goto	u3680
  8110  0B94                     u3681:
  8111  0B94  2BCA               	goto	l4058
  8112  0B95                     u3680:
  8113                           opt subtitle "HI-TECH Software Omniscient Code Generator (Lite mode) build 49521"
  8114                           
  8115  0B95                     l4042:	
  8116  0B95  01C1               	clrf	(___lwmod@counter)
  8117  0B96  0AC1               	incf	(___lwmod@counter),f
  8118                           opt subtitle "HI-TECH Software Omniscient Code Generator (Lite mode) build 49521"
  8119  0B97  2BA4               	goto	l4048
  8120                           opt subtitle "HI-TECH Software Omniscient Code Generator (Lite mode) build 49521"
  8121  0B98                     l454:	
  8122                           opt subtitle "HI-TECH Software Omniscient Code Generator (Lite mode) build 49521"
  8123                           
  8124  0B98                     l4044:	
  8125  0B98  3001               	movlw	01h
  8126                           opt subtitle "HI-TECH Software Omniscient Code Generator (Lite mode) build 49521"
  8127  0B99                     u3695:
  8128  0B99  1003               	clrc
  8129  0B9A  0DBC               	rlf	(___lwmod@divisor),f
  8130  0B9B  0DBD               	rlf	(___lwmod@divisor+1),f
  8131  0B9C  3EFF               	addlw	-1
  8132  0B9D  1D03               	skipz
  8133  0B9E  2B99               	goto	u3695
  8134                           opt subtitle "HI-TECH Software Omniscient Code Generator (Lite mode) build 49521"
  8135                           
  8136  0B9F                     l4046:	
  8137  0B9F  3001               	movlw	(01h)
  8138  0BA0  00C0               	movwf	(??___lwmod+0)+0
  8139  0BA1  0840               	movf	(??___lwmod+0)+0,w
  8140  0BA2  07C1               	addwf	(___lwmod@counter),f
  8141  0BA3  2BA4               	goto	l4048
  8142                           opt subtitle "HI-TECH Software Omniscient Code Generator (Lite mode) build 49521"
  8143                           
  8144  0BA4                     l453:	
  8145                           opt subtitle "HI-TECH Software Omniscient Code Generator (Lite mode) build 49521"
  8146                           
  8147  0BA4                     l4048:	
  8148  0BA4  1FBD               	btfss	(___lwmod@divisor+1),(15)&7
  8149  0BA5  2BA7               	goto	u3701
  8150  0BA6  2BA8               	goto	u3700
  8151  0BA7                     u3701:
  8152  0BA7  2B98               	goto	l4044
  8153  0BA8                     u3700:
  8154  0BA8  2BAA               	goto	l4050
  8155                           opt subtitle "HI-TECH Software Omniscient Code Generator (Lite mode) build 49521"
  8156  0BA9                     l455:	
  8157  0BA9  2BAA               	goto	l4050
  8158                           opt subtitle "HI-TECH Software Omniscient Code Generator (Lite mode) build 49521"
  8159                           
  8160  0BAA                     l456:	
  8161                           opt subtitle "HI-TECH Software Omniscient Code Generator (Lite mode) build 49521"
  8162                           
  8163  0BAA                     l4050:	
  8164  0BAA  083D               	movf	(___lwmod@divisor+1),w
  8165  0BAB  023F               	subwf	(___lwmod@dividend+1),w
  8166  0BAC  1D03               	skipz
  8167  0BAD  2BB0               	goto	u3715
  8168  0BAE  083C               	movf	(___lwmod@divisor),w
  8169  0BAF  023E               	subwf	(___lwmod@dividend),w
  8170  0BB0                     u3715:
  8171  0BB0  1C03               	skipc
  8172  0BB1  2BB3               	goto	u3711
  8173  0BB2  2BB4               	goto	u3710
  8174  0BB3                     u3711:
  8175  0BB3  2BBB               	goto	l4054
  8176  0BB4                     u3710:
  8177                           opt subtitle "HI-TECH Software Omniscient Code Generator (Lite mode) build 49521"
  8178                           
  8179  0BB4                     l4052:	
  8180  0BB4  083C               	movf	(___lwmod@divisor),w
  8181  0BB5  02BE               	subwf	(___lwmod@dividend),f
  8182  0BB6  083D               	movf	(___lwmod@divisor+1),w
  8183  0BB7  1C03               	skipc
  8184  0BB8  03BF               	decf	(___lwmod@dividend+1),f
  8185  0BB9  02BF               	subwf	(___lwmod@dividend+1),f
  8186  0BBA  2BBB               	goto	l4054
  8187                           opt subtitle "HI-TECH Software Omniscient Code Generator (Lite mode) build 49521"
  8188  0BBB                     l457:	
  8189                           opt subtitle "HI-TECH Software Omniscient Code Generator (Lite mode) build 49521"
  8190                           
  8191  0BBB                     l4054:	
  8192  0BBB  3001               	movlw	01h
  8193                           opt subtitle "HI-TECH Software Omniscient Code Generator (Lite mode) build 49521"
  8194  0BBC                     u3725:
  8195  0BBC  1003               	clrc
  8196  0BBD  0CBD               	rrf	(___lwmod@divisor+1),f
  8197  0BBE  0CBC               	rrf	(___lwmod@divisor),f
  8198  0BBF  3EFF               	addlw	-1
  8199  0BC0  1D03               	skipz
  8200  0BC1  2BBC               	goto	u3725
  8201                           opt subtitle "HI-TECH Software Omniscient Code Generator (Lite mode) build 49521"
  8202                           
  8203  0BC2                     l4056:	
  8204  0BC2  3001               	movlw	low(01h)
  8205  0BC3  02C1               	subwf	(___lwmod@counter),f
  8206  0BC4  1D03               	btfss	status,2
  8207  0BC5  2BC7               	goto	u3731
  8208  0BC6  2BC8               	goto	u3730
  8209  0BC7                     u3731:
  8210  0BC7  2BAA               	goto	l4050
  8211  0BC8                     u3730:
  8212  0BC8  2BCA               	goto	l4058
  8213                           opt subtitle "HI-TECH Software Omniscient Code Generator (Lite mode) build 49521"
  8214  0BC9                     l458:	
  8215  0BC9  2BCA               	goto	l4058
  8216                           opt subtitle "HI-TECH Software Omniscient Code Generator (Lite mode) build 49521"
  8217                           
  8218  0BCA                     l452:	
  8219                           opt subtitle "HI-TECH Software Omniscient Code Generator (Lite mode) build 49521"
  8220                           
  8221  0BCA                     l4058:	
  8222  0BCA  083F               	movf	(___lwmod@dividend+1),w
  8223  0BCB  01BD               	clrf	(?___lwmod+1)
  8224  0BCC  07BD               	addwf	(?___lwmod+1)
  8225  0BCD  083E               	movf	(___lwmod@dividend),w
  8226  0BCE  01BC               	clrf	(?___lwmod)
  8227  0BCF  07BC               	addwf	(?___lwmod)
  8228                           opt subtitle "HI-TECH Software Omniscient Code Generator (Lite mode) build 49521"
  8229  0BD0  2BD1               	goto	l459
  8230                           opt subtitle "HI-TECH Software Omniscient Code Generator (Lite mode) build 49521"
  8231  0BD1                     l4060:	
  8232                           opt subtitle "HI-TECH Software Omniscient Code Generator (Lite mode) build 49521"
  8233                           
  8234  0BD1                     l459:	
  8235  0BD1  0008               	return
  8236                           opt subtitle "HI-TECH Software Omniscient Code Generator (Lite mode) build 49521"
  8237                           
  8238  0BD2                     	__end_of___lwmod:
  8239                           opt subtitle "HI-TECH Software Omniscient Code Generator (Lite mode) build 49521"
  8240                           
  8241                           opt pagewidth 120
  8242                           
  8243                           	opt lm
  8244                           
  8245                           	processor	16F707
  8246                           clrc	macro
  8247                           	bcf	3,0
  8248                           	endm
  8249                           clrz	macro
  8250                           	bcf	3,2
  8251                           	endm
  8252                           setc	macro
  8253                           	bsf	3,0
  8254                           	endm
  8255                           setz	macro
  8256                           	bsf	3,2
  8257                           	endm
  8258                           skipc	macro
  8259                           	btfss	3,0
  8260                           	endm
  8261                           skipz	macro
  8262                           	btfss	3,2
  8263                           	endm
  8264                           skipnc	macro
  8265                           	btfsc	3,0
  8266                           	endm
  8267                           skipnz	macro
  8268                           	btfsc	3,2
  8269                           	endm
  8270                           indf	equ	0
  8271                           indf0	equ	0
  8272                           pc	equ	2
  8273  0C6E                     __ptext1055:	;psect for function _ISR
  8274                           opt subtitle "HI-TECH Software Omniscient Code Generator (Lite mode) build 49521"
  8275                           
  8276                           opt pagewidth 120
  8277                           
  8278  0077                     	__size_of_ISR	equ	__end_of_ISR-_ISR
  8279                           opt subtitle "HI-TECH Software Omniscient Code Generator (Lite mode) build 49521"
  8280  0C6E                     _ISR:	
  8281                           opt subtitle "HI-TECH Software Omniscient Code Generator (Lite mode) build 49521"
  8282                           
  8283                           opt pagewidth 120
  8284                           
  8285  0004                     __pintentry:
  8286                           opt subtitle "HI-TECH Software Omniscient Code Generator (Lite mode) build 49521"
  8287  0004                     interrupt_function:
  8288                           opt subtitle "HI-TECH Software Omniscient Code Generator (Lite mode) build 49521"
  8289  007E                     	saved_w	set	btemp+0
  8290  0004  00FE               	movwf	saved_w
  8291  0005  0E03               	swapf	status,w
  8292  0006  1283               	bcf	status, 5	;RP0=0, select bank0
  8293  0007  1303               	bcf	status, 6	;RP1=0, select bank0
  8294  0008  00B0               	movwf	(??_ISR+2)
  8295  0009  0804               	movf	fsr0,w
  8296  000A  00B1               	movwf	(??_ISR+3)
  8297  000B  080A               	movf	pclath,w
  8298  000C  00B2               	movwf	(??_ISR+4)
  8299  000D  087F               	movf	btemp+1,w
  8300  000E  00B3               	movwf	(??_ISR+5)
  8301  000F  120A  158A  2C6E   	ljmp	_ISR
  8302                           opt subtitle "HI-TECH Software Omniscient Code Generator (Lite mode) build 49521"
  8303                           
  8304                           opt pagewidth 120
  8305  0C6E                     i1l3238:	
  8306                           opt subtitle "HI-TECH Software Omniscient Code Generator (Lite mode) build 49521"
  8307  0C6E  1C0C               	btfss	(96/8),(96)&7	;volatile
  8308  0C6F  2C71               	goto	u283_21
  8309  0C70  2C72               	goto	u283_20
  8310  0C71                     u283_21:
  8311  0C71  2CDA               	goto	i1l161
  8312  0C72                     u283_20:
  8313                           opt subtitle "HI-TECH Software Omniscient Code Generator (Lite mode) build 49521"
  8314                           
  8315  0C72                     i1l3240:	
  8316                           opt subtitle "HI-TECH Software Omniscient Code Generator (Lite mode) build 49521"
  8317                           
  8318  0C72  3001               	movlw	(01h)
  8319  0C73  00AE               	movwf	(??_ISR+0)+0
  8320  0C74  082E               	movf	(??_ISR+0)+0,w
  8321  0C75  07D7               	addwf	(_tmr1Counter),f
  8322                           opt subtitle "HI-TECH Software Omniscient Code Generator (Lite mode) build 49521"
  8323                           
  8324  0C76                     i1l3242:	
  8325                           opt subtitle "HI-TECH Software Omniscient Code Generator (Lite mode) build 49521"
  8326  0C76  3010               	movlw	(010h)
  8327  0C77  008F               	movwf	(15)	;volatile
  8328                           opt subtitle "HI-TECH Software Omniscient Code Generator (Lite mode) build 49521"
  8329                           
  8330  0C78                     i1l3244:	
  8331                           opt subtitle "HI-TECH Software Omniscient Code Generator (Lite mode) build 49521"
  8332  0C78  018E               	clrf	(14)	;volatile
  8333                           opt subtitle "HI-TECH Software Omniscient Code Generator (Lite mode) build 49521"
  8334                           
  8335  0C79                     i1l3246:	
  8336                           opt subtitle "HI-TECH Software Omniscient Code Generator (Lite mode) build 49521"
  8337  0C79  0857               	movf	(_tmr1Counter),w
  8338  0C7A  065A               	xorwf	(_tmr1Target),w
  8339  0C7B  1D03               	skipz
  8340  0C7C  2C7E               	goto	u284_21
  8341  0C7D  2C7F               	goto	u284_20
  8342  0C7E                     u284_21:
  8343  0C7E  2CD8               	goto	i1l154
  8344  0C7F                     u284_20:
  8345                           opt subtitle "HI-TECH Software Omniscient Code Generator (Lite mode) build 49521"
  8346                           
  8347  0C7F                     i1l3248:	
  8348                           opt subtitle "HI-TECH Software Omniscient Code Generator (Lite mode) build 49521"
  8349  0C7F  303A               	movlw	low(STR_1|8000h)
  8350  0C80  00A0               	movwf	(?i1_printf)
  8351  0C81  3091               	movlw	high(STR_1|8000h)
  8352  0C82  00A1               	movwf	((?i1_printf))+1
  8353  0C83  120A  158A  2652   	fcall	i1_printf
              120A  158A         
  8354                           opt subtitle "HI-TECH Software Omniscient Code Generator (Lite mode) build 49521"
  8355                           
  8356  0C88                     i1l3250:	
  8357                           opt subtitle "HI-TECH Software Omniscient Code Generator (Lite mode) build 49521"
  8358  0C88  1283               	bcf	status, 5	;RP0=0, select bank0
  8359  0C89  1303               	bcf	status, 6	;RP1=0, select bank0
  8360  0C8A  0808               	movf	(8),w	;volatile
  8361  0C8B  00AE               	movwf	(??_ISR+0)+0
  8362  0C8C  3004               	movlw	04h
  8363  0C8D                     u285_25:
  8364  0C8D  1003               	clrc
  8365  0C8E  0CAE               	rrf	(??_ISR+0)+0,f
  8366  0C8F  3EFF               	addlw	-1
  8367  0C90  1D03               	skipz
  8368  0C91  2C8D               	goto	u285_25
  8369  0C92  082E               	movf	0+(??_ISR+0)+0,w
  8370  0C93  00AF               	movwf	(??_ISR+1)+0
  8371  0C94  082F               	movf	(??_ISR+1)+0,w
  8372  0C95  1683               	bsf	status, 5	;RP0=1, select bank1
  8373  0C96  1303               	bcf	status, 6	;RP1=0, select bank1
  8374  0C97  00E6               	movwf	(_jumper_stat)^080h
  8375                           opt subtitle "HI-TECH Software Omniscient Code Generator (Lite mode) build 49521"
  8376                           
  8377  0C98                     i1l3252:	
  8378                           opt subtitle "HI-TECH Software Omniscient Code Generator (Lite mode) build 49521"
  8379  0C98  1283               	bcf	status, 5	;RP0=0, select bank0
  8380  0C99  1303               	bcf	status, 6	;RP1=0, select bank0
  8381  0C9A  0808               	movf	(8),w	;volatile
  8382  0C9B  00AE               	movwf	(??_ISR+0)+0
  8383  0C9C  3006               	movlw	06h
  8384  0C9D                     u286_25:
  8385  0C9D  1003               	clrc
  8386  0C9E  0CAE               	rrf	(??_ISR+0)+0,f
  8387  0C9F  3EFF               	addlw	-1
  8388  0CA0  1D03               	skipz
  8389  0CA1  2C9D               	goto	u286_25
  8390  0CA2  082E               	movf	0+(??_ISR+0)+0,w
  8391  0CA3  3903               	andlw	03h
  8392  0CA4  00AF               	movwf	(??_ISR+1)+0
  8393  0CA5  082F               	movf	(??_ISR+1)+0,w
  8394  0CA6  00D6               	movwf	(_sleep_counter)
  8395                           opt subtitle "HI-TECH Software Omniscient Code Generator (Lite mode) build 49521"
  8396                           
  8397  0CA7  2CC6               	goto	i1l3262
  8398                           opt subtitle "HI-TECH Software Omniscient Code Generator (Lite mode) build 49521"
  8399                           
  8400                           opt pagewidth 120
  8401  0CA8                     i1l156:	
  8402                           opt subtitle "HI-TECH Software Omniscient Code Generator (Lite mode) build 49521"
  8403                           
  8404  0CA8  1683               	bsf	status, 5	;RP0=1, select bank1
  8405  0CA9  1303               	bcf	status, 6	;RP1=0, select bank1
  8406  0CAA  01E5               	clrf	(_sleep_count)^080h
  8407  0CAB  0AE5               	incf	(_sleep_count)^080h,f
  8408                           opt subtitle "HI-TECH Software Omniscient Code Generator (Lite mode) build 49521"
  8409                           
  8410  0CAC  2CD5               	goto	i1l157
  8411                           opt subtitle "HI-TECH Software Omniscient Code Generator (Lite mode) build 49521"
  8412                           
  8413                           opt pagewidth 120
  8414  0CAD                     i1l158:	
  8415                           opt subtitle "HI-TECH Software Omniscient Code Generator (Lite mode) build 49521"
  8416                           
  8417  0CAD                     i1l3254:	
  8418                           opt subtitle "HI-TECH Software Omniscient Code Generator (Lite mode) build 49521"
  8419  0CAD  3014               	movlw	(014h)
  8420  0CAE  1283               	bcf	status, 5	;RP0=0, select bank0
  8421  0CAF  00AE               	movwf	(??_ISR+0)+0
  8422  0CB0  082E               	movf	(??_ISR+0)+0,w
  8423  0CB1  1683               	bsf	status, 5	;RP0=1, select bank1
  8424  0CB2  1303               	bcf	status, 6	;RP1=0, select bank1
  8425  0CB3  00E5               	movwf	(_sleep_count)^080h
  8426                           opt subtitle "HI-TECH Software Omniscient Code Generator (Lite mode) build 49521"
  8427                           
  8428  0CB4  2CD5               	goto	i1l157
  8429                           opt subtitle "HI-TECH Software Omniscient Code Generator (Lite mode) build 49521"
  8430                           
  8431                           opt pagewidth 120
  8432  0CB5                     i1l159:	
  8433                           opt subtitle "HI-TECH Software Omniscient Code Generator (Lite mode) build 49521"
  8434                           
  8435  0CB5                     i1l3256:	
  8436                           opt subtitle "HI-TECH Software Omniscient Code Generator (Lite mode) build 49521"
  8437  0CB5  3028               	movlw	(028h)
  8438  0CB6  1283               	bcf	status, 5	;RP0=0, select bank0
  8439  0CB7  00AE               	movwf	(??_ISR+0)+0
  8440  0CB8  082E               	movf	(??_ISR+0)+0,w
  8441  0CB9  1683               	bsf	status, 5	;RP0=1, select bank1
  8442  0CBA  1303               	bcf	status, 6	;RP1=0, select bank1
  8443  0CBB  00E5               	movwf	(_sleep_count)^080h
  8444                           opt subtitle "HI-TECH Software Omniscient Code Generator (Lite mode) build 49521"
  8445                           
  8446  0CBC  2CD5               	goto	i1l157
  8447                           opt subtitle "HI-TECH Software Omniscient Code Generator (Lite mode) build 49521"
  8448                           
  8449                           opt pagewidth 120
  8450  0CBD                     i1l160:	
  8451                           opt subtitle "HI-TECH Software Omniscient Code Generator (Lite mode) build 49521"
  8452                           
  8453  0CBD                     i1l3258:	
  8454                           opt subtitle "HI-TECH Software Omniscient Code Generator (Lite mode) build 49521"
  8455  0CBD  3078               	movlw	(078h)
  8456  0CBE  1283               	bcf	status, 5	;RP0=0, select bank0
  8457  0CBF  00AE               	movwf	(??_ISR+0)+0
  8458  0CC0  082E               	movf	(??_ISR+0)+0,w
  8459  0CC1  1683               	bsf	status, 5	;RP0=1, select bank1
  8460  0CC2  1303               	bcf	status, 6	;RP1=0, select bank1
  8461  0CC3  00E5               	movwf	(_sleep_count)^080h
  8462                           opt subtitle "HI-TECH Software Omniscient Code Generator (Lite mode) build 49521"
  8463                           
  8464  0CC4  2CD5               	goto	i1l157
  8465                           opt subtitle "HI-TECH Software Omniscient Code Generator (Lite mode) build 49521"
  8466                           
  8467  0CC5                     i1l3260:	
  8468                           opt subtitle "HI-TECH Software Omniscient Code Generator (Lite mode) build 49521"
  8469  0CC5  2CD5               	goto	i1l157
  8470                           opt subtitle "HI-TECH Software Omniscient Code Generator (Lite mode) build 49521"
  8471                           
  8472  0CC6                     i1l155:	
  8473                           opt subtitle "HI-TECH Software Omniscient Code Generator (Lite mode) build 49521"
  8474  0CC6                     i1l3262:	
  8475  0CC6  1283               	bcf	status, 5	;RP0=0, select bank0
  8476  0CC7  0856               	movf	(_sleep_counter),w
  8477                           opt subtitle "HI-TECH Software Omniscient Code Generator (Lite mode) build 49521"
  8478                           
  8479                           opt pagewidth 120
  8480                           
  8481                           	opt lm
  8482                           
  8483                           	processor	16F707
  8484                           clrc	macro
  8485                           	bcf	3,0
  8486                           	endm
  8487                           clrz	macro
  8488                           	bcf	3,2
  8489                           	endm
  8490  0CC8  3A00               	xorlw	0^0	; case 0
  8491  0CC9  1903               	skipnz
  8492  0CCA  2CA8               	goto	i1l156
  8493  0CCB  3A01               	xorlw	1^0	; case 1
  8494  0CCC  1903               	skipnz
  8495  0CCD  2CAD               	goto	i1l3254
  8496  0CCE  3A03               	xorlw	2^1	; case 2
  8497  0CCF  1903               	skipnz
  8498  0CD0  2CB5               	goto	i1l3256
  8499  0CD1  3A01               	xorlw	3^2	; case 3
  8500  0CD2  1903               	skipnz
  8501  0CD3  2CBD               	goto	i1l3258
  8502  0CD4  2CD5               	goto	i1l157
  8503                           opt subtitle "HI-TECH Software Omniscient Code Generator (Lite mode) build 49521"
  8504                           
  8505                           opt pagewidth 120
  8506                           
  8507  0CD5                     i1l157:	
  8508                           opt subtitle "HI-TECH Software Omniscient Code Generator (Lite mode) build 49521"
  8509                           
  8510  0CD5  1283               	bcf	status, 5	;RP0=0, select bank0
  8511  0CD6  01D7               	clrf	(_tmr1Counter)
  8512                           opt subtitle "HI-TECH Software Omniscient Code Generator (Lite mode) build 49521"
  8513                           
  8514  0CD7  145B               	bsf	(_flag/8),(_flag)&7
  8515                           opt subtitle "HI-TECH Software Omniscient Code Generator (Lite mode) build 49521"
  8516                           
  8517  0CD8                     i1l154:	
  8518                           opt subtitle "HI-TECH Software Omniscient Code Generator (Lite mode) build 49521"
  8519                           
  8520                           opt pagewidth 120
  8521  0CD8  100C               	bcf	(96/8),(96)&7	;volatile
  8522  0CD9  2CDA               	goto	i1l161
  8523                           opt subtitle "HI-TECH Software Omniscient Code Generator (Lite mode) build 49521"
  8524                           
  8525  0CDA                     i1l153:	
  8526                           opt subtitle "HI-TECH Software Omniscient Code Generator (Lite mode) build 49521"
  8527                           
  8528  0CDA                     i1l161:	
  8529  0CDA  0833               	movf	(??_ISR+5),w
  8530  0CDB  00FF               	movwf	btemp+1
  8531  0CDC  0832               	movf	(??_ISR+4),w
  8532  0CDD  008A               	movwf	pclath
  8533  0CDE  0831               	movf	(??_ISR+3),w
  8534  0CDF  0084               	movwf	fsr0
  8535  0CE0  0E30               	swapf	(??_ISR+2)^00h,w
  8536  0CE1  0083               	movwf	status
  8537  0CE2  0EFE               	swapf	saved_w,f
  8538  0CE3  0E7E               	swapf	saved_w,w
  8539  0CE4  0009               	retfie
  8540                           opt subtitle "HI-TECH Software Omniscient Code Generator (Lite mode) build 49521"
  8541                           
  8542  0CE5                     	__end_of_ISR:
  8543                           opt subtitle "HI-TECH Software Omniscient Code Generator (Lite mode) build 49521"
  8544                           
  8545                           opt pagewidth 120
  8546                           
  8547                           	opt lm
  8548                           
  8549                           	processor	16F707
  8550                           clrc	macro
  8551                           	bcf	3,0
  8552                           	endm
  8553                           clrz	macro
  8554                           	bcf	3,2
  8555                           	endm
  8556                           setc	macro
  8557                           	bsf	3,0
  8558                           	endm
  8559                           setz	macro
  8560                           	bsf	3,2
  8561                           	endm
  8562                           skipc	macro
  8563                           	btfss	3,0
  8564                           	endm
  8565                           skipz	macro
  8566                           	btfss	3,2
  8567                           	endm
  8568                           skipnc	macro
  8569                           	btfsc	3,0
  8570                           	endm
  8571                           skipnz	macro
  8572                           	btfsc	3,2
  8573                           	endm
  8574                           indf	equ	0
  8575                           indf0	equ	0
  8576                           pc	equ	2
  8577                           pcl	equ	2
  8578                           status	equ	3
  8579                           fsr	equ	4
  8580                           fsr0	equ	4
  8581                           c	equ	1
  8582                           z	equ	0
  8583                           pclath	equ	10
  8584                           # 46 "/Applications/microchip/xc8/v1.12/include/pic16f707.h"
  8585                           INDF equ 00h ;# 
  8586                           # 52 "/Applications/microchip/xc8/v1.12/include/pic16f707.h"
  8587                           TMR0 equ 01h ;# 
  8588                           # 58 "/Applications/microchip/xc8/v1.12/include/pic16f707.h"
  8589  0E52                     __ptext1056:	;psect for function i1_printf
  8590                           opt subtitle "HI-TECH Software Omniscient Code Generator (Lite mode) build 49521"
  8591                           
  8592                           opt pagewidth 120
  8593                           
  8594  01AE                     	__size_ofi1_printf	equ	__end_ofi1_printf-i1_printf
  8595                           opt subtitle "HI-TECH Software Omniscient Code Generator (Lite mode) build 49521"
  8596  0E52                     i1_printf:	
  8597                           opt subtitle "HI-TECH Software Omniscient Code Generator (Lite mode) build 49521"
  8598                           
  8599                           opt pagewidth 120
  8600                           
  8601  0E52                     i1l3162:	
  8602                           opt subtitle "HI-TECH Software Omniscient Code Generator (Lite mode) build 49521"
  8603                           
  8604                           opt pagewidth 120
  8605                           
  8606                           	opt lm
  8607                           
  8608                           	processor	16F707
  8609                           clrc	macro
  8610                           	bcf	3,0
  8611                           	endm
  8612                           clrz	macro
  8613                           	bcf	3,2
  8614  0E52  3022               	movlw	(?i1_printf+02h)&0ffh
  8615  0E53  1283               	bcf	status, 5	;RP0=0, select bank0
  8616  0E54  1303               	bcf	status, 6	;RP1=0, select bank0
  8617  0E55  00A2               	movwf	(??i1_printf+0)+0
  8618  0E56  0822               	movf	(??i1_printf+0)+0,w
  8619  0E57  00A6               	movwf	(i1printf@ap)
  8620                           opt subtitle "HI-TECH Software Omniscient Code Generator (Lite mode) build 49521"
  8621                           
  8622  0E58  2FE2               	goto	i1l3236
  8623                           opt subtitle "HI-TECH Software Omniscient Code Generator (Lite mode) build 49521"
  8624  0E59                     i1l394:	
  8625                           opt subtitle "HI-TECH Software Omniscient Code Generator (Lite mode) build 49521"
  8626                           
  8627  0E59                     i1l3164:	
  8628                           opt subtitle "HI-TECH Software Omniscient Code Generator (Lite mode) build 49521"
  8629  0E59  082D               	movf	(i1printf@c),w
  8630  0E5A  3A25               	xorlw	025h
  8631  0E5B  1903               	skipnz
  8632  0E5C  2E5E               	goto	u271_21
  8633  0E5D  2E5F               	goto	u271_20
  8634  0E5E                     u271_21:
  8635  0E5E  2E66               	goto	i1l395
  8636  0E5F                     u271_20:
  8637                           opt subtitle "HI-TECH Software Omniscient Code Generator (Lite mode) build 49521"
  8638                           
  8639  0E5F                     i1l3166:	
  8640                           opt subtitle "HI-TECH Software Omniscient Code Generator (Lite mode) build 49521"
  8641                           
  8642  0E5F  082D               	movf	(i1printf@c),w
  8643  0E60  120A  158A  20DF   	fcall	i1_putch
              120A  158A         
  8644                           opt subtitle "HI-TECH Software Omniscient Code Generator (Lite mode) build 49521"
  8645                           
  8646  0E65  2FE2               	goto	i1l3236
  8647                           opt subtitle "HI-TECH Software Omniscient Code Generator (Lite mode) build 49521"
  8648                           
  8649  0E66                     i1l395:	
  8650                           opt subtitle "HI-TECH Software Omniscient Code Generator (Lite mode) build 49521"
  8651                           
  8652                           opt pagewidth 120
  8653  0E66  01A8               	clrf	(i1printf@flag)
  8654                           opt subtitle "HI-TECH Software Omniscient Code Generator (Lite mode) build 49521"
  8655                           
  8656  0E67  2E75               	goto	i1l3172
  8657                           opt subtitle "HI-TECH Software Omniscient Code Generator (Lite mode) build 49521"
  8658                           
  8659                           opt pagewidth 120
  8660  0E68                     i1l397:	
  8661                           opt subtitle "HI-TECH Software Omniscient Code Generator (Lite mode) build 49521"
  8662                           
  8663  0E68  2FFF               	goto	i1l427
  8664                           opt subtitle "HI-TECH Software Omniscient Code Generator (Lite mode) build 49521"
  8665                           
  8666                           opt pagewidth 120
  8667  0E69                     i1l399:	
  8668  0E69  2E99               	goto	i1l401
  8669                           opt subtitle "HI-TECH Software Omniscient Code Generator (Lite mode) build 49521"
  8670                           
  8671  0E6A                     i1l400:	
  8672                           opt subtitle "HI-TECH Software Omniscient Code Generator (Lite mode) build 49521"
  8673                           
  8674                           opt pagewidth 120
  8675  0E6A  2E99               	goto	i1l401
  8676                           opt subtitle "HI-TECH Software Omniscient Code Generator (Lite mode) build 49521"
  8677                           
  8678                           opt pagewidth 120
  8679  0E6B                     i1l402:	
  8680                           opt subtitle "HI-TECH Software Omniscient Code Generator (Lite mode) build 49521"
  8681                           
  8682  0E6B                     i1l403:	
  8683                           opt subtitle "HI-TECH Software Omniscient Code Generator (Lite mode) build 49521"
  8684                           
  8685                           opt pagewidth 120
  8686  0E6B  17A8               	bsf	(i1printf@flag)+(7/8),(7)&7
  8687                           opt subtitle "HI-TECH Software Omniscient Code Generator (Lite mode) build 49521"
  8688                           
  8689  0E6C  2E99               	goto	i1l401
  8690                           opt subtitle "HI-TECH Software Omniscient Code Generator (Lite mode) build 49521"
  8691                           
  8692                           opt pagewidth 120
  8693  0E6D                     i1l404:	
  8694                           opt subtitle "HI-TECH Software Omniscient Code Generator (Lite mode) build 49521"
  8695                           
  8696  0E6D                     i1l3168:	
  8697                           opt subtitle "HI-TECH Software Omniscient Code Generator (Lite mode) build 49521"
  8698  0E6D  082D               	movf	(i1printf@c),w
  8699  0E6E  120A  158A  20DF   	fcall	i1_putch
              120A  158A         
  8700                           opt subtitle "HI-TECH Software Omniscient Code Generator (Lite mode) build 49521"
  8701                           
  8702  0E73  2FE2               	goto	i1l3236
  8703                           opt subtitle "HI-TECH Software Omniscient Code Generator (Lite mode) build 49521"
  8704                           
  8705  0E74                     i1l3170:	
  8706                           opt subtitle "HI-TECH Software Omniscient Code Generator (Lite mode) build 49521"
  8707  0E74  2E99               	goto	i1l401
  8708                           opt subtitle "HI-TECH Software Omniscient Code Generator (Lite mode) build 49521"
  8709                           
  8710  0E75                     i1l396:	
  8711                           opt subtitle "HI-TECH Software Omniscient Code Generator (Lite mode) build 49521"
  8712  0E75                     i1l3172:	
  8713  0E75  1283               	bcf	status, 5	;RP0=0, select bank0
  8714  0E76  1303               	bcf	status, 6	;RP1=0, select bank0
  8715  0E77  0821               	movf	(i1printf@f+1),w
  8716  0E78  00A3               	movwf	(??i1_printf+0)+0+1
  8717  0E79  0820               	movf	(i1printf@f),w
  8718  0E7A  00A2               	movwf	(??i1_printf+0)+0
  8719  0E7B  3001               	movlw	(01h)
  8720  0E7C  07A0               	addwf	(i1printf@f),f
  8721  0E7D  1803               	skipnc
  8722  0E7E  0AA1               	incf	(i1printf@f+1),f
  8723  0E7F  0823               	movf	1+(??i1_printf+0)+0,w
  8724  0E80  00FF               	movwf	btemp+1
  8725  0E81  0822               	movf	0+(??i1_printf+0)+0,w
  8726  0E82  0084               	movwf	fsr0
  8727  0E83  160A  118A  2000   	fcall	stringtab
              120A  158A         
  8728  0E88  00AD               	movwf	(i1printf@c)
  8729                           opt subtitle "HI-TECH Software Omniscient Code Generator (Lite mode) build 49521"
  8730                           
  8731                           opt pagewidth 120
  8732                           
  8733                           	opt lm
  8734                           
  8735                           	processor	16F707
  8736                           clrc	macro
  8737                           	bcf	3,0
  8738                           	endm
  8739                           clrz	macro
  8740                           	bcf	3,2
  8741  0E89  3A00               	xorlw	0^0	; case 0
  8742  0E8A  1903               	skipnz
  8743  0E8B  2FFF               	goto	i1l427
  8744  0E8C  3A58               	xorlw	88^0	; case 88
  8745  0E8D  1903               	skipnz
  8746  0E8E  2E6B               	goto	i1l403
  8747  0E8F  3A3C               	xorlw	100^88	; case 100
  8748  0E90  1903               	skipnz
  8749  0E91  2E99               	goto	i1l401
  8750  0E92  3A0D               	xorlw	105^100	; case 105
  8751  0E93  1903               	skipnz
  8752  0E94  2E99               	goto	i1l401
  8753  0E95  3A11               	xorlw	120^105	; case 120
  8754  0E96  1903               	skipnz
  8755  0E97  2E6B               	goto	i1l403
  8756  0E98  2E6D               	goto	i1l3168
  8757                           opt subtitle "HI-TECH Software Omniscient Code Generator (Lite mode) build 49521"
  8758                           
  8759                           opt pagewidth 120
  8760                           
  8761  0E99                     i1l401:	
  8762                           opt subtitle "HI-TECH Software Omniscient Code Generator (Lite mode) build 49521"
  8763                           
  8764  0E99  1283               	bcf	status, 5	;RP0=0, select bank0
  8765  0E9A  1303               	bcf	status, 6	;RP1=0, select bank0
  8766  0E9B  1BA8               	btfsc	(i1printf@flag),(7)&7
  8767  0E9C  2E9E               	goto	u272_21
  8768  0E9D  2E9F               	goto	u272_20
  8769  0E9E                     u272_21:
  8770  0E9E  2EBA               	goto	i1l3184
  8771  0E9F                     u272_20:
  8772                           opt subtitle "HI-TECH Software Omniscient Code Generator (Lite mode) build 49521"
  8773                           
  8774  0E9F                     i1l3174:	
  8775                           opt subtitle "HI-TECH Software Omniscient Code Generator (Lite mode) build 49521"
  8776                           
  8777  0E9F  0826               	movf	(i1printf@ap),w
  8778  0EA0  0084               	movwf	fsr0
  8779  0EA1  1383               	bcf	status, 7	;select IRP bank0
  8780  0EA2  0800               	movf	indf,w
  8781  0EA3  00A9               	movwf	(i1printf@_val)
  8782  0EA4  0A84               	incf	fsr0,f
  8783  0EA5  0800               	movf	indf,w
  8784  0EA6  00AA               	movwf	(i1printf@_val+1)
  8785                           opt subtitle "HI-TECH Software Omniscient Code Generator (Lite mode) build 49521"
  8786  0EA7                     i1l3176:	
  8787  0EA7  3002               	movlw	(02h)
  8788  0EA8  00A2               	movwf	(??i1_printf+0)+0
  8789  0EA9  0822               	movf	(??i1_printf+0)+0,w
  8790  0EAA  07A6               	addwf	(i1printf@ap),f
  8791                           opt subtitle "HI-TECH Software Omniscient Code Generator (Lite mode) build 49521"
  8792                           
  8793  0EAB                     i1l3178:	
  8794                           opt subtitle "HI-TECH Software Omniscient Code Generator (Lite mode) build 49521"
  8795  0EAB  1FAA               	btfss	(i1printf@_val+1),7
  8796  0EAC  2EAE               	goto	u273_21
  8797  0EAD  2EAF               	goto	u273_20
  8798  0EAE                     u273_21:
  8799  0EAE  2F37               	goto	i1l3214
  8800  0EAF                     u273_20:
  8801                           opt subtitle "HI-TECH Software Omniscient Code Generator (Lite mode) build 49521"
  8802                           
  8803  0EAF                     i1l3180:	
  8804                           opt subtitle "HI-TECH Software Omniscient Code Generator (Lite mode) build 49521"
  8805  0EAF  3003               	movlw	(03h)
  8806  0EB0  00A2               	movwf	(??i1_printf+0)+0
  8807  0EB1  0822               	movf	(??i1_printf+0)+0,w
  8808  0EB2  04A8               	iorwf	(i1printf@flag),f
  8809                           opt subtitle "HI-TECH Software Omniscient Code Generator (Lite mode) build 49521"
  8810                           
  8811  0EB3                     i1l3182:	
  8812                           opt subtitle "HI-TECH Software Omniscient Code Generator (Lite mode) build 49521"
  8813  0EB3  09A9               	comf	(i1printf@_val),f
  8814  0EB4  09AA               	comf	(i1printf@_val+1),f
  8815  0EB5  0AA9               	incf	(i1printf@_val),f
  8816  0EB6  1903               	skipnz
  8817  0EB7  0AAA               	incf	(i1printf@_val+1),f
  8818  0EB8  2F37               	goto	i1l3214
  8819                           opt subtitle "HI-TECH Software Omniscient Code Generator (Lite mode) build 49521"
  8820                           
  8821  0EB9                     i1l406:	
  8822                           opt subtitle "HI-TECH Software Omniscient Code Generator (Lite mode) build 49521"
  8823                           
  8824                           opt pagewidth 120
  8825  0EB9  2F37               	goto	i1l3214
  8826                           opt subtitle "HI-TECH Software Omniscient Code Generator (Lite mode) build 49521"
  8827                           
  8828  0EBA                     i1l405:	
  8829                           opt subtitle "HI-TECH Software Omniscient Code Generator (Lite mode) build 49521"
  8830                           
  8831  0EBA                     i1l3184:	
  8832                           opt subtitle "HI-TECH Software Omniscient Code Generator (Lite mode) build 49521"
  8833                           
  8834                           opt pagewidth 120
  8835  0EBA  0826               	movf	(i1printf@ap),w
  8836  0EBB  0084               	movwf	fsr0
  8837  0EBC  1383               	bcf	status, 7	;select IRP bank0
  8838  0EBD  0800               	movf	indf,w
  8839  0EBE  00A9               	movwf	(i1printf@_val)
  8840  0EBF  0A84               	incf	fsr0,f
  8841  0EC0  0800               	movf	indf,w
  8842  0EC1  00AA               	movwf	(i1printf@_val+1)
  8843                           opt subtitle "HI-TECH Software Omniscient Code Generator (Lite mode) build 49521"
  8844  0EC2                     i1l3186:	
  8845  0EC2  3002               	movlw	(02h)
  8846  0EC3  00A2               	movwf	(??i1_printf+0)+0
  8847  0EC4  0822               	movf	(??i1_printf+0)+0,w
  8848  0EC5  07A6               	addwf	(i1printf@ap),f
  8849  0EC6  2F37               	goto	i1l3214
  8850                           opt subtitle "HI-TECH Software Omniscient Code Generator (Lite mode) build 49521"
  8851                           
  8852  0EC7                     i1l407:	
  8853                           opt subtitle "HI-TECH Software Omniscient Code Generator (Lite mode) build 49521"
  8854                           
  8855                           opt pagewidth 120
  8856  0EC7  2F37               	goto	i1l3214
  8857                           opt subtitle "HI-TECH Software Omniscient Code Generator (Lite mode) build 49521"
  8858                           
  8859                           opt pagewidth 120
  8860  0EC8                     i1l409:	
  8861                           opt subtitle "HI-TECH Software Omniscient Code Generator (Lite mode) build 49521"
  8862                           
  8863  0EC8  01AD               	clrf	(i1printf@c)
  8864  0EC9  0AAD               	incf	(i1printf@c),f
  8865                           opt subtitle "HI-TECH Software Omniscient Code Generator (Lite mode) build 49521"
  8866  0ECA                     i1l3188:	
  8867  0ECA  082D               	movf	(i1printf@c),w
  8868  0ECB  3A05               	xorlw	05h
  8869  0ECC  1D03               	skipz
  8870  0ECD  2ECF               	goto	u274_21
  8871  0ECE  2ED0               	goto	u274_20
  8872  0ECF                     u274_21:
  8873  0ECF  2ED2               	goto	i1l3192
  8874  0ED0                     u274_20:
  8875  0ED0  2F40               	goto	i1l3216
  8876                           opt subtitle "HI-TECH Software Omniscient Code Generator (Lite mode) build 49521"
  8877  0ED1                     i1l3190:	
  8878  0ED1  2F40               	goto	i1l3216
  8879                           opt subtitle "HI-TECH Software Omniscient Code Generator (Lite mode) build 49521"
  8880                           
  8881  0ED2                     i1l410:	
  8882                           opt subtitle "HI-TECH Software Omniscient Code Generator (Lite mode) build 49521"
  8883  0ED2                     i1l3192:	
  8884                           opt subtitle "HI-TECH Software Omniscient Code Generator (Lite mode) build 49521"
  8885  0ED2  082D               	movf	(i1printf@c),w
  8886  0ED3  00A2               	movwf	(??i1_printf+0)+0
  8887  0ED4  0722               	addwf	(??i1_printf+0)+0,w
  8888  0ED5  3E83               	addlw	low(_dpowers|8000h)
  8889  0ED6  0084               	movwf	fsr0
  8890  0ED7  3090               	movlw	high(_dpowers|8000h)
  8891  0ED8  1803               	skipnc
  8892  0ED9  3E01               	addlw	1
  8893  0EDA  00FF               	movwf	btemp+1
  8894  0EDB  160A  118A  2000   	fcall	stringtab
              120A  158A         
  8895  0EE0  00A3               	movwf	(??i1_printf+1)+0
  8896  0EE1  160A  118A  2000   	fcall	stringtab
              120A  158A         
  8897  0EE6  00A4               	movwf	(??i1_printf+1)+0+1
  8898  0EE7  0824               	movf	1+(??i1_printf+1)+0,w
  8899  0EE8  022A               	subwf	(i1printf@_val+1),w
  8900  0EE9  1D03               	skipz
  8901  0EEA  2EED               	goto	u275_25
  8902  0EEB  0823               	movf	0+(??i1_printf+1)+0,w
  8903  0EEC  0229               	subwf	(i1printf@_val),w
  8904  0EED                     u275_25:
  8905  0EED  1803               	skipnc
  8906  0EEE  2EF0               	goto	u275_21
  8907  0EEF  2EF1               	goto	u275_20
  8908  0EF0                     u275_21:
  8909  0EF0  2EF3               	goto	i1l3196
  8910  0EF1                     u275_20:
  8911  0EF1  2F40               	goto	i1l3216
  8912                           opt subtitle "HI-TECH Software Omniscient Code Generator (Lite mode) build 49521"
  8913                           
  8914  0EF2                     i1l3194:	
  8915                           opt subtitle "HI-TECH Software Omniscient Code Generator (Lite mode) build 49521"
  8916  0EF2  2F40               	goto	i1l3216
  8917                           opt subtitle "HI-TECH Software Omniscient Code Generator (Lite mode) build 49521"
  8918  0EF3                     i1l412:	
  8919                           opt subtitle "HI-TECH Software Omniscient Code Generator (Lite mode) build 49521"
  8920                           
  8921  0EF3                     i1l3196:	
  8922  0EF3  3001               	movlw	(01h)
  8923  0EF4  00A2               	movwf	(??i1_printf+0)+0
  8924  0EF5  0822               	movf	(??i1_printf+0)+0,w
  8925  0EF6  07AD               	addwf	(i1printf@c),f
  8926                           opt subtitle "HI-TECH Software Omniscient Code Generator (Lite mode) build 49521"
  8927  0EF7                     i1l3198:	
  8928  0EF7  082D               	movf	(i1printf@c),w
  8929  0EF8  3A05               	xorlw	05h
  8930  0EF9  1D03               	skipz
  8931  0EFA  2EFC               	goto	u276_21
  8932  0EFB  2EFD               	goto	u276_20
  8933  0EFC                     u276_21:
  8934  0EFC  2ED2               	goto	i1l3192
  8935  0EFD                     u276_20:
  8936  0EFD  2F40               	goto	i1l3216
  8937                           opt subtitle "HI-TECH Software Omniscient Code Generator (Lite mode) build 49521"
  8938  0EFE                     i1l411:	
  8939                           opt subtitle "HI-TECH Software Omniscient Code Generator (Lite mode) build 49521"
  8940                           
  8941  0EFE  2F40               	goto	i1l3216
  8942                           opt subtitle "HI-TECH Software Omniscient Code Generator (Lite mode) build 49521"
  8943                           
  8944                           opt pagewidth 120
  8945  0EFF                     i1l414:	
  8946                           opt subtitle "HI-TECH Software Omniscient Code Generator (Lite mode) build 49521"
  8947                           
  8948  0EFF  01AD               	clrf	(i1printf@c)
  8949  0F00  0AAD               	incf	(i1printf@c),f
  8950                           opt subtitle "HI-TECH Software Omniscient Code Generator (Lite mode) build 49521"
  8951  0F01                     i1l3200:	
  8952  0F01  082D               	movf	(i1printf@c),w
  8953  0F02  3A04               	xorlw	04h
  8954  0F03  1D03               	skipz
  8955  0F04  2F06               	goto	u277_21
  8956  0F05  2F07               	goto	u277_20
  8957  0F06                     u277_21:
  8958  0F06  2F09               	goto	i1l3204
  8959  0F07                     u277_20:
  8960  0F07  2F40               	goto	i1l3216
  8961                           opt subtitle "HI-TECH Software Omniscient Code Generator (Lite mode) build 49521"
  8962  0F08                     i1l3202:	
  8963  0F08  2F40               	goto	i1l3216
  8964                           opt subtitle "HI-TECH Software Omniscient Code Generator (Lite mode) build 49521"
  8965                           
  8966  0F09                     i1l415:	
  8967                           opt subtitle "HI-TECH Software Omniscient Code Generator (Lite mode) build 49521"
  8968  0F09                     i1l3204:	
  8969                           opt subtitle "HI-TECH Software Omniscient Code Generator (Lite mode) build 49521"
  8970  0F09  082D               	movf	(i1printf@c),w
  8971  0F0A  00A2               	movwf	(??i1_printf+0)+0
  8972  0F0B  0722               	addwf	(??i1_printf+0)+0,w
  8973  0F0C  3E8D               	addlw	low(_hexpowers|8000h)
  8974  0F0D  0084               	movwf	fsr0
  8975  0F0E  3090               	movlw	high(_hexpowers|8000h)
  8976  0F0F  1803               	skipnc
  8977  0F10  3E01               	addlw	1
  8978  0F11  00FF               	movwf	btemp+1
  8979  0F12  160A  118A  2000   	fcall	stringtab
              120A  158A         
  8980  0F17  00A3               	movwf	(??i1_printf+1)+0
  8981  0F18  160A  118A  2000   	fcall	stringtab
              120A  158A         
  8982  0F1D  00A4               	movwf	(??i1_printf+1)+0+1
  8983  0F1E  0824               	movf	1+(??i1_printf+1)+0,w
  8984  0F1F  022A               	subwf	(i1printf@_val+1),w
  8985  0F20  1D03               	skipz
  8986  0F21  2F24               	goto	u278_25
  8987  0F22  0823               	movf	0+(??i1_printf+1)+0,w
  8988  0F23  0229               	subwf	(i1printf@_val),w
  8989  0F24                     u278_25:
  8990  0F24  1803               	skipnc
  8991  0F25  2F27               	goto	u278_21
  8992  0F26  2F28               	goto	u278_20
  8993  0F27                     u278_21:
  8994  0F27  2F2A               	goto	i1l3208
  8995  0F28                     u278_20:
  8996  0F28  2F40               	goto	i1l3216
  8997                           opt subtitle "HI-TECH Software Omniscient Code Generator (Lite mode) build 49521"
  8998                           
  8999  0F29                     i1l3206:	
  9000                           opt subtitle "HI-TECH Software Omniscient Code Generator (Lite mode) build 49521"
  9001  0F29  2F40               	goto	i1l3216
  9002                           opt subtitle "HI-TECH Software Omniscient Code Generator (Lite mode) build 49521"
  9003  0F2A                     i1l417:	
  9004                           opt subtitle "HI-TECH Software Omniscient Code Generator (Lite mode) build 49521"
  9005                           
  9006  0F2A                     i1l3208:	
  9007  0F2A  3001               	movlw	(01h)
  9008  0F2B  00A2               	movwf	(??i1_printf+0)+0
  9009  0F2C  0822               	movf	(??i1_printf+0)+0,w
  9010  0F2D  07AD               	addwf	(i1printf@c),f
  9011                           opt subtitle "HI-TECH Software Omniscient Code Generator (Lite mode) build 49521"
  9012  0F2E                     i1l3210:	
  9013  0F2E  082D               	movf	(i1printf@c),w
  9014  0F2F  3A04               	xorlw	04h
  9015  0F30  1D03               	skipz
  9016  0F31  2F33               	goto	u279_21
  9017  0F32  2F34               	goto	u279_20
  9018  0F33                     u279_21:
  9019  0F33  2F09               	goto	i1l3204
  9020  0F34                     u279_20:
  9021  0F34  2F40               	goto	i1l3216
  9022                           opt subtitle "HI-TECH Software Omniscient Code Generator (Lite mode) build 49521"
  9023  0F35                     i1l416:	
  9024                           opt subtitle "HI-TECH Software Omniscient Code Generator (Lite mode) build 49521"
  9025                           
  9026  0F35  2F40               	goto	i1l3216
  9027                           opt subtitle "HI-TECH Software Omniscient Code Generator (Lite mode) build 49521"
  9028                           
  9029  0F36                     i1l3212:	
  9030                           opt subtitle "HI-TECH Software Omniscient Code Generator (Lite mode) build 49521"
  9031  0F36  2F40               	goto	i1l3216
  9032                           opt subtitle "HI-TECH Software Omniscient Code Generator (Lite mode) build 49521"
  9033                           
  9034  0F37                     i1l408:	
  9035                           opt subtitle "HI-TECH Software Omniscient Code Generator (Lite mode) build 49521"
  9036  0F37                     i1l3214:	
  9037  0F37  0828               	movf	(i1printf@flag),w
  9038  0F38  3980               	andlw	080h
  9039                           opt subtitle "HI-TECH Software Omniscient Code Generator (Lite mode) build 49521"
  9040                           
  9041                           opt pagewidth 120
  9042                           
  9043                           	opt lm
  9044                           
  9045                           	processor	16F707
  9046                           clrc	macro
  9047                           	bcf	3,0
  9048                           	endm
  9049                           clrz	macro
  9050                           	bcf	3,2
  9051  0F39  3A00               	xorlw	0^0	; case 0
  9052  0F3A  1903               	skipnz
  9053  0F3B  2EC8               	goto	i1l409
  9054  0F3C  3A80               	xorlw	128^0	; case 128
  9055  0F3D  1903               	skipnz
  9056  0F3E  2EFF               	goto	i1l414
  9057  0F3F  2F40               	goto	i1l3216
  9058                           opt subtitle "HI-TECH Software Omniscient Code Generator (Lite mode) build 49521"
  9059                           
  9060                           opt pagewidth 120
  9061                           
  9062  0F40                     i1l413:	
  9063                           opt subtitle "HI-TECH Software Omniscient Code Generator (Lite mode) build 49521"
  9064                           
  9065  0F40                     i1l3216:	
  9066                           opt subtitle "HI-TECH Software Omniscient Code Generator (Lite mode) build 49521"
  9067                           
  9068  0F40  0828               	movf	(i1printf@flag),w
  9069  0F41  3903               	andlw	03h
  9070  0F42  1903               	btfsc	status,2
  9071  0F43  2F45               	goto	u280_21
  9072  0F44  2F46               	goto	u280_20
  9073  0F45                     u280_21:
  9074  0F45  2F4D               	goto	i1l3220
  9075  0F46                     u280_20:
  9076                           opt subtitle "HI-TECH Software Omniscient Code Generator (Lite mode) build 49521"
  9077                           
  9078  0F46                     i1l3218:	
  9079                           opt subtitle "HI-TECH Software Omniscient Code Generator (Lite mode) build 49521"
  9080  0F46  302D               	movlw	(02Dh)
  9081  0F47  120A  158A  20DF   	fcall	i1_putch
              120A  158A         
  9082  0F4C  2F4D               	goto	i1l3220
  9083                           opt subtitle "HI-TECH Software Omniscient Code Generator (Lite mode) build 49521"
  9084  0F4D                     i1l418:	
  9085                           opt subtitle "HI-TECH Software Omniscient Code Generator (Lite mode) build 49521"
  9086                           
  9087  0F4D                     i1l3220:	
  9088                           opt subtitle "HI-TECH Software Omniscient Code Generator (Lite mode) build 49521"
  9089                           
  9090  0F4D  1283               	bcf	status, 5	;RP0=0, select bank0
  9091  0F4E  1303               	bcf	status, 6	;RP1=0, select bank0
  9092  0F4F  082D               	movf	(i1printf@c),w
  9093  0F50  00A2               	movwf	(??i1_printf+0)+0
  9094  0F51  0822               	movf	(??i1_printf+0)+0,w
  9095  0F52  00A7               	movwf	(i1printf@prec)
  9096                           opt subtitle "HI-TECH Software Omniscient Code Generator (Lite mode) build 49521"
  9097                           
  9098  0F53  2FD4               	goto	i1l3234
  9099                           opt subtitle "HI-TECH Software Omniscient Code Generator (Lite mode) build 49521"
  9100  0F54                     i1l420:	
  9101                           opt subtitle "HI-TECH Software Omniscient Code Generator (Lite mode) build 49521"
  9102                           
  9103  0F54  2FC4               	goto	i1l3230
  9104                           opt subtitle "HI-TECH Software Omniscient Code Generator (Lite mode) build 49521"
  9105                           
  9106                           opt pagewidth 120
  9107                           
  9108  0F55                     i1l422:	
  9109                           opt subtitle "HI-TECH Software Omniscient Code Generator (Lite mode) build 49521"
  9110                           
  9111  0F55                     i1l3222:	
  9112                           opt subtitle "HI-TECH Software Omniscient Code Generator (Lite mode) build 49521"
  9113  0F55  300A               	movlw	low(0Ah)
  9114  0F56  00F8               	movwf	(?i1___lwmod)
  9115  0F57  3000               	movlw	high(0Ah)
  9116  0F58  00F9               	movwf	((?i1___lwmod))+1
  9117  0F59  0827               	movf	(i1printf@prec),w
  9118  0F5A  00A2               	movwf	(??i1_printf+0)+0
  9119  0F5B  0722               	addwf	(??i1_printf+0)+0,w
  9120  0F5C  3E83               	addlw	low(_dpowers|8000h)
  9121  0F5D  0084               	movwf	fsr0
  9122  0F5E  3090               	movlw	high(_dpowers|8000h)
  9123  0F5F  1803               	skipnc
  9124  0F60  3E01               	addlw	1
  9125  0F61  00FF               	movwf	btemp+1
  9126  0F62  160A  118A  2000   	fcall	stringtab
              120A  158A         
  9127  0F67  00F0               	movwf	(?i1___lwdiv)
  9128  0F68  160A  118A  2000   	fcall	stringtab
              120A  158A         
  9129  0F6D  00F1               	movwf	(?i1___lwdiv+1)
  9130  0F6E  082A               	movf	(i1printf@_val+1),w
  9131  0F6F  01F3               	clrf	1+(?i1___lwdiv)+02h
  9132  0F70  07F3               	addwf	1+(?i1___lwdiv)+02h
  9133  0F71  0829               	movf	(i1printf@_val),w
  9134  0F72  01F2               	clrf	0+(?i1___lwdiv)+02h
  9135  0F73  07F2               	addwf	0+(?i1___lwdiv)+02h
  9136                           opt subtitle "HI-TECH Software Omniscient Code Generator (Lite mode) build 49521"
  9137  0F74  120A  158A  23D2   	fcall	i1___lwdiv
              120A  158A         
  9138  0F79  0871               	movf	(1+(?i1___lwdiv)),w
  9139  0F7A  01FB               	clrf	1+(?i1___lwmod)+02h
  9140  0F7B  07FB               	addwf	1+(?i1___lwmod)+02h
  9141  0F7C  0870               	movf	(0+(?i1___lwdiv)),w
  9142  0F7D  01FA               	clrf	0+(?i1___lwmod)+02h
  9143  0F7E  07FA               	addwf	0+(?i1___lwmod)+02h
  9144                           opt subtitle "HI-TECH Software Omniscient Code Generator (Lite mode) build 49521"
  9145  0F7F  120A  158A  234A   	fcall	i1___lwmod
              120A  158A         
  9146  0F84  0878               	movf	(0+(?i1___lwmod)),w
  9147  0F85  3E30               	addlw	030h
  9148  0F86  1283               	bcf	status, 5	;RP0=0, select bank0
  9149  0F87  1303               	bcf	status, 6	;RP1=0, select bank0
  9150  0F88  00A3               	movwf	(??i1_printf+1)+0
  9151  0F89  0823               	movf	(??i1_printf+1)+0,w
  9152  0F8A  00AD               	movwf	(i1printf@c)
  9153                           opt subtitle "HI-TECH Software Omniscient Code Generator (Lite mode) build 49521"
  9154                           
  9155  0F8B  2FCD               	goto	i1l3232
  9156                           opt subtitle "HI-TECH Software Omniscient Code Generator (Lite mode) build 49521"
  9157                           
  9158                           opt pagewidth 120
  9159  0F8C                     i1l424:	
  9160                           opt subtitle "HI-TECH Software Omniscient Code Generator (Lite mode) build 49521"
  9161                           
  9162  0F8C                     i1l3224:	
  9163                           opt subtitle "HI-TECH Software Omniscient Code Generator (Lite mode) build 49521"
  9164                           
  9165  0F8C  0827               	movf	(i1printf@prec),w
  9166  0F8D  00A2               	movwf	(??i1_printf+0)+0
  9167  0F8E  0722               	addwf	(??i1_printf+0)+0,w
  9168  0F8F  3E8D               	addlw	low(_hexpowers|8000h)
  9169  0F90  0084               	movwf	fsr0
  9170  0F91  3090               	movlw	high(_hexpowers|8000h)
  9171  0F92  1803               	skipnc
  9172  0F93  3E01               	addlw	1
  9173  0F94  00FF               	movwf	btemp+1
  9174  0F95  160A  118A  2000   	fcall	stringtab
              120A  158A         
  9175  0F9A  00F0               	movwf	(?i1___lwdiv)
  9176  0F9B  160A  118A  2000   	fcall	stringtab
              120A  158A         
  9177  0FA0  00F1               	movwf	(?i1___lwdiv+1)
  9178  0FA1  082A               	movf	(i1printf@_val+1),w
  9179  0FA2  01F3               	clrf	1+(?i1___lwdiv)+02h
  9180  0FA3  07F3               	addwf	1+(?i1___lwdiv)+02h
  9181  0FA4  0829               	movf	(i1printf@_val),w
  9182  0FA5  01F2               	clrf	0+(?i1___lwdiv)+02h
  9183  0FA6  07F2               	addwf	0+(?i1___lwdiv)+02h
  9184                           opt subtitle "HI-TECH Software Omniscient Code Generator (Lite mode) build 49521"
  9185  0FA7  120A  158A  23D2   	fcall	i1___lwdiv
              120A  158A         
  9186  0FAC  0870               	movf	(0+(?i1___lwdiv)),w
  9187  0FAD  390F               	andlw	0Fh
  9188  0FAE  1283               	bcf	status, 5	;RP0=0, select bank0
  9189  0FAF  1303               	bcf	status, 6	;RP1=0, select bank0
  9190  0FB0  00A3               	movwf	(??i1_printf+1)+0
  9191  0FB1  0823               	movf	(??i1_printf+1)+0,w
  9192  0FB2  00A5               	movwf	(i1printf@idx)
  9193                           opt subtitle "HI-TECH Software Omniscient Code Generator (Lite mode) build 49521"
  9194                           
  9195  0FB3                     i1l3226:	
  9196                           opt subtitle "HI-TECH Software Omniscient Code Generator (Lite mode) build 49521"
  9197  0FB3  0825               	movf	(i1printf@idx),w
  9198  0FB4  3E5F               	addlw	low(STR_16|8000h)
  9199  0FB5  0084               	movwf	fsr0
  9200  0FB6  3091               	movlw	high(STR_16|8000h)
  9201  0FB7  1803               	skipnc
  9202  0FB8  3E01               	addlw	1
  9203  0FB9  00FF               	movwf	btemp+1
  9204  0FBA  160A  118A  2000   	fcall	stringtab
              120A  158A         
  9205  0FBF  00A2               	movwf	(??i1_printf+0)+0
  9206  0FC0  0822               	movf	(??i1_printf+0)+0,w
  9207  0FC1  00AD               	movwf	(i1printf@c)
  9208                           opt subtitle "HI-TECH Software Omniscient Code Generator (Lite mode) build 49521"
  9209                           
  9210                           opt pagewidth 120
  9211  0FC2  2FCD               	goto	i1l3232
  9212                           opt subtitle "HI-TECH Software Omniscient Code Generator (Lite mode) build 49521"
  9213                           
  9214  0FC3                     i1l3228:	
  9215                           opt subtitle "HI-TECH Software Omniscient Code Generator (Lite mode) build 49521"
  9216  0FC3  2FCD               	goto	i1l3232
  9217                           opt subtitle "HI-TECH Software Omniscient Code Generator (Lite mode) build 49521"
  9218                           
  9219  0FC4                     i1l421:	
  9220                           opt subtitle "HI-TECH Software Omniscient Code Generator (Lite mode) build 49521"
  9221  0FC4                     i1l3230:	
  9222  0FC4  0828               	movf	(i1printf@flag),w
  9223  0FC5  3980               	andlw	080h
  9224                           opt subtitle "HI-TECH Software Omniscient Code Generator (Lite mode) build 49521"
  9225                           
  9226                           opt pagewidth 120
  9227                           
  9228                           	opt lm
  9229                           
  9230                           	processor	16F707
  9231                           clrc	macro
  9232                           	bcf	3,0
  9233                           	endm
  9234                           clrz	macro
  9235                           	bcf	3,2
  9236  0FC6  3A00               	xorlw	0^0	; case 0
  9237  0FC7  1903               	skipnz
  9238  0FC8  2F55               	goto	i1l3222
  9239  0FC9  3A80               	xorlw	128^0	; case 128
  9240  0FCA  1903               	skipnz
  9241  0FCB  2F8C               	goto	i1l3224
  9242  0FCC  2FCD               	goto	i1l3232
  9243                           opt subtitle "HI-TECH Software Omniscient Code Generator (Lite mode) build 49521"
  9244                           
  9245                           opt pagewidth 120
  9246                           
  9247  0FCD                     i1l423:	
  9248                           opt subtitle "HI-TECH Software Omniscient Code Generator (Lite mode) build 49521"
  9249                           
  9250  0FCD                     i1l3232:	
  9251                           opt subtitle "HI-TECH Software Omniscient Code Generator (Lite mode) build 49521"
  9252  0FCD  082D               	movf	(i1printf@c),w
  9253  0FCE  120A  158A  20DF   	fcall	i1_putch
              120A  158A         
  9254  0FD3  2FD4               	goto	i1l3234
  9255                           opt subtitle "HI-TECH Software Omniscient Code Generator (Lite mode) build 49521"
  9256                           
  9257  0FD4                     i1l419:	
  9258                           opt subtitle "HI-TECH Software Omniscient Code Generator (Lite mode) build 49521"
  9259                           
  9260  0FD4                     i1l3234:	
  9261  0FD4  30FF               	movlw	(-1)
  9262  0FD5  1283               	bcf	status, 5	;RP0=0, select bank0
  9263  0FD6  1303               	bcf	status, 6	;RP1=0, select bank0
  9264  0FD7  00A2               	movwf	(??i1_printf+0)+0
  9265  0FD8  0822               	movf	(??i1_printf+0)+0,w
  9266  0FD9  07A7               	addwf	(i1printf@prec),f
  9267  0FDA  0827               	movf	((i1printf@prec)),w
  9268  0FDB  3AFF               	xorlw	-1
  9269  0FDC  1D03               	skipz
  9270  0FDD  2FDF               	goto	u281_21
  9271  0FDE  2FE0               	goto	u281_20
  9272  0FDF                     u281_21:
  9273  0FDF  2FC4               	goto	i1l3230
  9274  0FE0                     u281_20:
  9275  0FE0  2FE2               	goto	i1l3236
  9276                           opt subtitle "HI-TECH Software Omniscient Code Generator (Lite mode) build 49521"
  9277  0FE1                     i1l425:	
  9278  0FE1  2FE2               	goto	i1l3236
  9279                           opt subtitle "HI-TECH Software Omniscient Code Generator (Lite mode) build 49521"
  9280                           
  9281  0FE2                     i1l393:	
  9282                           opt subtitle "HI-TECH Software Omniscient Code Generator (Lite mode) build 49521"
  9283                           
  9284  0FE2                     i1l3236:	
  9285  0FE2  1283               	bcf	status, 5	;RP0=0, select bank0
  9286  0FE3  1303               	bcf	status, 6	;RP1=0, select bank0
  9287  0FE4  0821               	movf	(i1printf@f+1),w
  9288  0FE5  00A3               	movwf	(??i1_printf+0)+0+1
  9289  0FE6  0820               	movf	(i1printf@f),w
  9290  0FE7  00A2               	movwf	(??i1_printf+0)+0
  9291  0FE8  3001               	movlw	(01h)
  9292  0FE9  07A0               	addwf	(i1printf@f),f
  9293  0FEA  1803               	skipnc
  9294  0FEB  0AA1               	incf	(i1printf@f+1),f
  9295  0FEC  0823               	movf	1+(??i1_printf+0)+0,w
  9296  0FED  00FF               	movwf	btemp+1
  9297  0FEE  0822               	movf	0+(??i1_printf+0)+0,w
  9298  0FEF  0084               	movwf	fsr0
  9299  0FF0  160A  118A  2000   	fcall	stringtab
              120A  158A         
  9300  0FF5  00A4               	movwf	(??i1_printf+2)+0
  9301  0FF6  0824               	movf	(??i1_printf+2)+0,w
  9302  0FF7  00AD               	movwf	(i1printf@c)
  9303  0FF8  08AD               	movf	((i1printf@c)),f
  9304  0FF9  1D03               	skipz
  9305  0FFA  2FFC               	goto	u282_21
  9306  0FFB  2FFD               	goto	u282_20
  9307  0FFC                     u282_21:
  9308  0FFC  2E59               	goto	i1l3164
  9309  0FFD                     u282_20:
  9310  0FFD  2FFF               	goto	i1l427
  9311                           opt subtitle "HI-TECH Software Omniscient Code Generator (Lite mode) build 49521"
  9312  0FFE                     i1l426:	
  9313  0FFE  2FFF               	goto	i1l427
  9314                           opt subtitle "HI-TECH Software Omniscient Code Generator (Lite mode) build 49521"
  9315                           
  9316                           opt pagewidth 120
  9317                           
  9318                           	opt lm
  9319  0FFF                     i1l398:	
  9320                           opt subtitle "HI-TECH Software Omniscient Code Generator (Lite mode) build 49521"
  9321                           
  9322                           opt pagewidth 120
  9323                           
  9324  0FFF                     i1l427:	
  9325  0FFF  0008               	return
  9326                           opt subtitle "HI-TECH Software Omniscient Code Generator (Lite mode) build 49521"
  9327                           
  9328  1000                     	__end_ofi1_printf:
  9329                           opt subtitle "HI-TECH Software Omniscient Code Generator (Lite mode) build 49521"
  9330                           
  9331                           opt pagewidth 120
  9332                           
  9333                           	opt lm
  9334                           
  9335                           	processor	16F707
  9336                           clrc	macro
  9337                           	bcf	3,0
  9338                           	endm
  9339                           clrz	macro
  9340                           	bcf	3,2
  9341                           	endm
  9342                           setc	macro
  9343                           	bsf	3,0
  9344                           	endm
  9345                           setz	macro
  9346                           	bsf	3,2
  9347                           	endm
  9348                           skipc	macro
  9349                           	btfss	3,0
  9350                           	endm
  9351                           skipz	macro
  9352                           	btfss	3,2
  9353                           	endm
  9354                           skipnc	macro
  9355                           	btfsc	3,0
  9356                           	endm
  9357                           skipnz	macro
  9358                           	btfsc	3,2
  9359                           	endm
  9360                           indf	equ	0
  9361                           indf0	equ	0
  9362                           pc	equ	2
  9363  0B4A                     __ptext1057:	;psect for function i1___lwmod
  9364                           opt subtitle "HI-TECH Software Omniscient Code Generator (Lite mode) build 49521"
  9365                           
  9366                           opt pagewidth 120
  9367                           
  9368  0043                     	__size_ofi1___lwmod	equ	__end_ofi1___lwmod-i1___lwmod
  9369                           opt subtitle "HI-TECH Software Omniscient Code Generator (Lite mode) build 49521"
  9370  0B4A                     i1___lwmod:	
  9371                           opt subtitle "HI-TECH Software Omniscient Code Generator (Lite mode) build 49521"
  9372                           
  9373                           opt pagewidth 120
  9374                           
  9375  0B4A                     i1l3140:	
  9376  0B4A  0879               	movf	(i1___lwmod@divisor+1),w
  9377  0B4B  0478               	iorwf	(i1___lwmod@divisor),w
  9378  0B4C  1903               	skipnz
  9379  0B4D  2B4F               	goto	u265_21
  9380  0B4E  2B50               	goto	u265_20
  9381  0B4F                     u265_21:
  9382  0B4F  2B85               	goto	i1l3158
  9383  0B50                     u265_20:
  9384                           opt subtitle "HI-TECH Software Omniscient Code Generator (Lite mode) build 49521"
  9385                           
  9386  0B50                     i1l3142:	
  9387  0B50  01FD               	clrf	(i1___lwmod@counter)
  9388  0B51  0AFD               	incf	(i1___lwmod@counter),f
  9389                           opt subtitle "HI-TECH Software Omniscient Code Generator (Lite mode) build 49521"
  9390  0B52  2B5F               	goto	i1l3148
  9391                           opt subtitle "HI-TECH Software Omniscient Code Generator (Lite mode) build 49521"
  9392  0B53                     i1l454:	
  9393                           opt subtitle "HI-TECH Software Omniscient Code Generator (Lite mode) build 49521"
  9394                           
  9395  0B53                     i1l3144:	
  9396  0B53  3001               	movlw	01h
  9397                           opt subtitle "HI-TECH Software Omniscient Code Generator (Lite mode) build 49521"
  9398  0B54                     u266_25:
  9399  0B54  1003               	clrc
  9400  0B55  0DF8               	rlf	(i1___lwmod@divisor),f
  9401  0B56  0DF9               	rlf	(i1___lwmod@divisor+1),f
  9402  0B57  3EFF               	addlw	-1
  9403  0B58  1D03               	skipz
  9404  0B59  2B54               	goto	u266_25
  9405                           opt subtitle "HI-TECH Software Omniscient Code Generator (Lite mode) build 49521"
  9406                           
  9407  0B5A                     i1l3146:	
  9408  0B5A  3001               	movlw	(01h)
  9409  0B5B  00FC               	movwf	(??i1___lwmod+0)+0
  9410  0B5C  087C               	movf	(??i1___lwmod+0)+0,w
  9411  0B5D  07FD               	addwf	(i1___lwmod@counter),f
  9412  0B5E  2B5F               	goto	i1l3148
  9413                           opt subtitle "HI-TECH Software Omniscient Code Generator (Lite mode) build 49521"
  9414                           
  9415  0B5F                     i1l453:	
  9416                           opt subtitle "HI-TECH Software Omniscient Code Generator (Lite mode) build 49521"
  9417                           
  9418  0B5F                     i1l3148:	
  9419  0B5F  1FF9               	btfss	(i1___lwmod@divisor+1),(15)&7
  9420  0B60  2B62               	goto	u267_21
  9421  0B61  2B63               	goto	u267_20
  9422  0B62                     u267_21:
  9423  0B62  2B53               	goto	i1l3144
  9424  0B63                     u267_20:
  9425  0B63  2B65               	goto	i1l3150
  9426                           opt subtitle "HI-TECH Software Omniscient Code Generator (Lite mode) build 49521"
  9427  0B64                     i1l455:	
  9428  0B64  2B65               	goto	i1l3150
  9429                           opt subtitle "HI-TECH Software Omniscient Code Generator (Lite mode) build 49521"
  9430                           
  9431  0B65                     i1l456:	
  9432                           opt subtitle "HI-TECH Software Omniscient Code Generator (Lite mode) build 49521"
  9433                           
  9434  0B65                     i1l3150:	
  9435  0B65  0879               	movf	(i1___lwmod@divisor+1),w
  9436  0B66  027B               	subwf	(i1___lwmod@dividend+1),w
  9437  0B67  1D03               	skipz
  9438  0B68  2B6B               	goto	u268_25
  9439  0B69  0878               	movf	(i1___lwmod@divisor),w
  9440  0B6A  027A               	subwf	(i1___lwmod@dividend),w
  9441  0B6B                     u268_25:
  9442  0B6B  1C03               	skipc
  9443  0B6C  2B6E               	goto	u268_21
  9444  0B6D  2B6F               	goto	u268_20
  9445  0B6E                     u268_21:
  9446  0B6E  2B76               	goto	i1l3154
  9447  0B6F                     u268_20:
  9448                           opt subtitle "HI-TECH Software Omniscient Code Generator (Lite mode) build 49521"
  9449                           
  9450  0B6F                     i1l3152:	
  9451  0B6F  0878               	movf	(i1___lwmod@divisor),w
  9452  0B70  02FA               	subwf	(i1___lwmod@dividend),f
  9453  0B71  0879               	movf	(i1___lwmod@divisor+1),w
  9454  0B72  1C03               	skipc
  9455  0B73  03FB               	decf	(i1___lwmod@dividend+1),f
  9456  0B74  02FB               	subwf	(i1___lwmod@dividend+1),f
  9457  0B75  2B76               	goto	i1l3154
  9458                           opt subtitle "HI-TECH Software Omniscient Code Generator (Lite mode) build 49521"
  9459  0B76                     i1l457:	
  9460                           opt subtitle "HI-TECH Software Omniscient Code Generator (Lite mode) build 49521"
  9461                           
  9462  0B76                     i1l3154:	
  9463  0B76  3001               	movlw	01h
  9464                           opt subtitle "HI-TECH Software Omniscient Code Generator (Lite mode) build 49521"
  9465  0B77                     u269_25:
  9466  0B77  1003               	clrc
  9467  0B78  0CF9               	rrf	(i1___lwmod@divisor+1),f
  9468  0B79  0CF8               	rrf	(i1___lwmod@divisor),f
  9469  0B7A  3EFF               	addlw	-1
  9470  0B7B  1D03               	skipz
  9471  0B7C  2B77               	goto	u269_25
  9472                           opt subtitle "HI-TECH Software Omniscient Code Generator (Lite mode) build 49521"
  9473                           
  9474  0B7D                     i1l3156:	
  9475  0B7D  3001               	movlw	low(01h)
  9476  0B7E  02FD               	subwf	(i1___lwmod@counter),f
  9477  0B7F  1D03               	btfss	status,2
  9478  0B80  2B82               	goto	u270_21
  9479  0B81  2B83               	goto	u270_20
  9480  0B82                     u270_21:
  9481  0B82  2B65               	goto	i1l3150
  9482  0B83                     u270_20:
  9483  0B83  2B85               	goto	i1l3158
  9484                           opt subtitle "HI-TECH Software Omniscient Code Generator (Lite mode) build 49521"
  9485  0B84                     i1l458:	
  9486  0B84  2B85               	goto	i1l3158
  9487                           opt subtitle "HI-TECH Software Omniscient Code Generator (Lite mode) build 49521"
  9488                           
  9489  0B85                     i1l452:	
  9490                           opt subtitle "HI-TECH Software Omniscient Code Generator (Lite mode) build 49521"
  9491                           
  9492  0B85                     i1l3158:	
  9493  0B85  087B               	movf	(i1___lwmod@dividend+1),w
  9494  0B86  01F9               	clrf	(?i1___lwmod+1)
  9495  0B87  07F9               	addwf	(?i1___lwmod+1)
  9496  0B88  087A               	movf	(i1___lwmod@dividend),w
  9497  0B89  01F8               	clrf	(?i1___lwmod)
  9498  0B8A  07F8               	addwf	(?i1___lwmod)
  9499                           opt subtitle "HI-TECH Software Omniscient Code Generator (Lite mode) build 49521"
  9500  0B8B  2B8C               	goto	i1l459
  9501                           opt subtitle "HI-TECH Software Omniscient Code Generator (Lite mode) build 49521"
  9502  0B8C                     i1l3160:	
  9503                           opt subtitle "HI-TECH Software Omniscient Code Generator (Lite mode) build 49521"
  9504                           
  9505  0B8C                     i1l459:	
  9506  0B8C  0008               	return
  9507                           opt subtitle "HI-TECH Software Omniscient Code Generator (Lite mode) build 49521"
  9508                           
  9509  0B8D                     	__end_ofi1___lwmod:
  9510                           opt subtitle "HI-TECH Software Omniscient Code Generator (Lite mode) build 49521"
  9511                           
  9512                           opt pagewidth 120
  9513                           
  9514                           	opt lm
  9515                           
  9516                           	processor	16F707
  9517                           clrc	macro
  9518                           	bcf	3,0
  9519                           	endm
  9520                           clrz	macro
  9521                           	bcf	3,2
  9522                           	endm
  9523                           setc	macro
  9524                           	bsf	3,0
  9525                           	endm
  9526                           setz	macro
  9527                           	bsf	3,2
  9528                           	endm
  9529                           skipc	macro
  9530                           	btfss	3,0
  9531                           	endm
  9532                           skipz	macro
  9533                           	btfss	3,2
  9534                           	endm
  9535                           skipnc	macro
  9536                           	btfsc	3,0
  9537                           	endm
  9538                           skipnz	macro
  9539                           	btfsc	3,2
  9540                           	endm
  9541                           indf	equ	0
  9542                           indf0	equ	0
  9543                           pc	equ	2
  9544                           pcl	equ	2
  9545  0BD2                     __ptext1058:	;psect for function i1___lwdiv
  9546                           opt subtitle "HI-TECH Software Omniscient Code Generator (Lite mode) build 49521"
  9547                           
  9548                           opt pagewidth 120
  9549                           
  9550  004D                     	__size_ofi1___lwdiv	equ	__end_ofi1___lwdiv-i1___lwdiv
  9551                           opt subtitle "HI-TECH Software Omniscient Code Generator (Lite mode) build 49521"
  9552  0BD2                     i1___lwdiv:	
  9553                           opt subtitle "HI-TECH Software Omniscient Code Generator (Lite mode) build 49521"
  9554                           
  9555                           opt pagewidth 120
  9556                           
  9557  0BD2                     i1l3114:	
  9558  0BD2  01F6               	clrf	(i1___lwdiv@quotient)
  9559  0BD3  01F7               	clrf	(i1___lwdiv@quotient+1)
  9560                           opt subtitle "HI-TECH Software Omniscient Code Generator (Lite mode) build 49521"
  9561                           
  9562  0BD4                     i1l3116:	
  9563  0BD4  0871               	movf	(i1___lwdiv@divisor+1),w
  9564  0BD5  0470               	iorwf	(i1___lwdiv@divisor),w
  9565  0BD6  1903               	skipnz
  9566  0BD7  2BD9               	goto	u258_21
  9567  0BD8  2BDA               	goto	u258_20
  9568  0BD9                     u258_21:
  9569  0BD9  2C17               	goto	i1l3136
  9570  0BDA                     u258_20:
  9571                           opt subtitle "HI-TECH Software Omniscient Code Generator (Lite mode) build 49521"
  9572                           
  9573  0BDA                     i1l3118:	
  9574  0BDA  01F5               	clrf	(i1___lwdiv@counter)
  9575  0BDB  0AF5               	incf	(i1___lwdiv@counter),f
  9576                           opt subtitle "HI-TECH Software Omniscient Code Generator (Lite mode) build 49521"
  9577  0BDC  2BE9               	goto	i1l3124
  9578                           opt subtitle "HI-TECH Software Omniscient Code Generator (Lite mode) build 49521"
  9579  0BDD                     i1l444:	
  9580                           opt subtitle "HI-TECH Software Omniscient Code Generator (Lite mode) build 49521"
  9581                           
  9582  0BDD                     i1l3120:	
  9583  0BDD  3001               	movlw	01h
  9584                           opt subtitle "HI-TECH Software Omniscient Code Generator (Lite mode) build 49521"
  9585  0BDE                     u259_25:
  9586  0BDE  1003               	clrc
  9587  0BDF  0DF0               	rlf	(i1___lwdiv@divisor),f
  9588  0BE0  0DF1               	rlf	(i1___lwdiv@divisor+1),f
  9589  0BE1  3EFF               	addlw	-1
  9590  0BE2  1D03               	skipz
  9591  0BE3  2BDE               	goto	u259_25
  9592                           opt subtitle "HI-TECH Software Omniscient Code Generator (Lite mode) build 49521"
  9593                           
  9594  0BE4                     i1l3122:	
  9595  0BE4  3001               	movlw	(01h)
  9596  0BE5  00F4               	movwf	(??i1___lwdiv+0)+0
  9597  0BE6  0874               	movf	(??i1___lwdiv+0)+0,w
  9598  0BE7  07F5               	addwf	(i1___lwdiv@counter),f
  9599  0BE8  2BE9               	goto	i1l3124
  9600                           opt subtitle "HI-TECH Software Omniscient Code Generator (Lite mode) build 49521"
  9601                           
  9602  0BE9                     i1l443:	
  9603                           opt subtitle "HI-TECH Software Omniscient Code Generator (Lite mode) build 49521"
  9604                           
  9605  0BE9                     i1l3124:	
  9606  0BE9  1FF1               	btfss	(i1___lwdiv@divisor+1),(15)&7
  9607  0BEA  2BEC               	goto	u260_21
  9608  0BEB  2BED               	goto	u260_20
  9609  0BEC                     u260_21:
  9610  0BEC  2BDD               	goto	i1l3120
  9611  0BED                     u260_20:
  9612  0BED  2BEF               	goto	i1l3126
  9613                           opt subtitle "HI-TECH Software Omniscient Code Generator (Lite mode) build 49521"
  9614  0BEE                     i1l445:	
  9615  0BEE  2BEF               	goto	i1l3126
  9616                           opt subtitle "HI-TECH Software Omniscient Code Generator (Lite mode) build 49521"
  9617                           
  9618  0BEF                     i1l446:	
  9619                           opt subtitle "HI-TECH Software Omniscient Code Generator (Lite mode) build 49521"
  9620                           
  9621  0BEF                     i1l3126:	
  9622  0BEF  3001               	movlw	01h
  9623                           opt subtitle "HI-TECH Software Omniscient Code Generator (Lite mode) build 49521"
  9624  0BF0                     u261_25:
  9625  0BF0  1003               	clrc
  9626  0BF1  0DF6               	rlf	(i1___lwdiv@quotient),f
  9627  0BF2  0DF7               	rlf	(i1___lwdiv@quotient+1),f
  9628  0BF3  3EFF               	addlw	-1
  9629  0BF4  1D03               	skipz
  9630  0BF5  2BF0               	goto	u261_25
  9631                           opt subtitle "HI-TECH Software Omniscient Code Generator (Lite mode) build 49521"
  9632  0BF6  0871               	movf	(i1___lwdiv@divisor+1),w
  9633  0BF7  0273               	subwf	(i1___lwdiv@dividend+1),w
  9634  0BF8  1D03               	skipz
  9635  0BF9  2BFC               	goto	u262_25
  9636  0BFA  0870               	movf	(i1___lwdiv@divisor),w
  9637  0BFB  0272               	subwf	(i1___lwdiv@dividend),w
  9638  0BFC                     u262_25:
  9639  0BFC  1C03               	skipc
  9640  0BFD  2BFF               	goto	u262_21
  9641  0BFE  2C00               	goto	u262_20
  9642  0BFF                     u262_21:
  9643  0BFF  2C08               	goto	i1l3132
  9644  0C00                     u262_20:
  9645                           opt subtitle "HI-TECH Software Omniscient Code Generator (Lite mode) build 49521"
  9646                           
  9647  0C00                     i1l3128:	
  9648  0C00  0870               	movf	(i1___lwdiv@divisor),w
  9649  0C01  02F2               	subwf	(i1___lwdiv@dividend),f
  9650  0C02  0871               	movf	(i1___lwdiv@divisor+1),w
  9651  0C03  1C03               	skipc
  9652  0C04  03F3               	decf	(i1___lwdiv@dividend+1),f
  9653  0C05  02F3               	subwf	(i1___lwdiv@dividend+1),f
  9654                           opt subtitle "HI-TECH Software Omniscient Code Generator (Lite mode) build 49521"
  9655                           
  9656  0C06                     i1l3130:	
  9657  0C06  1476               	bsf	(i1___lwdiv@quotient)+(0/8),(0)&7
  9658  0C07  2C08               	goto	i1l3132
  9659                           opt subtitle "HI-TECH Software Omniscient Code Generator (Lite mode) build 49521"
  9660                           
  9661  0C08                     i1l447:	
  9662                           opt subtitle "HI-TECH Software Omniscient Code Generator (Lite mode) build 49521"
  9663                           
  9664  0C08                     i1l3132:	
  9665  0C08  3001               	movlw	01h
  9666                           opt subtitle "HI-TECH Software Omniscient Code Generator (Lite mode) build 49521"
  9667  0C09                     u263_25:
  9668  0C09  1003               	clrc
  9669  0C0A  0CF1               	rrf	(i1___lwdiv@divisor+1),f
  9670  0C0B  0CF0               	rrf	(i1___lwdiv@divisor),f
  9671  0C0C  3EFF               	addlw	-1
  9672  0C0D  1D03               	skipz
  9673  0C0E  2C09               	goto	u263_25
  9674                           opt subtitle "HI-TECH Software Omniscient Code Generator (Lite mode) build 49521"
  9675                           
  9676  0C0F                     i1l3134:	
  9677  0C0F  3001               	movlw	low(01h)
  9678  0C10  02F5               	subwf	(i1___lwdiv@counter),f
  9679  0C11  1D03               	btfss	status,2
  9680  0C12  2C14               	goto	u264_21
  9681  0C13  2C15               	goto	u264_20
  9682  0C14                     u264_21:
  9683  0C14  2BEF               	goto	i1l3126
  9684  0C15                     u264_20:
  9685  0C15  2C17               	goto	i1l3136
  9686                           opt subtitle "HI-TECH Software Omniscient Code Generator (Lite mode) build 49521"
  9687  0C16                     i1l448:	
  9688  0C16  2C17               	goto	i1l3136
  9689                           opt subtitle "HI-TECH Software Omniscient Code Generator (Lite mode) build 49521"
  9690                           
  9691  0C17                     i1l442:	
  9692                           opt subtitle "HI-TECH Software Omniscient Code Generator (Lite mode) build 49521"
  9693                           
  9694  0C17                     i1l3136:	
  9695  0C17  0877               	movf	(i1___lwdiv@quotient+1),w
  9696  0C18  01F1               	clrf	(?i1___lwdiv+1)
  9697  0C19  07F1               	addwf	(?i1___lwdiv+1)
  9698  0C1A  0876               	movf	(i1___lwdiv@quotient),w
  9699  0C1B  01F0               	clrf	(?i1___lwdiv)
  9700  0C1C  07F0               	addwf	(?i1___lwdiv)
  9701                           opt subtitle "HI-TECH Software Omniscient Code Generator (Lite mode) build 49521"
  9702  0C1D  2C1E               	goto	i1l449
  9703                           opt subtitle "HI-TECH Software Omniscient Code Generator (Lite mode) build 49521"
  9704  0C1E                     i1l3138:	
  9705                           opt subtitle "HI-TECH Software Omniscient Code Generator (Lite mode) build 49521"
  9706                           
  9707  0C1E                     i1l449:	
  9708  0C1E  0008               	return
  9709                           opt subtitle "HI-TECH Software Omniscient Code Generator (Lite mode) build 49521"
  9710                           
  9711  0C1F                     	__end_ofi1___lwdiv:
  9712                           opt subtitle "HI-TECH Software Omniscient Code Generator (Lite mode) build 49521"
  9713                           
  9714                           opt pagewidth 120
  9715                           
  9716                           	opt lm
  9717                           
  9718                           	processor	16F707
  9719                           clrc	macro
  9720                           	bcf	3,0
  9721                           	endm
  9722                           clrz	macro
  9723                           	bcf	3,2
  9724                           	endm
  9725                           setc	macro
  9726                           	bsf	3,0
  9727                           	endm
  9728                           setz	macro
  9729                           	bsf	3,2
  9730                           	endm
  9731                           skipc	macro
  9732                           	btfss	3,0
  9733                           	endm
  9734                           skipz	macro
  9735                           	btfss	3,2
  9736                           	endm
  9737                           skipnc	macro
  9738                           	btfsc	3,0
  9739                           	endm
  9740                           skipnz	macro
  9741                           	btfsc	3,2
  9742                           	endm
  9743                           indf	equ	0
  9744                           indf0	equ	0
  9745  08DF                     __ptext1059:	;psect for function i1_putch
  9746                           opt subtitle "HI-TECH Software Omniscient Code Generator (Lite mode) build 49521"
  9747                           
  9748                           opt pagewidth 120
  9749                           
  9750  000C                     	__size_ofi1_putch	equ	__end_ofi1_putch-i1_putch
  9751                           opt subtitle "HI-TECH Software Omniscient Code Generator (Lite mode) build 49521"
  9752  08DF                     i1_putch:	
  9753                           opt subtitle "HI-TECH Software Omniscient Code Generator (Lite mode) build 49521"
  9754                           
  9755                           opt pagewidth 120
  9756  08DF  00F0               	movwf	(i1putch@c)
  9757                           opt subtitle "HI-TECH Software Omniscient Code Generator (Lite mode) build 49521"
  9758                           
  9759  08E0                     i1l3110:	
  9760                           opt subtitle "HI-TECH Software Omniscient Code Generator (Lite mode) build 49521"
  9761  08E0  28E1               	goto	i1l227
  9762                           opt subtitle "HI-TECH Software Omniscient Code Generator (Lite mode) build 49521"
  9763  08E1                     i1l228:	
  9764                           opt subtitle "HI-TECH Software Omniscient Code Generator (Lite mode) build 49521"
  9765  08E1                     i1l227:	
  9766  08E1  1283               	bcf	status, 5	;RP0=0, select bank0
  9767  08E2  1303               	bcf	status, 6	;RP1=0, select bank0
  9768  08E3  1E0C               	btfss	(100/8),(100)&7	;volatile
  9769  08E4  28E6               	goto	u257_21
  9770  08E5  28E7               	goto	u257_20
  9771  08E6                     u257_21:
  9772  08E6  28E1               	goto	i1l227
  9773  08E7                     u257_20:
  9774  08E7  28E8               	goto	i1l3112
  9775                           opt subtitle "HI-TECH Software Omniscient Code Generator (Lite mode) build 49521"
  9776  08E8                     i1l229:	
  9777                           opt subtitle "HI-TECH Software Omniscient Code Generator (Lite mode) build 49521"
  9778                           
  9779  08E8                     i1l3112:	
  9780                           opt subtitle "HI-TECH Software Omniscient Code Generator (Lite mode) build 49521"
  9781  08E8  0870               	movf	(i1putch@c),w
  9782  08E9  0099               	movwf	(25)	;volatile
  9783                           opt subtitle "HI-TECH Software Omniscient Code Generator (Lite mode) build 49521"
  9784                           
  9785  08EA                     i1l230:	
  9786  08EA  0008               	return
  9787                           opt subtitle "HI-TECH Software Omniscient Code Generator (Lite mode) build 49521"
  9788                           
  9789  08EB                     	__end_ofi1_putch:
  9790                           opt subtitle "HI-TECH Software Omniscient Code Generator (Lite mode) build 49521"
  9791                           
  9792                           opt pagewidth 120
  9793  0000                     __ptext1060:	;psect for function i1_putch
  9794                           opt subtitle "HI-TECH Software Omniscient Code Generator (Lite mode) build 49521"
  9795  007E                     	btemp set 07Eh
  9796                           opt subtitle "HI-TECH Software Omniscient Code Generator (Lite mode) build 49521"
  9797                           
  9798                           opt pagewidth 120
  9799  007E                     	wtemp0 set btemp


Data Sizes:
    Strings     252
    Constant    145
    Data        11
    BSS         43
    Persistent  1
    Stack       0

Auto Spaces:
    Space          Size  Autos    Used
    COMMON           14     14      14
    BANK0            80     52      60
    BANK1            80     55      71
    BANK3            96      0      32
    BANK2            91      0       0

Pointer List with Targets:

    ?___lwdiv	unsigned int  size(1) Largest target is 0

    ?___lwmod	unsigned int  size(1) Largest target is 0

    ?___wmul	unsigned int  size(1) Largest target is 0

    printf@f	PTR const unsigned char  size(2) Largest target is 37
		 -> STR_15(CODE[5]), STR_14(CODE[12]), Receive_Packet@rx_buf(BANK0[32]), STR_13(CODE[5]), 
		 -> STR_12(CODE[24]), STR_11(CODE[17]), STR_10(CODE[3]), STR_9(CODE[3]), 
		 -> STR_8(CODE[10]), STR_7(CODE[18]), STR_6(CODE[21]), STR_5(CODE[26]), 
		 -> STR_4(CODE[37]), STR_3(CODE[23]), STR_2(CODE[20]), STR_1(CODE[19]), 

    ?_printf	int  size(1) Largest target is 0

    printf@ap	PTR void [1] size(1) Largest target is 2
		 -> ?_printf(BANK0[2]), 

    S1305$_cp	PTR const unsigned char  size(1) Largest target is 0

    _val._str._cp	PTR const unsigned char  size(1) Largest target is 0

    SPI_Write_Buf@pBuf	PTR unsigned char  size(1) Largest target is 12
		 -> RFM70_Initialize@WriteArr(BANK0[12]), tx_buf(BANK1[8]), 

    Send_Packet@pbuf	PTR unsigned char  size(1) Largest target is 8
		 -> tx_buf(BANK1[8]), 


Critical Paths under _main in COMMON

    None.

Critical Paths under _ISR in COMMON

    i1_printf->i1___lwmod
    i1___lwmod->i1___lwdiv

Critical Paths under _main in BANK0

    _main->_printf
    _rfm70setPowerdownMode->_SPI_Read_Reg
    _RFM70_Initialize->_SwitchCFG
    _Send_Packet->_printf
    _printf->___lwmod
    _rfm70TxDataSentErrorInterrupt->_SPI_Read_Reg
    _SwitchToRxMode->_SPI_Read_Reg
    _rfm70TxDataSentInterrupt->_SPI_Read_Reg
    _SPI_Write_Buf->_SPI_RW
    _SwitchToTxMode->_SPI_Read_Reg
    _sleep->_adcReadVcap
    _SwitchCFG->_SPI_Read_Reg
    _SPI_Write_Reg->_SPI_RW
    _SPI_Read_Reg->_SPI_RW
    ___lwmod->___lwdiv

Critical Paths under _ISR in BANK0

    _ISR->i1_printf

Critical Paths under _main in BANK1

    _main->_Send_Packet

Critical Paths under _ISR in BANK1

    None.

Critical Paths under _main in BANK3

    None.

Critical Paths under _ISR in BANK3

    None.

Critical Paths under _main in BANK2

    None.

Critical Paths under _ISR in BANK2

    None.

Call Graph Tables:

 ---------------------------------------------------------------------------------
 (Depth) Function   	        Calls       Base Space   Used Autos Params    Refs
 ---------------------------------------------------------------------------------
 (0) _main                                                54    50      4    7875
                                              8 BANK1     47    43      4
                            _spiInit
                           _uartInit
                            _adcInit
              _rfm70setPowerdownMode
                             _printf
                        _adcReadVcap
                   _RFM70_Initialize
                        _adcReadTemp
                             ___wmul
                   _adcReadVsupercap
                        _Send_Packet
                              _sleep
 ---------------------------------------------------------------------------------
 (1) _spiInit                                              2     2      0       0
                                             20 BANK0      2     2      0
 ---------------------------------------------------------------------------------
 (1) _uartInit                                             0     0      0       0
 ---------------------------------------------------------------------------------
 (1) _adcInit                                              0     0      0       0
 ---------------------------------------------------------------------------------
 (1) _rfm70setPowerdownMode                                3     3      0     260
                                             26 BANK0      3     3      0
                       _SPI_Read_Reg
                      _SPI_Write_Reg
 ---------------------------------------------------------------------------------
 (1) _RFM70_Initialize                                    21    21      0    2745
                                             29 BANK0     21    21      0
                          _SwitchCFG
                      _SPI_Write_Reg
                      _SPI_Write_Buf
                       _SPI_Read_Reg
 ---------------------------------------------------------------------------------
 (1) _adcReadTemp                                          3     3      0      23
                                             20 BANK0      3     3      0
 ---------------------------------------------------------------------------------
 (1) _adcReadVsupercap                                     3     3      0      23
                                             20 BANK0      3     3      0
 ---------------------------------------------------------------------------------
 (1) _Send_Packet                                          8     6      2    2903
                                              0 BANK1      8     6      2
                     _SwitchToTxMode
                       _SPI_Read_Reg
                             _printf
                      _SPI_Write_Buf
           _rfm70TxDataSentInterrupt
                     _SwitchToRxMode
      _rfm70TxDataSentErrorInterrupt
 ---------------------------------------------------------------------------------
 (2) _printf                                              18    12      6    1460
                                             34 BANK0     18    12      6
                              _putch
                            ___lwdiv
                            ___lwmod
 ---------------------------------------------------------------------------------
 (2) _rfm70TxDataSentErrorInterrupt                        1     1      0     189
                                             26 BANK0      1     1      0
                       _SPI_Read_Reg
                      _SPI_Write_Reg
 ---------------------------------------------------------------------------------
 (2) _SwitchToRxMode                                       2     2      0     291
                                             26 BANK0      2     2      0
                      _SPI_Write_Reg
                       _SPI_Read_Reg
 ---------------------------------------------------------------------------------
 (2) _rfm70TxDataSentInterrupt                             1     1      0     189
                                             26 BANK0      1     1      0
                       _SPI_Read_Reg
                      _SPI_Write_Reg
 ---------------------------------------------------------------------------------
 (2) _SPI_Write_Buf                                        5     3      2     164
                                             23 BANK0      5     3      2
                             _SPI_RW
 ---------------------------------------------------------------------------------
 (2) _SwitchToTxMode                                       2     2      0     257
                                             26 BANK0      2     2      0
                      _SPI_Write_Reg
                       _SPI_Read_Reg
 ---------------------------------------------------------------------------------
 (1) _sleep                                                3     3      0      46
                                             23 BANK0      3     3      0
                        _adcReadVcap
 ---------------------------------------------------------------------------------
 (2) _adcReadVcap                                          3     3      0      23
                                             20 BANK0      3     3      0
 ---------------------------------------------------------------------------------
 (3) _putch                                                1     1      0      31
                                             20 BANK0      1     1      0
 ---------------------------------------------------------------------------------
 (2) _SwitchCFG                                            3     3      0     350
                                             26 BANK0      3     3      0
                       _SPI_Read_Reg
                      _SPI_Write_Reg
 ---------------------------------------------------------------------------------
 (3) _SPI_Write_Reg                                        2     1      1      93
                                             23 BANK0      2     1      1
                             _SPI_RW
 ---------------------------------------------------------------------------------
 (3) _SPI_Read_Reg                                         3     3      0      96
                                             23 BANK0      3     3      0
                             _SPI_RW
 ---------------------------------------------------------------------------------
 (4) _SPI_RW                                               3     3      0      31
                                             20 BANK0      3     3      0
 ---------------------------------------------------------------------------------
 (1) ___wmul                                               6     2      4      92
                                             20 BANK0      6     2      4
 ---------------------------------------------------------------------------------
 (3) ___lwdiv                                              8     4      4     241
                                             20 BANK0      8     4      4
 ---------------------------------------------------------------------------------
 (3) ___lwmod                                              6     2      4     232
                                             28 BANK0      6     2      4
                            ___lwdiv (ARG)
 ---------------------------------------------------------------------------------
 Estimated maximum stack depth 4
 ---------------------------------------------------------------------------------
 (Depth) Function   	        Calls       Base Space   Used Autos Params    Refs
 ---------------------------------------------------------------------------------
 (5) _ISR                                                  6     6      0    3276
                                             14 BANK0      6     6      0
                           i1_printf
 ---------------------------------------------------------------------------------
 (6) i1_printf                                            14    12      2    3276
                                              0 BANK0     14    12      2
                            i1_putch
                          i1___lwdiv
                          i1___lwmod
 ---------------------------------------------------------------------------------
 (7) i1___lwmod                                            6     2      4     521
                                              8 COMMON     6     2      4
                          i1___lwdiv (ARG)
 ---------------------------------------------------------------------------------
 (7) i1___lwdiv                                            8     4      4     527
                                              0 COMMON     8     4      4
 ---------------------------------------------------------------------------------
 (7) i1_putch                                              1     1      0      73
                                              0 COMMON     1     1      0
 ---------------------------------------------------------------------------------
 Estimated maximum stack depth 7
 ---------------------------------------------------------------------------------

 Call Graph Graphs:

 _main (ROOT)
   _spiInit
   _uartInit
   _adcInit
   _rfm70setPowerdownMode
     _SPI_Read_Reg
       _SPI_RW
     _SPI_Write_Reg
       _SPI_RW
   _printf
     _putch
     ___lwdiv
     ___lwmod
       ___lwdiv (ARG)
   _adcReadVcap
   _RFM70_Initialize
     _SwitchCFG
       _SPI_Read_Reg
         _SPI_RW
       _SPI_Write_Reg
         _SPI_RW
     _SPI_Write_Reg
       _SPI_RW
     _SPI_Write_Buf
       _SPI_RW
     _SPI_Read_Reg
       _SPI_RW
   _adcReadTemp
   ___wmul
   _adcReadVsupercap
   _Send_Packet
     _SwitchToTxMode
       _SPI_Write_Reg
         _SPI_RW
       _SPI_Read_Reg
         _SPI_RW
     _SPI_Read_Reg
       _SPI_RW
     _printf
       _putch
       ___lwdiv
       ___lwmod
         ___lwdiv (ARG)
     _SPI_Write_Buf
       _SPI_RW
     _rfm70TxDataSentInterrupt
       _SPI_Read_Reg
         _SPI_RW
       _SPI_Write_Reg
         _SPI_RW
     _SwitchToRxMode
       _SPI_Write_Reg
         _SPI_RW
       _SPI_Read_Reg
         _SPI_RW
     _rfm70TxDataSentErrorInterrupt
       _SPI_Read_Reg
         _SPI_RW
       _SPI_Write_Reg
         _SPI_RW
   _sleep
     _adcReadVcap

 _ISR (ROOT)
   i1_printf
     i1_putch
     i1___lwdiv
     i1___lwmod
       i1___lwdiv (ARG)

 Address spaces:
Name               Size   Autos  Total    Cost      Usage
BANK3               60      0      20      10       33.3%
BITBANK3            60      0       0       9        0.0%
SFR3                 0      0       0       4        0.0%
BITSFR3              0      0       0       4        0.0%
BANK2               5B      0       0      12        0.0%
BITBANK2            5B      0       0      11        0.0%
SFR2                 0      0       0       5        0.0%
BITSFR2              0      0       0       5        0.0%
BANK1               50     37      47       8       88.8%
BITBANK1            50      0       0       7        0.0%
SFR1                 0      0       0       2        0.0%
BITSFR1              0      0       0       2        0.0%
BANK0               50     34      3C       5       75.0%
BITBANK0            50      0       1       4        1.2%
SFR0                 0      0       0       1        0.0%
BITSFR0              0      0       0       1        0.0%
COMMON               E      E       E       1      100.0%
BITCOMMON            E      0       0       0        0.0%
CODE                 0      0       0       0        0.0%
DATA                 0      0      BB       6        0.0%
ABS                  0      0      B1       3        0.0%
NULL                 0      0       0       0        0.0%
STACK                0      0       A       2        0.0%


Microchip Technology PIC Macro Assembler V1.12 build 49521 
Symbol Table                                                                                   Wed Apr 24 11:54:40 2013

                                     pc 0002                             __CFG_CP$OFF 0000  
                           _SSPSTATbits 0094                                      fsr 0004  
                   ___wmul@multiplicand 0036          __size_of_rfm70setPowerdownMode 0025  
         __end_of_rfm70setPowerdownMode 09E3               __size_of_RFM70_Initialize 0310  
               __size_of_SwitchToRxMode 003F                                     l201 09FF  
                                   l202 09FF                                     l203 0A04  
                                   l300 097F                                     l204 0A0B  
                                   l221 094D                                     l230 08F6  
                                   l310 0A44                                     l311 0A5E  
                                   l312 0A5F                                     l400 0628  
                                   l224 08DE                                     l321 0B13  
                                   l401 0657                                     l410 0690  
                                   l402 0629                                     l250 0E09  
                                   l218 0935                                     l170 04D0  
                                   l323 0B08                                     l227 08EF  
                                   l315 07FE                                     l411 06BC  
                                   l403 0629                                     l251 0E24  
                                   l171 0500                                     l228 08EF  
                                   l420 0712                                     l412 06B1  
                                   l404 062B                                     l252 0E3F  
                                   l340 0122                                     l332 0034  
                                   l180 060D                                     l172 0581  
                                   l164 046C                                     l325 0AFE  
                                   l229 08F4                                     l309 0A58  
                                   l421 0784                                     l413 06FE  
                                   l405 0678                                     l245 0E51  
                                   l253 0E47                                     l341 0130  
                                   l333 0064                                     l181 060D  
                                   l165 0444                                     l326 0B13  
                                   l318 0A35                                     l422 0713  
                                   l414 06BD                                     l406 0677  
                                   l246 0DC3                                     l254 0E51  
                                   l190 0AA8                                     l350 024A  
                                   l342 015F                                     l334 006D  
                                   l174 0570                                     l423 078D  
                                   l415 06C7                                     l407 0685  
                                   l247 0D9C                                     l191 0AAD  
                                   l351 026E                                     l343 0170  
                                   l335 008B                                     l175 059C  
                                   l167 047E                                     l184 0D5D  
                                   l424 074C                                     l408 06F5  
                                   l416 06F3                                     l248 0DCA  
                                   l192 0AB5                                     l352 028C  
                                   l344 01E4                                     l336 00A4  
                                   l176 05F7                                     l168 047F  
                                   l185 0D75                 __size_of_SwitchToTxMode 002A  
                                   l425 07A1                                     l417 06E8  
                                   l409 0686                                     l249 0E40  
                                   l353 02A5                                     l345 0179  
                                   l337 00C2                                     l177 05C8  
                                   l169 04A8                                     l442 0C66  
                                   l186 0D75                                     l370 09BD  
                                   l426 07BE                                     l418 070B  
                                   l354 02E8                                     l346 01C8  
                                   l338 00DB                                     l178 0605  
                                   l443 0C38                                     l291 095D  
                                   l195 0A7D                                     l363 099B  
                                   l419 0794                                     l427 07BF  
                                   l355 0324                                     l347 01F0  
                                   l339 00F9                                     l179 060C  
                                   l452 0BCA                                     l444 0C2C  
                                   l436 0ABB                                     l292 095D  
                                   l196 0A7D                                     l364 099E  
                                   l348 0265                                     l380 09E2  
                                   l453 0BA4                                     l445 0C3D  
                                   l437 0AC5                                     l293 0964  
                                   l197 0A82                                     l365 099E  
                                   l189 0AA8                                     l349 01F9  
                                   l454 0B98                                     l446 0C3E  
                                   l438 0ADA                                     l294 0966  
                                   l198 0A8A                                     l455 0BA9  
                                   l447 0C57                                     l439 0AE1  
                                   l456 0BAA                                     l448 0C65  
                                   l368 09BA                                     l457 0BBB  
                                   l449 0C6D                                     l297 091F  
                                   l369 09BD                                     l393 07A2  
                                   l458 0BC9                                     l394 0617  
                                   l378 09D6                                     l459 0BD1  
                                   l395 0624                                     l379 09D8  
                                   l396 0633                                     l397 0626  
                                   l398 07BF                                     l399 0627  
                                   _GIE 005F                                     _ISR 0C6E  
                                   fsr0 0004                                     indf 0000  
                                  ?_ISR 0070                                    l4000 0B03  
                                  l3050 0AB6                                    l4002 0B08  
                                  l4020 0C2C                                    l3060 0AE1  
                                  l3052 0ABB                                    l3300 068F  
                                  l4030 0C55                                    l4022 0C33  
                                  l4014 0C1F                                    l3054 0ABF  
                                  l3310 06BF                                    l3302 0690  
                                  l4040 0B8D                                    l4032 0C57  
                                  l4024 0C38                                    l4016 0C23  
                                  l3056 0ACC                                    l3320 06EC  
                                  l3312 06C6                                    l3304 06B0  
                                  l3400 0363                                    l4050 0BAA  
                                  l4042 0B95                                    l4034 0C5E  
                                  l4026 0C3E                                    l4018 0C29  
                                  l3058 0ADA                                    l3330 070B  
                                  l3322 06F4                                    l3314 06C7  
                                  l3306 06B1                                    l3410 0372  
                                  l3402 0366                                    l4060 0BD1  
                                  l4052 0BB4                                    l4044 0B98  
                                  l4028 0C4F                                    l4036 0C66  
                                  l3332 0713                                    l3340 0784  
                                  l3316 06E7                                    l3308 06B5  
                                  l3324 06F5                                    l2540 093A  
                                  l3500 03C4                                    l3420 0381  
                                  l3412 0375                                    l3404 0369  
                                  l4054 0BBB                                    l4046 0B9F  
                                  l4038 0C6D                                    l3334 074C  
                                  l3342 078D                                    l3318 06E8  
                                  l3326 06FE                                    l2550 0924  
                                  l2542 093E                                    l3510 03CB  
                                  l3502 03C7                                    l3430 038C  
                                  l3422 0384                                    l3414 0378  
                                  l3406 036C                                    l3350 032F  
                                  l4056 0BC2                                    l4048 0BA4  
                                  l3336 0773                                    l3344 0794  
                                  l3328 0704                                    l3280 0632  
                                  l3272 0610                                    l2560 092F  
                                  l2552 0926                                    l2544 0941  
                                  l3600 0569                                    l3520 03D2  
                                  l3512 03CC                                    l3504 03C8  
                                  l3440 0396                                    l3432 038D  
                                  l3424 0387                                    l3416 037B  
                                  l3408 036F                                    l3360 033D  
                                  l3352 0333                                    l4058 0BCA  
                                  l3338 0783                                    l3290 066D  
                                  l3282 0633                                    l3274 0617  
                                  l3346 07A2                                    l2562 0932  
                                  l2554 0929                                    l2546 0942  
                                  l2538 0936                                    l3610 05A5  
                                  l3602 0570                                    l3530 03DD  
                                  l3522 03D3                                    l3514 03CF  
                                  l3506 03C9                                    l3450 03A3  
                                  l3442 039A                                    l3434 038E  
                                  l3426 0388                                    l3418 037E  
                                  l3370 0346                                    l3362 033E  
                                  l3354 0336                                    l2580 0A6F  
                                  l3292 0671                                    l3284 065D  
                                  l3276 061D                                    l3700 0122  
                                  l2564 08D5                                    l2556 092C  
                                  l2548 0920                                    l3620 05C4  
                                  l3612 05A8                                    l3604 0581  
                                  l3540 03F9                                    l3532 03E0  
                                  l3524 03D4                                    l3516 03D0  
                                  l3508 03CA                                    l3460 03AA  
                                  l3452 03A4                                    l3444 039C  
                                  l3436 0391                                    l3428 038B  
                                  l3380 0353                                    l3372 0349  
                                  l3364 033F                                    l3356 0337  
                                  l3348 0325                                    l2590 0A87  
                                  l2582 0A70                                    l2830 0D0D  
                                  l2822 0CE5                                    l3286 0665  
                                  l3294 0678                                    l3278 062B  
                                  l2750 0A9A                                    l3710 0158  
                                  l3702 0128                                    l3630 09C1  
                                  l2566 08DD                                    l2558 092D  
                                  l3622 05C8                                    l3614 05AA  
                                  l3606 059C                                    l3550 0436  
                                  l3542 03FE                                    l3534 03E3  
                                  l3526 03D7                                    l3518 03D1  
                                  l3470 03B1                                    l3462 03AB  
                                  l3454 03A7                                    l3446 039F  
                                  l3438 0395                                    l3390 035A  
                                  l3382 0354                                    l3374 034D  
                                  l3366 0340                                    l3358 033A  
                                  l2592 0A8A                                    l2584 0A79  
                                  l2576 0A60                                    l2840 0D29  
                                  l2832 0D0F                                    l2824 0CF8  
                                  l3296 0680                                    l3288 0669  
                                  l3800 0D98                                    l2760 0AB2  
                                  l2752 0A9B                                    l3720 0171  
                                  l3704 012F                                    l3712 015F  
                                  l3640 0023                                    l3632 09CC  
                                  l3624 05F1                                    l3616 05AB  
                                  l3608 059F                                    l3560 047F  
                                  l3552 0445                                    l3544 0403  
                                  l3536 03E6                                    l3528 03DA  
                                  l3480 03B8                                    l3472 03B2  
                                  l3464 03AC                                    l3456 03A8  
                                  l3448 03A2                                    l3392 035B  
                                  l3384 0355                                    l3376 034F  
                                  l3368 0343                                    l2586 0A82  
                                  l2578 0A6C                                    l2850 0D46  
                                  l2842 0D33                                    l2834 0D23  
                                  l2826 0D01                                    l3298 0688  
                                  l3810 0DD5                                    l3802 0D9C  
                                  l2770 09FB                                    l2762 0AB5  
                                  l2754 0AA4                                    l2746 0A8B  
                                  l3722 0178                                    l3730 01C8  
                                  l3714 0165                                    l3706 0130  
                                  l3650 0058                                    l3642 0029  
                                  l3634 09D1                                    l3626 05F7  
                                  l3618 05AC                                    l3570 04AE  
                                  l3562 0497                                    l3554 0452  
                                  l3546 0409                                    l3538 03F4  
                                  l3490 03BF                                    l3482 03B9  
                                  l3474 03B3                                    l3466 03AF  
                                  l3458 03A9                                    l3394 035C  
                                  l3386 0356                                    l3378 0352  
                                  l2588 0A86                                    l2860 0D61  
                                  l2852 0D48                                    l2844 0D34  
                                  l2836 0D25                                    l2828 0D09  
                                  l3900 07EC                                    l3820 0DFD  
                                  l3812 0DD8                                    l3804 0DBC  
                                  l2772 0A04                                    l2764 09E3  
                                  l2756 0AAD                                    l2748 0A97  
                                  l3740 01F1                                    l3732 01D7  
                                  l3724 0179                                    l3716 0168  
                                  l3708 0154                                    l3660 0080  
                                  l3652 005E                                    l3644 002C  
                                  l3636 09D8                                    l3628 0605  
                                  l3580 04E9                                    l3572 04B8  
                                  l3564 049C                                    l3556 046C  
                                  l3548 041C                                    l3492 03C0  
                                  l3484 03BA                                    l3476 03B4  
                                  l3468 03B0                                    l3396 035D  
                                  l3388 0357                                    l2862 0D62  
                                  l2854 0D4A                                    l2846 0D43  
                                  l2838 0D27                                    l3902 07F1  
                                  l3910 09B6                                    l3830 0E2E  
                                  l3822 0E09                                    l3814 0DF0  
                                  l3806 0DC3                                    l2774 0A08  
                                  l2766 09EF                                    l2758 0AB1  
                                  l3742 01F8                                    l3750 024A  
                                  l3734 01DD                                    l3726 01BD  
                                  l3718 016F                                    l3670 00A3  
                                  l3662 0084                                    l3654 0065  
                                  l3646 0033                                    l3638 0015  
                                  l3590 0520                                    l3574 04CF  
                                  l3582 0500                                    l3566 04A3  
                                  l3558 0477                                    l3494 03C1  
                                  l3486 03BB                                    l3478 03B7  
                                  l3398 0360                                    l3840 08F4  
                                  l2864 0D64                                    l2856 0D54  
                                  l2848 0D44                                    l3904 07FB  
                                  l3912 09B8                                    l3832 0E39  
                                  l3824 0E13                                    l3816 0DF3  
                                  l3808 0DCA                                    l2776 0A0B  
                                  l2768 09F2                                    l3760 026E  
                                  l3752 0259                                    l3744 01F9  
                                  l3728 01C1                                    l3736 01E4  
                                  l3680 00D0                                    l3672 00A4  
                                  l3656 006C                                    l3664 008B  
                                  l3648 0034                                    l3592 0551  
                                  l3584 0514                                    l3576 04D0  
                                  l3568 04A8                                    l3496 03C2  
                                  l3488 03BC                                    l2866 0D6C  
                                  l2858 0D5F                                    l3850 0A23  
                                  l3914 09B9                                    l3906 099F  
                                  l3826 0E1E                                    l3834 0E40  
                                  l3818 0DFA                                    l3770 029D  
                                  l3762 0281                                    l3754 025F  
                                  l3746 023F                                    l3738 01EF  
                                  l3690 00F2                                    l3682 00D3  
                                  l3674 00B7                                    l3666 0099  
                                  l3658 006D                                    l3594 0555  
                                  l3586 0518                                    l3578 04DB  
                                  l3498 03C3                                    l3860 0971  
                                  l3852 0A28                                    l3908 09AC  
                                  l3916 09BA                                    l3836 0E47  
                                  l3828 0E24                                    l3772 02A4  
                                  l3780 02E8                                    l3764 0285  
                                  l3756 0266                                    l3748 0243  
                                  l3684 00DA                                    l3692 00F9  
                                  l3676 00BB                                    l3668 009C  
                                  l3596 0559                                    l3588 051C  
                                  l3862 097C                                    l3838 08EE  
                                  l3854 0A32                                    l3846 0A0C  
                                  l3870 0A3A                                    l3918 09BC  
                                  l3790 0321                                    l3782 02ED  
                                  l3774 02A5                                    l3758 026D  
                                  l3766 028C                                    l3694 0107  
                                  l3686 00DB                                    l3678 00C2  
                                  l3598 0563                                    l3864 097D  
                                  l3856 096A                                    l3848 0A15  
                                  l3880 0A58                                    l3872 0A40  
                                  l3792 0D79                                    l3784 02FB  
                                  l3776 02DD                                    l3768 029A  
                                  l3696 0112                                    l3688 00EE  
                                  l3866 097F                                    l3858 096B  
                                  l3874 0A44                                    l3890 099A  
                                  l3882 0980                                    l3794 0D7E  
                                  l3786 0310                                    l3778 02E1  
                                  l3698 0117                                    l3980 090E  
                                  l3876 0A4D                                    l3868 0A39  
                                  l3884 098D                                    l3892 099B  
                                  l3796 0D89                                    l3788 031B  
                                  l3982 091C                                    l3990 0AE5  
                                  l3878 0A53                                    l3894 099D  
                                  l3886 0997                                    l3798 0D8D  
                                  l3984 0951                                    l3992 0AF0  
                                  l3888 0999                                    l3896 07C0  
                                  l3986 0964                                    l3978 090D  
                                  l3994 0AF5                                    l3898 07DE  
                                  l3988 0966                                    l3996 0AF9  
                                  l3998 0AFE                                    STR_1 113A  
                                  STR_2 1126                                    STR_3 10FA  
                                  STR_4 10A3                                    STR_5 10C8  
                                  STR_6 1111                                    STR_7 114D  
                                  STR_8 118D                                    STR_9 119C  
                                  u2200 0D01                                    u2201 0D00  
                                  u2210 0D09                                    u2130 0AAC  
                                  u3010 0477                                    u2211 0D08  
                                  u2131 0AAB                                    u3011 0476  
                                  u2220 0D0D                                    u2140 0A03  
                                  u3100 0064                                    u3020 047D  
                                  u2221 0D0C                                    u2141 0A02  
                                  u3101 0063                                    u3021 047C  
                                  u3005 0410                                    u3110 006B  
                                  u3030 04CE                                    u3111 006A  
                                  u3031 04CD                                    u2400 0ABF  
                                  u3200 016E                                    u3120 008A  
                                  u3040 04FF                                    u2401 0ABE  
                                  u3201 016D                                    u3121 0089  
                                  u3041 04FE                                    u3033 04CA  
                                  u3210 0177                                    u3130 00A2  
                                  u3050 0569                                    u2235 0D15  
                                  u3211 0176                                    u3131 00A1  
                                  u3051 0568                                    u3043 04FB  
                                  u3140 00C1                                    u3060 056F  
                                  u3141 00C0                                    u3061 056E  
                                  u2430 0AD9                                    u3310 0234  
                                  u3150 00D9                                    u3070 0604  
                                  u2431 0AD8                                    u2415 0AC6  
                                  u3151 00D8                                    u3071 0603  
                                  u3400 0D8D                                    u3320 0249  
                                  u3240 01B2                                    u3160 00F8  
                                  u3080 09D1                                    u2425 0ACD  
                                  u3401 0D8C                                    u3321 0248  
                                  u3305 0225                                    u3225 017C  
                                  u3161 00F7                                    u3081 09D0  
                                  u1810 0A81                                    u3410 0DC9  
                                  u3330 0265                                    u3250 01C7  
                                  u3170 0117                                    u3090 0032  
                                  u1811 0A80                                    u3411 0DC8  
                                  u3331 0264                                    u3315 022F  
                                  u3251 01C6                                    u3235 01A4  
                                  u3171 0116                                    u3091 0031  
                                  u3420 0E13                                    u3340 026C  
                                  u3260 01E3                                    u3180 012E  
                                  u3421 0E12                                    u3341 026B  
                                  u3261 01E2                                    u3245 01AD  
                                  u3181 012D                                    u3430 0E2E  
                                  u3350 028B                                    u3270 01EE  
                                  u3190 015E                                    u3431 0E2D  
                                  u3351 028A                                    u3271 01ED  
                                  u3191 015D                                    u3440 0E46  
                                  u3360 02A3                                    u3280 01F7  
                                  u3441 0E45                                    u3361 02A2  
                                  u3281 01F6                                    u3610 0C29  
                                  u3450 08F3                                    u3611 0C28  
                                  u3451 08F2                                    u3700 0BA8  
                                  u3460 0A5E                                    u2900 068E  
                                  u3380 02D2                                    u3701 0BA7  
                                  u3461 0A5D                                    u2901 068D  
                                  u3710 0BB4                                    u3630 0C3C  
                                  u3550 0963                                    u3470 098D  
                                  u2910 06AF                                    u3390 02E7  
                                  u3711 0BB3                                    u3631 0C3B  
                                  u3551 0962                                    u3471 098C  
                                  u2911 06AE                                    u3391 02E6  
                                  u3375 02C4                                    u3295 01FC  
                                  u3560 0AF9                                    u3480 09AC  
                                  u2920 06BB                                    u3625 0C2D  
                                  u3481 09AB                                    u2921 06BA  
                                  u3385 02CD                                    u3730 0BC8  
                                  u3650 0C4F                                    u3570 0AFD  
                                  u2930 06C5                                    u3731 0BC7  
                                  u3715 0BB0                                    u3651 0C4E  
                                  u2931 06C4                                    u2915 06AB  
                                  _PEIE 005E                                    u3580 0B03  
                                  u2940 06E6                                    u3725 0BBC  
                                  u3645 0C3F                                    u3581 0B02  
                                  u2941 06E5                                    u3670 0C64  
                                  u3590 0B07                                    u2950 06F2  
                                  u2870 061D                                    u3671 0C63  
                                  u3655 0C4B                                    u2951 06F1  
                                  u2871 061C                                    u3807 0E03  
                                  u3680 0B95                                    u2960 0704  
                                  u2880 065D                                    u3681 0B94  
                                  u3665 0C58                                    u3817 0A74  
                                  u2961 0703                                    u2945 06E2  
                                  u2881 065C                                    u2970 07A0  
                                  u2890 066D                                    u3827 0957  
                                  u2971 079F                                    u2891 066C  
                                  u3747 0948                                    u2980 07BD  
                                  _RCIF 0065                                    u2981 07BC  
                                  u3757 001D                                    u3695 0B99  
                                  u3767 0316                                    u3777 0A9F  
                                  u3787 09F6                                    u2995 03EB  
                                  u3797 0DF7                                    _TXIF 0064  
                                  _flag 02D8                                    _main 0325  
                                  btemp 007E                                    start 0012  
             __size_of_adcReadVsupercap 0029                         __end_ofi1_putch 08EB  
                         _SPI_Write_Buf 0A36                         SPI_Read_Reg@reg 0038  
                         _SPI_Write_Reg 090A                           __CFG_MCLRE$ON 0000  
                                 ??_ISR 002E                           __CFG_PLLEN$ON 0000  
                                 ?_main 00A8                         __end_of_adcInit 08DF  
                                 _ADRES 001E                                   STR_10 1199  
                                 STR_11 1170                                   STR_12 10E2  
                                 STR_13 1197                                   STR_14 1181  
                                 STR_16 115F                           __CFG_WDTE$OFF 0000  
                       __end_of___lwdiv 0C6E                                   i1l230 08EA  
                                 i1l400 0E6A                                   i1l160 0CBD  
                                 i1l401 0E99                                   i1l153 0CDA  
                                 i1l161 0CDA                                   i1l410 0ED2  
                                 i1l402 0E6B                                   i1l154 0CD8  
                                 i1l227 08E1                                   i1l411 0EFE  
                                 i1l403 0E6B                                   i1l155 0CC6  
                                 i1l228 08E1                                   i1l420 0F54  
                                 i1l412 0EF3                                   i1l404 0E6D  
                                 i1l156 0CA8                                   i1l229 08E8  
                                 i1l421 0FC4                                   i1l413 0F40  
                                 i1l405 0EBA                                   i1l157 0CD5  
                                 i1l422 0F55                                   i1l414 0EFF  
                                 i1l406 0EB9                                   i1l158 0CAD  
                                 i1l423 0FCD                                   i1l415 0F09  
                                 i1l407 0EC7                                   i1l159 0CB5  
                                 i1l424 0F8C                                   i1l408 0F37  
                                 i1l416 0F35                                   i1l425 0FE1  
                                 i1l417 0F2A                                   i1l409 0EC8  
                       __end_of___lwmod 0BD2                                   i1l442 0C17  
                                 i1l426 0FFE                                   i1l418 0F4D  
                                 i1l443 0BE9                                   i1l419 0FD4  
                                 i1l427 0FFF                                   i1l444 0BDD  
                                 i1l452 0B85                                   i1l445 0BEE  
                                 i1l453 0B5F                                   i1l446 0BEF  
                                 i1l454 0B53                                   i1l447 0C08  
                                 i1l455 0B64                                   i1l448 0C16  
                                 i1l456 0B65                                   i1l449 0C1E  
                                 i1l457 0B76                                   i1l393 0FE2  
                                 i1l458 0B84                                   i1l394 0E59  
                                 i1l459 0B8C                                   i1l395 0E66  
                                 i1l396 0E75                                   i1l397 0E68  
                                 i1l398 0FFF                                   i1l399 0E69  
                                 _RCREG 001A                                   _RCSTA 0018  
                                 _TMR1H 000F                                   _TMR1L 000E  
                                 _SPBRG 0099                                   _PORTD 0008  
                                 _TXREG 0019                                   _TXSTA 0098  
                    i1___lwmod@dividend 007A                         __end_of_dpowers 108D  
                                 _sleep 0CE5                                   _value 00E1  
                                 _putch 08EB                                   main@i 00D3  
                                 pclath 000A                         __end_of_spiInit 094E  
                        Send_Packet@len 00A1                                   status 0003  
                                 wtemp0 007E                      __size_ofi1___lwdiv 004D  
                    __size_ofi1___lwmod 0043                        __end_ofi1_printf 1000  
                        ?_SPI_Write_Buf 0037                          ?_SPI_Write_Reg 0037  
                            i1printf@ap 0026                         __initialization 0B14  
                          __end_of_main 0610        __end_of_rfm70TxDataSentInterrupt 099F  
                         ??_Send_Packet 00A2                                  ??_main 00AC  
                                ?_sleep 0070                                  ?_putch 0070  
                                i1l3110 08E0                                  i1l3112 08E8  
                                i1l3120 0BDD                                  i1l3200 0F01  
                                i1l3130 0C06                                  i1l3122 0BE4  
                                i1l3114 0BD2                                  i1l3210 0F2E  
                                i1l3202 0F08                                  i1l3132 0C08  
                                i1l3124 0BE9                                  i1l3116 0BD4  
                                i1l3140 0B4A                                  i1l3220 0F4D  
                                i1l3212 0F36                                  i1l3204 0F09  
                                i1l3134 0C0F                                  i1l3126 0BEF  
                                i1l3118 0BDA                                  i1l3150 0B65  
                                i1l3142 0B50                                  i1l3222 0F55  
                                i1l3230 0FC4                                  i1l3206 0F29  
                                i1l3214 0F37                                  i1l3128 0C00  
                                i1l3136 0C17                                  i1l3160 0B8C  
                                i1l3152 0B6F                                  i1l3144 0B53  
                                i1l3224 0F8C                                  i1l3232 0FCD  
                                i1l3208 0F2A                                  i1l3216 0F40  
                                i1l3240 0C72                                  i1l3138 0C1E  
                                i1l3154 0B76                                  i1l3146 0B5A  
                                i1l3226 0FB3                                  i1l3234 0FD4  
                                i1l3218 0F46                                  i1l3170 0E74  
                                i1l3162 0E52                                  i1l3250 0C88  
                                i1l3242 0C76                                  i1l3156 0B7D  
                                i1l3148 0B5F                                  i1l3228 0FC3  
                                i1l3180 0EAF                                  i1l3172 0E75  
                                i1l3164 0E59                                  i1l3236 0FE2  
                                i1l3260 0CC5                                  i1l3252 0C98  
                                i1l3244 0C78                                  i1l3158 0B85  
                                i1l3190 0ED1                                  i1l3182 0EB3  
                                i1l3174 0E9F                                  i1l3166 0E5F  
                                i1l3254 0CAD                                  i1l3262 0CC6  
                                i1l3246 0C79                                  i1l3238 0C6E  
                                i1l3192 0ED2                                  i1l3176 0EA7  
                                i1l3184 0EBA                                  i1l3168 0E6D  
                                i1l3256 0CB5                                  i1l3248 0C7F  
                                i1l3194 0EF2                                  i1l3186 0EC2  
                                i1l3178 0EAB                                  i1l3258 0CBD  
                                i1l3196 0EF3                                  i1l3188 0ECA  
                                i1l3198 0EF7                                  u260_20 0BED  
                                u260_21 0BEC                                  u261_25 0BF0  
                                u262_20 0C00                                  u270_20 0B83  
                                u262_21 0BFF                                  u270_21 0B82  
                                u262_25 0BFC                                  u271_20 0E5F  
                                u271_21 0E5E                                  u263_25 0C09  
                                u264_20 0C15                                  u280_20 0F46  
                                u272_20 0E9F                                  u264_21 0C14  
                                u280_21 0F45                                  u272_21 0E9E  
                                u257_20 08E7                                  u265_20 0B50  
                                u281_20 0FE0                                  u273_20 0EAF  
                                u257_21 08E6                                  u265_21 0B4F  
                                u281_21 0FDF                                  u273_21 0EAE  
                                u258_20 0BDA                                  u282_20 0FFD  
                                u274_20 0ED0                                  u258_21 0BD9  
                                u282_21 0FFC                                  u274_21 0ECF  
                                u266_25 0B54                                  u267_20 0B63  
                                u275_20 0EF1                                  u283_20 0C72  
                                u267_21 0B62                                  u275_21 0EF0  
                                u283_21 0C71                                  u259_25 0BDE  
                                u275_25 0EED                                  u268_20 0B6F  
                                u276_20 0EFD                                  u284_20 0C7F  
                                u268_21 0B6E                                  u276_21 0EFC  
                                u284_21 0C7E                                  u268_25 0B6B  
                                u277_20 0F07                                  u277_21 0F06  
                                u269_25 0B77                                  u285_25 0C8D  
                                u278_20 0F28                                  u278_21 0F27  
                                u278_25 0F24                                  u286_25 0C9D  
                                u279_20 0F34                                  u279_21 0F33  
                             ??i1_putch 0070                                  _TMR1IE 0460  
                                _TMR1IF 0060                                  _SSPBUF 0013  
                                _SPI_RW 094E                          __CFG_PWRTE$OFF 0000  
                          SwitchCFG@Tmp 003C                RFM70_Initialize@WriteArr 0044  
                     RFM70_Initialize@i 0050                       RFM70_Initialize@j 0051  
                                ___wmul 0AB6                               ??_adcInit 0034  
                      SPI_Write_Buf@reg 003A                               ??___lwdiv 0038  
                             ??___lwmod 0040                                  _values 00E3  
                        _SwitchToRxMode 07C0                                  _printf 0610  
                      SPI_Write_Reg@reg 0038                                  _rx_buf 0190  
                      _RFM70_Initialize 0015                          _SwitchToTxMode 0A0C  
                     __end_of_Bank0_Reg 1078                                  _tx_buf 00D7  
                                clrloop 08C6                           main@num_sleep 00D2  
                     __end_ofi1___lwdiv 0C1F                       __end_ofi1___lwmod 0B8D  
                      __end_of_uartInit 0936                                  saved_w 007E  
                   __end_of_Send_Packet 0E52                         Send_Packet@pbuf 00A0  
                             ??_spiInit 0034                         Send_Packet@type 00A5  
                                putch@c 0034                     SwitchToRxMode@value 003B  
                    __size_of_SwitchCFG 0032                 __end_of__initialization 0B46  
                       ??_SPI_Write_Buf 0039                         ??_SPI_Write_Reg 0038  
                      _adcReadVsupercap 09E3                             i1printf@idx 0025  
                     SPI_Read_Reg@value 0039                          __pcstackCOMMON 0070  
 __end_of_rfm70TxDataSentErrorInterrupt 09BE  __size_of_rfm70TxDataSentErrorInterrupt 001F  
         _rfm70TxDataSentErrorInterrupt 099F                            __pidataBANK0 08C2  
                          __pidataBANK1 08CD                  __end_of_SwitchToRxMode 07FF  
                __end_of_SwitchToTxMode 0A36                           __end_of_sleep 0D76  
                         __end_of_putch 08F7                            _charge_pulse 0058  
                             ?i1_printf 0020                           ??_adcReadVcap 0034  
                         ??_adcReadTemp 0034                     SwitchToTxMode@value 003B  
                               ??_sleep 0037                                 ??_putch 0034  
                            __pbssBANK0 0054                              __pbssBANK1 00DF  
                            __pbssBANK3 0190       __size_of_rfm70TxDataSentInterrupt 001F  
             ?_rfm70TxDataSentInterrupt 0070                         __CFG_VCAPEN$RA0 0000  
                               ?_SPI_RW 0070                              __pmaintext 0325  
                               ?___wmul 0034                              __pintentry 0004  
                               _DACCON0 0113                                 _DACCON1 0114  
                       ?_SwitchToRxMode 0070                         ?_SwitchToTxMode 0070  
                            __ptext1031 0936                              __ptext1040 099F  
                            __ptext1032 0920                              __ptext1041 07C0  
                            __ptext1033 08D5                              __ptext1050 0967  
                            __ptext1042 0980                              __ptext1034 09BE  
                            __ptext1051 094E                              __ptext1043 0A36  
                            __ptext1035 0015                              __ptext1060 0000  
                            __ptext1052 0AB6                              __ptext1044 0A0C  
                            __ptext1036 0A8B                              __ptext1053 0C1F  
                            __ptext1045 0CE5                              __ptext1037 09E3  
                            __ptext1054 0B8D                              __ptext1046 0A60  
                            __ptext1038 0D76                              __ptext1055 0C6E  
                            __ptext1047 08EB                              __ptext1039 0610  
                            __ptext1056 0E52                              __ptext1048 0AE2  
                            __ptext1057 0B4A                              __ptext1049 090A  
                            __ptext1058 0BD2                              __ptext1059 08DF  
                           _Send_Packet 0D76                       __end_of_SwitchCFG 0B14  
                               ?_printf 0042                   _rfm70setPowerdownMode 09BE  
            rfm70setPowerdownMode@value 003B                              ??i1_printf 0022  
                            __stringtab 1000                          sleep@new_value 0039  
                               i1_putch 08DF                     __end_of_adcReadVcap 0A8B  
                   __end_of_adcReadTemp 0AB6                         __size_of_SPI_RW 0019  
                         SwitchCFG@_cfg 003B                               ?_uartInit 0070  
                               _adcInit 08D5                         __size_of___wmul 002C  
                               ___lwdiv 0C1F                                 ___lwmod 0B8D  
                     SPI_Write_Buf@pBuf 0037          ?_rfm70TxDataSentErrorInterrupt 0070  
                       __size_of_printf 01B0                            __size_of_ISR 0077  
                     __end_of_hexpowers 1095                               _T1CONbits 0010  
                               _dpowers 1083                       i1___lwdiv@divisor 0070  
                     i1___lwdiv@counter 0075                                 _spiInit 0936  
                            _tmr1Target 005A                    end_of_initialization 0B46  
                               init_ram 08FB                __end_of_RFM70_Initialize 0325  
                            ??_uartInit 0034                               _RCSTAbits 0018  
                               printf@c 0053                                 printf@f 0042  
                       _timelapse_count 00DF                            __pstringtext 1000  
                             _PORTAbits 0005                               _PORTBbits 0006  
                             _PORTCbits 0007                               _PORTDbits 0008  
                             _PORTEbits 0009                  ?_rfm70setPowerdownMode 0070  
              __end_of_adcReadVsupercap 0A0C                        __CFG_FOSC$INTOSC 0000  
                             _TRISAbits 0085                               _TRISBbits 0086  
                             _Bank0_Reg 104A                               _TRISCbits 0087  
                             _TRISDbits 0088                               _TRISEbits 0089  
                             i1___lwdiv 0BD2                             _adcReadVcap 0A60  
                             i1___lwmod 0B4A                             _adcReadTemp 0A8B  
                 __end_of_Bank1_Reg0_13 104A                               _TXSTAbits 0098  
                          i1printf@_val 0029                            i1printf@flag 0028  
                        __end_of_SPI_RW 0967                            Send_Packet@i 00A7  
                          i1printf@prec 0027                           ?_SPI_Read_Reg 0070  
                           SPI_RW@value 0036                          __end_of___wmul 0AE2  
                      adcReadVcap@value 0036                       i1___lwmod@divisor 0078  
                         __pbitbssBANK0 02D8                       i1___lwmod@counter 007D  
                        __end_of_printf 07C0                     start_initialization 0B14  
                           __end_of_ISR 0CE5                               i1printf@c 002D  
                             i1printf@f 0020                        adcReadTemp@value 0036  
                            ?i1___lwdiv 0070                              ?i1___lwmod 0078  
                     __size_ofi1_printf 01AE                                ??_SPI_RW 0034  
                        ??_SPI_Read_Reg 0037                   __end_of_SPI_Write_Buf 0A60  
                 __end_of_SPI_Write_Reg 0920                        ??_SwitchToRxMode 003A  
                      ??_SwitchToTxMode 003A                                ??___wmul 0038  
                           __pdataBANK0 0058                             __pdataBANK1 00D7  
                          ?_Send_Packet 00A0                                ??_printf 0048  
                             _SwitchCFG 0AE2                           __pcstackBANK0 0020  
                         __pcstackBANK1 00A0                     __end_of__stringdata 119F  
                           _charge_time 0054                                ?i1_putch 0070  
                             __pnvBANK1 00E6                        ___lwdiv@dividend 0036  
                              ?_adcInit 0070                     SPI_Write_Buf@length 0038  
                              ?___lwdiv 0034                       __size_of_uartInit 0016  
                              ?___lwmod 003C                              ?_SwitchCFG 0070  
                   Send_Packet@fifo_sta 00A6                                ?_spiInit 0070  
                 SPI_Write_Buf@byte_ctr 003B                   adcReadVsupercap@value 0036  
              _rfm70TxDataSentInterrupt 0980                               _hexpowers 108D  
                      ___lwdiv@quotient 003A                             ??i1___lwdiv 0074  
                           ??i1___lwmod 007C                          __size_of_sleep 0091  
                        __size_of_putch 000C         ??_rfm70TxDataSentErrorInterrupt 003A  
                     interrupt_function 0004                          ___wmul@product 0038  
                     ?_RFM70_Initialize 0070                      ??_RFM70_Initialize 003D  
                              _PIR1bits 000C                 ??_rfm70setPowerdownMode 003A  
                            _ADCON0bits 001F                             __stringbase 1012  
                            _ADCON1bits 009F                             __stringdata 10A3  
                     ___wmul@multiplier 0034                    __end_of_Bank0_RegAct 10A3  
                            printf@_val 004F                              printf@flag 004E  
                            printf@prec 004D                       ?_adcReadVsupercap 0070  
                  __end_of_SPI_Read_Reg 0980                                i1_printf 0E52  
                    ??_adcReadVsupercap 0034                           _sleep_counter 0056  
                          ?_adcReadVcap 0070                            ?_adcReadTemp 0070  
                              i1putch@c 0070                        __size_ofi1_putch 000C  
                             init_fetch 08F7                        __size_of_adcInit 000A  
                   __end_of_RX0_Address 109A                        __size_of___lwdiv 004F  
                      __size_of___lwmod 0045                     __end_of_RX1_Address 109F  
                    __end_of__stringtab 1012                              _ANSELAbits 0185  
                            _ANSELBbits 0186                              _ANSELCbits 0187  
                            _ANSELDbits 0188                              _ANSELEbits 0189  
                  __size_of_Send_Packet 00DC                             ??_SwitchCFG 003A  
                       ___lwdiv@divisor 0034                         ___lwdiv@counter 0039  
                            _T1GCONbits 008F                        __size_of_spiInit 0018  
                    i1___lwdiv@dividend 0072                           __size_of_main 02EB  
                              clear_ram 08C5                                _uartInit 0920  
                    SPI_Write_Reg@value 0037                     __end_of_Bank1_Reg14 1083  
                           _tmr1Counter 0057                               printf@idx 004B  
                              main@argc 00A8                                main@argv 00AA  
                              main@temp 00D0                         main@temp_tx_buf 00B0  
                    i1___lwdiv@quotient 0076                rfm70setPowerdownMode@reg 003C  
                            _FVRCONbits 009D                                intlevel1 0000  
                      ___lwmod@dividend 003E                             _jumper_stat 00E6  
                             stringcode 100A                              _OSCCONbits 0090  
                           _RX0_Address 1095                             _RX1_Address 109A  
                              printf@ap 004C                             _sleep_count 00E5  
            ??_rfm70TxDataSentInterrupt 003A                   __size_of_SPI_Read_Reg 0019  
                       ___lwmod@divisor 003C                         ___lwmod@counter 0041  
                              stringtab 1000                  __size_of_SPI_Write_Buf 002A  
                __size_of_SPI_Write_Reg 0016                           _Bank1_Reg0_13 1012  
                  __size_of_adcReadVcap 002B                    __size_of_adcReadTemp 002B  
                          _Bank0_RegAct 109F                              _SSPCONbits 0014  
                           _Bank1_Reg14 1078                            _SPI_Read_Reg 0967  
