

Microchip Technology PIC LITE Macro Assembler V1.12 build 49521 
                                                                                               Sun Mar 10 13:40:17 2013

HI-TECH Software Omniscient Code Generator (Lite mode) build 49521
     1  0000                     opt subtitle "HI-TECH Software Omniscient Code Generator (Lite mode) build 49521"
     2                           opt subtitle "HI-TECH Software Omniscient Code Generator (Lite mode) build 49521"
     3                           
     4                           opt pagewidth 120
     5                           
     6                           	opt lm
     7                           
     8                           	processor	16F707
     9                           clrc	macro
    10  0000                     	endm
    11                           opt subtitle "HI-TECH Software Omniscient Code Generator (Lite mode) build 49521"
    12                           
    13  0000                     	endm
    14                           opt subtitle "HI-TECH Software Omniscient Code Generator (Lite mode) build 49521"
    15                           
    16  0000                     	endm
    17                           opt subtitle "HI-TECH Software Omniscient Code Generator (Lite mode) build 49521"
    18                           
    19  0000                     	endm
    20                           opt subtitle "HI-TECH Software Omniscient Code Generator (Lite mode) build 49521"
    21                           
    22  0000                     	endm
    23                           opt subtitle "HI-TECH Software Omniscient Code Generator (Lite mode) build 49521"
    24                           
    25  0000                     	endm
    26                           opt subtitle "HI-TECH Software Omniscient Code Generator (Lite mode) build 49521"
    27                           
    28  0000                     	endm
    29                           opt subtitle "HI-TECH Software Omniscient Code Generator (Lite mode) build 49521"
    30                           
    31  0000                     	endm
    32  0000                     indf	equ	0
    33  0000                     indf0	equ	0
    34  0002                     pc	equ	2
    35  0002                     pcl	equ	2
    36  0003                     status	equ	3
    37  0004                     fsr	equ	4
    38  0004                     fsr0	equ	4
    39  0001                     c	equ	1
    40  0000                     z	equ	0
    41  000A                     pclath	equ	10
    42                           opt subtitle "HI-TECH Software Omniscient Code Generator (Lite mode) build 49521"
    43  0000                     INDF equ 00h ;# 
    44                           opt subtitle "HI-TECH Software Omniscient Code Generator (Lite mode) build 49521"
    45  0001                     TMR0 equ 01h ;# 
    46                           opt subtitle "HI-TECH Software Omniscient Code Generator (Lite mode) build 49521"
    47  0002                     PCL equ 02h ;# 
    48                           opt subtitle "HI-TECH Software Omniscient Code Generator (Lite mode) build 49521"
    49  0003                     STATUS equ 03h ;# 
    50                           opt subtitle "HI-TECH Software Omniscient Code Generator (Lite mode) build 49521"
    51  0004                     FSR equ 04h ;# 
    52                           opt subtitle "HI-TECH Software Omniscient Code Generator (Lite mode) build 49521"
    53  0005                     PORTA equ 05h ;# 
    54                           opt subtitle "HI-TECH Software Omniscient Code Generator (Lite mode) build 49521"
    55  0006                     PORTB equ 06h ;# 
    56                           opt subtitle "HI-TECH Software Omniscient Code Generator (Lite mode) build 49521"
    57  0007                     PORTC equ 07h ;# 
    58                           opt subtitle "HI-TECH Software Omniscient Code Generator (Lite mode) build 49521"
    59  0008                     PORTD equ 08h ;# 
    60                           opt subtitle "HI-TECH Software Omniscient Code Generator (Lite mode) build 49521"
    61  0009                     PORTE equ 09h ;# 
    62                           opt subtitle "HI-TECH Software Omniscient Code Generator (Lite mode) build 49521"
    63  000A                     PCLATH equ 0Ah ;# 
    64                           opt subtitle "HI-TECH Software Omniscient Code Generator (Lite mode) build 49521"
    65  000B                     INTCON equ 0Bh ;# 
    66                           opt subtitle "HI-TECH Software Omniscient Code Generator (Lite mode) build 49521"
    67  000C                     PIR1 equ 0Ch ;# 
    68                           opt subtitle "HI-TECH Software Omniscient Code Generator (Lite mode) build 49521"
    69  000D                     PIR2 equ 0Dh ;# 
    70                           opt subtitle "HI-TECH Software Omniscient Code Generator (Lite mode) build 49521"
    71  000E                     TMR1 equ 0Eh ;# 
    72                           opt subtitle "HI-TECH Software Omniscient Code Generator (Lite mode) build 49521"
    73  000E                     TMR1L equ 0Eh ;# 
    74                           opt subtitle "HI-TECH Software Omniscient Code Generator (Lite mode) build 49521"
    75  000F                     TMR1H equ 0Fh ;# 
    76                           opt subtitle "HI-TECH Software Omniscient Code Generator (Lite mode) build 49521"
    77  0010                     T1CON equ 010h ;# 
    78                           opt subtitle "HI-TECH Software Omniscient Code Generator (Lite mode) build 49521"
    79  0011                     TMR2 equ 011h ;# 
    80                           opt subtitle "HI-TECH Software Omniscient Code Generator (Lite mode) build 49521"
    81  0012                     T2CON equ 012h ;# 
    82                           opt subtitle "HI-TECH Software Omniscient Code Generator (Lite mode) build 49521"
    83  0013                     SSPBUF equ 013h ;# 
    84                           opt subtitle "HI-TECH Software Omniscient Code Generator (Lite mode) build 49521"
    85  0014                     SSPCON equ 014h ;# 
    86                           opt subtitle "HI-TECH Software Omniscient Code Generator (Lite mode) build 49521"
    87  0015                     CCPR1 equ 015h ;# 
    88                           opt subtitle "HI-TECH Software Omniscient Code Generator (Lite mode) build 49521"
    89  0015                     CCPR1L equ 015h ;# 
    90                           opt subtitle "HI-TECH Software Omniscient Code Generator (Lite mode) build 49521"
    91  0016                     CCPR1H equ 016h ;# 
    92                           opt subtitle "HI-TECH Software Omniscient Code Generator (Lite mode) build 49521"
    93  0017                     CCP1CON equ 017h ;# 
    94                           opt subtitle "HI-TECH Software Omniscient Code Generator (Lite mode) build 49521"
    95  0018                     RCSTA equ 018h ;# 
    96                           opt subtitle "HI-TECH Software Omniscient Code Generator (Lite mode) build 49521"
    97  0019                     TXREG equ 019h ;# 
    98                           opt subtitle "HI-TECH Software Omniscient Code Generator (Lite mode) build 49521"
    99  001A                     RCREG equ 01Ah ;# 
   100                           opt subtitle "HI-TECH Software Omniscient Code Generator (Lite mode) build 49521"
   101  001B                     CCPR2 equ 01Bh ;# 
   102                           opt subtitle "HI-TECH Software Omniscient Code Generator (Lite mode) build 49521"
   103  001B                     CCPR2L equ 01Bh ;# 
   104                           opt subtitle "HI-TECH Software Omniscient Code Generator (Lite mode) build 49521"
   105  001C                     CCPR2H equ 01Ch ;# 
   106                           opt subtitle "HI-TECH Software Omniscient Code Generator (Lite mode) build 49521"
   107  001D                     CCP2CON equ 01Dh ;# 
   108                           opt subtitle "HI-TECH Software Omniscient Code Generator (Lite mode) build 49521"
   109  001E                     ADRES equ 01Eh ;# 
   110                           opt subtitle "HI-TECH Software Omniscient Code Generator (Lite mode) build 49521"
   111  001F                     ADCON0 equ 01Fh ;# 
   112                           opt subtitle "HI-TECH Software Omniscient Code Generator (Lite mode) build 49521"
   113  0081                     OPTION_REG equ 081h ;# 
   114                           opt subtitle "HI-TECH Software Omniscient Code Generator (Lite mode) build 49521"
   115  0085                     TRISA equ 085h ;# 
   116                           opt subtitle "HI-TECH Software Omniscient Code Generator (Lite mode) build 49521"
   117  0086                     TRISB equ 086h ;# 
   118                           opt subtitle "HI-TECH Software Omniscient Code Generator (Lite mode) build 49521"
   119  0087                     TRISC equ 087h ;# 
   120                           opt subtitle "HI-TECH Software Omniscient Code Generator (Lite mode) build 49521"
   121  0088                     TRISD equ 088h ;# 
   122                           opt subtitle "HI-TECH Software Omniscient Code Generator (Lite mode) build 49521"
   123  0089                     TRISE equ 089h ;# 
   124                           opt subtitle "HI-TECH Software Omniscient Code Generator (Lite mode) build 49521"
   125  008C                     PIE1 equ 08Ch ;# 
   126                           opt subtitle "HI-TECH Software Omniscient Code Generator (Lite mode) build 49521"
   127  008D                     PIE2 equ 08Dh ;# 
   128                           opt subtitle "HI-TECH Software Omniscient Code Generator (Lite mode) build 49521"
   129  008E                     PCON equ 08Eh ;# 
   130                           opt subtitle "HI-TECH Software Omniscient Code Generator (Lite mode) build 49521"
   131  008F                     T1GCON equ 08Fh ;# 
   132                           opt subtitle "HI-TECH Software Omniscient Code Generator (Lite mode) build 49521"
   133  0090                     OSCCON equ 090h ;# 
   134                           opt subtitle "HI-TECH Software Omniscient Code Generator (Lite mode) build 49521"
   135  0091                     OSCTUNE equ 091h ;# 
   136                           opt subtitle "HI-TECH Software Omniscient Code Generator (Lite mode) build 49521"
   137  0092                     PR2 equ 092h ;# 
   138                           opt subtitle "HI-TECH Software Omniscient Code Generator (Lite mode) build 49521"
   139  0093                     SSPADD equ 093h ;# 
   140                           opt subtitle "HI-TECH Software Omniscient Code Generator (Lite mode) build 49521"
   141  0093                     SSPMSK equ 093h ;# 
   142                           opt subtitle "HI-TECH Software Omniscient Code Generator (Lite mode) build 49521"
   143  0094                     SSPSTAT equ 094h ;# 
   144                           opt subtitle "HI-TECH Software Omniscient Code Generator (Lite mode) build 49521"
   145  0095                     WPUB equ 095h ;# 
   146                           opt subtitle "HI-TECH Software Omniscient Code Generator (Lite mode) build 49521"
   147  0096                     IOCB equ 096h ;# 
   148                           opt subtitle "HI-TECH Software Omniscient Code Generator (Lite mode) build 49521"
   149  0097                     T3CON equ 097h ;# 
   150                           opt subtitle "HI-TECH Software Omniscient Code Generator (Lite mode) build 49521"
   151  0098                     TXSTA equ 098h ;# 
   152                           opt subtitle "HI-TECH Software Omniscient Code Generator (Lite mode) build 49521"
   153  0099                     SPBRG equ 099h ;# 
   154                           opt subtitle "HI-TECH Software Omniscient Code Generator (Lite mode) build 49521"
   155  009A                     TMR3 equ 09Ah ;# 
   156                           opt subtitle "HI-TECH Software Omniscient Code Generator (Lite mode) build 49521"
   157  009A                     TMR3L equ 09Ah ;# 
   158                           opt subtitle "HI-TECH Software Omniscient Code Generator (Lite mode) build 49521"
   159  009B                     TMR3H equ 09Bh ;# 
   160                           opt subtitle "HI-TECH Software Omniscient Code Generator (Lite mode) build 49521"
   161  009C                     APFCON equ 09Ch ;# 
   162                           opt subtitle "HI-TECH Software Omniscient Code Generator (Lite mode) build 49521"
   163  009D                     FVRCON equ 09Dh ;# 
   164                           opt subtitle "HI-TECH Software Omniscient Code Generator (Lite mode) build 49521"
   165  009E                     T3GCON equ 09Eh ;# 
   166                           opt subtitle "HI-TECH Software Omniscient Code Generator (Lite mode) build 49521"
   167  009F                     ADCON1 equ 09Fh ;# 
   168                           opt subtitle "HI-TECH Software Omniscient Code Generator (Lite mode) build 49521"
   169  0105                     TACON equ 0105h ;# 
   170                           opt subtitle "HI-TECH Software Omniscient Code Generator (Lite mode) build 49521"
   171  0106                     CPSBCON0 equ 0106h ;# 
   172                           opt subtitle "HI-TECH Software Omniscient Code Generator (Lite mode) build 49521"
   173  0107                     CPSBCON1 equ 0107h ;# 
   174                           opt subtitle "HI-TECH Software Omniscient Code Generator (Lite mode) build 49521"
   175  0108                     CPSACON0 equ 0108h ;# 
   176                           opt subtitle "HI-TECH Software Omniscient Code Generator (Lite mode) build 49521"
   177  0109                     CPSACON1 equ 0109h ;# 
   178                           opt subtitle "HI-TECH Software Omniscient Code Generator (Lite mode) build 49521"
   179  010C                     PMDATL equ 010Ch ;# 
   180                           opt subtitle "HI-TECH Software Omniscient Code Generator (Lite mode) build 49521"
   181  010D                     PMADRL equ 010Dh ;# 
   182                           opt subtitle "HI-TECH Software Omniscient Code Generator (Lite mode) build 49521"
   183  010E                     PMDATH equ 010Eh ;# 
   184                           opt subtitle "HI-TECH Software Omniscient Code Generator (Lite mode) build 49521"
   185  010F                     PMADRH equ 010Fh ;# 
   186                           opt subtitle "HI-TECH Software Omniscient Code Generator (Lite mode) build 49521"
   187  0110                     TMRA equ 0110h ;# 
   188                           opt subtitle "HI-TECH Software Omniscient Code Generator (Lite mode) build 49521"
   189  0111                     TBCON equ 0111h ;# 
   190                           opt subtitle "HI-TECH Software Omniscient Code Generator (Lite mode) build 49521"
   191  0112                     TMRB equ 0112h ;# 
   192                           opt subtitle "HI-TECH Software Omniscient Code Generator (Lite mode) build 49521"
   193  0113                     DACCON0 equ 0113h ;# 
   194                           opt subtitle "HI-TECH Software Omniscient Code Generator (Lite mode) build 49521"
   195  0114                     DACCON1 equ 0114h ;# 
   196                           opt subtitle "HI-TECH Software Omniscient Code Generator (Lite mode) build 49521"
   197  0185                     ANSELA equ 0185h ;# 
   198                           opt subtitle "HI-TECH Software Omniscient Code Generator (Lite mode) build 49521"
   199  0186                     ANSELB equ 0186h ;# 
   200                           opt subtitle "HI-TECH Software Omniscient Code Generator (Lite mode) build 49521"
   201  0187                     ANSELC equ 0187h ;# 
   202                           opt subtitle "HI-TECH Software Omniscient Code Generator (Lite mode) build 49521"
   203  0188                     ANSELD equ 0188h ;# 
   204                           opt subtitle "HI-TECH Software Omniscient Code Generator (Lite mode) build 49521"
   205  0189                     ANSELE equ 0189h ;# 
   206                           opt subtitle "HI-TECH Software Omniscient Code Generator (Lite mode) build 49521"
   207  018C                     PMCON1 equ 018Ch ;# 
   208                           opt subtitle "HI-TECH Software Omniscient Code Generator (Lite mode) build 49521"
   209  0000                     INDF equ 00h ;# 
   210                           opt subtitle "HI-TECH Software Omniscient Code Generator (Lite mode) build 49521"
   211  0001                     TMR0 equ 01h ;# 
   212                           opt subtitle "HI-TECH Software Omniscient Code Generator (Lite mode) build 49521"
   213  0002                     PCL equ 02h ;# 
   214                           opt subtitle "HI-TECH Software Omniscient Code Generator (Lite mode) build 49521"
   215  0003                     STATUS equ 03h ;# 
   216                           opt subtitle "HI-TECH Software Omniscient Code Generator (Lite mode) build 49521"
   217  0004                     FSR equ 04h ;# 
   218                           opt subtitle "HI-TECH Software Omniscient Code Generator (Lite mode) build 49521"
   219  0005                     PORTA equ 05h ;# 
   220                           opt subtitle "HI-TECH Software Omniscient Code Generator (Lite mode) build 49521"
   221  0006                     PORTB equ 06h ;# 
   222                           opt subtitle "HI-TECH Software Omniscient Code Generator (Lite mode) build 49521"
   223  0007                     PORTC equ 07h ;# 
   224                           opt subtitle "HI-TECH Software Omniscient Code Generator (Lite mode) build 49521"
   225  0008                     PORTD equ 08h ;# 
   226                           opt subtitle "HI-TECH Software Omniscient Code Generator (Lite mode) build 49521"
   227  0009                     PORTE equ 09h ;# 
   228                           opt subtitle "HI-TECH Software Omniscient Code Generator (Lite mode) build 49521"
   229  000A                     PCLATH equ 0Ah ;# 
   230                           opt subtitle "HI-TECH Software Omniscient Code Generator (Lite mode) build 49521"
   231  000B                     INTCON equ 0Bh ;# 
   232                           opt subtitle "HI-TECH Software Omniscient Code Generator (Lite mode) build 49521"
   233  000C                     PIR1 equ 0Ch ;# 
   234                           opt subtitle "HI-TECH Software Omniscient Code Generator (Lite mode) build 49521"
   235  000D                     PIR2 equ 0Dh ;# 
   236                           opt subtitle "HI-TECH Software Omniscient Code Generator (Lite mode) build 49521"
   237  000E                     TMR1 equ 0Eh ;# 
   238                           opt subtitle "HI-TECH Software Omniscient Code Generator (Lite mode) build 49521"
   239  000E                     TMR1L equ 0Eh ;# 
   240                           opt subtitle "HI-TECH Software Omniscient Code Generator (Lite mode) build 49521"
   241  000F                     TMR1H equ 0Fh ;# 
   242                           opt subtitle "HI-TECH Software Omniscient Code Generator (Lite mode) build 49521"
   243  0010                     T1CON equ 010h ;# 
   244                           opt subtitle "HI-TECH Software Omniscient Code Generator (Lite mode) build 49521"
   245  0011                     TMR2 equ 011h ;# 
   246                           opt subtitle "HI-TECH Software Omniscient Code Generator (Lite mode) build 49521"
   247  0012                     T2CON equ 012h ;# 
   248                           opt subtitle "HI-TECH Software Omniscient Code Generator (Lite mode) build 49521"
   249  0013                     SSPBUF equ 013h ;# 
   250                           opt subtitle "HI-TECH Software Omniscient Code Generator (Lite mode) build 49521"
   251  0014                     SSPCON equ 014h ;# 
   252                           opt subtitle "HI-TECH Software Omniscient Code Generator (Lite mode) build 49521"
   253  0015                     CCPR1 equ 015h ;# 
   254                           opt subtitle "HI-TECH Software Omniscient Code Generator (Lite mode) build 49521"
   255  0015                     CCPR1L equ 015h ;# 
   256                           opt subtitle "HI-TECH Software Omniscient Code Generator (Lite mode) build 49521"
   257  0016                     CCPR1H equ 016h ;# 
   258                           opt subtitle "HI-TECH Software Omniscient Code Generator (Lite mode) build 49521"
   259  0017                     CCP1CON equ 017h ;# 
   260                           opt subtitle "HI-TECH Software Omniscient Code Generator (Lite mode) build 49521"
   261  0018                     RCSTA equ 018h ;# 
   262                           opt subtitle "HI-TECH Software Omniscient Code Generator (Lite mode) build 49521"
   263  0019                     TXREG equ 019h ;# 
   264                           opt subtitle "HI-TECH Software Omniscient Code Generator (Lite mode) build 49521"
   265  001A                     RCREG equ 01Ah ;# 
   266                           opt subtitle "HI-TECH Software Omniscient Code Generator (Lite mode) build 49521"
   267  001B                     CCPR2 equ 01Bh ;# 
   268                           opt subtitle "HI-TECH Software Omniscient Code Generator (Lite mode) build 49521"
   269  001B                     CCPR2L equ 01Bh ;# 
   270                           opt subtitle "HI-TECH Software Omniscient Code Generator (Lite mode) build 49521"
   271  001C                     CCPR2H equ 01Ch ;# 
   272                           opt subtitle "HI-TECH Software Omniscient Code Generator (Lite mode) build 49521"
   273  001D                     CCP2CON equ 01Dh ;# 
   274                           opt subtitle "HI-TECH Software Omniscient Code Generator (Lite mode) build 49521"
   275  001E                     ADRES equ 01Eh ;# 
   276                           opt subtitle "HI-TECH Software Omniscient Code Generator (Lite mode) build 49521"
   277  001F                     ADCON0 equ 01Fh ;# 
   278                           opt subtitle "HI-TECH Software Omniscient Code Generator (Lite mode) build 49521"
   279  0081                     OPTION_REG equ 081h ;# 
   280                           opt subtitle "HI-TECH Software Omniscient Code Generator (Lite mode) build 49521"
   281  0085                     TRISA equ 085h ;# 
   282                           opt subtitle "HI-TECH Software Omniscient Code Generator (Lite mode) build 49521"
   283  0086                     TRISB equ 086h ;# 
   284                           opt subtitle "HI-TECH Software Omniscient Code Generator (Lite mode) build 49521"
   285  0087                     TRISC equ 087h ;# 
   286                           opt subtitle "HI-TECH Software Omniscient Code Generator (Lite mode) build 49521"
   287  0088                     TRISD equ 088h ;# 
   288                           opt subtitle "HI-TECH Software Omniscient Code Generator (Lite mode) build 49521"
   289  0089                     TRISE equ 089h ;# 
   290                           opt subtitle "HI-TECH Software Omniscient Code Generator (Lite mode) build 49521"
   291  008C                     PIE1 equ 08Ch ;# 
   292                           opt subtitle "HI-TECH Software Omniscient Code Generator (Lite mode) build 49521"
   293  008D                     PIE2 equ 08Dh ;# 
   294                           opt subtitle "HI-TECH Software Omniscient Code Generator (Lite mode) build 49521"
   295  008E                     PCON equ 08Eh ;# 
   296                           opt subtitle "HI-TECH Software Omniscient Code Generator (Lite mode) build 49521"
   297  008F                     T1GCON equ 08Fh ;# 
   298                           opt subtitle "HI-TECH Software Omniscient Code Generator (Lite mode) build 49521"
   299  0090                     OSCCON equ 090h ;# 
   300                           opt subtitle "HI-TECH Software Omniscient Code Generator (Lite mode) build 49521"
   301  0091                     OSCTUNE equ 091h ;# 
   302                           opt subtitle "HI-TECH Software Omniscient Code Generator (Lite mode) build 49521"
   303  0092                     PR2 equ 092h ;# 
   304                           opt subtitle "HI-TECH Software Omniscient Code Generator (Lite mode) build 49521"
   305  0093                     SSPADD equ 093h ;# 
   306                           opt subtitle "HI-TECH Software Omniscient Code Generator (Lite mode) build 49521"
   307  0093                     SSPMSK equ 093h ;# 
   308                           opt subtitle "HI-TECH Software Omniscient Code Generator (Lite mode) build 49521"
   309  0094                     SSPSTAT equ 094h ;# 
   310                           opt subtitle "HI-TECH Software Omniscient Code Generator (Lite mode) build 49521"
   311  0095                     WPUB equ 095h ;# 
   312                           opt subtitle "HI-TECH Software Omniscient Code Generator (Lite mode) build 49521"
   313  0096                     IOCB equ 096h ;# 
   314                           opt subtitle "HI-TECH Software Omniscient Code Generator (Lite mode) build 49521"
   315  0097                     T3CON equ 097h ;# 
   316                           opt subtitle "HI-TECH Software Omniscient Code Generator (Lite mode) build 49521"
   317  0098                     TXSTA equ 098h ;# 
   318                           opt subtitle "HI-TECH Software Omniscient Code Generator (Lite mode) build 49521"
   319  0099                     SPBRG equ 099h ;# 
   320                           opt subtitle "HI-TECH Software Omniscient Code Generator (Lite mode) build 49521"
   321  009A                     TMR3 equ 09Ah ;# 
   322                           opt subtitle "HI-TECH Software Omniscient Code Generator (Lite mode) build 49521"
   323  009A                     TMR3L equ 09Ah ;# 
   324                           opt subtitle "HI-TECH Software Omniscient Code Generator (Lite mode) build 49521"
   325  009B                     TMR3H equ 09Bh ;# 
   326                           opt subtitle "HI-TECH Software Omniscient Code Generator (Lite mode) build 49521"
   327  009C                     APFCON equ 09Ch ;# 
   328                           opt subtitle "HI-TECH Software Omniscient Code Generator (Lite mode) build 49521"
   329  009D                     FVRCON equ 09Dh ;# 
   330                           opt subtitle "HI-TECH Software Omniscient Code Generator (Lite mode) build 49521"
   331  009E                     T3GCON equ 09Eh ;# 
   332                           opt subtitle "HI-TECH Software Omniscient Code Generator (Lite mode) build 49521"
   333  009F                     ADCON1 equ 09Fh ;# 
   334                           opt subtitle "HI-TECH Software Omniscient Code Generator (Lite mode) build 49521"
   335  0105                     TACON equ 0105h ;# 
   336                           opt subtitle "HI-TECH Software Omniscient Code Generator (Lite mode) build 49521"
   337  0106                     CPSBCON0 equ 0106h ;# 
   338                           opt subtitle "HI-TECH Software Omniscient Code Generator (Lite mode) build 49521"
   339  0107                     CPSBCON1 equ 0107h ;# 
   340                           opt subtitle "HI-TECH Software Omniscient Code Generator (Lite mode) build 49521"
   341  0108                     CPSACON0 equ 0108h ;# 
   342                           opt subtitle "HI-TECH Software Omniscient Code Generator (Lite mode) build 49521"
   343  0109                     CPSACON1 equ 0109h ;# 
   344                           opt subtitle "HI-TECH Software Omniscient Code Generator (Lite mode) build 49521"
   345  010C                     PMDATL equ 010Ch ;# 
   346                           opt subtitle "HI-TECH Software Omniscient Code Generator (Lite mode) build 49521"
   347  010D                     PMADRL equ 010Dh ;# 
   348                           opt subtitle "HI-TECH Software Omniscient Code Generator (Lite mode) build 49521"
   349  010E                     PMDATH equ 010Eh ;# 
   350                           opt subtitle "HI-TECH Software Omniscient Code Generator (Lite mode) build 49521"
   351  010F                     PMADRH equ 010Fh ;# 
   352                           opt subtitle "HI-TECH Software Omniscient Code Generator (Lite mode) build 49521"
   353  0110                     TMRA equ 0110h ;# 
   354                           opt subtitle "HI-TECH Software Omniscient Code Generator (Lite mode) build 49521"
   355  0111                     TBCON equ 0111h ;# 
   356                           opt subtitle "HI-TECH Software Omniscient Code Generator (Lite mode) build 49521"
   357  0112                     TMRB equ 0112h ;# 
   358                           opt subtitle "HI-TECH Software Omniscient Code Generator (Lite mode) build 49521"
   359  0113                     DACCON0 equ 0113h ;# 
   360                           opt subtitle "HI-TECH Software Omniscient Code Generator (Lite mode) build 49521"
   361  0114                     DACCON1 equ 0114h ;# 
   362                           opt subtitle "HI-TECH Software Omniscient Code Generator (Lite mode) build 49521"
   363  0185                     ANSELA equ 0185h ;# 
   364                           opt subtitle "HI-TECH Software Omniscient Code Generator (Lite mode) build 49521"
   365  0186                     ANSELB equ 0186h ;# 
   366                           opt subtitle "HI-TECH Software Omniscient Code Generator (Lite mode) build 49521"
   367  0187                     ANSELC equ 0187h ;# 
   368                           opt subtitle "HI-TECH Software Omniscient Code Generator (Lite mode) build 49521"
   369  0188                     ANSELD equ 0188h ;# 
   370                           opt subtitle "HI-TECH Software Omniscient Code Generator (Lite mode) build 49521"
   371  0189                     ANSELE equ 0189h ;# 
   372                           opt subtitle "HI-TECH Software Omniscient Code Generator (Lite mode) build 49521"
   373  018C                     PMCON1 equ 018Ch ;# 
   374                           opt subtitle "HI-TECH Software Omniscient Code Generator (Lite mode) build 49521"
   375                           
   376                           opt pagewidth 120
   377                           
   378                           	opt lm
   379                           
   380                           	processor	16F707
   381                           clrc	macro
   382                           	bcf	3,0
   383                           	endm
   384                           clrz	macro
   385                           	bcf	3,2
   386                           	endm
   387                           setc	macro
   388                           	bsf	3,0
   389                           	endm
   390                           setz	macro
   391                           	bsf	3,2
   392                           	endm
   393                           skipc	macro
   394                           	btfss	3,0
   395                           	endm
   396                           skipz	macro
   397                           	btfss	3,2
   398                           	endm
   399                           skipnc	macro
   400                           	btfsc	3,0
   401                           	endm
   402                           skipnz	macro
   403                           	btfsc	3,2
   404                           	endm
   405                           indf	equ	0
   406                           indf0	equ	0
   407                           pc	equ	2
   408                           pcl	equ	2
   409                           status	equ	3
   410                           fsr	equ	4
   411                           fsr0	equ	4
   412                           c	equ	1
   413                           z	equ	0
   414                           pclath	equ	10
   415                           # 46 "/Applications/microchip/xc8/v1.12/include/pic16f707.h"
   416                           INDF equ 00h ;# 
   417                           # 52 "/Applications/microchip/xc8/v1.12/include/pic16f707.h"
   418                           TMR0 equ 01h ;# 
   419                           # 58 "/Applications/microchip/xc8/v1.12/include/pic16f707.h"
   420                           PCL equ 02h ;# 
   421                           # 64 "/Applications/microchip/xc8/v1.12/include/pic16f707.h"
   422                           STATUS equ 03h ;# 
   423                           # 151 "/Applications/microchip/xc8/v1.12/include/pic16f707.h"
   424  0003                     __pidataBANK0:
   425                           opt subtitle "HI-TECH Software Omniscient Code Generator (Lite mode) build 49521"
   426                           
   427                           opt pagewidth 120
   428                           
   429  0003  3401               	retlw	01h
   430                           opt subtitle "HI-TECH Software Omniscient Code Generator (Lite mode) build 49521"
   431                           
   432                           opt pagewidth 120
   433  1000                     __pstringtext:
   434                           opt subtitle "HI-TECH Software Omniscient Code Generator (Lite mode) build 49521"
   435  1000                     stringtab:
   436                           opt subtitle "HI-TECH Software Omniscient Code Generator (Lite mode) build 49521"
   437  1000                     __stringtab:
   438                           opt subtitle "HI-TECH Software Omniscient Code Generator (Lite mode) build 49521"
   439  1000  1BFF               	btfsc	(btemp+1),7
   440  1001  280A               	ljmp	stringcode
   441  1002  1383               	bcf	status,7
   442  1003  187F               	btfsc	(btemp+1),0
   443  1004  1783               	bsf	status,7
   444  1005  0800               	movf	indf,w
   445  1006  0A84               	incf fsr
   446  1007  1903               skipnz
   447  1008  0AFF               incf btemp+1
   448  1009  0008               	return
   449  100A                     stringcode:
   450  100A  087F               	movf btemp+1,w
   451  100B  397F               andlw 7Fh
   452  100C  008A               movwf	pclath
   453  100D  0804               	movf	fsr,w
   454  100E  0A84               incf fsr
   455  100F  1903               skipnz
   456  1010  0AFF               incf btemp+1
   457  1011  0082               	movwf pc
   458  1012                     __stringbase:
   459                           opt subtitle "HI-TECH Software Omniscient Code Generator (Lite mode) build 49521"
   460  1012                     __end_of__stringtab:
   461                           opt subtitle "HI-TECH Software Omniscient Code Generator (Lite mode) build 49521"
   462                           
   463  1012                     _Bank1_Reg0_13:
   464  1012  3440               	retlw	040h
   465  1013  344B               	retlw	04Bh
   466  1014  3401               	retlw	01h
   467  1015  34E2               	retlw	0E2h
   468                           opt subtitle "HI-TECH Software Omniscient Code Generator (Lite mode) build 49521"
   469  1016  34C0               	retlw	0C0h
   470  1017  344B               	retlw	04Bh
   471  1018  3400               	retlw	0
   472  1019  3400               	retlw	0
   473                           opt subtitle "HI-TECH Software Omniscient Code Generator (Lite mode) build 49521"
   474  101A  34D0               	retlw	0D0h
   475  101B  34FC               	retlw	0FCh
   476  101C  348C               	retlw	08Ch
   477  101D  3402               	retlw	02h
   478                           opt subtitle "HI-TECH Software Omniscient Code Generator (Lite mode) build 49521"
   479  101E  3499               	retlw	099h
   480  101F  3400               	retlw	0
   481  1020  3439               	retlw	039h
   482  1021  3441               	retlw	041h
   483                           opt subtitle "HI-TECH Software Omniscient Code Generator (Lite mode) build 49521"
   484  1022  34F9               	retlw	0F9h
   485  1023  349E               	retlw	09Eh
   486  1024  3486               	retlw	086h
   487  1025  340B               	retlw	0Bh
   488                           opt subtitle "HI-TECH Software Omniscient Code Generator (Lite mode) build 49521"
   489  1026  3424               	retlw	024h
   490  1027  3406               	retlw	06h
   491  1028  347F               	retlw	07Fh
   492  1029  34A6               	retlw	0A6h
   493                           opt subtitle "HI-TECH Software Omniscient Code Generator (Lite mode) build 49521"
   494  102A  3400               	retlw	0
   495  102B  3400               	retlw	0
   496  102C  3400               	retlw	0
   497  102D  3400               	retlw	0
   498                           opt subtitle "HI-TECH Software Omniscient Code Generator (Lite mode) build 49521"
   499  102E  3400               	retlw	0
   500  102F  3400               	retlw	0
   501  1030  3400               	retlw	0
   502  1031  3400               	retlw	0
   503                           opt subtitle "HI-TECH Software Omniscient Code Generator (Lite mode) build 49521"
   504  1032  3400               	retlw	0
   505  1033  3400               	retlw	0
   506  1034  3400               	retlw	0
   507  1035  3400               	retlw	0
   508                           opt subtitle "HI-TECH Software Omniscient Code Generator (Lite mode) build 49521"
   509  1036  3400               	retlw	0
   510  1037  3400               	retlw	0
   511  1038  3400               	retlw	0
   512  1039  3400               	retlw	0
   513                           opt subtitle "HI-TECH Software Omniscient Code Generator (Lite mode) build 49521"
   514  103A  3400               	retlw	0
   515  103B  3400               	retlw	0
   516  103C  3400               	retlw	0
   517  103D  3400               	retlw	0
   518                           opt subtitle "HI-TECH Software Omniscient Code Generator (Lite mode) build 49521"
   519  103E  3400               	retlw	0
   520  103F  3400               	retlw	0
   521  1040  3400               	retlw	0
   522  1041  3400               	retlw	0
   523                           opt subtitle "HI-TECH Software Omniscient Code Generator (Lite mode) build 49521"
   524  1042  3400               	retlw	0
   525  1043  3473               	retlw	073h
   526  1044  3412               	retlw	012h
   527  1045  3400               	retlw	0
   528                           opt subtitle "HI-TECH Software Omniscient Code Generator (Lite mode) build 49521"
   529  1046  3400               	retlw	0
   530  1047  3480               	retlw	080h
   531  1048  34B4               	retlw	0B4h
   532  1049  3436               	retlw	036h
   533                           opt subtitle "HI-TECH Software Omniscient Code Generator (Lite mode) build 49521"
   534                           
   535  104A                     __end_of_Bank1_Reg0_13:
   536                           opt subtitle "HI-TECH Software Omniscient Code Generator (Lite mode) build 49521"
   537                           
   538                           opt pagewidth 120
   539                           
   540  104A                     _Bank0_Reg:
   541  104A  3400               	retlw	0
   542  104B  340F               	retlw	0Fh
   543  104C  3401               	retlw	01h
   544  104D  343F               	retlw	03Fh
   545  104E  3402               	retlw	02h
   546  104F  343F               	retlw	03Fh
   547  1050  3403               	retlw	03h
   548  1051  3403               	retlw	03h
   549  1052  3404               	retlw	04h
   550  1053  34FF               	retlw	0FFh
   551  1054  3405               	retlw	05h
   552  1055  3417               	retlw	017h
   553  1056  3406               	retlw	06h
   554  1057  3401               	retlw	01h
   555  1058  3407               	retlw	07h
   556  1059  3407               	retlw	07h
   557  105A  3408               	retlw	08h
   558  105B  3400               	retlw	0
   559  105C  3409               	retlw	09h
   560  105D  3400               	retlw	0
   561  105E  340C               	retlw	0Ch
   562  105F  34C3               	retlw	0C3h
   563  1060  340D               	retlw	0Dh
   564  1061  34C4               	retlw	0C4h
   565  1062  340E               	retlw	0Eh
   566  1063  34C5               	retlw	0C5h
   567  1064  340F               	retlw	0Fh
   568  1065  34C6               	retlw	0C6h
   569  1066  3411               	retlw	011h
   570  1067  3420               	retlw	020h
   571  1068  3412               	retlw	012h
   572  1069  3420               	retlw	020h
   573  106A  3413               	retlw	013h
   574  106B  3420               	retlw	020h
   575  106C  3414               	retlw	014h
   576  106D  3420               	retlw	020h
   577  106E  3415               	retlw	015h
   578  106F  3420               	retlw	020h
   579  1070  3416               	retlw	016h
   580  1071  3420               	retlw	020h
   581  1072  3417               	retlw	017h
   582  1073  3400               	retlw	0
   583  1074  341C               	retlw	01Ch
   584  1075  343F               	retlw	03Fh
   585  1076  341D               	retlw	01Dh
   586  1077  3407               	retlw	07h
   587                           opt subtitle "HI-TECH Software Omniscient Code Generator (Lite mode) build 49521"
   588  1078                     __end_of_Bank0_Reg:
   589                           opt subtitle "HI-TECH Software Omniscient Code Generator (Lite mode) build 49521"
   590                           
   591                           opt pagewidth 120
   592                           
   593  1078                     _Bank1_Reg14:
   594  1078  3441               	retlw	041h
   595  1079  3420               	retlw	020h
   596  107A  3408               	retlw	08h
   597  107B  3404               	retlw	04h
   598  107C  3481               	retlw	081h
   599  107D  3420               	retlw	020h
   600  107E  34CF               	retlw	0CFh
   601  107F  34F7               	retlw	0F7h
   602  1080  34FE               	retlw	0FEh
   603  1081  34FF               	retlw	0FFh
   604  1082  34FF               	retlw	0FFh
   605                           opt subtitle "HI-TECH Software Omniscient Code Generator (Lite mode) build 49521"
   606  1083                     __end_of_Bank1_Reg14:
   607                           opt subtitle "HI-TECH Software Omniscient Code Generator (Lite mode) build 49521"
   608                           
   609                           opt pagewidth 120
   610                           
   611  1083                     _dpowers:
   612  1083  3401               	retlw	01h
   613  1084  3400               	retlw	0
   614                           opt subtitle "HI-TECH Software Omniscient Code Generator (Lite mode) build 49521"
   615  1085  340A               	retlw	0Ah
   616  1086  3400               	retlw	0
   617                           opt subtitle "HI-TECH Software Omniscient Code Generator (Lite mode) build 49521"
   618  1087  3464               	retlw	064h
   619  1088  3400               	retlw	0
   620                           opt subtitle "HI-TECH Software Omniscient Code Generator (Lite mode) build 49521"
   621  1089  34E8               	retlw	0E8h
   622  108A  3403               	retlw	03h
   623                           opt subtitle "HI-TECH Software Omniscient Code Generator (Lite mode) build 49521"
   624  108B  3410               	retlw	010h
   625  108C  3427               	retlw	027h
   626                           opt subtitle "HI-TECH Software Omniscient Code Generator (Lite mode) build 49521"
   627                           
   628  108D                     __end_of_dpowers:
   629                           opt subtitle "HI-TECH Software Omniscient Code Generator (Lite mode) build 49521"
   630                           
   631                           opt pagewidth 120
   632                           
   633  108D                     _hexpowers:
   634  108D  3401               	retlw	01h
   635  108E  3400               	retlw	0
   636                           opt subtitle "HI-TECH Software Omniscient Code Generator (Lite mode) build 49521"
   637  108F  3410               	retlw	010h
   638  1090  3400               	retlw	0
   639                           opt subtitle "HI-TECH Software Omniscient Code Generator (Lite mode) build 49521"
   640  1091  3400               	retlw	0
   641  1092  3401               	retlw	01h
   642                           opt subtitle "HI-TECH Software Omniscient Code Generator (Lite mode) build 49521"
   643  1093  3400               	retlw	0
   644  1094  3410               	retlw	010h
   645                           opt subtitle "HI-TECH Software Omniscient Code Generator (Lite mode) build 49521"
   646                           
   647  1095                     __end_of_hexpowers:
   648                           opt subtitle "HI-TECH Software Omniscient Code Generator (Lite mode) build 49521"
   649                           
   650                           opt pagewidth 120
   651                           
   652  1095                     _RX0_Address:
   653  1095  3434               	retlw	034h
   654  1096  3443               	retlw	043h
   655  1097  3410               	retlw	010h
   656  1098  3410               	retlw	010h
   657  1099  3401               	retlw	01h
   658                           opt subtitle "HI-TECH Software Omniscient Code Generator (Lite mode) build 49521"
   659  109A                     __end_of_RX0_Address:
   660                           opt subtitle "HI-TECH Software Omniscient Code Generator (Lite mode) build 49521"
   661                           
   662                           opt pagewidth 120
   663                           
   664  109A                     _RX1_Address:
   665  109A  3439               	retlw	039h
   666  109B  3438               	retlw	038h
   667  109C  3437               	retlw	037h
   668  109D  3436               	retlw	036h
   669  109E  34C2               	retlw	0C2h
   670                           opt subtitle "HI-TECH Software Omniscient Code Generator (Lite mode) build 49521"
   671  109F                     __end_of_RX1_Address:
   672                           opt subtitle "HI-TECH Software Omniscient Code Generator (Lite mode) build 49521"
   673                           
   674                           opt pagewidth 120
   675  109F                     _Bank0_RegAct:
   676  109F  341C               	retlw	01Ch
   677  10A0  343F               	retlw	03Fh
   678  10A1  341D               	retlw	01Dh
   679  10A2  3407               	retlw	07h
   680                           opt subtitle "HI-TECH Software Omniscient Code Generator (Lite mode) build 49521"
   681  10A3                     __end_of_Bank0_RegAct:
   682                           opt subtitle "HI-TECH Software Omniscient Code Generator (Lite mode) build 49521"
   683                           
   684                           opt pagewidth 120
   685                           
   686                           	opt lm
   687                           
   688                           	processor	16F707
   689                           clrc	macro
   690                           	bcf	3,0
   691                           	endm
   692                           clrz	macro
   693                           	bcf	3,2
   694  001F                     _ADCON0bits	set	0x1F
   695                           opt subtitle "HI-TECH Software Omniscient Code Generator (Lite mode) build 49521"
   696  001E                     _ADRES	set	0x1E
   697                           opt subtitle "HI-TECH Software Omniscient Code Generator (Lite mode) build 49521"
   698  000C                     _PIR1bits	set	0xC
   699                           opt subtitle "HI-TECH Software Omniscient Code Generator (Lite mode) build 49521"
   700  0007                     _PORTCbits	set	0x7
   701                           opt subtitle "HI-TECH Software Omniscient Code Generator (Lite mode) build 49521"
   702  0008                     _PORTDbits	set	0x8
   703                           opt subtitle "HI-TECH Software Omniscient Code Generator (Lite mode) build 49521"
   704  0009                     _PORTEbits	set	0x9
   705                           opt subtitle "HI-TECH Software Omniscient Code Generator (Lite mode) build 49521"
   706  001A                     _RCREG	set	0x1A
   707                           opt subtitle "HI-TECH Software Omniscient Code Generator (Lite mode) build 49521"
   708  0018                     _RCSTA	set	0x18
   709                           opt subtitle "HI-TECH Software Omniscient Code Generator (Lite mode) build 49521"
   710  0018                     _RCSTAbits	set	0x18
   711                           opt subtitle "HI-TECH Software Omniscient Code Generator (Lite mode) build 49521"
   712  0013                     _SSPBUF	set	0x13
   713                           opt subtitle "HI-TECH Software Omniscient Code Generator (Lite mode) build 49521"
   714  0014                     _SSPCONbits	set	0x14
   715                           opt subtitle "HI-TECH Software Omniscient Code Generator (Lite mode) build 49521"
   716  0010                     _T1CONbits	set	0x10
   717                           opt subtitle "HI-TECH Software Omniscient Code Generator (Lite mode) build 49521"
   718  000F                     _TMR1H	set	0xF
   719                           opt subtitle "HI-TECH Software Omniscient Code Generator (Lite mode) build 49521"
   720  000E                     _TMR1L	set	0xE
   721                           opt subtitle "HI-TECH Software Omniscient Code Generator (Lite mode) build 49521"
   722  0019                     _TXREG	set	0x19
   723                           opt subtitle "HI-TECH Software Omniscient Code Generator (Lite mode) build 49521"
   724  005F                     _GIE	set	0x5F
   725                           opt subtitle "HI-TECH Software Omniscient Code Generator (Lite mode) build 49521"
   726  005E                     _PEIE	set	0x5E
   727                           opt subtitle "HI-TECH Software Omniscient Code Generator (Lite mode) build 49521"
   728  0065                     _RCIF	set	0x65
   729                           opt subtitle "HI-TECH Software Omniscient Code Generator (Lite mode) build 49521"
   730  0060                     _TMR1IF	set	0x60
   731                           opt subtitle "HI-TECH Software Omniscient Code Generator (Lite mode) build 49521"
   732  0064                     _TXIF	set	0x64
   733                           opt subtitle "HI-TECH Software Omniscient Code Generator (Lite mode) build 49521"
   734  009F                     _ADCON1bits	set	0x9F
   735                           opt subtitle "HI-TECH Software Omniscient Code Generator (Lite mode) build 49521"
   736  009D                     _FVRCONbits	set	0x9D
   737                           opt subtitle "HI-TECH Software Omniscient Code Generator (Lite mode) build 49521"
   738  0090                     _OSCCONbits	set	0x90
   739                           opt subtitle "HI-TECH Software Omniscient Code Generator (Lite mode) build 49521"
   740  0099                     _SPBRG	set	0x99
   741                           opt subtitle "HI-TECH Software Omniscient Code Generator (Lite mode) build 49521"
   742  0094                     _SSPSTATbits	set	0x94
   743                           opt subtitle "HI-TECH Software Omniscient Code Generator (Lite mode) build 49521"
   744  008F                     _T1GCONbits	set	0x8F
   745                           opt subtitle "HI-TECH Software Omniscient Code Generator (Lite mode) build 49521"
   746  0087                     _TRISCbits	set	0x87
   747                           opt subtitle "HI-TECH Software Omniscient Code Generator (Lite mode) build 49521"
   748  0088                     _TRISDbits	set	0x88
   749                           opt subtitle "HI-TECH Software Omniscient Code Generator (Lite mode) build 49521"
   750  0089                     _TRISEbits	set	0x89
   751                           opt subtitle "HI-TECH Software Omniscient Code Generator (Lite mode) build 49521"
   752  0098                     _TXSTA	set	0x98
   753                           opt subtitle "HI-TECH Software Omniscient Code Generator (Lite mode) build 49521"
   754  0098                     _TXSTAbits	set	0x98
   755                           opt subtitle "HI-TECH Software Omniscient Code Generator (Lite mode) build 49521"
   756  0460                     _TMR1IE	set	0x460
   757                           opt subtitle "HI-TECH Software Omniscient Code Generator (Lite mode) build 49521"
   758  0187                     _ANSELCbits	set	0x187
   759                           opt subtitle "HI-TECH Software Omniscient Code Generator (Lite mode) build 49521"
   760  0188                     _ANSELDbits	set	0x188
   761                           opt subtitle "HI-TECH Software Omniscient Code Generator (Lite mode) build 49521"
   762  0189                     _ANSELEbits	set	0x189
   763                           opt subtitle "HI-TECH Software Omniscient Code Generator (Lite mode) build 49521"
   764  10A3                     __stringdata:
   765                           opt subtitle "HI-TECH Software Omniscient Code Generator (Lite mode) build 49521"
   766  10A3                     STR_4:	
   767  10A3  3456               	retlw	86	;'V'
   768  10A4  3453               	retlw	83	;'S'
   769  10A5  3474               	retlw	116	;'t'
   770  10A6  346F               	retlw	111	;'o'
   771  10A7  3472               	retlw	114	;'r'
   772  10A8  3461               	retlw	97	;'a'
   773  10A9  3467               	retlw	103	;'g'
   774  10AA  3465               	retlw	101	;'e'
   775  10AB  343A               	retlw	58	;':'
   776  10AC  3420               	retlw	32	;' '
   777  10AD  3425               	retlw	37	;'%'
   778  10AE  3464               	retlw	100	;'d'
   779  10AF  3420               	retlw	32	;' '
   780  10B0  3420               	retlw	32	;' '
   781  10B1  343D               	retlw	61	;'='
   782  10B2  343E               	retlw	62	;'>'
   783  10B3  3420               	retlw	32	;' '
   784  10B4  346E               	retlw	110	;'n'
   785  10B5  346F               	retlw	111	;'o'
   786  10B6  3474               	retlw	116	;'t'
   787  10B7  3420               	retlw	32	;' '
   788  10B8  344F               	retlw	79	;'O'
   789  10B9  344B               	retlw	75	;'K'
   790  10BA  340D               	retlw	13
   791  10BB  340A               	retlw	10
   792  10BC  3400               	retlw	0
   793                           opt subtitle "HI-TECH Software Omniscient Code Generator (Lite mode) build 49521"
   794                           
   795  10BD                     STR_10:	
   796  10BD  344E               	retlw	78	;'N'
   797  10BE  346F               	retlw	111	;'o'
   798  10BF  3420               	retlw	32	;' '
   799  10C0  3464               	retlw	100	;'d'
   800  10C1  3461               	retlw	97	;'a'
   801  10C2  3474               	retlw	116	;'t'
   802  10C3  3461               	retlw	97	;'a'
   803  10C4  3420               	retlw	32	;' '
   804  10C5  3473               	retlw	115	;'s'
   805  10C6  3465               	retlw	101	;'e'
   806  10C7  346E               	retlw	110	;'n'
   807  10C8  3474               	retlw	116	;'t'
   808  10C9  343A               	retlw	58	;':'
   809  10CA  3420               	retlw	32	;' '
   810  10CB  3445               	retlw	69	;'E'
   811  10CC  3452               	retlw	82	;'R'
   812  10CD  3452               	retlw	82	;'R'
   813  10CE  344F               	retlw	79	;'O'
   814  10CF  3452               	retlw	82	;'R'
   815  10D0  3420               	retlw	32	;' '
   816  10D1  340D               	retlw	13
   817  10D2  340A               	retlw	10
   818  10D3  3420               	retlw	32	;' '
   819  10D4  3400               	retlw	0
   820                           opt subtitle "HI-TECH Software Omniscient Code Generator (Lite mode) build 49521"
   821                           
   822  10D5                     STR_2:	
   823  10D5  3456               	retlw	86	;'V'
   824  10D6  3473               	retlw	115	;'s'
   825  10D7  3474               	retlw	116	;'t'
   826  10D8  346F               	retlw	111	;'o'
   827  10D9  3472               	retlw	114	;'r'
   828  10DA  3461               	retlw	97	;'a'
   829  10DB  3467               	retlw	103	;'g'
   830  10DC  3465               	retlw	101	;'e'
   831  10DD  3420               	retlw	32	;' '
   832  10DE  3474               	retlw	116	;'t'
   833  10DF  346F               	retlw	111	;'o'
   834  10E0  346F               	retlw	111	;'o'
   835  10E1  3420               	retlw	32	;' '
   836  10E2  346C               	retlw	108	;'l'
   837  10E3  346F               	retlw	111	;'o'
   838  10E4  3477               	retlw	119	;'w'
   839  10E5  343A               	retlw	58	;':'
   840  10E6  3420               	retlw	32	;' '
   841  10E7  3425               	retlw	37	;'%'
   842  10E8  3464               	retlw	100	;'d'
   843  10E9  340D               	retlw	13
   844  10EA  340A               	retlw	10
   845  10EB  3400               	retlw	0
   846                           opt subtitle "HI-TECH Software Omniscient Code Generator (Lite mode) build 49521"
   847                           
   848  10EC                     STR_1:	
   849  10EC  3445               	retlw	69	;'E'
   850  10ED  3463               	retlw	99	;'c'
   851  10EE  3463               	retlw	99	;'c'
   852  10EF  346F               	retlw	111	;'o'
   853  10F0  346D               	retlw	109	;'m'
   854  10F1  3469               	retlw	105	;'i'
   855  10F2  3420               	retlw	32	;' '
   856  10F3  346E               	retlw	110	;'n'
   857  10F4  3465               	retlw	101	;'e'
   858  10F5  346C               	retlw	108	;'l'
   859  10F6  346C               	retlw	108	;'l'
   860  10F7  3427               	retlw	39	;'''
   861  10F8  3449               	retlw	73	;'I'
   862  10F9  3453               	retlw	83	;'S'
   863  10FA  3452               	retlw	82	;'R'
   864  10FB  3421               	retlw	33	;'!'
   865  10FC  340D               	retlw	13
   866  10FD  340A               	retlw	10
   867  10FE  3400               	retlw	0
   868                           opt subtitle "HI-TECH Software Omniscient Code Generator (Lite mode) build 49521"
   869                           
   870  10FF                     STR_3:	
   871  10FF  3456               	retlw	86	;'V'
   872  1100  3473               	retlw	115	;'s'
   873  1101  3474               	retlw	116	;'t'
   874  1102  346F               	retlw	111	;'o'
   875  1103  3472               	retlw	114	;'r'
   876  1104  3461               	retlw	97	;'a'
   877  1105  3467               	retlw	103	;'g'
   878  1106  3465               	retlw	101	;'e'
   879  1107  3420               	retlw	32	;' '
   880  1108  344F               	retlw	79	;'O'
   881  1109  344B               	retlw	75	;'K'
   882  110A  343A               	retlw	58	;':'
   883  110B  3420               	retlw	32	;' '
   884  110C  3425               	retlw	37	;'%'
   885  110D  3464               	retlw	100	;'d'
   886  110E  340D               	retlw	13
   887  110F  340A               	retlw	10
   888  1110  3400               	retlw	0
   889                           opt subtitle "HI-TECH Software Omniscient Code Generator (Lite mode) build 49521"
   890                           
   891  1111                     STR_14:	
   892  1111  3430               	retlw	48	;'0'
   893  1112  3431               	retlw	49	;'1'
   894  1113  3432               	retlw	50	;'2'
   895  1114  3433               	retlw	51	;'3'
   896  1115  3434               	retlw	52	;'4'
   897  1116  3435               	retlw	53	;'5'
   898  1117  3436               	retlw	54	;'6'
   899  1118  3437               	retlw	55	;'7'
   900  1119  3438               	retlw	56	;'8'
   901  111A  3439               	retlw	57	;'9'
   902  111B  3441               	retlw	65	;'A'
   903  111C  3442               	retlw	66	;'B'
   904  111D  3443               	retlw	67	;'C'
   905  111E  3444               	retlw	68	;'D'
   906  111F  3445               	retlw	69	;'E'
   907  1120  3446               	retlw	70	;'F'
   908  1121  3400               	retlw	0
   909                           opt subtitle "HI-TECH Software Omniscient Code Generator (Lite mode) build 49521"
   910                           
   911  1122                     STR_9:	
   912  1122  3444               	retlw	68	;'D'
   913  1123  3461               	retlw	97	;'a'
   914  1124  3474               	retlw	116	;'t'
   915  1125  3461               	retlw	97	;'a'
   916  1126  3420               	retlw	32	;' '
   917  1127  3473               	retlw	115	;'s'
   918  1128  3465               	retlw	101	;'e'
   919  1129  346E               	retlw	110	;'n'
   920  112A  3474               	retlw	116	;'t'
   921  112B  343A               	retlw	58	;':'
   922  112C  3420               	retlw	32	;' '
   923  112D  344F               	retlw	79	;'O'
   924  112E  344B               	retlw	75	;'K'
   925  112F  3420               	retlw	32	;' '
   926  1130  340D               	retlw	13
   927  1131  340A               	retlw	10
   928  1132  3400               	retlw	0
   929                           opt subtitle "HI-TECH Software Omniscient Code Generator (Lite mode) build 49521"
   930                           
   931  1133                     STR_5:	
   932  1133  3453               	retlw	83	;'S'
   933  1134  346C               	retlw	108	;'l'
   934  1135  3465               	retlw	101	;'e'
   935  1136  3465               	retlw	101	;'e'
   936  1137  3470               	retlw	112	;'p'
   937  1138  343A               	retlw	58	;':'
   938  1139  3420               	retlw	32	;' '
   939  113A  3425               	retlw	37	;'%'
   940  113B  3464               	retlw	100	;'d'
   941  113C  340D               	retlw	13
   942  113D  340A               	retlw	10
   943  113E  3400               	retlw	0
   944                           opt subtitle "HI-TECH Software Omniscient Code Generator (Lite mode) build 49521"
   945                           
   946  113F                     STR_12:	
   947  113F  3452               	retlw	82	;'R'
   948  1140  3465               	retlw	101	;'e'
   949  1141  3463               	retlw	99	;'c'
   950  1142  3465               	retlw	101	;'e'
   951  1143  3469               	retlw	105	;'i'
   952  1144  3476               	retlw	118	;'v'
   953  1145  3469               	retlw	105	;'i'
   954  1146  346E               	retlw	110	;'n'
   955  1147  3467               	retlw	103	;'g'
   956  1148  343A               	retlw	58	;':'
   957  1149  3420               	retlw	32	;' '
   958  114A  3400               	retlw	0
   959                           opt subtitle "HI-TECH Software Omniscient Code Generator (Lite mode) build 49521"
   960                           
   961  114B                     STR_6:	
   962  114B  3453               	retlw	83	;'S'
   963  114C  3465               	retlw	101	;'e'
   964  114D  346E               	retlw	110	;'n'
   965  114E  3464               	retlw	100	;'d'
   966  114F  3469               	retlw	105	;'i'
   967  1150  346E               	retlw	110	;'n'
   968  1151  3467               	retlw	103	;'g'
   969  1152  343A               	retlw	58	;':'
   970  1153  3420               	retlw	32	;' '
   971  1154  3400               	retlw	0
   972                           opt subtitle "HI-TECH Software Omniscient Code Generator (Lite mode) build 49521"
   973                           
   974  1155                     STR_11:	
   975  1155  340A               	retlw	10
   976  1156  340D               	retlw	13
   977  1157  340A               	retlw	10
   978  1158  340D               	retlw	13
   979  1159  3400               	retlw	0
   980                           opt subtitle "HI-TECH Software Omniscient Code Generator (Lite mode) build 49521"
   981                           
   982  115A                     STR_7:	
   983  115A  3425               	retlw	37	;'%'
   984  115B  3458               	retlw	88	;'X'
   985  115C  3400               	retlw	0
   986                           opt subtitle "HI-TECH Software Omniscient Code Generator (Lite mode) build 49521"
   987  1155                     STR_13	equ	STR_11+0
   988  1157                     STR_8	equ	STR_11+2
   989                           opt subtitle "HI-TECH Software Omniscient Code Generator (Lite mode) build 49521"
   990  115D                     __end_of__stringdata:
   991                           opt subtitle "HI-TECH Software Omniscient Code Generator (Lite mode) build 49521"
   992                           
   993  0000                     __CFG_PLLEN$ON equ 0x0
   994                           opt subtitle "HI-TECH Software Omniscient Code Generator (Lite mode) build 49521"
   995  0000                     __CFG_FOSC$INTOSC equ 0x0
   996                           opt subtitle "HI-TECH Software Omniscient Code Generator (Lite mode) build 49521"
   997  0000                     __CFG_MCLRE$ON equ 0x0
   998                           opt subtitle "HI-TECH Software Omniscient Code Generator (Lite mode) build 49521"
   999  0000                     __CFG_WDTE$OFF equ 0x0
  1000                           opt subtitle "HI-TECH Software Omniscient Code Generator (Lite mode) build 49521"
  1001  0000                     __CFG_CP$OFF equ 0x0
  1002                           opt subtitle "HI-TECH Software Omniscient Code Generator (Lite mode) build 49521"
  1003  0000                     __CFG_PWRTE$OFF equ 0x0
  1004                           opt subtitle "HI-TECH Software Omniscient Code Generator (Lite mode) build 49521"
  1005  0000                     __CFG_VCAPEN$RA0 equ 0x0
  1006                           opt subtitle "HI-TECH Software Omniscient Code Generator (Lite mode) build 49521"
  1007                           
  1008                           opt pagewidth 120
  1009                           
  1010  0AEB                     start_initialization:
  1011                           opt subtitle "HI-TECH Software Omniscient Code Generator (Lite mode) build 49521"
  1012                           
  1013  0AEB                     __initialization:
  1014                           opt subtitle "HI-TECH Software Omniscient Code Generator (Lite mode) build 49521"
  1015                           
  1016  02D0                     __pbitbssBANK0:
  1017  02D0                     _flag:
  1018  02D0                            ds      1
  1019                           opt subtitle "HI-TECH Software Omniscient Code Generator (Lite mode) build 49521"
  1020                           
  1021                           opt pagewidth 120
  1022  0053                     __pbssBANK0:
  1023  0053                     _timelapse_count:
  1024  0053                            ds      2
  1025                           opt subtitle "HI-TECH Software Omniscient Code Generator (Lite mode) build 49521"
  1026  0055                     _tmr1Counter:
  1027  0055                            ds      1
  1028                           opt subtitle "HI-TECH Software Omniscient Code Generator (Lite mode) build 49521"
  1029  0056                     _tx_buf:
  1030  0056                            ds      4
  1031                           opt subtitle "HI-TECH Software Omniscient Code Generator (Lite mode) build 49521"
  1032                           
  1033                           opt pagewidth 120
  1034  005B                     __pdataBANK0:
  1035                           opt subtitle "HI-TECH Software Omniscient Code Generator (Lite mode) build 49521"
  1036                           
  1037  005B                     _tmr1Target:
  1038  005B                            ds      1
  1039                           opt subtitle "HI-TECH Software Omniscient Code Generator (Lite mode) build 49521"
  1040                           
  1041                           opt pagewidth 120
  1042  00A0                     __pbssBANK1:
  1043  00A0                     _rx_buf:
  1044  00A0                            ds      32
  1045                           opt subtitle "HI-TECH Software Omniscient Code Generator (Lite mode) build 49521"
  1046                           
  1047                           opt pagewidth 120
  1048                           
  1049                           	opt lm
  1050  0A64                     clear_ram:
  1051  0A64  0064               	clrwdt			;clear the watchdog before getting into this loop
  1052  0A65                     clrloop:
  1053  0A65  0180               	clrf	indf		;clear RAM location pointed to by FSR
  1054  0A66  0A84               	incf	fsr,f		;increment pointer
  1055  0A67  0604               	xorwf	fsr,w		;XOR with final address
  1056  0A68  1903               	btfsc	status,2	;have we reached the end yet?
  1057  0A69  3400               	retlw	0		;all done for this memory range, return
  1058  0A6A  0604               	xorwf	fsr,w		;XOR again to restore value
  1059  0A6B  2A65               	goto	clrloop		;do the next byte
  1060                           opt subtitle "HI-TECH Software Omniscient Code Generator (Lite mode) build 49521"
  1061                           
  1062                           opt pagewidth 120
  1063  0AEB  01DA               	clrf	((__pbitbssBANK0/8)+0)&07Fh
  1064                           opt subtitle "HI-TECH Software Omniscient Code Generator (Lite mode) build 49521"
  1065                           
  1066  0AEC  01D3               	clrf	((__pbssBANK0)+0)&07Fh
  1067  0AED  01D4               	clrf	((__pbssBANK0)+1)&07Fh
  1068  0AEE  01D5               	clrf	((__pbssBANK0)+2)&07Fh
  1069  0AEF  01D6               	clrf	((__pbssBANK0)+3)&07Fh
  1070  0AF0  01D7               	clrf	((__pbssBANK0)+4)&07Fh
  1071  0AF1  01D8               	clrf	((__pbssBANK0)+5)&07Fh
  1072  0AF2  01D9               	clrf	((__pbssBANK0)+6)&07Fh
  1073                           opt subtitle "HI-TECH Software Omniscient Code Generator (Lite mode) build 49521"
  1074                           
  1075  0AF3  1383               	bcf	status, 7	;select IRP bank0
  1076  0AF4  30A0               	movlw	low(__pbssBANK1)
  1077  0AF5  0084               	movwf	fsr
  1078  0AF6  30C0               	movlw	low((__pbssBANK1)+020h)
  1079  0AF7  120A  158A  2264   	fcall	clear_ram
              120A  158A         
  1080                           opt subtitle "HI-TECH Software Omniscient Code Generator (Lite mode) build 49521"
  1081                           
  1082                           opt pagewidth 120
  1083  0AFC  120A  118A  2003   	fcall	__pidataBANK0+0		;fetch initializer
              120A  158A         
  1084  0B01  00DB               	movwf	__pdataBANK0+0&07fh		
  1085                           opt subtitle "HI-TECH Software Omniscient Code Generator (Lite mode) build 49521"
  1086                           
  1087                           opt pagewidth 120
  1088                           
  1089                           	opt lm
  1090  0B02                     end_of_initialization:
  1091  0B02                     __end_of__initialization:clrf status
      + 0B02  0183               	clrf	3
  1092  0B03  120A  118A  2B25   ljmp _main	;jump to C main() function
  1093                           opt subtitle "HI-TECH Software Omniscient Code Generator (Lite mode) build 49521"
  1094                           
  1095  0190                     __pcstackBANK3:
  1096                           opt subtitle "HI-TECH Software Omniscient Code Generator (Lite mode) build 49521"
  1097  0190                     main@temp_tx_buf:	; 32 bytes @ 0x0
  1098  0190                     	ds	32
  1099                           opt subtitle "HI-TECH Software Omniscient Code Generator (Lite mode) build 49521"
  1100  01B0                     main@num_sleep:	; 1 bytes @ 0x20
  1101  01B0                     	ds	1
  1102                           opt subtitle "HI-TECH Software Omniscient Code Generator (Lite mode) build 49521"
  1103  01B1                     main@value:	; 2 bytes @ 0x21
  1104  01B1                     	ds	2
  1105                           opt subtitle "HI-TECH Software Omniscient Code Generator (Lite mode) build 49521"
  1106  01B3                     main@i:	; 4 bytes @ 0x23
  1107  01B3                     	ds	4
  1108                           opt subtitle "HI-TECH Software Omniscient Code Generator (Lite mode) build 49521"
  1109                           
  1110  00C0                     __pcstackBANK1:
  1111  00C0                     ??_Send_Packet:	; 0 bytes @ 0x0
  1112  00C0                     	ds	3
  1113                           opt subtitle "HI-TECH Software Omniscient Code Generator (Lite mode) build 49521"
  1114  00C3                     Send_Packet@type:	; 1 bytes @ 0x3
  1115  00C3                     	ds	1
  1116                           opt subtitle "HI-TECH Software Omniscient Code Generator (Lite mode) build 49521"
  1117  00C4                     Send_Packet@fifo_sta:	; 1 bytes @ 0x4
  1118  00C4                     	ds	1
  1119                           opt subtitle "HI-TECH Software Omniscient Code Generator (Lite mode) build 49521"
  1120  00C5                     Send_Packet@i:	; 1 bytes @ 0x5
  1121  00C5                     	ds	1
  1122  00C6                     ?_main:	; 2 bytes @ 0x6
  1123  00C6                     main@argc:	; 2 bytes @ 0x6
  1124  00C6                     	ds	2
  1125  00C8                     main@argv:	; 2 bytes @ 0x8
  1126  00C8                     	ds	2
  1127  00CA                     ??_main:	; 0 bytes @ 0xA
  1128  00CA                     	ds	2
  1129                           opt subtitle "HI-TECH Software Omniscient Code Generator (Lite mode) build 49521"
  1130                           
  1131  0070                     __pcstackCOMMON:
  1132  0070                     ?_spiInit:	; 0 bytes @ 0x0
  1133  0070                     ?_uartInit:	; 0 bytes @ 0x0
  1134  0070                     ?_adcInit:	; 0 bytes @ 0x0
  1135  0070                     ?_rfm70setPowerdownMode:	; 0 bytes @ 0x0
  1136  0070                     ?_RFM70_Initialize:	; 0 bytes @ 0x0
  1137  0070                     ?_SwitchToTxMode:	; 0 bytes @ 0x0
  1138  0070                     ?_SwitchToRxMode:	; 0 bytes @ 0x0
  1139  0070                     ?_ISR:	; 0 bytes @ 0x0
  1140  0070                     ?_putch:	; 0 bytes @ 0x0
  1141  0070                     ?_SwitchCFG:	; 0 bytes @ 0x0
  1142  0070                     ?i1_putch:	; 0 bytes @ 0x0
  1143  0070                     ??i1_putch:	; 0 bytes @ 0x0
  1144  0070                     ?_adcReadVcap:	; 1 bytes @ 0x0
  1145  0070                     ?_adcReadTemp:	; 1 bytes @ 0x0
  1146  0070                     ?_SPI_Read_Reg:	; 1 bytes @ 0x0
  1147  0070                     ?_rfm70TxDataSentInterrupt:	; 1 bytes @ 0x0
  1148  0070                     ?_rfm70TxDataSentErrorInterrupt:	; 1 bytes @ 0x0
  1149  0070                     ?_SPI_RW:	; 1 bytes @ 0x0
  1150                           opt subtitle "HI-TECH Software Omniscient Code Generator (Lite mode) build 49521"
  1151  0070                     ?i1___lwdiv:	; 2 bytes @ 0x0
  1152                           opt subtitle "HI-TECH Software Omniscient Code Generator (Lite mode) build 49521"
  1153  0070                     i1putch@c:	; 1 bytes @ 0x0
  1154                           opt subtitle "HI-TECH Software Omniscient Code Generator (Lite mode) build 49521"
  1155  0070                     i1___lwdiv@divisor:	; 2 bytes @ 0x0
  1156  0070                     	ds	2
  1157                           opt subtitle "HI-TECH Software Omniscient Code Generator (Lite mode) build 49521"
  1158  0072                     i1___lwdiv@dividend:	; 2 bytes @ 0x2
  1159  0072                     	ds	2
  1160  0074                     ??i1___lwdiv:	; 0 bytes @ 0x4
  1161  0074                     	ds	1
  1162                           opt subtitle "HI-TECH Software Omniscient Code Generator (Lite mode) build 49521"
  1163  0075                     i1___lwdiv@counter:	; 1 bytes @ 0x5
  1164  0075                     	ds	1
  1165                           opt subtitle "HI-TECH Software Omniscient Code Generator (Lite mode) build 49521"
  1166  0076                     i1___lwdiv@quotient:	; 2 bytes @ 0x6
  1167  0076                     	ds	2
  1168                           opt subtitle "HI-TECH Software Omniscient Code Generator (Lite mode) build 49521"
  1169  0078                     ?i1___lwmod:	; 2 bytes @ 0x8
  1170                           opt subtitle "HI-TECH Software Omniscient Code Generator (Lite mode) build 49521"
  1171  0078                     i1___lwmod@divisor:	; 2 bytes @ 0x8
  1172  0078                     	ds	2
  1173                           opt subtitle "HI-TECH Software Omniscient Code Generator (Lite mode) build 49521"
  1174  007A                     i1___lwmod@dividend:	; 2 bytes @ 0xA
  1175  007A                     	ds	2
  1176  007C                     ??i1___lwmod:	; 0 bytes @ 0xC
  1177  007C                     	ds	1
  1178                           opt subtitle "HI-TECH Software Omniscient Code Generator (Lite mode) build 49521"
  1179  007D                     i1___lwmod@counter:	; 1 bytes @ 0xD
  1180  007D                     	ds	1
  1181                           opt subtitle "HI-TECH Software Omniscient Code Generator (Lite mode) build 49521"
  1182                           
  1183  0020                     __pcstackBANK0:
  1184                           opt subtitle "HI-TECH Software Omniscient Code Generator (Lite mode) build 49521"
  1185  0020                     ?i1_printf:	; 2 bytes @ 0x0
  1186                           opt subtitle "HI-TECH Software Omniscient Code Generator (Lite mode) build 49521"
  1187  0020                     i1printf@f:	; 2 bytes @ 0x0
  1188  0020                     	ds	2
  1189  0022                     ??i1_printf:	; 0 bytes @ 0x2
  1190  0022                     	ds	3
  1191                           opt subtitle "HI-TECH Software Omniscient Code Generator (Lite mode) build 49521"
  1192  0025                     i1printf@idx:	; 1 bytes @ 0x5
  1193  0025                     	ds	1
  1194                           opt subtitle "HI-TECH Software Omniscient Code Generator (Lite mode) build 49521"
  1195  0026                     i1printf@ap:	; 1 bytes @ 0x6
  1196  0026                     	ds	1
  1197                           opt subtitle "HI-TECH Software Omniscient Code Generator (Lite mode) build 49521"
  1198  0027                     i1printf@prec:	; 1 bytes @ 0x7
  1199  0027                     	ds	1
  1200                           opt subtitle "HI-TECH Software Omniscient Code Generator (Lite mode) build 49521"
  1201  0028                     i1printf@flag:	; 1 bytes @ 0x8
  1202  0028                     	ds	1
  1203                           opt subtitle "HI-TECH Software Omniscient Code Generator (Lite mode) build 49521"
  1204  0029                     i1printf@_val:	; 4 bytes @ 0x9
  1205  0029                     	ds	4
  1206                           opt subtitle "HI-TECH Software Omniscient Code Generator (Lite mode) build 49521"
  1207  002D                     i1printf@c:	; 1 bytes @ 0xD
  1208  002D                     	ds	1
  1209  002E                     ??_ISR:	; 0 bytes @ 0xE
  1210  002E                     	ds	5
  1211  0033                     ??_spiInit:	; 0 bytes @ 0x13
  1212  0033                     ??_uartInit:	; 0 bytes @ 0x13
  1213  0033                     ??_adcInit:	; 0 bytes @ 0x13
  1214  0033                     ??_adcReadVcap:	; 0 bytes @ 0x13
  1215  0033                     ??_adcReadTemp:	; 0 bytes @ 0x13
  1216  0033                     ??_putch:	; 0 bytes @ 0x13
  1217  0033                     ??_SPI_RW:	; 0 bytes @ 0x13
  1218                           opt subtitle "HI-TECH Software Omniscient Code Generator (Lite mode) build 49521"
  1219  0033                     ?___lwdiv:	; 2 bytes @ 0x13
  1220                           opt subtitle "HI-TECH Software Omniscient Code Generator (Lite mode) build 49521"
  1221  0033                     ?___awdiv:	; 2 bytes @ 0x13
  1222                           opt subtitle "HI-TECH Software Omniscient Code Generator (Lite mode) build 49521"
  1223  0033                     putch@c:	; 1 bytes @ 0x13
  1224                           opt subtitle "HI-TECH Software Omniscient Code Generator (Lite mode) build 49521"
  1225  0033                     ___lwdiv@divisor:	; 2 bytes @ 0x13
  1226                           opt subtitle "HI-TECH Software Omniscient Code Generator (Lite mode) build 49521"
  1227  0033                     ___awdiv@divisor:	; 2 bytes @ 0x13
  1228  0033                     	ds	2
  1229                           opt subtitle "HI-TECH Software Omniscient Code Generator (Lite mode) build 49521"
  1230  0035                     adcReadTemp@value:	; 1 bytes @ 0x15
  1231                           opt subtitle "HI-TECH Software Omniscient Code Generator (Lite mode) build 49521"
  1232  0035                     adcReadVcap@value:	; 1 bytes @ 0x15
  1233                           opt subtitle "HI-TECH Software Omniscient Code Generator (Lite mode) build 49521"
  1234  0035                     SPI_RW@value:	; 1 bytes @ 0x15
  1235                           opt subtitle "HI-TECH Software Omniscient Code Generator (Lite mode) build 49521"
  1236  0035                     ___lwdiv@dividend:	; 2 bytes @ 0x15
  1237                           opt subtitle "HI-TECH Software Omniscient Code Generator (Lite mode) build 49521"
  1238  0035                     ___awdiv@dividend:	; 2 bytes @ 0x15
  1239  0035                     	ds	1
  1240  0036                     ??_SPI_Read_Reg:	; 0 bytes @ 0x16
  1241                           opt subtitle "HI-TECH Software Omniscient Code Generator (Lite mode) build 49521"
  1242  0036                     ?_SPI_Write_Buf:	; 0 bytes @ 0x16
  1243                           opt subtitle "HI-TECH Software Omniscient Code Generator (Lite mode) build 49521"
  1244  0036                     ?_SPI_Write_Reg:	; 0 bytes @ 0x16
  1245                           opt subtitle "HI-TECH Software Omniscient Code Generator (Lite mode) build 49521"
  1246  0036                     SPI_Write_Reg@value:	; 1 bytes @ 0x16
  1247                           opt subtitle "HI-TECH Software Omniscient Code Generator (Lite mode) build 49521"
  1248  0036                     SPI_Write_Buf@pBuf:	; 1 bytes @ 0x16
  1249  0036                     	ds	1
  1250  0037                     ??_SPI_Write_Reg:	; 0 bytes @ 0x17
  1251  0037                     ??___lwdiv:	; 0 bytes @ 0x17
  1252  0037                     ??___awdiv:	; 0 bytes @ 0x17
  1253                           opt subtitle "HI-TECH Software Omniscient Code Generator (Lite mode) build 49521"
  1254  0037                     SPI_Write_Reg@reg:	; 1 bytes @ 0x17
  1255                           opt subtitle "HI-TECH Software Omniscient Code Generator (Lite mode) build 49521"
  1256  0037                     SPI_Read_Reg@reg:	; 1 bytes @ 0x17
  1257                           opt subtitle "HI-TECH Software Omniscient Code Generator (Lite mode) build 49521"
  1258  0037                     SPI_Write_Buf@length:	; 1 bytes @ 0x17
  1259  0037                     	ds	1
  1260  0038                     ??_SPI_Write_Buf:	; 0 bytes @ 0x18
  1261                           opt subtitle "HI-TECH Software Omniscient Code Generator (Lite mode) build 49521"
  1262  0038                     SPI_Read_Reg@value:	; 1 bytes @ 0x18
  1263                           opt subtitle "HI-TECH Software Omniscient Code Generator (Lite mode) build 49521"
  1264  0038                     ___lwdiv@counter:	; 1 bytes @ 0x18
  1265                           opt subtitle "HI-TECH Software Omniscient Code Generator (Lite mode) build 49521"
  1266  0038                     ___awdiv@counter:	; 1 bytes @ 0x18
  1267  0038                     	ds	1
  1268  0039                     ??_rfm70setPowerdownMode:	; 0 bytes @ 0x19
  1269  0039                     ??_SwitchToTxMode:	; 0 bytes @ 0x19
  1270  0039                     ??_rfm70TxDataSentInterrupt:	; 0 bytes @ 0x19
  1271  0039                     ??_SwitchToRxMode:	; 0 bytes @ 0x19
  1272  0039                     ??_rfm70TxDataSentErrorInterrupt:	; 0 bytes @ 0x19
  1273  0039                     ??_SwitchCFG:	; 0 bytes @ 0x19
  1274                           opt subtitle "HI-TECH Software Omniscient Code Generator (Lite mode) build 49521"
  1275  0039                     SPI_Write_Buf@reg:	; 1 bytes @ 0x19
  1276                           opt subtitle "HI-TECH Software Omniscient Code Generator (Lite mode) build 49521"
  1277  0039                     ___awdiv@sign:	; 1 bytes @ 0x19
  1278                           opt subtitle "HI-TECH Software Omniscient Code Generator (Lite mode) build 49521"
  1279  0039                     ___lwdiv@quotient:	; 2 bytes @ 0x19
  1280  0039                     	ds	1
  1281                           opt subtitle "HI-TECH Software Omniscient Code Generator (Lite mode) build 49521"
  1282  003A                     SPI_Write_Buf@byte_ctr:	; 1 bytes @ 0x1A
  1283                           opt subtitle "HI-TECH Software Omniscient Code Generator (Lite mode) build 49521"
  1284  003A                     SwitchToRxMode@value:	; 1 bytes @ 0x1A
  1285                           opt subtitle "HI-TECH Software Omniscient Code Generator (Lite mode) build 49521"
  1286  003A                     SwitchToTxMode@value:	; 1 bytes @ 0x1A
  1287                           opt subtitle "HI-TECH Software Omniscient Code Generator (Lite mode) build 49521"
  1288  003A                     SwitchCFG@_cfg:	; 1 bytes @ 0x1A
  1289                           opt subtitle "HI-TECH Software Omniscient Code Generator (Lite mode) build 49521"
  1290  003A                     rfm70setPowerdownMode@value:	; 1 bytes @ 0x1A
  1291                           opt subtitle "HI-TECH Software Omniscient Code Generator (Lite mode) build 49521"
  1292  003A                     ___awdiv@quotient:	; 2 bytes @ 0x1A
  1293  003A                     	ds	1
  1294                           opt subtitle "HI-TECH Software Omniscient Code Generator (Lite mode) build 49521"
  1295  003B                     ?___lwmod:	; 2 bytes @ 0x1B
  1296                           opt subtitle "HI-TECH Software Omniscient Code Generator (Lite mode) build 49521"
  1297  003B                     SwitchCFG@Tmp:	; 1 bytes @ 0x1B
  1298                           opt subtitle "HI-TECH Software Omniscient Code Generator (Lite mode) build 49521"
  1299  003B                     rfm70setPowerdownMode@reg:	; 1 bytes @ 0x1B
  1300                           opt subtitle "HI-TECH Software Omniscient Code Generator (Lite mode) build 49521"
  1301  003B                     ___lwmod@divisor:	; 2 bytes @ 0x1B
  1302  003B                     	ds	1
  1303  003C                     ??_RFM70_Initialize:	; 0 bytes @ 0x1C
  1304  003C                     	ds	1
  1305                           opt subtitle "HI-TECH Software Omniscient Code Generator (Lite mode) build 49521"
  1306  003D                     ___lwmod@dividend:	; 2 bytes @ 0x1D
  1307  003D                     	ds	2
  1308  003F                     ??___lwmod:	; 0 bytes @ 0x1F
  1309  003F                     	ds	1
  1310                           opt subtitle "HI-TECH Software Omniscient Code Generator (Lite mode) build 49521"
  1311  0040                     ___lwmod@counter:	; 1 bytes @ 0x20
  1312  0040                     	ds	1
  1313                           opt subtitle "HI-TECH Software Omniscient Code Generator (Lite mode) build 49521"
  1314  0041                     ?_printf:	; 2 bytes @ 0x21
  1315                           opt subtitle "HI-TECH Software Omniscient Code Generator (Lite mode) build 49521"
  1316  0041                     printf@f:	; 2 bytes @ 0x21
  1317  0041                     	ds	2
  1318                           opt subtitle "HI-TECH Software Omniscient Code Generator (Lite mode) build 49521"
  1319  0043                     RFM70_Initialize@WriteArr:	; 12 bytes @ 0x23
  1320  0043                     	ds	2
  1321  0045                     ??_printf:	; 0 bytes @ 0x25
  1322  0045                     	ds	3
  1323                           opt subtitle "HI-TECH Software Omniscient Code Generator (Lite mode) build 49521"
  1324  0048                     printf@idx:	; 1 bytes @ 0x28
  1325  0048                     	ds	1
  1326                           opt subtitle "HI-TECH Software Omniscient Code Generator (Lite mode) build 49521"
  1327  0049                     printf@ap:	; 1 bytes @ 0x29
  1328  0049                     	ds	1
  1329                           opt subtitle "HI-TECH Software Omniscient Code Generator (Lite mode) build 49521"
  1330  004A                     printf@prec:	; 1 bytes @ 0x2A
  1331  004A                     	ds	1
  1332                           opt subtitle "HI-TECH Software Omniscient Code Generator (Lite mode) build 49521"
  1333  004B                     printf@flag:	; 1 bytes @ 0x2B
  1334  004B                     	ds	1
  1335                           opt subtitle "HI-TECH Software Omniscient Code Generator (Lite mode) build 49521"
  1336  004C                     printf@_val:	; 4 bytes @ 0x2C
  1337  004C                     	ds	3
  1338                           opt subtitle "HI-TECH Software Omniscient Code Generator (Lite mode) build 49521"
  1339  004F                     RFM70_Initialize@i:	; 1 bytes @ 0x2F
  1340  004F                     	ds	1
  1341                           opt subtitle "HI-TECH Software Omniscient Code Generator (Lite mode) build 49521"
  1342  0050                     RFM70_Initialize@j:	; 1 bytes @ 0x30
  1343                           opt subtitle "HI-TECH Software Omniscient Code Generator (Lite mode) build 49521"
  1344  0050                     printf@c:	; 1 bytes @ 0x30
  1345  0050                     	ds	1
  1346                           opt subtitle "HI-TECH Software Omniscient Code Generator (Lite mode) build 49521"
  1347  0051                     ?_Send_Packet:	; 0 bytes @ 0x31
  1348                           opt subtitle "HI-TECH Software Omniscient Code Generator (Lite mode) build 49521"
  1349  0051                     Send_Packet@pbuf:	; 1 bytes @ 0x31
  1350  0051                     	ds	1
  1351                           opt subtitle "HI-TECH Software Omniscient Code Generator (Lite mode) build 49521"
  1352  0052                     Send_Packet@len:	; 1 bytes @ 0x32
  1353  0052                     	ds	1
  1354                           opt subtitle "HI-TECH Software Omniscient Code Generator (Lite mode) build 49521"
  1355                           
  1356                           opt pagewidth 120
  1357                           
  1358                           	opt lm
  1359                           
  1360                           	processor	16F707
  1361                           clrc	macro
  1362                           	bcf	3,0
  1363                           	endm
  1364                           clrz	macro
  1365                           	bcf	3,2
  1366                           	endm
  1367                           setc	macro
  1368                           	bsf	3,0
  1369                           	endm
  1370                           setz	macro
  1371                           	bsf	3,2
  1372                           	endm
  1373                           skipc	macro
  1374                           	btfss	3,0
  1375                           	endm
  1376                           skipz	macro
  1377                           	btfss	3,2
  1378                           	endm
  1379                           skipnc	macro
  1380                           	btfsc	3,0
  1381                           	endm
  1382                           skipnz	macro
  1383                           	btfsc	3,2
  1384                           	endm
  1385                           indf	equ	0
  1386                           indf0	equ	0
  1387                           pc	equ	2
  1388                           pcl	equ	2
  1389                           status	equ	3
  1390                           fsr	equ	4
  1391                           fsr0	equ	4
  1392                           c	equ	1
  1393                           z	equ	0
  1394                           pclath	equ	10
  1395                           # 46 "/Applications/microchip/xc8/v1.12/include/pic16f707.h"
  1396                           INDF equ 00h ;# 
  1397                           # 52 "/Applications/microchip/xc8/v1.12/include/pic16f707.h"
  1398                           TMR0 equ 01h ;# 
  1399                           # 58 "/Applications/microchip/xc8/v1.12/include/pic16f707.h"
  1400                           PCL equ 02h ;# 
  1401                           # 64 "/Applications/microchip/xc8/v1.12/include/pic16f707.h"
  1402                           STATUS equ 03h ;# 
  1403                           # 151 "/Applications/microchip/xc8/v1.12/include/pic16f707.h"
  1404                           FSR equ 04h ;# 
  1405                           # 157 "/Applications/microchip/xc8/v1.12/include/pic16f707.h"
  1406                           PORTA equ 05h ;# 
  1407                           # 346 "/Applications/microchip/xc8/v1.12/include/pic16f707.h"
  1408                           PORTB equ 06h ;# 
  1409                           # 520 "/Applications/microchip/xc8/v1.12/include/pic16f707.h"
  1410                           PORTC equ 07h ;# 
  1411                           # 715 "/Applications/microchip/xc8/v1.12/include/pic16f707.h"
  1412                           PORTD equ 08h ;# 
  1413                           # 834 "/Applications/microchip/xc8/v1.12/include/pic16f707.h"
  1414                           PORTE equ 09h ;# 
  1415                           # 917 "/Applications/microchip/xc8/v1.12/include/pic16f707.h"
  1416                           PCLATH equ 0Ah ;# 
  1417                           # 936 "/Applications/microchip/xc8/v1.12/include/pic16f707.h"
  1418                           INTCON equ 0Bh ;# 
  1419                           # 1013 "/Applications/microchip/xc8/v1.12/include/pic16f707.h"
  1420                           PIR1 equ 0Ch ;# 
  1421                           # 1074 "/Applications/microchip/xc8/v1.12/include/pic16f707.h"
  1422                           PIR2 equ 0Dh ;# 
  1423                           # 1118 "/Applications/microchip/xc8/v1.12/include/pic16f707.h"
  1424                           TMR1 equ 0Eh ;# 
  1425                           # 1124 "/Applications/microchip/xc8/v1.12/include/pic16f707.h"
  1426                           TMR1L equ 0Eh ;# 
  1427                           # 1130 "/Applications/microchip/xc8/v1.12/include/pic16f707.h"
  1428                           TMR1H equ 0Fh ;# 
  1429                           # 1136 "/Applications/microchip/xc8/v1.12/include/pic16f707.h"
  1430                           T1CON equ 010h ;# 
  1431                           # 1214 "/Applications/microchip/xc8/v1.12/include/pic16f707.h"
  1432                           TMR2 equ 011h ;# 
  1433                           # 1220 "/Applications/microchip/xc8/v1.12/include/pic16f707.h"
  1434                           T2CON equ 012h ;# 
  1435                           # 1290 "/Applications/microchip/xc8/v1.12/include/pic16f707.h"
  1436                           SSPBUF equ 013h ;# 
  1437                           # 1296 "/Applications/microchip/xc8/v1.12/include/pic16f707.h"
  1438                           SSPCON equ 014h ;# 
  1439                           # 1365 "/Applications/microchip/xc8/v1.12/include/pic16f707.h"
  1440                           CCPR1 equ 015h ;# 
  1441                           # 1371 "/Applications/microchip/xc8/v1.12/include/pic16f707.h"
  1442                           CCPR1L equ 015h ;# 
  1443                           # 1377 "/Applications/microchip/xc8/v1.12/include/pic16f707.h"
  1444                           CCPR1H equ 016h ;# 
  1445                           # 1383 "/Applications/microchip/xc8/v1.12/include/pic16f707.h"
  1446                           CCP1CON equ 017h ;# 
  1447                           # 1446 "/Applications/microchip/xc8/v1.12/include/pic16f707.h"
  1448                           RCSTA equ 018h ;# 
  1449                           # 1507 "/Applications/microchip/xc8/v1.12/include/pic16f707.h"
  1450                           TXREG equ 019h ;# 
  1451                           # 1513 "/Applications/microchip/xc8/v1.12/include/pic16f707.h"
  1452                           RCREG equ 01Ah ;# 
  1453                           # 1519 "/Applications/microchip/xc8/v1.12/include/pic16f707.h"
  1454                           CCPR2 equ 01Bh ;# 
  1455                           # 1525 "/Applications/microchip/xc8/v1.12/include/pic16f707.h"
  1456                           CCPR2L equ 01Bh ;# 
  1457                           # 1531 "/Applications/microchip/xc8/v1.12/include/pic16f707.h"
  1458                           CCPR2H equ 01Ch ;# 
  1459                           # 1537 "/Applications/microchip/xc8/v1.12/include/pic16f707.h"
  1460                           CCP2CON equ 01Dh ;# 
  1461                           # 1600 "/Applications/microchip/xc8/v1.12/include/pic16f707.h"
  1462                           ADRES equ 01Eh ;# 
  1463                           # 1606 "/Applications/microchip/xc8/v1.12/include/pic16f707.h"
  1464                           ADCON0 equ 01Fh ;# 
  1465                           # 1664 "/Applications/microchip/xc8/v1.12/include/pic16f707.h"
  1466                           OPTION_REG equ 081h ;# 
  1467                           # 1746 "/Applications/microchip/xc8/v1.12/include/pic16f707.h"
  1468                           TRISA equ 085h ;# 
  1469                           # 1807 "/Applications/microchip/xc8/v1.12/include/pic16f707.h"
  1470                           TRISB equ 086h ;# 
  1471                           # 1868 "/Applications/microchip/xc8/v1.12/include/pic16f707.h"
  1472                           TRISC equ 087h ;# 
  1473                           # 1929 "/Applications/microchip/xc8/v1.12/include/pic16f707.h"
  1474                           TRISD equ 088h ;# 
  1475                           # 1990 "/Applications/microchip/xc8/v1.12/include/pic16f707.h"
  1476                           TRISE equ 089h ;# 
  1477                           # 2027 "/Applications/microchip/xc8/v1.12/include/pic16f707.h"
  1478                           PIE1 equ 08Ch ;# 
  1479                           # 2088 "/Applications/microchip/xc8/v1.12/include/pic16f707.h"
  1480                           PIE2 equ 08Dh ;# 
  1481                           # 2132 "/Applications/microchip/xc8/v1.12/include/pic16f707.h"
  1482                           PCON equ 08Eh ;# 
  1483                           # 2157 "/Applications/microchip/xc8/v1.12/include/pic16f707.h"
  1484                           T1GCON equ 08Fh ;# 
  1485                           # 2226 "/Applications/microchip/xc8/v1.12/include/pic16f707.h"
  1486                           OSCCON equ 090h ;# 
  1487                           # 2273 "/Applications/microchip/xc8/v1.12/include/pic16f707.h"
  1488                           OSCTUNE equ 091h ;# 
  1489                           # 2292 "/Applications/microchip/xc8/v1.12/include/pic16f707.h"
  1490                           PR2 equ 092h ;# 
  1491                           # 2298 "/Applications/microchip/xc8/v1.12/include/pic16f707.h"
  1492                           SSPADD equ 093h ;# 
  1493                           # 2317 "/Applications/microchip/xc8/v1.12/include/pic16f707.h"
  1494                           SSPMSK equ 093h ;# 
  1495                           # 2336 "/Applications/microchip/xc8/v1.12/include/pic16f707.h"
  1496                           SSPSTAT equ 094h ;# 
  1497                           # 2397 "/Applications/microchip/xc8/v1.12/include/pic16f707.h"
  1498                           WPUB equ 095h ;# 
  1499                           # 2458 "/Applications/microchip/xc8/v1.12/include/pic16f707.h"
  1500                           IOCB equ 096h ;# 
  1501                           # 2519 "/Applications/microchip/xc8/v1.12/include/pic16f707.h"
  1502                           T3CON equ 097h ;# 
  1503                           # 2585 "/Applications/microchip/xc8/v1.12/include/pic16f707.h"
  1504                           TXSTA equ 098h ;# 
  1505                           # 2641 "/Applications/microchip/xc8/v1.12/include/pic16f707.h"
  1506                           SPBRG equ 099h ;# 
  1507                           # 2647 "/Applications/microchip/xc8/v1.12/include/pic16f707.h"
  1508                           TMR3 equ 09Ah ;# 
  1509                           # 2653 "/Applications/microchip/xc8/v1.12/include/pic16f707.h"
  1510                           TMR3L equ 09Ah ;# 
  1511                           # 2659 "/Applications/microchip/xc8/v1.12/include/pic16f707.h"
  1512                           TMR3H equ 09Bh ;# 
  1513                           # 2665 "/Applications/microchip/xc8/v1.12/include/pic16f707.h"
  1514                           APFCON equ 09Ch ;# 
  1515                           # 2690 "/Applications/microchip/xc8/v1.12/include/pic16f707.h"
  1516                           FVRCON equ 09Dh ;# 
  1517                           # 2755 "/Applications/microchip/xc8/v1.12/include/pic16f707.h"
  1518                           T3GCON equ 09Eh ;# 
  1519                           # 2824 "/Applications/microchip/xc8/v1.12/include/pic16f707.h"
  1520                           ADCON1 equ 09Fh ;# 
  1521                           # 2883 "/Applications/microchip/xc8/v1.12/include/pic16f707.h"
  1522                           TACON equ 0105h ;# 
  1523                           # 2993 "/Applications/microchip/xc8/v1.12/include/pic16f707.h"
  1524                           CPSBCON0 equ 0106h ;# 
  1525                           # 3052 "/Applications/microchip/xc8/v1.12/include/pic16f707.h"
  1526                           CPSBCON1 equ 0107h ;# 
  1527                           # 3097 "/Applications/microchip/xc8/v1.12/include/pic16f707.h"
  1528                           CPSACON0 equ 0108h ;# 
  1529                           # 3156 "/Applications/microchip/xc8/v1.12/include/pic16f707.h"
  1530                           CPSACON1 equ 0109h ;# 
  1531                           # 3201 "/Applications/microchip/xc8/v1.12/include/pic16f707.h"
  1532                           PMDATL equ 010Ch ;# 
  1533                           # 3207 "/Applications/microchip/xc8/v1.12/include/pic16f707.h"
  1534                           PMADRL equ 010Dh ;# 
  1535                           # 3213 "/Applications/microchip/xc8/v1.12/include/pic16f707.h"
  1536                           PMDATH equ 010Eh ;# 
  1537                           # 3219 "/Applications/microchip/xc8/v1.12/include/pic16f707.h"
  1538                           PMADRH equ 010Fh ;# 
  1539                           # 3225 "/Applications/microchip/xc8/v1.12/include/pic16f707.h"
  1540                           TMRA equ 0110h ;# 
  1541                           # 3231 "/Applications/microchip/xc8/v1.12/include/pic16f707.h"
  1542                           TBCON equ 0111h ;# 
  1543                           # 3341 "/Applications/microchip/xc8/v1.12/include/pic16f707.h"
  1544                           TMRB equ 0112h ;# 
  1545                           # 3347 "/Applications/microchip/xc8/v1.12/include/pic16f707.h"
  1546                           DACCON0 equ 0113h ;# 
  1547                           # 3401 "/Applications/microchip/xc8/v1.12/include/pic16f707.h"
  1548                           DACCON1 equ 0114h ;# 
  1549                           # 3452 "/Applications/microchip/xc8/v1.12/include/pic16f707.h"
  1550                           ANSELA equ 0185h ;# 
  1551                           # 3521 "/Applications/microchip/xc8/v1.12/include/pic16f707.h"
  1552                           ANSELB equ 0186h ;# 
  1553                           # 3590 "/Applications/microchip/xc8/v1.12/include/pic16f707.h"
  1554                           ANSELC equ 0187h ;# 
  1555                           # 3648 "/Applications/microchip/xc8/v1.12/include/pic16f707.h"
  1556                           ANSELD equ 0188h ;# 
  1557                           # 3717 "/Applications/microchip/xc8/v1.12/include/pic16f707.h"
  1558                           ANSELE equ 0189h ;# 
  1559                           # 3756 "/Applications/microchip/xc8/v1.12/include/pic16f707.h"
  1560                           PMCON1 equ 018Ch ;# 
  1561                           # 46 "/Applications/microchip/xc8/v1.12/include/pic16f707.h"
  1562                           INDF equ 00h ;# 
  1563                           # 52 "/Applications/microchip/xc8/v1.12/include/pic16f707.h"
  1564                           TMR0 equ 01h ;# 
  1565                           # 58 "/Applications/microchip/xc8/v1.12/include/pic16f707.h"
  1566                           PCL equ 02h ;# 
  1567                           # 64 "/Applications/microchip/xc8/v1.12/include/pic16f707.h"
  1568                           STATUS equ 03h ;# 
  1569                           # 151 "/Applications/microchip/xc8/v1.12/include/pic16f707.h"
  1570                           FSR equ 04h ;# 
  1571                           # 157 "/Applications/microchip/xc8/v1.12/include/pic16f707.h"
  1572                           PORTA equ 05h ;# 
  1573                           # 346 "/Applications/microchip/xc8/v1.12/include/pic16f707.h"
  1574                           PORTB equ 06h ;# 
  1575                           # 520 "/Applications/microchip/xc8/v1.12/include/pic16f707.h"
  1576                           PORTC equ 07h ;# 
  1577                           # 715 "/Applications/microchip/xc8/v1.12/include/pic16f707.h"
  1578                           PORTD equ 08h ;# 
  1579                           # 834 "/Applications/microchip/xc8/v1.12/include/pic16f707.h"
  1580                           PORTE equ 09h ;# 
  1581                           # 917 "/Applications/microchip/xc8/v1.12/include/pic16f707.h"
  1582                           PCLATH equ 0Ah ;# 
  1583                           # 936 "/Applications/microchip/xc8/v1.12/include/pic16f707.h"
  1584                           INTCON equ 0Bh ;# 
  1585                           # 1013 "/Applications/microchip/xc8/v1.12/include/pic16f707.h"
  1586                           PIR1 equ 0Ch ;# 
  1587                           # 1074 "/Applications/microchip/xc8/v1.12/include/pic16f707.h"
  1588                           PIR2 equ 0Dh ;# 
  1589                           # 1118 "/Applications/microchip/xc8/v1.12/include/pic16f707.h"
  1590                           TMR1 equ 0Eh ;# 
  1591                           # 1124 "/Applications/microchip/xc8/v1.12/include/pic16f707.h"
  1592                           TMR1L equ 0Eh ;# 
  1593                           # 1130 "/Applications/microchip/xc8/v1.12/include/pic16f707.h"
  1594                           TMR1H equ 0Fh ;# 
  1595                           # 1136 "/Applications/microchip/xc8/v1.12/include/pic16f707.h"
  1596                           T1CON equ 010h ;# 
  1597                           # 1214 "/Applications/microchip/xc8/v1.12/include/pic16f707.h"
  1598                           TMR2 equ 011h ;# 
  1599                           # 1220 "/Applications/microchip/xc8/v1.12/include/pic16f707.h"
  1600                           T2CON equ 012h ;# 
  1601                           # 1290 "/Applications/microchip/xc8/v1.12/include/pic16f707.h"
  1602                           SSPBUF equ 013h ;# 
  1603                           # 1296 "/Applications/microchip/xc8/v1.12/include/pic16f707.h"
  1604                           SSPCON equ 014h ;# 
  1605                           # 1365 "/Applications/microchip/xc8/v1.12/include/pic16f707.h"
  1606                           CCPR1 equ 015h ;# 
  1607                           # 1371 "/Applications/microchip/xc8/v1.12/include/pic16f707.h"
  1608                           CCPR1L equ 015h ;# 
  1609                           # 1377 "/Applications/microchip/xc8/v1.12/include/pic16f707.h"
  1610                           CCPR1H equ 016h ;# 
  1611                           # 1383 "/Applications/microchip/xc8/v1.12/include/pic16f707.h"
  1612                           CCP1CON equ 017h ;# 
  1613                           # 1446 "/Applications/microchip/xc8/v1.12/include/pic16f707.h"
  1614                           RCSTA equ 018h ;# 
  1615                           # 1507 "/Applications/microchip/xc8/v1.12/include/pic16f707.h"
  1616                           TXREG equ 019h ;# 
  1617                           # 1513 "/Applications/microchip/xc8/v1.12/include/pic16f707.h"
  1618                           RCREG equ 01Ah ;# 
  1619                           # 1519 "/Applications/microchip/xc8/v1.12/include/pic16f707.h"
  1620                           CCPR2 equ 01Bh ;# 
  1621                           # 1525 "/Applications/microchip/xc8/v1.12/include/pic16f707.h"
  1622                           CCPR2L equ 01Bh ;# 
  1623                           # 1531 "/Applications/microchip/xc8/v1.12/include/pic16f707.h"
  1624                           CCPR2H equ 01Ch ;# 
  1625                           # 1537 "/Applications/microchip/xc8/v1.12/include/pic16f707.h"
  1626                           CCP2CON equ 01Dh ;# 
  1627                           # 1600 "/Applications/microchip/xc8/v1.12/include/pic16f707.h"
  1628                           ADRES equ 01Eh ;# 
  1629                           # 1606 "/Applications/microchip/xc8/v1.12/include/pic16f707.h"
  1630                           ADCON0 equ 01Fh ;# 
  1631                           # 1664 "/Applications/microchip/xc8/v1.12/include/pic16f707.h"
  1632                           OPTION_REG equ 081h ;# 
  1633                           # 1746 "/Applications/microchip/xc8/v1.12/include/pic16f707.h"
  1634                           TRISA equ 085h ;# 
  1635                           # 1807 "/Applications/microchip/xc8/v1.12/include/pic16f707.h"
  1636                           TRISB equ 086h ;# 
  1637                           # 1868 "/Applications/microchip/xc8/v1.12/include/pic16f707.h"
  1638                           TRISC equ 087h ;# 
  1639                           # 1929 "/Applications/microchip/xc8/v1.12/include/pic16f707.h"
  1640                           TRISD equ 088h ;# 
  1641                           # 1990 "/Applications/microchip/xc8/v1.12/include/pic16f707.h"
  1642                           TRISE equ 089h ;# 
  1643                           # 2027 "/Applications/microchip/xc8/v1.12/include/pic16f707.h"
  1644                           PIE1 equ 08Ch ;# 
  1645                           # 2088 "/Applications/microchip/xc8/v1.12/include/pic16f707.h"
  1646                           PIE2 equ 08Dh ;# 
  1647                           # 2132 "/Applications/microchip/xc8/v1.12/include/pic16f707.h"
  1648                           PCON equ 08Eh ;# 
  1649                           # 2157 "/Applications/microchip/xc8/v1.12/include/pic16f707.h"
  1650                           T1GCON equ 08Fh ;# 
  1651                           # 2226 "/Applications/microchip/xc8/v1.12/include/pic16f707.h"
  1652                           OSCCON equ 090h ;# 
  1653                           # 2273 "/Applications/microchip/xc8/v1.12/include/pic16f707.h"
  1654                           OSCTUNE equ 091h ;# 
  1655                           # 2292 "/Applications/microchip/xc8/v1.12/include/pic16f707.h"
  1656                           PR2 equ 092h ;# 
  1657                           # 2298 "/Applications/microchip/xc8/v1.12/include/pic16f707.h"
  1658                           SSPADD equ 093h ;# 
  1659                           # 2317 "/Applications/microchip/xc8/v1.12/include/pic16f707.h"
  1660                           SSPMSK equ 093h ;# 
  1661                           # 2336 "/Applications/microchip/xc8/v1.12/include/pic16f707.h"
  1662                           SSPSTAT equ 094h ;# 
  1663                           # 2397 "/Applications/microchip/xc8/v1.12/include/pic16f707.h"
  1664                           WPUB equ 095h ;# 
  1665                           # 2458 "/Applications/microchip/xc8/v1.12/include/pic16f707.h"
  1666                           IOCB equ 096h ;# 
  1667                           # 2519 "/Applications/microchip/xc8/v1.12/include/pic16f707.h"
  1668                           T3CON equ 097h ;# 
  1669                           # 2585 "/Applications/microchip/xc8/v1.12/include/pic16f707.h"
  1670                           TXSTA equ 098h ;# 
  1671                           # 2641 "/Applications/microchip/xc8/v1.12/include/pic16f707.h"
  1672                           SPBRG equ 099h ;# 
  1673                           # 2647 "/Applications/microchip/xc8/v1.12/include/pic16f707.h"
  1674                           TMR3 equ 09Ah ;# 
  1675                           # 2653 "/Applications/microchip/xc8/v1.12/include/pic16f707.h"
  1676                           TMR3L equ 09Ah ;# 
  1677                           # 2659 "/Applications/microchip/xc8/v1.12/include/pic16f707.h"
  1678                           TMR3H equ 09Bh ;# 
  1679                           # 2665 "/Applications/microchip/xc8/v1.12/include/pic16f707.h"
  1680                           APFCON equ 09Ch ;# 
  1681                           # 2690 "/Applications/microchip/xc8/v1.12/include/pic16f707.h"
  1682                           FVRCON equ 09Dh ;# 
  1683                           # 2755 "/Applications/microchip/xc8/v1.12/include/pic16f707.h"
  1684                           T3GCON equ 09Eh ;# 
  1685                           # 2824 "/Applications/microchip/xc8/v1.12/include/pic16f707.h"
  1686                           ADCON1 equ 09Fh ;# 
  1687                           # 2883 "/Applications/microchip/xc8/v1.12/include/pic16f707.h"
  1688                           TACON equ 0105h ;# 
  1689                           # 2993 "/Applications/microchip/xc8/v1.12/include/pic16f707.h"
  1690                           CPSBCON0 equ 0106h ;# 
  1691                           # 3052 "/Applications/microchip/xc8/v1.12/include/pic16f707.h"
  1692                           CPSBCON1 equ 0107h ;# 
  1693                           # 3097 "/Applications/microchip/xc8/v1.12/include/pic16f707.h"
  1694                           CPSACON0 equ 0108h ;# 
  1695                           # 3156 "/Applications/microchip/xc8/v1.12/include/pic16f707.h"
  1696                           CPSACON1 equ 0109h ;# 
  1697                           # 3201 "/Applications/microchip/xc8/v1.12/include/pic16f707.h"
  1698                           PMDATL equ 010Ch ;# 
  1699                           # 3207 "/Applications/microchip/xc8/v1.12/include/pic16f707.h"
  1700                           PMADRL equ 010Dh ;# 
  1701                           # 3213 "/Applications/microchip/xc8/v1.12/include/pic16f707.h"
  1702                           PMDATH equ 010Eh ;# 
  1703                           # 3219 "/Applications/microchip/xc8/v1.12/include/pic16f707.h"
  1704                           PMADRH equ 010Fh ;# 
  1705                           # 3225 "/Applications/microchip/xc8/v1.12/include/pic16f707.h"
  1706                           TMRA equ 0110h ;# 
  1707                           # 3231 "/Applications/microchip/xc8/v1.12/include/pic16f707.h"
  1708                           TBCON equ 0111h ;# 
  1709                           # 3341 "/Applications/microchip/xc8/v1.12/include/pic16f707.h"
  1710                           TMRB equ 0112h ;# 
  1711                           # 3347 "/Applications/microchip/xc8/v1.12/include/pic16f707.h"
  1712                           DACCON0 equ 0113h ;# 
  1713                           # 3401 "/Applications/microchip/xc8/v1.12/include/pic16f707.h"
  1714                           DACCON1 equ 0114h ;# 
  1715                           # 3452 "/Applications/microchip/xc8/v1.12/include/pic16f707.h"
  1716                           ANSELA equ 0185h ;# 
  1717                           # 3521 "/Applications/microchip/xc8/v1.12/include/pic16f707.h"
  1718                           ANSELB equ 0186h ;# 
  1719                           # 3590 "/Applications/microchip/xc8/v1.12/include/pic16f707.h"
  1720                           ANSELC equ 0187h ;# 
  1721                           # 3648 "/Applications/microchip/xc8/v1.12/include/pic16f707.h"
  1722                           ANSELD equ 0188h ;# 
  1723                           # 3717 "/Applications/microchip/xc8/v1.12/include/pic16f707.h"
  1724                           ANSELE equ 0189h ;# 
  1725                           # 3756 "/Applications/microchip/xc8/v1.12/include/pic16f707.h"
  1726                           PMCON1 equ 018Ch ;# 
  1727                           	FNCALL	_main,_spiInit
  1728                           	FNCALL	_main,_uartInit
  1729                           	FNCALL	_main,_adcInit
  1730                           	FNCALL	_main,_rfm70setPowerdownMode
  1731                           	FNCALL	_main,_adcReadVcap
  1732                           	FNCALL	_main,_printf
  1733                           	FNCALL	_main,_RFM70_Initialize
  1734                           	FNCALL	_main,_adcReadTemp
  1735                           	FNCALL	_main,___awdiv
  1736                           	FNCALL	_main,_Send_Packet
  1737                           	FNCALL	_Send_Packet,_SwitchToTxMode
  1738                           	FNCALL	_Send_Packet,_SPI_Read_Reg
  1739                           	FNCALL	_Send_Packet,_printf
  1740                           	FNCALL	_Send_Packet,_SPI_Write_Buf
  1741                           	FNCALL	_Send_Packet,_rfm70TxDataSentInterrupt
  1742                           	FNCALL	_Send_Packet,_SwitchToRxMode
  1743                           	FNCALL	_Send_Packet,_rfm70TxDataSentErrorInterrupt
  1744                           	FNCALL	_printf,_putch
  1745                           	FNCALL	_printf,___lwdiv
  1746                           	FNCALL	_printf,___lwmod
  1747  0325                     __pmaintext:	;psect for function _main
  1748                           opt subtitle "HI-TECH Software Omniscient Code Generator (Lite mode) build 49521"
  1749                           
  1750                           opt pagewidth 120
  1751                           
  1752  0228                     	__size_of_main	equ	__end_of_main-_main
  1753                           opt subtitle "HI-TECH Software Omniscient Code Generator (Lite mode) build 49521"
  1754  0325                     _main:	
  1755                           opt subtitle "HI-TECH Software Omniscient Code Generator (Lite mode) build 49521"
  1756                           
  1757                           opt pagewidth 120
  1758                           
  1759  0325                     l2995:	
  1760                           opt subtitle "HI-TECH Software Omniscient Code Generator (Lite mode) build 49521"
  1761  0325  3000               	movlw	0
  1762  0326  1683               	bsf	status, 5	;RP0=1, select bank3
  1763  0327  1703               	bsf	status, 6	;RP1=1, select bank3
  1764  0328  00B6               	movwf	(main@i+3)^0180h
  1765  0329  3000               	movlw	0
  1766  032A  00B5               	movwf	(main@i+2)^0180h
  1767  032B  3000               	movlw	0
  1768  032C  00B4               	movwf	(main@i+1)^0180h
  1769  032D  3000               	movlw	0
  1770  032E  00B3               	movwf	(main@i)^0180h
  1771                           opt subtitle "HI-TECH Software Omniscient Code Generator (Lite mode) build 49521"
  1772                           
  1773                           opt pagewidth 120
  1774  032F                     l2997:	
  1775                           opt subtitle "HI-TECH Software Omniscient Code Generator (Lite mode) build 49521"
  1776                           
  1777                           opt pagewidth 120
  1778                           
  1779                           	opt lm
  1780  032F  1683               	bsf	status, 5	;RP0=1, select bank1
  1781  0330  1303               	bcf	status, 6	;RP1=0, select bank1
  1782  0331  0810               	movf	(144)^080h,w	;volatile
  1783  0332  39CF               	andlw	not (((1<<2)-1)<<4)
  1784  0333  3820               	iorlw	(02h & ((1<<2)-1))<<4
  1785  0334  0090               	movwf	(144)^080h	;volatile
  1786                           opt subtitle "HI-TECH Software Omniscient Code Generator (Lite mode) build 49521"
  1787                           
  1788  0335                     l2999:	
  1789                           opt subtitle "HI-TECH Software Omniscient Code Generator (Lite mode) build 49521"
  1790  0335  1683               	bsf	status, 5	;RP0=1, select bank3
  1791  0336  1703               	bsf	status, 6	;RP1=1, select bank3
  1792  0337  1008               	bcf	(392)^0180h,0	;volatile
  1793                           opt subtitle "HI-TECH Software Omniscient Code Generator (Lite mode) build 49521"
  1794                           
  1795  0338                     l3001:	
  1796                           opt subtitle "HI-TECH Software Omniscient Code Generator (Lite mode) build 49521"
  1797  0338  1307               	bcf	(391)^0180h,6	;volatile
  1798                           opt subtitle "HI-TECH Software Omniscient Code Generator (Lite mode) build 49521"
  1799                           
  1800  0339                     l3003:	
  1801                           opt subtitle "HI-TECH Software Omniscient Code Generator (Lite mode) build 49521"
  1802  0339  1387               	bcf	(391)^0180h,7	;volatile
  1803                           opt subtitle "HI-TECH Software Omniscient Code Generator (Lite mode) build 49521"
  1804                           
  1805  033A                     l3005:	
  1806                           opt subtitle "HI-TECH Software Omniscient Code Generator (Lite mode) build 49521"
  1807  033A  1683               	bsf	status, 5	;RP0=1, select bank1
  1808  033B  1303               	bcf	status, 6	;RP1=0, select bank1
  1809  033C  1008               	bcf	(136)^080h,0	;volatile
  1810                           opt subtitle "HI-TECH Software Omniscient Code Generator (Lite mode) build 49521"
  1811                           
  1812  033D                     l3007:	
  1813                           opt subtitle "HI-TECH Software Omniscient Code Generator (Lite mode) build 49521"
  1814  033D  1283               	bcf	status, 5	;RP0=0, select bank0
  1815  033E  1303               	bcf	status, 6	;RP1=0, select bank0
  1816  033F  1008               	bcf	(8),0	;volatile
  1817                           opt subtitle "HI-TECH Software Omniscient Code Generator (Lite mode) build 49521"
  1818                           
  1819  0340                     l3009:	
  1820                           opt subtitle "HI-TECH Software Omniscient Code Generator (Lite mode) build 49521"
  1821  0340  1683               	bsf	status, 5	;RP0=1, select bank1
  1822  0341  1303               	bcf	status, 6	;RP1=0, select bank1
  1823  0342  1307               	bcf	(135)^080h,6	;volatile
  1824                           opt subtitle "HI-TECH Software Omniscient Code Generator (Lite mode) build 49521"
  1825                           
  1826  0343                     l3011:	
  1827                           opt subtitle "HI-TECH Software Omniscient Code Generator (Lite mode) build 49521"
  1828  0343  1683               	bsf	status, 5	;RP0=1, select bank3
  1829  0344  1703               	bsf	status, 6	;RP1=1, select bank3
  1830  0345  1107               	bcf	(391)^0180h,2	;volatile
  1831                           opt subtitle "HI-TECH Software Omniscient Code Generator (Lite mode) build 49521"
  1832                           
  1833  0346                     l3013:	
  1834                           opt subtitle "HI-TECH Software Omniscient Code Generator (Lite mode) build 49521"
  1835  0346  1108               	bcf	(392)^0180h,2	;volatile
  1836                           opt subtitle "HI-TECH Software Omniscient Code Generator (Lite mode) build 49521"
  1837                           
  1838  0347                     l3015:	
  1839                           opt subtitle "HI-TECH Software Omniscient Code Generator (Lite mode) build 49521"
  1840  0347  1287               	bcf	(391)^0180h,5	;volatile
  1841                           opt subtitle "HI-TECH Software Omniscient Code Generator (Lite mode) build 49521"
  1842                           
  1843  0348                     l3017:	
  1844                           opt subtitle "HI-TECH Software Omniscient Code Generator (Lite mode) build 49521"
  1845  0348  1088               	bcf	(392)^0180h,1	;volatile
  1846                           opt subtitle "HI-TECH Software Omniscient Code Generator (Lite mode) build 49521"
  1847                           
  1848  0349                     l3019:	
  1849                           opt subtitle "HI-TECH Software Omniscient Code Generator (Lite mode) build 49521"
  1850  0349  1683               	bsf	status, 5	;RP0=1, select bank1
  1851  034A  1303               	bcf	status, 6	;RP1=0, select bank1
  1852  034B  1509               	bsf	(137)^080h,2	;volatile
  1853                           opt subtitle "HI-TECH Software Omniscient Code Generator (Lite mode) build 49521"
  1854                           
  1855  034C                     l3021:	
  1856                           opt subtitle "HI-TECH Software Omniscient Code Generator (Lite mode) build 49521"
  1857  034C  1683               	bsf	status, 5	;RP0=1, select bank3
  1858  034D  1703               	bsf	status, 6	;RP1=1, select bank3
  1859  034E  1509               	bsf	(393)^0180h,2	;volatile
  1860                           opt subtitle "HI-TECH Software Omniscient Code Generator (Lite mode) build 49521"
  1861                           
  1862  034F                     l3023:	
  1863                           opt subtitle "HI-TECH Software Omniscient Code Generator (Lite mode) build 49521"
  1864  034F  1683               	bsf	status, 5	;RP0=1, select bank1
  1865  0350  1303               	bcf	status, 6	;RP1=0, select bank1
  1866  0351  1107               	bcf	(135)^080h,2	;volatile
  1867                           opt subtitle "HI-TECH Software Omniscient Code Generator (Lite mode) build 49521"
  1868                           
  1869  0352                     l3025:	
  1870                           opt subtitle "HI-TECH Software Omniscient Code Generator (Lite mode) build 49521"
  1871  0352  1108               	bcf	(136)^080h,2	;volatile
  1872                           opt subtitle "HI-TECH Software Omniscient Code Generator (Lite mode) build 49521"
  1873                           
  1874  0353                     l3027:	
  1875                           opt subtitle "HI-TECH Software Omniscient Code Generator (Lite mode) build 49521"
  1876  0353  1187               	bcf	(135)^080h,3	;volatile
  1877                           opt subtitle "HI-TECH Software Omniscient Code Generator (Lite mode) build 49521"
  1878                           
  1879  0354                     l3029:	
  1880                           opt subtitle "HI-TECH Software Omniscient Code Generator (Lite mode) build 49521"
  1881  0354  1287               	bcf	(135)^080h,5	;volatile
  1882                           opt subtitle "HI-TECH Software Omniscient Code Generator (Lite mode) build 49521"
  1883                           
  1884  0355                     l3031:	
  1885                           opt subtitle "HI-TECH Software Omniscient Code Generator (Lite mode) build 49521"
  1886  0355  1607               	bsf	(135)^080h,4	;volatile
  1887                           opt subtitle "HI-TECH Software Omniscient Code Generator (Lite mode) build 49521"
  1888                           
  1889  0356                     l3033:	
  1890                           opt subtitle "HI-TECH Software Omniscient Code Generator (Lite mode) build 49521"
  1891  0356  1488               	bsf	(136)^080h,1	;volatile
  1892                           opt subtitle "HI-TECH Software Omniscient Code Generator (Lite mode) build 49521"
  1893                           
  1894  0357                     l3035:	
  1895                           opt subtitle "HI-TECH Software Omniscient Code Generator (Lite mode) build 49521"
  1896  0357  1283               	bcf	status, 5	;RP0=0, select bank0
  1897  0358  1303               	bcf	status, 6	;RP1=0, select bank0
  1898  0359  1107               	bcf	(7),2	;volatile
  1899                           opt subtitle "HI-TECH Software Omniscient Code Generator (Lite mode) build 49521"
  1900                           
  1901  035A                     l3037:	
  1902                           opt subtitle "HI-TECH Software Omniscient Code Generator (Lite mode) build 49521"
  1903  035A  1508               	bsf	(8),2	;volatile
  1904                           opt subtitle "HI-TECH Software Omniscient Code Generator (Lite mode) build 49521"
  1905                           
  1906  035B                     l3039:	
  1907                           opt subtitle "HI-TECH Software Omniscient Code Generator (Lite mode) build 49521"
  1908  035B  1187               	bcf	(7),3	;volatile
  1909                           opt subtitle "HI-TECH Software Omniscient Code Generator (Lite mode) build 49521"
  1910                           
  1911  035C                     l3041:	
  1912                           opt subtitle "HI-TECH Software Omniscient Code Generator (Lite mode) build 49521"
  1913  035C  1287               	bcf	(7),5	;volatile
  1914                           opt subtitle "HI-TECH Software Omniscient Code Generator (Lite mode) build 49521"
  1915                           
  1916  035D                     l3043:	
  1917                           opt subtitle "HI-TECH Software Omniscient Code Generator (Lite mode) build 49521"
  1918  035D  1683               	bsf	status, 5	;RP0=1, select bank1
  1919  035E  1303               	bcf	status, 6	;RP1=0, select bank1
  1920  035F  1089               	bcf	(137)^080h,1	;volatile
  1921                           opt subtitle "HI-TECH Software Omniscient Code Generator (Lite mode) build 49521"
  1922                           
  1923  0360                     l3045:	
  1924                           opt subtitle "HI-TECH Software Omniscient Code Generator (Lite mode) build 49521"
  1925  0360  1683               	bsf	status, 5	;RP0=1, select bank3
  1926  0361  1703               	bsf	status, 6	;RP1=1, select bank3
  1927  0362  1089               	bcf	(393)^0180h,1	;volatile
  1928                           opt subtitle "HI-TECH Software Omniscient Code Generator (Lite mode) build 49521"
  1929                           
  1930  0363                     l3047:	
  1931                           opt subtitle "HI-TECH Software Omniscient Code Generator (Lite mode) build 49521"
  1932  0363  1683               	bsf	status, 5	;RP0=1, select bank1
  1933  0364  1303               	bcf	status, 6	;RP1=0, select bank1
  1934  0365  1509               	bsf	(137)^080h,2	;volatile
  1935                           opt subtitle "HI-TECH Software Omniscient Code Generator (Lite mode) build 49521"
  1936                           
  1937  0366                     l3049:	
  1938                           opt subtitle "HI-TECH Software Omniscient Code Generator (Lite mode) build 49521"
  1939  0366  1683               	bsf	status, 5	;RP0=1, select bank3
  1940  0367  1703               	bsf	status, 6	;RP1=1, select bank3
  1941  0368  1509               	bsf	(393)^0180h,2	;volatile
  1942                           opt subtitle "HI-TECH Software Omniscient Code Generator (Lite mode) build 49521"
  1943                           
  1944  0369                     l3051:	
  1945                           opt subtitle "HI-TECH Software Omniscient Code Generator (Lite mode) build 49521"
  1946  0369  1683               	bsf	status, 5	;RP0=1, select bank1
  1947  036A  1303               	bcf	status, 6	;RP1=0, select bank1
  1948  036B  1409               	bsf	(137)^080h,0	;volatile
  1949                           opt subtitle "HI-TECH Software Omniscient Code Generator (Lite mode) build 49521"
  1950                           
  1951  036C                     l3053:	
  1952                           opt subtitle "HI-TECH Software Omniscient Code Generator (Lite mode) build 49521"
  1953  036C  1683               	bsf	status, 5	;RP0=1, select bank3
  1954  036D  1703               	bsf	status, 6	;RP1=1, select bank3
  1955  036E  1009               	bcf	(393)^0180h,0	;volatile
  1956                           opt subtitle "HI-TECH Software Omniscient Code Generator (Lite mode) build 49521"
  1957                           
  1958  036F                     l3055:	
  1959                           opt subtitle "HI-TECH Software Omniscient Code Generator (Lite mode) build 49521"
  1960  036F  1683               	bsf	status, 5	;RP0=1, select bank1
  1961  0370  1303               	bcf	status, 6	;RP1=0, select bank1
  1962  0371  1409               	bsf	(137)^080h,0	;volatile
  1963                           opt subtitle "HI-TECH Software Omniscient Code Generator (Lite mode) build 49521"
  1964                           
  1965  0372                     l3057:	
  1966                           opt subtitle "HI-TECH Software Omniscient Code Generator (Lite mode) build 49521"
  1967  0372  1683               	bsf	status, 5	;RP0=1, select bank3
  1968  0373  1703               	bsf	status, 6	;RP1=1, select bank3
  1969  0374  1409               	bsf	(393)^0180h,0	;volatile
  1970                           opt subtitle "HI-TECH Software Omniscient Code Generator (Lite mode) build 49521"
  1971                           
  1972  0375                     l3059:	
  1973                           opt subtitle "HI-TECH Software Omniscient Code Generator (Lite mode) build 49521"
  1974  0375  1683               	bsf	status, 5	;RP0=1, select bank1
  1975  0376  1303               	bcf	status, 6	;RP1=0, select bank1
  1976  0377  1188               	bcf	(136)^080h,3	;volatile
  1977                           opt subtitle "HI-TECH Software Omniscient Code Generator (Lite mode) build 49521"
  1978                           
  1979  0378                     l3061:	
  1980                           opt subtitle "HI-TECH Software Omniscient Code Generator (Lite mode) build 49521"
  1981  0378  1283               	bcf	status, 5	;RP0=0, select bank0
  1982  0379  1303               	bcf	status, 6	;RP1=0, select bank0
  1983  037A  1188               	bcf	(8),3	;volatile
  1984                           opt subtitle "HI-TECH Software Omniscient Code Generator (Lite mode) build 49521"
  1985                           
  1986  037B                     l3063:	
  1987                           opt subtitle "HI-TECH Software Omniscient Code Generator (Lite mode) build 49521"
  1988  037B  178B               	bsf	(95/8),(95)&7	;volatile
  1989                           opt subtitle "HI-TECH Software Omniscient Code Generator (Lite mode) build 49521"
  1990                           
  1991  037C                     l3065:	
  1992                           opt subtitle "HI-TECH Software Omniscient Code Generator (Lite mode) build 49521"
  1993  037C  170B               	bsf	(94/8),(94)&7	;volatile
  1994                           opt subtitle "HI-TECH Software Omniscient Code Generator (Lite mode) build 49521"
  1995                           
  1996  037D                     l3067:	
  1997                           opt subtitle "HI-TECH Software Omniscient Code Generator (Lite mode) build 49521"
  1998  037D  1683               	bsf	status, 5	;RP0=1, select bank1
  1999  037E  1303               	bcf	status, 6	;RP1=0, select bank1
  2000  037F  140C               	bsf	(1120/8)^080h,(1120)&7	;volatile
  2001                           opt subtitle "HI-TECH Software Omniscient Code Generator (Lite mode) build 49521"
  2002                           
  2003  0380                     l3069:	
  2004                           opt subtitle "HI-TECH Software Omniscient Code Generator (Lite mode) build 49521"
  2005  0380  1283               	bcf	status, 5	;RP0=0, select bank0
  2006  0381  1303               	bcf	status, 6	;RP1=0, select bank0
  2007  0382  018F               	clrf	(15)	;volatile
  2008                           opt subtitle "HI-TECH Software Omniscient Code Generator (Lite mode) build 49521"
  2009                           
  2010  0383                     l3071:	
  2011                           opt subtitle "HI-TECH Software Omniscient Code Generator (Lite mode) build 49521"
  2012  0383  018E               	clrf	(14)	;volatile
  2013                           opt subtitle "HI-TECH Software Omniscient Code Generator (Lite mode) build 49521"
  2014                           
  2015  0384                     l3073:	
  2016                           opt subtitle "HI-TECH Software Omniscient Code Generator (Lite mode) build 49521"
  2017  0384  0810               	movf	(16),w	;volatile
  2018  0385  393F               	andlw	not (((1<<2)-1)<<6)
  2019  0386  3880               	iorlw	(02h & ((1<<2)-1))<<6
  2020  0387  0090               	movwf	(16)	;volatile
  2021                           opt subtitle "HI-TECH Software Omniscient Code Generator (Lite mode) build 49521"
  2022                           
  2023  0388                     l3075:	
  2024                           opt subtitle "HI-TECH Software Omniscient Code Generator (Lite mode) build 49521"
  2025  0388  3030               	movlw	(03h & ((1<<2)-1))<<4
  2026  0389  0490               	iorwf	(16),f	;volatile
  2027                           opt subtitle "HI-TECH Software Omniscient Code Generator (Lite mode) build 49521"
  2028                           
  2029  038A                     l3077:	
  2030                           opt subtitle "HI-TECH Software Omniscient Code Generator (Lite mode) build 49521"
  2031  038A  1683               	bsf	status, 5	;RP0=1, select bank1
  2032  038B  1303               	bcf	status, 6	;RP1=0, select bank1
  2033  038C  178F               	bsf	(143)^080h,7	;volatile
  2034                           opt subtitle "HI-TECH Software Omniscient Code Generator (Lite mode) build 49521"
  2035                           
  2036  038D                     l3079:	
  2037                           opt subtitle "HI-TECH Software Omniscient Code Generator (Lite mode) build 49521"
  2038  038D  1283               	bcf	status, 5	;RP0=0, select bank0
  2039  038E  1303               	bcf	status, 6	;RP1=0, select bank0
  2040  038F  1510               	bsf	(16),2	;volatile
  2041                           opt subtitle "HI-TECH Software Omniscient Code Generator (Lite mode) build 49521"
  2042                           
  2043  0390                     l3081:	
  2044                           opt subtitle "HI-TECH Software Omniscient Code Generator (Lite mode) build 49521"
  2045  0390  1590               	bsf	(16),3	;volatile
  2046                           opt subtitle "HI-TECH Software Omniscient Code Generator (Lite mode) build 49521"
  2047                           
  2048  0391                     l3083:	
  2049                           opt subtitle "HI-TECH Software Omniscient Code Generator (Lite mode) build 49521"
  2050  0391  1410               	bsf	(16),0	;volatile
  2051                           opt subtitle "HI-TECH Software Omniscient Code Generator (Lite mode) build 49521"
  2052                           
  2053  0392                     l3085:	
  2054                           opt subtitle "HI-TECH Software Omniscient Code Generator (Lite mode) build 49521"
  2055  0392  120A  158A  22BA   	fcall	_spiInit
              120A  118A         
  2056                           opt subtitle "HI-TECH Software Omniscient Code Generator (Lite mode) build 49521"
  2057                           
  2058  0397                     l3087:	
  2059                           opt subtitle "HI-TECH Software Omniscient Code Generator (Lite mode) build 49521"
  2060  0397  120A  158A  22A4   	fcall	_uartInit
              120A  118A         
  2061                           opt subtitle "HI-TECH Software Omniscient Code Generator (Lite mode) build 49521"
  2062                           
  2063  039C                     l3089:	
  2064                           opt subtitle "HI-TECH Software Omniscient Code Generator (Lite mode) build 49521"
  2065  039C  120A  158A  226C   	fcall	_adcInit
              120A  118A         
  2066                           opt subtitle "HI-TECH Software Omniscient Code Generator (Lite mode) build 49521"
  2067                           
  2068  03A1                     l3091:	
  2069                           opt subtitle "HI-TECH Software Omniscient Code Generator (Lite mode) build 49521"
  2070  03A1  3000               	movlw	(0)
  2071  03A2  120A  158A  2349   	fcall	_rfm70setPowerdownMode
              120A  118A         
  2072                           opt subtitle "HI-TECH Software Omniscient Code Generator (Lite mode) build 49521"
  2073                           
  2074  03A7  0063               sleep ;# 
  2075                           opt subtitle "HI-TECH Software Omniscient Code Generator (Lite mode) build 49521"
  2076                           
  2077  03A8  0063               sleep ;# 
  2078                           opt subtitle "HI-TECH Software Omniscient Code Generator (Lite mode) build 49521"
  2079                           
  2080                           opt pagewidth 120
  2081  03A9                     l3093:	
  2082                           opt subtitle "HI-TECH Software Omniscient Code Generator (Lite mode) build 49521"
  2083  03A9  120A  158A  23C2   	fcall	_adcReadVcap
              120A  118A         
  2084  03AE  1683               	bsf	status, 5	;RP0=1, select bank1
  2085  03AF  1303               	bcf	status, 6	;RP1=0, select bank1
  2086  03B0  00CA               	movwf	(??_main+0)^080h+0+0
  2087  03B1  01CB               	clrf	(??_main+0)^080h+0+1
  2088  03B2  084A               	movf	0+(??_main+0)^080h+0,w
  2089  03B3  1683               	bsf	status, 5	;RP0=1, select bank3
  2090  03B4  1703               	bsf	status, 6	;RP1=1, select bank3
  2091  03B5  00B1               	movwf	(main@value)^0180h
  2092  03B6  1683               	bsf	status, 5	;RP0=1, select bank1
  2093  03B7  1303               	bcf	status, 6	;RP1=0, select bank1
  2094  03B8  084B               	movf	1+(??_main+0)^080h+0,w
  2095  03B9  1683               	bsf	status, 5	;RP0=1, select bank3
  2096  03BA  1703               	bsf	status, 6	;RP1=1, select bank3
  2097  03BB  00B2               	movwf	(main@value+1)^0180h
  2098                           opt subtitle "HI-TECH Software Omniscient Code Generator (Lite mode) build 49521"
  2099                           
  2100  03BC  2BEB               	goto	l3099
  2101                           opt subtitle "HI-TECH Software Omniscient Code Generator (Lite mode) build 49521"
  2102  03BD                     l123:	
  2103                           opt subtitle "HI-TECH Software Omniscient Code Generator (Lite mode) build 49521"
  2104                           
  2105  03BD  0063               sleep ;# 
  2106                           opt subtitle "HI-TECH Software Omniscient Code Generator (Lite mode) build 49521"
  2107                           
  2108                           opt pagewidth 120
  2109  03BE                     l3095:	
  2110                           opt subtitle "HI-TECH Software Omniscient Code Generator (Lite mode) build 49521"
  2111  03BE  120A  158A  23C2   	fcall	_adcReadVcap
              120A  118A         
  2112  03C3  1683               	bsf	status, 5	;RP0=1, select bank1
  2113  03C4  1303               	bcf	status, 6	;RP1=0, select bank1
  2114  03C5  00CA               	movwf	(??_main+0)^080h+0+0
  2115  03C6  01CB               	clrf	(??_main+0)^080h+0+1
  2116  03C7  084A               	movf	0+(??_main+0)^080h+0,w
  2117  03C8  1683               	bsf	status, 5	;RP0=1, select bank3
  2118  03C9  1703               	bsf	status, 6	;RP1=1, select bank3
  2119  03CA  00B1               	movwf	(main@value)^0180h
  2120  03CB  1683               	bsf	status, 5	;RP0=1, select bank1
  2121  03CC  1303               	bcf	status, 6	;RP1=0, select bank1
  2122  03CD  084B               	movf	1+(??_main+0)^080h+0,w
  2123  03CE  1683               	bsf	status, 5	;RP0=1, select bank3
  2124  03CF  1703               	bsf	status, 6	;RP1=1, select bank3
  2125  03D0  00B2               	movwf	(main@value+1)^0180h
  2126                           opt subtitle "HI-TECH Software Omniscient Code Generator (Lite mode) build 49521"
  2127                           
  2128  03D1                     l3097:	
  2129                           opt subtitle "HI-TECH Software Omniscient Code Generator (Lite mode) build 49521"
  2130  03D1  30D5               	movlw	low(STR_2|8000h)
  2131  03D2  1283               	bcf	status, 5	;RP0=0, select bank0
  2132  03D3  1303               	bcf	status, 6	;RP1=0, select bank0
  2133  03D4  00C1               	movwf	(?_printf)
  2134  03D5  3090               	movlw	high(STR_2|8000h)
  2135  03D6  00C2               	movwf	((?_printf))+1
  2136  03D7  1683               	bsf	status, 5	;RP0=1, select bank3
  2137  03D8  1703               	bsf	status, 6	;RP1=1, select bank3
  2138  03D9  0832               	movf	(main@value+1)^0180h,w
  2139  03DA  1283               	bcf	status, 5	;RP0=0, select bank0
  2140  03DB  1303               	bcf	status, 6	;RP1=0, select bank0
  2141  03DC  01C4               	clrf	1+(?_printf)+02h
  2142  03DD  07C4               	addwf	1+(?_printf)+02h
  2143  03DE  1683               	bsf	status, 5	;RP0=1, select bank3
  2144  03DF  1703               	bsf	status, 6	;RP1=1, select bank3
  2145  03E0  0831               	movf	(main@value)^0180h,w
  2146  03E1  1283               	bcf	status, 5	;RP0=0, select bank0
  2147  03E2  1303               	bcf	status, 6	;RP1=0, select bank0
  2148  03E3  01C3               	clrf	0+(?_printf)+02h
  2149  03E4  07C3               	addwf	0+(?_printf)+02h
  2150                           opt subtitle "HI-TECH Software Omniscient Code Generator (Lite mode) build 49521"
  2151  03E5  120A  118A  254D   	fcall	_printf
              120A  118A         
  2152  03EA  2BEB               	goto	l3099
  2153                           opt subtitle "HI-TECH Software Omniscient Code Generator (Lite mode) build 49521"
  2154                           
  2155  03EB                     l122:	
  2156                           opt subtitle "HI-TECH Software Omniscient Code Generator (Lite mode) build 49521"
  2157                           
  2158  03EB                     l3099:	
  2159  03EB  1683               	bsf	status, 5	;RP0=1, select bank3
  2160  03EC  1703               	bsf	status, 6	;RP1=1, select bank3
  2161  03ED  0832               	movf	(main@value+1)^0180h,w
  2162  03EE  3A80               	xorlw	80h
  2163  03EF  00FF               	movwf	btemp+1
  2164  03F0  3080               	movlw	(high(078h))^80h
  2165  03F1  027F               	subwf	btemp+1,w
  2166  03F2  1D03               	skipz
  2167  03F3  2BF6               	goto	u2895
  2168  03F4  3078               	movlw	low(078h)
  2169  03F5  0231               	subwf	(main@value)^0180h,w
  2170  03F6                     u2895:
  2171                           opt subtitle "HI-TECH Software Omniscient Code Generator (Lite mode) build 49521"
  2172  03F6  1C03               	skipc
  2173  03F7  2BF9               	goto	u2891
  2174  03F8  2BFA               	goto	u2890
  2175  03F9                     u2891:
  2176  03F9  2BBD               	goto	l123
  2177  03FA                     u2890:
  2178  03FA  2BFB               	goto	l3101
  2179                           opt subtitle "HI-TECH Software Omniscient Code Generator (Lite mode) build 49521"
  2180  03FB                     l124:	
  2181                           opt subtitle "HI-TECH Software Omniscient Code Generator (Lite mode) build 49521"
  2182                           
  2183  03FB                     l3101:	
  2184                           opt subtitle "HI-TECH Software Omniscient Code Generator (Lite mode) build 49521"
  2185                           
  2186  03FB  30FF               	movlw	low(STR_3|8000h)
  2187  03FC  1283               	bcf	status, 5	;RP0=0, select bank0
  2188  03FD  1303               	bcf	status, 6	;RP1=0, select bank0
  2189  03FE  00C1               	movwf	(?_printf)
  2190  03FF  3090               	movlw	high(STR_3|8000h)
  2191  0400  00C2               	movwf	((?_printf))+1
  2192  0401  1683               	bsf	status, 5	;RP0=1, select bank3
  2193  0402  1703               	bsf	status, 6	;RP1=1, select bank3
  2194  0403  0832               	movf	(main@value+1)^0180h,w
  2195  0404  1283               	bcf	status, 5	;RP0=0, select bank0
  2196  0405  1303               	bcf	status, 6	;RP1=0, select bank0
  2197  0406  01C4               	clrf	1+(?_printf)+02h
  2198  0407  07C4               	addwf	1+(?_printf)+02h
  2199  0408  1683               	bsf	status, 5	;RP0=1, select bank3
  2200  0409  1703               	bsf	status, 6	;RP1=1, select bank3
  2201  040A  0831               	movf	(main@value)^0180h,w
  2202  040B  1283               	bcf	status, 5	;RP0=0, select bank0
  2203  040C  1303               	bcf	status, 6	;RP1=0, select bank0
  2204  040D  01C3               	clrf	0+(?_printf)+02h
  2205  040E  07C3               	addwf	0+(?_printf)+02h
  2206                           opt subtitle "HI-TECH Software Omniscient Code Generator (Lite mode) build 49521"
  2207  040F  120A  118A  254D   	fcall	_printf
              120A  118A         
  2208                           opt subtitle "HI-TECH Software Omniscient Code Generator (Lite mode) build 49521"
  2209                           
  2210  0414                     l3103:	
  2211                           opt subtitle "HI-TECH Software Omniscient Code Generator (Lite mode) build 49521"
  2212  0414  120A  118A  2015   	fcall	_RFM70_Initialize
              120A  118A         
  2213                           opt subtitle "HI-TECH Software Omniscient Code Generator (Lite mode) build 49521"
  2214                           
  2215  0419                     l3105:	
  2216                           opt subtitle "HI-TECH Software Omniscient Code Generator (Lite mode) build 49521"
  2217  0419  3000               	movlw	(0)
  2218  041A  120A  158A  2349   	fcall	_rfm70setPowerdownMode
              120A  118A         
  2219                           opt subtitle "HI-TECH Software Omniscient Code Generator (Lite mode) build 49521"
  2220                           
  2221  041F  0063               sleep ;# 
  2222                           opt subtitle "HI-TECH Software Omniscient Code Generator (Lite mode) build 49521"
  2223                           
  2224                           opt pagewidth 120
  2225  0420                     l3107:	
  2226                           opt subtitle "HI-TECH Software Omniscient Code Generator (Lite mode) build 49521"
  2227  0420  1283               	bcf	status, 5	;RP0=0, select bank0
  2228  0421  1303               	bcf	status, 6	;RP1=0, select bank0
  2229  0422  01D3               	clrf	(_timelapse_count)
  2230  0423  01D4               	clrf	(_timelapse_count+1)
  2231  0424  2C25               	goto	l3109
  2232                           opt subtitle "HI-TECH Software Omniscient Code Generator (Lite mode) build 49521"
  2233                           
  2234                           opt pagewidth 120
  2235  0425                     l125:	
  2236                           opt subtitle "HI-TECH Software Omniscient Code Generator (Lite mode) build 49521"
  2237                           
  2238  0425                     l3109:	
  2239                           opt subtitle "HI-TECH Software Omniscient Code Generator (Lite mode) build 49521"
  2240  0425  3001               	movlw	(01h)
  2241  0426  120A  158A  2349   	fcall	_rfm70setPowerdownMode
              120A  118A         
  2242                           opt subtitle "HI-TECH Software Omniscient Code Generator (Lite mode) build 49521"
  2243                           
  2244  042B                     l3111:	
  2245                           opt subtitle "HI-TECH Software Omniscient Code Generator (Lite mode) build 49521"
  2246  042B  3000               	movlw	0
  2247  042C  1683               	bsf	status, 5	;RP0=1, select bank3
  2248  042D  1703               	bsf	status, 6	;RP1=1, select bank3
  2249  042E  00B6               	movwf	(main@i+3)^0180h
  2250  042F  3000               	movlw	0
  2251  0430  00B5               	movwf	(main@i+2)^0180h
  2252  0431  3000               	movlw	0
  2253  0432  00B4               	movwf	(main@i+1)^0180h
  2254  0433  3000               	movlw	0
  2255  0434  00B3               	movwf	(main@i)^0180h
  2256                           opt subtitle "HI-TECH Software Omniscient Code Generator (Lite mode) build 49521"
  2257                           
  2258  0435                     l3113:	
  2259  0435  0836               	movf	(main@i+3)^0180h,w
  2260  0436  3A80               	xorlw	80h
  2261  0437  00FF               	movwf	btemp+1
  2262  0438  3000               	movlw	0
  2263  0439  3A80               	xorlw	80h
  2264  043A  027F               	subwf	btemp+1,w
  2265                           opt subtitle "HI-TECH Software Omniscient Code Generator (Lite mode) build 49521"
  2266  043B  1D03               	skipz
  2267  043C  2C47               	goto	u2903
  2268  043D  3000               	movlw	0
  2269  043E  0235               	subwf	(main@i+2)^0180h,w
  2270  043F  1D03               	skipz
  2271  0440  2C47               	goto	u2903
  2272  0441  3000               	movlw	0
  2273  0442  0234               	subwf	(main@i+1)^0180h,w
  2274  0443  1D03               	skipz
  2275  0444  2C47               	goto	u2903
  2276  0445  3002               	movlw	02h
  2277  0446  0233               	subwf	(main@i)^0180h,w
  2278  0447                     u2903:
  2279  0447  1C03               	skipc
  2280  0448  2C4A               	goto	u2901
  2281  0449  2C4B               	goto	u2900
  2282  044A                     u2901:
  2283  044A  2C4D               	goto	l3117
  2284  044B                     u2900:
  2285  044B  2C86               	goto	l3123
  2286                           opt subtitle "HI-TECH Software Omniscient Code Generator (Lite mode) build 49521"
  2287  044C                     l3115:	
  2288  044C  2C86               	goto	l3123
  2289                           opt subtitle "HI-TECH Software Omniscient Code Generator (Lite mode) build 49521"
  2290  044D                     l126:	
  2291                           opt subtitle "HI-TECH Software Omniscient Code Generator (Lite mode) build 49521"
  2292                           
  2293  044D                     l3117:	
  2294                           opt subtitle "HI-TECH Software Omniscient Code Generator (Lite mode) build 49521"
  2295  044D  0833               	movf	(main@i)^0180h,w
  2296  044E  3E56               	addlw	_tx_buf&0ffh
  2297  044F  0084               	movwf	fsr0
  2298  0450  1383               	bcf	status, 7	;select IRP bank0
  2299  0451  0800               	movf	indf,w
  2300  0452  1683               	bsf	status, 5	;RP0=1, select bank1
  2301  0453  1303               	bcf	status, 6	;RP1=0, select bank1
  2302  0454  00CA               	movwf	(??_main+0)^080h+0
  2303  0455  1683               	bsf	status, 5	;RP0=1, select bank3
  2304  0456  1703               	bsf	status, 6	;RP1=1, select bank3
  2305  0457  0833               	movf	(main@i)^0180h,w
  2306  0458  3E90               	addlw	main@temp_tx_buf&0ffh
  2307  0459  0084               	movwf	fsr0
  2308  045A  1683               	bsf	status, 5	;RP0=1, select bank1
  2309  045B  1303               	bcf	status, 6	;RP1=0, select bank1
  2310  045C  084A               	movf	(??_main+0)^080h+0,w
  2311  045D  1783               	bsf	status, 7	;select IRP bank3
  2312  045E  0080               	movwf	indf
  2313                           opt subtitle "HI-TECH Software Omniscient Code Generator (Lite mode) build 49521"
  2314                           
  2315  045F                     l3119:	
  2316  045F  3001               	movlw	01h
  2317  0460  1683               	bsf	status, 5	;RP0=1, select bank3
  2318  0461  1703               	bsf	status, 6	;RP1=1, select bank3
  2319  0462  07B3               	addwf	(main@i)^0180h,f
  2320  0463  3000               	movlw	0
  2321  0464  1803               	skipnc
  2322  0465  3001               movlw 1
  2323  0466  07B4               	addwf	(main@i+1)^0180h,f
  2324  0467  3000               	movlw	0
  2325  0468  1803               	skipnc
  2326  0469  3001               movlw 1
  2327  046A  07B5               	addwf	(main@i+2)^0180h,f
  2328  046B  3000               	movlw	0
  2329  046C  1803               	skipnc
  2330  046D  3001               movlw 1
  2331  046E  07B6               	addwf	(main@i+3)^0180h,f
  2332                           opt subtitle "HI-TECH Software Omniscient Code Generator (Lite mode) build 49521"
  2333  046F                     l3121:	
  2334  046F  0836               	movf	(main@i+3)^0180h,w
  2335  0470  3A80               	xorlw	80h
  2336  0471  00FF               	movwf	btemp+1
  2337  0472  3000               	movlw	0
  2338  0473  3A80               	xorlw	80h
  2339  0474  027F               	subwf	btemp+1,w
  2340                           opt subtitle "HI-TECH Software Omniscient Code Generator (Lite mode) build 49521"
  2341  0475  1D03               	skipz
  2342  0476  2C81               	goto	u2913
  2343  0477  3000               	movlw	0
  2344  0478  0235               	subwf	(main@i+2)^0180h,w
  2345  0479  1D03               	skipz
  2346  047A  2C81               	goto	u2913
  2347  047B  3000               	movlw	0
  2348  047C  0234               	subwf	(main@i+1)^0180h,w
  2349  047D  1D03               	skipz
  2350  047E  2C81               	goto	u2913
  2351  047F  3002               	movlw	02h
  2352  0480  0233               	subwf	(main@i)^0180h,w
  2353  0481                     u2913:
  2354  0481  1C03               	skipc
  2355  0482  2C84               	goto	u2911
  2356  0483  2C85               	goto	u2910
  2357  0484                     u2911:
  2358  0484  2C4D               	goto	l3117
  2359  0485                     u2910:
  2360  0485  2C86               	goto	l3123
  2361                           opt subtitle "HI-TECH Software Omniscient Code Generator (Lite mode) build 49521"
  2362  0486                     l127:	
  2363                           opt subtitle "HI-TECH Software Omniscient Code Generator (Lite mode) build 49521"
  2364                           
  2365  0486                     l3123:	
  2366                           opt subtitle "HI-TECH Software Omniscient Code Generator (Lite mode) build 49521"
  2367                           
  2368  0486  120A  158A  23ED   	fcall	_adcReadTemp
              120A  118A         
  2369  048B  1683               	bsf	status, 5	;RP0=1, select bank1
  2370  048C  1303               	bcf	status, 6	;RP1=0, select bank1
  2371  048D  00CA               	movwf	(??_main+0)^080h+0
  2372  048E  084A               	movf	(??_main+0)^080h+0,w
  2373  048F  1283               	bcf	status, 5	;RP0=0, select bank0
  2374  0490  1303               	bcf	status, 6	;RP1=0, select bank0
  2375  0491  00D6               	movwf	(_tx_buf)
  2376                           opt subtitle "HI-TECH Software Omniscient Code Generator (Lite mode) build 49521"
  2377                           
  2378  0492  120A  158A  23C2   	fcall	_adcReadVcap
              120A  118A         
  2379  0497  1683               	bsf	status, 5	;RP0=1, select bank1
  2380  0498  1303               	bcf	status, 6	;RP1=0, select bank1
  2381  0499  00CA               	movwf	(??_main+0)^080h+0
  2382  049A  084A               	movf	(??_main+0)^080h+0,w
  2383  049B  1283               	bcf	status, 5	;RP0=0, select bank0
  2384  049C  1303               	bcf	status, 6	;RP1=0, select bank0
  2385  049D  00D7               	movwf	0+(_tx_buf)+01h
  2386                           opt subtitle "HI-TECH Software Omniscient Code Generator (Lite mode) build 49521"
  2387                           
  2388  049E  3002               	movlw	low(02h)
  2389  049F  00B3               	movwf	(?___awdiv)
  2390  04A0  3000               	movlw	high(02h)
  2391  04A1  00B4               	movwf	((?___awdiv))+1
  2392  04A2  0854               	movf	(_timelapse_count+1),w
  2393  04A3  01B6               	clrf	1+(?___awdiv)+02h
  2394  04A4  07B6               	addwf	1+(?___awdiv)+02h
  2395  04A5  0853               	movf	(_timelapse_count),w
  2396  04A6  01B5               	clrf	0+(?___awdiv)+02h
  2397  04A7  07B5               	addwf	0+(?___awdiv)+02h
  2398                           opt subtitle "HI-TECH Software Omniscient Code Generator (Lite mode) build 49521"
  2399  04A8  120A  158A  25DE   	fcall	___awdiv
              120A  118A         
  2400  04AD  1283               	bcf	status, 5	;RP0=0, select bank0
  2401  04AE  1303               	bcf	status, 6	;RP1=0, select bank0
  2402  04AF  0833               	movf	(0+(?___awdiv)),w
  2403  04B0  1683               	bsf	status, 5	;RP0=1, select bank1
  2404  04B1  1303               	bcf	status, 6	;RP1=0, select bank1
  2405  04B2  00CA               	movwf	(??_main+0)^080h+0
  2406  04B3  084A               	movf	(??_main+0)^080h+0,w
  2407  04B4  1283               	bcf	status, 5	;RP0=0, select bank0
  2408  04B5  1303               	bcf	status, 6	;RP1=0, select bank0
  2409  04B6  00D8               	movwf	0+(_tx_buf)+02h
  2410                           opt subtitle "HI-TECH Software Omniscient Code Generator (Lite mode) build 49521"
  2411                           
  2412  04B7  3002               	movlw	low(02h)
  2413  04B8  00B3               	movwf	(?___awdiv)
  2414  04B9  3000               	movlw	high(02h)
  2415  04BA  00B4               	movwf	((?___awdiv))+1
  2416  04BB  0854               	movf	(_timelapse_count+1),w
  2417  04BC  01B6               	clrf	1+(?___awdiv)+02h
  2418  04BD  07B6               	addwf	1+(?___awdiv)+02h
  2419  04BE  0853               	movf	(_timelapse_count),w
  2420  04BF  01B5               	clrf	0+(?___awdiv)+02h
  2421  04C0  07B5               	addwf	0+(?___awdiv)+02h
  2422                           opt subtitle "HI-TECH Software Omniscient Code Generator (Lite mode) build 49521"
  2423  04C1  120A  158A  25DE   	fcall	___awdiv
              120A  118A         
  2424  04C6  1283               	bcf	status, 5	;RP0=0, select bank0
  2425  04C7  1303               	bcf	status, 6	;RP1=0, select bank0
  2426  04C8  0834               	movf	(1+(?___awdiv)),w
  2427  04C9  1683               	bsf	status, 5	;RP0=1, select bank1
  2428  04CA  1303               	bcf	status, 6	;RP1=0, select bank1
  2429  04CB  00CA               	movwf	(??_main+0)^080h+0
  2430  04CC  084A               	movf	(??_main+0)^080h+0,w
  2431  04CD  1283               	bcf	status, 5	;RP0=0, select bank0
  2432  04CE  1303               	bcf	status, 6	;RP1=0, select bank0
  2433  04CF  00D9               	movwf	0+(_tx_buf)+03h
  2434                           opt subtitle "HI-TECH Software Omniscient Code Generator (Lite mode) build 49521"
  2435                           
  2436  04D0                     l3125:	
  2437                           opt subtitle "HI-TECH Software Omniscient Code Generator (Lite mode) build 49521"
  2438  04D0  3079               	movlw	(079h)
  2439  04D1  0257               	subwf	0+(_tx_buf)+01h,w
  2440  04D2  1C03               	skipc
  2441  04D3  2CD5               	goto	u2921
  2442  04D4  2CD6               	goto	u2920
  2443  04D5                     u2921:
  2444  04D5  2CED               	goto	l3129
  2445  04D6                     u2920:
  2446                           opt subtitle "HI-TECH Software Omniscient Code Generator (Lite mode) build 49521"
  2447                           
  2448  04D6                     l3127:	
  2449                           opt subtitle "HI-TECH Software Omniscient Code Generator (Lite mode) build 49521"
  2450  04D6  3056               	movlw	(_tx_buf)&0ffh
  2451  04D7  1683               	bsf	status, 5	;RP0=1, select bank1
  2452  04D8  1303               	bcf	status, 6	;RP1=0, select bank1
  2453  04D9  00CA               	movwf	(??_main+0)^080h+0
  2454  04DA  084A               	movf	(??_main+0)^080h+0,w
  2455  04DB  1283               	bcf	status, 5	;RP0=0, select bank0
  2456  04DC  1303               	bcf	status, 6	;RP1=0, select bank0
  2457  04DD  00D1               	movwf	(?_Send_Packet)
  2458  04DE  3004               	movlw	(04h)
  2459  04DF  1683               	bsf	status, 5	;RP0=1, select bank1
  2460  04E0  1303               	bcf	status, 6	;RP1=0, select bank1
  2461  04E1  00CB               	movwf	(??_main+1)^080h+0
  2462  04E2  084B               	movf	(??_main+1)^080h+0,w
  2463  04E3  1283               	bcf	status, 5	;RP0=0, select bank0
  2464  04E4  1303               	bcf	status, 6	;RP1=0, select bank0
  2465  04E5  00D2               	movwf	0+(?_Send_Packet)+01h
  2466  04E6  30B0               	movlw	(0B0h)
  2467  04E7  120A  118A  26FD   	fcall	_Send_Packet
              120A  118A         
  2468                           opt subtitle "HI-TECH Software Omniscient Code Generator (Lite mode) build 49521"
  2469                           
  2470  04EC  2D08               	goto	l3131
  2471                           opt subtitle "HI-TECH Software Omniscient Code Generator (Lite mode) build 49521"
  2472                           
  2473  04ED                     l128:	
  2474                           opt subtitle "HI-TECH Software Omniscient Code Generator (Lite mode) build 49521"
  2475                           
  2476  04ED                     l3129:	
  2477                           opt subtitle "HI-TECH Software Omniscient Code Generator (Lite mode) build 49521"
  2478                           
  2479  04ED  30A3               	movlw	low(STR_4|8000h)
  2480  04EE  1283               	bcf	status, 5	;RP0=0, select bank0
  2481  04EF  1303               	bcf	status, 6	;RP1=0, select bank0
  2482  04F0  00C1               	movwf	(?_printf)
  2483  04F1  3090               	movlw	high(STR_4|8000h)
  2484  04F2  00C2               	movwf	((?_printf))+1
  2485  04F3  0857               	movf	0+(_tx_buf)+01h,w
  2486  04F4  1683               	bsf	status, 5	;RP0=1, select bank1
  2487  04F5  1303               	bcf	status, 6	;RP1=0, select bank1
  2488  04F6  00CA               	movwf	(??_main+0)^080h+0+0
  2489  04F7  01CB               	clrf	(??_main+0)^080h+0+1
  2490  04F8  084A               	movf	0+(??_main+0)^080h+0,w
  2491  04F9  1283               	bcf	status, 5	;RP0=0, select bank0
  2492  04FA  1303               	bcf	status, 6	;RP1=0, select bank0
  2493  04FB  00C3               	movwf	0+(?_printf)+02h
  2494  04FC  1683               	bsf	status, 5	;RP0=1, select bank1
  2495  04FD  1303               	bcf	status, 6	;RP1=0, select bank1
  2496  04FE  084B               	movf	1+(??_main+0)^080h+0,w
  2497  04FF  1283               	bcf	status, 5	;RP0=0, select bank0
  2498  0500  1303               	bcf	status, 6	;RP1=0, select bank0
  2499  0501  00C4               	movwf	1+(?_printf)+02h
  2500  0502  120A  118A  254D   	fcall	_printf
              120A  118A         
  2501  0507  2D08               	goto	l3131
  2502                           opt subtitle "HI-TECH Software Omniscient Code Generator (Lite mode) build 49521"
  2503  0508                     l129:	
  2504                           opt subtitle "HI-TECH Software Omniscient Code Generator (Lite mode) build 49521"
  2505                           
  2506  0508                     l3131:	
  2507                           opt subtitle "HI-TECH Software Omniscient Code Generator (Lite mode) build 49521"
  2508  0508  1283               	bcf	status, 5	;RP0=0, select bank0
  2509  0509  1303               	bcf	status, 6	;RP1=0, select bank0
  2510  050A  1107               	bcf	(7),2	;volatile
  2511                           opt subtitle "HI-TECH Software Omniscient Code Generator (Lite mode) build 49521"
  2512                           
  2513  050B                     l3133:	
  2514                           opt subtitle "HI-TECH Software Omniscient Code Generator (Lite mode) build 49521"
  2515  050B  3000               	movlw	(0)
  2516  050C  120A  158A  2349   	fcall	_rfm70setPowerdownMode
              120A  118A         
  2517                           opt subtitle "HI-TECH Software Omniscient Code Generator (Lite mode) build 49521"
  2518                           
  2519  0511                     l3135:	
  2520                           opt subtitle "HI-TECH Software Omniscient Code Generator (Lite mode) build 49521"
  2521  0511  1283               	bcf	status, 5	;RP0=0, select bank0
  2522  0512  1303               	bcf	status, 6	;RP1=0, select bank0
  2523  0513  1010               	bcf	(16),0	;volatile
  2524                           opt subtitle "HI-TECH Software Omniscient Code Generator (Lite mode) build 49521"
  2525                           
  2526  0514                     l3137:	
  2527                           opt subtitle "HI-TECH Software Omniscient Code Generator (Lite mode) build 49521"
  2528  0514  018F               	clrf	(15)	;volatile
  2529                           opt subtitle "HI-TECH Software Omniscient Code Generator (Lite mode) build 49521"
  2530                           
  2531  0515                     l3139:	
  2532                           opt subtitle "HI-TECH Software Omniscient Code Generator (Lite mode) build 49521"
  2533  0515  018E               	clrf	(14)	;volatile
  2534                           opt subtitle "HI-TECH Software Omniscient Code Generator (Lite mode) build 49521"
  2535                           
  2536  0516                     l3141:	
  2537                           opt subtitle "HI-TECH Software Omniscient Code Generator (Lite mode) build 49521"
  2538  0516  1410               	bsf	(16),0	;volatile
  2539                           opt subtitle "HI-TECH Software Omniscient Code Generator (Lite mode) build 49521"
  2540                           
  2541  0517                     l3143:	
  2542                           opt subtitle "HI-TECH Software Omniscient Code Generator (Lite mode) build 49521"
  2543  0517  1683               	bsf	status, 5	;RP0=1, select bank3
  2544  0518  1703               	bsf	status, 6	;RP1=1, select bank3
  2545  0519  01B0               	clrf	(main@num_sleep)^0180h
  2546                           opt subtitle "HI-TECH Software Omniscient Code Generator (Lite mode) build 49521"
  2547                           
  2548  051A  2D39               	goto	l3147
  2549                           opt subtitle "HI-TECH Software Omniscient Code Generator (Lite mode) build 49521"
  2550  051B                     l131:	
  2551                           opt subtitle "HI-TECH Software Omniscient Code Generator (Lite mode) build 49521"
  2552                           
  2553  051B  0063               sleep ;# 
  2554                           opt subtitle "HI-TECH Software Omniscient Code Generator (Lite mode) build 49521"
  2555                           
  2556                           opt pagewidth 120
  2557  051C                     l3145:	
  2558                           opt subtitle "HI-TECH Software Omniscient Code Generator (Lite mode) build 49521"
  2559  051C  3033               	movlw	low(STR_5|8000h)
  2560  051D  1283               	bcf	status, 5	;RP0=0, select bank0
  2561  051E  1303               	bcf	status, 6	;RP1=0, select bank0
  2562  051F  00C1               	movwf	(?_printf)
  2563  0520  3091               	movlw	high(STR_5|8000h)
  2564  0521  00C2               	movwf	((?_printf))+1
  2565  0522  1683               	bsf	status, 5	;RP0=1, select bank3
  2566  0523  1703               	bsf	status, 6	;RP1=1, select bank3
  2567  0524  0830               	movf	(main@num_sleep)^0180h,w
  2568  0525  1683               	bsf	status, 5	;RP0=1, select bank1
  2569  0526  1303               	bcf	status, 6	;RP1=0, select bank1
  2570  0527  00CA               	movwf	(??_main+0)^080h+0+0
  2571  0528  01CB               	clrf	(??_main+0)^080h+0+1
  2572  0529  084A               	movf	0+(??_main+0)^080h+0,w
  2573  052A  1283               	bcf	status, 5	;RP0=0, select bank0
  2574  052B  1303               	bcf	status, 6	;RP1=0, select bank0
  2575  052C  00C3               	movwf	0+(?_printf)+02h
  2576  052D  1683               	bsf	status, 5	;RP0=1, select bank1
  2577  052E  1303               	bcf	status, 6	;RP1=0, select bank1
  2578  052F  084B               	movf	1+(??_main+0)^080h+0,w
  2579  0530  1283               	bcf	status, 5	;RP0=0, select bank0
  2580  0531  1303               	bcf	status, 6	;RP1=0, select bank0
  2581  0532  00C4               	movwf	1+(?_printf)+02h
  2582  0533  120A  118A  254D   	fcall	_printf
              120A  118A         
  2583  0538  2D39               	goto	l3147
  2584                           opt subtitle "HI-TECH Software Omniscient Code Generator (Lite mode) build 49521"
  2585                           
  2586  0539                     l130:	
  2587                           opt subtitle "HI-TECH Software Omniscient Code Generator (Lite mode) build 49521"
  2588                           
  2589  0539                     l3147:	
  2590  0539  3001               	movlw	(01h)
  2591  053A  1683               	bsf	status, 5	;RP0=1, select bank1
  2592  053B  1303               	bcf	status, 6	;RP1=0, select bank1
  2593  053C  00CA               	movwf	(??_main+0)^080h+0
  2594  053D  084A               	movf	(??_main+0)^080h+0,w
  2595  053E  1683               	bsf	status, 5	;RP0=1, select bank3
  2596  053F  1703               	bsf	status, 6	;RP1=1, select bank3
  2597  0540  07B0               	addwf	(main@num_sleep)^0180h,f
  2598  0541  3003               	movlw	(03h)
  2599  0542  0230               	subwf	((main@num_sleep)^0180h),w
  2600  0543  1C03               	skipc
  2601  0544  2D46               	goto	u2931
  2602  0545  2D47               	goto	u2930
  2603  0546                     u2931:
  2604  0546  2D1B               	goto	l131
  2605  0547                     u2930:
  2606  0547  2C25               	goto	l3109
  2607                           opt subtitle "HI-TECH Software Omniscient Code Generator (Lite mode) build 49521"
  2608  0548                     l132:	
  2609  0548  2C25               	goto	l3109
  2610                           opt subtitle "HI-TECH Software Omniscient Code Generator (Lite mode) build 49521"
  2611                           
  2612  0549                     l133:	
  2613                           opt subtitle "HI-TECH Software Omniscient Code Generator (Lite mode) build 49521"
  2614  0549  2C25               	goto	l3109
  2615                           opt subtitle "HI-TECH Software Omniscient Code Generator (Lite mode) build 49521"
  2616  054A                     l134:	
  2617                           opt subtitle "HI-TECH Software Omniscient Code Generator (Lite mode) build 49521"
  2618                           
  2619                           opt pagewidth 120
  2620                           
  2621                           	opt lm
  2622                           
  2623  054A                     l135:	
  2624                           opt subtitle "HI-TECH Software Omniscient Code Generator (Lite mode) build 49521"
  2625  054A  120A  118A  2812   	ljmp	start
  2626                           opt subtitle "HI-TECH Software Omniscient Code Generator (Lite mode) build 49521"
  2627                           
  2628  054D                     	__end_of_main:
  2629                           opt subtitle "HI-TECH Software Omniscient Code Generator (Lite mode) build 49521"
  2630                           
  2631                           opt pagewidth 120
  2632                           
  2633                           	opt lm
  2634                           
  2635                           	processor	16F707
  2636                           clrc	macro
  2637                           	bcf	3,0
  2638                           	endm
  2639                           clrz	macro
  2640                           	bcf	3,2
  2641                           	endm
  2642                           setc	macro
  2643                           	bsf	3,0
  2644                           	endm
  2645                           setz	macro
  2646                           	bsf	3,2
  2647                           	endm
  2648                           skipc	macro
  2649                           	btfss	3,0
  2650                           	endm
  2651                           skipz	macro
  2652                           	btfss	3,2
  2653                           	endm
  2654                           skipnc	macro
  2655                           	btfsc	3,0
  2656                           	endm
  2657                           skipnz	macro
  2658                           	btfsc	3,2
  2659                           	endm
  2660                           indf	equ	0
  2661                           indf0	equ	0
  2662                           pc	equ	2
  2663                           pcl	equ	2
  2664                           status	equ	3
  2665                           fsr	equ	4
  2666                           fsr0	equ	4
  2667                           c	equ	1
  2668                           z	equ	0
  2669                           pclath	equ	10
  2670                           # 46 "/Applications/microchip/xc8/v1.12/include/pic16f707.h"
  2671                           INDF equ 00h ;# 
  2672                           # 52 "/Applications/microchip/xc8/v1.12/include/pic16f707.h"
  2673                           TMR0 equ 01h ;# 
  2674  06FD                     __ptext993:	;psect for function _Send_Packet
  2675                           opt subtitle "HI-TECH Software Omniscient Code Generator (Lite mode) build 49521"
  2676                           
  2677                           opt pagewidth 120
  2678                           
  2679  00E4                     	__size_of_Send_Packet	equ	__end_of_Send_Packet-_Send_Packet
  2680                           opt subtitle "HI-TECH Software Omniscient Code Generator (Lite mode) build 49521"
  2681  06FD                     _Send_Packet:	
  2682                           opt subtitle "HI-TECH Software Omniscient Code Generator (Lite mode) build 49521"
  2683                           
  2684                           opt pagewidth 120
  2685                           
  2686  06FD  1683               	bsf	status, 5	;RP0=1, select bank1
  2687  06FE  1303               	bcf	status, 6	;RP1=0, select bank1
  2688  06FF  00C3               	movwf	(Send_Packet@type)^080h
  2689                           opt subtitle "HI-TECH Software Omniscient Code Generator (Lite mode) build 49521"
  2690  0700                     l3377:	
  2691                           opt subtitle "HI-TECH Software Omniscient Code Generator (Lite mode) build 49521"
  2692                           
  2693  0700  120A  158A  2398   	fcall	_SwitchToTxMode
              120A  118A         
  2694                           opt subtitle "HI-TECH Software Omniscient Code Generator (Lite mode) build 49521"
  2695                           
  2696  0705                     l3379:	
  2697                           opt subtitle "HI-TECH Software Omniscient Code Generator (Lite mode) build 49521"
  2698  0705  3017               	movlw	(017h)
  2699  0706  120A  158A  22D2   	fcall	_SPI_Read_Reg
              120A  118A         
  2700  070B  1683               	bsf	status, 5	;RP0=1, select bank1
  2701  070C  1303               	bcf	status, 6	;RP1=0, select bank1
  2702  070D  00C0               	movwf	(??_Send_Packet+0)^080h+0
  2703  070E  0840               	movf	(??_Send_Packet+0)^080h+0,w
  2704  070F  00C4               	movwf	(Send_Packet@fifo_sta)^080h
  2705                           opt subtitle "HI-TECH Software Omniscient Code Generator (Lite mode) build 49521"
  2706                           
  2707  0710                     l3381:	
  2708                           opt subtitle "HI-TECH Software Omniscient Code Generator (Lite mode) build 49521"
  2709  0710  1AC4               	btfsc	(Send_Packet@fifo_sta)^080h,(5)&7
  2710  0711  2F13               	goto	u3281
  2711  0712  2F14               	goto	u3280
  2712  0713                     u3281:
  2713  0713  2FE0               	goto	l197
  2714  0714                     u3280:
  2715                           opt subtitle "HI-TECH Software Omniscient Code Generator (Lite mode) build 49521"
  2716                           
  2717  0714                     l3383:	
  2718                           opt subtitle "HI-TECH Software Omniscient Code Generator (Lite mode) build 49521"
  2719                           
  2720  0714  304B               	movlw	low(STR_6|8000h)
  2721  0715  1283               	bcf	status, 5	;RP0=0, select bank0
  2722  0716  1303               	bcf	status, 6	;RP1=0, select bank0
  2723  0717  00C1               	movwf	(?_printf)
  2724  0718  3091               	movlw	high(STR_6|8000h)
  2725  0719  00C2               	movwf	((?_printf))+1
  2726  071A  120A  118A  254D   	fcall	_printf
              120A  118A         
  2727                           opt subtitle "HI-TECH Software Omniscient Code Generator (Lite mode) build 49521"
  2728                           
  2729  071F                     l3385:	
  2730                           opt subtitle "HI-TECH Software Omniscient Code Generator (Lite mode) build 49521"
  2731  071F  1683               	bsf	status, 5	;RP0=1, select bank1
  2732  0720  1303               	bcf	status, 6	;RP1=0, select bank1
  2733  0721  01C5               	clrf	(Send_Packet@i)^080h
  2734  0722  2F4E               	goto	l3391
  2735                           opt subtitle "HI-TECH Software Omniscient Code Generator (Lite mode) build 49521"
  2736  0723                     l190:	
  2737                           opt subtitle "HI-TECH Software Omniscient Code Generator (Lite mode) build 49521"
  2738                           
  2739  0723                     l3387:	
  2740                           opt subtitle "HI-TECH Software Omniscient Code Generator (Lite mode) build 49521"
  2741  0723  305A               	movlw	low(STR_7|8000h)
  2742  0724  1283               	bcf	status, 5	;RP0=0, select bank0
  2743  0725  1303               	bcf	status, 6	;RP1=0, select bank0
  2744  0726  00C1               	movwf	(?_printf)
  2745  0727  3091               	movlw	high(STR_7|8000h)
  2746  0728  00C2               	movwf	((?_printf))+1
  2747  0729  1683               	bsf	status, 5	;RP0=1, select bank1
  2748  072A  1303               	bcf	status, 6	;RP1=0, select bank1
  2749  072B  0845               	movf	(Send_Packet@i)^080h,w
  2750  072C  1283               	bcf	status, 5	;RP0=0, select bank0
  2751  072D  1303               	bcf	status, 6	;RP1=0, select bank0
  2752  072E  0751               	addwf	(Send_Packet@pbuf),w
  2753  072F  1683               	bsf	status, 5	;RP0=1, select bank1
  2754  0730  1303               	bcf	status, 6	;RP1=0, select bank1
  2755  0731  00C0               	movwf	(??_Send_Packet+0)^080h+0
  2756  0732  0840               	movf	0+(??_Send_Packet+0)^080h+0,w
  2757  0733  0084               	movwf	fsr0
  2758  0734  1383               	bcf	status, 7	;select IRP bank0
  2759  0735  0800               	movf	indf,w
  2760  0736  00C1               	movwf	(??_Send_Packet+1)^080h+0+0
  2761  0737  01C2               	clrf	(??_Send_Packet+1)^080h+0+1
  2762  0738  0841               	movf	0+(??_Send_Packet+1)^080h+0,w
  2763  0739  1283               	bcf	status, 5	;RP0=0, select bank0
  2764  073A  1303               	bcf	status, 6	;RP1=0, select bank0
  2765  073B  00C3               	movwf	0+(?_printf)+02h
  2766  073C  1683               	bsf	status, 5	;RP0=1, select bank1
  2767  073D  1303               	bcf	status, 6	;RP1=0, select bank1
  2768  073E  0842               	movf	1+(??_Send_Packet+1)^080h+0,w
  2769  073F  1283               	bcf	status, 5	;RP0=0, select bank0
  2770  0740  1303               	bcf	status, 6	;RP1=0, select bank0
  2771  0741  00C4               	movwf	1+(?_printf)+02h
  2772  0742  120A  118A  254D   	fcall	_printf
              120A  118A         
  2773                           opt subtitle "HI-TECH Software Omniscient Code Generator (Lite mode) build 49521"
  2774                           
  2775  0747                     l3389:	
  2776  0747  3001               	movlw	(01h)
  2777  0748  1683               	bsf	status, 5	;RP0=1, select bank1
  2778  0749  1303               	bcf	status, 6	;RP1=0, select bank1
  2779  074A  00C0               	movwf	(??_Send_Packet+0)^080h+0
  2780  074B  0840               	movf	(??_Send_Packet+0)^080h+0,w
  2781  074C  07C5               	addwf	(Send_Packet@i)^080h,f
  2782  074D  2F4E               	goto	l3391
  2783                           opt subtitle "HI-TECH Software Omniscient Code Generator (Lite mode) build 49521"
  2784  074E                     l189:	
  2785                           opt subtitle "HI-TECH Software Omniscient Code Generator (Lite mode) build 49521"
  2786  074E                     l3391:	
  2787  074E  1283               	bcf	status, 5	;RP0=0, select bank0
  2788  074F  1303               	bcf	status, 6	;RP1=0, select bank0
  2789  0750  0852               	movf	(Send_Packet@len),w
  2790  0751  1683               	bsf	status, 5	;RP0=1, select bank1
  2791  0752  1303               	bcf	status, 6	;RP1=0, select bank1
  2792  0753  0245               	subwf	(Send_Packet@i)^080h,w
  2793  0754  1C03               	skipc
  2794  0755  2F57               	goto	u3291
  2795  0756  2F58               	goto	u3290
  2796  0757                     u3291:
  2797  0757  2F23               	goto	l3387
  2798  0758                     u3290:
  2799  0758  2F59               	goto	l3393
  2800                           opt subtitle "HI-TECH Software Omniscient Code Generator (Lite mode) build 49521"
  2801  0759                     l191:	
  2802                           opt subtitle "HI-TECH Software Omniscient Code Generator (Lite mode) build 49521"
  2803                           
  2804  0759                     l3393:	
  2805                           opt subtitle "HI-TECH Software Omniscient Code Generator (Lite mode) build 49521"
  2806                           
  2807  0759  3057               	movlw	low(STR_8|8000h)
  2808  075A  1283               	bcf	status, 5	;RP0=0, select bank0
  2809  075B  1303               	bcf	status, 6	;RP1=0, select bank0
  2810  075C  00C1               	movwf	(?_printf)
  2811  075D  3091               	movlw	high(STR_8|8000h)
  2812  075E  00C2               	movwf	((?_printf))+1
  2813  075F  120A  118A  254D   	fcall	_printf
              120A  118A         
  2814                           opt subtitle "HI-TECH Software Omniscient Code Generator (Lite mode) build 49521"
  2815                           
  2816  0764                     l3395:	
  2817                           opt subtitle "HI-TECH Software Omniscient Code Generator (Lite mode) build 49521"
  2818  0764  1283               	bcf	status, 5	;RP0=0, select bank0
  2819  0765  1303               	bcf	status, 6	;RP1=0, select bank0
  2820  0766  1107               	bcf	(7),2	;volatile
  2821                           opt subtitle "HI-TECH Software Omniscient Code Generator (Lite mode) build 49521"
  2822                           
  2823  0767                     l3397:	
  2824                           opt subtitle "HI-TECH Software Omniscient Code Generator (Lite mode) build 49521"
  2825  0767  0851               	movf	(Send_Packet@pbuf),w
  2826  0768  1683               	bsf	status, 5	;RP0=1, select bank1
  2827  0769  1303               	bcf	status, 6	;RP1=0, select bank1
  2828  076A  00C0               	movwf	(??_Send_Packet+0)^080h+0
  2829  076B  0840               	movf	(??_Send_Packet+0)^080h+0,w
  2830  076C  1283               	bcf	status, 5	;RP0=0, select bank0
  2831  076D  1303               	bcf	status, 6	;RP1=0, select bank0
  2832  076E  00B6               	movwf	(?_SPI_Write_Buf)
  2833  076F  0852               	movf	(Send_Packet@len),w
  2834  0770  1683               	bsf	status, 5	;RP0=1, select bank1
  2835  0771  1303               	bcf	status, 6	;RP1=0, select bank1
  2836  0772  00C1               	movwf	(??_Send_Packet+1)^080h+0
  2837  0773  0841               	movf	(??_Send_Packet+1)^080h+0,w
  2838  0774  1283               	bcf	status, 5	;RP0=0, select bank0
  2839  0775  1303               	bcf	status, 6	;RP1=0, select bank0
  2840  0776  00B7               	movwf	0+(?_SPI_Write_Buf)+01h
  2841  0777  1683               	bsf	status, 5	;RP0=1, select bank1
  2842  0778  1303               	bcf	status, 6	;RP1=0, select bank1
  2843  0779  0843               	movf	(Send_Packet@type)^080h,w
  2844  077A  120A  158A  236E   	fcall	_SPI_Write_Buf
              120A  118A         
  2845                           opt subtitle "HI-TECH Software Omniscient Code Generator (Lite mode) build 49521"
  2846                           
  2847  077F                     l3399:	
  2848                           opt subtitle "HI-TECH Software Omniscient Code Generator (Lite mode) build 49521"
  2849  077F  1283               	bcf	status, 5	;RP0=0, select bank0
  2850  0780  1303               	bcf	status, 6	;RP1=0, select bank0
  2851  0781  1507               	bsf	(7),2	;volatile
  2852                           opt subtitle "HI-TECH Software Omniscient Code Generator (Lite mode) build 49521"
  2853                           
  2854  0782                     l3401:	
  2855                           opt subtitle "HI-TECH Software Omniscient Code Generator (Lite mode) build 49521"
  2856                           
  2857  0782  3006               movlw	6
  2858  0783  1683               	bsf	status, 5	;RP0=1, select bank1
  2859  0784  1303               	bcf	status, 6	;RP1=0, select bank1
  2860  0785  00C0               movwf	(??_Send_Packet+0)^080h+0,f
  2861  0786                     u3727:
  2862  0786  0BC0               decfsz	(??_Send_Packet+0)^080h+0,f
  2863  0787  2F86               	goto	u3727
  2864  0788  0000               	nop
  2865                           opt subtitle "HI-TECH Software Omniscient Code Generator (Lite mode) build 49521"
  2866                           
  2867                           opt pagewidth 120
  2868                           
  2869  0789                     l3403:	
  2870                           opt subtitle "HI-TECH Software Omniscient Code Generator (Lite mode) build 49521"
  2871  0789  1283               	bcf	status, 5	;RP0=0, select bank0
  2872  078A  1303               	bcf	status, 6	;RP1=0, select bank0
  2873  078B  1107               	bcf	(7),2	;volatile
  2874                           opt subtitle "HI-TECH Software Omniscient Code Generator (Lite mode) build 49521"
  2875                           
  2876  078C                     l3405:	
  2877                           opt subtitle "HI-TECH Software Omniscient Code Generator (Lite mode) build 49521"
  2878                           
  2879  078C  3003               movlw	3
  2880  078D  1683               	bsf	status, 5	;RP0=1, select bank1
  2881  078E  1303               	bcf	status, 6	;RP1=0, select bank1
  2882  078F  00C1               movwf	((??_Send_Packet+0)^080h+0+1),f
  2883  0790  3097               	movlw	151
  2884  0791  00C0               movwf	((??_Send_Packet+0)^080h+0),f
  2885  0792                     u3737:
  2886  0792  0BC0               	decfsz	((??_Send_Packet+0)^080h+0),f
  2887  0793  2F92               	goto	u3737
  2888  0794  0BC1               	decfsz	((??_Send_Packet+0)^080h+0+1),f
  2889  0795  2F92               	goto	u3737
  2890  0796  2F97               	nop2
  2891                           opt subtitle "HI-TECH Software Omniscient Code Generator (Lite mode) build 49521"
  2892                           
  2893                           opt pagewidth 120
  2894                           
  2895  0797  2FCF               	goto	l3419
  2896                           opt subtitle "HI-TECH Software Omniscient Code Generator (Lite mode) build 49521"
  2897  0798                     l193:	
  2898                           opt subtitle "HI-TECH Software Omniscient Code Generator (Lite mode) build 49521"
  2899                           
  2900  0798                     l3407:	
  2901                           opt subtitle "HI-TECH Software Omniscient Code Generator (Lite mode) build 49521"
  2902  0798  120A  118A  27E1   	fcall	_rfm70TxDataSentInterrupt
              120A  118A         
  2903  079D  3A00               	xorlw	0
  2904  079E  1903               	skipnz
  2905  079F  2FA1               	goto	u3301
  2906  07A0  2FA2               	goto	u3300
  2907  07A1                     u3301:
  2908  07A1  2FB3               	goto	l3413
  2909  07A2                     u3300:
  2910                           opt subtitle "HI-TECH Software Omniscient Code Generator (Lite mode) build 49521"
  2911                           
  2912  07A2                     l3409:	
  2913                           opt subtitle "HI-TECH Software Omniscient Code Generator (Lite mode) build 49521"
  2914  07A2  3022               	movlw	low(STR_9|8000h)
  2915  07A3  1283               	bcf	status, 5	;RP0=0, select bank0
  2916  07A4  1303               	bcf	status, 6	;RP1=0, select bank0
  2917  07A5  00C1               	movwf	(?_printf)
  2918  07A6  3091               	movlw	high(STR_9|8000h)
  2919  07A7  00C2               	movwf	((?_printf))+1
  2920  07A8  120A  118A  254D   	fcall	_printf
              120A  118A         
  2921                           opt subtitle "HI-TECH Software Omniscient Code Generator (Lite mode) build 49521"
  2922                           
  2923  07AD                     l3411:	
  2924                           opt subtitle "HI-TECH Software Omniscient Code Generator (Lite mode) build 49521"
  2925  07AD  120A  158A  247B   	fcall	_SwitchToRxMode
              120A  118A         
  2926  07B2  2FB3               	goto	l3413
  2927                           opt subtitle "HI-TECH Software Omniscient Code Generator (Lite mode) build 49521"
  2928                           
  2929  07B3                     l194:	
  2930                           opt subtitle "HI-TECH Software Omniscient Code Generator (Lite mode) build 49521"
  2931                           
  2932  07B3                     l3413:	
  2933                           opt subtitle "HI-TECH Software Omniscient Code Generator (Lite mode) build 49521"
  2934                           
  2935  07B3  120A  158A  2306   	fcall	_rfm70TxDataSentErrorInterrupt
              120A  118A         
  2936  07B8  3A00               	xorlw	0
  2937  07B9  1903               	skipnz
  2938  07BA  2FBC               	goto	u3311
  2939  07BB  2FBD               	goto	u3310
  2940  07BC                     u3311:
  2941  07BC  2FCF               	goto	l3419
  2942  07BD                     u3310:
  2943                           opt subtitle "HI-TECH Software Omniscient Code Generator (Lite mode) build 49521"
  2944                           
  2945  07BD                     l3415:	
  2946                           opt subtitle "HI-TECH Software Omniscient Code Generator (Lite mode) build 49521"
  2947  07BD  30BD               	movlw	low(STR_10|8000h)
  2948  07BE  1283               	bcf	status, 5	;RP0=0, select bank0
  2949  07BF  1303               	bcf	status, 6	;RP1=0, select bank0
  2950  07C0  00C1               	movwf	(?_printf)
  2951  07C1  3090               	movlw	high(STR_10|8000h)
  2952  07C2  00C2               	movwf	((?_printf))+1
  2953  07C3  120A  118A  254D   	fcall	_printf
              120A  118A         
  2954                           opt subtitle "HI-TECH Software Omniscient Code Generator (Lite mode) build 49521"
  2955                           
  2956  07C8                     l3417:	
  2957                           opt subtitle "HI-TECH Software Omniscient Code Generator (Lite mode) build 49521"
  2958  07C8  120A  158A  247B   	fcall	_SwitchToRxMode
              120A  118A         
  2959  07CD  2FCF               	goto	l3419
  2960                           opt subtitle "HI-TECH Software Omniscient Code Generator (Lite mode) build 49521"
  2961                           
  2962  07CE                     l195:	
  2963  07CE  2FCF               	goto	l3419
  2964                           opt subtitle "HI-TECH Software Omniscient Code Generator (Lite mode) build 49521"
  2965                           
  2966  07CF                     l192:	
  2967                           opt subtitle "HI-TECH Software Omniscient Code Generator (Lite mode) build 49521"
  2968                           
  2969  07CF                     l3419:	
  2970  07CF  1283               	bcf	status, 5	;RP0=0, select bank0
  2971  07D0  1303               	bcf	status, 6	;RP1=0, select bank0
  2972  07D1  1C88               	btfss	(8),1	;volatile
  2973  07D2  2FD4               	goto	u3321
  2974  07D3  2FD5               	goto	u3320
  2975  07D4                     u3321:
  2976  07D4  2F98               	goto	l3407
  2977  07D5                     u3320:
  2978  07D5  2FD6               	goto	l3421
  2979                           opt subtitle "HI-TECH Software Omniscient Code Generator (Lite mode) build 49521"
  2980  07D6                     l196:	
  2981                           opt subtitle "HI-TECH Software Omniscient Code Generator (Lite mode) build 49521"
  2982                           
  2983  07D6                     l3421:	
  2984                           opt subtitle "HI-TECH Software Omniscient Code Generator (Lite mode) build 49521"
  2985                           
  2986                           opt pagewidth 120
  2987  07D6  3055               	movlw	low(STR_11|8000h)
  2988  07D7  00C1               	movwf	(?_printf)
  2989  07D8  3091               	movlw	high(STR_11|8000h)
  2990  07D9  00C2               	movwf	((?_printf))+1
  2991  07DA  120A  118A  254D   	fcall	_printf
              120A  118A         
  2992  07DF  2FE0               	goto	l197
  2993                           opt subtitle "HI-TECH Software Omniscient Code Generator (Lite mode) build 49521"
  2994                           
  2995  07E0                     l188:	
  2996                           opt subtitle "HI-TECH Software Omniscient Code Generator (Lite mode) build 49521"
  2997                           
  2998  07E0                     l197:	
  2999  07E0  0008               	return
  3000                           opt subtitle "HI-TECH Software Omniscient Code Generator (Lite mode) build 49521"
  3001                           
  3002  07E1                     	__end_of_Send_Packet:
  3003                           opt subtitle "HI-TECH Software Omniscient Code Generator (Lite mode) build 49521"
  3004                           
  3005                           opt pagewidth 120
  3006                           
  3007                           	opt lm
  3008                           
  3009                           	processor	16F707
  3010                           clrc	macro
  3011                           	bcf	3,0
  3012                           	endm
  3013                           clrz	macro
  3014                           	bcf	3,2
  3015                           	endm
  3016                           setc	macro
  3017                           	bsf	3,0
  3018                           	endm
  3019                           setz	macro
  3020                           	bsf	3,2
  3021                           	endm
  3022                           skipc	macro
  3023                           	btfss	3,0
  3024                           	endm
  3025                           skipz	macro
  3026                           	btfss	3,2
  3027                           	endm
  3028                           skipnc	macro
  3029                           	btfsc	3,0
  3030                           	endm
  3031                           skipnz	macro
  3032                           	btfsc	3,2
  3033                           	endm
  3034                           indf	equ	0
  3035                           indf0	equ	0
  3036                           pc	equ	2
  3037  0BED                     __ptext994:	;psect for function _adcReadTemp
  3038                           opt subtitle "HI-TECH Software Omniscient Code Generator (Lite mode) build 49521"
  3039                           
  3040                           opt pagewidth 120
  3041                           
  3042  002B                     	__size_of_adcReadTemp	equ	__end_of_adcReadTemp-_adcReadTemp
  3043                           opt subtitle "HI-TECH Software Omniscient Code Generator (Lite mode) build 49521"
  3044  0BED                     _adcReadTemp:	
  3045                           opt subtitle "HI-TECH Software Omniscient Code Generator (Lite mode) build 49521"
  3046                           
  3047                           opt pagewidth 120
  3048                           
  3049  0BED                     l3359:	
  3050                           opt subtitle "HI-TECH Software Omniscient Code Generator (Lite mode) build 49521"
  3051                           
  3052  0BED  1283               	bcf	status, 5	;RP0=0, select bank0
  3053  0BEE  1303               	bcf	status, 6	;RP1=0, select bank0
  3054  0BEF  081F               	movf	(31),w	;volatile
  3055  0BF0  39C3               	andlw	not (((1<<4)-1)<<2)
  3056  0BF1  381C               	iorlw	(07h & ((1<<4)-1))<<2
  3057  0BF2  009F               	movwf	(31)	;volatile
  3058                           opt subtitle "HI-TECH Software Omniscient Code Generator (Lite mode) build 49521"
  3059                           
  3060  0BF3  1683               	bsf	status, 5	;RP0=1, select bank1
  3061  0BF4  1303               	bcf	status, 6	;RP1=0, select bank1
  3062  0BF5  081D               	movf	(157)^080h,w	;volatile
  3063  0BF6  39FC               	andlw	not (((1<<2)-1)<<0)
  3064  0BF7  3801               	iorlw	(01h & ((1<<2)-1))<<0
  3065  0BF8  009D               	movwf	(157)^080h	;volatile
  3066                           opt subtitle "HI-TECH Software Omniscient Code Generator (Lite mode) build 49521"
  3067                           
  3068  0BF9                     l3361:	
  3069                           opt subtitle "HI-TECH Software Omniscient Code Generator (Lite mode) build 49521"
  3070  0BF9  1283               	bcf	status, 5	;RP0=0, select bank0
  3071  0BFA  1303               	bcf	status, 6	;RP1=0, select bank0
  3072  0BFB  141F               	bsf	(31),0	;volatile
  3073                           opt subtitle "HI-TECH Software Omniscient Code Generator (Lite mode) build 49521"
  3074                           
  3075  0BFC                     l3363:	
  3076                           opt subtitle "HI-TECH Software Omniscient Code Generator (Lite mode) build 49521"
  3077  0BFC  1489               	bsf	(9),1	;volatile
  3078                           opt subtitle "HI-TECH Software Omniscient Code Generator (Lite mode) build 49521"
  3079                           
  3080  0BFD                     l3365:	
  3081                           opt subtitle "HI-TECH Software Omniscient Code Generator (Lite mode) build 49521"
  3082                           
  3083  0BFD  300D               movlw	13
  3084  0BFE  00B4               movwf	((??_adcReadTemp+0)+0+1),f
  3085  0BFF  30FB               	movlw	251
  3086  0C00  00B3               movwf	((??_adcReadTemp+0)+0),f
  3087  0C01                     u3747:
  3088  0C01  0BB3               	decfsz	((??_adcReadTemp+0)+0),f
  3089  0C02  2C01               	goto	u3747
  3090  0C03  0BB4               	decfsz	((??_adcReadTemp+0)+0+1),f
  3091  0C04  2C01               	goto	u3747
  3092  0C05  2C06               	nop2
  3093                           opt subtitle "HI-TECH Software Omniscient Code Generator (Lite mode) build 49521"
  3094                           
  3095                           opt pagewidth 120
  3096                           
  3097  0C06                     l3367:	
  3098                           opt subtitle "HI-TECH Software Omniscient Code Generator (Lite mode) build 49521"
  3099  0C06  1283               	bcf	status, 5	;RP0=0, select bank0
  3100  0C07  1303               	bcf	status, 6	;RP1=0, select bank0
  3101  0C08  149F               	bsf	(31),1	;volatile
  3102                           opt subtitle "HI-TECH Software Omniscient Code Generator (Lite mode) build 49521"
  3103                           
  3104  0C09  2C0A               	goto	l138
  3105                           opt subtitle "HI-TECH Software Omniscient Code Generator (Lite mode) build 49521"
  3106  0C0A                     l139:	
  3107                           opt subtitle "HI-TECH Software Omniscient Code Generator (Lite mode) build 49521"
  3108  0C0A                     l138:	
  3109  0C0A  189F               	btfsc	(31),1	;volatile
  3110  0C0B  2C0D               	goto	u3271
  3111  0C0C  2C0E               	goto	u3270
  3112  0C0D                     u3271:
  3113  0C0D  2C0A               	goto	l138
  3114  0C0E                     u3270:
  3115  0C0E  2C0F               	goto	l3369
  3116                           opt subtitle "HI-TECH Software Omniscient Code Generator (Lite mode) build 49521"
  3117  0C0F                     l140:	
  3118                           opt subtitle "HI-TECH Software Omniscient Code Generator (Lite mode) build 49521"
  3119                           
  3120  0C0F                     l3369:	
  3121                           opt subtitle "HI-TECH Software Omniscient Code Generator (Lite mode) build 49521"
  3122  0C0F  081E               	movf	(30),w	;volatile
  3123  0C10  00B3               	movwf	(??_adcReadTemp+0)+0
  3124  0C11  0833               	movf	(??_adcReadTemp+0)+0,w
  3125  0C12  00B5               	movwf	(adcReadTemp@value)
  3126                           opt subtitle "HI-TECH Software Omniscient Code Generator (Lite mode) build 49521"
  3127                           
  3128  0C13                     l3371:	
  3129                           opt subtitle "HI-TECH Software Omniscient Code Generator (Lite mode) build 49521"
  3130  0C13  101F               	bcf	(31),0	;volatile
  3131                           opt subtitle "HI-TECH Software Omniscient Code Generator (Lite mode) build 49521"
  3132                           
  3133  0C14                     l3373:	
  3134                           opt subtitle "HI-TECH Software Omniscient Code Generator (Lite mode) build 49521"
  3135  0C14  1089               	bcf	(9),1	;volatile
  3136                           opt subtitle "HI-TECH Software Omniscient Code Generator (Lite mode) build 49521"
  3137                           
  3138  0C15  0835               	movf	(adcReadTemp@value),w
  3139  0C16  2C17               	goto	l141
  3140                           opt subtitle "HI-TECH Software Omniscient Code Generator (Lite mode) build 49521"
  3141  0C17                     l3375:	
  3142                           opt subtitle "HI-TECH Software Omniscient Code Generator (Lite mode) build 49521"
  3143                           
  3144  0C17                     l141:	
  3145  0C17  0008               	return
  3146                           opt subtitle "HI-TECH Software Omniscient Code Generator (Lite mode) build 49521"
  3147                           
  3148  0C18                     	__end_of_adcReadTemp:
  3149                           opt subtitle "HI-TECH Software Omniscient Code Generator (Lite mode) build 49521"
  3150                           
  3151                           opt pagewidth 120
  3152                           
  3153                           	opt lm
  3154                           
  3155                           	processor	16F707
  3156                           clrc	macro
  3157                           	bcf	3,0
  3158                           	endm
  3159                           clrz	macro
  3160                           	bcf	3,2
  3161                           	endm
  3162                           setc	macro
  3163                           	bsf	3,0
  3164                           	endm
  3165                           setz	macro
  3166                           	bsf	3,2
  3167                           	endm
  3168                           skipc	macro
  3169                           	btfss	3,0
  3170                           	endm
  3171                           skipz	macro
  3172                           	btfss	3,2
  3173                           	endm
  3174                           skipnc	macro
  3175                           	btfsc	3,0
  3176                           	endm
  3177                           skipnz	macro
  3178                           	btfsc	3,2
  3179                           	endm
  3180                           indf	equ	0
  3181                           indf0	equ	0
  3182                           pc	equ	2
  3183                           pcl	equ	2
  3184                           status	equ	3
  3185                           fsr	equ	4
  3186                           fsr0	equ	4
  3187                           c	equ	1
  3188                           z	equ	0
  3189                           pclath	equ	10
  3190                           # 46 "/Applications/microchip/xc8/v1.12/include/pic16f707.h"
  3191                           INDF equ 00h ;# 
  3192                           # 52 "/Applications/microchip/xc8/v1.12/include/pic16f707.h"
  3193                           TMR0 equ 01h ;# 
  3194                           # 58 "/Applications/microchip/xc8/v1.12/include/pic16f707.h"
  3195                           PCL equ 02h ;# 
  3196                           # 64 "/Applications/microchip/xc8/v1.12/include/pic16f707.h"
  3197  054D                     __ptext995:	;psect for function _printf
  3198                           opt subtitle "HI-TECH Software Omniscient Code Generator (Lite mode) build 49521"
  3199                           
  3200                           opt pagewidth 120
  3201                           
  3202  01B0                     	__size_of_printf	equ	__end_of_printf-_printf
  3203                           opt subtitle "HI-TECH Software Omniscient Code Generator (Lite mode) build 49521"
  3204  054D                     _printf:	
  3205                           opt subtitle "HI-TECH Software Omniscient Code Generator (Lite mode) build 49521"
  3206                           
  3207                           opt pagewidth 120
  3208                           
  3209  054D                     l2919:	
  3210                           opt subtitle "HI-TECH Software Omniscient Code Generator (Lite mode) build 49521"
  3211                           
  3212                           opt pagewidth 120
  3213                           
  3214                           	opt lm
  3215                           
  3216                           	processor	16F707
  3217                           clrc	macro
  3218                           	bcf	3,0
  3219                           	endm
  3220                           clrz	macro
  3221                           	bcf	3,2
  3222  054D  3043               	movlw	(?_printf+02h)&0ffh
  3223  054E  1283               	bcf	status, 5	;RP0=0, select bank0
  3224  054F  1303               	bcf	status, 6	;RP1=0, select bank0
  3225  0550  00C5               	movwf	(??_printf+0)+0
  3226  0551  0845               	movf	(??_printf+0)+0,w
  3227  0552  00C9               	movwf	(printf@ap)
  3228                           opt subtitle "HI-TECH Software Omniscient Code Generator (Lite mode) build 49521"
  3229                           
  3230  0553  2EDF               	goto	l2993
  3231                           opt subtitle "HI-TECH Software Omniscient Code Generator (Lite mode) build 49521"
  3232  0554                     l337:	
  3233                           opt subtitle "HI-TECH Software Omniscient Code Generator (Lite mode) build 49521"
  3234                           
  3235  0554                     l2921:	
  3236                           opt subtitle "HI-TECH Software Omniscient Code Generator (Lite mode) build 49521"
  3237  0554  0850               	movf	(printf@c),w
  3238  0555  3A25               	xorlw	025h
  3239  0556  1903               	skipnz
  3240  0557  2D59               	goto	u2771
  3241  0558  2D5A               	goto	u2770
  3242  0559                     u2771:
  3243  0559  2D61               	goto	l338
  3244  055A                     u2770:
  3245                           opt subtitle "HI-TECH Software Omniscient Code Generator (Lite mode) build 49521"
  3246                           
  3247  055A                     l2923:	
  3248                           opt subtitle "HI-TECH Software Omniscient Code Generator (Lite mode) build 49521"
  3249                           
  3250  055A  0850               	movf	(printf@c),w
  3251  055B  120A  158A  2282   	fcall	_putch
              120A  118A         
  3252                           opt subtitle "HI-TECH Software Omniscient Code Generator (Lite mode) build 49521"
  3253                           
  3254  0560  2EDF               	goto	l2993
  3255                           opt subtitle "HI-TECH Software Omniscient Code Generator (Lite mode) build 49521"
  3256                           
  3257  0561                     l338:	
  3258                           opt subtitle "HI-TECH Software Omniscient Code Generator (Lite mode) build 49521"
  3259                           
  3260                           opt pagewidth 120
  3261  0561  01CB               	clrf	(printf@flag)
  3262                           opt subtitle "HI-TECH Software Omniscient Code Generator (Lite mode) build 49521"
  3263                           
  3264  0562  2D70               	goto	l2929
  3265                           opt subtitle "HI-TECH Software Omniscient Code Generator (Lite mode) build 49521"
  3266                           
  3267                           opt pagewidth 120
  3268  0563                     l340:	
  3269                           opt subtitle "HI-TECH Software Omniscient Code Generator (Lite mode) build 49521"
  3270                           
  3271  0563  2EFC               	goto	l370
  3272                           opt subtitle "HI-TECH Software Omniscient Code Generator (Lite mode) build 49521"
  3273                           
  3274                           opt pagewidth 120
  3275  0564                     l342:	
  3276  0564  2D94               	goto	l344
  3277                           opt subtitle "HI-TECH Software Omniscient Code Generator (Lite mode) build 49521"
  3278                           
  3279  0565                     l343:	
  3280                           opt subtitle "HI-TECH Software Omniscient Code Generator (Lite mode) build 49521"
  3281                           
  3282                           opt pagewidth 120
  3283  0565  2D94               	goto	l344
  3284                           opt subtitle "HI-TECH Software Omniscient Code Generator (Lite mode) build 49521"
  3285                           
  3286                           opt pagewidth 120
  3287  0566                     l345:	
  3288                           opt subtitle "HI-TECH Software Omniscient Code Generator (Lite mode) build 49521"
  3289                           
  3290  0566                     l346:	
  3291                           opt subtitle "HI-TECH Software Omniscient Code Generator (Lite mode) build 49521"
  3292                           
  3293                           opt pagewidth 120
  3294  0566  17CB               	bsf	(printf@flag)+(7/8),(7)&7
  3295                           opt subtitle "HI-TECH Software Omniscient Code Generator (Lite mode) build 49521"
  3296                           
  3297  0567  2D94               	goto	l344
  3298                           opt subtitle "HI-TECH Software Omniscient Code Generator (Lite mode) build 49521"
  3299                           
  3300                           opt pagewidth 120
  3301  0568                     l347:	
  3302                           opt subtitle "HI-TECH Software Omniscient Code Generator (Lite mode) build 49521"
  3303                           
  3304  0568                     l2925:	
  3305                           opt subtitle "HI-TECH Software Omniscient Code Generator (Lite mode) build 49521"
  3306  0568  0850               	movf	(printf@c),w
  3307  0569  120A  158A  2282   	fcall	_putch
              120A  118A         
  3308                           opt subtitle "HI-TECH Software Omniscient Code Generator (Lite mode) build 49521"
  3309                           
  3310  056E  2EDF               	goto	l2993
  3311                           opt subtitle "HI-TECH Software Omniscient Code Generator (Lite mode) build 49521"
  3312                           
  3313  056F                     l2927:	
  3314                           opt subtitle "HI-TECH Software Omniscient Code Generator (Lite mode) build 49521"
  3315  056F  2D94               	goto	l344
  3316                           opt subtitle "HI-TECH Software Omniscient Code Generator (Lite mode) build 49521"
  3317                           
  3318  0570                     l339:	
  3319                           opt subtitle "HI-TECH Software Omniscient Code Generator (Lite mode) build 49521"
  3320  0570                     l2929:	
  3321  0570  1283               	bcf	status, 5	;RP0=0, select bank0
  3322  0571  1303               	bcf	status, 6	;RP1=0, select bank0
  3323  0572  0842               	movf	(printf@f+1),w
  3324  0573  00C6               	movwf	(??_printf+0)+0+1
  3325  0574  0841               	movf	(printf@f),w
  3326  0575  00C5               	movwf	(??_printf+0)+0
  3327  0576  3001               	movlw	(01h)
  3328  0577  07C1               	addwf	(printf@f),f
  3329  0578  1803               	skipnc
  3330  0579  0AC2               	incf	(printf@f+1),f
  3331  057A  0846               	movf	1+(??_printf+0)+0,w
  3332  057B  00FF               	movwf	btemp+1
  3333  057C  0845               	movf	0+(??_printf+0)+0,w
  3334  057D  0084               	movwf	fsr0
  3335  057E  160A  118A  2000   	fcall	stringtab
              120A  118A         
  3336  0583  00D0               	movwf	(printf@c)
  3337                           opt subtitle "HI-TECH Software Omniscient Code Generator (Lite mode) build 49521"
  3338                           
  3339                           opt pagewidth 120
  3340                           
  3341                           	opt lm
  3342                           
  3343                           	processor	16F707
  3344                           clrc	macro
  3345                           	bcf	3,0
  3346                           	endm
  3347                           clrz	macro
  3348                           	bcf	3,2
  3349  0584  3A00               	xorlw	0^0	; case 0
  3350  0585  1903               	skipnz
  3351  0586  2EFC               	goto	l370
  3352  0587  3A58               	xorlw	88^0	; case 88
  3353  0588  1903               	skipnz
  3354  0589  2D66               	goto	l346
  3355  058A  3A3C               	xorlw	100^88	; case 100
  3356  058B  1903               	skipnz
  3357  058C  2D94               	goto	l344
  3358  058D  3A0D               	xorlw	105^100	; case 105
  3359  058E  1903               	skipnz
  3360  058F  2D94               	goto	l344
  3361  0590  3A11               	xorlw	120^105	; case 120
  3362  0591  1903               	skipnz
  3363  0592  2D66               	goto	l346
  3364  0593  2D68               	goto	l2925
  3365                           opt subtitle "HI-TECH Software Omniscient Code Generator (Lite mode) build 49521"
  3366                           
  3367                           opt pagewidth 120
  3368                           
  3369  0594                     l344:	
  3370                           opt subtitle "HI-TECH Software Omniscient Code Generator (Lite mode) build 49521"
  3371                           
  3372  0594  1283               	bcf	status, 5	;RP0=0, select bank0
  3373  0595  1303               	bcf	status, 6	;RP1=0, select bank0
  3374  0596  1BCB               	btfsc	(printf@flag),(7)&7
  3375  0597  2D99               	goto	u2781
  3376  0598  2D9A               	goto	u2780
  3377  0599                     u2781:
  3378  0599  2DB5               	goto	l2941
  3379  059A                     u2780:
  3380                           opt subtitle "HI-TECH Software Omniscient Code Generator (Lite mode) build 49521"
  3381                           
  3382  059A                     l2931:	
  3383                           opt subtitle "HI-TECH Software Omniscient Code Generator (Lite mode) build 49521"
  3384                           
  3385  059A  0849               	movf	(printf@ap),w
  3386  059B  0084               	movwf	fsr0
  3387  059C  1383               	bcf	status, 7	;select IRP bank0
  3388  059D  0800               	movf	indf,w
  3389  059E  00CC               	movwf	(printf@_val)
  3390  059F  0A84               	incf	fsr0,f
  3391  05A0  0800               	movf	indf,w
  3392  05A1  00CD               	movwf	(printf@_val+1)
  3393                           opt subtitle "HI-TECH Software Omniscient Code Generator (Lite mode) build 49521"
  3394  05A2                     l2933:	
  3395  05A2  3002               	movlw	(02h)
  3396  05A3  00C5               	movwf	(??_printf+0)+0
  3397  05A4  0845               	movf	(??_printf+0)+0,w
  3398  05A5  07C9               	addwf	(printf@ap),f
  3399                           opt subtitle "HI-TECH Software Omniscient Code Generator (Lite mode) build 49521"
  3400                           
  3401  05A6                     l2935:	
  3402                           opt subtitle "HI-TECH Software Omniscient Code Generator (Lite mode) build 49521"
  3403  05A6  1FCD               	btfss	(printf@_val+1),7
  3404  05A7  2DA9               	goto	u2791
  3405  05A8  2DAA               	goto	u2790
  3406  05A9                     u2791:
  3407  05A9  2E32               	goto	l2971
  3408  05AA                     u2790:
  3409                           opt subtitle "HI-TECH Software Omniscient Code Generator (Lite mode) build 49521"
  3410                           
  3411  05AA                     l2937:	
  3412                           opt subtitle "HI-TECH Software Omniscient Code Generator (Lite mode) build 49521"
  3413  05AA  3003               	movlw	(03h)
  3414  05AB  00C5               	movwf	(??_printf+0)+0
  3415  05AC  0845               	movf	(??_printf+0)+0,w
  3416  05AD  04CB               	iorwf	(printf@flag),f
  3417                           opt subtitle "HI-TECH Software Omniscient Code Generator (Lite mode) build 49521"
  3418                           
  3419  05AE                     l2939:	
  3420                           opt subtitle "HI-TECH Software Omniscient Code Generator (Lite mode) build 49521"
  3421  05AE  09CC               	comf	(printf@_val),f
  3422  05AF  09CD               	comf	(printf@_val+1),f
  3423  05B0  0ACC               	incf	(printf@_val),f
  3424  05B1  1903               	skipnz
  3425  05B2  0ACD               	incf	(printf@_val+1),f
  3426  05B3  2E32               	goto	l2971
  3427                           opt subtitle "HI-TECH Software Omniscient Code Generator (Lite mode) build 49521"
  3428                           
  3429  05B4                     l349:	
  3430                           opt subtitle "HI-TECH Software Omniscient Code Generator (Lite mode) build 49521"
  3431                           
  3432                           opt pagewidth 120
  3433  05B4  2E32               	goto	l2971
  3434                           opt subtitle "HI-TECH Software Omniscient Code Generator (Lite mode) build 49521"
  3435                           
  3436  05B5                     l348:	
  3437                           opt subtitle "HI-TECH Software Omniscient Code Generator (Lite mode) build 49521"
  3438                           
  3439  05B5                     l2941:	
  3440                           opt subtitle "HI-TECH Software Omniscient Code Generator (Lite mode) build 49521"
  3441                           
  3442                           opt pagewidth 120
  3443  05B5  0849               	movf	(printf@ap),w
  3444  05B6  0084               	movwf	fsr0
  3445  05B7  1383               	bcf	status, 7	;select IRP bank0
  3446  05B8  0800               	movf	indf,w
  3447  05B9  00CC               	movwf	(printf@_val)
  3448  05BA  0A84               	incf	fsr0,f
  3449  05BB  0800               	movf	indf,w
  3450  05BC  00CD               	movwf	(printf@_val+1)
  3451                           opt subtitle "HI-TECH Software Omniscient Code Generator (Lite mode) build 49521"
  3452  05BD                     l2943:	
  3453  05BD  3002               	movlw	(02h)
  3454  05BE  00C5               	movwf	(??_printf+0)+0
  3455  05BF  0845               	movf	(??_printf+0)+0,w
  3456  05C0  07C9               	addwf	(printf@ap),f
  3457  05C1  2E32               	goto	l2971
  3458                           opt subtitle "HI-TECH Software Omniscient Code Generator (Lite mode) build 49521"
  3459                           
  3460  05C2                     l350:	
  3461                           opt subtitle "HI-TECH Software Omniscient Code Generator (Lite mode) build 49521"
  3462                           
  3463                           opt pagewidth 120
  3464  05C2  2E32               	goto	l2971
  3465                           opt subtitle "HI-TECH Software Omniscient Code Generator (Lite mode) build 49521"
  3466                           
  3467                           opt pagewidth 120
  3468  05C3                     l352:	
  3469                           opt subtitle "HI-TECH Software Omniscient Code Generator (Lite mode) build 49521"
  3470                           
  3471  05C3  01D0               	clrf	(printf@c)
  3472  05C4  0AD0               	incf	(printf@c),f
  3473                           opt subtitle "HI-TECH Software Omniscient Code Generator (Lite mode) build 49521"
  3474  05C5                     l2945:	
  3475  05C5  0850               	movf	(printf@c),w
  3476  05C6  3A05               	xorlw	05h
  3477  05C7  1D03               	skipz
  3478  05C8  2DCA               	goto	u2801
  3479  05C9  2DCB               	goto	u2800
  3480  05CA                     u2801:
  3481  05CA  2DCD               	goto	l2949
  3482  05CB                     u2800:
  3483  05CB  2E3B               	goto	l2973
  3484                           opt subtitle "HI-TECH Software Omniscient Code Generator (Lite mode) build 49521"
  3485  05CC                     l2947:	
  3486  05CC  2E3B               	goto	l2973
  3487                           opt subtitle "HI-TECH Software Omniscient Code Generator (Lite mode) build 49521"
  3488                           
  3489  05CD                     l353:	
  3490                           opt subtitle "HI-TECH Software Omniscient Code Generator (Lite mode) build 49521"
  3491  05CD                     l2949:	
  3492                           opt subtitle "HI-TECH Software Omniscient Code Generator (Lite mode) build 49521"
  3493  05CD  0850               	movf	(printf@c),w
  3494  05CE  00C5               	movwf	(??_printf+0)+0
  3495  05CF  0745               	addwf	(??_printf+0)+0,w
  3496  05D0  3E83               	addlw	low(_dpowers|8000h)
  3497  05D1  0084               	movwf	fsr0
  3498  05D2  3090               	movlw	high(_dpowers|8000h)
  3499  05D3  1803               	skipnc
  3500  05D4  3E01               	addlw	1
  3501  05D5  00FF               	movwf	btemp+1
  3502  05D6  160A  118A  2000   	fcall	stringtab
              120A  118A         
  3503  05DB  00C6               	movwf	(??_printf+1)+0
  3504  05DC  160A  118A  2000   	fcall	stringtab
              120A  118A         
  3505  05E1  00C7               	movwf	(??_printf+1)+0+1
  3506  05E2  0847               	movf	1+(??_printf+1)+0,w
  3507  05E3  024D               	subwf	(printf@_val+1),w
  3508  05E4  1D03               	skipz
  3509  05E5  2DE8               	goto	u2815
  3510  05E6  0846               	movf	0+(??_printf+1)+0,w
  3511  05E7  024C               	subwf	(printf@_val),w
  3512  05E8                     u2815:
  3513  05E8  1803               	skipnc
  3514  05E9  2DEB               	goto	u2811
  3515  05EA  2DEC               	goto	u2810
  3516  05EB                     u2811:
  3517  05EB  2DEE               	goto	l2953
  3518  05EC                     u2810:
  3519  05EC  2E3B               	goto	l2973
  3520                           opt subtitle "HI-TECH Software Omniscient Code Generator (Lite mode) build 49521"
  3521                           
  3522  05ED                     l2951:	
  3523                           opt subtitle "HI-TECH Software Omniscient Code Generator (Lite mode) build 49521"
  3524  05ED  2E3B               	goto	l2973
  3525                           opt subtitle "HI-TECH Software Omniscient Code Generator (Lite mode) build 49521"
  3526  05EE                     l355:	
  3527                           opt subtitle "HI-TECH Software Omniscient Code Generator (Lite mode) build 49521"
  3528                           
  3529  05EE                     l2953:	
  3530  05EE  3001               	movlw	(01h)
  3531  05EF  00C5               	movwf	(??_printf+0)+0
  3532  05F0  0845               	movf	(??_printf+0)+0,w
  3533  05F1  07D0               	addwf	(printf@c),f
  3534                           opt subtitle "HI-TECH Software Omniscient Code Generator (Lite mode) build 49521"
  3535  05F2                     l2955:	
  3536  05F2  0850               	movf	(printf@c),w
  3537  05F3  3A05               	xorlw	05h
  3538  05F4  1D03               	skipz
  3539  05F5  2DF7               	goto	u2821
  3540  05F6  2DF8               	goto	u2820
  3541  05F7                     u2821:
  3542  05F7  2DCD               	goto	l2949
  3543  05F8                     u2820:
  3544  05F8  2E3B               	goto	l2973
  3545                           opt subtitle "HI-TECH Software Omniscient Code Generator (Lite mode) build 49521"
  3546  05F9                     l354:	
  3547                           opt subtitle "HI-TECH Software Omniscient Code Generator (Lite mode) build 49521"
  3548                           
  3549  05F9  2E3B               	goto	l2973
  3550                           opt subtitle "HI-TECH Software Omniscient Code Generator (Lite mode) build 49521"
  3551                           
  3552                           opt pagewidth 120
  3553  05FA                     l357:	
  3554                           opt subtitle "HI-TECH Software Omniscient Code Generator (Lite mode) build 49521"
  3555                           
  3556  05FA  01D0               	clrf	(printf@c)
  3557  05FB  0AD0               	incf	(printf@c),f
  3558                           opt subtitle "HI-TECH Software Omniscient Code Generator (Lite mode) build 49521"
  3559  05FC                     l2957:	
  3560  05FC  0850               	movf	(printf@c),w
  3561  05FD  3A04               	xorlw	04h
  3562  05FE  1D03               	skipz
  3563  05FF  2E01               	goto	u2831
  3564  0600  2E02               	goto	u2830
  3565  0601                     u2831:
  3566  0601  2E04               	goto	l2961
  3567  0602                     u2830:
  3568  0602  2E3B               	goto	l2973
  3569                           opt subtitle "HI-TECH Software Omniscient Code Generator (Lite mode) build 49521"
  3570  0603                     l2959:	
  3571  0603  2E3B               	goto	l2973
  3572                           opt subtitle "HI-TECH Software Omniscient Code Generator (Lite mode) build 49521"
  3573                           
  3574  0604                     l358:	
  3575                           opt subtitle "HI-TECH Software Omniscient Code Generator (Lite mode) build 49521"
  3576  0604                     l2961:	
  3577                           opt subtitle "HI-TECH Software Omniscient Code Generator (Lite mode) build 49521"
  3578  0604  0850               	movf	(printf@c),w
  3579  0605  00C5               	movwf	(??_printf+0)+0
  3580  0606  0745               	addwf	(??_printf+0)+0,w
  3581  0607  3E8D               	addlw	low(_hexpowers|8000h)
  3582  0608  0084               	movwf	fsr0
  3583  0609  3090               	movlw	high(_hexpowers|8000h)
  3584  060A  1803               	skipnc
  3585  060B  3E01               	addlw	1
  3586  060C  00FF               	movwf	btemp+1
  3587  060D  160A  118A  2000   	fcall	stringtab
              120A  118A         
  3588  0612  00C6               	movwf	(??_printf+1)+0
  3589  0613  160A  118A  2000   	fcall	stringtab
              120A  118A         
  3590  0618  00C7               	movwf	(??_printf+1)+0+1
  3591  0619  0847               	movf	1+(??_printf+1)+0,w
  3592  061A  024D               	subwf	(printf@_val+1),w
  3593  061B  1D03               	skipz
  3594  061C  2E1F               	goto	u2845
  3595  061D  0846               	movf	0+(??_printf+1)+0,w
  3596  061E  024C               	subwf	(printf@_val),w
  3597  061F                     u2845:
  3598  061F  1803               	skipnc
  3599  0620  2E22               	goto	u2841
  3600  0621  2E23               	goto	u2840
  3601  0622                     u2841:
  3602  0622  2E25               	goto	l2965
  3603  0623                     u2840:
  3604  0623  2E3B               	goto	l2973
  3605                           opt subtitle "HI-TECH Software Omniscient Code Generator (Lite mode) build 49521"
  3606                           
  3607  0624                     l2963:	
  3608                           opt subtitle "HI-TECH Software Omniscient Code Generator (Lite mode) build 49521"
  3609  0624  2E3B               	goto	l2973
  3610                           opt subtitle "HI-TECH Software Omniscient Code Generator (Lite mode) build 49521"
  3611  0625                     l360:	
  3612                           opt subtitle "HI-TECH Software Omniscient Code Generator (Lite mode) build 49521"
  3613                           
  3614  0625                     l2965:	
  3615  0625  3001               	movlw	(01h)
  3616  0626  00C5               	movwf	(??_printf+0)+0
  3617  0627  0845               	movf	(??_printf+0)+0,w
  3618  0628  07D0               	addwf	(printf@c),f
  3619                           opt subtitle "HI-TECH Software Omniscient Code Generator (Lite mode) build 49521"
  3620  0629                     l2967:	
  3621  0629  0850               	movf	(printf@c),w
  3622  062A  3A04               	xorlw	04h
  3623  062B  1D03               	skipz
  3624  062C  2E2E               	goto	u2851
  3625  062D  2E2F               	goto	u2850
  3626  062E                     u2851:
  3627  062E  2E04               	goto	l2961
  3628  062F                     u2850:
  3629  062F  2E3B               	goto	l2973
  3630                           opt subtitle "HI-TECH Software Omniscient Code Generator (Lite mode) build 49521"
  3631  0630                     l359:	
  3632                           opt subtitle "HI-TECH Software Omniscient Code Generator (Lite mode) build 49521"
  3633                           
  3634  0630  2E3B               	goto	l2973
  3635                           opt subtitle "HI-TECH Software Omniscient Code Generator (Lite mode) build 49521"
  3636                           
  3637  0631                     l2969:	
  3638                           opt subtitle "HI-TECH Software Omniscient Code Generator (Lite mode) build 49521"
  3639  0631  2E3B               	goto	l2973
  3640                           opt subtitle "HI-TECH Software Omniscient Code Generator (Lite mode) build 49521"
  3641                           
  3642  0632                     l351:	
  3643                           opt subtitle "HI-TECH Software Omniscient Code Generator (Lite mode) build 49521"
  3644  0632                     l2971:	
  3645  0632  084B               	movf	(printf@flag),w
  3646  0633  3980               	andlw	080h
  3647                           opt subtitle "HI-TECH Software Omniscient Code Generator (Lite mode) build 49521"
  3648                           
  3649                           opt pagewidth 120
  3650                           
  3651                           	opt lm
  3652                           
  3653                           	processor	16F707
  3654                           clrc	macro
  3655                           	bcf	3,0
  3656                           	endm
  3657                           clrz	macro
  3658                           	bcf	3,2
  3659  0634  3A00               	xorlw	0^0	; case 0
  3660  0635  1903               	skipnz
  3661  0636  2DC3               	goto	l352
  3662  0637  3A80               	xorlw	128^0	; case 128
  3663  0638  1903               	skipnz
  3664  0639  2DFA               	goto	l357
  3665  063A  2E3B               	goto	l2973
  3666                           opt subtitle "HI-TECH Software Omniscient Code Generator (Lite mode) build 49521"
  3667                           
  3668                           opt pagewidth 120
  3669                           
  3670  063B                     l356:	
  3671                           opt subtitle "HI-TECH Software Omniscient Code Generator (Lite mode) build 49521"
  3672                           
  3673  063B                     l2973:	
  3674                           opt subtitle "HI-TECH Software Omniscient Code Generator (Lite mode) build 49521"
  3675                           
  3676  063B  084B               	movf	(printf@flag),w
  3677  063C  3903               	andlw	03h
  3678  063D  1903               	btfsc	status,2
  3679  063E  2E40               	goto	u2861
  3680  063F  2E41               	goto	u2860
  3681  0640                     u2861:
  3682  0640  2E48               	goto	l2977
  3683  0641                     u2860:
  3684                           opt subtitle "HI-TECH Software Omniscient Code Generator (Lite mode) build 49521"
  3685                           
  3686  0641                     l2975:	
  3687                           opt subtitle "HI-TECH Software Omniscient Code Generator (Lite mode) build 49521"
  3688  0641  302D               	movlw	(02Dh)
  3689  0642  120A  158A  2282   	fcall	_putch
              120A  118A         
  3690  0647  2E48               	goto	l2977
  3691                           opt subtitle "HI-TECH Software Omniscient Code Generator (Lite mode) build 49521"
  3692  0648                     l361:	
  3693                           opt subtitle "HI-TECH Software Omniscient Code Generator (Lite mode) build 49521"
  3694                           
  3695  0648                     l2977:	
  3696                           opt subtitle "HI-TECH Software Omniscient Code Generator (Lite mode) build 49521"
  3697                           
  3698  0648  1283               	bcf	status, 5	;RP0=0, select bank0
  3699  0649  1303               	bcf	status, 6	;RP1=0, select bank0
  3700  064A  0850               	movf	(printf@c),w
  3701  064B  00C5               	movwf	(??_printf+0)+0
  3702  064C  0845               	movf	(??_printf+0)+0,w
  3703  064D  00CA               	movwf	(printf@prec)
  3704                           opt subtitle "HI-TECH Software Omniscient Code Generator (Lite mode) build 49521"
  3705                           
  3706  064E  2ED1               	goto	l2991
  3707                           opt subtitle "HI-TECH Software Omniscient Code Generator (Lite mode) build 49521"
  3708  064F                     l363:	
  3709                           opt subtitle "HI-TECH Software Omniscient Code Generator (Lite mode) build 49521"
  3710                           
  3711  064F  2EC1               	goto	l2987
  3712                           opt subtitle "HI-TECH Software Omniscient Code Generator (Lite mode) build 49521"
  3713                           
  3714                           opt pagewidth 120
  3715                           
  3716  0650                     l365:	
  3717                           opt subtitle "HI-TECH Software Omniscient Code Generator (Lite mode) build 49521"
  3718                           
  3719  0650                     l2979:	
  3720                           opt subtitle "HI-TECH Software Omniscient Code Generator (Lite mode) build 49521"
  3721  0650  300A               	movlw	low(0Ah)
  3722  0651  00BB               	movwf	(?___lwmod)
  3723  0652  3000               	movlw	high(0Ah)
  3724  0653  00BC               	movwf	((?___lwmod))+1
  3725  0654  084A               	movf	(printf@prec),w
  3726  0655  00C5               	movwf	(??_printf+0)+0
  3727  0656  0745               	addwf	(??_printf+0)+0,w
  3728  0657  3E83               	addlw	low(_dpowers|8000h)
  3729  0658  0084               	movwf	fsr0
  3730  0659  3090               	movlw	high(_dpowers|8000h)
  3731  065A  1803               	skipnc
  3732  065B  3E01               	addlw	1
  3733  065C  00FF               	movwf	btemp+1
  3734  065D  160A  118A  2000   	fcall	stringtab
              120A  118A         
  3735  0662  00B3               	movwf	(?___lwdiv)
  3736  0663  160A  118A  2000   	fcall	stringtab
              120A  118A         
  3737  0668  00B4               	movwf	(?___lwdiv+1)
  3738  0669  084D               	movf	(printf@_val+1),w
  3739  066A  01B6               	clrf	1+(?___lwdiv)+02h
  3740  066B  07B6               	addwf	1+(?___lwdiv)+02h
  3741  066C  084C               	movf	(printf@_val),w
  3742  066D  01B5               	clrf	0+(?___lwdiv)+02h
  3743  066E  07B5               	addwf	0+(?___lwdiv)+02h
  3744                           opt subtitle "HI-TECH Software Omniscient Code Generator (Lite mode) build 49521"
  3745  066F  120A  158A  258F   	fcall	___lwdiv
              120A  118A         
  3746  0674  1283               	bcf	status, 5	;RP0=0, select bank0
  3747  0675  1303               	bcf	status, 6	;RP1=0, select bank0
  3748  0676  0834               	movf	(1+(?___lwdiv)),w
  3749  0677  01BE               	clrf	1+(?___lwmod)+02h
  3750  0678  07BE               	addwf	1+(?___lwmod)+02h
  3751  0679  0833               	movf	(0+(?___lwdiv)),w
  3752  067A  01BD               	clrf	0+(?___lwmod)+02h
  3753  067B  07BD               	addwf	0+(?___lwmod)+02h
  3754                           opt subtitle "HI-TECH Software Omniscient Code Generator (Lite mode) build 49521"
  3755  067C  120A  158A  24FD   	fcall	___lwmod
              120A  118A         
  3756  0681  1283               	bcf	status, 5	;RP0=0, select bank0
  3757  0682  1303               	bcf	status, 6	;RP1=0, select bank0
  3758  0683  083B               	movf	(0+(?___lwmod)),w
  3759  0684  3E30               	addlw	030h
  3760  0685  00C6               	movwf	(??_printf+1)+0
  3761  0686  0846               	movf	(??_printf+1)+0,w
  3762  0687  00D0               	movwf	(printf@c)
  3763                           opt subtitle "HI-TECH Software Omniscient Code Generator (Lite mode) build 49521"
  3764                           
  3765  0688  2ECA               	goto	l2989
  3766                           opt subtitle "HI-TECH Software Omniscient Code Generator (Lite mode) build 49521"
  3767                           
  3768                           opt pagewidth 120
  3769  0689                     l367:	
  3770                           opt subtitle "HI-TECH Software Omniscient Code Generator (Lite mode) build 49521"
  3771                           
  3772  0689                     l2981:	
  3773                           opt subtitle "HI-TECH Software Omniscient Code Generator (Lite mode) build 49521"
  3774                           
  3775  0689  084A               	movf	(printf@prec),w
  3776  068A  00C5               	movwf	(??_printf+0)+0
  3777  068B  0745               	addwf	(??_printf+0)+0,w
  3778  068C  3E8D               	addlw	low(_hexpowers|8000h)
  3779  068D  0084               	movwf	fsr0
  3780  068E  3090               	movlw	high(_hexpowers|8000h)
  3781  068F  1803               	skipnc
  3782  0690  3E01               	addlw	1
  3783  0691  00FF               	movwf	btemp+1
  3784  0692  160A  118A  2000   	fcall	stringtab
              120A  118A         
  3785  0697  00B3               	movwf	(?___lwdiv)
  3786  0698  160A  118A  2000   	fcall	stringtab
              120A  118A         
  3787  069D  00B4               	movwf	(?___lwdiv+1)
  3788  069E  084D               	movf	(printf@_val+1),w
  3789  069F  01B6               	clrf	1+(?___lwdiv)+02h
  3790  06A0  07B6               	addwf	1+(?___lwdiv)+02h
  3791  06A1  084C               	movf	(printf@_val),w
  3792  06A2  01B5               	clrf	0+(?___lwdiv)+02h
  3793  06A3  07B5               	addwf	0+(?___lwdiv)+02h
  3794                           opt subtitle "HI-TECH Software Omniscient Code Generator (Lite mode) build 49521"
  3795  06A4  120A  158A  258F   	fcall	___lwdiv
              120A  118A         
  3796  06A9  1283               	bcf	status, 5	;RP0=0, select bank0
  3797  06AA  1303               	bcf	status, 6	;RP1=0, select bank0
  3798  06AB  0833               	movf	(0+(?___lwdiv)),w
  3799  06AC  390F               	andlw	0Fh
  3800  06AD  00C6               	movwf	(??_printf+1)+0
  3801  06AE  0846               	movf	(??_printf+1)+0,w
  3802  06AF  00C8               	movwf	(printf@idx)
  3803                           opt subtitle "HI-TECH Software Omniscient Code Generator (Lite mode) build 49521"
  3804                           
  3805  06B0                     l2983:	
  3806                           opt subtitle "HI-TECH Software Omniscient Code Generator (Lite mode) build 49521"
  3807  06B0  0848               	movf	(printf@idx),w
  3808  06B1  3E11               	addlw	low(STR_14|8000h)
  3809  06B2  0084               	movwf	fsr0
  3810  06B3  3091               	movlw	high(STR_14|8000h)
  3811  06B4  1803               	skipnc
  3812  06B5  3E01               	addlw	1
  3813  06B6  00FF               	movwf	btemp+1
  3814  06B7  160A  118A  2000   	fcall	stringtab
              120A  118A         
  3815  06BC  00C5               	movwf	(??_printf+0)+0
  3816  06BD  0845               	movf	(??_printf+0)+0,w
  3817  06BE  00D0               	movwf	(printf@c)
  3818                           opt subtitle "HI-TECH Software Omniscient Code Generator (Lite mode) build 49521"
  3819                           
  3820                           opt pagewidth 120
  3821  06BF  2ECA               	goto	l2989
  3822                           opt subtitle "HI-TECH Software Omniscient Code Generator (Lite mode) build 49521"
  3823                           
  3824  06C0                     l2985:	
  3825                           opt subtitle "HI-TECH Software Omniscient Code Generator (Lite mode) build 49521"
  3826  06C0  2ECA               	goto	l2989
  3827                           opt subtitle "HI-TECH Software Omniscient Code Generator (Lite mode) build 49521"
  3828                           
  3829  06C1                     l364:	
  3830                           opt subtitle "HI-TECH Software Omniscient Code Generator (Lite mode) build 49521"
  3831  06C1                     l2987:	
  3832  06C1  084B               	movf	(printf@flag),w
  3833  06C2  3980               	andlw	080h
  3834                           opt subtitle "HI-TECH Software Omniscient Code Generator (Lite mode) build 49521"
  3835                           
  3836                           opt pagewidth 120
  3837                           
  3838                           	opt lm
  3839                           
  3840                           	processor	16F707
  3841                           clrc	macro
  3842                           	bcf	3,0
  3843                           	endm
  3844                           clrz	macro
  3845                           	bcf	3,2
  3846  06C3  3A00               	xorlw	0^0	; case 0
  3847  06C4  1903               	skipnz
  3848  06C5  2E50               	goto	l2979
  3849  06C6  3A80               	xorlw	128^0	; case 128
  3850  06C7  1903               	skipnz
  3851  06C8  2E89               	goto	l2981
  3852  06C9  2ECA               	goto	l2989
  3853                           opt subtitle "HI-TECH Software Omniscient Code Generator (Lite mode) build 49521"
  3854                           
  3855                           opt pagewidth 120
  3856                           
  3857  06CA                     l366:	
  3858                           opt subtitle "HI-TECH Software Omniscient Code Generator (Lite mode) build 49521"
  3859                           
  3860  06CA                     l2989:	
  3861                           opt subtitle "HI-TECH Software Omniscient Code Generator (Lite mode) build 49521"
  3862  06CA  0850               	movf	(printf@c),w
  3863  06CB  120A  158A  2282   	fcall	_putch
              120A  118A         
  3864  06D0  2ED1               	goto	l2991
  3865                           opt subtitle "HI-TECH Software Omniscient Code Generator (Lite mode) build 49521"
  3866                           
  3867  06D1                     l362:	
  3868                           opt subtitle "HI-TECH Software Omniscient Code Generator (Lite mode) build 49521"
  3869                           
  3870  06D1                     l2991:	
  3871  06D1  30FF               	movlw	(-1)
  3872  06D2  1283               	bcf	status, 5	;RP0=0, select bank0
  3873  06D3  1303               	bcf	status, 6	;RP1=0, select bank0
  3874  06D4  00C5               	movwf	(??_printf+0)+0
  3875  06D5  0845               	movf	(??_printf+0)+0,w
  3876  06D6  07CA               	addwf	(printf@prec),f
  3877  06D7  084A               	movf	((printf@prec)),w
  3878  06D8  3AFF               	xorlw	-1
  3879  06D9  1D03               	skipz
  3880  06DA  2EDC               	goto	u2871
  3881  06DB  2EDD               	goto	u2870
  3882  06DC                     u2871:
  3883  06DC  2EC1               	goto	l2987
  3884  06DD                     u2870:
  3885  06DD  2EDF               	goto	l2993
  3886                           opt subtitle "HI-TECH Software Omniscient Code Generator (Lite mode) build 49521"
  3887  06DE                     l368:	
  3888  06DE  2EDF               	goto	l2993
  3889                           opt subtitle "HI-TECH Software Omniscient Code Generator (Lite mode) build 49521"
  3890                           
  3891  06DF                     l336:	
  3892                           opt subtitle "HI-TECH Software Omniscient Code Generator (Lite mode) build 49521"
  3893                           
  3894  06DF                     l2993:	
  3895  06DF  1283               	bcf	status, 5	;RP0=0, select bank0
  3896  06E0  1303               	bcf	status, 6	;RP1=0, select bank0
  3897  06E1  0842               	movf	(printf@f+1),w
  3898  06E2  00C6               	movwf	(??_printf+0)+0+1
  3899  06E3  0841               	movf	(printf@f),w
  3900  06E4  00C5               	movwf	(??_printf+0)+0
  3901  06E5  3001               	movlw	(01h)
  3902  06E6  07C1               	addwf	(printf@f),f
  3903  06E7  1803               	skipnc
  3904  06E8  0AC2               	incf	(printf@f+1),f
  3905  06E9  0846               	movf	1+(??_printf+0)+0,w
  3906  06EA  00FF               	movwf	btemp+1
  3907  06EB  0845               	movf	0+(??_printf+0)+0,w
  3908  06EC  0084               	movwf	fsr0
  3909  06ED  160A  118A  2000   	fcall	stringtab
              120A  118A         
  3910  06F2  00C7               	movwf	(??_printf+2)+0
  3911  06F3  0847               	movf	(??_printf+2)+0,w
  3912  06F4  00D0               	movwf	(printf@c)
  3913  06F5  08D0               	movf	((printf@c)),f
  3914  06F6  1D03               	skipz
  3915  06F7  2EF9               	goto	u2881
  3916  06F8  2EFA               	goto	u2880
  3917  06F9                     u2881:
  3918  06F9  2D54               	goto	l2921
  3919  06FA                     u2880:
  3920  06FA  2EFC               	goto	l370
  3921                           opt subtitle "HI-TECH Software Omniscient Code Generator (Lite mode) build 49521"
  3922  06FB                     l369:	
  3923  06FB  2EFC               	goto	l370
  3924                           opt subtitle "HI-TECH Software Omniscient Code Generator (Lite mode) build 49521"
  3925                           
  3926                           opt pagewidth 120
  3927                           
  3928                           	opt lm
  3929  06FC                     l341:	
  3930                           opt subtitle "HI-TECH Software Omniscient Code Generator (Lite mode) build 49521"
  3931                           
  3932                           opt pagewidth 120
  3933                           
  3934  06FC                     l370:	
  3935  06FC  0008               	return
  3936                           opt subtitle "HI-TECH Software Omniscient Code Generator (Lite mode) build 49521"
  3937                           
  3938  06FD                     	__end_of_printf:
  3939                           opt subtitle "HI-TECH Software Omniscient Code Generator (Lite mode) build 49521"
  3940                           
  3941                           opt pagewidth 120
  3942                           
  3943                           	opt lm
  3944                           
  3945                           	processor	16F707
  3946                           clrc	macro
  3947                           	bcf	3,0
  3948                           	endm
  3949                           clrz	macro
  3950                           	bcf	3,2
  3951                           	endm
  3952                           setc	macro
  3953                           	bsf	3,0
  3954                           	endm
  3955                           setz	macro
  3956                           	bsf	3,2
  3957                           	endm
  3958                           skipc	macro
  3959                           	btfss	3,0
  3960                           	endm
  3961                           skipz	macro
  3962                           	btfss	3,2
  3963                           	endm
  3964                           skipnc	macro
  3965                           	btfsc	3,0
  3966                           	endm
  3967                           skipnz	macro
  3968                           	btfsc	3,2
  3969                           	endm
  3970                           indf	equ	0
  3971                           indf0	equ	0
  3972                           pc	equ	2
  3973  0ABA                     __ptext996:	;psect for function _spiInit
  3974                           opt subtitle "HI-TECH Software Omniscient Code Generator (Lite mode) build 49521"
  3975                           
  3976                           opt pagewidth 120
  3977                           
  3978  0018                     	__size_of_spiInit	equ	__end_of_spiInit-_spiInit
  3979                           opt subtitle "HI-TECH Software Omniscient Code Generator (Lite mode) build 49521"
  3980  0ABA                     _spiInit:	
  3981                           opt subtitle "HI-TECH Software Omniscient Code Generator (Lite mode) build 49521"
  3982                           
  3983                           opt pagewidth 120
  3984                           
  3985  0ABA                     l3149:	
  3986                           opt subtitle "HI-TECH Software Omniscient Code Generator (Lite mode) build 49521"
  3987  0ABA  1283               	bcf	status, 5	;RP0=0, select bank0
  3988  0ABB  1303               	bcf	status, 6	;RP1=0, select bank0
  3989  0ABC  1694               	bsf	(20),5	;volatile
  3990                           opt subtitle "HI-TECH Software Omniscient Code Generator (Lite mode) build 49521"
  3991                           
  3992  0ABD  1214               	bcf	(20),4	;volatile
  3993                           opt subtitle "HI-TECH Software Omniscient Code Generator (Lite mode) build 49521"
  3994                           
  3995  0ABE                     l3151:	
  3996                           opt subtitle "HI-TECH Software Omniscient Code Generator (Lite mode) build 49521"
  3997  0ABE  0814               	movf	(20),w	;volatile
  3998  0ABF  39F0               	andlw	not (((1<<4)-1)<<0)
  3999  0AC0  3802               	iorlw	(02h & ((1<<4)-1))<<0
  4000  0AC1  0094               	movwf	(20)	;volatile
  4001                           opt subtitle "HI-TECH Software Omniscient Code Generator (Lite mode) build 49521"
  4002                           
  4003  0AC2                     l3153:	
  4004                           opt subtitle "HI-TECH Software Omniscient Code Generator (Lite mode) build 49521"
  4005  0AC2  1683               	bsf	status, 5	;RP0=1, select bank1
  4006  0AC3  1303               	bcf	status, 6	;RP1=0, select bank1
  4007  0AC4  1394               	bcf	(148)^080h,7	;volatile
  4008                           opt subtitle "HI-TECH Software Omniscient Code Generator (Lite mode) build 49521"
  4009                           
  4010  0AC5                     l3155:	
  4011                           opt subtitle "HI-TECH Software Omniscient Code Generator (Lite mode) build 49521"
  4012  0AC5  1714               	bsf	(148)^080h,6	;volatile
  4013                           opt subtitle "HI-TECH Software Omniscient Code Generator (Lite mode) build 49521"
  4014                           
  4015  0AC6                     l3157:	
  4016                           opt subtitle "HI-TECH Software Omniscient Code Generator (Lite mode) build 49521"
  4017                           
  4018  0AC6  3082               movlw	130
  4019  0AC7  1283               	bcf	status, 5	;RP0=0, select bank0
  4020  0AC8  1303               	bcf	status, 6	;RP1=0, select bank0
  4021  0AC9  00B4               movwf	((??_spiInit+0)+0+1),f
  4022  0ACA  30DD               	movlw	221
  4023  0ACB  00B3               movwf	((??_spiInit+0)+0),f
  4024  0ACC                     u3757:
  4025  0ACC  0BB3               	decfsz	((??_spiInit+0)+0),f
  4026  0ACD  2ACC               	goto	u3757
  4027  0ACE  0BB4               	decfsz	((??_spiInit+0)+0+1),f
  4028  0ACF  2ACC               	goto	u3757
  4029  0AD0  2AD1               	nop2
  4030                           opt subtitle "HI-TECH Software Omniscient Code Generator (Lite mode) build 49521"
  4031                           
  4032                           opt pagewidth 120
  4033                           
  4034  0AD1                     l164:	
  4035  0AD1  0008               	return
  4036                           opt subtitle "HI-TECH Software Omniscient Code Generator (Lite mode) build 49521"
  4037                           
  4038  0AD2                     	__end_of_spiInit:
  4039                           opt subtitle "HI-TECH Software Omniscient Code Generator (Lite mode) build 49521"
  4040                           
  4041                           opt pagewidth 120
  4042                           
  4043                           	opt lm
  4044                           
  4045                           	processor	16F707
  4046                           clrc	macro
  4047                           	bcf	3,0
  4048                           	endm
  4049                           clrz	macro
  4050                           	bcf	3,2
  4051                           	endm
  4052                           setc	macro
  4053                           	bsf	3,0
  4054                           	endm
  4055                           setz	macro
  4056                           	bsf	3,2
  4057                           	endm
  4058                           skipc	macro
  4059                           	btfss	3,0
  4060                           	endm
  4061                           skipz	macro
  4062                           	btfss	3,2
  4063                           	endm
  4064                           skipnc	macro
  4065                           	btfsc	3,0
  4066                           	endm
  4067                           skipnz	macro
  4068                           	btfsc	3,2
  4069                           	endm
  4070                           indf	equ	0
  4071                           indf0	equ	0
  4072                           pc	equ	2
  4073  0AA4                     __ptext997:	;psect for function _uartInit
  4074                           opt subtitle "HI-TECH Software Omniscient Code Generator (Lite mode) build 49521"
  4075                           
  4076                           opt pagewidth 120
  4077                           
  4078  0016                     	__size_of_uartInit	equ	__end_of_uartInit-_uartInit
  4079                           opt subtitle "HI-TECH Software Omniscient Code Generator (Lite mode) build 49521"
  4080  0AA4                     _uartInit:	
  4081                           opt subtitle "HI-TECH Software Omniscient Code Generator (Lite mode) build 49521"
  4082                           
  4083                           opt pagewidth 120
  4084                           
  4085  0AA4                     l3159:	
  4086                           opt subtitle "HI-TECH Software Omniscient Code Generator (Lite mode) build 49521"
  4087  0AA4  1683               	bsf	status, 5	;RP0=1, select bank1
  4088  0AA5  1303               	bcf	status, 6	;RP1=0, select bank1
  4089  0AA6  1787               	bsf	(135)^080h,7	;volatile
  4090                           opt subtitle "HI-TECH Software Omniscient Code Generator (Lite mode) build 49521"
  4091                           
  4092  0AA7  1307               	bcf	(135)^080h,6	;volatile
  4093                           opt subtitle "HI-TECH Software Omniscient Code Generator (Lite mode) build 49521"
  4094                           
  4095  0AA8                     l3161:	
  4096                           opt subtitle "HI-TECH Software Omniscient Code Generator (Lite mode) build 49521"
  4097  0AA8  3002               	movlw	(02h)
  4098  0AA9  0098               	movwf	(152)^080h	;volatile
  4099                           opt subtitle "HI-TECH Software Omniscient Code Generator (Lite mode) build 49521"
  4100                           
  4101  0AAA                     l3163:	
  4102                           opt subtitle "HI-TECH Software Omniscient Code Generator (Lite mode) build 49521"
  4103  0AAA  1283               	bcf	status, 5	;RP0=0, select bank0
  4104  0AAB  1303               	bcf	status, 6	;RP1=0, select bank0
  4105  0AAC  0198               	clrf	(24)	;volatile
  4106                           opt subtitle "HI-TECH Software Omniscient Code Generator (Lite mode) build 49521"
  4107                           
  4108  0AAD                     l3165:	
  4109                           opt subtitle "HI-TECH Software Omniscient Code Generator (Lite mode) build 49521"
  4110  0AAD  1683               	bsf	status, 5	;RP0=1, select bank1
  4111  0AAE  1303               	bcf	status, 6	;RP1=0, select bank1
  4112  0AAF  1118               	bcf	(152)^080h,2	;volatile
  4113                           opt subtitle "HI-TECH Software Omniscient Code Generator (Lite mode) build 49521"
  4114                           
  4115  0AB0                     l3167:	
  4116                           opt subtitle "HI-TECH Software Omniscient Code Generator (Lite mode) build 49521"
  4117  0AB0  1218               	bcf	(152)^080h,4	;volatile
  4118                           opt subtitle "HI-TECH Software Omniscient Code Generator (Lite mode) build 49521"
  4119                           
  4120  0AB1                     l3169:	
  4121                           opt subtitle "HI-TECH Software Omniscient Code Generator (Lite mode) build 49521"
  4122  0AB1  300C               	movlw	(0Ch)
  4123  0AB2  0099               	movwf	(153)^080h	;volatile
  4124                           opt subtitle "HI-TECH Software Omniscient Code Generator (Lite mode) build 49521"
  4125                           
  4126  0AB3                     l3171:	
  4127                           opt subtitle "HI-TECH Software Omniscient Code Generator (Lite mode) build 49521"
  4128  0AB3  1283               	bcf	status, 5	;RP0=0, select bank0
  4129  0AB4  1303               	bcf	status, 6	;RP1=0, select bank0
  4130  0AB5  1798               	bsf	(24),7	;volatile
  4131                           opt subtitle "HI-TECH Software Omniscient Code Generator (Lite mode) build 49521"
  4132                           
  4133  0AB6                     l3173:	
  4134                           opt subtitle "HI-TECH Software Omniscient Code Generator (Lite mode) build 49521"
  4135  0AB6  1683               	bsf	status, 5	;RP0=1, select bank1
  4136  0AB7  1303               	bcf	status, 6	;RP1=0, select bank1
  4137  0AB8  1698               	bsf	(152)^080h,5	;volatile
  4138                           opt subtitle "HI-TECH Software Omniscient Code Generator (Lite mode) build 49521"
  4139                           
  4140  0AB9                     l161:	
  4141  0AB9  0008               	return
  4142                           opt subtitle "HI-TECH Software Omniscient Code Generator (Lite mode) build 49521"
  4143                           
  4144  0ABA                     	__end_of_uartInit:
  4145                           opt subtitle "HI-TECH Software Omniscient Code Generator (Lite mode) build 49521"
  4146                           
  4147                           opt pagewidth 120
  4148                           
  4149                           	opt lm
  4150                           
  4151                           	processor	16F707
  4152                           clrc	macro
  4153                           	bcf	3,0
  4154                           	endm
  4155                           clrz	macro
  4156                           	bcf	3,2
  4157                           	endm
  4158                           setc	macro
  4159                           	bsf	3,0
  4160                           	endm
  4161                           setz	macro
  4162                           	bsf	3,2
  4163                           	endm
  4164                           skipc	macro
  4165                           	btfss	3,0
  4166                           	endm
  4167                           skipz	macro
  4168                           	btfss	3,2
  4169                           	endm
  4170                           skipnc	macro
  4171                           	btfsc	3,0
  4172                           	endm
  4173                           skipnz	macro
  4174                           	btfsc	3,2
  4175                           	endm
  4176                           indf	equ	0
  4177                           indf0	equ	0
  4178                           pc	equ	2
  4179  0A6C                     __ptext998:	;psect for function _adcInit
  4180                           opt subtitle "HI-TECH Software Omniscient Code Generator (Lite mode) build 49521"
  4181                           
  4182                           opt pagewidth 120
  4183                           
  4184  000A                     	__size_of_adcInit	equ	__end_of_adcInit-_adcInit
  4185                           opt subtitle "HI-TECH Software Omniscient Code Generator (Lite mode) build 49521"
  4186  0A6C                     _adcInit:	
  4187                           opt subtitle "HI-TECH Software Omniscient Code Generator (Lite mode) build 49521"
  4188                           
  4189                           opt pagewidth 120
  4190                           
  4191  0A6C                     l3175:	
  4192                           opt subtitle "HI-TECH Software Omniscient Code Generator (Lite mode) build 49521"
  4193  0A6C  1683               	bsf	status, 5	;RP0=1, select bank1
  4194  0A6D  1303               	bcf	status, 6	;RP1=0, select bank1
  4195  0A6E  081F               	movf	(159)^080h,w	;volatile
  4196  0A6F  398F               	andlw	not (((1<<3)-1)<<4)
  4197  0A70  3810               	iorlw	(01h & ((1<<3)-1))<<4
  4198  0A71  009F               	movwf	(159)^080h	;volatile
  4199                           opt subtitle "HI-TECH Software Omniscient Code Generator (Lite mode) build 49521"
  4200                           
  4201  0A72  3003               	movlw	(03h & ((1<<2)-1))<<0
  4202  0A73  049F               	iorwf	(159)^080h,f	;volatile
  4203                           opt subtitle "HI-TECH Software Omniscient Code Generator (Lite mode) build 49521"
  4204                           
  4205  0A74                     l3177:	
  4206                           opt subtitle "HI-TECH Software Omniscient Code Generator (Lite mode) build 49521"
  4207  0A74  171D               	bsf	(157)^080h,6	;volatile
  4208                           opt subtitle "HI-TECH Software Omniscient Code Generator (Lite mode) build 49521"
  4209                           
  4210  0A75                     l167:	
  4211  0A75  0008               	return
  4212                           opt subtitle "HI-TECH Software Omniscient Code Generator (Lite mode) build 49521"
  4213                           
  4214  0A76                     	__end_of_adcInit:
  4215                           opt subtitle "HI-TECH Software Omniscient Code Generator (Lite mode) build 49521"
  4216                           
  4217                           opt pagewidth 120
  4218                           
  4219                           	opt lm
  4220                           
  4221                           	processor	16F707
  4222                           clrc	macro
  4223                           	bcf	3,0
  4224                           	endm
  4225                           clrz	macro
  4226                           	bcf	3,2
  4227                           	endm
  4228                           setc	macro
  4229                           	bsf	3,0
  4230                           	endm
  4231                           setz	macro
  4232                           	bsf	3,2
  4233                           	endm
  4234                           skipc	macro
  4235                           	btfss	3,0
  4236                           	endm
  4237                           skipz	macro
  4238                           	btfss	3,2
  4239                           	endm
  4240                           skipnc	macro
  4241                           	btfsc	3,0
  4242                           	endm
  4243                           skipnz	macro
  4244                           	btfsc	3,2
  4245                           	endm
  4246                           indf	equ	0
  4247                           indf0	equ	0
  4248                           pc	equ	2
  4249                           pcl	equ	2
  4250                           status	equ	3
  4251  0B49                     __ptext999:	;psect for function _rfm70setPowerdownMode
  4252                           opt subtitle "HI-TECH Software Omniscient Code Generator (Lite mode) build 49521"
  4253                           
  4254                           opt pagewidth 120
  4255                           
  4256  0025                     	__size_of_rfm70setPowerdownMode	equ	__end_of_rfm70setPowerdownMode-_rfm70setPowerdownMo
                                 de
  4257                           opt subtitle "HI-TECH Software Omniscient Code Generator (Lite mode) build 49521"
  4258  0B49                     _rfm70setPowerdownMode:	
  4259                           opt subtitle "HI-TECH Software Omniscient Code Generator (Lite mode) build 49521"
  4260                           
  4261                           opt pagewidth 120
  4262                           
  4263  0B49  1283               	bcf	status, 5	;RP0=0, select bank0
  4264  0B4A  1303               	bcf	status, 6	;RP1=0, select bank0
  4265  0B4B  00BA               	movwf	(rfm70setPowerdownMode@value)
  4266                           opt subtitle "HI-TECH Software Omniscient Code Generator (Lite mode) build 49521"
  4267  0B4C                     l3179:	
  4268                           opt subtitle "HI-TECH Software Omniscient Code Generator (Lite mode) build 49521"
  4269                           
  4270  0B4C  3000               	movlw	(0)
  4271  0B4D  120A  158A  22D2   	fcall	_SPI_Read_Reg
              120A  158A         
  4272  0B52  1283               	bcf	status, 5	;RP0=0, select bank0
  4273  0B53  1303               	bcf	status, 6	;RP1=0, select bank0
  4274  0B54  00B9               	movwf	(??_rfm70setPowerdownMode+0)+0
  4275  0B55  0839               	movf	(??_rfm70setPowerdownMode+0)+0,w
  4276  0B56  00BB               	movwf	(rfm70setPowerdownMode@reg)
  4277                           opt subtitle "HI-TECH Software Omniscient Code Generator (Lite mode) build 49521"
  4278                           
  4279  0B57                     l3181:	
  4280                           opt subtitle "HI-TECH Software Omniscient Code Generator (Lite mode) build 49521"
  4281  0B57  08BA               	movf	(rfm70setPowerdownMode@value),f
  4282  0B58  1D03               	skipz
  4283  0B59  2B5B               	goto	u2941
  4284  0B5A  2B5C               	goto	u2940
  4285  0B5B                     u2941:
  4286  0B5B  2B61               	goto	l321
  4287  0B5C                     u2940:
  4288                           opt subtitle "HI-TECH Software Omniscient Code Generator (Lite mode) build 49521"
  4289                           
  4290  0B5C                     l3183:	
  4291                           opt subtitle "HI-TECH Software Omniscient Code Generator (Lite mode) build 49521"
  4292  0B5C  30FD               	movlw	(0FDh)
  4293  0B5D  00B9               	movwf	(??_rfm70setPowerdownMode+0)+0
  4294  0B5E  0839               	movf	(??_rfm70setPowerdownMode+0)+0,w
  4295  0B5F  05BB               	andwf	(rfm70setPowerdownMode@reg),f
  4296                           opt subtitle "HI-TECH Software Omniscient Code Generator (Lite mode) build 49521"
  4297                           
  4298  0B60  2B63               	goto	l3185
  4299                           opt subtitle "HI-TECH Software Omniscient Code Generator (Lite mode) build 49521"
  4300                           
  4301  0B61                     l321:	
  4302                           opt subtitle "HI-TECH Software Omniscient Code Generator (Lite mode) build 49521"
  4303                           
  4304                           opt pagewidth 120
  4305  0B61  14BB               	bsf	(rfm70setPowerdownMode@reg)+(1/8),(1)&7
  4306  0B62  2B63               	goto	l3185
  4307                           opt subtitle "HI-TECH Software Omniscient Code Generator (Lite mode) build 49521"
  4308                           
  4309  0B63                     l322:	
  4310                           opt subtitle "HI-TECH Software Omniscient Code Generator (Lite mode) build 49521"
  4311                           
  4312  0B63                     l3185:	
  4313                           opt subtitle "HI-TECH Software Omniscient Code Generator (Lite mode) build 49521"
  4314                           
  4315  0B63  083B               	movf	(rfm70setPowerdownMode@reg),w
  4316  0B64  00B9               	movwf	(??_rfm70setPowerdownMode+0)+0
  4317  0B65  0839               	movf	(??_rfm70setPowerdownMode+0)+0,w
  4318  0B66  00B6               	movwf	(?_SPI_Write_Reg)
  4319  0B67  3020               	movlw	(020h)
  4320  0B68  120A  158A  228E   	fcall	_SPI_Write_Reg
              120A  158A         
  4321                           opt subtitle "HI-TECH Software Omniscient Code Generator (Lite mode) build 49521"
  4322                           
  4323  0B6D                     l323:	
  4324  0B6D  0008               	return
  4325                           opt subtitle "HI-TECH Software Omniscient Code Generator (Lite mode) build 49521"
  4326                           
  4327  0B6E                     	__end_of_rfm70setPowerdownMode:
  4328                           opt subtitle "HI-TECH Software Omniscient Code Generator (Lite mode) build 49521"
  4329                           
  4330                           opt pagewidth 120
  4331                           
  4332                           	opt lm
  4333                           
  4334                           	processor	16F707
  4335                           clrc	macro
  4336                           	bcf	3,0
  4337                           	endm
  4338                           clrz	macro
  4339                           	bcf	3,2
  4340                           	endm
  4341                           setc	macro
  4342                           	bsf	3,0
  4343                           	endm
  4344                           setz	macro
  4345                           	bsf	3,2
  4346                           	endm
  4347                           skipc	macro
  4348                           	btfss	3,0
  4349                           	endm
  4350                           skipz	macro
  4351                           	btfss	3,2
  4352                           	endm
  4353                           skipnc	macro
  4354                           	btfsc	3,0
  4355                           	endm
  4356                           skipnz	macro
  4357                           	btfsc	3,2
  4358                           	endm
  4359                           indf	equ	0
  4360                           indf0	equ	0
  4361                           pc	equ	2
  4362  0BC2                     __ptext1000:	;psect for function _adcReadVcap
  4363                           opt subtitle "HI-TECH Software Omniscient Code Generator (Lite mode) build 49521"
  4364                           
  4365                           opt pagewidth 120
  4366                           
  4367  002B                     	__size_of_adcReadVcap	equ	__end_of_adcReadVcap-_adcReadVcap
  4368                           opt subtitle "HI-TECH Software Omniscient Code Generator (Lite mode) build 49521"
  4369  0BC2                     _adcReadVcap:	
  4370                           opt subtitle "HI-TECH Software Omniscient Code Generator (Lite mode) build 49521"
  4371                           
  4372                           opt pagewidth 120
  4373                           
  4374  0BC2                     l3187:	
  4375                           opt subtitle "HI-TECH Software Omniscient Code Generator (Lite mode) build 49521"
  4376                           
  4377  0BC2  1283               	bcf	status, 5	;RP0=0, select bank0
  4378  0BC3  1303               	bcf	status, 6	;RP1=0, select bank0
  4379  0BC4  081F               	movf	(31),w	;volatile
  4380  0BC5  39C3               	andlw	not (((1<<4)-1)<<2)
  4381  0BC6  3814               	iorlw	(05h & ((1<<4)-1))<<2
  4382  0BC7  009F               	movwf	(31)	;volatile
  4383                           opt subtitle "HI-TECH Software Omniscient Code Generator (Lite mode) build 49521"
  4384                           
  4385  0BC8  1683               	bsf	status, 5	;RP0=1, select bank1
  4386  0BC9  1303               	bcf	status, 6	;RP1=0, select bank1
  4387  0BCA  081D               	movf	(157)^080h,w	;volatile
  4388  0BCB  39FC               	andlw	not (((1<<2)-1)<<0)
  4389  0BCC  3802               	iorlw	(02h & ((1<<2)-1))<<0
  4390  0BCD  009D               	movwf	(157)^080h	;volatile
  4391                           opt subtitle "HI-TECH Software Omniscient Code Generator (Lite mode) build 49521"
  4392                           
  4393  0BCE                     l3189:	
  4394                           opt subtitle "HI-TECH Software Omniscient Code Generator (Lite mode) build 49521"
  4395  0BCE  1283               	bcf	status, 5	;RP0=0, select bank0
  4396  0BCF  1303               	bcf	status, 6	;RP1=0, select bank0
  4397  0BD0  141F               	bsf	(31),0	;volatile
  4398                           opt subtitle "HI-TECH Software Omniscient Code Generator (Lite mode) build 49521"
  4399                           
  4400  0BD1                     l3191:	
  4401                           opt subtitle "HI-TECH Software Omniscient Code Generator (Lite mode) build 49521"
  4402  0BD1  1588               	bsf	(8),3	;volatile
  4403                           opt subtitle "HI-TECH Software Omniscient Code Generator (Lite mode) build 49521"
  4404                           
  4405  0BD2                     l3193:	
  4406                           opt subtitle "HI-TECH Software Omniscient Code Generator (Lite mode) build 49521"
  4407                           
  4408  0BD2  3003               movlw	3
  4409  0BD3  00B4               movwf	((??_adcReadVcap+0)+0+1),f
  4410  0BD4  3097               	movlw	151
  4411  0BD5  00B3               movwf	((??_adcReadVcap+0)+0),f
  4412  0BD6                     u3767:
  4413  0BD6  0BB3               	decfsz	((??_adcReadVcap+0)+0),f
  4414  0BD7  2BD6               	goto	u3767
  4415  0BD8  0BB4               	decfsz	((??_adcReadVcap+0)+0+1),f
  4416  0BD9  2BD6               	goto	u3767
  4417  0BDA  2BDB               	nop2
  4418                           opt subtitle "HI-TECH Software Omniscient Code Generator (Lite mode) build 49521"
  4419                           
  4420                           opt pagewidth 120
  4421                           
  4422  0BDB                     l3195:	
  4423                           opt subtitle "HI-TECH Software Omniscient Code Generator (Lite mode) build 49521"
  4424  0BDB  1283               	bcf	status, 5	;RP0=0, select bank0
  4425  0BDC  1303               	bcf	status, 6	;RP1=0, select bank0
  4426  0BDD  149F               	bsf	(31),1	;volatile
  4427                           opt subtitle "HI-TECH Software Omniscient Code Generator (Lite mode) build 49521"
  4428                           
  4429  0BDE  2BDF               	goto	l144
  4430                           opt subtitle "HI-TECH Software Omniscient Code Generator (Lite mode) build 49521"
  4431  0BDF                     l145:	
  4432                           opt subtitle "HI-TECH Software Omniscient Code Generator (Lite mode) build 49521"
  4433  0BDF                     l144:	
  4434  0BDF  189F               	btfsc	(31),1	;volatile
  4435  0BE0  2BE2               	goto	u2951
  4436  0BE1  2BE3               	goto	u2950
  4437  0BE2                     u2951:
  4438  0BE2  2BDF               	goto	l144
  4439  0BE3                     u2950:
  4440  0BE3  2BE4               	goto	l3197
  4441                           opt subtitle "HI-TECH Software Omniscient Code Generator (Lite mode) build 49521"
  4442  0BE4                     l146:	
  4443                           opt subtitle "HI-TECH Software Omniscient Code Generator (Lite mode) build 49521"
  4444                           
  4445  0BE4                     l3197:	
  4446                           opt subtitle "HI-TECH Software Omniscient Code Generator (Lite mode) build 49521"
  4447  0BE4  081E               	movf	(30),w	;volatile
  4448  0BE5  00B3               	movwf	(??_adcReadVcap+0)+0
  4449  0BE6  0833               	movf	(??_adcReadVcap+0)+0,w
  4450  0BE7  00B5               	movwf	(adcReadVcap@value)
  4451                           opt subtitle "HI-TECH Software Omniscient Code Generator (Lite mode) build 49521"
  4452                           
  4453  0BE8                     l3199:	
  4454                           opt subtitle "HI-TECH Software Omniscient Code Generator (Lite mode) build 49521"
  4455  0BE8  101F               	bcf	(31),0	;volatile
  4456                           opt subtitle "HI-TECH Software Omniscient Code Generator (Lite mode) build 49521"
  4457                           
  4458  0BE9                     l3201:	
  4459                           opt subtitle "HI-TECH Software Omniscient Code Generator (Lite mode) build 49521"
  4460  0BE9  1188               	bcf	(8),3	;volatile
  4461                           opt subtitle "HI-TECH Software Omniscient Code Generator (Lite mode) build 49521"
  4462                           
  4463  0BEA  0835               	movf	(adcReadVcap@value),w
  4464  0BEB  2BEC               	goto	l147
  4465                           opt subtitle "HI-TECH Software Omniscient Code Generator (Lite mode) build 49521"
  4466  0BEC                     l3203:	
  4467                           opt subtitle "HI-TECH Software Omniscient Code Generator (Lite mode) build 49521"
  4468                           
  4469  0BEC                     l147:	
  4470  0BEC  0008               	return
  4471                           opt subtitle "HI-TECH Software Omniscient Code Generator (Lite mode) build 49521"
  4472                           
  4473  0BED                     	__end_of_adcReadVcap:
  4474                           opt subtitle "HI-TECH Software Omniscient Code Generator (Lite mode) build 49521"
  4475                           
  4476                           opt pagewidth 120
  4477                           
  4478                           	opt lm
  4479                           
  4480                           	processor	16F707
  4481                           clrc	macro
  4482                           	bcf	3,0
  4483                           	endm
  4484                           clrz	macro
  4485                           	bcf	3,2
  4486                           	endm
  4487                           setc	macro
  4488                           	bsf	3,0
  4489                           	endm
  4490                           setz	macro
  4491                           	bsf	3,2
  4492                           	endm
  4493                           skipc	macro
  4494                           	btfss	3,0
  4495                           	endm
  4496                           skipz	macro
  4497                           	btfss	3,2
  4498                           	endm
  4499                           skipnc	macro
  4500                           	btfsc	3,0
  4501                           	endm
  4502                           skipnz	macro
  4503                           	btfsc	3,2
  4504                           	endm
  4505                           indf	equ	0
  4506                           indf0	equ	0
  4507                           pc	equ	2
  4508                           pcl	equ	2
  4509                           status	equ	3
  4510                           fsr	equ	4
  4511                           fsr0	equ	4
  4512                           c	equ	1
  4513  0015                     __ptext1001:	;psect for function _RFM70_Initialize
  4514                           opt subtitle "HI-TECH Software Omniscient Code Generator (Lite mode) build 49521"
  4515                           
  4516                           opt pagewidth 120
  4517                           
  4518  0310                     	__size_of_RFM70_Initialize	equ	__end_of_RFM70_Initialize-_RFM70_Initialize
  4519                           opt subtitle "HI-TECH Software Omniscient Code Generator (Lite mode) build 49521"
  4520  0015                     _RFM70_Initialize:	
  4521                           opt subtitle "HI-TECH Software Omniscient Code Generator (Lite mode) build 49521"
  4522                           
  4523                           opt pagewidth 120
  4524                           
  4525  0015                     l3205:	
  4526                           opt subtitle "HI-TECH Software Omniscient Code Generator (Lite mode) build 49521"
  4527                           
  4528                           opt pagewidth 120
  4529                           
  4530  0015  3003               movlw  3
  4531  0016  1283               	bcf	status, 5	;RP0=0, select bank0
  4532  0017  1303               	bcf	status, 6	;RP1=0, select bank0
  4533  0018  00BE               movwf	((??_RFM70_Initialize+0)+0+2),f
  4534  0019  3008               movlw	8
  4535  001A  00BD               movwf	((??_RFM70_Initialize+0)+0+1),f
  4536  001B  3078               	movlw	120
  4537  001C  00BC               movwf	((??_RFM70_Initialize+0)+0),f
  4538  001D                     u3777:
  4539  001D  0BBC               	decfsz	((??_RFM70_Initialize+0)+0),f
  4540  001E  281D               	goto	u3777
  4541  001F  0BBD               	decfsz	((??_RFM70_Initialize+0)+0+1),f
  4542  0020  281D               	goto	u3777
  4543  0021  0BBE               	decfsz	((??_RFM70_Initialize+0)+0+2),f
  4544  0022  281D               	goto	u3777
  4545                           opt subtitle "HI-TECH Software Omniscient Code Generator (Lite mode) build 49521"
  4546                           
  4547                           opt pagewidth 120
  4548                           
  4549  0023                     l3207:	
  4550                           opt subtitle "HI-TECH Software Omniscient Code Generator (Lite mode) build 49521"
  4551  0023  3000               	movlw	(0)
  4552  0024  120A  158A  2449   	fcall	_SwitchCFG
              120A  118A         
  4553                           opt subtitle "HI-TECH Software Omniscient Code Generator (Lite mode) build 49521"
  4554                           
  4555  0029                     l3209:	
  4556                           opt subtitle "HI-TECH Software Omniscient Code Generator (Lite mode) build 49521"
  4557  0029  1283               	bcf	status, 5	;RP0=0, select bank0
  4558  002A  1303               	bcf	status, 6	;RP1=0, select bank0
  4559  002B  01CF               	clrf	(RFM70_Initialize@i)
  4560                           opt subtitle "HI-TECH Software Omniscient Code Generator (Lite mode) build 49521"
  4561  002C                     l3211:	
  4562  002C  3014               	movlw	(014h)
  4563  002D  024F               	subwf	(RFM70_Initialize@i),w
  4564  002E  1C03               	skipc
  4565  002F  2831               	goto	u2961
  4566  0030  2832               	goto	u2960
  4567  0031                     u2961:
  4568  0031  2834               	goto	l3215
  4569  0032                     u2960:
  4570  0032  2864               	goto	l276
  4571                           opt subtitle "HI-TECH Software Omniscient Code Generator (Lite mode) build 49521"
  4572  0033                     l3213:	
  4573  0033  2864               	goto	l276
  4574                           opt subtitle "HI-TECH Software Omniscient Code Generator (Lite mode) build 49521"
  4575                           
  4576  0034                     l275:	
  4577                           opt subtitle "HI-TECH Software Omniscient Code Generator (Lite mode) build 49521"
  4578                           
  4579  0034                     l3215:	
  4580                           opt subtitle "HI-TECH Software Omniscient Code Generator (Lite mode) build 49521"
  4581                           
  4582  0034  1403               	setc
  4583  0035  0D4F               	rlf	(RFM70_Initialize@i),w
  4584  0036  3E4A               	addlw	low(_Bank0_Reg|8000h)
  4585  0037  0084               	movwf	fsr0
  4586  0038  3090               	movlw	high(_Bank0_Reg|8000h)
  4587  0039  1803               	skipnc
  4588  003A  3E01               	addlw	1
  4589  003B  00FF               	movwf	btemp+1
  4590  003C  160A  118A  2000   	fcall	stringtab
              120A  118A         
  4591  0041  00BC               	movwf	(??_RFM70_Initialize+0)+0
  4592  0042  083C               	movf	(??_RFM70_Initialize+0)+0,w
  4593  0043  00B6               	movwf	(?_SPI_Write_Reg)
  4594  0044  084F               	movf	(RFM70_Initialize@i),w
  4595  0045  00BD               	movwf	(??_RFM70_Initialize+1)+0
  4596  0046  073D               	addwf	(??_RFM70_Initialize+1)+0,w
  4597  0047  3E4A               	addlw	low(_Bank0_Reg|8000h)
  4598  0048  0084               	movwf	fsr0
  4599  0049  3090               	movlw	high(_Bank0_Reg|8000h)
  4600  004A  1803               	skipnc
  4601  004B  3E01               	addlw	1
  4602  004C  00FF               	movwf	btemp+1
  4603  004D  160A  118A  2000   	fcall	stringtab
              120A  118A         
  4604  0052  3820               	iorlw	020h
  4605  0053  120A  158A  228E   	fcall	_SPI_Write_Reg
              120A  118A         
  4606                           opt subtitle "HI-TECH Software Omniscient Code Generator (Lite mode) build 49521"
  4607                           
  4608  0058                     l3217:	
  4609  0058  3001               	movlw	(01h)
  4610  0059  1283               	bcf	status, 5	;RP0=0, select bank0
  4611  005A  1303               	bcf	status, 6	;RP1=0, select bank0
  4612  005B  00BC               	movwf	(??_RFM70_Initialize+0)+0
  4613  005C  083C               	movf	(??_RFM70_Initialize+0)+0,w
  4614  005D  07CF               	addwf	(RFM70_Initialize@i),f
  4615                           opt subtitle "HI-TECH Software Omniscient Code Generator (Lite mode) build 49521"
  4616  005E                     l3219:	
  4617  005E  3014               	movlw	(014h)
  4618  005F  024F               	subwf	(RFM70_Initialize@i),w
  4619  0060  1C03               	skipc
  4620  0061  2863               	goto	u2971
  4621  0062  2864               	goto	u2970
  4622  0063                     u2971:
  4623  0063  2834               	goto	l3215
  4624  0064                     u2970:
  4625                           opt subtitle "HI-TECH Software Omniscient Code Generator (Lite mode) build 49521"
  4626  0064                     l276:	
  4627                           opt subtitle "HI-TECH Software Omniscient Code Generator (Lite mode) build 49521"
  4628                           
  4629                           opt pagewidth 120
  4630  0064  01D0               	clrf	(RFM70_Initialize@j)
  4631                           opt subtitle "HI-TECH Software Omniscient Code Generator (Lite mode) build 49521"
  4632  0065                     l3221:	
  4633  0065  3005               	movlw	(05h)
  4634  0066  0250               	subwf	(RFM70_Initialize@j),w
  4635  0067  1C03               	skipc
  4636  0068  286A               	goto	u2981
  4637  0069  286B               	goto	u2980
  4638  006A                     u2981:
  4639  006A  286D               	goto	l3225
  4640  006B                     u2980:
  4641  006B  288B               	goto	l3231
  4642                           opt subtitle "HI-TECH Software Omniscient Code Generator (Lite mode) build 49521"
  4643  006C                     l3223:	
  4644  006C  288B               	goto	l3231
  4645                           opt subtitle "HI-TECH Software Omniscient Code Generator (Lite mode) build 49521"
  4646                           
  4647  006D                     l277:	
  4648                           opt subtitle "HI-TECH Software Omniscient Code Generator (Lite mode) build 49521"
  4649                           
  4650  006D                     l3225:	
  4651                           opt subtitle "HI-TECH Software Omniscient Code Generator (Lite mode) build 49521"
  4652                           
  4653  006D  0850               	movf	(RFM70_Initialize@j),w
  4654  006E  3E95               	addlw	low(_RX0_Address|8000h)
  4655  006F  0084               	movwf	fsr0
  4656  0070  3090               	movlw	high(_RX0_Address|8000h)
  4657  0071  1803               	skipnc
  4658  0072  3E01               	addlw	1
  4659  0073  00FF               	movwf	btemp+1
  4660  0074  160A  118A  2000   	fcall	stringtab
              120A  118A         
  4661  0079  00BC               	movwf	(??_RFM70_Initialize+0)+0
  4662  007A  0850               	movf	(RFM70_Initialize@j),w
  4663  007B  3E43               	addlw	RFM70_Initialize@WriteArr&0ffh
  4664  007C  0084               	movwf	fsr0
  4665  007D  083C               	movf	(??_RFM70_Initialize+0)+0,w
  4666  007E  1383               	bcf	status, 7	;select IRP bank0
  4667  007F  0080               	movwf	indf
  4668                           opt subtitle "HI-TECH Software Omniscient Code Generator (Lite mode) build 49521"
  4669                           
  4670  0080                     l3227:	
  4671  0080  3001               	movlw	(01h)
  4672  0081  00BC               	movwf	(??_RFM70_Initialize+0)+0
  4673  0082  083C               	movf	(??_RFM70_Initialize+0)+0,w
  4674  0083  07D0               	addwf	(RFM70_Initialize@j),f
  4675                           opt subtitle "HI-TECH Software Omniscient Code Generator (Lite mode) build 49521"
  4676  0084                     l3229:	
  4677  0084  3005               	movlw	(05h)
  4678  0085  0250               	subwf	(RFM70_Initialize@j),w
  4679  0086  1C03               	skipc
  4680  0087  2889               	goto	u2991
  4681  0088  288A               	goto	u2990
  4682  0089                     u2991:
  4683  0089  286D               	goto	l3225
  4684  008A                     u2990:
  4685  008A  288B               	goto	l3231
  4686                           opt subtitle "HI-TECH Software Omniscient Code Generator (Lite mode) build 49521"
  4687  008B                     l278:	
  4688                           opt subtitle "HI-TECH Software Omniscient Code Generator (Lite mode) build 49521"
  4689                           
  4690  008B                     l3231:	
  4691                           opt subtitle "HI-TECH Software Omniscient Code Generator (Lite mode) build 49521"
  4692                           
  4693  008B  3043               	movlw	(RFM70_Initialize@WriteArr)&0ffh
  4694  008C  00BC               	movwf	(??_RFM70_Initialize+0)+0
  4695  008D  083C               	movf	(??_RFM70_Initialize+0)+0,w
  4696  008E  00B6               	movwf	(?_SPI_Write_Buf)
  4697  008F  3005               	movlw	(05h)
  4698  0090  00BD               	movwf	(??_RFM70_Initialize+1)+0
  4699  0091  083D               	movf	(??_RFM70_Initialize+1)+0,w
  4700  0092  00B7               	movwf	0+(?_SPI_Write_Buf)+01h
  4701  0093  302A               	movlw	(02Ah)
  4702  0094  120A  158A  236E   	fcall	_SPI_Write_Buf
              120A  118A         
  4703                           opt subtitle "HI-TECH Software Omniscient Code Generator (Lite mode) build 49521"
  4704                           
  4705  0099                     l3233:	
  4706                           opt subtitle "HI-TECH Software Omniscient Code Generator (Lite mode) build 49521"
  4707  0099  1283               	bcf	status, 5	;RP0=0, select bank0
  4708  009A  1303               	bcf	status, 6	;RP1=0, select bank0
  4709  009B  01D0               	clrf	(RFM70_Initialize@j)
  4710                           opt subtitle "HI-TECH Software Omniscient Code Generator (Lite mode) build 49521"
  4711  009C                     l3235:	
  4712  009C  3005               	movlw	(05h)
  4713  009D  0250               	subwf	(RFM70_Initialize@j),w
  4714  009E  1C03               	skipc
  4715  009F  28A1               	goto	u3001
  4716  00A0  28A2               	goto	u3000
  4717  00A1                     u3001:
  4718  00A1  28A4               	goto	l3239
  4719  00A2                     u3000:
  4720  00A2  28C2               	goto	l3245
  4721                           opt subtitle "HI-TECH Software Omniscient Code Generator (Lite mode) build 49521"
  4722  00A3                     l3237:	
  4723  00A3  28C2               	goto	l3245
  4724                           opt subtitle "HI-TECH Software Omniscient Code Generator (Lite mode) build 49521"
  4725                           
  4726  00A4                     l279:	
  4727                           opt subtitle "HI-TECH Software Omniscient Code Generator (Lite mode) build 49521"
  4728                           
  4729  00A4                     l3239:	
  4730                           opt subtitle "HI-TECH Software Omniscient Code Generator (Lite mode) build 49521"
  4731                           
  4732  00A4  0850               	movf	(RFM70_Initialize@j),w
  4733  00A5  3E9A               	addlw	low(_RX1_Address|8000h)
  4734  00A6  0084               	movwf	fsr0
  4735  00A7  3090               	movlw	high(_RX1_Address|8000h)
  4736  00A8  1803               	skipnc
  4737  00A9  3E01               	addlw	1
  4738  00AA  00FF               	movwf	btemp+1
  4739  00AB  160A  118A  2000   	fcall	stringtab
              120A  118A         
  4740  00B0  00BC               	movwf	(??_RFM70_Initialize+0)+0
  4741  00B1  0850               	movf	(RFM70_Initialize@j),w
  4742  00B2  3E43               	addlw	RFM70_Initialize@WriteArr&0ffh
  4743  00B3  0084               	movwf	fsr0
  4744  00B4  083C               	movf	(??_RFM70_Initialize+0)+0,w
  4745  00B5  1383               	bcf	status, 7	;select IRP bank0
  4746  00B6  0080               	movwf	indf
  4747                           opt subtitle "HI-TECH Software Omniscient Code Generator (Lite mode) build 49521"
  4748                           
  4749  00B7                     l3241:	
  4750  00B7  3001               	movlw	(01h)
  4751  00B8  00BC               	movwf	(??_RFM70_Initialize+0)+0
  4752  00B9  083C               	movf	(??_RFM70_Initialize+0)+0,w
  4753  00BA  07D0               	addwf	(RFM70_Initialize@j),f
  4754                           opt subtitle "HI-TECH Software Omniscient Code Generator (Lite mode) build 49521"
  4755  00BB                     l3243:	
  4756  00BB  3005               	movlw	(05h)
  4757  00BC  0250               	subwf	(RFM70_Initialize@j),w
  4758  00BD  1C03               	skipc
  4759  00BE  28C0               	goto	u3011
  4760  00BF  28C1               	goto	u3010
  4761  00C0                     u3011:
  4762  00C0  28A4               	goto	l3239
  4763  00C1                     u3010:
  4764  00C1  28C2               	goto	l3245
  4765                           opt subtitle "HI-TECH Software Omniscient Code Generator (Lite mode) build 49521"
  4766  00C2                     l280:	
  4767                           opt subtitle "HI-TECH Software Omniscient Code Generator (Lite mode) build 49521"
  4768                           
  4769  00C2                     l3245:	
  4770                           opt subtitle "HI-TECH Software Omniscient Code Generator (Lite mode) build 49521"
  4771                           
  4772  00C2  3043               	movlw	(RFM70_Initialize@WriteArr)&0ffh
  4773  00C3  00BC               	movwf	(??_RFM70_Initialize+0)+0
  4774  00C4  083C               	movf	(??_RFM70_Initialize+0)+0,w
  4775  00C5  00B6               	movwf	(?_SPI_Write_Buf)
  4776  00C6  3005               	movlw	(05h)
  4777  00C7  00BD               	movwf	(??_RFM70_Initialize+1)+0
  4778  00C8  083D               	movf	(??_RFM70_Initialize+1)+0,w
  4779  00C9  00B7               	movwf	0+(?_SPI_Write_Buf)+01h
  4780  00CA  302B               	movlw	(02Bh)
  4781  00CB  120A  158A  236E   	fcall	_SPI_Write_Buf
              120A  118A         
  4782                           opt subtitle "HI-TECH Software Omniscient Code Generator (Lite mode) build 49521"
  4783                           
  4784  00D0                     l3247:	
  4785                           opt subtitle "HI-TECH Software Omniscient Code Generator (Lite mode) build 49521"
  4786  00D0  1283               	bcf	status, 5	;RP0=0, select bank0
  4787  00D1  1303               	bcf	status, 6	;RP1=0, select bank0
  4788  00D2  01D0               	clrf	(RFM70_Initialize@j)
  4789                           opt subtitle "HI-TECH Software Omniscient Code Generator (Lite mode) build 49521"
  4790  00D3                     l3249:	
  4791  00D3  3005               	movlw	(05h)
  4792  00D4  0250               	subwf	(RFM70_Initialize@j),w
  4793  00D5  1C03               	skipc
  4794  00D6  28D8               	goto	u3021
  4795  00D7  28D9               	goto	u3020
  4796  00D8                     u3021:
  4797  00D8  28DB               	goto	l3253
  4798  00D9                     u3020:
  4799  00D9  28F9               	goto	l3259
  4800                           opt subtitle "HI-TECH Software Omniscient Code Generator (Lite mode) build 49521"
  4801  00DA                     l3251:	
  4802  00DA  28F9               	goto	l3259
  4803                           opt subtitle "HI-TECH Software Omniscient Code Generator (Lite mode) build 49521"
  4804                           
  4805  00DB                     l281:	
  4806                           opt subtitle "HI-TECH Software Omniscient Code Generator (Lite mode) build 49521"
  4807                           
  4808  00DB                     l3253:	
  4809                           opt subtitle "HI-TECH Software Omniscient Code Generator (Lite mode) build 49521"
  4810                           
  4811  00DB  0850               	movf	(RFM70_Initialize@j),w
  4812  00DC  3E95               	addlw	low(_RX0_Address|8000h)
  4813  00DD  0084               	movwf	fsr0
  4814  00DE  3090               	movlw	high(_RX0_Address|8000h)
  4815  00DF  1803               	skipnc
  4816  00E0  3E01               	addlw	1
  4817  00E1  00FF               	movwf	btemp+1
  4818  00E2  160A  118A  2000   	fcall	stringtab
              120A  118A         
  4819  00E7  00BC               	movwf	(??_RFM70_Initialize+0)+0
  4820  00E8  0850               	movf	(RFM70_Initialize@j),w
  4821  00E9  3E43               	addlw	RFM70_Initialize@WriteArr&0ffh
  4822  00EA  0084               	movwf	fsr0
  4823  00EB  083C               	movf	(??_RFM70_Initialize+0)+0,w
  4824  00EC  1383               	bcf	status, 7	;select IRP bank0
  4825  00ED  0080               	movwf	indf
  4826                           opt subtitle "HI-TECH Software Omniscient Code Generator (Lite mode) build 49521"
  4827                           
  4828  00EE                     l3255:	
  4829  00EE  3001               	movlw	(01h)
  4830  00EF  00BC               	movwf	(??_RFM70_Initialize+0)+0
  4831  00F0  083C               	movf	(??_RFM70_Initialize+0)+0,w
  4832  00F1  07D0               	addwf	(RFM70_Initialize@j),f
  4833                           opt subtitle "HI-TECH Software Omniscient Code Generator (Lite mode) build 49521"
  4834  00F2                     l3257:	
  4835  00F2  3005               	movlw	(05h)
  4836  00F3  0250               	subwf	(RFM70_Initialize@j),w
  4837  00F4  1C03               	skipc
  4838  00F5  28F7               	goto	u3031
  4839  00F6  28F8               	goto	u3030
  4840  00F7                     u3031:
  4841  00F7  28DB               	goto	l3253
  4842  00F8                     u3030:
  4843  00F8  28F9               	goto	l3259
  4844                           opt subtitle "HI-TECH Software Omniscient Code Generator (Lite mode) build 49521"
  4845  00F9                     l282:	
  4846                           opt subtitle "HI-TECH Software Omniscient Code Generator (Lite mode) build 49521"
  4847                           
  4848  00F9                     l3259:	
  4849                           opt subtitle "HI-TECH Software Omniscient Code Generator (Lite mode) build 49521"
  4850                           
  4851  00F9  3043               	movlw	(RFM70_Initialize@WriteArr)&0ffh
  4852  00FA  00BC               	movwf	(??_RFM70_Initialize+0)+0
  4853  00FB  083C               	movf	(??_RFM70_Initialize+0)+0,w
  4854  00FC  00B6               	movwf	(?_SPI_Write_Buf)
  4855  00FD  3005               	movlw	(05h)
  4856  00FE  00BD               	movwf	(??_RFM70_Initialize+1)+0
  4857  00FF  083D               	movf	(??_RFM70_Initialize+1)+0,w
  4858  0100  00B7               	movwf	0+(?_SPI_Write_Buf)+01h
  4859  0101  3030               	movlw	(030h)
  4860  0102  120A  158A  236E   	fcall	_SPI_Write_Buf
              120A  118A         
  4861                           opt subtitle "HI-TECH Software Omniscient Code Generator (Lite mode) build 49521"
  4862                           
  4863  0107                     l3261:	
  4864                           opt subtitle "HI-TECH Software Omniscient Code Generator (Lite mode) build 49521"
  4865  0107  301D               	movlw	(01Dh)
  4866  0108  120A  158A  22D2   	fcall	_SPI_Read_Reg
              120A  118A         
  4867  010D  1283               	bcf	status, 5	;RP0=0, select bank0
  4868  010E  1303               	bcf	status, 6	;RP1=0, select bank0
  4869  010F  00BC               	movwf	(??_RFM70_Initialize+0)+0
  4870  0110  083C               	movf	(??_RFM70_Initialize+0)+0,w
  4871  0111  00CF               	movwf	(RFM70_Initialize@i)
  4872                           opt subtitle "HI-TECH Software Omniscient Code Generator (Lite mode) build 49521"
  4873                           
  4874  0112                     l3263:	
  4875                           opt subtitle "HI-TECH Software Omniscient Code Generator (Lite mode) build 49521"
  4876  0112  08CF               	movf	(RFM70_Initialize@i),f
  4877  0113  1D03               	skipz
  4878  0114  2916               	goto	u3041
  4879  0115  2917               	goto	u3040
  4880  0116                     u3041:
  4881  0116  2922               	goto	l3267
  4882  0117                     u3040:
  4883                           opt subtitle "HI-TECH Software Omniscient Code Generator (Lite mode) build 49521"
  4884                           
  4885  0117                     l3265:	
  4886                           opt subtitle "HI-TECH Software Omniscient Code Generator (Lite mode) build 49521"
  4887  0117  3073               	movlw	(073h)
  4888  0118  00BC               	movwf	(??_RFM70_Initialize+0)+0
  4889  0119  083C               	movf	(??_RFM70_Initialize+0)+0,w
  4890  011A  00B6               	movwf	(?_SPI_Write_Reg)
  4891  011B  3050               	movlw	(050h)
  4892  011C  120A  158A  228E   	fcall	_SPI_Write_Reg
              120A  118A         
  4893  0121  2922               	goto	l3267
  4894                           opt subtitle "HI-TECH Software Omniscient Code Generator (Lite mode) build 49521"
  4895  0122                     l283:	
  4896                           opt subtitle "HI-TECH Software Omniscient Code Generator (Lite mode) build 49521"
  4897                           
  4898  0122                     l3267:	
  4899                           opt subtitle "HI-TECH Software Omniscient Code Generator (Lite mode) build 49521"
  4900  0122  3016               	movlw	(016h)
  4901  0123  1283               	bcf	status, 5	;RP0=0, select bank0
  4902  0124  1303               	bcf	status, 6	;RP1=0, select bank0
  4903  0125  00BC               	movwf	(??_RFM70_Initialize+0)+0
  4904  0126  083C               	movf	(??_RFM70_Initialize+0)+0,w
  4905  0127  00CF               	movwf	(RFM70_Initialize@i)
  4906                           opt subtitle "HI-TECH Software Omniscient Code Generator (Lite mode) build 49521"
  4907  0128                     l3269:	
  4908  0128  3015               	movlw	(015h)
  4909  0129  024F               	subwf	(RFM70_Initialize@i),w
  4910  012A  1803               	skipnc
  4911  012B  292D               	goto	u3051
  4912  012C  292E               	goto	u3050
  4913  012D                     u3051:
  4914  012D  2930               	goto	l3273
  4915  012E                     u3050:
  4916  012E  295F               	goto	l3279
  4917                           opt subtitle "HI-TECH Software Omniscient Code Generator (Lite mode) build 49521"
  4918  012F                     l3271:	
  4919  012F  295F               	goto	l3279
  4920                           opt subtitle "HI-TECH Software Omniscient Code Generator (Lite mode) build 49521"
  4921                           
  4922  0130                     l284:	
  4923                           opt subtitle "HI-TECH Software Omniscient Code Generator (Lite mode) build 49521"
  4924                           
  4925  0130                     l3273:	
  4926                           opt subtitle "HI-TECH Software Omniscient Code Generator (Lite mode) build 49521"
  4927                           
  4928  0130  1403               	setc
  4929  0131  0D4F               	rlf	(RFM70_Initialize@i),w
  4930  0132  3E4A               	addlw	low(_Bank0_Reg|8000h)
  4931  0133  0084               	movwf	fsr0
  4932  0134  3090               	movlw	high(_Bank0_Reg|8000h)
  4933  0135  1803               	skipnc
  4934  0136  3E01               	addlw	1
  4935  0137  00FF               	movwf	btemp+1
  4936  0138  160A  118A  2000   	fcall	stringtab
              120A  118A         
  4937  013D  00BC               	movwf	(??_RFM70_Initialize+0)+0
  4938  013E  083C               	movf	(??_RFM70_Initialize+0)+0,w
  4939  013F  00B6               	movwf	(?_SPI_Write_Reg)
  4940  0140  084F               	movf	(RFM70_Initialize@i),w
  4941  0141  00BD               	movwf	(??_RFM70_Initialize+1)+0
  4942  0142  073D               	addwf	(??_RFM70_Initialize+1)+0,w
  4943  0143  3E4A               	addlw	low(_Bank0_Reg|8000h)
  4944  0144  0084               	movwf	fsr0
  4945  0145  3090               	movlw	high(_Bank0_Reg|8000h)
  4946  0146  1803               	skipnc
  4947  0147  3E01               	addlw	1
  4948  0148  00FF               	movwf	btemp+1
  4949  0149  160A  118A  2000   	fcall	stringtab
              120A  118A         
  4950  014E  3820               	iorlw	020h
  4951  014F  120A  158A  228E   	fcall	_SPI_Write_Reg
              120A  118A         
  4952                           opt subtitle "HI-TECH Software Omniscient Code Generator (Lite mode) build 49521"
  4953                           
  4954  0154                     l3275:	
  4955  0154  3001               	movlw	low(01h)
  4956  0155  1283               	bcf	status, 5	;RP0=0, select bank0
  4957  0156  1303               	bcf	status, 6	;RP1=0, select bank0
  4958  0157  02CF               	subwf	(RFM70_Initialize@i),f
  4959                           opt subtitle "HI-TECH Software Omniscient Code Generator (Lite mode) build 49521"
  4960  0158                     l3277:	
  4961  0158  3015               	movlw	(015h)
  4962  0159  024F               	subwf	(RFM70_Initialize@i),w
  4963  015A  1803               	skipnc
  4964  015B  295D               	goto	u3061
  4965  015C  295E               	goto	u3060
  4966  015D                     u3061:
  4967  015D  2930               	goto	l3273
  4968  015E                     u3060:
  4969  015E  295F               	goto	l3279
  4970                           opt subtitle "HI-TECH Software Omniscient Code Generator (Lite mode) build 49521"
  4971  015F                     l285:	
  4972                           opt subtitle "HI-TECH Software Omniscient Code Generator (Lite mode) build 49521"
  4973                           
  4974  015F                     l3279:	
  4975                           opt subtitle "HI-TECH Software Omniscient Code Generator (Lite mode) build 49521"
  4976                           
  4977  015F  3001               	movlw	(01h)
  4978  0160  120A  158A  2449   	fcall	_SwitchCFG
              120A  118A         
  4979                           opt subtitle "HI-TECH Software Omniscient Code Generator (Lite mode) build 49521"
  4980                           
  4981  0165                     l3281:	
  4982                           opt subtitle "HI-TECH Software Omniscient Code Generator (Lite mode) build 49521"
  4983  0165  1283               	bcf	status, 5	;RP0=0, select bank0
  4984  0166  1303               	bcf	status, 6	;RP1=0, select bank0
  4985  0167  01CF               	clrf	(RFM70_Initialize@i)
  4986                           opt subtitle "HI-TECH Software Omniscient Code Generator (Lite mode) build 49521"
  4987  0168                     l3283:	
  4988  0168  3009               	movlw	(09h)
  4989  0169  024F               	subwf	(RFM70_Initialize@i),w
  4990  016A  1C03               	skipc
  4991  016B  296D               	goto	u3071
  4992  016C  296E               	goto	u3070
  4993  016D                     u3071:
  4994  016D  2970               	goto	l286
  4995  016E                     u3070:
  4996  016E  29E4               	goto	l3303
  4997                           opt subtitle "HI-TECH Software Omniscient Code Generator (Lite mode) build 49521"
  4998  016F                     l3285:	
  4999  016F  29E4               	goto	l3303
  5000                           opt subtitle "HI-TECH Software Omniscient Code Generator (Lite mode) build 49521"
  5001                           
  5002  0170                     l286:	
  5003                           opt subtitle "HI-TECH Software Omniscient Code Generator (Lite mode) build 49521"
  5004                           
  5005                           opt pagewidth 120
  5006  0170  01D0               	clrf	(RFM70_Initialize@j)
  5007                           opt subtitle "HI-TECH Software Omniscient Code Generator (Lite mode) build 49521"
  5008  0171                     l3287:	
  5009  0171  3004               	movlw	(04h)
  5010  0172  0250               	subwf	(RFM70_Initialize@j),w
  5011  0173  1C03               	skipc
  5012  0174  2976               	goto	u3081
  5013  0175  2977               	goto	u3080
  5014  0176                     u3081:
  5015  0176  2979               	goto	l3291
  5016  0177                     u3080:
  5017  0177  29C8               	goto	l3297
  5018                           opt subtitle "HI-TECH Software Omniscient Code Generator (Lite mode) build 49521"
  5019  0178                     l3289:	
  5020  0178  29C8               	goto	l3297
  5021                           opt subtitle "HI-TECH Software Omniscient Code Generator (Lite mode) build 49521"
  5022                           
  5023  0179                     l288:	
  5024                           opt subtitle "HI-TECH Software Omniscient Code Generator (Lite mode) build 49521"
  5025  0179                     l3291:	
  5026                           opt subtitle "HI-TECH Software Omniscient Code Generator (Lite mode) build 49521"
  5027  0179  084F               	movf	(RFM70_Initialize@i),w
  5028  017A  00BC               	movwf	(??_RFM70_Initialize+0)+0
  5029  017B  3001               	movlw	(02h)-1
  5030  017C                     u3095:
  5031  017C  1003               	clrc
  5032  017D  0DBC               	rlf	(??_RFM70_Initialize+0)+0,f
  5033  017E  3EFF               	addlw	-1
  5034  017F  1D03               	skipz
  5035  0180  297C               	goto	u3095
  5036  0181  1003               	clrc
  5037  0182  0D3C               	rlf	(??_RFM70_Initialize+0)+0,w
  5038  0183  3E12               	addlw	low(_Bank1_Reg0_13|8000h)
  5039  0184  0084               	movwf	fsr0
  5040  0185  3090               	movlw	high(_Bank1_Reg0_13|8000h)
  5041  0186  1803               	skipnc
  5042  0187  3E01               	addlw	1
  5043  0188  00FF               	movwf	btemp+1
  5044  0189  160A  118A  2000   	fcall	stringtab
              120A  118A         
  5045  018E  00BD               	movwf	((??_RFM70_Initialize+1)+0)
  5046  018F  160A  118A  2000   	fcall	stringtab
              120A  118A         
  5047  0194  00BE               	movwf	((??_RFM70_Initialize+1)+0+1)
  5048  0195  160A  118A  2000   	fcall	stringtab
              120A  118A         
  5049  019A  00BF               	movwf	((??_RFM70_Initialize+1)+0+2)
  5050  019B  160A  118A  2000   	fcall	stringtab
              120A  118A         
  5051  01A0  00C0               	movwf	((??_RFM70_Initialize+1)+0+3)
  5052  01A1  0850               	movf	(RFM70_Initialize@j),w
  5053  01A2  00C1               	movwf	(??_RFM70_Initialize+5)+0
  5054  01A3  3002               	movlw	(03h)-1
  5055  01A4                     u3105:
  5056  01A4  1003               	clrc
  5057  01A5  0DC1               	rlf	(??_RFM70_Initialize+5)+0,f
  5058  01A6  3EFF               	addlw	-1
  5059  01A7  1D03               	skipz
  5060  01A8  29A4               	goto	u3105
  5061  01A9  1003               	clrc
  5062  01AA  0D41               	rlf	(??_RFM70_Initialize+5)+0,w
  5063  01AB  3E01               	addlw	1
  5064  01AC  29B2               	goto	u3110
  5065  01AD                     u3115:
  5066  01AD  1003               	clrc
  5067  01AE  0CC0               	rrf	(??_RFM70_Initialize+1)+3,f
  5068  01AF  0CBF               	rrf	(??_RFM70_Initialize+1)+2,f
  5069  01B0  0CBE               	rrf	(??_RFM70_Initialize+1)+1,f
  5070  01B1  0CBD               	rrf	(??_RFM70_Initialize+1)+0,f
  5071  01B2                     u3110:
  5072  01B2  3EFF               	addlw	-1
  5073  01B3  1D03               	skipz
  5074  01B4  29AD               	goto	u3115
  5075  01B5  083D               	movf	0+(??_RFM70_Initialize+1)+0,w
  5076  01B6  00C2               	movwf	(??_RFM70_Initialize+6)+0
  5077  01B7  0850               	movf	(RFM70_Initialize@j),w
  5078  01B8  3E43               	addlw	RFM70_Initialize@WriteArr&0ffh
  5079  01B9  0084               	movwf	fsr0
  5080  01BA  0842               	movf	(??_RFM70_Initialize+6)+0,w
  5081  01BB  1383               	bcf	status, 7	;select IRP bank0
  5082  01BC  0080               	movwf	indf
  5083                           opt subtitle "HI-TECH Software Omniscient Code Generator (Lite mode) build 49521"
  5084                           
  5085  01BD                     l3293:	
  5086  01BD  3001               	movlw	(01h)
  5087  01BE  00BC               	movwf	(??_RFM70_Initialize+0)+0
  5088  01BF  083C               	movf	(??_RFM70_Initialize+0)+0,w
  5089  01C0  07D0               	addwf	(RFM70_Initialize@j),f
  5090                           opt subtitle "HI-TECH Software Omniscient Code Generator (Lite mode) build 49521"
  5091  01C1                     l3295:	
  5092  01C1  3004               	movlw	(04h)
  5093  01C2  0250               	subwf	(RFM70_Initialize@j),w
  5094  01C3  1C03               	skipc
  5095  01C4  29C6               	goto	u3121
  5096  01C5  29C7               	goto	u3120
  5097  01C6                     u3121:
  5098  01C6  2979               	goto	l3291
  5099  01C7                     u3120:
  5100  01C7  29C8               	goto	l3297
  5101                           opt subtitle "HI-TECH Software Omniscient Code Generator (Lite mode) build 49521"
  5102  01C8                     l289:	
  5103                           opt subtitle "HI-TECH Software Omniscient Code Generator (Lite mode) build 49521"
  5104                           
  5105  01C8                     l3297:	
  5106                           opt subtitle "HI-TECH Software Omniscient Code Generator (Lite mode) build 49521"
  5107  01C8  3043               	movlw	(RFM70_Initialize@WriteArr)&0ffh
  5108  01C9  00BC               	movwf	(??_RFM70_Initialize+0)+0
  5109  01CA  083C               	movf	(??_RFM70_Initialize+0)+0,w
  5110  01CB  00B6               	movwf	(?_SPI_Write_Buf)
  5111  01CC  3004               	movlw	(04h)
  5112  01CD  00BD               	movwf	(??_RFM70_Initialize+1)+0
  5113  01CE  083D               	movf	(??_RFM70_Initialize+1)+0,w
  5114  01CF  00B7               	movwf	0+(?_SPI_Write_Buf)+01h
  5115  01D0  084F               	movf	(RFM70_Initialize@i),w
  5116  01D1  3820               	iorlw	020h
  5117  01D2  120A  158A  236E   	fcall	_SPI_Write_Buf
              120A  118A         
  5118                           opt subtitle "HI-TECH Software Omniscient Code Generator (Lite mode) build 49521"
  5119                           
  5120  01D7                     l3299:	
  5121  01D7  3001               	movlw	(01h)
  5122  01D8  1283               	bcf	status, 5	;RP0=0, select bank0
  5123  01D9  1303               	bcf	status, 6	;RP1=0, select bank0
  5124  01DA  00BC               	movwf	(??_RFM70_Initialize+0)+0
  5125  01DB  083C               	movf	(??_RFM70_Initialize+0)+0,w
  5126  01DC  07CF               	addwf	(RFM70_Initialize@i),f
  5127                           opt subtitle "HI-TECH Software Omniscient Code Generator (Lite mode) build 49521"
  5128  01DD                     l3301:	
  5129  01DD  3009               	movlw	(09h)
  5130  01DE  024F               	subwf	(RFM70_Initialize@i),w
  5131  01DF  1C03               	skipc
  5132  01E0  29E2               	goto	u3131
  5133  01E1  29E3               	goto	u3130
  5134  01E2                     u3131:
  5135  01E2  2970               	goto	l286
  5136  01E3                     u3130:
  5137  01E3  29E4               	goto	l3303
  5138                           opt subtitle "HI-TECH Software Omniscient Code Generator (Lite mode) build 49521"
  5139  01E4                     l287:	
  5140                           opt subtitle "HI-TECH Software Omniscient Code Generator (Lite mode) build 49521"
  5141                           
  5142  01E4                     l3303:	
  5143                           opt subtitle "HI-TECH Software Omniscient Code Generator (Lite mode) build 49521"
  5144                           
  5145  01E4  3009               	movlw	(09h)
  5146  01E5  00BC               	movwf	(??_RFM70_Initialize+0)+0
  5147  01E6  083C               	movf	(??_RFM70_Initialize+0)+0,w
  5148  01E7  00CF               	movwf	(RFM70_Initialize@i)
  5149  01E8  300E               	movlw	(0Eh)
  5150  01E9  024F               	subwf	(RFM70_Initialize@i),w
  5151  01EA  1C03               	skipc
  5152  01EB  29ED               	goto	u3141
  5153  01EC  29EE               	goto	u3140
  5154  01ED                     u3141:
  5155  01ED  29F0               	goto	l290
  5156  01EE                     u3140:
  5157  01EE  2A65               	goto	l291
  5158                           opt subtitle "HI-TECH Software Omniscient Code Generator (Lite mode) build 49521"
  5159  01EF                     l3305:	
  5160  01EF  2A65               	goto	l291
  5161                           opt subtitle "HI-TECH Software Omniscient Code Generator (Lite mode) build 49521"
  5162                           
  5163  01F0                     l290:	
  5164                           opt subtitle "HI-TECH Software Omniscient Code Generator (Lite mode) build 49521"
  5165                           
  5166                           opt pagewidth 120
  5167  01F0  01D0               	clrf	(RFM70_Initialize@j)
  5168                           opt subtitle "HI-TECH Software Omniscient Code Generator (Lite mode) build 49521"
  5169  01F1                     l3307:	
  5170  01F1  3004               	movlw	(04h)
  5171  01F2  0250               	subwf	(RFM70_Initialize@j),w
  5172  01F3  1C03               	skipc
  5173  01F4  29F6               	goto	u3151
  5174  01F5  29F7               	goto	u3150
  5175  01F6                     u3151:
  5176  01F6  29F9               	goto	l3311
  5177  01F7                     u3150:
  5178  01F7  2A4A               	goto	l3317
  5179                           opt subtitle "HI-TECH Software Omniscient Code Generator (Lite mode) build 49521"
  5180  01F8                     l3309:	
  5181  01F8  2A4A               	goto	l3317
  5182                           opt subtitle "HI-TECH Software Omniscient Code Generator (Lite mode) build 49521"
  5183                           
  5184  01F9                     l292:	
  5185                           opt subtitle "HI-TECH Software Omniscient Code Generator (Lite mode) build 49521"
  5186  01F9                     l3311:	
  5187                           opt subtitle "HI-TECH Software Omniscient Code Generator (Lite mode) build 49521"
  5188  01F9  084F               	movf	(RFM70_Initialize@i),w
  5189  01FA  00BC               	movwf	(??_RFM70_Initialize+0)+0
  5190  01FB  3001               	movlw	(02h)-1
  5191  01FC                     u3165:
  5192  01FC  1003               	clrc
  5193  01FD  0DBC               	rlf	(??_RFM70_Initialize+0)+0,f
  5194  01FE  3EFF               	addlw	-1
  5195  01FF  1D03               	skipz
  5196  0200  29FC               	goto	u3165
  5197  0201  1003               	clrc
  5198  0202  0D3C               	rlf	(??_RFM70_Initialize+0)+0,w
  5199  0203  3E12               	addlw	low(_Bank1_Reg0_13|8000h)
  5200  0204  0084               	movwf	fsr0
  5201  0205  3090               	movlw	high(_Bank1_Reg0_13|8000h)
  5202  0206  1803               	skipnc
  5203  0207  3E01               	addlw	1
  5204  0208  00FF               	movwf	btemp+1
  5205  0209  160A  118A  2000   	fcall	stringtab
              120A  118A         
  5206  020E  00BD               	movwf	((??_RFM70_Initialize+1)+0)
  5207  020F  160A  118A  2000   	fcall	stringtab
              120A  118A         
  5208  0214  00BE               	movwf	((??_RFM70_Initialize+1)+0+1)
  5209  0215  160A  118A  2000   	fcall	stringtab
              120A  118A         
  5210  021A  00BF               	movwf	((??_RFM70_Initialize+1)+0+2)
  5211  021B  160A  118A  2000   	fcall	stringtab
              120A  118A         
  5212  0220  00C0               	movwf	((??_RFM70_Initialize+1)+0+3)
  5213  0221  0350               	decf	(RFM70_Initialize@j),w
  5214  0222  3AFF               	xorlw	0ffh
  5215  0223  00C1               	movwf	(??_RFM70_Initialize+5)+0
  5216  0224  3002               	movlw	(03h)-1
  5217  0225                     u3175:
  5218  0225  1003               	clrc
  5219  0226  0DC1               	rlf	(??_RFM70_Initialize+5)+0,f
  5220  0227  3EFF               	addlw	-1
  5221  0228  1D03               	skipz
  5222  0229  2A25               	goto	u3175
  5223  022A  1003               	clrc
  5224  022B  0D41               	rlf	(??_RFM70_Initialize+5)+0,w
  5225  022C  3E18               	addlw	018h
  5226  022D  3E01               	addlw	1
  5227  022E  2A34               	goto	u3180
  5228  022F                     u3185:
  5229  022F  1003               	clrc
  5230  0230  0CC0               	rrf	(??_RFM70_Initialize+1)+3,f
  5231  0231  0CBF               	rrf	(??_RFM70_Initialize+1)+2,f
  5232  0232  0CBE               	rrf	(??_RFM70_Initialize+1)+1,f
  5233  0233  0CBD               	rrf	(??_RFM70_Initialize+1)+0,f
  5234  0234                     u3180:
  5235  0234  3EFF               	addlw	-1
  5236  0235  1D03               	skipz
  5237  0236  2A2F               	goto	u3185
  5238  0237  083D               	movf	0+(??_RFM70_Initialize+1)+0,w
  5239  0238  00C2               	movwf	(??_RFM70_Initialize+6)+0
  5240  0239  0850               	movf	(RFM70_Initialize@j),w
  5241  023A  3E43               	addlw	RFM70_Initialize@WriteArr&0ffh
  5242  023B  0084               	movwf	fsr0
  5243  023C  0842               	movf	(??_RFM70_Initialize+6)+0,w
  5244  023D  1383               	bcf	status, 7	;select IRP bank0
  5245  023E  0080               	movwf	indf
  5246                           opt subtitle "HI-TECH Software Omniscient Code Generator (Lite mode) build 49521"
  5247                           
  5248  023F                     l3313:	
  5249  023F  3001               	movlw	(01h)
  5250  0240  00BC               	movwf	(??_RFM70_Initialize+0)+0
  5251  0241  083C               	movf	(??_RFM70_Initialize+0)+0,w
  5252  0242  07D0               	addwf	(RFM70_Initialize@j),f
  5253                           opt subtitle "HI-TECH Software Omniscient Code Generator (Lite mode) build 49521"
  5254  0243                     l3315:	
  5255  0243  3004               	movlw	(04h)
  5256  0244  0250               	subwf	(RFM70_Initialize@j),w
  5257  0245  1C03               	skipc
  5258  0246  2A48               	goto	u3191
  5259  0247  2A49               	goto	u3190
  5260  0248                     u3191:
  5261  0248  29F9               	goto	l3311
  5262  0249                     u3190:
  5263  0249  2A4A               	goto	l3317
  5264                           opt subtitle "HI-TECH Software Omniscient Code Generator (Lite mode) build 49521"
  5265  024A                     l293:	
  5266                           opt subtitle "HI-TECH Software Omniscient Code Generator (Lite mode) build 49521"
  5267                           
  5268  024A                     l3317:	
  5269                           opt subtitle "HI-TECH Software Omniscient Code Generator (Lite mode) build 49521"
  5270  024A  3043               	movlw	(RFM70_Initialize@WriteArr)&0ffh
  5271  024B  00BC               	movwf	(??_RFM70_Initialize+0)+0
  5272  024C  083C               	movf	(??_RFM70_Initialize+0)+0,w
  5273  024D  00B6               	movwf	(?_SPI_Write_Buf)
  5274  024E  3004               	movlw	(04h)
  5275  024F  00BD               	movwf	(??_RFM70_Initialize+1)+0
  5276  0250  083D               	movf	(??_RFM70_Initialize+1)+0,w
  5277  0251  00B7               	movwf	0+(?_SPI_Write_Buf)+01h
  5278  0252  084F               	movf	(RFM70_Initialize@i),w
  5279  0253  3820               	iorlw	020h
  5280  0254  120A  158A  236E   	fcall	_SPI_Write_Buf
              120A  118A         
  5281                           opt subtitle "HI-TECH Software Omniscient Code Generator (Lite mode) build 49521"
  5282                           
  5283  0259                     l3319:	
  5284  0259  3001               	movlw	(01h)
  5285  025A  1283               	bcf	status, 5	;RP0=0, select bank0
  5286  025B  1303               	bcf	status, 6	;RP1=0, select bank0
  5287  025C  00BC               	movwf	(??_RFM70_Initialize+0)+0
  5288  025D  083C               	movf	(??_RFM70_Initialize+0)+0,w
  5289  025E  07CF               	addwf	(RFM70_Initialize@i),f
  5290                           opt subtitle "HI-TECH Software Omniscient Code Generator (Lite mode) build 49521"
  5291  025F                     l3321:	
  5292  025F  300E               	movlw	(0Eh)
  5293  0260  024F               	subwf	(RFM70_Initialize@i),w
  5294  0261  1C03               	skipc
  5295  0262  2A64               	goto	u3201
  5296  0263  2A65               	goto	u3200
  5297  0264                     u3201:
  5298  0264  29F0               	goto	l290
  5299  0265                     u3200:
  5300                           opt subtitle "HI-TECH Software Omniscient Code Generator (Lite mode) build 49521"
  5301  0265                     l291:	
  5302                           opt subtitle "HI-TECH Software Omniscient Code Generator (Lite mode) build 49521"
  5303                           
  5304                           opt pagewidth 120
  5305  0265  01D0               	clrf	(RFM70_Initialize@j)
  5306                           opt subtitle "HI-TECH Software Omniscient Code Generator (Lite mode) build 49521"
  5307  0266                     l3323:	
  5308  0266  300B               	movlw	(0Bh)
  5309  0267  0250               	subwf	(RFM70_Initialize@j),w
  5310  0268  1C03               	skipc
  5311  0269  2A6B               	goto	u3211
  5312  026A  2A6C               	goto	u3210
  5313  026B                     u3211:
  5314  026B  2A6E               	goto	l3327
  5315  026C                     u3210:
  5316  026C  2A8C               	goto	l3333
  5317                           opt subtitle "HI-TECH Software Omniscient Code Generator (Lite mode) build 49521"
  5318  026D                     l3325:	
  5319  026D  2A8C               	goto	l3333
  5320                           opt subtitle "HI-TECH Software Omniscient Code Generator (Lite mode) build 49521"
  5321                           
  5322  026E                     l294:	
  5323                           opt subtitle "HI-TECH Software Omniscient Code Generator (Lite mode) build 49521"
  5324                           
  5325  026E                     l3327:	
  5326                           opt subtitle "HI-TECH Software Omniscient Code Generator (Lite mode) build 49521"
  5327                           
  5328  026E  0850               	movf	(RFM70_Initialize@j),w
  5329  026F  3E78               	addlw	low(_Bank1_Reg14|8000h)
  5330  0270  0084               	movwf	fsr0
  5331  0271  3090               	movlw	high(_Bank1_Reg14|8000h)
  5332  0272  1803               	skipnc
  5333  0273  3E01               	addlw	1
  5334  0274  00FF               	movwf	btemp+1
  5335  0275  160A  118A  2000   	fcall	stringtab
              120A  118A         
  5336  027A  00BC               	movwf	(??_RFM70_Initialize+0)+0
  5337  027B  0850               	movf	(RFM70_Initialize@j),w
  5338  027C  3E43               	addlw	RFM70_Initialize@WriteArr&0ffh
  5339  027D  0084               	movwf	fsr0
  5340  027E  083C               	movf	(??_RFM70_Initialize+0)+0,w
  5341  027F  1383               	bcf	status, 7	;select IRP bank0
  5342  0280  0080               	movwf	indf
  5343                           opt subtitle "HI-TECH Software Omniscient Code Generator (Lite mode) build 49521"
  5344                           
  5345  0281                     l3329:	
  5346  0281  3001               	movlw	(01h)
  5347  0282  00BC               	movwf	(??_RFM70_Initialize+0)+0
  5348  0283  083C               	movf	(??_RFM70_Initialize+0)+0,w
  5349  0284  07D0               	addwf	(RFM70_Initialize@j),f
  5350                           opt subtitle "HI-TECH Software Omniscient Code Generator (Lite mode) build 49521"
  5351  0285                     l3331:	
  5352  0285  300B               	movlw	(0Bh)
  5353  0286  0250               	subwf	(RFM70_Initialize@j),w
  5354  0287  1C03               	skipc
  5355  0288  2A8A               	goto	u3221
  5356  0289  2A8B               	goto	u3220
  5357  028A                     u3221:
  5358  028A  2A6E               	goto	l3327
  5359  028B                     u3220:
  5360  028B  2A8C               	goto	l3333
  5361                           opt subtitle "HI-TECH Software Omniscient Code Generator (Lite mode) build 49521"
  5362  028C                     l295:	
  5363                           opt subtitle "HI-TECH Software Omniscient Code Generator (Lite mode) build 49521"
  5364                           
  5365  028C                     l3333:	
  5366                           opt subtitle "HI-TECH Software Omniscient Code Generator (Lite mode) build 49521"
  5367                           
  5368  028C  3043               	movlw	(RFM70_Initialize@WriteArr)&0ffh
  5369  028D  00BC               	movwf	(??_RFM70_Initialize+0)+0
  5370  028E  083C               	movf	(??_RFM70_Initialize+0)+0,w
  5371  028F  00B6               	movwf	(?_SPI_Write_Buf)
  5372  0290  300B               	movlw	(0Bh)
  5373  0291  00BD               	movwf	(??_RFM70_Initialize+1)+0
  5374  0292  083D               	movf	(??_RFM70_Initialize+1)+0,w
  5375  0293  00B7               	movwf	0+(?_SPI_Write_Buf)+01h
  5376  0294  302E               	movlw	(02Eh)
  5377  0295  120A  158A  236E   	fcall	_SPI_Write_Buf
              120A  118A         
  5378                           opt subtitle "HI-TECH Software Omniscient Code Generator (Lite mode) build 49521"
  5379                           
  5380  029A                     l3335:	
  5381                           opt subtitle "HI-TECH Software Omniscient Code Generator (Lite mode) build 49521"
  5382  029A  1283               	bcf	status, 5	;RP0=0, select bank0
  5383  029B  1303               	bcf	status, 6	;RP1=0, select bank0
  5384  029C  01D0               	clrf	(RFM70_Initialize@j)
  5385                           opt subtitle "HI-TECH Software Omniscient Code Generator (Lite mode) build 49521"
  5386  029D                     l3337:	
  5387  029D  3004               	movlw	(04h)
  5388  029E  0250               	subwf	(RFM70_Initialize@j),w
  5389  029F  1C03               	skipc
  5390  02A0  2AA2               	goto	u3231
  5391  02A1  2AA3               	goto	u3230
  5392  02A2                     u3231:
  5393  02A2  2AA5               	goto	l3341
  5394  02A3                     u3230:
  5395  02A3  2AE8               	goto	l3347
  5396                           opt subtitle "HI-TECH Software Omniscient Code Generator (Lite mode) build 49521"
  5397  02A4                     l3339:	
  5398  02A4  2AE8               	goto	l3347
  5399                           opt subtitle "HI-TECH Software Omniscient Code Generator (Lite mode) build 49521"
  5400                           
  5401  02A5                     l296:	
  5402                           opt subtitle "HI-TECH Software Omniscient Code Generator (Lite mode) build 49521"
  5403  02A5                     l3341:	
  5404                           opt subtitle "HI-TECH Software Omniscient Code Generator (Lite mode) build 49521"
  5405  02A5  3022               	movlw	low(_Bank1_Reg0_13|8000h+010h)
  5406  02A6  0084               	movwf	fsr0
  5407  02A7  3090               	movlw	high(_Bank1_Reg0_13|8000h+010h)
  5408  02A8  00FF               	movwf	btemp+1
  5409  02A9  160A  118A  2000   	fcall	stringtab
              120A  118A         
  5410  02AE  00BC               	movwf	((??_RFM70_Initialize+0)+0)
  5411  02AF  160A  118A  2000   	fcall	stringtab
              120A  118A         
  5412  02B4  00BD               	movwf	((??_RFM70_Initialize+0)+0+1)
  5413  02B5  160A  118A  2000   	fcall	stringtab
              120A  118A         
  5414  02BA  00BE               	movwf	((??_RFM70_Initialize+0)+0+2)
  5415  02BB  160A  118A  2000   	fcall	stringtab
              120A  118A         
  5416  02C0  00BF               	movwf	((??_RFM70_Initialize+0)+0+3)
  5417  02C1  0850               	movf	(RFM70_Initialize@j),w
  5418  02C2  00C0               	movwf	(??_RFM70_Initialize+4)+0
  5419  02C3  3002               	movlw	(03h)-1
  5420  02C4                     u3245:
  5421  02C4  1003               	clrc
  5422  02C5  0DC0               	rlf	(??_RFM70_Initialize+4)+0,f
  5423  02C6  3EFF               	addlw	-1
  5424  02C7  1D03               	skipz
  5425  02C8  2AC4               	goto	u3245
  5426  02C9  1003               	clrc
  5427  02CA  0D40               	rlf	(??_RFM70_Initialize+4)+0,w
  5428  02CB  3E01               	addlw	1
  5429  02CC  2AD2               	goto	u3250
  5430  02CD                     u3255:
  5431  02CD  1003               	clrc
  5432  02CE  0CBF               	rrf	(??_RFM70_Initialize+0)+3,f
  5433  02CF  0CBE               	rrf	(??_RFM70_Initialize+0)+2,f
  5434  02D0  0CBD               	rrf	(??_RFM70_Initialize+0)+1,f
  5435  02D1  0CBC               	rrf	(??_RFM70_Initialize+0)+0,f
  5436  02D2                     u3250:
  5437  02D2  3EFF               	addlw	-1
  5438  02D3  1D03               	skipz
  5439  02D4  2ACD               	goto	u3255
  5440  02D5  083C               	movf	0+(??_RFM70_Initialize+0)+0,w
  5441  02D6  00C1               	movwf	(??_RFM70_Initialize+5)+0
  5442  02D7  0850               	movf	(RFM70_Initialize@j),w
  5443  02D8  3E43               	addlw	RFM70_Initialize@WriteArr&0ffh
  5444  02D9  0084               	movwf	fsr0
  5445  02DA  0841               	movf	(??_RFM70_Initialize+5)+0,w
  5446  02DB  1383               	bcf	status, 7	;select IRP bank0
  5447  02DC  0080               	movwf	indf
  5448                           opt subtitle "HI-TECH Software Omniscient Code Generator (Lite mode) build 49521"
  5449                           
  5450  02DD                     l3343:	
  5451  02DD  3001               	movlw	(01h)
  5452  02DE  00BC               	movwf	(??_RFM70_Initialize+0)+0
  5453  02DF  083C               	movf	(??_RFM70_Initialize+0)+0,w
  5454  02E0  07D0               	addwf	(RFM70_Initialize@j),f
  5455                           opt subtitle "HI-TECH Software Omniscient Code Generator (Lite mode) build 49521"
  5456  02E1                     l3345:	
  5457  02E1  3004               	movlw	(04h)
  5458  02E2  0250               	subwf	(RFM70_Initialize@j),w
  5459  02E3  1C03               	skipc
  5460  02E4  2AE6               	goto	u3261
  5461  02E5  2AE7               	goto	u3260
  5462  02E6                     u3261:
  5463  02E6  2AA5               	goto	l3341
  5464  02E7                     u3260:
  5465  02E7  2AE8               	goto	l3347
  5466                           opt subtitle "HI-TECH Software Omniscient Code Generator (Lite mode) build 49521"
  5467  02E8                     l297:	
  5468                           opt subtitle "HI-TECH Software Omniscient Code Generator (Lite mode) build 49521"
  5469                           
  5470  02E8                     l3347:	
  5471                           opt subtitle "HI-TECH Software Omniscient Code Generator (Lite mode) build 49521"
  5472  02E8  0843               	movf	(RFM70_Initialize@WriteArr),w
  5473  02E9  3806               	iorlw	06h
  5474  02EA  00BC               	movwf	(??_RFM70_Initialize+0)+0
  5475  02EB  083C               	movf	(??_RFM70_Initialize+0)+0,w
  5476  02EC  00C3               	movwf	(RFM70_Initialize@WriteArr)
  5477                           opt subtitle "HI-TECH Software Omniscient Code Generator (Lite mode) build 49521"
  5478                           
  5479  02ED                     l3349:	
  5480                           opt subtitle "HI-TECH Software Omniscient Code Generator (Lite mode) build 49521"
  5481  02ED  3043               	movlw	(RFM70_Initialize@WriteArr)&0ffh
  5482  02EE  00BC               	movwf	(??_RFM70_Initialize+0)+0
  5483  02EF  083C               	movf	(??_RFM70_Initialize+0)+0,w
  5484  02F0  00B6               	movwf	(?_SPI_Write_Buf)
  5485  02F1  3004               	movlw	(04h)
  5486  02F2  00BD               	movwf	(??_RFM70_Initialize+1)+0
  5487  02F3  083D               	movf	(??_RFM70_Initialize+1)+0,w
  5488  02F4  00B7               	movwf	0+(?_SPI_Write_Buf)+01h
  5489  02F5  3024               	movlw	(024h)
  5490  02F6  120A  158A  236E   	fcall	_SPI_Write_Buf
              120A  118A         
  5491                           opt subtitle "HI-TECH Software Omniscient Code Generator (Lite mode) build 49521"
  5492                           
  5493  02FB                     l3351:	
  5494                           opt subtitle "HI-TECH Software Omniscient Code Generator (Lite mode) build 49521"
  5495  02FB  1283               	bcf	status, 5	;RP0=0, select bank0
  5496  02FC  1303               	bcf	status, 6	;RP1=0, select bank0
  5497  02FD  0843               	movf	(RFM70_Initialize@WriteArr),w
  5498  02FE  39F9               	andlw	0F9h
  5499  02FF  00BC               	movwf	(??_RFM70_Initialize+0)+0
  5500  0300  083C               	movf	(??_RFM70_Initialize+0)+0,w
  5501  0301  00C3               	movwf	(RFM70_Initialize@WriteArr)
  5502                           opt subtitle "HI-TECH Software Omniscient Code Generator (Lite mode) build 49521"
  5503                           
  5504  0302  3043               	movlw	(RFM70_Initialize@WriteArr)&0ffh
  5505  0303  00BC               	movwf	(??_RFM70_Initialize+0)+0
  5506  0304  083C               	movf	(??_RFM70_Initialize+0)+0,w
  5507  0305  00B6               	movwf	(?_SPI_Write_Buf)
  5508  0306  3004               	movlw	(04h)
  5509  0307  00BD               	movwf	(??_RFM70_Initialize+1)+0
  5510  0308  083D               	movf	(??_RFM70_Initialize+1)+0,w
  5511  0309  00B7               	movwf	0+(?_SPI_Write_Buf)+01h
  5512  030A  3024               	movlw	(024h)
  5513  030B  120A  158A  236E   	fcall	_SPI_Write_Buf
              120A  118A         
  5514                           opt subtitle "HI-TECH Software Omniscient Code Generator (Lite mode) build 49521"
  5515                           
  5516  0310                     l3353:	
  5517                           opt subtitle "HI-TECH Software Omniscient Code Generator (Lite mode) build 49521"
  5518                           
  5519  0310  3082               movlw	130
  5520  0311  1283               	bcf	status, 5	;RP0=0, select bank0
  5521  0312  1303               	bcf	status, 6	;RP1=0, select bank0
  5522  0313  00BD               movwf	((??_RFM70_Initialize+0)+0+1),f
  5523  0314  30DD               	movlw	221
  5524  0315  00BC               movwf	((??_RFM70_Initialize+0)+0),f
  5525  0316                     u3787:
  5526  0316  0BBC               	decfsz	((??_RFM70_Initialize+0)+0),f
  5527  0317  2B16               	goto	u3787
  5528  0318  0BBD               	decfsz	((??_RFM70_Initialize+0)+0+1),f
  5529  0319  2B16               	goto	u3787
  5530  031A  2B1B               	nop2
  5531                           opt subtitle "HI-TECH Software Omniscient Code Generator (Lite mode) build 49521"
  5532                           
  5533                           opt pagewidth 120
  5534                           
  5535  031B                     l3355:	
  5536                           opt subtitle "HI-TECH Software Omniscient Code Generator (Lite mode) build 49521"
  5537  031B  3000               	movlw	(0)
  5538  031C  120A  158A  2449   	fcall	_SwitchCFG
              120A  118A         
  5539                           opt subtitle "HI-TECH Software Omniscient Code Generator (Lite mode) build 49521"
  5540                           
  5541  0321                     l3357:	
  5542                           opt subtitle "HI-TECH Software Omniscient Code Generator (Lite mode) build 49521"
  5543  0321  1283               	bcf	status, 5	;RP0=0, select bank0
  5544  0322  1303               	bcf	status, 6	;RP1=0, select bank0
  5545  0323  1107               	bcf	(7),2	;volatile
  5546                           opt subtitle "HI-TECH Software Omniscient Code Generator (Lite mode) build 49521"
  5547                           
  5548  0324                     l298:	
  5549  0324  0008               	return
  5550                           opt subtitle "HI-TECH Software Omniscient Code Generator (Lite mode) build 49521"
  5551                           
  5552  0325                     	__end_of_RFM70_Initialize:
  5553                           opt subtitle "HI-TECH Software Omniscient Code Generator (Lite mode) build 49521"
  5554                           
  5555                           opt pagewidth 120
  5556                           
  5557                           	opt lm
  5558                           
  5559                           	processor	16F707
  5560                           clrc	macro
  5561                           	bcf	3,0
  5562                           	endm
  5563                           clrz	macro
  5564                           	bcf	3,2
  5565                           	endm
  5566                           setc	macro
  5567                           	bsf	3,0
  5568                           	endm
  5569                           setz	macro
  5570                           	bsf	3,2
  5571                           	endm
  5572                           skipc	macro
  5573                           	btfss	3,0
  5574                           	endm
  5575                           skipz	macro
  5576                           	btfss	3,2
  5577                           	endm
  5578                           skipnc	macro
  5579                           	btfsc	3,0
  5580                           	endm
  5581                           skipnz	macro
  5582                           	btfsc	3,2
  5583                           	endm
  5584                           indf	equ	0
  5585                           indf0	equ	0
  5586                           pc	equ	2
  5587                           pcl	equ	2
  5588  0A82                     __ptext1002:	;psect for function _putch
  5589                           opt subtitle "HI-TECH Software Omniscient Code Generator (Lite mode) build 49521"
  5590                           
  5591                           opt pagewidth 120
  5592                           
  5593  000C                     	__size_of_putch	equ	__end_of_putch-_putch
  5594                           opt subtitle "HI-TECH Software Omniscient Code Generator (Lite mode) build 49521"
  5595  0A82                     _putch:	
  5596                           opt subtitle "HI-TECH Software Omniscient Code Generator (Lite mode) build 49521"
  5597                           
  5598                           opt pagewidth 120
  5599  0A82  1283               	bcf	status, 5	;RP0=0, select bank0
  5600  0A83  1303               	bcf	status, 6	;RP1=0, select bank0
  5601  0A84  00B3               	movwf	(putch@c)
  5602                           opt subtitle "HI-TECH Software Omniscient Code Generator (Lite mode) build 49521"
  5603                           
  5604  0A85                     l3423:	
  5605                           opt subtitle "HI-TECH Software Omniscient Code Generator (Lite mode) build 49521"
  5606  0A85  2A86               	goto	l170
  5607                           opt subtitle "HI-TECH Software Omniscient Code Generator (Lite mode) build 49521"
  5608  0A86                     l171:	
  5609                           opt subtitle "HI-TECH Software Omniscient Code Generator (Lite mode) build 49521"
  5610  0A86                     l170:	
  5611  0A86  1E0C               	btfss	(100/8),(100)&7	;volatile
  5612  0A87  2A89               	goto	u3331
  5613  0A88  2A8A               	goto	u3330
  5614  0A89                     u3331:
  5615  0A89  2A86               	goto	l170
  5616  0A8A                     u3330:
  5617  0A8A  2A8B               	goto	l3425
  5618                           opt subtitle "HI-TECH Software Omniscient Code Generator (Lite mode) build 49521"
  5619  0A8B                     l172:	
  5620                           opt subtitle "HI-TECH Software Omniscient Code Generator (Lite mode) build 49521"
  5621                           
  5622  0A8B                     l3425:	
  5623                           opt subtitle "HI-TECH Software Omniscient Code Generator (Lite mode) build 49521"
  5624  0A8B  0833               	movf	(putch@c),w
  5625  0A8C  0099               	movwf	(25)	;volatile
  5626                           opt subtitle "HI-TECH Software Omniscient Code Generator (Lite mode) build 49521"
  5627                           
  5628  0A8D                     l173:	
  5629  0A8D  0008               	return
  5630                           opt subtitle "HI-TECH Software Omniscient Code Generator (Lite mode) build 49521"
  5631                           
  5632  0A8E                     	__end_of_putch:
  5633                           opt subtitle "HI-TECH Software Omniscient Code Generator (Lite mode) build 49521"
  5634                           
  5635                           opt pagewidth 120
  5636                           
  5637                           	opt lm
  5638                           
  5639                           	processor	16F707
  5640                           clrc	macro
  5641                           	bcf	3,0
  5642                           	endm
  5643                           clrz	macro
  5644                           	bcf	3,2
  5645                           	endm
  5646                           setc	macro
  5647                           	bsf	3,0
  5648                           	endm
  5649                           setz	macro
  5650                           	bsf	3,2
  5651                           	endm
  5652                           skipc	macro
  5653                           	btfss	3,0
  5654                           	endm
  5655                           skipz	macro
  5656                           	btfss	3,2
  5657                           	endm
  5658                           skipnc	macro
  5659                           	btfsc	3,0
  5660                           	endm
  5661                           skipnz	macro
  5662                           	btfsc	3,2
  5663                           	endm
  5664                           indf	equ	0
  5665                           indf0	equ	0
  5666                           pc	equ	2
  5667                           pcl	equ	2
  5668  0B98                     __ptext1003:	;psect for function _SwitchToTxMode
  5669                           opt subtitle "HI-TECH Software Omniscient Code Generator (Lite mode) build 49521"
  5670                           
  5671                           opt pagewidth 120
  5672                           
  5673  002A                     	__size_of_SwitchToTxMode	equ	__end_of_SwitchToTxMode-_SwitchToTxMode
  5674                           opt subtitle "HI-TECH Software Omniscient Code Generator (Lite mode) build 49521"
  5675  0B98                     _SwitchToTxMode:	
  5676                           opt subtitle "HI-TECH Software Omniscient Code Generator (Lite mode) build 49521"
  5677                           
  5678                           opt pagewidth 120
  5679                           
  5680  0B98                     l3431:	
  5681                           opt subtitle "HI-TECH Software Omniscient Code Generator (Lite mode) build 49521"
  5682                           
  5683  0B98  1283               	bcf	status, 5	;RP0=0, select bank0
  5684  0B99  1303               	bcf	status, 6	;RP1=0, select bank0
  5685  0B9A  01B6               	clrf	(?_SPI_Write_Reg)
  5686  0B9B  30E1               	movlw	(0E1h)
  5687  0B9C  120A  158A  228E   	fcall	_SPI_Write_Reg
              120A  158A         
  5688                           opt subtitle "HI-TECH Software Omniscient Code Generator (Lite mode) build 49521"
  5689                           
  5690  0BA1                     l3433:	
  5691                           opt subtitle "HI-TECH Software Omniscient Code Generator (Lite mode) build 49521"
  5692  0BA1  1283               	bcf	status, 5	;RP0=0, select bank0
  5693  0BA2  1303               	bcf	status, 6	;RP1=0, select bank0
  5694  0BA3  1107               	bcf	(7),2	;volatile
  5695                           opt subtitle "HI-TECH Software Omniscient Code Generator (Lite mode) build 49521"
  5696                           
  5697  0BA4  3000               	movlw	(0)
  5698  0BA5  120A  158A  22D2   	fcall	_SPI_Read_Reg
              120A  158A         
  5699  0BAA  1283               	bcf	status, 5	;RP0=0, select bank0
  5700  0BAB  1303               	bcf	status, 6	;RP1=0, select bank0
  5701  0BAC  00B9               	movwf	(??_SwitchToTxMode+0)+0
  5702  0BAD  0839               	movf	(??_SwitchToTxMode+0)+0,w
  5703  0BAE  00BA               	movwf	(SwitchToTxMode@value)
  5704                           opt subtitle "HI-TECH Software Omniscient Code Generator (Lite mode) build 49521"
  5705                           
  5706  0BAF                     l3435:	
  5707                           opt subtitle "HI-TECH Software Omniscient Code Generator (Lite mode) build 49521"
  5708  0BAF  083A               	movf	(SwitchToTxMode@value),w
  5709  0BB0  39FE               	andlw	0FEh
  5710  0BB1  00B9               	movwf	(??_SwitchToTxMode+0)+0
  5711  0BB2  0839               	movf	(??_SwitchToTxMode+0)+0,w
  5712  0BB3  00BA               	movwf	(SwitchToTxMode@value)
  5713                           opt subtitle "HI-TECH Software Omniscient Code Generator (Lite mode) build 49521"
  5714                           
  5715  0BB4                     l3437:	
  5716                           opt subtitle "HI-TECH Software Omniscient Code Generator (Lite mode) build 49521"
  5717  0BB4  083A               	movf	(SwitchToTxMode@value),w
  5718  0BB5  00B9               	movwf	(??_SwitchToTxMode+0)+0
  5719  0BB6  0839               	movf	(??_SwitchToTxMode+0)+0,w
  5720  0BB7  00B6               	movwf	(?_SPI_Write_Reg)
  5721  0BB8  3020               	movlw	(020h)
  5722  0BB9  120A  158A  228E   	fcall	_SPI_Write_Reg
              120A  158A         
  5723                           opt subtitle "HI-TECH Software Omniscient Code Generator (Lite mode) build 49521"
  5724                           
  5725  0BBE                     l3439:	
  5726                           opt subtitle "HI-TECH Software Omniscient Code Generator (Lite mode) build 49521"
  5727  0BBE  1283               	bcf	status, 5	;RP0=0, select bank0
  5728  0BBF  1303               	bcf	status, 6	;RP1=0, select bank0
  5729  0BC0  1507               	bsf	(7),2	;volatile
  5730                           opt subtitle "HI-TECH Software Omniscient Code Generator (Lite mode) build 49521"
  5731                           
  5732  0BC1                     l261:	
  5733  0BC1  0008               	return
  5734                           opt subtitle "HI-TECH Software Omniscient Code Generator (Lite mode) build 49521"
  5735                           
  5736  0BC2                     	__end_of_SwitchToTxMode:
  5737                           opt subtitle "HI-TECH Software Omniscient Code Generator (Lite mode) build 49521"
  5738                           
  5739                           opt pagewidth 120
  5740                           
  5741                           	opt lm
  5742                           
  5743                           	processor	16F707
  5744                           clrc	macro
  5745                           	bcf	3,0
  5746                           	endm
  5747                           clrz	macro
  5748                           	bcf	3,2
  5749                           	endm
  5750                           setc	macro
  5751                           	bsf	3,0
  5752                           	endm
  5753                           setz	macro
  5754                           	bsf	3,2
  5755                           	endm
  5756                           skipc	macro
  5757                           	btfss	3,0
  5758                           	endm
  5759                           skipz	macro
  5760                           	btfss	3,2
  5761                           	endm
  5762                           skipnc	macro
  5763                           	btfsc	3,0
  5764                           	endm
  5765                           skipnz	macro
  5766                           	btfsc	3,2
  5767                           	endm
  5768                           indf	equ	0
  5769                           indf0	equ	0
  5770                           pc	equ	2
  5771                           pcl	equ	2
  5772                           status	equ	3
  5773                           fsr	equ	4
  5774                           fsr0	equ	4
  5775                           c	equ	1
  5776  0B6E                     __ptext1004:	;psect for function _SPI_Write_Buf
  5777                           opt subtitle "HI-TECH Software Omniscient Code Generator (Lite mode) build 49521"
  5778                           
  5779                           opt pagewidth 120
  5780                           
  5781  002A                     	__size_of_SPI_Write_Buf	equ	__end_of_SPI_Write_Buf-_SPI_Write_Buf
  5782                           opt subtitle "HI-TECH Software Omniscient Code Generator (Lite mode) build 49521"
  5783  0B6E                     _SPI_Write_Buf:	
  5784                           opt subtitle "HI-TECH Software Omniscient Code Generator (Lite mode) build 49521"
  5785                           
  5786                           opt pagewidth 120
  5787                           
  5788  0B6E  1283               	bcf	status, 5	;RP0=0, select bank0
  5789  0B6F  1303               	bcf	status, 6	;RP1=0, select bank0
  5790  0B70  00B9               	movwf	(SPI_Write_Buf@reg)
  5791                           opt subtitle "HI-TECH Software Omniscient Code Generator (Lite mode) build 49521"
  5792  0B71                     l3453:	
  5793                           opt subtitle "HI-TECH Software Omniscient Code Generator (Lite mode) build 49521"
  5794                           
  5795  0B71  1108               	bcf	(8),2	;volatile
  5796                           opt subtitle "HI-TECH Software Omniscient Code Generator (Lite mode) build 49521"
  5797                           
  5798  0B72                     l3455:	
  5799                           opt subtitle "HI-TECH Software Omniscient Code Generator (Lite mode) build 49521"
  5800  0B72  0839               	movf	(SPI_Write_Buf@reg),w
  5801  0B73  120A  158A  2325   	fcall	_SPI_RW
              120A  158A         
  5802                           opt subtitle "HI-TECH Software Omniscient Code Generator (Lite mode) build 49521"
  5803                           
  5804  0B78                     l3457:	
  5805                           opt subtitle "HI-TECH Software Omniscient Code Generator (Lite mode) build 49521"
  5806  0B78  1283               	bcf	status, 5	;RP0=0, select bank0
  5807  0B79  1303               	bcf	status, 6	;RP1=0, select bank0
  5808  0B7A  01BA               	clrf	(SPI_Write_Buf@byte_ctr)
  5809  0B7B  2B90               	goto	l3465
  5810                           opt subtitle "HI-TECH Software Omniscient Code Generator (Lite mode) build 49521"
  5811                           
  5812  0B7C                     l253:	
  5813                           opt subtitle "HI-TECH Software Omniscient Code Generator (Lite mode) build 49521"
  5814  0B7C                     l3459:	
  5815                           opt subtitle "HI-TECH Software Omniscient Code Generator (Lite mode) build 49521"
  5816  0B7C  0836               	movf	(SPI_Write_Buf@pBuf),w
  5817  0B7D  0084               	movwf	fsr0
  5818  0B7E  1383               	bcf	status, 7	;select IRP bank0
  5819  0B7F  0800               	movf	indf,w
  5820  0B80  120A  158A  2325   	fcall	_SPI_RW
              120A  158A         
  5821                           opt subtitle "HI-TECH Software Omniscient Code Generator (Lite mode) build 49521"
  5822  0B85                     l3461:	
  5823  0B85  3001               	movlw	(01h)
  5824  0B86  1283               	bcf	status, 5	;RP0=0, select bank0
  5825  0B87  1303               	bcf	status, 6	;RP1=0, select bank0
  5826  0B88  00B8               	movwf	(??_SPI_Write_Buf+0)+0
  5827  0B89  0838               	movf	(??_SPI_Write_Buf+0)+0,w
  5828  0B8A  07B6               	addwf	(SPI_Write_Buf@pBuf),f
  5829                           opt subtitle "HI-TECH Software Omniscient Code Generator (Lite mode) build 49521"
  5830                           
  5831  0B8B                     l3463:	
  5832  0B8B  3001               	movlw	(01h)
  5833  0B8C  00B8               	movwf	(??_SPI_Write_Buf+0)+0
  5834  0B8D  0838               	movf	(??_SPI_Write_Buf+0)+0,w
  5835  0B8E  07BA               	addwf	(SPI_Write_Buf@byte_ctr),f
  5836  0B8F  2B90               	goto	l3465
  5837                           opt subtitle "HI-TECH Software Omniscient Code Generator (Lite mode) build 49521"
  5838  0B90                     l252:	
  5839                           opt subtitle "HI-TECH Software Omniscient Code Generator (Lite mode) build 49521"
  5840  0B90                     l3465:	
  5841  0B90  0837               	movf	(SPI_Write_Buf@length),w
  5842  0B91  023A               	subwf	(SPI_Write_Buf@byte_ctr),w
  5843  0B92  1C03               	skipc
  5844  0B93  2B95               	goto	u3341
  5845  0B94  2B96               	goto	u3340
  5846  0B95                     u3341:
  5847  0B95  2B7C               	goto	l3459
  5848  0B96                     u3340:
  5849                           opt subtitle "HI-TECH Software Omniscient Code Generator (Lite mode) build 49521"
  5850  0B96                     l254:	
  5851                           opt subtitle "HI-TECH Software Omniscient Code Generator (Lite mode) build 49521"
  5852                           
  5853  0B96  1508               	bsf	(8),2	;volatile
  5854                           opt subtitle "HI-TECH Software Omniscient Code Generator (Lite mode) build 49521"
  5855                           
  5856  0B97                     l255:	
  5857  0B97  0008               	return
  5858                           opt subtitle "HI-TECH Software Omniscient Code Generator (Lite mode) build 49521"
  5859                           
  5860  0B98                     	__end_of_SPI_Write_Buf:
  5861                           opt subtitle "HI-TECH Software Omniscient Code Generator (Lite mode) build 49521"
  5862                           
  5863                           opt pagewidth 120
  5864                           
  5865                           	opt lm
  5866                           
  5867                           	processor	16F707
  5868                           clrc	macro
  5869                           	bcf	3,0
  5870                           	endm
  5871                           clrz	macro
  5872                           	bcf	3,2
  5873                           	endm
  5874                           setc	macro
  5875                           	bsf	3,0
  5876                           	endm
  5877                           setz	macro
  5878                           	bsf	3,2
  5879                           	endm
  5880                           skipc	macro
  5881                           	btfss	3,0
  5882                           	endm
  5883                           skipz	macro
  5884                           	btfss	3,2
  5885                           	endm
  5886                           skipnc	macro
  5887                           	btfsc	3,0
  5888                           	endm
  5889                           skipnz	macro
  5890                           	btfsc	3,2
  5891                           	endm
  5892                           indf	equ	0
  5893                           indf0	equ	0
  5894                           pc	equ	2
  5895                           pcl	equ	2
  5896  07E1                     __ptext1005:	;psect for function _rfm70TxDataSentInterrupt
  5897                           opt subtitle "HI-TECH Software Omniscient Code Generator (Lite mode) build 49521"
  5898                           
  5899                           opt pagewidth 120
  5900                           
  5901  001F                     	__size_of_rfm70TxDataSentInterrupt	equ	__end_of_rfm70TxDataSentInterrupt-_rfm70TxDataSe
                                 ntInterrupt
  5902                           opt subtitle "HI-TECH Software Omniscient Code Generator (Lite mode) build 49521"
  5903  07E1                     _rfm70TxDataSentInterrupt:	
  5904                           opt subtitle "HI-TECH Software Omniscient Code Generator (Lite mode) build 49521"
  5905                           
  5906                           opt pagewidth 120
  5907                           
  5908  07E1                     l3467:	
  5909                           opt subtitle "HI-TECH Software Omniscient Code Generator (Lite mode) build 49521"
  5910  07E1  3007               	movlw	(07h)
  5911  07E2  120A  158A  22D2   	fcall	_SPI_Read_Reg
              120A  118A         
  5912  07E7  1283               	bcf	status, 5	;RP0=0, select bank0
  5913  07E8  1303               	bcf	status, 6	;RP1=0, select bank0
  5914  07E9  00B9               	movwf	(??_rfm70TxDataSentInterrupt+0)+0
  5915  07EA  1EB9               	btfss	0+(??_rfm70TxDataSentInterrupt+0)+0,(5)&7
  5916  07EB  2FED               	goto	u3351
  5917  07EC  2FEE               	goto	u3350
  5918  07ED                     u3351:
  5919  07ED  2FFC               	goto	l3477
  5920  07EE                     u3350:
  5921                           opt subtitle "HI-TECH Software Omniscient Code Generator (Lite mode) build 49521"
  5922                           
  5923  07EE                     l3469:	
  5924                           opt subtitle "HI-TECH Software Omniscient Code Generator (Lite mode) build 49521"
  5925  07EE  3020               	movlw	(020h)
  5926  07EF  00B9               	movwf	(??_rfm70TxDataSentInterrupt+0)+0
  5927  07F0  0839               	movf	(??_rfm70TxDataSentInterrupt+0)+0,w
  5928  07F1  00B6               	movwf	(?_SPI_Write_Reg)
  5929  07F2  3027               	movlw	(027h)
  5930  07F3  120A  158A  228E   	fcall	_SPI_Write_Reg
              120A  118A         
  5931                           opt subtitle "HI-TECH Software Omniscient Code Generator (Lite mode) build 49521"
  5932                           
  5933  07F8                     l3471:	
  5934                           opt subtitle "HI-TECH Software Omniscient Code Generator (Lite mode) build 49521"
  5935  07F8  3001               	movlw	(01h)
  5936  07F9  2FFF               	goto	l307
  5937                           opt subtitle "HI-TECH Software Omniscient Code Generator (Lite mode) build 49521"
  5938  07FA                     l3473:	
  5939  07FA  2FFF               	goto	l307
  5940                           opt subtitle "HI-TECH Software Omniscient Code Generator (Lite mode) build 49521"
  5941                           
  5942  07FB                     l3475:	
  5943                           opt subtitle "HI-TECH Software Omniscient Code Generator (Lite mode) build 49521"
  5944  07FB  2FFF               	goto	l307
  5945                           opt subtitle "HI-TECH Software Omniscient Code Generator (Lite mode) build 49521"
  5946                           
  5947  07FC                     l306:	
  5948                           opt subtitle "HI-TECH Software Omniscient Code Generator (Lite mode) build 49521"
  5949                           
  5950  07FC                     l3477:	
  5951                           opt subtitle "HI-TECH Software Omniscient Code Generator (Lite mode) build 49521"
  5952                           
  5953  07FC  3000               	movlw	(0)
  5954  07FD  2FFF               	goto	l307
  5955                           opt subtitle "HI-TECH Software Omniscient Code Generator (Lite mode) build 49521"
  5956  07FE                     l3479:	
  5957  07FE  2FFF               	goto	l307
  5958                           opt subtitle "HI-TECH Software Omniscient Code Generator (Lite mode) build 49521"
  5959  07FF                     l308:	
  5960                           opt subtitle "HI-TECH Software Omniscient Code Generator (Lite mode) build 49521"
  5961                           
  5962  07FF                     l307:	
  5963  07FF  0008               	return
  5964                           opt subtitle "HI-TECH Software Omniscient Code Generator (Lite mode) build 49521"
  5965                           
  5966  0800                     	__end_of_rfm70TxDataSentInterrupt:
  5967                           opt subtitle "HI-TECH Software Omniscient Code Generator (Lite mode) build 49521"
  5968                           
  5969                           opt pagewidth 120
  5970                           
  5971                           	opt lm
  5972                           
  5973                           	processor	16F707
  5974                           clrc	macro
  5975                           	bcf	3,0
  5976                           	endm
  5977                           clrz	macro
  5978                           	bcf	3,2
  5979                           	endm
  5980                           setc	macro
  5981                           	bsf	3,0
  5982                           	endm
  5983                           setz	macro
  5984                           	bsf	3,2
  5985                           	endm
  5986                           skipc	macro
  5987                           	btfss	3,0
  5988                           	endm
  5989                           skipz	macro
  5990                           	btfss	3,2
  5991                           	endm
  5992                           skipnc	macro
  5993                           	btfsc	3,0
  5994                           	endm
  5995                           skipnz	macro
  5996                           	btfsc	3,2
  5997                           	endm
  5998                           indf	equ	0
  5999                           indf0	equ	0
  6000                           pc	equ	2
  6001                           pcl	equ	2
  6002                           status	equ	3
  6003  0C7B                     __ptext1006:	;psect for function _SwitchToRxMode
  6004                           opt subtitle "HI-TECH Software Omniscient Code Generator (Lite mode) build 49521"
  6005                           
  6006                           opt pagewidth 120
  6007                           
  6008  003F                     	__size_of_SwitchToRxMode	equ	__end_of_SwitchToRxMode-_SwitchToRxMode
  6009                           opt subtitle "HI-TECH Software Omniscient Code Generator (Lite mode) build 49521"
  6010  0C7B                     _SwitchToRxMode:	
  6011                           opt subtitle "HI-TECH Software Omniscient Code Generator (Lite mode) build 49521"
  6012                           
  6013                           opt pagewidth 120
  6014                           
  6015  0C7B                     l3481:	
  6016                           opt subtitle "HI-TECH Software Omniscient Code Generator (Lite mode) build 49521"
  6017                           
  6018  0C7B  1283               	bcf	status, 5	;RP0=0, select bank0
  6019  0C7C  1303               	bcf	status, 6	;RP1=0, select bank0
  6020  0C7D  01B6               	clrf	(?_SPI_Write_Reg)
  6021  0C7E  30E2               	movlw	(0E2h)
  6022  0C7F  120A  158A  228E   	fcall	_SPI_Write_Reg
              120A  158A         
  6023                           opt subtitle "HI-TECH Software Omniscient Code Generator (Lite mode) build 49521"
  6024                           
  6025  0C84  3007               	movlw	(07h)
  6026  0C85  120A  158A  22D2   	fcall	_SPI_Read_Reg
              120A  158A         
  6027  0C8A  1283               	bcf	status, 5	;RP0=0, select bank0
  6028  0C8B  1303               	bcf	status, 6	;RP1=0, select bank0
  6029  0C8C  00B9               	movwf	(??_SwitchToRxMode+0)+0
  6030  0C8D  0839               	movf	(??_SwitchToRxMode+0)+0,w
  6031  0C8E  00BA               	movwf	(SwitchToRxMode@value)
  6032                           opt subtitle "HI-TECH Software Omniscient Code Generator (Lite mode) build 49521"
  6033                           
  6034  0C8F  083A               	movf	(SwitchToRxMode@value),w
  6035  0C90  00B9               	movwf	(??_SwitchToRxMode+0)+0
  6036  0C91  0839               	movf	(??_SwitchToRxMode+0)+0,w
  6037  0C92  00B6               	movwf	(?_SPI_Write_Reg)
  6038  0C93  3027               	movlw	(027h)
  6039  0C94  120A  158A  228E   	fcall	_SPI_Write_Reg
              120A  158A         
  6040                           opt subtitle "HI-TECH Software Omniscient Code Generator (Lite mode) build 49521"
  6041                           
  6042  0C99                     l3483:	
  6043                           opt subtitle "HI-TECH Software Omniscient Code Generator (Lite mode) build 49521"
  6044  0C99  1283               	bcf	status, 5	;RP0=0, select bank0
  6045  0C9A  1303               	bcf	status, 6	;RP1=0, select bank0
  6046  0C9B  1107               	bcf	(7),2	;volatile
  6047                           opt subtitle "HI-TECH Software Omniscient Code Generator (Lite mode) build 49521"
  6048                           
  6049  0C9C  3000               	movlw	(0)
  6050  0C9D  120A  158A  22D2   	fcall	_SPI_Read_Reg
              120A  158A         
  6051  0CA2  1283               	bcf	status, 5	;RP0=0, select bank0
  6052  0CA3  1303               	bcf	status, 6	;RP1=0, select bank0
  6053  0CA4  00B9               	movwf	(??_SwitchToRxMode+0)+0
  6054  0CA5  0839               	movf	(??_SwitchToRxMode+0)+0,w
  6055  0CA6  00BA               	movwf	(SwitchToRxMode@value)
  6056                           opt subtitle "HI-TECH Software Omniscient Code Generator (Lite mode) build 49521"
  6057                           
  6058  0CA7                     l3485:	
  6059                           opt subtitle "HI-TECH Software Omniscient Code Generator (Lite mode) build 49521"
  6060  0CA7  083A               	movf	(SwitchToRxMode@value),w
  6061  0CA8  3801               	iorlw	01h
  6062  0CA9  00B9               	movwf	(??_SwitchToRxMode+0)+0
  6063  0CAA  0839               	movf	(??_SwitchToRxMode+0)+0,w
  6064  0CAB  00BA               	movwf	(SwitchToRxMode@value)
  6065                           opt subtitle "HI-TECH Software Omniscient Code Generator (Lite mode) build 49521"
  6066                           
  6067  0CAC                     l3487:	
  6068                           opt subtitle "HI-TECH Software Omniscient Code Generator (Lite mode) build 49521"
  6069  0CAC  083A               	movf	(SwitchToRxMode@value),w
  6070  0CAD  00B9               	movwf	(??_SwitchToRxMode+0)+0
  6071  0CAE  0839               	movf	(??_SwitchToRxMode+0)+0,w
  6072  0CAF  00B6               	movwf	(?_SPI_Write_Reg)
  6073  0CB0  3020               	movlw	(020h)
  6074  0CB1  120A  158A  228E   	fcall	_SPI_Write_Reg
              120A  158A         
  6075                           opt subtitle "HI-TECH Software Omniscient Code Generator (Lite mode) build 49521"
  6076                           
  6077  0CB6                     l3489:	
  6078                           opt subtitle "HI-TECH Software Omniscient Code Generator (Lite mode) build 49521"
  6079  0CB6  1283               	bcf	status, 5	;RP0=0, select bank0
  6080  0CB7  1303               	bcf	status, 6	;RP1=0, select bank0
  6081  0CB8  1507               	bsf	(7),2	;volatile
  6082                           opt subtitle "HI-TECH Software Omniscient Code Generator (Lite mode) build 49521"
  6083                           
  6084  0CB9                     l258:	
  6085  0CB9  0008               	return
  6086                           opt subtitle "HI-TECH Software Omniscient Code Generator (Lite mode) build 49521"
  6087                           
  6088  0CBA                     	__end_of_SwitchToRxMode:
  6089                           opt subtitle "HI-TECH Software Omniscient Code Generator (Lite mode) build 49521"
  6090                           
  6091                           opt pagewidth 120
  6092                           
  6093                           	opt lm
  6094                           
  6095                           	processor	16F707
  6096                           clrc	macro
  6097                           	bcf	3,0
  6098                           	endm
  6099                           clrz	macro
  6100                           	bcf	3,2
  6101                           	endm
  6102                           setc	macro
  6103                           	bsf	3,0
  6104                           	endm
  6105                           setz	macro
  6106                           	bsf	3,2
  6107                           	endm
  6108                           skipc	macro
  6109                           	btfss	3,0
  6110                           	endm
  6111                           skipz	macro
  6112                           	btfss	3,2
  6113                           	endm
  6114                           skipnc	macro
  6115                           	btfsc	3,0
  6116                           	endm
  6117                           skipnz	macro
  6118                           	btfsc	3,2
  6119                           	endm
  6120                           indf	equ	0
  6121                           indf0	equ	0
  6122                           pc	equ	2
  6123                           pcl	equ	2
  6124  0B06                     __ptext1007:	;psect for function _rfm70TxDataSentErrorInterrupt
  6125                           opt subtitle "HI-TECH Software Omniscient Code Generator (Lite mode) build 49521"
  6126                           
  6127                           opt pagewidth 120
  6128                           
  6129  001F                     	__size_of_rfm70TxDataSentErrorInterrupt	equ	__end_of_rfm70TxDataSentErrorInterrupt-_rfm
                                 70TxDataSentErrorInterrupt
  6130                           opt subtitle "HI-TECH Software Omniscient Code Generator (Lite mode) build 49521"
  6131  0B06                     _rfm70TxDataSentErrorInterrupt:	
  6132                           opt subtitle "HI-TECH Software Omniscient Code Generator (Lite mode) build 49521"
  6133                           
  6134                           opt pagewidth 120
  6135                           
  6136  0B06                     l3491:	
  6137                           opt subtitle "HI-TECH Software Omniscient Code Generator (Lite mode) build 49521"
  6138  0B06  3007               	movlw	(07h)
  6139  0B07  120A  158A  22D2   	fcall	_SPI_Read_Reg
              120A  158A         
  6140  0B0C  1283               	bcf	status, 5	;RP0=0, select bank0
  6141  0B0D  1303               	bcf	status, 6	;RP1=0, select bank0
  6142  0B0E  00B9               	movwf	(??_rfm70TxDataSentErrorInterrupt+0)+0
  6143  0B0F  1EB9               	btfss	0+(??_rfm70TxDataSentErrorInterrupt+0)+0,(5)&7
  6144  0B10  2B12               	goto	u3361
  6145  0B11  2B13               	goto	u3360
  6146  0B12                     u3361:
  6147  0B12  2B21               	goto	l3501
  6148  0B13                     u3360:
  6149                           opt subtitle "HI-TECH Software Omniscient Code Generator (Lite mode) build 49521"
  6150                           
  6151  0B13                     l3493:	
  6152                           opt subtitle "HI-TECH Software Omniscient Code Generator (Lite mode) build 49521"
  6153  0B13  3010               	movlw	(010h)
  6154  0B14  00B9               	movwf	(??_rfm70TxDataSentErrorInterrupt+0)+0
  6155  0B15  0839               	movf	(??_rfm70TxDataSentErrorInterrupt+0)+0,w
  6156  0B16  00B6               	movwf	(?_SPI_Write_Reg)
  6157  0B17  3027               	movlw	(027h)
  6158  0B18  120A  158A  228E   	fcall	_SPI_Write_Reg
              120A  158A         
  6159                           opt subtitle "HI-TECH Software Omniscient Code Generator (Lite mode) build 49521"
  6160                           
  6161  0B1D                     l3495:	
  6162                           opt subtitle "HI-TECH Software Omniscient Code Generator (Lite mode) build 49521"
  6163  0B1D  3001               	movlw	(01h)
  6164  0B1E  2B24               	goto	l312
  6165                           opt subtitle "HI-TECH Software Omniscient Code Generator (Lite mode) build 49521"
  6166  0B1F                     l3497:	
  6167  0B1F  2B24               	goto	l312
  6168                           opt subtitle "HI-TECH Software Omniscient Code Generator (Lite mode) build 49521"
  6169                           
  6170  0B20                     l3499:	
  6171                           opt subtitle "HI-TECH Software Omniscient Code Generator (Lite mode) build 49521"
  6172  0B20  2B24               	goto	l312
  6173                           opt subtitle "HI-TECH Software Omniscient Code Generator (Lite mode) build 49521"
  6174                           
  6175  0B21                     l311:	
  6176                           opt subtitle "HI-TECH Software Omniscient Code Generator (Lite mode) build 49521"
  6177                           
  6178  0B21                     l3501:	
  6179                           opt subtitle "HI-TECH Software Omniscient Code Generator (Lite mode) build 49521"
  6180                           
  6181  0B21  3000               	movlw	(0)
  6182  0B22  2B24               	goto	l312
  6183                           opt subtitle "HI-TECH Software Omniscient Code Generator (Lite mode) build 49521"
  6184  0B23                     l3503:	
  6185  0B23  2B24               	goto	l312
  6186                           opt subtitle "HI-TECH Software Omniscient Code Generator (Lite mode) build 49521"
  6187  0B24                     l313:	
  6188                           opt subtitle "HI-TECH Software Omniscient Code Generator (Lite mode) build 49521"
  6189                           
  6190  0B24                     l312:	
  6191  0B24  0008               	return
  6192                           opt subtitle "HI-TECH Software Omniscient Code Generator (Lite mode) build 49521"
  6193                           
  6194  0B25                     	__end_of_rfm70TxDataSentErrorInterrupt:
  6195                           opt subtitle "HI-TECH Software Omniscient Code Generator (Lite mode) build 49521"
  6196                           
  6197                           opt pagewidth 120
  6198                           
  6199                           	opt lm
  6200                           
  6201                           	processor	16F707
  6202                           clrc	macro
  6203                           	bcf	3,0
  6204                           	endm
  6205                           clrz	macro
  6206                           	bcf	3,2
  6207                           	endm
  6208                           setc	macro
  6209                           	bsf	3,0
  6210                           	endm
  6211                           setz	macro
  6212                           	bsf	3,2
  6213                           	endm
  6214                           skipc	macro
  6215                           	btfss	3,0
  6216                           	endm
  6217                           skipz	macro
  6218                           	btfss	3,2
  6219                           	endm
  6220                           skipnc	macro
  6221                           	btfsc	3,0
  6222                           	endm
  6223                           skipnz	macro
  6224                           	btfsc	3,2
  6225                           	endm
  6226                           indf	equ	0
  6227                           indf0	equ	0
  6228                           pc	equ	2
  6229                           pcl	equ	2
  6230                           status	equ	3
  6231  0C49                     __ptext1008:	;psect for function _SwitchCFG
  6232                           opt subtitle "HI-TECH Software Omniscient Code Generator (Lite mode) build 49521"
  6233                           
  6234                           opt pagewidth 120
  6235                           
  6236  0032                     	__size_of_SwitchCFG	equ	__end_of_SwitchCFG-_SwitchCFG
  6237                           opt subtitle "HI-TECH Software Omniscient Code Generator (Lite mode) build 49521"
  6238  0C49                     _SwitchCFG:	
  6239                           opt subtitle "HI-TECH Software Omniscient Code Generator (Lite mode) build 49521"
  6240                           
  6241                           opt pagewidth 120
  6242                           
  6243  0C49  1283               	bcf	status, 5	;RP0=0, select bank0
  6244  0C4A  1303               	bcf	status, 6	;RP1=0, select bank0
  6245  0C4B  00BA               	movwf	(SwitchCFG@_cfg)
  6246                           opt subtitle "HI-TECH Software Omniscient Code Generator (Lite mode) build 49521"
  6247  0C4C                     l3579:	
  6248                           opt subtitle "HI-TECH Software Omniscient Code Generator (Lite mode) build 49521"
  6249                           
  6250  0C4C  3007               	movlw	(07h)
  6251  0C4D  120A  158A  22D2   	fcall	_SPI_Read_Reg
              120A  158A         
  6252  0C52  1283               	bcf	status, 5	;RP0=0, select bank0
  6253  0C53  1303               	bcf	status, 6	;RP1=0, select bank0
  6254  0C54  00B9               	movwf	(??_SwitchCFG+0)+0
  6255  0C55  0839               	movf	(??_SwitchCFG+0)+0,w
  6256  0C56  00BB               	movwf	(SwitchCFG@Tmp)
  6257                           opt subtitle "HI-TECH Software Omniscient Code Generator (Lite mode) build 49521"
  6258                           
  6259  0C57                     l3581:	
  6260                           opt subtitle "HI-TECH Software Omniscient Code Generator (Lite mode) build 49521"
  6261  0C57  083B               	movf	(SwitchCFG@Tmp),w
  6262  0C58  3980               	andlw	080h
  6263  0C59  00B9               	movwf	(??_SwitchCFG+0)+0
  6264  0C5A  0839               	movf	(??_SwitchCFG+0)+0,w
  6265  0C5B  00BB               	movwf	(SwitchCFG@Tmp)
  6266                           opt subtitle "HI-TECH Software Omniscient Code Generator (Lite mode) build 49521"
  6267                           
  6268  0C5C                     l3583:	
  6269                           opt subtitle "HI-TECH Software Omniscient Code Generator (Lite mode) build 49521"
  6270                           
  6271  0C5C  083B               	movf	(SwitchCFG@Tmp),w
  6272  0C5D  1D03               	skipz
  6273  0C5E  2C60               	goto	u3440
  6274  0C5F  2C65               	goto	l3587
  6275  0C60                     u3440:
  6276                           opt subtitle "HI-TECH Software Omniscient Code Generator (Lite mode) build 49521"
  6277  0C60                     l3585:	
  6278  0C60  083A               	movf	(SwitchCFG@_cfg),w
  6279  0C61  1D03               	skipz
  6280  0C62  2C64               	goto	u3450
  6281  0C63  2C6F               	goto	l3591
  6282  0C64                     u3450:
  6283  0C64  2C65               	goto	l3587
  6284                           opt subtitle "HI-TECH Software Omniscient Code Generator (Lite mode) build 49521"
  6285  0C65                     l268:	
  6286                           opt subtitle "HI-TECH Software Omniscient Code Generator (Lite mode) build 49521"
  6287  0C65                     l3587:	
  6288  0C65  08BB               	movf	(SwitchCFG@Tmp),f
  6289  0C66  1D03               	skipz
  6290  0C67  2C69               	goto	u3461
  6291  0C68  2C6A               	goto	u3460
  6292  0C69                     u3461:
  6293  0C69  2C7A               	goto	l269
  6294  0C6A                     u3460:
  6295                           opt subtitle "HI-TECH Software Omniscient Code Generator (Lite mode) build 49521"
  6296  0C6A                     l3589:	
  6297  0C6A  083A               	movf	(SwitchCFG@_cfg),w
  6298  0C6B  1D03               	skipz
  6299  0C6C  2C6E               	goto	u3470
  6300  0C6D  2C7A               	goto	l269
  6301  0C6E                     u3470:
  6302  0C6E  2C6F               	goto	l3591
  6303                           opt subtitle "HI-TECH Software Omniscient Code Generator (Lite mode) build 49521"
  6304  0C6F                     l266:	
  6305                           opt subtitle "HI-TECH Software Omniscient Code Generator (Lite mode) build 49521"
  6306                           
  6307  0C6F                     l3591:	
  6308                           opt subtitle "HI-TECH Software Omniscient Code Generator (Lite mode) build 49521"
  6309                           
  6310  0C6F  3053               	movlw	(053h)
  6311  0C70  00B9               	movwf	(??_SwitchCFG+0)+0
  6312  0C71  0839               	movf	(??_SwitchCFG+0)+0,w
  6313  0C72  00B6               	movwf	(?_SPI_Write_Reg)
  6314  0C73  3050               	movlw	(050h)
  6315  0C74  120A  158A  228E   	fcall	_SPI_Write_Reg
              120A  158A         
  6316  0C79  2C7A               	goto	l269
  6317                           opt subtitle "HI-TECH Software Omniscient Code Generator (Lite mode) build 49521"
  6318                           
  6319  0C7A                     l264:	
  6320                           opt subtitle "HI-TECH Software Omniscient Code Generator (Lite mode) build 49521"
  6321                           
  6322  0C7A                     l269:	
  6323  0C7A  0008               	return
  6324                           opt subtitle "HI-TECH Software Omniscient Code Generator (Lite mode) build 49521"
  6325                           
  6326  0C7B                     	__end_of_SwitchCFG:
  6327                           opt subtitle "HI-TECH Software Omniscient Code Generator (Lite mode) build 49521"
  6328                           
  6329                           opt pagewidth 120
  6330                           
  6331                           	opt lm
  6332                           
  6333                           	processor	16F707
  6334                           clrc	macro
  6335                           	bcf	3,0
  6336                           	endm
  6337                           clrz	macro
  6338                           	bcf	3,2
  6339                           	endm
  6340                           setc	macro
  6341                           	bsf	3,0
  6342                           	endm
  6343                           setz	macro
  6344                           	bsf	3,2
  6345                           	endm
  6346                           skipc	macro
  6347                           	btfss	3,0
  6348                           	endm
  6349                           skipz	macro
  6350                           	btfss	3,2
  6351                           	endm
  6352                           skipnc	macro
  6353                           	btfsc	3,0
  6354                           	endm
  6355                           skipnz	macro
  6356                           	btfsc	3,2
  6357                           	endm
  6358                           indf	equ	0
  6359                           indf0	equ	0
  6360                           pc	equ	2
  6361                           pcl	equ	2
  6362                           status	equ	3
  6363                           fsr	equ	4
  6364                           fsr0	equ	4
  6365                           c	equ	1
  6366                           z	equ	0
  6367                           pclath	equ	10
  6368                           # 46 "/Applications/microchip/xc8/v1.12/include/pic16f707.h"
  6369                           INDF equ 00h ;# 
  6370                           # 52 "/Applications/microchip/xc8/v1.12/include/pic16f707.h"
  6371  0AD2                     __ptext1009:	;psect for function _SPI_Read_Reg
  6372                           opt subtitle "HI-TECH Software Omniscient Code Generator (Lite mode) build 49521"
  6373                           
  6374                           opt pagewidth 120
  6375                           
  6376  0019                     	__size_of_SPI_Read_Reg	equ	__end_of_SPI_Read_Reg-_SPI_Read_Reg
  6377                           opt subtitle "HI-TECH Software Omniscient Code Generator (Lite mode) build 49521"
  6378  0AD2                     _SPI_Read_Reg:	
  6379                           opt subtitle "HI-TECH Software Omniscient Code Generator (Lite mode) build 49521"
  6380                           
  6381                           opt pagewidth 120
  6382                           
  6383  0AD2  1283               	bcf	status, 5	;RP0=0, select bank0
  6384  0AD3  1303               	bcf	status, 6	;RP1=0, select bank0
  6385  0AD4  00B7               	movwf	(SPI_Read_Reg@reg)
  6386                           opt subtitle "HI-TECH Software Omniscient Code Generator (Lite mode) build 49521"
  6387  0AD5                     l3441:	
  6388                           opt subtitle "HI-TECH Software Omniscient Code Generator (Lite mode) build 49521"
  6389                           
  6390  0AD5  1108               	bcf	(8),2	;volatile
  6391                           opt subtitle "HI-TECH Software Omniscient Code Generator (Lite mode) build 49521"
  6392                           
  6393  0AD6                     l3443:	
  6394                           opt subtitle "HI-TECH Software Omniscient Code Generator (Lite mode) build 49521"
  6395  0AD6  0837               	movf	(SPI_Read_Reg@reg),w
  6396  0AD7  120A  158A  2325   	fcall	_SPI_RW
              120A  158A         
  6397                           opt subtitle "HI-TECH Software Omniscient Code Generator (Lite mode) build 49521"
  6398                           
  6399  0ADC                     l3445:	
  6400                           opt subtitle "HI-TECH Software Omniscient Code Generator (Lite mode) build 49521"
  6401  0ADC  3000               	movlw	(0)
  6402  0ADD  120A  158A  2325   	fcall	_SPI_RW
              120A  158A         
  6403  0AE2  1283               	bcf	status, 5	;RP0=0, select bank0
  6404  0AE3  1303               	bcf	status, 6	;RP1=0, select bank0
  6405  0AE4  00B6               	movwf	(??_SPI_Read_Reg+0)+0
  6406  0AE5  0836               	movf	(??_SPI_Read_Reg+0)+0,w
  6407  0AE6  00B8               	movwf	(SPI_Read_Reg@value)
  6408                           opt subtitle "HI-TECH Software Omniscient Code Generator (Lite mode) build 49521"
  6409                           
  6410  0AE7                     l3447:	
  6411                           opt subtitle "HI-TECH Software Omniscient Code Generator (Lite mode) build 49521"
  6412  0AE7  1508               	bsf	(8),2	;volatile
  6413                           opt subtitle "HI-TECH Software Omniscient Code Generator (Lite mode) build 49521"
  6414                           
  6415  0AE8                     l3449:	
  6416                           opt subtitle "HI-TECH Software Omniscient Code Generator (Lite mode) build 49521"
  6417  0AE8  0838               	movf	(SPI_Read_Reg@value),w
  6418  0AE9  2AEA               	goto	l243
  6419                           opt subtitle "HI-TECH Software Omniscient Code Generator (Lite mode) build 49521"
  6420  0AEA                     l3451:	
  6421                           opt subtitle "HI-TECH Software Omniscient Code Generator (Lite mode) build 49521"
  6422                           
  6423  0AEA                     l243:	
  6424  0AEA  0008               	return
  6425                           opt subtitle "HI-TECH Software Omniscient Code Generator (Lite mode) build 49521"
  6426                           
  6427  0AEB                     	__end_of_SPI_Read_Reg:
  6428                           opt subtitle "HI-TECH Software Omniscient Code Generator (Lite mode) build 49521"
  6429                           
  6430                           opt pagewidth 120
  6431                           
  6432                           	opt lm
  6433                           
  6434                           	processor	16F707
  6435                           clrc	macro
  6436                           	bcf	3,0
  6437                           	endm
  6438                           clrz	macro
  6439                           	bcf	3,2
  6440                           	endm
  6441                           setc	macro
  6442                           	bsf	3,0
  6443                           	endm
  6444                           setz	macro
  6445                           	bsf	3,2
  6446                           	endm
  6447                           skipc	macro
  6448                           	btfss	3,0
  6449                           	endm
  6450                           skipz	macro
  6451                           	btfss	3,2
  6452                           	endm
  6453                           skipnc	macro
  6454                           	btfsc	3,0
  6455                           	endm
  6456                           skipnz	macro
  6457                           	btfsc	3,2
  6458                           	endm
  6459                           indf	equ	0
  6460                           indf0	equ	0
  6461                           pc	equ	2
  6462                           pcl	equ	2
  6463                           status	equ	3
  6464                           fsr	equ	4
  6465                           fsr0	equ	4
  6466                           c	equ	1
  6467                           z	equ	0
  6468                           pclath	equ	10
  6469                           # 46 "/Applications/microchip/xc8/v1.12/include/pic16f707.h"
  6470                           INDF equ 00h ;# 
  6471                           # 52 "/Applications/microchip/xc8/v1.12/include/pic16f707.h"
  6472  0A8E                     __ptext1010:	;psect for function _SPI_Write_Reg
  6473                           opt subtitle "HI-TECH Software Omniscient Code Generator (Lite mode) build 49521"
  6474                           
  6475                           opt pagewidth 120
  6476                           
  6477  0016                     	__size_of_SPI_Write_Reg	equ	__end_of_SPI_Write_Reg-_SPI_Write_Reg
  6478                           opt subtitle "HI-TECH Software Omniscient Code Generator (Lite mode) build 49521"
  6479  0A8E                     _SPI_Write_Reg:	
  6480                           opt subtitle "HI-TECH Software Omniscient Code Generator (Lite mode) build 49521"
  6481                           
  6482                           opt pagewidth 120
  6483  0A8E  1283               	bcf	status, 5	;RP0=0, select bank0
  6484  0A8F  1303               	bcf	status, 6	;RP1=0, select bank0
  6485  0A90  00B7               	movwf	(SPI_Write_Reg@reg)
  6486                           opt subtitle "HI-TECH Software Omniscient Code Generator (Lite mode) build 49521"
  6487                           
  6488  0A91                     l3567:	
  6489                           opt subtitle "HI-TECH Software Omniscient Code Generator (Lite mode) build 49521"
  6490  0A91  1108               	bcf	(8),2	;volatile
  6491                           opt subtitle "HI-TECH Software Omniscient Code Generator (Lite mode) build 49521"
  6492                           
  6493  0A92                     l3569:	
  6494                           opt subtitle "HI-TECH Software Omniscient Code Generator (Lite mode) build 49521"
  6495  0A92  0837               	movf	(SPI_Write_Reg@reg),w
  6496  0A93  120A  158A  2325   	fcall	_SPI_RW
              120A  158A         
  6497                           opt subtitle "HI-TECH Software Omniscient Code Generator (Lite mode) build 49521"
  6498                           
  6499  0A98  1283               	bcf	status, 5	;RP0=0, select bank0
  6500  0A99  1303               	bcf	status, 6	;RP1=0, select bank0
  6501  0A9A  0836               	movf	(SPI_Write_Reg@value),w
  6502  0A9B  120A  158A  2325   	fcall	_SPI_RW
              120A  158A         
  6503                           opt subtitle "HI-TECH Software Omniscient Code Generator (Lite mode) build 49521"
  6504                           
  6505  0AA0                     l3571:	
  6506                           opt subtitle "HI-TECH Software Omniscient Code Generator (Lite mode) build 49521"
  6507  0AA0  1283               	bcf	status, 5	;RP0=0, select bank0
  6508  0AA1  1303               	bcf	status, 6	;RP1=0, select bank0
  6509  0AA2  1508               	bsf	(8),2	;volatile
  6510                           opt subtitle "HI-TECH Software Omniscient Code Generator (Lite mode) build 49521"
  6511                           
  6512  0AA3                     l240:	
  6513  0AA3  0008               	return
  6514                           opt subtitle "HI-TECH Software Omniscient Code Generator (Lite mode) build 49521"
  6515                           
  6516  0AA4                     	__end_of_SPI_Write_Reg:
  6517                           opt subtitle "HI-TECH Software Omniscient Code Generator (Lite mode) build 49521"
  6518                           
  6519                           opt pagewidth 120
  6520                           
  6521                           	opt lm
  6522                           
  6523                           	processor	16F707
  6524                           clrc	macro
  6525                           	bcf	3,0
  6526                           	endm
  6527                           clrz	macro
  6528                           	bcf	3,2
  6529                           	endm
  6530                           setc	macro
  6531                           	bsf	3,0
  6532                           	endm
  6533                           setz	macro
  6534                           	bsf	3,2
  6535                           	endm
  6536                           skipc	macro
  6537                           	btfss	3,0
  6538                           	endm
  6539                           skipz	macro
  6540                           	btfss	3,2
  6541                           	endm
  6542                           skipnc	macro
  6543                           	btfsc	3,0
  6544                           	endm
  6545                           skipnz	macro
  6546                           	btfsc	3,2
  6547                           	endm
  6548                           indf	equ	0
  6549                           indf0	equ	0
  6550                           pc	equ	2
  6551                           pcl	equ	2
  6552                           status	equ	3
  6553                           fsr	equ	4
  6554  0B25                     __ptext1011:	;psect for function _SPI_RW
  6555                           opt subtitle "HI-TECH Software Omniscient Code Generator (Lite mode) build 49521"
  6556                           
  6557                           opt pagewidth 120
  6558                           
  6559  0024                     	__size_of_SPI_RW	equ	__end_of_SPI_RW-_SPI_RW
  6560                           opt subtitle "HI-TECH Software Omniscient Code Generator (Lite mode) build 49521"
  6561  0B25                     _SPI_RW:	
  6562                           opt subtitle "HI-TECH Software Omniscient Code Generator (Lite mode) build 49521"
  6563                           
  6564                           opt pagewidth 120
  6565  0B25  1283               	bcf	status, 5	;RP0=0, select bank0
  6566  0B26  1303               	bcf	status, 6	;RP1=0, select bank0
  6567  0B27  00B5               	movwf	(SPI_RW@value)
  6568                           opt subtitle "HI-TECH Software Omniscient Code Generator (Lite mode) build 49521"
  6569                           
  6570  0B28                     l3573:	
  6571                           opt subtitle "HI-TECH Software Omniscient Code Generator (Lite mode) build 49521"
  6572  0B28  0835               	movf	(SPI_RW@value),w
  6573  0B29  0093               	movwf	(19)	;volatile
  6574                           opt subtitle "HI-TECH Software Omniscient Code Generator (Lite mode) build 49521"
  6575                           
  6576                           opt pagewidth 120
  6577  0B2A  300B               movlw	11
  6578  0B2B  00B4               movwf	((??_SPI_RW+0)+0+1),f
  6579  0B2C  3062               	movlw	98
  6580  0B2D  00B3               movwf	((??_SPI_RW+0)+0),f
  6581  0B2E                     u3797:
  6582  0B2E  0BB3               	decfsz	((??_SPI_RW+0)+0),f
  6583  0B2F  2B2E               	goto	u3797
  6584  0B30  0BB4               	decfsz	((??_SPI_RW+0)+0+1),f
  6585  0B31  2B2E               	goto	u3797
  6586  0B32  0000               	nop
  6587                           opt subtitle "HI-TECH Software Omniscient Code Generator (Lite mode) build 49521"
  6588                           
  6589                           opt pagewidth 120
  6590                           
  6591  0B33  2B34               	goto	l234
  6592                           opt subtitle "HI-TECH Software Omniscient Code Generator (Lite mode) build 49521"
  6593  0B34                     l235:	
  6594                           opt subtitle "HI-TECH Software Omniscient Code Generator (Lite mode) build 49521"
  6595  0B34                     l234:	
  6596  0B34  1283               	bcf	status, 5	;RP0=0, select bank0
  6597  0B35  1303               	bcf	status, 6	;RP1=0, select bank0
  6598  0B36  1D8C               	btfss	(12),3	;volatile
  6599  0B37  2B39               	goto	u3431
  6600  0B38  2B3A               	goto	u3430
  6601  0B39                     u3431:
  6602  0B39  2B34               	goto	l234
  6603  0B3A                     u3430:
  6604  0B3A  2B3B               	goto	l3575
  6605                           opt subtitle "HI-TECH Software Omniscient Code Generator (Lite mode) build 49521"
  6606  0B3B                     l236:	
  6607                           opt subtitle "HI-TECH Software Omniscient Code Generator (Lite mode) build 49521"
  6608                           
  6609  0B3B                     l3575:	
  6610                           opt subtitle "HI-TECH Software Omniscient Code Generator (Lite mode) build 49521"
  6611                           
  6612  0B3B  300B               movlw	11
  6613  0B3C  00B4               movwf	((??_SPI_RW+0)+0+1),f
  6614  0B3D  3062               	movlw	98
  6615  0B3E  00B3               movwf	((??_SPI_RW+0)+0),f
  6616  0B3F                     u3807:
  6617  0B3F  0BB3               	decfsz	((??_SPI_RW+0)+0),f
  6618  0B40  2B3F               	goto	u3807
  6619  0B41  0BB4               	decfsz	((??_SPI_RW+0)+0+1),f
  6620  0B42  2B3F               	goto	u3807
  6621  0B43  0000               	nop
  6622                           opt subtitle "HI-TECH Software Omniscient Code Generator (Lite mode) build 49521"
  6623                           
  6624                           opt pagewidth 120
  6625                           
  6626  0B44  1283               	bcf	status, 5	;RP0=0, select bank0
  6627  0B45  1303               	bcf	status, 6	;RP1=0, select bank0
  6628  0B46  0813               	movf	(19),w	;volatile
  6629  0B47  2B48               	goto	l237
  6630                           opt subtitle "HI-TECH Software Omniscient Code Generator (Lite mode) build 49521"
  6631  0B48                     l3577:	
  6632                           opt subtitle "HI-TECH Software Omniscient Code Generator (Lite mode) build 49521"
  6633                           
  6634  0B48                     l237:	
  6635  0B48  0008               	return
  6636                           opt subtitle "HI-TECH Software Omniscient Code Generator (Lite mode) build 49521"
  6637                           
  6638  0B49                     	__end_of_SPI_RW:
  6639                           opt subtitle "HI-TECH Software Omniscient Code Generator (Lite mode) build 49521"
  6640                           
  6641                           opt pagewidth 120
  6642                           
  6643                           	opt lm
  6644                           
  6645                           	processor	16F707
  6646                           clrc	macro
  6647                           	bcf	3,0
  6648                           	endm
  6649                           clrz	macro
  6650                           	bcf	3,2
  6651                           	endm
  6652                           setc	macro
  6653                           	bsf	3,0
  6654                           	endm
  6655                           setz	macro
  6656                           	bsf	3,2
  6657                           	endm
  6658                           skipc	macro
  6659                           	btfss	3,0
  6660                           	endm
  6661                           skipz	macro
  6662                           	btfss	3,2
  6663                           	endm
  6664                           skipnc	macro
  6665                           	btfsc	3,0
  6666                           	endm
  6667                           skipnz	macro
  6668                           	btfsc	3,2
  6669                           	endm
  6670                           indf	equ	0
  6671                           indf0	equ	0
  6672                           pc	equ	2
  6673                           pcl	equ	2
  6674                           status	equ	3
  6675  0D8F                     __ptext1012:	;psect for function ___lwdiv
  6676                           opt subtitle "HI-TECH Software Omniscient Code Generator (Lite mode) build 49521"
  6677                           
  6678                           opt pagewidth 120
  6679                           
  6680  004F                     	__size_of___lwdiv	equ	__end_of___lwdiv-___lwdiv
  6681                           opt subtitle "HI-TECH Software Omniscient Code Generator (Lite mode) build 49521"
  6682  0D8F                     ___lwdiv:	
  6683                           opt subtitle "HI-TECH Software Omniscient Code Generator (Lite mode) build 49521"
  6684                           
  6685                           opt pagewidth 120
  6686                           
  6687  0D8F                     l3603:	
  6688  0D8F  1283               	bcf	status, 5	;RP0=0, select bank0
  6689  0D90  1303               	bcf	status, 6	;RP1=0, select bank0
  6690  0D91  01B9               	clrf	(___lwdiv@quotient)
  6691  0D92  01BA               	clrf	(___lwdiv@quotient+1)
  6692                           opt subtitle "HI-TECH Software Omniscient Code Generator (Lite mode) build 49521"
  6693                           
  6694  0D93                     l3605:	
  6695  0D93  0834               	movf	(___lwdiv@divisor+1),w
  6696  0D94  0433               	iorwf	(___lwdiv@divisor),w
  6697  0D95  1903               	skipnz
  6698  0D96  2D98               	goto	u3491
  6699  0D97  2D99               	goto	u3490
  6700  0D98                     u3491:
  6701  0D98  2DD6               	goto	l3625
  6702  0D99                     u3490:
  6703                           opt subtitle "HI-TECH Software Omniscient Code Generator (Lite mode) build 49521"
  6704                           
  6705  0D99                     l3607:	
  6706  0D99  01B8               	clrf	(___lwdiv@counter)
  6707  0D9A  0AB8               	incf	(___lwdiv@counter),f
  6708                           opt subtitle "HI-TECH Software Omniscient Code Generator (Lite mode) build 49521"
  6709  0D9B  2DA8               	goto	l3613
  6710                           opt subtitle "HI-TECH Software Omniscient Code Generator (Lite mode) build 49521"
  6711  0D9C                     l387:	
  6712                           opt subtitle "HI-TECH Software Omniscient Code Generator (Lite mode) build 49521"
  6713                           
  6714  0D9C                     l3609:	
  6715  0D9C  3001               	movlw	01h
  6716                           opt subtitle "HI-TECH Software Omniscient Code Generator (Lite mode) build 49521"
  6717  0D9D                     u3505:
  6718  0D9D  1003               	clrc
  6719  0D9E  0DB3               	rlf	(___lwdiv@divisor),f
  6720  0D9F  0DB4               	rlf	(___lwdiv@divisor+1),f
  6721  0DA0  3EFF               	addlw	-1
  6722  0DA1  1D03               	skipz
  6723  0DA2  2D9D               	goto	u3505
  6724                           opt subtitle "HI-TECH Software Omniscient Code Generator (Lite mode) build 49521"
  6725                           
  6726  0DA3                     l3611:	
  6727  0DA3  3001               	movlw	(01h)
  6728  0DA4  00B7               	movwf	(??___lwdiv+0)+0
  6729  0DA5  0837               	movf	(??___lwdiv+0)+0,w
  6730  0DA6  07B8               	addwf	(___lwdiv@counter),f
  6731  0DA7  2DA8               	goto	l3613
  6732                           opt subtitle "HI-TECH Software Omniscient Code Generator (Lite mode) build 49521"
  6733                           
  6734  0DA8                     l386:	
  6735                           opt subtitle "HI-TECH Software Omniscient Code Generator (Lite mode) build 49521"
  6736                           
  6737  0DA8                     l3613:	
  6738  0DA8  1FB4               	btfss	(___lwdiv@divisor+1),(15)&7
  6739  0DA9  2DAB               	goto	u3511
  6740  0DAA  2DAC               	goto	u3510
  6741  0DAB                     u3511:
  6742  0DAB  2D9C               	goto	l3609
  6743  0DAC                     u3510:
  6744  0DAC  2DAE               	goto	l3615
  6745                           opt subtitle "HI-TECH Software Omniscient Code Generator (Lite mode) build 49521"
  6746  0DAD                     l388:	
  6747  0DAD  2DAE               	goto	l3615
  6748                           opt subtitle "HI-TECH Software Omniscient Code Generator (Lite mode) build 49521"
  6749                           
  6750  0DAE                     l389:	
  6751                           opt subtitle "HI-TECH Software Omniscient Code Generator (Lite mode) build 49521"
  6752                           
  6753  0DAE                     l3615:	
  6754  0DAE  3001               	movlw	01h
  6755                           opt subtitle "HI-TECH Software Omniscient Code Generator (Lite mode) build 49521"
  6756  0DAF                     u3525:
  6757  0DAF  1003               	clrc
  6758  0DB0  0DB9               	rlf	(___lwdiv@quotient),f
  6759  0DB1  0DBA               	rlf	(___lwdiv@quotient+1),f
  6760  0DB2  3EFF               	addlw	-1
  6761  0DB3  1D03               	skipz
  6762  0DB4  2DAF               	goto	u3525
  6763                           opt subtitle "HI-TECH Software Omniscient Code Generator (Lite mode) build 49521"
  6764  0DB5  0834               	movf	(___lwdiv@divisor+1),w
  6765  0DB6  0236               	subwf	(___lwdiv@dividend+1),w
  6766  0DB7  1D03               	skipz
  6767  0DB8  2DBB               	goto	u3535
  6768  0DB9  0833               	movf	(___lwdiv@divisor),w
  6769  0DBA  0235               	subwf	(___lwdiv@dividend),w
  6770  0DBB                     u3535:
  6771  0DBB  1C03               	skipc
  6772  0DBC  2DBE               	goto	u3531
  6773  0DBD  2DBF               	goto	u3530
  6774  0DBE                     u3531:
  6775  0DBE  2DC7               	goto	l3621
  6776  0DBF                     u3530:
  6777                           opt subtitle "HI-TECH Software Omniscient Code Generator (Lite mode) build 49521"
  6778                           
  6779  0DBF                     l3617:	
  6780  0DBF  0833               	movf	(___lwdiv@divisor),w
  6781  0DC0  02B5               	subwf	(___lwdiv@dividend),f
  6782  0DC1  0834               	movf	(___lwdiv@divisor+1),w
  6783  0DC2  1C03               	skipc
  6784  0DC3  03B6               	decf	(___lwdiv@dividend+1),f
  6785  0DC4  02B6               	subwf	(___lwdiv@dividend+1),f
  6786                           opt subtitle "HI-TECH Software Omniscient Code Generator (Lite mode) build 49521"
  6787                           
  6788  0DC5                     l3619:	
  6789  0DC5  1439               	bsf	(___lwdiv@quotient)+(0/8),(0)&7
  6790  0DC6  2DC7               	goto	l3621
  6791                           opt subtitle "HI-TECH Software Omniscient Code Generator (Lite mode) build 49521"
  6792                           
  6793  0DC7                     l390:	
  6794                           opt subtitle "HI-TECH Software Omniscient Code Generator (Lite mode) build 49521"
  6795                           
  6796  0DC7                     l3621:	
  6797  0DC7  3001               	movlw	01h
  6798                           opt subtitle "HI-TECH Software Omniscient Code Generator (Lite mode) build 49521"
  6799  0DC8                     u3545:
  6800  0DC8  1003               	clrc
  6801  0DC9  0CB4               	rrf	(___lwdiv@divisor+1),f
  6802  0DCA  0CB3               	rrf	(___lwdiv@divisor),f
  6803  0DCB  3EFF               	addlw	-1
  6804  0DCC  1D03               	skipz
  6805  0DCD  2DC8               	goto	u3545
  6806                           opt subtitle "HI-TECH Software Omniscient Code Generator (Lite mode) build 49521"
  6807                           
  6808  0DCE                     l3623:	
  6809  0DCE  3001               	movlw	low(01h)
  6810  0DCF  02B8               	subwf	(___lwdiv@counter),f
  6811  0DD0  1D03               	btfss	status,2
  6812  0DD1  2DD3               	goto	u3551
  6813  0DD2  2DD4               	goto	u3550
  6814  0DD3                     u3551:
  6815  0DD3  2DAE               	goto	l3615
  6816  0DD4                     u3550:
  6817  0DD4  2DD6               	goto	l3625
  6818                           opt subtitle "HI-TECH Software Omniscient Code Generator (Lite mode) build 49521"
  6819  0DD5                     l391:	
  6820  0DD5  2DD6               	goto	l3625
  6821                           opt subtitle "HI-TECH Software Omniscient Code Generator (Lite mode) build 49521"
  6822                           
  6823  0DD6                     l385:	
  6824                           opt subtitle "HI-TECH Software Omniscient Code Generator (Lite mode) build 49521"
  6825                           
  6826  0DD6                     l3625:	
  6827  0DD6  083A               	movf	(___lwdiv@quotient+1),w
  6828  0DD7  01B4               	clrf	(?___lwdiv+1)
  6829  0DD8  07B4               	addwf	(?___lwdiv+1)
  6830  0DD9  0839               	movf	(___lwdiv@quotient),w
  6831  0DDA  01B3               	clrf	(?___lwdiv)
  6832  0DDB  07B3               	addwf	(?___lwdiv)
  6833                           opt subtitle "HI-TECH Software Omniscient Code Generator (Lite mode) build 49521"
  6834  0DDC  2DDD               	goto	l392
  6835                           opt subtitle "HI-TECH Software Omniscient Code Generator (Lite mode) build 49521"
  6836  0DDD                     l3627:	
  6837                           opt subtitle "HI-TECH Software Omniscient Code Generator (Lite mode) build 49521"
  6838                           
  6839  0DDD                     l392:	
  6840  0DDD  0008               	return
  6841                           opt subtitle "HI-TECH Software Omniscient Code Generator (Lite mode) build 49521"
  6842                           
  6843  0DDE                     	__end_of___lwdiv:
  6844                           opt subtitle "HI-TECH Software Omniscient Code Generator (Lite mode) build 49521"
  6845                           
  6846                           opt pagewidth 120
  6847                           
  6848                           	opt lm
  6849                           
  6850                           	processor	16F707
  6851                           clrc	macro
  6852                           	bcf	3,0
  6853                           	endm
  6854                           clrz	macro
  6855                           	bcf	3,2
  6856                           	endm
  6857                           setc	macro
  6858                           	bsf	3,0
  6859                           	endm
  6860                           setz	macro
  6861                           	bsf	3,2
  6862                           	endm
  6863                           skipc	macro
  6864                           	btfss	3,0
  6865                           	endm
  6866                           skipz	macro
  6867                           	btfss	3,2
  6868                           	endm
  6869                           skipnc	macro
  6870                           	btfsc	3,0
  6871                           	endm
  6872                           skipnz	macro
  6873                           	btfsc	3,2
  6874                           	endm
  6875                           indf	equ	0
  6876                           indf0	equ	0
  6877                           pc	equ	2
  6878                           pcl	equ	2
  6879  0CFD                     __ptext1013:	;psect for function ___lwmod
  6880                           opt subtitle "HI-TECH Software Omniscient Code Generator (Lite mode) build 49521"
  6881                           
  6882                           opt pagewidth 120
  6883                           
  6884  0045                     	__size_of___lwmod	equ	__end_of___lwmod-___lwmod
  6885                           opt subtitle "HI-TECH Software Omniscient Code Generator (Lite mode) build 49521"
  6886  0CFD                     ___lwmod:	
  6887                           opt subtitle "HI-TECH Software Omniscient Code Generator (Lite mode) build 49521"
  6888                           
  6889                           opt pagewidth 120
  6890                           
  6891  0CFD                     l3629:	
  6892  0CFD  1283               	bcf	status, 5	;RP0=0, select bank0
  6893  0CFE  1303               	bcf	status, 6	;RP1=0, select bank0
  6894  0CFF  083C               	movf	(___lwmod@divisor+1),w
  6895  0D00  043B               	iorwf	(___lwmod@divisor),w
  6896  0D01  1903               	skipnz
  6897  0D02  2D04               	goto	u3561
  6898  0D03  2D05               	goto	u3560
  6899  0D04                     u3561:
  6900  0D04  2D3A               	goto	l3647
  6901  0D05                     u3560:
  6902                           opt subtitle "HI-TECH Software Omniscient Code Generator (Lite mode) build 49521"
  6903                           
  6904  0D05                     l3631:	
  6905  0D05  01C0               	clrf	(___lwmod@counter)
  6906  0D06  0AC0               	incf	(___lwmod@counter),f
  6907                           opt subtitle "HI-TECH Software Omniscient Code Generator (Lite mode) build 49521"
  6908  0D07  2D14               	goto	l3637
  6909                           opt subtitle "HI-TECH Software Omniscient Code Generator (Lite mode) build 49521"
  6910  0D08                     l397:	
  6911                           opt subtitle "HI-TECH Software Omniscient Code Generator (Lite mode) build 49521"
  6912                           
  6913  0D08                     l3633:	
  6914  0D08  3001               	movlw	01h
  6915                           opt subtitle "HI-TECH Software Omniscient Code Generator (Lite mode) build 49521"
  6916  0D09                     u3575:
  6917  0D09  1003               	clrc
  6918  0D0A  0DBB               	rlf	(___lwmod@divisor),f
  6919  0D0B  0DBC               	rlf	(___lwmod@divisor+1),f
  6920  0D0C  3EFF               	addlw	-1
  6921  0D0D  1D03               	skipz
  6922  0D0E  2D09               	goto	u3575
  6923                           opt subtitle "HI-TECH Software Omniscient Code Generator (Lite mode) build 49521"
  6924                           
  6925  0D0F                     l3635:	
  6926  0D0F  3001               	movlw	(01h)
  6927  0D10  00BF               	movwf	(??___lwmod+0)+0
  6928  0D11  083F               	movf	(??___lwmod+0)+0,w
  6929  0D12  07C0               	addwf	(___lwmod@counter),f
  6930  0D13  2D14               	goto	l3637
  6931                           opt subtitle "HI-TECH Software Omniscient Code Generator (Lite mode) build 49521"
  6932                           
  6933  0D14                     l396:	
  6934                           opt subtitle "HI-TECH Software Omniscient Code Generator (Lite mode) build 49521"
  6935                           
  6936  0D14                     l3637:	
  6937  0D14  1FBC               	btfss	(___lwmod@divisor+1),(15)&7
  6938  0D15  2D17               	goto	u3581
  6939  0D16  2D18               	goto	u3580
  6940  0D17                     u3581:
  6941  0D17  2D08               	goto	l3633
  6942  0D18                     u3580:
  6943  0D18  2D1A               	goto	l3639
  6944                           opt subtitle "HI-TECH Software Omniscient Code Generator (Lite mode) build 49521"
  6945  0D19                     l398:	
  6946  0D19  2D1A               	goto	l3639
  6947                           opt subtitle "HI-TECH Software Omniscient Code Generator (Lite mode) build 49521"
  6948                           
  6949  0D1A                     l399:	
  6950                           opt subtitle "HI-TECH Software Omniscient Code Generator (Lite mode) build 49521"
  6951                           
  6952  0D1A                     l3639:	
  6953  0D1A  083C               	movf	(___lwmod@divisor+1),w
  6954  0D1B  023E               	subwf	(___lwmod@dividend+1),w
  6955  0D1C  1D03               	skipz
  6956  0D1D  2D20               	goto	u3595
  6957  0D1E  083B               	movf	(___lwmod@divisor),w
  6958  0D1F  023D               	subwf	(___lwmod@dividend),w
  6959  0D20                     u3595:
  6960  0D20  1C03               	skipc
  6961  0D21  2D23               	goto	u3591
  6962  0D22  2D24               	goto	u3590
  6963  0D23                     u3591:
  6964  0D23  2D2B               	goto	l3643
  6965  0D24                     u3590:
  6966                           opt subtitle "HI-TECH Software Omniscient Code Generator (Lite mode) build 49521"
  6967                           
  6968  0D24                     l3641:	
  6969  0D24  083B               	movf	(___lwmod@divisor),w
  6970  0D25  02BD               	subwf	(___lwmod@dividend),f
  6971  0D26  083C               	movf	(___lwmod@divisor+1),w
  6972  0D27  1C03               	skipc
  6973  0D28  03BE               	decf	(___lwmod@dividend+1),f
  6974  0D29  02BE               	subwf	(___lwmod@dividend+1),f
  6975  0D2A  2D2B               	goto	l3643
  6976                           opt subtitle "HI-TECH Software Omniscient Code Generator (Lite mode) build 49521"
  6977  0D2B                     l400:	
  6978                           opt subtitle "HI-TECH Software Omniscient Code Generator (Lite mode) build 49521"
  6979                           
  6980  0D2B                     l3643:	
  6981  0D2B  3001               	movlw	01h
  6982                           opt subtitle "HI-TECH Software Omniscient Code Generator (Lite mode) build 49521"
  6983  0D2C                     u3605:
  6984  0D2C  1003               	clrc
  6985  0D2D  0CBC               	rrf	(___lwmod@divisor+1),f
  6986  0D2E  0CBB               	rrf	(___lwmod@divisor),f
  6987  0D2F  3EFF               	addlw	-1
  6988  0D30  1D03               	skipz
  6989  0D31  2D2C               	goto	u3605
  6990                           opt subtitle "HI-TECH Software Omniscient Code Generator (Lite mode) build 49521"
  6991                           
  6992  0D32                     l3645:	
  6993  0D32  3001               	movlw	low(01h)
  6994  0D33  02C0               	subwf	(___lwmod@counter),f
  6995  0D34  1D03               	btfss	status,2
  6996  0D35  2D37               	goto	u3611
  6997  0D36  2D38               	goto	u3610
  6998  0D37                     u3611:
  6999  0D37  2D1A               	goto	l3639
  7000  0D38                     u3610:
  7001  0D38  2D3A               	goto	l3647
  7002                           opt subtitle "HI-TECH Software Omniscient Code Generator (Lite mode) build 49521"
  7003  0D39                     l401:	
  7004  0D39  2D3A               	goto	l3647
  7005                           opt subtitle "HI-TECH Software Omniscient Code Generator (Lite mode) build 49521"
  7006                           
  7007  0D3A                     l395:	
  7008                           opt subtitle "HI-TECH Software Omniscient Code Generator (Lite mode) build 49521"
  7009                           
  7010  0D3A                     l3647:	
  7011  0D3A  083E               	movf	(___lwmod@dividend+1),w
  7012  0D3B  01BC               	clrf	(?___lwmod+1)
  7013  0D3C  07BC               	addwf	(?___lwmod+1)
  7014  0D3D  083D               	movf	(___lwmod@dividend),w
  7015  0D3E  01BB               	clrf	(?___lwmod)
  7016  0D3F  07BB               	addwf	(?___lwmod)
  7017                           opt subtitle "HI-TECH Software Omniscient Code Generator (Lite mode) build 49521"
  7018  0D40  2D41               	goto	l402
  7019                           opt subtitle "HI-TECH Software Omniscient Code Generator (Lite mode) build 49521"
  7020  0D41                     l3649:	
  7021                           opt subtitle "HI-TECH Software Omniscient Code Generator (Lite mode) build 49521"
  7022                           
  7023  0D41                     l402:	
  7024  0D41  0008               	return
  7025                           opt subtitle "HI-TECH Software Omniscient Code Generator (Lite mode) build 49521"
  7026                           
  7027  0D42                     	__end_of___lwmod:
  7028                           opt subtitle "HI-TECH Software Omniscient Code Generator (Lite mode) build 49521"
  7029                           
  7030                           opt pagewidth 120
  7031                           
  7032                           	opt lm
  7033                           
  7034                           	processor	16F707
  7035                           clrc	macro
  7036                           	bcf	3,0
  7037                           	endm
  7038                           clrz	macro
  7039                           	bcf	3,2
  7040                           	endm
  7041                           setc	macro
  7042                           	bsf	3,0
  7043                           	endm
  7044                           setz	macro
  7045                           	bsf	3,2
  7046                           	endm
  7047                           skipc	macro
  7048                           	btfss	3,0
  7049                           	endm
  7050                           skipz	macro
  7051                           	btfss	3,2
  7052                           	endm
  7053                           skipnc	macro
  7054                           	btfsc	3,0
  7055                           	endm
  7056                           skipnz	macro
  7057                           	btfsc	3,2
  7058                           	endm
  7059                           indf	equ	0
  7060                           indf0	equ	0
  7061                           pc	equ	2
  7062                           pcl	equ	2
  7063                           status	equ	3
  7064                           fsr	equ	4
  7065  0DDE                     __ptext1014:	;psect for function ___awdiv
  7066                           opt subtitle "HI-TECH Software Omniscient Code Generator (Lite mode) build 49521"
  7067                           
  7068                           opt pagewidth 120
  7069                           
  7070  0074                     	__size_of___awdiv	equ	__end_of___awdiv-___awdiv
  7071                           opt subtitle "HI-TECH Software Omniscient Code Generator (Lite mode) build 49521"
  7072  0DDE                     ___awdiv:	
  7073                           opt subtitle "HI-TECH Software Omniscient Code Generator (Lite mode) build 49521"
  7074                           
  7075                           opt pagewidth 120
  7076                           
  7077  0DDE                     l3651:	
  7078  0DDE  1283               	bcf	status, 5	;RP0=0, select bank0
  7079  0DDF  1303               	bcf	status, 6	;RP1=0, select bank0
  7080  0DE0  01B9               	clrf	(___awdiv@sign)
  7081                           opt subtitle "HI-TECH Software Omniscient Code Generator (Lite mode) build 49521"
  7082  0DE1  1FB4               	btfss	(___awdiv@divisor+1),7
  7083  0DE2  2DE4               	goto	u3621
  7084  0DE3  2DE5               	goto	u3620
  7085  0DE4                     u3621:
  7086  0DE4  2DED               	goto	l3657
  7087  0DE5                     u3620:
  7088                           opt subtitle "HI-TECH Software Omniscient Code Generator (Lite mode) build 49521"
  7089                           
  7090  0DE5                     l3653:	
  7091  0DE5  09B3               	comf	(___awdiv@divisor),f
  7092  0DE6  09B4               	comf	(___awdiv@divisor+1),f
  7093  0DE7  0AB3               	incf	(___awdiv@divisor),f
  7094  0DE8  1903               	skipnz
  7095  0DE9  0AB4               	incf	(___awdiv@divisor+1),f
  7096                           opt subtitle "HI-TECH Software Omniscient Code Generator (Lite mode) build 49521"
  7097                           
  7098  0DEA                     l3655:	
  7099  0DEA  01B9               	clrf	(___awdiv@sign)
  7100  0DEB  0AB9               	incf	(___awdiv@sign),f
  7101  0DEC  2DED               	goto	l3657
  7102                           opt subtitle "HI-TECH Software Omniscient Code Generator (Lite mode) build 49521"
  7103                           
  7104  0DED                     l519:	
  7105                           opt subtitle "HI-TECH Software Omniscient Code Generator (Lite mode) build 49521"
  7106                           
  7107  0DED                     l3657:	
  7108  0DED  1FB6               	btfss	(___awdiv@dividend+1),7
  7109  0DEE  2DF0               	goto	u3631
  7110  0DEF  2DF1               	goto	u3630
  7111  0DF0                     u3631:
  7112  0DF0  2DFB               	goto	l3663
  7113  0DF1                     u3630:
  7114                           opt subtitle "HI-TECH Software Omniscient Code Generator (Lite mode) build 49521"
  7115                           
  7116  0DF1                     l3659:	
  7117  0DF1  09B5               	comf	(___awdiv@dividend),f
  7118  0DF2  09B6               	comf	(___awdiv@dividend+1),f
  7119  0DF3  0AB5               	incf	(___awdiv@dividend),f
  7120  0DF4  1903               	skipnz
  7121  0DF5  0AB6               	incf	(___awdiv@dividend+1),f
  7122                           opt subtitle "HI-TECH Software Omniscient Code Generator (Lite mode) build 49521"
  7123                           
  7124  0DF6                     l3661:	
  7125  0DF6  3001               	movlw	(01h)
  7126  0DF7  00B7               	movwf	(??___awdiv+0)+0
  7127  0DF8  0837               	movf	(??___awdiv+0)+0,w
  7128  0DF9  06B9               	xorwf	(___awdiv@sign),f
  7129  0DFA  2DFB               	goto	l3663
  7130                           opt subtitle "HI-TECH Software Omniscient Code Generator (Lite mode) build 49521"
  7131                           
  7132  0DFB                     l520:	
  7133                           opt subtitle "HI-TECH Software Omniscient Code Generator (Lite mode) build 49521"
  7134                           
  7135  0DFB                     l3663:	
  7136  0DFB  01BA               	clrf	(___awdiv@quotient)
  7137  0DFC  01BB               	clrf	(___awdiv@quotient+1)
  7138                           opt subtitle "HI-TECH Software Omniscient Code Generator (Lite mode) build 49521"
  7139                           
  7140  0DFD                     l3665:	
  7141  0DFD  0834               	movf	(___awdiv@divisor+1),w
  7142  0DFE  0433               	iorwf	(___awdiv@divisor),w
  7143  0DFF  1903               	skipnz
  7144  0E00  2E02               	goto	u3641
  7145  0E01  2E03               	goto	u3640
  7146  0E02                     u3641:
  7147  0E02  2E40               	goto	l3685
  7148  0E03                     u3640:
  7149                           opt subtitle "HI-TECH Software Omniscient Code Generator (Lite mode) build 49521"
  7150                           
  7151  0E03                     l3667:	
  7152  0E03  01B8               	clrf	(___awdiv@counter)
  7153  0E04  0AB8               	incf	(___awdiv@counter),f
  7154                           opt subtitle "HI-TECH Software Omniscient Code Generator (Lite mode) build 49521"
  7155  0E05  2E12               	goto	l3673
  7156                           opt subtitle "HI-TECH Software Omniscient Code Generator (Lite mode) build 49521"
  7157  0E06                     l523:	
  7158                           opt subtitle "HI-TECH Software Omniscient Code Generator (Lite mode) build 49521"
  7159                           
  7160  0E06                     l3669:	
  7161  0E06  3001               	movlw	01h
  7162                           opt subtitle "HI-TECH Software Omniscient Code Generator (Lite mode) build 49521"
  7163  0E07                     u3655:
  7164  0E07  1003               	clrc
  7165  0E08  0DB3               	rlf	(___awdiv@divisor),f
  7166  0E09  0DB4               	rlf	(___awdiv@divisor+1),f
  7167  0E0A  3EFF               	addlw	-1
  7168  0E0B  1D03               	skipz
  7169  0E0C  2E07               	goto	u3655
  7170                           opt subtitle "HI-TECH Software Omniscient Code Generator (Lite mode) build 49521"
  7171                           
  7172  0E0D                     l3671:	
  7173  0E0D  3001               	movlw	(01h)
  7174  0E0E  00B7               	movwf	(??___awdiv+0)+0
  7175  0E0F  0837               	movf	(??___awdiv+0)+0,w
  7176  0E10  07B8               	addwf	(___awdiv@counter),f
  7177  0E11  2E12               	goto	l3673
  7178                           opt subtitle "HI-TECH Software Omniscient Code Generator (Lite mode) build 49521"
  7179                           
  7180  0E12                     l522:	
  7181                           opt subtitle "HI-TECH Software Omniscient Code Generator (Lite mode) build 49521"
  7182                           
  7183  0E12                     l3673:	
  7184  0E12  1FB4               	btfss	(___awdiv@divisor+1),(15)&7
  7185  0E13  2E15               	goto	u3661
  7186  0E14  2E16               	goto	u3660
  7187  0E15                     u3661:
  7188  0E15  2E06               	goto	l3669
  7189  0E16                     u3660:
  7190  0E16  2E18               	goto	l3675
  7191                           opt subtitle "HI-TECH Software Omniscient Code Generator (Lite mode) build 49521"
  7192  0E17                     l524:	
  7193  0E17  2E18               	goto	l3675
  7194                           opt subtitle "HI-TECH Software Omniscient Code Generator (Lite mode) build 49521"
  7195                           
  7196  0E18                     l525:	
  7197                           opt subtitle "HI-TECH Software Omniscient Code Generator (Lite mode) build 49521"
  7198                           
  7199  0E18                     l3675:	
  7200  0E18  3001               	movlw	01h
  7201                           opt subtitle "HI-TECH Software Omniscient Code Generator (Lite mode) build 49521"
  7202  0E19                     u3675:
  7203  0E19  1003               	clrc
  7204  0E1A  0DBA               	rlf	(___awdiv@quotient),f
  7205  0E1B  0DBB               	rlf	(___awdiv@quotient+1),f
  7206  0E1C  3EFF               	addlw	-1
  7207  0E1D  1D03               	skipz
  7208  0E1E  2E19               	goto	u3675
  7209                           opt subtitle "HI-TECH Software Omniscient Code Generator (Lite mode) build 49521"
  7210  0E1F  0834               	movf	(___awdiv@divisor+1),w
  7211  0E20  0236               	subwf	(___awdiv@dividend+1),w
  7212  0E21  1D03               	skipz
  7213  0E22  2E25               	goto	u3685
  7214  0E23  0833               	movf	(___awdiv@divisor),w
  7215  0E24  0235               	subwf	(___awdiv@dividend),w
  7216  0E25                     u3685:
  7217  0E25  1C03               	skipc
  7218  0E26  2E28               	goto	u3681
  7219  0E27  2E29               	goto	u3680
  7220  0E28                     u3681:
  7221  0E28  2E31               	goto	l3681
  7222  0E29                     u3680:
  7223                           opt subtitle "HI-TECH Software Omniscient Code Generator (Lite mode) build 49521"
  7224                           
  7225  0E29                     l3677:	
  7226  0E29  0833               	movf	(___awdiv@divisor),w
  7227  0E2A  02B5               	subwf	(___awdiv@dividend),f
  7228  0E2B  0834               	movf	(___awdiv@divisor+1),w
  7229  0E2C  1C03               	skipc
  7230  0E2D  03B6               	decf	(___awdiv@dividend+1),f
  7231  0E2E  02B6               	subwf	(___awdiv@dividend+1),f
  7232                           opt subtitle "HI-TECH Software Omniscient Code Generator (Lite mode) build 49521"
  7233                           
  7234  0E2F                     l3679:	
  7235  0E2F  143A               	bsf	(___awdiv@quotient)+(0/8),(0)&7
  7236  0E30  2E31               	goto	l3681
  7237                           opt subtitle "HI-TECH Software Omniscient Code Generator (Lite mode) build 49521"
  7238                           
  7239  0E31                     l526:	
  7240                           opt subtitle "HI-TECH Software Omniscient Code Generator (Lite mode) build 49521"
  7241                           
  7242  0E31                     l3681:	
  7243  0E31  3001               	movlw	01h
  7244                           opt subtitle "HI-TECH Software Omniscient Code Generator (Lite mode) build 49521"
  7245  0E32                     u3695:
  7246  0E32  1003               	clrc
  7247  0E33  0CB4               	rrf	(___awdiv@divisor+1),f
  7248  0E34  0CB3               	rrf	(___awdiv@divisor),f
  7249  0E35  3EFF               	addlw	-1
  7250  0E36  1D03               	skipz
  7251  0E37  2E32               	goto	u3695
  7252                           opt subtitle "HI-TECH Software Omniscient Code Generator (Lite mode) build 49521"
  7253                           
  7254  0E38                     l3683:	
  7255  0E38  3001               	movlw	low(01h)
  7256  0E39  02B8               	subwf	(___awdiv@counter),f
  7257  0E3A  1D03               	btfss	status,2
  7258  0E3B  2E3D               	goto	u3701
  7259  0E3C  2E3E               	goto	u3700
  7260  0E3D                     u3701:
  7261  0E3D  2E18               	goto	l3675
  7262  0E3E                     u3700:
  7263  0E3E  2E40               	goto	l3685
  7264                           opt subtitle "HI-TECH Software Omniscient Code Generator (Lite mode) build 49521"
  7265  0E3F                     l527:	
  7266  0E3F  2E40               	goto	l3685
  7267                           opt subtitle "HI-TECH Software Omniscient Code Generator (Lite mode) build 49521"
  7268                           
  7269  0E40                     l521:	
  7270                           opt subtitle "HI-TECH Software Omniscient Code Generator (Lite mode) build 49521"
  7271                           
  7272  0E40                     l3685:	
  7273  0E40  0839               	movf	(___awdiv@sign),w
  7274  0E41  1D03               	skipz
  7275  0E42  2E44               	goto	u3710
  7276  0E43  2E4A               	goto	l3689
  7277  0E44                     u3710:
  7278                           opt subtitle "HI-TECH Software Omniscient Code Generator (Lite mode) build 49521"
  7279                           
  7280  0E44                     l3687:	
  7281  0E44  09BA               	comf	(___awdiv@quotient),f
  7282  0E45  09BB               	comf	(___awdiv@quotient+1),f
  7283  0E46  0ABA               	incf	(___awdiv@quotient),f
  7284  0E47  1903               	skipnz
  7285  0E48  0ABB               	incf	(___awdiv@quotient+1),f
  7286  0E49  2E4A               	goto	l3689
  7287                           opt subtitle "HI-TECH Software Omniscient Code Generator (Lite mode) build 49521"
  7288  0E4A                     l528:	
  7289                           opt subtitle "HI-TECH Software Omniscient Code Generator (Lite mode) build 49521"
  7290                           
  7291  0E4A                     l3689:	
  7292  0E4A  083B               	movf	(___awdiv@quotient+1),w
  7293  0E4B  01B4               	clrf	(?___awdiv+1)
  7294  0E4C  07B4               	addwf	(?___awdiv+1)
  7295  0E4D  083A               	movf	(___awdiv@quotient),w
  7296  0E4E  01B3               	clrf	(?___awdiv)
  7297  0E4F  07B3               	addwf	(?___awdiv)
  7298                           opt subtitle "HI-TECH Software Omniscient Code Generator (Lite mode) build 49521"
  7299  0E50  2E51               	goto	l529
  7300                           opt subtitle "HI-TECH Software Omniscient Code Generator (Lite mode) build 49521"
  7301  0E51                     l3691:	
  7302                           opt subtitle "HI-TECH Software Omniscient Code Generator (Lite mode) build 49521"
  7303                           
  7304  0E51                     l529:	
  7305  0E51  0008               	return
  7306                           opt subtitle "HI-TECH Software Omniscient Code Generator (Lite mode) build 49521"
  7307                           
  7308  0E52                     	__end_of___awdiv:
  7309                           opt subtitle "HI-TECH Software Omniscient Code Generator (Lite mode) build 49521"
  7310                           
  7311                           opt pagewidth 120
  7312                           
  7313                           	opt lm
  7314                           
  7315                           	processor	16F707
  7316                           clrc	macro
  7317                           	bcf	3,0
  7318                           	endm
  7319                           clrz	macro
  7320                           	bcf	3,2
  7321                           	endm
  7322                           setc	macro
  7323                           	bsf	3,0
  7324                           	endm
  7325                           setz	macro
  7326                           	bsf	3,2
  7327                           	endm
  7328                           skipc	macro
  7329                           	btfss	3,0
  7330                           	endm
  7331                           skipz	macro
  7332                           	btfss	3,2
  7333                           	endm
  7334                           skipnc	macro
  7335                           	btfsc	3,0
  7336                           	endm
  7337                           skipnz	macro
  7338                           	btfsc	3,2
  7339                           	endm
  7340                           indf	equ	0
  7341                           indf0	equ	0
  7342                           pc	equ	2
  7343  0C18                     __ptext1015:	;psect for function _ISR
  7344                           opt subtitle "HI-TECH Software Omniscient Code Generator (Lite mode) build 49521"
  7345                           
  7346                           opt pagewidth 120
  7347                           
  7348  0031                     	__size_of_ISR	equ	__end_of_ISR-_ISR
  7349                           opt subtitle "HI-TECH Software Omniscient Code Generator (Lite mode) build 49521"
  7350  0C18                     _ISR:	
  7351                           opt subtitle "HI-TECH Software Omniscient Code Generator (Lite mode) build 49521"
  7352                           
  7353                           opt pagewidth 120
  7354                           
  7355  0004                     __pintentry:
  7356                           opt subtitle "HI-TECH Software Omniscient Code Generator (Lite mode) build 49521"
  7357  0004                     interrupt_function:
  7358                           opt subtitle "HI-TECH Software Omniscient Code Generator (Lite mode) build 49521"
  7359  007E                     	saved_w	set	btemp+0
  7360  0004  00FE               	movwf	saved_w
  7361  0005  0E03               	swapf	status,w
  7362  0006  1283               	bcf	status, 5	;RP0=0, select bank0
  7363  0007  1303               	bcf	status, 6	;RP1=0, select bank0
  7364  0008  00AF               	movwf	(??_ISR+1)
  7365  0009  0804               	movf	fsr0,w
  7366  000A  00B0               	movwf	(??_ISR+2)
  7367  000B  080A               	movf	pclath,w
  7368  000C  00B1               	movwf	(??_ISR+3)
  7369  000D  087F               	movf	btemp+1,w
  7370  000E  00B2               	movwf	(??_ISR+4)
  7371  000F  120A  158A  2C18   	ljmp	_ISR
  7372                           opt subtitle "HI-TECH Software Omniscient Code Generator (Lite mode) build 49521"
  7373                           
  7374                           opt pagewidth 120
  7375  0C18                     i1l2889:	
  7376                           opt subtitle "HI-TECH Software Omniscient Code Generator (Lite mode) build 49521"
  7377  0C18  1C0C               	btfss	(96/8),(96)&7	;volatile
  7378  0C19  2C1B               	goto	u275_21
  7379  0C1A  2C1C               	goto	u275_20
  7380  0C1B                     u275_21:
  7381  0C1B  2C3E               	goto	i1l119
  7382  0C1C                     u275_20:
  7383                           opt subtitle "HI-TECH Software Omniscient Code Generator (Lite mode) build 49521"
  7384                           
  7385  0C1C                     i1l2891:	
  7386                           opt subtitle "HI-TECH Software Omniscient Code Generator (Lite mode) build 49521"
  7387                           
  7388  0C1C  3001               	movlw	(01h)
  7389  0C1D  00AE               	movwf	(??_ISR+0)+0
  7390  0C1E  082E               	movf	(??_ISR+0)+0,w
  7391  0C1F  07D5               	addwf	(_tmr1Counter),f
  7392                           opt subtitle "HI-TECH Software Omniscient Code Generator (Lite mode) build 49521"
  7393                           
  7394  0C20                     i1l2893:	
  7395                           opt subtitle "HI-TECH Software Omniscient Code Generator (Lite mode) build 49521"
  7396  0C20  018F               	clrf	(15)	;volatile
  7397                           opt subtitle "HI-TECH Software Omniscient Code Generator (Lite mode) build 49521"
  7398                           
  7399  0C21                     i1l2895:	
  7400                           opt subtitle "HI-TECH Software Omniscient Code Generator (Lite mode) build 49521"
  7401  0C21  018E               	clrf	(14)	;volatile
  7402                           opt subtitle "HI-TECH Software Omniscient Code Generator (Lite mode) build 49521"
  7403                           
  7404  0C22                     i1l2897:	
  7405                           opt subtitle "HI-TECH Software Omniscient Code Generator (Lite mode) build 49521"
  7406  0C22  0855               	movf	(_tmr1Counter),w
  7407  0C23  065B               	xorwf	(_tmr1Target),w
  7408  0C24  1D03               	skipz
  7409  0C25  2C27               	goto	u276_21
  7410  0C26  2C28               	goto	u276_20
  7411  0C27                     u276_21:
  7412  0C27  2C3C               	goto	i1l2907
  7413  0C28                     u276_20:
  7414                           opt subtitle "HI-TECH Software Omniscient Code Generator (Lite mode) build 49521"
  7415                           
  7416  0C28                     i1l2899:	
  7417                           opt subtitle "HI-TECH Software Omniscient Code Generator (Lite mode) build 49521"
  7418  0C28  30EC               	movlw	low(STR_1|8000h)
  7419  0C29  00A0               	movwf	(?i1_printf)
  7420  0C2A  3090               	movlw	high(STR_1|8000h)
  7421  0C2B  00A1               	movwf	((?i1_printf))+1
  7422  0C2C  120A  158A  2652   	fcall	i1_printf
              120A  158A         
  7423                           opt subtitle "HI-TECH Software Omniscient Code Generator (Lite mode) build 49521"
  7424                           
  7425  0C31                     i1l2901:	
  7426                           opt subtitle "HI-TECH Software Omniscient Code Generator (Lite mode) build 49521"
  7427  0C31  1283               	bcf	status, 5	;RP0=0, select bank0
  7428  0C32  1303               	bcf	status, 6	;RP1=0, select bank0
  7429  0C33  01D5               	clrf	(_tmr1Counter)
  7430                           opt subtitle "HI-TECH Software Omniscient Code Generator (Lite mode) build 49521"
  7431                           
  7432  0C34                     i1l2903:	
  7433                           opt subtitle "HI-TECH Software Omniscient Code Generator (Lite mode) build 49521"
  7434  0C34  145A               	bsf	(_flag/8),(_flag)&7
  7435                           opt subtitle "HI-TECH Software Omniscient Code Generator (Lite mode) build 49521"
  7436                           
  7437  0C35                     i1l2905:	
  7438                           opt subtitle "HI-TECH Software Omniscient Code Generator (Lite mode) build 49521"
  7439  0C35  3001               	movlw	low(01h)
  7440  0C36  07D3               	addwf	(_timelapse_count),f
  7441  0C37  1803               	skipnc
  7442  0C38  0AD4               	incf	(_timelapse_count+1),f
  7443  0C39  3000               	movlw	high(01h)
  7444  0C3A  07D4               	addwf	(_timelapse_count+1),f
  7445  0C3B  2C3C               	goto	i1l2907
  7446                           opt subtitle "HI-TECH Software Omniscient Code Generator (Lite mode) build 49521"
  7447                           
  7448  0C3C                     i1l118:	
  7449                           opt subtitle "HI-TECH Software Omniscient Code Generator (Lite mode) build 49521"
  7450                           
  7451  0C3C                     i1l2907:	
  7452                           opt subtitle "HI-TECH Software Omniscient Code Generator (Lite mode) build 49521"
  7453                           
  7454  0C3C  100C               	bcf	(96/8),(96)&7	;volatile
  7455  0C3D  2C3E               	goto	i1l119
  7456                           opt subtitle "HI-TECH Software Omniscient Code Generator (Lite mode) build 49521"
  7457                           
  7458  0C3E                     i1l117:	
  7459                           opt subtitle "HI-TECH Software Omniscient Code Generator (Lite mode) build 49521"
  7460                           
  7461  0C3E                     i1l119:	
  7462  0C3E  0832               	movf	(??_ISR+4),w
  7463  0C3F  00FF               	movwf	btemp+1
  7464  0C40  0831               	movf	(??_ISR+3),w
  7465  0C41  008A               	movwf	pclath
  7466  0C42  0830               	movf	(??_ISR+2),w
  7467  0C43  0084               	movwf	fsr0
  7468  0C44  0E2F               	swapf	(??_ISR+1)^00h,w
  7469  0C45  0083               	movwf	status
  7470  0C46  0EFE               	swapf	saved_w,f
  7471  0C47  0E7E               	swapf	saved_w,w
  7472  0C48  0009               	retfie
  7473                           opt subtitle "HI-TECH Software Omniscient Code Generator (Lite mode) build 49521"
  7474                           
  7475  0C49                     	__end_of_ISR:
  7476                           opt subtitle "HI-TECH Software Omniscient Code Generator (Lite mode) build 49521"
  7477                           
  7478                           opt pagewidth 120
  7479                           
  7480                           	opt lm
  7481                           
  7482                           	processor	16F707
  7483                           clrc	macro
  7484                           	bcf	3,0
  7485                           	endm
  7486                           clrz	macro
  7487                           	bcf	3,2
  7488                           	endm
  7489                           setc	macro
  7490                           	bsf	3,0
  7491                           	endm
  7492                           setz	macro
  7493                           	bsf	3,2
  7494                           	endm
  7495                           skipc	macro
  7496                           	btfss	3,0
  7497                           	endm
  7498                           skipz	macro
  7499                           	btfss	3,2
  7500                           	endm
  7501                           skipnc	macro
  7502                           	btfsc	3,0
  7503                           	endm
  7504                           skipnz	macro
  7505                           	btfsc	3,2
  7506                           	endm
  7507                           indf	equ	0
  7508                           indf0	equ	0
  7509                           pc	equ	2
  7510                           pcl	equ	2
  7511                           status	equ	3
  7512                           fsr	equ	4
  7513                           fsr0	equ	4
  7514                           c	equ	1
  7515                           z	equ	0
  7516                           pclath	equ	10
  7517                           # 46 "/Applications/microchip/xc8/v1.12/include/pic16f707.h"
  7518                           INDF equ 00h ;# 
  7519                           # 52 "/Applications/microchip/xc8/v1.12/include/pic16f707.h"
  7520                           TMR0 equ 01h ;# 
  7521                           # 58 "/Applications/microchip/xc8/v1.12/include/pic16f707.h"
  7522  0E52                     __ptext1016:	;psect for function i1_printf
  7523                           opt subtitle "HI-TECH Software Omniscient Code Generator (Lite mode) build 49521"
  7524                           
  7525                           opt pagewidth 120
  7526                           
  7527  01AE                     	__size_ofi1_printf	equ	__end_ofi1_printf-i1_printf
  7528                           opt subtitle "HI-TECH Software Omniscient Code Generator (Lite mode) build 49521"
  7529  0E52                     i1_printf:	
  7530                           opt subtitle "HI-TECH Software Omniscient Code Generator (Lite mode) build 49521"
  7531                           
  7532                           opt pagewidth 120
  7533                           
  7534  0E52                     i1l2813:	
  7535                           opt subtitle "HI-TECH Software Omniscient Code Generator (Lite mode) build 49521"
  7536                           
  7537                           opt pagewidth 120
  7538                           
  7539                           	opt lm
  7540                           
  7541                           	processor	16F707
  7542                           clrc	macro
  7543                           	bcf	3,0
  7544                           	endm
  7545                           clrz	macro
  7546                           	bcf	3,2
  7547  0E52  3022               	movlw	(?i1_printf+02h)&0ffh
  7548  0E53  1283               	bcf	status, 5	;RP0=0, select bank0
  7549  0E54  1303               	bcf	status, 6	;RP1=0, select bank0
  7550  0E55  00A2               	movwf	(??i1_printf+0)+0
  7551  0E56  0822               	movf	(??i1_printf+0)+0,w
  7552  0E57  00A6               	movwf	(i1printf@ap)
  7553                           opt subtitle "HI-TECH Software Omniscient Code Generator (Lite mode) build 49521"
  7554                           
  7555  0E58  2FE2               	goto	i1l2887
  7556                           opt subtitle "HI-TECH Software Omniscient Code Generator (Lite mode) build 49521"
  7557  0E59                     i1l337:	
  7558                           opt subtitle "HI-TECH Software Omniscient Code Generator (Lite mode) build 49521"
  7559                           
  7560  0E59                     i1l2815:	
  7561                           opt subtitle "HI-TECH Software Omniscient Code Generator (Lite mode) build 49521"
  7562  0E59  082D               	movf	(i1printf@c),w
  7563  0E5A  3A25               	xorlw	025h
  7564  0E5B  1903               	skipnz
  7565  0E5C  2E5E               	goto	u263_21
  7566  0E5D  2E5F               	goto	u263_20
  7567  0E5E                     u263_21:
  7568  0E5E  2E66               	goto	i1l338
  7569  0E5F                     u263_20:
  7570                           opt subtitle "HI-TECH Software Omniscient Code Generator (Lite mode) build 49521"
  7571                           
  7572  0E5F                     i1l2817:	
  7573                           opt subtitle "HI-TECH Software Omniscient Code Generator (Lite mode) build 49521"
  7574                           
  7575  0E5F  082D               	movf	(i1printf@c),w
  7576  0E60  120A  158A  2276   	fcall	i1_putch
              120A  158A         
  7577                           opt subtitle "HI-TECH Software Omniscient Code Generator (Lite mode) build 49521"
  7578                           
  7579  0E65  2FE2               	goto	i1l2887
  7580                           opt subtitle "HI-TECH Software Omniscient Code Generator (Lite mode) build 49521"
  7581                           
  7582  0E66                     i1l338:	
  7583                           opt subtitle "HI-TECH Software Omniscient Code Generator (Lite mode) build 49521"
  7584                           
  7585                           opt pagewidth 120
  7586  0E66  01A8               	clrf	(i1printf@flag)
  7587                           opt subtitle "HI-TECH Software Omniscient Code Generator (Lite mode) build 49521"
  7588                           
  7589  0E67  2E75               	goto	i1l2823
  7590                           opt subtitle "HI-TECH Software Omniscient Code Generator (Lite mode) build 49521"
  7591                           
  7592                           opt pagewidth 120
  7593  0E68                     i1l340:	
  7594                           opt subtitle "HI-TECH Software Omniscient Code Generator (Lite mode) build 49521"
  7595                           
  7596  0E68  2FFF               	goto	i1l370
  7597                           opt subtitle "HI-TECH Software Omniscient Code Generator (Lite mode) build 49521"
  7598                           
  7599                           opt pagewidth 120
  7600  0E69                     i1l342:	
  7601  0E69  2E99               	goto	i1l344
  7602                           opt subtitle "HI-TECH Software Omniscient Code Generator (Lite mode) build 49521"
  7603                           
  7604  0E6A                     i1l343:	
  7605                           opt subtitle "HI-TECH Software Omniscient Code Generator (Lite mode) build 49521"
  7606                           
  7607                           opt pagewidth 120
  7608  0E6A  2E99               	goto	i1l344
  7609                           opt subtitle "HI-TECH Software Omniscient Code Generator (Lite mode) build 49521"
  7610                           
  7611                           opt pagewidth 120
  7612  0E6B                     i1l345:	
  7613                           opt subtitle "HI-TECH Software Omniscient Code Generator (Lite mode) build 49521"
  7614                           
  7615  0E6B                     i1l346:	
  7616                           opt subtitle "HI-TECH Software Omniscient Code Generator (Lite mode) build 49521"
  7617                           
  7618                           opt pagewidth 120
  7619  0E6B  17A8               	bsf	(i1printf@flag)+(7/8),(7)&7
  7620                           opt subtitle "HI-TECH Software Omniscient Code Generator (Lite mode) build 49521"
  7621                           
  7622  0E6C  2E99               	goto	i1l344
  7623                           opt subtitle "HI-TECH Software Omniscient Code Generator (Lite mode) build 49521"
  7624                           
  7625                           opt pagewidth 120
  7626  0E6D                     i1l347:	
  7627                           opt subtitle "HI-TECH Software Omniscient Code Generator (Lite mode) build 49521"
  7628                           
  7629  0E6D                     i1l2819:	
  7630                           opt subtitle "HI-TECH Software Omniscient Code Generator (Lite mode) build 49521"
  7631  0E6D  082D               	movf	(i1printf@c),w
  7632  0E6E  120A  158A  2276   	fcall	i1_putch
              120A  158A         
  7633                           opt subtitle "HI-TECH Software Omniscient Code Generator (Lite mode) build 49521"
  7634                           
  7635  0E73  2FE2               	goto	i1l2887
  7636                           opt subtitle "HI-TECH Software Omniscient Code Generator (Lite mode) build 49521"
  7637                           
  7638  0E74                     i1l2821:	
  7639                           opt subtitle "HI-TECH Software Omniscient Code Generator (Lite mode) build 49521"
  7640  0E74  2E99               	goto	i1l344
  7641                           opt subtitle "HI-TECH Software Omniscient Code Generator (Lite mode) build 49521"
  7642                           
  7643  0E75                     i1l339:	
  7644                           opt subtitle "HI-TECH Software Omniscient Code Generator (Lite mode) build 49521"
  7645  0E75                     i1l2823:	
  7646  0E75  1283               	bcf	status, 5	;RP0=0, select bank0
  7647  0E76  1303               	bcf	status, 6	;RP1=0, select bank0
  7648  0E77  0821               	movf	(i1printf@f+1),w
  7649  0E78  00A3               	movwf	(??i1_printf+0)+0+1
  7650  0E79  0820               	movf	(i1printf@f),w
  7651  0E7A  00A2               	movwf	(??i1_printf+0)+0
  7652  0E7B  3001               	movlw	(01h)
  7653  0E7C  07A0               	addwf	(i1printf@f),f
  7654  0E7D  1803               	skipnc
  7655  0E7E  0AA1               	incf	(i1printf@f+1),f
  7656  0E7F  0823               	movf	1+(??i1_printf+0)+0,w
  7657  0E80  00FF               	movwf	btemp+1
  7658  0E81  0822               	movf	0+(??i1_printf+0)+0,w
  7659  0E82  0084               	movwf	fsr0
  7660  0E83  160A  118A  2000   	fcall	stringtab
              120A  158A         
  7661  0E88  00AD               	movwf	(i1printf@c)
  7662                           opt subtitle "HI-TECH Software Omniscient Code Generator (Lite mode) build 49521"
  7663                           
  7664                           opt pagewidth 120
  7665                           
  7666                           	opt lm
  7667                           
  7668                           	processor	16F707
  7669                           clrc	macro
  7670                           	bcf	3,0
  7671                           	endm
  7672                           clrz	macro
  7673                           	bcf	3,2
  7674  0E89  3A00               	xorlw	0^0	; case 0
  7675  0E8A  1903               	skipnz
  7676  0E8B  2FFF               	goto	i1l370
  7677  0E8C  3A58               	xorlw	88^0	; case 88
  7678  0E8D  1903               	skipnz
  7679  0E8E  2E6B               	goto	i1l346
  7680  0E8F  3A3C               	xorlw	100^88	; case 100
  7681  0E90  1903               	skipnz
  7682  0E91  2E99               	goto	i1l344
  7683  0E92  3A0D               	xorlw	105^100	; case 105
  7684  0E93  1903               	skipnz
  7685  0E94  2E99               	goto	i1l344
  7686  0E95  3A11               	xorlw	120^105	; case 120
  7687  0E96  1903               	skipnz
  7688  0E97  2E6B               	goto	i1l346
  7689  0E98  2E6D               	goto	i1l2819
  7690                           opt subtitle "HI-TECH Software Omniscient Code Generator (Lite mode) build 49521"
  7691                           
  7692                           opt pagewidth 120
  7693                           
  7694  0E99                     i1l344:	
  7695                           opt subtitle "HI-TECH Software Omniscient Code Generator (Lite mode) build 49521"
  7696                           
  7697  0E99  1283               	bcf	status, 5	;RP0=0, select bank0
  7698  0E9A  1303               	bcf	status, 6	;RP1=0, select bank0
  7699  0E9B  1BA8               	btfsc	(i1printf@flag),(7)&7
  7700  0E9C  2E9E               	goto	u264_21
  7701  0E9D  2E9F               	goto	u264_20
  7702  0E9E                     u264_21:
  7703  0E9E  2EBA               	goto	i1l2835
  7704  0E9F                     u264_20:
  7705                           opt subtitle "HI-TECH Software Omniscient Code Generator (Lite mode) build 49521"
  7706                           
  7707  0E9F                     i1l2825:	
  7708                           opt subtitle "HI-TECH Software Omniscient Code Generator (Lite mode) build 49521"
  7709                           
  7710  0E9F  0826               	movf	(i1printf@ap),w
  7711  0EA0  0084               	movwf	fsr0
  7712  0EA1  1383               	bcf	status, 7	;select IRP bank0
  7713  0EA2  0800               	movf	indf,w
  7714  0EA3  00A9               	movwf	(i1printf@_val)
  7715  0EA4  0A84               	incf	fsr0,f
  7716  0EA5  0800               	movf	indf,w
  7717  0EA6  00AA               	movwf	(i1printf@_val+1)
  7718                           opt subtitle "HI-TECH Software Omniscient Code Generator (Lite mode) build 49521"
  7719  0EA7                     i1l2827:	
  7720  0EA7  3002               	movlw	(02h)
  7721  0EA8  00A2               	movwf	(??i1_printf+0)+0
  7722  0EA9  0822               	movf	(??i1_printf+0)+0,w
  7723  0EAA  07A6               	addwf	(i1printf@ap),f
  7724                           opt subtitle "HI-TECH Software Omniscient Code Generator (Lite mode) build 49521"
  7725                           
  7726  0EAB                     i1l2829:	
  7727                           opt subtitle "HI-TECH Software Omniscient Code Generator (Lite mode) build 49521"
  7728  0EAB  1FAA               	btfss	(i1printf@_val+1),7
  7729  0EAC  2EAE               	goto	u265_21
  7730  0EAD  2EAF               	goto	u265_20
  7731  0EAE                     u265_21:
  7732  0EAE  2F37               	goto	i1l2865
  7733  0EAF                     u265_20:
  7734                           opt subtitle "HI-TECH Software Omniscient Code Generator (Lite mode) build 49521"
  7735                           
  7736  0EAF                     i1l2831:	
  7737                           opt subtitle "HI-TECH Software Omniscient Code Generator (Lite mode) build 49521"
  7738  0EAF  3003               	movlw	(03h)
  7739  0EB0  00A2               	movwf	(??i1_printf+0)+0
  7740  0EB1  0822               	movf	(??i1_printf+0)+0,w
  7741  0EB2  04A8               	iorwf	(i1printf@flag),f
  7742                           opt subtitle "HI-TECH Software Omniscient Code Generator (Lite mode) build 49521"
  7743                           
  7744  0EB3                     i1l2833:	
  7745                           opt subtitle "HI-TECH Software Omniscient Code Generator (Lite mode) build 49521"
  7746  0EB3  09A9               	comf	(i1printf@_val),f
  7747  0EB4  09AA               	comf	(i1printf@_val+1),f
  7748  0EB5  0AA9               	incf	(i1printf@_val),f
  7749  0EB6  1903               	skipnz
  7750  0EB7  0AAA               	incf	(i1printf@_val+1),f
  7751  0EB8  2F37               	goto	i1l2865
  7752                           opt subtitle "HI-TECH Software Omniscient Code Generator (Lite mode) build 49521"
  7753                           
  7754  0EB9                     i1l349:	
  7755                           opt subtitle "HI-TECH Software Omniscient Code Generator (Lite mode) build 49521"
  7756                           
  7757                           opt pagewidth 120
  7758  0EB9  2F37               	goto	i1l2865
  7759                           opt subtitle "HI-TECH Software Omniscient Code Generator (Lite mode) build 49521"
  7760                           
  7761  0EBA                     i1l348:	
  7762                           opt subtitle "HI-TECH Software Omniscient Code Generator (Lite mode) build 49521"
  7763                           
  7764  0EBA                     i1l2835:	
  7765                           opt subtitle "HI-TECH Software Omniscient Code Generator (Lite mode) build 49521"
  7766                           
  7767                           opt pagewidth 120
  7768  0EBA  0826               	movf	(i1printf@ap),w
  7769  0EBB  0084               	movwf	fsr0
  7770  0EBC  1383               	bcf	status, 7	;select IRP bank0
  7771  0EBD  0800               	movf	indf,w
  7772  0EBE  00A9               	movwf	(i1printf@_val)
  7773  0EBF  0A84               	incf	fsr0,f
  7774  0EC0  0800               	movf	indf,w
  7775  0EC1  00AA               	movwf	(i1printf@_val+1)
  7776                           opt subtitle "HI-TECH Software Omniscient Code Generator (Lite mode) build 49521"
  7777  0EC2                     i1l2837:	
  7778  0EC2  3002               	movlw	(02h)
  7779  0EC3  00A2               	movwf	(??i1_printf+0)+0
  7780  0EC4  0822               	movf	(??i1_printf+0)+0,w
  7781  0EC5  07A6               	addwf	(i1printf@ap),f
  7782  0EC6  2F37               	goto	i1l2865
  7783                           opt subtitle "HI-TECH Software Omniscient Code Generator (Lite mode) build 49521"
  7784                           
  7785  0EC7                     i1l350:	
  7786                           opt subtitle "HI-TECH Software Omniscient Code Generator (Lite mode) build 49521"
  7787                           
  7788                           opt pagewidth 120
  7789  0EC7  2F37               	goto	i1l2865
  7790                           opt subtitle "HI-TECH Software Omniscient Code Generator (Lite mode) build 49521"
  7791                           
  7792                           opt pagewidth 120
  7793  0EC8                     i1l352:	
  7794                           opt subtitle "HI-TECH Software Omniscient Code Generator (Lite mode) build 49521"
  7795                           
  7796  0EC8  01AD               	clrf	(i1printf@c)
  7797  0EC9  0AAD               	incf	(i1printf@c),f
  7798                           opt subtitle "HI-TECH Software Omniscient Code Generator (Lite mode) build 49521"
  7799  0ECA                     i1l2839:	
  7800  0ECA  082D               	movf	(i1printf@c),w
  7801  0ECB  3A05               	xorlw	05h
  7802  0ECC  1D03               	skipz
  7803  0ECD  2ECF               	goto	u266_21
  7804  0ECE  2ED0               	goto	u266_20
  7805  0ECF                     u266_21:
  7806  0ECF  2ED2               	goto	i1l2843
  7807  0ED0                     u266_20:
  7808  0ED0  2F40               	goto	i1l2867
  7809                           opt subtitle "HI-TECH Software Omniscient Code Generator (Lite mode) build 49521"
  7810  0ED1                     i1l2841:	
  7811  0ED1  2F40               	goto	i1l2867
  7812                           opt subtitle "HI-TECH Software Omniscient Code Generator (Lite mode) build 49521"
  7813                           
  7814  0ED2                     i1l353:	
  7815                           opt subtitle "HI-TECH Software Omniscient Code Generator (Lite mode) build 49521"
  7816  0ED2                     i1l2843:	
  7817                           opt subtitle "HI-TECH Software Omniscient Code Generator (Lite mode) build 49521"
  7818  0ED2  082D               	movf	(i1printf@c),w
  7819  0ED3  00A2               	movwf	(??i1_printf+0)+0
  7820  0ED4  0722               	addwf	(??i1_printf+0)+0,w
  7821  0ED5  3E83               	addlw	low(_dpowers|8000h)
  7822  0ED6  0084               	movwf	fsr0
  7823  0ED7  3090               	movlw	high(_dpowers|8000h)
  7824  0ED8  1803               	skipnc
  7825  0ED9  3E01               	addlw	1
  7826  0EDA  00FF               	movwf	btemp+1
  7827  0EDB  160A  118A  2000   	fcall	stringtab
              120A  158A         
  7828  0EE0  00A3               	movwf	(??i1_printf+1)+0
  7829  0EE1  160A  118A  2000   	fcall	stringtab
              120A  158A         
  7830  0EE6  00A4               	movwf	(??i1_printf+1)+0+1
  7831  0EE7  0824               	movf	1+(??i1_printf+1)+0,w
  7832  0EE8  022A               	subwf	(i1printf@_val+1),w
  7833  0EE9  1D03               	skipz
  7834  0EEA  2EED               	goto	u267_25
  7835  0EEB  0823               	movf	0+(??i1_printf+1)+0,w
  7836  0EEC  0229               	subwf	(i1printf@_val),w
  7837  0EED                     u267_25:
  7838  0EED  1803               	skipnc
  7839  0EEE  2EF0               	goto	u267_21
  7840  0EEF  2EF1               	goto	u267_20
  7841  0EF0                     u267_21:
  7842  0EF0  2EF3               	goto	i1l2847
  7843  0EF1                     u267_20:
  7844  0EF1  2F40               	goto	i1l2867
  7845                           opt subtitle "HI-TECH Software Omniscient Code Generator (Lite mode) build 49521"
  7846                           
  7847  0EF2                     i1l2845:	
  7848                           opt subtitle "HI-TECH Software Omniscient Code Generator (Lite mode) build 49521"
  7849  0EF2  2F40               	goto	i1l2867
  7850                           opt subtitle "HI-TECH Software Omniscient Code Generator (Lite mode) build 49521"
  7851  0EF3                     i1l355:	
  7852                           opt subtitle "HI-TECH Software Omniscient Code Generator (Lite mode) build 49521"
  7853                           
  7854  0EF3                     i1l2847:	
  7855  0EF3  3001               	movlw	(01h)
  7856  0EF4  00A2               	movwf	(??i1_printf+0)+0
  7857  0EF5  0822               	movf	(??i1_printf+0)+0,w
  7858  0EF6  07AD               	addwf	(i1printf@c),f
  7859                           opt subtitle "HI-TECH Software Omniscient Code Generator (Lite mode) build 49521"
  7860  0EF7                     i1l2849:	
  7861  0EF7  082D               	movf	(i1printf@c),w
  7862  0EF8  3A05               	xorlw	05h
  7863  0EF9  1D03               	skipz
  7864  0EFA  2EFC               	goto	u268_21
  7865  0EFB  2EFD               	goto	u268_20
  7866  0EFC                     u268_21:
  7867  0EFC  2ED2               	goto	i1l2843
  7868  0EFD                     u268_20:
  7869  0EFD  2F40               	goto	i1l2867
  7870                           opt subtitle "HI-TECH Software Omniscient Code Generator (Lite mode) build 49521"
  7871  0EFE                     i1l354:	
  7872                           opt subtitle "HI-TECH Software Omniscient Code Generator (Lite mode) build 49521"
  7873                           
  7874  0EFE  2F40               	goto	i1l2867
  7875                           opt subtitle "HI-TECH Software Omniscient Code Generator (Lite mode) build 49521"
  7876                           
  7877                           opt pagewidth 120
  7878  0EFF                     i1l357:	
  7879                           opt subtitle "HI-TECH Software Omniscient Code Generator (Lite mode) build 49521"
  7880                           
  7881  0EFF  01AD               	clrf	(i1printf@c)
  7882  0F00  0AAD               	incf	(i1printf@c),f
  7883                           opt subtitle "HI-TECH Software Omniscient Code Generator (Lite mode) build 49521"
  7884  0F01                     i1l2851:	
  7885  0F01  082D               	movf	(i1printf@c),w
  7886  0F02  3A04               	xorlw	04h
  7887  0F03  1D03               	skipz
  7888  0F04  2F06               	goto	u269_21
  7889  0F05  2F07               	goto	u269_20
  7890  0F06                     u269_21:
  7891  0F06  2F09               	goto	i1l2855
  7892  0F07                     u269_20:
  7893  0F07  2F40               	goto	i1l2867
  7894                           opt subtitle "HI-TECH Software Omniscient Code Generator (Lite mode) build 49521"
  7895  0F08                     i1l2853:	
  7896  0F08  2F40               	goto	i1l2867
  7897                           opt subtitle "HI-TECH Software Omniscient Code Generator (Lite mode) build 49521"
  7898                           
  7899  0F09                     i1l358:	
  7900                           opt subtitle "HI-TECH Software Omniscient Code Generator (Lite mode) build 49521"
  7901  0F09                     i1l2855:	
  7902                           opt subtitle "HI-TECH Software Omniscient Code Generator (Lite mode) build 49521"
  7903  0F09  082D               	movf	(i1printf@c),w
  7904  0F0A  00A2               	movwf	(??i1_printf+0)+0
  7905  0F0B  0722               	addwf	(??i1_printf+0)+0,w
  7906  0F0C  3E8D               	addlw	low(_hexpowers|8000h)
  7907  0F0D  0084               	movwf	fsr0
  7908  0F0E  3090               	movlw	high(_hexpowers|8000h)
  7909  0F0F  1803               	skipnc
  7910  0F10  3E01               	addlw	1
  7911  0F11  00FF               	movwf	btemp+1
  7912  0F12  160A  118A  2000   	fcall	stringtab
              120A  158A         
  7913  0F17  00A3               	movwf	(??i1_printf+1)+0
  7914  0F18  160A  118A  2000   	fcall	stringtab
              120A  158A         
  7915  0F1D  00A4               	movwf	(??i1_printf+1)+0+1
  7916  0F1E  0824               	movf	1+(??i1_printf+1)+0,w
  7917  0F1F  022A               	subwf	(i1printf@_val+1),w
  7918  0F20  1D03               	skipz
  7919  0F21  2F24               	goto	u270_25
  7920  0F22  0823               	movf	0+(??i1_printf+1)+0,w
  7921  0F23  0229               	subwf	(i1printf@_val),w
  7922  0F24                     u270_25:
  7923  0F24  1803               	skipnc
  7924  0F25  2F27               	goto	u270_21
  7925  0F26  2F28               	goto	u270_20
  7926  0F27                     u270_21:
  7927  0F27  2F2A               	goto	i1l2859
  7928  0F28                     u270_20:
  7929  0F28  2F40               	goto	i1l2867
  7930                           opt subtitle "HI-TECH Software Omniscient Code Generator (Lite mode) build 49521"
  7931                           
  7932  0F29                     i1l2857:	
  7933                           opt subtitle "HI-TECH Software Omniscient Code Generator (Lite mode) build 49521"
  7934  0F29  2F40               	goto	i1l2867
  7935                           opt subtitle "HI-TECH Software Omniscient Code Generator (Lite mode) build 49521"
  7936  0F2A                     i1l360:	
  7937                           opt subtitle "HI-TECH Software Omniscient Code Generator (Lite mode) build 49521"
  7938                           
  7939  0F2A                     i1l2859:	
  7940  0F2A  3001               	movlw	(01h)
  7941  0F2B  00A2               	movwf	(??i1_printf+0)+0
  7942  0F2C  0822               	movf	(??i1_printf+0)+0,w
  7943  0F2D  07AD               	addwf	(i1printf@c),f
  7944                           opt subtitle "HI-TECH Software Omniscient Code Generator (Lite mode) build 49521"
  7945  0F2E                     i1l2861:	
  7946  0F2E  082D               	movf	(i1printf@c),w
  7947  0F2F  3A04               	xorlw	04h
  7948  0F30  1D03               	skipz
  7949  0F31  2F33               	goto	u271_21
  7950  0F32  2F34               	goto	u271_20
  7951  0F33                     u271_21:
  7952  0F33  2F09               	goto	i1l2855
  7953  0F34                     u271_20:
  7954  0F34  2F40               	goto	i1l2867
  7955                           opt subtitle "HI-TECH Software Omniscient Code Generator (Lite mode) build 49521"
  7956  0F35                     i1l359:	
  7957                           opt subtitle "HI-TECH Software Omniscient Code Generator (Lite mode) build 49521"
  7958                           
  7959  0F35  2F40               	goto	i1l2867
  7960                           opt subtitle "HI-TECH Software Omniscient Code Generator (Lite mode) build 49521"
  7961                           
  7962  0F36                     i1l2863:	
  7963                           opt subtitle "HI-TECH Software Omniscient Code Generator (Lite mode) build 49521"
  7964  0F36  2F40               	goto	i1l2867
  7965                           opt subtitle "HI-TECH Software Omniscient Code Generator (Lite mode) build 49521"
  7966                           
  7967  0F37                     i1l351:	
  7968                           opt subtitle "HI-TECH Software Omniscient Code Generator (Lite mode) build 49521"
  7969  0F37                     i1l2865:	
  7970  0F37  0828               	movf	(i1printf@flag),w
  7971  0F38  3980               	andlw	080h
  7972                           opt subtitle "HI-TECH Software Omniscient Code Generator (Lite mode) build 49521"
  7973                           
  7974                           opt pagewidth 120
  7975                           
  7976                           	opt lm
  7977                           
  7978                           	processor	16F707
  7979                           clrc	macro
  7980                           	bcf	3,0
  7981                           	endm
  7982                           clrz	macro
  7983                           	bcf	3,2
  7984  0F39  3A00               	xorlw	0^0	; case 0
  7985  0F3A  1903               	skipnz
  7986  0F3B  2EC8               	goto	i1l352
  7987  0F3C  3A80               	xorlw	128^0	; case 128
  7988  0F3D  1903               	skipnz
  7989  0F3E  2EFF               	goto	i1l357
  7990  0F3F  2F40               	goto	i1l2867
  7991                           opt subtitle "HI-TECH Software Omniscient Code Generator (Lite mode) build 49521"
  7992                           
  7993                           opt pagewidth 120
  7994                           
  7995  0F40                     i1l356:	
  7996                           opt subtitle "HI-TECH Software Omniscient Code Generator (Lite mode) build 49521"
  7997                           
  7998  0F40                     i1l2867:	
  7999                           opt subtitle "HI-TECH Software Omniscient Code Generator (Lite mode) build 49521"
  8000                           
  8001  0F40  0828               	movf	(i1printf@flag),w
  8002  0F41  3903               	andlw	03h
  8003  0F42  1903               	btfsc	status,2
  8004  0F43  2F45               	goto	u272_21
  8005  0F44  2F46               	goto	u272_20
  8006  0F45                     u272_21:
  8007  0F45  2F4D               	goto	i1l2871
  8008  0F46                     u272_20:
  8009                           opt subtitle "HI-TECH Software Omniscient Code Generator (Lite mode) build 49521"
  8010                           
  8011  0F46                     i1l2869:	
  8012                           opt subtitle "HI-TECH Software Omniscient Code Generator (Lite mode) build 49521"
  8013  0F46  302D               	movlw	(02Dh)
  8014  0F47  120A  158A  2276   	fcall	i1_putch
              120A  158A         
  8015  0F4C  2F4D               	goto	i1l2871
  8016                           opt subtitle "HI-TECH Software Omniscient Code Generator (Lite mode) build 49521"
  8017  0F4D                     i1l361:	
  8018                           opt subtitle "HI-TECH Software Omniscient Code Generator (Lite mode) build 49521"
  8019                           
  8020  0F4D                     i1l2871:	
  8021                           opt subtitle "HI-TECH Software Omniscient Code Generator (Lite mode) build 49521"
  8022                           
  8023  0F4D  1283               	bcf	status, 5	;RP0=0, select bank0
  8024  0F4E  1303               	bcf	status, 6	;RP1=0, select bank0
  8025  0F4F  082D               	movf	(i1printf@c),w
  8026  0F50  00A2               	movwf	(??i1_printf+0)+0
  8027  0F51  0822               	movf	(??i1_printf+0)+0,w
  8028  0F52  00A7               	movwf	(i1printf@prec)
  8029                           opt subtitle "HI-TECH Software Omniscient Code Generator (Lite mode) build 49521"
  8030                           
  8031  0F53  2FD4               	goto	i1l2885
  8032                           opt subtitle "HI-TECH Software Omniscient Code Generator (Lite mode) build 49521"
  8033  0F54                     i1l363:	
  8034                           opt subtitle "HI-TECH Software Omniscient Code Generator (Lite mode) build 49521"
  8035                           
  8036  0F54  2FC4               	goto	i1l2881
  8037                           opt subtitle "HI-TECH Software Omniscient Code Generator (Lite mode) build 49521"
  8038                           
  8039                           opt pagewidth 120
  8040                           
  8041  0F55                     i1l365:	
  8042                           opt subtitle "HI-TECH Software Omniscient Code Generator (Lite mode) build 49521"
  8043                           
  8044  0F55                     i1l2873:	
  8045                           opt subtitle "HI-TECH Software Omniscient Code Generator (Lite mode) build 49521"
  8046  0F55  300A               	movlw	low(0Ah)
  8047  0F56  00F8               	movwf	(?i1___lwmod)
  8048  0F57  3000               	movlw	high(0Ah)
  8049  0F58  00F9               	movwf	((?i1___lwmod))+1
  8050  0F59  0827               	movf	(i1printf@prec),w
  8051  0F5A  00A2               	movwf	(??i1_printf+0)+0
  8052  0F5B  0722               	addwf	(??i1_printf+0)+0,w
  8053  0F5C  3E83               	addlw	low(_dpowers|8000h)
  8054  0F5D  0084               	movwf	fsr0
  8055  0F5E  3090               	movlw	high(_dpowers|8000h)
  8056  0F5F  1803               	skipnc
  8057  0F60  3E01               	addlw	1
  8058  0F61  00FF               	movwf	btemp+1
  8059  0F62  160A  118A  2000   	fcall	stringtab
              120A  158A         
  8060  0F67  00F0               	movwf	(?i1___lwdiv)
  8061  0F68  160A  118A  2000   	fcall	stringtab
              120A  158A         
  8062  0F6D  00F1               	movwf	(?i1___lwdiv+1)
  8063  0F6E  082A               	movf	(i1printf@_val+1),w
  8064  0F6F  01F3               	clrf	1+(?i1___lwdiv)+02h
  8065  0F70  07F3               	addwf	1+(?i1___lwdiv)+02h
  8066  0F71  0829               	movf	(i1printf@_val),w
  8067  0F72  01F2               	clrf	0+(?i1___lwdiv)+02h
  8068  0F73  07F2               	addwf	0+(?i1___lwdiv)+02h
  8069                           opt subtitle "HI-TECH Software Omniscient Code Generator (Lite mode) build 49521"
  8070  0F74  120A  158A  2542   	fcall	i1___lwdiv
              120A  158A         
  8071  0F79  0871               	movf	(1+(?i1___lwdiv)),w
  8072  0F7A  01FB               	clrf	1+(?i1___lwmod)+02h
  8073  0F7B  07FB               	addwf	1+(?i1___lwmod)+02h
  8074  0F7C  0870               	movf	(0+(?i1___lwdiv)),w
  8075  0F7D  01FA               	clrf	0+(?i1___lwmod)+02h
  8076  0F7E  07FA               	addwf	0+(?i1___lwmod)+02h
  8077                           opt subtitle "HI-TECH Software Omniscient Code Generator (Lite mode) build 49521"
  8078  0F7F  120A  158A  24BA   	fcall	i1___lwmod
              120A  158A         
  8079  0F84  0878               	movf	(0+(?i1___lwmod)),w
  8080  0F85  3E30               	addlw	030h
  8081  0F86  1283               	bcf	status, 5	;RP0=0, select bank0
  8082  0F87  1303               	bcf	status, 6	;RP1=0, select bank0
  8083  0F88  00A3               	movwf	(??i1_printf+1)+0
  8084  0F89  0823               	movf	(??i1_printf+1)+0,w
  8085  0F8A  00AD               	movwf	(i1printf@c)
  8086                           opt subtitle "HI-TECH Software Omniscient Code Generator (Lite mode) build 49521"
  8087                           
  8088  0F8B  2FCD               	goto	i1l2883
  8089                           opt subtitle "HI-TECH Software Omniscient Code Generator (Lite mode) build 49521"
  8090                           
  8091                           opt pagewidth 120
  8092  0F8C                     i1l367:	
  8093                           opt subtitle "HI-TECH Software Omniscient Code Generator (Lite mode) build 49521"
  8094                           
  8095  0F8C                     i1l2875:	
  8096                           opt subtitle "HI-TECH Software Omniscient Code Generator (Lite mode) build 49521"
  8097                           
  8098  0F8C  0827               	movf	(i1printf@prec),w
  8099  0F8D  00A2               	movwf	(??i1_printf+0)+0
  8100  0F8E  0722               	addwf	(??i1_printf+0)+0,w
  8101  0F8F  3E8D               	addlw	low(_hexpowers|8000h)
  8102  0F90  0084               	movwf	fsr0
  8103  0F91  3090               	movlw	high(_hexpowers|8000h)
  8104  0F92  1803               	skipnc
  8105  0F93  3E01               	addlw	1
  8106  0F94  00FF               	movwf	btemp+1
  8107  0F95  160A  118A  2000   	fcall	stringtab
              120A  158A         
  8108  0F9A  00F0               	movwf	(?i1___lwdiv)
  8109  0F9B  160A  118A  2000   	fcall	stringtab
              120A  158A         
  8110  0FA0  00F1               	movwf	(?i1___lwdiv+1)
  8111  0FA1  082A               	movf	(i1printf@_val+1),w
  8112  0FA2  01F3               	clrf	1+(?i1___lwdiv)+02h
  8113  0FA3  07F3               	addwf	1+(?i1___lwdiv)+02h
  8114  0FA4  0829               	movf	(i1printf@_val),w
  8115  0FA5  01F2               	clrf	0+(?i1___lwdiv)+02h
  8116  0FA6  07F2               	addwf	0+(?i1___lwdiv)+02h
  8117                           opt subtitle "HI-TECH Software Omniscient Code Generator (Lite mode) build 49521"
  8118  0FA7  120A  158A  2542   	fcall	i1___lwdiv
              120A  158A         
  8119  0FAC  0870               	movf	(0+(?i1___lwdiv)),w
  8120  0FAD  390F               	andlw	0Fh
  8121  0FAE  1283               	bcf	status, 5	;RP0=0, select bank0
  8122  0FAF  1303               	bcf	status, 6	;RP1=0, select bank0
  8123  0FB0  00A3               	movwf	(??i1_printf+1)+0
  8124  0FB1  0823               	movf	(??i1_printf+1)+0,w
  8125  0FB2  00A5               	movwf	(i1printf@idx)
  8126                           opt subtitle "HI-TECH Software Omniscient Code Generator (Lite mode) build 49521"
  8127                           
  8128  0FB3                     i1l2877:	
  8129                           opt subtitle "HI-TECH Software Omniscient Code Generator (Lite mode) build 49521"
  8130  0FB3  0825               	movf	(i1printf@idx),w
  8131  0FB4  3E11               	addlw	low(STR_14|8000h)
  8132  0FB5  0084               	movwf	fsr0
  8133  0FB6  3091               	movlw	high(STR_14|8000h)
  8134  0FB7  1803               	skipnc
  8135  0FB8  3E01               	addlw	1
  8136  0FB9  00FF               	movwf	btemp+1
  8137  0FBA  160A  118A  2000   	fcall	stringtab
              120A  158A         
  8138  0FBF  00A2               	movwf	(??i1_printf+0)+0
  8139  0FC0  0822               	movf	(??i1_printf+0)+0,w
  8140  0FC1  00AD               	movwf	(i1printf@c)
  8141                           opt subtitle "HI-TECH Software Omniscient Code Generator (Lite mode) build 49521"
  8142                           
  8143                           opt pagewidth 120
  8144  0FC2  2FCD               	goto	i1l2883
  8145                           opt subtitle "HI-TECH Software Omniscient Code Generator (Lite mode) build 49521"
  8146                           
  8147  0FC3                     i1l2879:	
  8148                           opt subtitle "HI-TECH Software Omniscient Code Generator (Lite mode) build 49521"
  8149  0FC3  2FCD               	goto	i1l2883
  8150                           opt subtitle "HI-TECH Software Omniscient Code Generator (Lite mode) build 49521"
  8151                           
  8152  0FC4                     i1l364:	
  8153                           opt subtitle "HI-TECH Software Omniscient Code Generator (Lite mode) build 49521"
  8154  0FC4                     i1l2881:	
  8155  0FC4  0828               	movf	(i1printf@flag),w
  8156  0FC5  3980               	andlw	080h
  8157                           opt subtitle "HI-TECH Software Omniscient Code Generator (Lite mode) build 49521"
  8158                           
  8159                           opt pagewidth 120
  8160                           
  8161                           	opt lm
  8162                           
  8163                           	processor	16F707
  8164                           clrc	macro
  8165                           	bcf	3,0
  8166                           	endm
  8167                           clrz	macro
  8168                           	bcf	3,2
  8169  0FC6  3A00               	xorlw	0^0	; case 0
  8170  0FC7  1903               	skipnz
  8171  0FC8  2F55               	goto	i1l2873
  8172  0FC9  3A80               	xorlw	128^0	; case 128
  8173  0FCA  1903               	skipnz
  8174  0FCB  2F8C               	goto	i1l2875
  8175  0FCC  2FCD               	goto	i1l2883
  8176                           opt subtitle "HI-TECH Software Omniscient Code Generator (Lite mode) build 49521"
  8177                           
  8178                           opt pagewidth 120
  8179                           
  8180  0FCD                     i1l366:	
  8181                           opt subtitle "HI-TECH Software Omniscient Code Generator (Lite mode) build 49521"
  8182                           
  8183  0FCD                     i1l2883:	
  8184                           opt subtitle "HI-TECH Software Omniscient Code Generator (Lite mode) build 49521"
  8185  0FCD  082D               	movf	(i1printf@c),w
  8186  0FCE  120A  158A  2276   	fcall	i1_putch
              120A  158A         
  8187  0FD3  2FD4               	goto	i1l2885
  8188                           opt subtitle "HI-TECH Software Omniscient Code Generator (Lite mode) build 49521"
  8189                           
  8190  0FD4                     i1l362:	
  8191                           opt subtitle "HI-TECH Software Omniscient Code Generator (Lite mode) build 49521"
  8192                           
  8193  0FD4                     i1l2885:	
  8194  0FD4  30FF               	movlw	(-1)
  8195  0FD5  1283               	bcf	status, 5	;RP0=0, select bank0
  8196  0FD6  1303               	bcf	status, 6	;RP1=0, select bank0
  8197  0FD7  00A2               	movwf	(??i1_printf+0)+0
  8198  0FD8  0822               	movf	(??i1_printf+0)+0,w
  8199  0FD9  07A7               	addwf	(i1printf@prec),f
  8200  0FDA  0827               	movf	((i1printf@prec)),w
  8201  0FDB  3AFF               	xorlw	-1
  8202  0FDC  1D03               	skipz
  8203  0FDD  2FDF               	goto	u273_21
  8204  0FDE  2FE0               	goto	u273_20
  8205  0FDF                     u273_21:
  8206  0FDF  2FC4               	goto	i1l2881
  8207  0FE0                     u273_20:
  8208  0FE0  2FE2               	goto	i1l2887
  8209                           opt subtitle "HI-TECH Software Omniscient Code Generator (Lite mode) build 49521"
  8210  0FE1                     i1l368:	
  8211  0FE1  2FE2               	goto	i1l2887
  8212                           opt subtitle "HI-TECH Software Omniscient Code Generator (Lite mode) build 49521"
  8213                           
  8214  0FE2                     i1l336:	
  8215                           opt subtitle "HI-TECH Software Omniscient Code Generator (Lite mode) build 49521"
  8216                           
  8217  0FE2                     i1l2887:	
  8218  0FE2  1283               	bcf	status, 5	;RP0=0, select bank0
  8219  0FE3  1303               	bcf	status, 6	;RP1=0, select bank0
  8220  0FE4  0821               	movf	(i1printf@f+1),w
  8221  0FE5  00A3               	movwf	(??i1_printf+0)+0+1
  8222  0FE6  0820               	movf	(i1printf@f),w
  8223  0FE7  00A2               	movwf	(??i1_printf+0)+0
  8224  0FE8  3001               	movlw	(01h)
  8225  0FE9  07A0               	addwf	(i1printf@f),f
  8226  0FEA  1803               	skipnc
  8227  0FEB  0AA1               	incf	(i1printf@f+1),f
  8228  0FEC  0823               	movf	1+(??i1_printf+0)+0,w
  8229  0FED  00FF               	movwf	btemp+1
  8230  0FEE  0822               	movf	0+(??i1_printf+0)+0,w
  8231  0FEF  0084               	movwf	fsr0
  8232  0FF0  160A  118A  2000   	fcall	stringtab
              120A  158A         
  8233  0FF5  00A4               	movwf	(??i1_printf+2)+0
  8234  0FF6  0824               	movf	(??i1_printf+2)+0,w
  8235  0FF7  00AD               	movwf	(i1printf@c)
  8236  0FF8  08AD               	movf	((i1printf@c)),f
  8237  0FF9  1D03               	skipz
  8238  0FFA  2FFC               	goto	u274_21
  8239  0FFB  2FFD               	goto	u274_20
  8240  0FFC                     u274_21:
  8241  0FFC  2E59               	goto	i1l2815
  8242  0FFD                     u274_20:
  8243  0FFD  2FFF               	goto	i1l370
  8244                           opt subtitle "HI-TECH Software Omniscient Code Generator (Lite mode) build 49521"
  8245  0FFE                     i1l369:	
  8246  0FFE  2FFF               	goto	i1l370
  8247                           opt subtitle "HI-TECH Software Omniscient Code Generator (Lite mode) build 49521"
  8248                           
  8249                           opt pagewidth 120
  8250                           
  8251                           	opt lm
  8252  0FFF                     i1l341:	
  8253                           opt subtitle "HI-TECH Software Omniscient Code Generator (Lite mode) build 49521"
  8254                           
  8255                           opt pagewidth 120
  8256                           
  8257  0FFF                     i1l370:	
  8258  0FFF  0008               	return
  8259                           opt subtitle "HI-TECH Software Omniscient Code Generator (Lite mode) build 49521"
  8260                           
  8261  1000                     	__end_ofi1_printf:
  8262                           opt subtitle "HI-TECH Software Omniscient Code Generator (Lite mode) build 49521"
  8263                           
  8264                           opt pagewidth 120
  8265                           
  8266                           	opt lm
  8267                           
  8268                           	processor	16F707
  8269                           clrc	macro
  8270                           	bcf	3,0
  8271                           	endm
  8272                           clrz	macro
  8273                           	bcf	3,2
  8274                           	endm
  8275                           setc	macro
  8276                           	bsf	3,0
  8277                           	endm
  8278                           setz	macro
  8279                           	bsf	3,2
  8280                           	endm
  8281                           skipc	macro
  8282                           	btfss	3,0
  8283                           	endm
  8284                           skipz	macro
  8285                           	btfss	3,2
  8286                           	endm
  8287                           skipnc	macro
  8288                           	btfsc	3,0
  8289                           	endm
  8290                           skipnz	macro
  8291                           	btfsc	3,2
  8292                           	endm
  8293                           indf	equ	0
  8294                           indf0	equ	0
  8295                           pc	equ	2
  8296                           pcl	equ	2
  8297  0D42                     __ptext1017:	;psect for function i1___lwdiv
  8298                           opt subtitle "HI-TECH Software Omniscient Code Generator (Lite mode) build 49521"
  8299                           
  8300                           opt pagewidth 120
  8301                           
  8302  004D                     	__size_ofi1___lwdiv	equ	__end_ofi1___lwdiv-i1___lwdiv
  8303                           opt subtitle "HI-TECH Software Omniscient Code Generator (Lite mode) build 49521"
  8304  0D42                     i1___lwdiv:	
  8305                           opt subtitle "HI-TECH Software Omniscient Code Generator (Lite mode) build 49521"
  8306                           
  8307                           opt pagewidth 120
  8308                           
  8309  0D42                     i1l2765:	
  8310  0D42  01F6               	clrf	(i1___lwdiv@quotient)
  8311  0D43  01F7               	clrf	(i1___lwdiv@quotient+1)
  8312                           opt subtitle "HI-TECH Software Omniscient Code Generator (Lite mode) build 49521"
  8313                           
  8314  0D44                     i1l2767:	
  8315  0D44  0871               	movf	(i1___lwdiv@divisor+1),w
  8316  0D45  0470               	iorwf	(i1___lwdiv@divisor),w
  8317  0D46  1903               	skipnz
  8318  0D47  2D49               	goto	u250_21
  8319  0D48  2D4A               	goto	u250_20
  8320  0D49                     u250_21:
  8321  0D49  2D87               	goto	i1l2787
  8322  0D4A                     u250_20:
  8323                           opt subtitle "HI-TECH Software Omniscient Code Generator (Lite mode) build 49521"
  8324                           
  8325  0D4A                     i1l2769:	
  8326  0D4A  01F5               	clrf	(i1___lwdiv@counter)
  8327  0D4B  0AF5               	incf	(i1___lwdiv@counter),f
  8328                           opt subtitle "HI-TECH Software Omniscient Code Generator (Lite mode) build 49521"
  8329  0D4C  2D59               	goto	i1l2775
  8330                           opt subtitle "HI-TECH Software Omniscient Code Generator (Lite mode) build 49521"
  8331  0D4D                     i1l387:	
  8332                           opt subtitle "HI-TECH Software Omniscient Code Generator (Lite mode) build 49521"
  8333                           
  8334  0D4D                     i1l2771:	
  8335  0D4D  3001               	movlw	01h
  8336                           opt subtitle "HI-TECH Software Omniscient Code Generator (Lite mode) build 49521"
  8337  0D4E                     u251_25:
  8338  0D4E  1003               	clrc
  8339  0D4F  0DF0               	rlf	(i1___lwdiv@divisor),f
  8340  0D50  0DF1               	rlf	(i1___lwdiv@divisor+1),f
  8341  0D51  3EFF               	addlw	-1
  8342  0D52  1D03               	skipz
  8343  0D53  2D4E               	goto	u251_25
  8344                           opt subtitle "HI-TECH Software Omniscient Code Generator (Lite mode) build 49521"
  8345                           
  8346  0D54                     i1l2773:	
  8347  0D54  3001               	movlw	(01h)
  8348  0D55  00F4               	movwf	(??i1___lwdiv+0)+0
  8349  0D56  0874               	movf	(??i1___lwdiv+0)+0,w
  8350  0D57  07F5               	addwf	(i1___lwdiv@counter),f
  8351  0D58  2D59               	goto	i1l2775
  8352                           opt subtitle "HI-TECH Software Omniscient Code Generator (Lite mode) build 49521"
  8353                           
  8354  0D59                     i1l386:	
  8355                           opt subtitle "HI-TECH Software Omniscient Code Generator (Lite mode) build 49521"
  8356                           
  8357  0D59                     i1l2775:	
  8358  0D59  1FF1               	btfss	(i1___lwdiv@divisor+1),(15)&7
  8359  0D5A  2D5C               	goto	u252_21
  8360  0D5B  2D5D               	goto	u252_20
  8361  0D5C                     u252_21:
  8362  0D5C  2D4D               	goto	i1l2771
  8363  0D5D                     u252_20:
  8364  0D5D  2D5F               	goto	i1l2777
  8365                           opt subtitle "HI-TECH Software Omniscient Code Generator (Lite mode) build 49521"
  8366  0D5E                     i1l388:	
  8367  0D5E  2D5F               	goto	i1l2777
  8368                           opt subtitle "HI-TECH Software Omniscient Code Generator (Lite mode) build 49521"
  8369                           
  8370  0D5F                     i1l389:	
  8371                           opt subtitle "HI-TECH Software Omniscient Code Generator (Lite mode) build 49521"
  8372                           
  8373  0D5F                     i1l2777:	
  8374  0D5F  3001               	movlw	01h
  8375                           opt subtitle "HI-TECH Software Omniscient Code Generator (Lite mode) build 49521"
  8376  0D60                     u253_25:
  8377  0D60  1003               	clrc
  8378  0D61  0DF6               	rlf	(i1___lwdiv@quotient),f
  8379  0D62  0DF7               	rlf	(i1___lwdiv@quotient+1),f
  8380  0D63  3EFF               	addlw	-1
  8381  0D64  1D03               	skipz
  8382  0D65  2D60               	goto	u253_25
  8383                           opt subtitle "HI-TECH Software Omniscient Code Generator (Lite mode) build 49521"
  8384  0D66  0871               	movf	(i1___lwdiv@divisor+1),w
  8385  0D67  0273               	subwf	(i1___lwdiv@dividend+1),w
  8386  0D68  1D03               	skipz
  8387  0D69  2D6C               	goto	u254_25
  8388  0D6A  0870               	movf	(i1___lwdiv@divisor),w
  8389  0D6B  0272               	subwf	(i1___lwdiv@dividend),w
  8390  0D6C                     u254_25:
  8391  0D6C  1C03               	skipc
  8392  0D6D  2D6F               	goto	u254_21
  8393  0D6E  2D70               	goto	u254_20
  8394  0D6F                     u254_21:
  8395  0D6F  2D78               	goto	i1l2783
  8396  0D70                     u254_20:
  8397                           opt subtitle "HI-TECH Software Omniscient Code Generator (Lite mode) build 49521"
  8398                           
  8399  0D70                     i1l2779:	
  8400  0D70  0870               	movf	(i1___lwdiv@divisor),w
  8401  0D71  02F2               	subwf	(i1___lwdiv@dividend),f
  8402  0D72  0871               	movf	(i1___lwdiv@divisor+1),w
  8403  0D73  1C03               	skipc
  8404  0D74  03F3               	decf	(i1___lwdiv@dividend+1),f
  8405  0D75  02F3               	subwf	(i1___lwdiv@dividend+1),f
  8406                           opt subtitle "HI-TECH Software Omniscient Code Generator (Lite mode) build 49521"
  8407                           
  8408  0D76                     i1l2781:	
  8409  0D76  1476               	bsf	(i1___lwdiv@quotient)+(0/8),(0)&7
  8410  0D77  2D78               	goto	i1l2783
  8411                           opt subtitle "HI-TECH Software Omniscient Code Generator (Lite mode) build 49521"
  8412                           
  8413  0D78                     i1l390:	
  8414                           opt subtitle "HI-TECH Software Omniscient Code Generator (Lite mode) build 49521"
  8415                           
  8416  0D78                     i1l2783:	
  8417  0D78  3001               	movlw	01h
  8418                           opt subtitle "HI-TECH Software Omniscient Code Generator (Lite mode) build 49521"
  8419  0D79                     u255_25:
  8420  0D79  1003               	clrc
  8421  0D7A  0CF1               	rrf	(i1___lwdiv@divisor+1),f
  8422  0D7B  0CF0               	rrf	(i1___lwdiv@divisor),f
  8423  0D7C  3EFF               	addlw	-1
  8424  0D7D  1D03               	skipz
  8425  0D7E  2D79               	goto	u255_25
  8426                           opt subtitle "HI-TECH Software Omniscient Code Generator (Lite mode) build 49521"
  8427                           
  8428  0D7F                     i1l2785:	
  8429  0D7F  3001               	movlw	low(01h)
  8430  0D80  02F5               	subwf	(i1___lwdiv@counter),f
  8431  0D81  1D03               	btfss	status,2
  8432  0D82  2D84               	goto	u256_21
  8433  0D83  2D85               	goto	u256_20
  8434  0D84                     u256_21:
  8435  0D84  2D5F               	goto	i1l2777
  8436  0D85                     u256_20:
  8437  0D85  2D87               	goto	i1l2787
  8438                           opt subtitle "HI-TECH Software Omniscient Code Generator (Lite mode) build 49521"
  8439  0D86                     i1l391:	
  8440  0D86  2D87               	goto	i1l2787
  8441                           opt subtitle "HI-TECH Software Omniscient Code Generator (Lite mode) build 49521"
  8442                           
  8443  0D87                     i1l385:	
  8444                           opt subtitle "HI-TECH Software Omniscient Code Generator (Lite mode) build 49521"
  8445                           
  8446  0D87                     i1l2787:	
  8447  0D87  0877               	movf	(i1___lwdiv@quotient+1),w
  8448  0D88  01F1               	clrf	(?i1___lwdiv+1)
  8449  0D89  07F1               	addwf	(?i1___lwdiv+1)
  8450  0D8A  0876               	movf	(i1___lwdiv@quotient),w
  8451  0D8B  01F0               	clrf	(?i1___lwdiv)
  8452  0D8C  07F0               	addwf	(?i1___lwdiv)
  8453                           opt subtitle "HI-TECH Software Omniscient Code Generator (Lite mode) build 49521"
  8454  0D8D  2D8E               	goto	i1l392
  8455                           opt subtitle "HI-TECH Software Omniscient Code Generator (Lite mode) build 49521"
  8456  0D8E                     i1l2789:	
  8457                           opt subtitle "HI-TECH Software Omniscient Code Generator (Lite mode) build 49521"
  8458                           
  8459  0D8E                     i1l392:	
  8460  0D8E  0008               	return
  8461                           opt subtitle "HI-TECH Software Omniscient Code Generator (Lite mode) build 49521"
  8462                           
  8463  0D8F                     	__end_ofi1___lwdiv:
  8464                           opt subtitle "HI-TECH Software Omniscient Code Generator (Lite mode) build 49521"
  8465                           
  8466                           opt pagewidth 120
  8467                           
  8468                           	opt lm
  8469                           
  8470                           	processor	16F707
  8471                           clrc	macro
  8472                           	bcf	3,0
  8473                           	endm
  8474                           clrz	macro
  8475                           	bcf	3,2
  8476                           	endm
  8477                           setc	macro
  8478                           	bsf	3,0
  8479                           	endm
  8480                           setz	macro
  8481                           	bsf	3,2
  8482                           	endm
  8483                           skipc	macro
  8484                           	btfss	3,0
  8485                           	endm
  8486                           skipz	macro
  8487                           	btfss	3,2
  8488                           	endm
  8489                           skipnc	macro
  8490                           	btfsc	3,0
  8491                           	endm
  8492                           skipnz	macro
  8493                           	btfsc	3,2
  8494                           	endm
  8495                           indf	equ	0
  8496                           indf0	equ	0
  8497                           pc	equ	2
  8498  0CBA                     __ptext1018:	;psect for function i1___lwmod
  8499                           opt subtitle "HI-TECH Software Omniscient Code Generator (Lite mode) build 49521"
  8500                           
  8501                           opt pagewidth 120
  8502                           
  8503  0043                     	__size_ofi1___lwmod	equ	__end_ofi1___lwmod-i1___lwmod
  8504                           opt subtitle "HI-TECH Software Omniscient Code Generator (Lite mode) build 49521"
  8505  0CBA                     i1___lwmod:	
  8506                           opt subtitle "HI-TECH Software Omniscient Code Generator (Lite mode) build 49521"
  8507                           
  8508                           opt pagewidth 120
  8509                           
  8510  0CBA                     i1l2791:	
  8511  0CBA  0879               	movf	(i1___lwmod@divisor+1),w
  8512  0CBB  0478               	iorwf	(i1___lwmod@divisor),w
  8513  0CBC  1903               	skipnz
  8514  0CBD  2CBF               	goto	u257_21
  8515  0CBE  2CC0               	goto	u257_20
  8516  0CBF                     u257_21:
  8517  0CBF  2CF5               	goto	i1l2809
  8518  0CC0                     u257_20:
  8519                           opt subtitle "HI-TECH Software Omniscient Code Generator (Lite mode) build 49521"
  8520                           
  8521  0CC0                     i1l2793:	
  8522  0CC0  01FD               	clrf	(i1___lwmod@counter)
  8523  0CC1  0AFD               	incf	(i1___lwmod@counter),f
  8524                           opt subtitle "HI-TECH Software Omniscient Code Generator (Lite mode) build 49521"
  8525  0CC2  2CCF               	goto	i1l2799
  8526                           opt subtitle "HI-TECH Software Omniscient Code Generator (Lite mode) build 49521"
  8527  0CC3                     i1l397:	
  8528                           opt subtitle "HI-TECH Software Omniscient Code Generator (Lite mode) build 49521"
  8529                           
  8530  0CC3                     i1l2795:	
  8531  0CC3  3001               	movlw	01h
  8532                           opt subtitle "HI-TECH Software Omniscient Code Generator (Lite mode) build 49521"
  8533  0CC4                     u258_25:
  8534  0CC4  1003               	clrc
  8535  0CC5  0DF8               	rlf	(i1___lwmod@divisor),f
  8536  0CC6  0DF9               	rlf	(i1___lwmod@divisor+1),f
  8537  0CC7  3EFF               	addlw	-1
  8538  0CC8  1D03               	skipz
  8539  0CC9  2CC4               	goto	u258_25
  8540                           opt subtitle "HI-TECH Software Omniscient Code Generator (Lite mode) build 49521"
  8541                           
  8542  0CCA                     i1l2797:	
  8543  0CCA  3001               	movlw	(01h)
  8544  0CCB  00FC               	movwf	(??i1___lwmod+0)+0
  8545  0CCC  087C               	movf	(??i1___lwmod+0)+0,w
  8546  0CCD  07FD               	addwf	(i1___lwmod@counter),f
  8547  0CCE  2CCF               	goto	i1l2799
  8548                           opt subtitle "HI-TECH Software Omniscient Code Generator (Lite mode) build 49521"
  8549                           
  8550  0CCF                     i1l396:	
  8551                           opt subtitle "HI-TECH Software Omniscient Code Generator (Lite mode) build 49521"
  8552                           
  8553  0CCF                     i1l2799:	
  8554  0CCF  1FF9               	btfss	(i1___lwmod@divisor+1),(15)&7
  8555  0CD0  2CD2               	goto	u259_21
  8556  0CD1  2CD3               	goto	u259_20
  8557  0CD2                     u259_21:
  8558  0CD2  2CC3               	goto	i1l2795
  8559  0CD3                     u259_20:
  8560  0CD3  2CD5               	goto	i1l2801
  8561                           opt subtitle "HI-TECH Software Omniscient Code Generator (Lite mode) build 49521"
  8562  0CD4                     i1l398:	
  8563  0CD4  2CD5               	goto	i1l2801
  8564                           opt subtitle "HI-TECH Software Omniscient Code Generator (Lite mode) build 49521"
  8565                           
  8566  0CD5                     i1l399:	
  8567                           opt subtitle "HI-TECH Software Omniscient Code Generator (Lite mode) build 49521"
  8568                           
  8569  0CD5                     i1l2801:	
  8570  0CD5  0879               	movf	(i1___lwmod@divisor+1),w
  8571  0CD6  027B               	subwf	(i1___lwmod@dividend+1),w
  8572  0CD7  1D03               	skipz
  8573  0CD8  2CDB               	goto	u260_25
  8574  0CD9  0878               	movf	(i1___lwmod@divisor),w
  8575  0CDA  027A               	subwf	(i1___lwmod@dividend),w
  8576  0CDB                     u260_25:
  8577  0CDB  1C03               	skipc
  8578  0CDC  2CDE               	goto	u260_21
  8579  0CDD  2CDF               	goto	u260_20
  8580  0CDE                     u260_21:
  8581  0CDE  2CE6               	goto	i1l2805
  8582  0CDF                     u260_20:
  8583                           opt subtitle "HI-TECH Software Omniscient Code Generator (Lite mode) build 49521"
  8584                           
  8585  0CDF                     i1l2803:	
  8586  0CDF  0878               	movf	(i1___lwmod@divisor),w
  8587  0CE0  02FA               	subwf	(i1___lwmod@dividend),f
  8588  0CE1  0879               	movf	(i1___lwmod@divisor+1),w
  8589  0CE2  1C03               	skipc
  8590  0CE3  03FB               	decf	(i1___lwmod@dividend+1),f
  8591  0CE4  02FB               	subwf	(i1___lwmod@dividend+1),f
  8592  0CE5  2CE6               	goto	i1l2805
  8593                           opt subtitle "HI-TECH Software Omniscient Code Generator (Lite mode) build 49521"
  8594  0CE6                     i1l400:	
  8595                           opt subtitle "HI-TECH Software Omniscient Code Generator (Lite mode) build 49521"
  8596                           
  8597  0CE6                     i1l2805:	
  8598  0CE6  3001               	movlw	01h
  8599                           opt subtitle "HI-TECH Software Omniscient Code Generator (Lite mode) build 49521"
  8600  0CE7                     u261_25:
  8601  0CE7  1003               	clrc
  8602  0CE8  0CF9               	rrf	(i1___lwmod@divisor+1),f
  8603  0CE9  0CF8               	rrf	(i1___lwmod@divisor),f
  8604  0CEA  3EFF               	addlw	-1
  8605  0CEB  1D03               	skipz
  8606  0CEC  2CE7               	goto	u261_25
  8607                           opt subtitle "HI-TECH Software Omniscient Code Generator (Lite mode) build 49521"
  8608                           
  8609  0CED                     i1l2807:	
  8610  0CED  3001               	movlw	low(01h)
  8611  0CEE  02FD               	subwf	(i1___lwmod@counter),f
  8612  0CEF  1D03               	btfss	status,2
  8613  0CF0  2CF2               	goto	u262_21
  8614  0CF1  2CF3               	goto	u262_20
  8615  0CF2                     u262_21:
  8616  0CF2  2CD5               	goto	i1l2801
  8617  0CF3                     u262_20:
  8618  0CF3  2CF5               	goto	i1l2809
  8619                           opt subtitle "HI-TECH Software Omniscient Code Generator (Lite mode) build 49521"
  8620  0CF4                     i1l401:	
  8621  0CF4  2CF5               	goto	i1l2809
  8622                           opt subtitle "HI-TECH Software Omniscient Code Generator (Lite mode) build 49521"
  8623                           
  8624  0CF5                     i1l395:	
  8625                           opt subtitle "HI-TECH Software Omniscient Code Generator (Lite mode) build 49521"
  8626                           
  8627  0CF5                     i1l2809:	
  8628  0CF5  087B               	movf	(i1___lwmod@dividend+1),w
  8629  0CF6  01F9               	clrf	(?i1___lwmod+1)
  8630  0CF7  07F9               	addwf	(?i1___lwmod+1)
  8631  0CF8  087A               	movf	(i1___lwmod@dividend),w
  8632  0CF9  01F8               	clrf	(?i1___lwmod)
  8633  0CFA  07F8               	addwf	(?i1___lwmod)
  8634                           opt subtitle "HI-TECH Software Omniscient Code Generator (Lite mode) build 49521"
  8635  0CFB  2CFC               	goto	i1l402
  8636                           opt subtitle "HI-TECH Software Omniscient Code Generator (Lite mode) build 49521"
  8637  0CFC                     i1l2811:	
  8638                           opt subtitle "HI-TECH Software Omniscient Code Generator (Lite mode) build 49521"
  8639                           
  8640  0CFC                     i1l402:	
  8641  0CFC  0008               	return
  8642                           opt subtitle "HI-TECH Software Omniscient Code Generator (Lite mode) build 49521"
  8643                           
  8644  0CFD                     	__end_ofi1___lwmod:
  8645                           opt subtitle "HI-TECH Software Omniscient Code Generator (Lite mode) build 49521"
  8646                           
  8647                           opt pagewidth 120
  8648                           
  8649                           	opt lm
  8650                           
  8651                           	processor	16F707
  8652                           clrc	macro
  8653                           	bcf	3,0
  8654                           	endm
  8655                           clrz	macro
  8656                           	bcf	3,2
  8657                           	endm
  8658                           setc	macro
  8659                           	bsf	3,0
  8660                           	endm
  8661                           setz	macro
  8662                           	bsf	3,2
  8663                           	endm
  8664                           skipc	macro
  8665                           	btfss	3,0
  8666                           	endm
  8667                           skipz	macro
  8668                           	btfss	3,2
  8669                           	endm
  8670                           skipnc	macro
  8671                           	btfsc	3,0
  8672                           	endm
  8673                           skipnz	macro
  8674                           	btfsc	3,2
  8675                           	endm
  8676                           indf	equ	0
  8677                           indf0	equ	0
  8678  0A76                     __ptext1019:	;psect for function i1_putch
  8679                           opt subtitle "HI-TECH Software Omniscient Code Generator (Lite mode) build 49521"
  8680                           
  8681                           opt pagewidth 120
  8682                           
  8683  000C                     	__size_ofi1_putch	equ	__end_ofi1_putch-i1_putch
  8684                           opt subtitle "HI-TECH Software Omniscient Code Generator (Lite mode) build 49521"
  8685  0A76                     i1_putch:	
  8686                           opt subtitle "HI-TECH Software Omniscient Code Generator (Lite mode) build 49521"
  8687                           
  8688                           opt pagewidth 120
  8689  0A76  00F0               	movwf	(i1putch@c)
  8690                           opt subtitle "HI-TECH Software Omniscient Code Generator (Lite mode) build 49521"
  8691                           
  8692  0A77                     i1l2761:	
  8693                           opt subtitle "HI-TECH Software Omniscient Code Generator (Lite mode) build 49521"
  8694  0A77  2A78               	goto	i1l170
  8695                           opt subtitle "HI-TECH Software Omniscient Code Generator (Lite mode) build 49521"
  8696  0A78                     i1l171:	
  8697                           opt subtitle "HI-TECH Software Omniscient Code Generator (Lite mode) build 49521"
  8698  0A78                     i1l170:	
  8699  0A78  1283               	bcf	status, 5	;RP0=0, select bank0
  8700  0A79  1303               	bcf	status, 6	;RP1=0, select bank0
  8701  0A7A  1E0C               	btfss	(100/8),(100)&7	;volatile
  8702  0A7B  2A7D               	goto	u249_21
  8703  0A7C  2A7E               	goto	u249_20
  8704  0A7D                     u249_21:
  8705  0A7D  2A78               	goto	i1l170
  8706  0A7E                     u249_20:
  8707  0A7E  2A7F               	goto	i1l2763
  8708                           opt subtitle "HI-TECH Software Omniscient Code Generator (Lite mode) build 49521"
  8709  0A7F                     i1l172:	
  8710                           opt subtitle "HI-TECH Software Omniscient Code Generator (Lite mode) build 49521"
  8711                           
  8712  0A7F                     i1l2763:	
  8713                           opt subtitle "HI-TECH Software Omniscient Code Generator (Lite mode) build 49521"
  8714  0A7F  0870               	movf	(i1putch@c),w
  8715  0A80  0099               	movwf	(25)	;volatile
  8716                           opt subtitle "HI-TECH Software Omniscient Code Generator (Lite mode) build 49521"
  8717                           
  8718  0A81                     i1l173:	
  8719  0A81  0008               	return
  8720                           opt subtitle "HI-TECH Software Omniscient Code Generator (Lite mode) build 49521"
  8721                           
  8722  0A82                     	__end_ofi1_putch:
  8723                           opt subtitle "HI-TECH Software Omniscient Code Generator (Lite mode) build 49521"
  8724                           
  8725                           opt pagewidth 120
  8726  0000                     __ptext1020:	;psect for function i1_putch
  8727                           opt subtitle "HI-TECH Software Omniscient Code Generator (Lite mode) build 49521"
  8728  007E                     	btemp set 07Eh
  8729                           opt subtitle "HI-TECH Software Omniscient Code Generator (Lite mode) build 49521"
  8730                           
  8731                           opt pagewidth 120
  8732  007E                     	wtemp0 set btemp


Data Sizes:
    Strings     186
    Constant    145
    Data        1
    BSS         39
    Persistent  0
    Stack       0

Auto Spaces:
    Space          Size  Autos    Used
    COMMON           14     14      14
    BANK0            80     51      60
    BANK1            80     12      44
    BANK3            96     39      39
    BANK2            91      0       0

Pointer List with Targets:

    ?___lwdiv	unsigned int  size(1) Largest target is 0

    ?___lwmod	unsigned int  size(1) Largest target is 0

    ?___awdiv	int  size(1) Largest target is 0

    printf@f	PTR const unsigned char  size(2) Largest target is 32
		 -> STR_13(CODE[5]), STR_12(CODE[12]), Receive_Packet@rx_buf(BANK0[32]), STR_11(CODE[5]), 
		 -> STR_10(CODE[24]), STR_9(CODE[17]), STR_8(CODE[3]), STR_7(CODE[3]), 
		 -> STR_6(CODE[10]), STR_5(CODE[12]), STR_4(CODE[26]), STR_3(CODE[18]), 
		 -> STR_2(CODE[23]), STR_1(CODE[19]), 

    ?_printf	int  size(1) Largest target is 0

    printf@ap	PTR void [1] size(1) Largest target is 2
		 -> ?_printf(BANK0[2]), 

    S982$_cp	PTR const unsigned char  size(1) Largest target is 0

    _val._str._cp	PTR const unsigned char  size(1) Largest target is 0

    SPI_Write_Buf@pBuf	PTR unsigned char  size(1) Largest target is 12
		 -> RFM70_Initialize@WriteArr(BANK0[12]), tx_buf(BANK0[4]), 

    Send_Packet@pbuf	PTR unsigned char  size(1) Largest target is 4
		 -> tx_buf(BANK0[4]), 


Critical Paths under _main in COMMON

    None.

Critical Paths under _ISR in COMMON

    i1_printf->i1___lwmod
    i1___lwmod->i1___lwdiv

Critical Paths under _main in BANK0

    _main->_Send_Packet
    _Send_Packet->_printf
    _printf->___lwmod
    _rfm70setPowerdownMode->_SPI_Read_Reg
    _RFM70_Initialize->_SwitchCFG
    _SwitchToTxMode->_SPI_Read_Reg
    _SPI_Write_Buf->_SPI_RW
    _rfm70TxDataSentInterrupt->_SPI_Read_Reg
    _SwitchToRxMode->_SPI_Read_Reg
    _rfm70TxDataSentErrorInterrupt->_SPI_Read_Reg
    _SwitchCFG->_SPI_Read_Reg
    _SPI_Read_Reg->_SPI_RW
    _SPI_Write_Reg->_SPI_RW
    ___lwmod->___lwdiv

Critical Paths under _ISR in BANK0

    _ISR->i1_printf

Critical Paths under _main in BANK1

    _main->_Send_Packet

Critical Paths under _ISR in BANK1

    None.

Critical Paths under _main in BANK3

    None.

Critical Paths under _ISR in BANK3

    None.

Critical Paths under _main in BANK2

    None.

Critical Paths under _ISR in BANK2

    None.

Call Graph Tables:

 ---------------------------------------------------------------------------------
 (Depth) Function   	        Calls       Base Space   Used Autos Params    Refs
 ---------------------------------------------------------------------------------
 (0) _main                                                50    46      4    8215
                                              6 BANK1      6     2      4
                                              0 BANK3     39    39      0
                            _spiInit
                           _uartInit
                            _adcInit
              _rfm70setPowerdownMode
                        _adcReadVcap
                             _printf
                   _RFM70_Initialize
                        _adcReadTemp
                            ___awdiv
                        _Send_Packet
 ---------------------------------------------------------------------------------
 (1) _Send_Packet                                          8     6      2    2903
                                             49 BANK0      2     0      2
                                              0 BANK1      6     6      0
                     _SwitchToTxMode
                       _SPI_Read_Reg
                             _printf
                      _SPI_Write_Buf
           _rfm70TxDataSentInterrupt
                     _SwitchToRxMode
      _rfm70TxDataSentErrorInterrupt
 ---------------------------------------------------------------------------------
 (1) _adcReadTemp                                          3     3      0      34
                                             19 BANK0      3     3      0
 ---------------------------------------------------------------------------------
 (2) _printf                                              16    12      4    1460
                                             33 BANK0     16    12      4
                              _putch
                            ___lwdiv
                            ___lwmod
 ---------------------------------------------------------------------------------
 (1) _spiInit                                              2     2      0       0
                                             19 BANK0      2     2      0
 ---------------------------------------------------------------------------------
 (1) _uartInit                                             0     0      0       0
 ---------------------------------------------------------------------------------
 (1) _adcInit                                              0     0      0       0
 ---------------------------------------------------------------------------------
 (1) _rfm70setPowerdownMode                                3     3      0     260
                                             25 BANK0      3     3      0
                       _SPI_Read_Reg
                      _SPI_Write_Reg
 ---------------------------------------------------------------------------------
 (1) _adcReadVcap                                          3     3      0      34
                                             19 BANK0      3     3      0
 ---------------------------------------------------------------------------------
 (1) _RFM70_Initialize                                    21    21      0    2745
                                             28 BANK0     21    21      0
                          _SwitchCFG
                      _SPI_Write_Reg
                      _SPI_Write_Buf
                       _SPI_Read_Reg
 ---------------------------------------------------------------------------------
 (3) _putch                                                1     1      0      31
                                             19 BANK0      1     1      0
 ---------------------------------------------------------------------------------
 (2) _SwitchToTxMode                                       2     2      0     257
                                             25 BANK0      2     2      0
                      _SPI_Write_Reg
                       _SPI_Read_Reg
 ---------------------------------------------------------------------------------
 (2) _SPI_Write_Buf                                        5     3      2     164
                                             22 BANK0      5     3      2
                             _SPI_RW
 ---------------------------------------------------------------------------------
 (2) _rfm70TxDataSentInterrupt                             1     1      0     189
                                             25 BANK0      1     1      0
                       _SPI_Read_Reg
                      _SPI_Write_Reg
 ---------------------------------------------------------------------------------
 (2) _SwitchToRxMode                                       2     2      0     291
                                             25 BANK0      2     2      0
                      _SPI_Write_Reg
                       _SPI_Read_Reg
 ---------------------------------------------------------------------------------
 (2) _rfm70TxDataSentErrorInterrupt                        1     1      0     189
                                             25 BANK0      1     1      0
                       _SPI_Read_Reg
                      _SPI_Write_Reg
 ---------------------------------------------------------------------------------
 (2) _SwitchCFG                                            3     3      0     350
                                             25 BANK0      3     3      0
                       _SPI_Read_Reg
                      _SPI_Write_Reg
 ---------------------------------------------------------------------------------
 (3) _SPI_Read_Reg                                         3     3      0      96
                                             22 BANK0      3     3      0
                             _SPI_RW
 ---------------------------------------------------------------------------------
 (3) _SPI_Write_Reg                                        2     1      1      93
                                             22 BANK0      2     1      1
                             _SPI_RW
 ---------------------------------------------------------------------------------
 (4) _SPI_RW                                               3     3      0      31
                                             19 BANK0      3     3      0
 ---------------------------------------------------------------------------------
 (3) ___lwdiv                                              8     4      4     241
                                             19 BANK0      8     4      4
 ---------------------------------------------------------------------------------
 (3) ___lwmod                                              6     2      4     232
                                             27 BANK0      6     2      4
                            ___lwdiv (ARG)
 ---------------------------------------------------------------------------------
 (1) ___awdiv                                              9     5      4     445
                                             19 BANK0      9     5      4
 ---------------------------------------------------------------------------------
 Estimated maximum stack depth 4
 ---------------------------------------------------------------------------------
 (Depth) Function   	        Calls       Base Space   Used Autos Params    Refs
 ---------------------------------------------------------------------------------
 (5) _ISR                                                  5     5      0    3276
                                             14 BANK0      5     5      0
                           i1_printf
 ---------------------------------------------------------------------------------
 (6) i1_printf                                            14    12      2    3276
                                              0 BANK0     14    12      2
                            i1_putch
                          i1___lwdiv
                          i1___lwmod
 ---------------------------------------------------------------------------------
 (7) i1___lwdiv                                            8     4      4     527
                                              0 COMMON     8     4      4
 ---------------------------------------------------------------------------------
 (7) i1___lwmod                                            6     2      4     521
                                              8 COMMON     6     2      4
                          i1___lwdiv (ARG)
 ---------------------------------------------------------------------------------
 (7) i1_putch                                              1     1      0      73
                                              0 COMMON     1     1      0
 ---------------------------------------------------------------------------------
 Estimated maximum stack depth 7
 ---------------------------------------------------------------------------------

 Call Graph Graphs:

 _main (ROOT)
   _spiInit
   _uartInit
   _adcInit
   _rfm70setPowerdownMode
     _SPI_Read_Reg
       _SPI_RW
     _SPI_Write_Reg
       _SPI_RW
   _adcReadVcap
   _printf
     _putch
     ___lwdiv
     ___lwmod
       ___lwdiv (ARG)
   _RFM70_Initialize
     _SwitchCFG
       _SPI_Read_Reg
         _SPI_RW
       _SPI_Write_Reg
         _SPI_RW
     _SPI_Write_Reg
       _SPI_RW
     _SPI_Write_Buf
       _SPI_RW
     _SPI_Read_Reg
       _SPI_RW
   _adcReadTemp
   ___awdiv
   _Send_Packet
     _SwitchToTxMode
       _SPI_Write_Reg
         _SPI_RW
       _SPI_Read_Reg
         _SPI_RW
     _SPI_Read_Reg
       _SPI_RW
     _printf
       _putch
       ___lwdiv
       ___lwmod
         ___lwdiv (ARG)
     _SPI_Write_Buf
       _SPI_RW
     _rfm70TxDataSentInterrupt
       _SPI_Read_Reg
         _SPI_RW
       _SPI_Write_Reg
         _SPI_RW
     _SwitchToRxMode
       _SPI_Write_Reg
         _SPI_RW
       _SPI_Read_Reg
         _SPI_RW
     _rfm70TxDataSentErrorInterrupt
       _SPI_Read_Reg
         _SPI_RW
       _SPI_Write_Reg
         _SPI_RW

 _ISR (ROOT)
   i1_printf
     i1_putch
     i1___lwdiv
     i1___lwmod
       i1___lwdiv (ARG)

 Address spaces:
Name               Size   Autos  Total    Cost      Usage
BANK3               60     27      27      10       40.6%
BITBANK3            60      0       0       9        0.0%
SFR3                 0      0       0       4        0.0%
BITSFR3              0      0       0       4        0.0%
BANK2               5B      0       0      12        0.0%
BITBANK2            5B      0       0      11        0.0%
SFR2                 0      0       0       5        0.0%
BITSFR2              0      0       0       5        0.0%
BANK1               50      C      2C       8       55.0%
BITBANK1            50      0       0       7        0.0%
SFR1                 0      0       0       2        0.0%
BITSFR1              0      0       0       2        0.0%
BANK0               50     33      3C       5       75.0%
BITBANK0            50      0       1       4        1.2%
SFR0                 0      0       0       1        0.0%
BITSFR0              0      0       0       1        0.0%
COMMON               E      E       E       1      100.0%
BITCOMMON            E      0       0       0        0.0%
CODE                 0      0       0       0        0.0%
DATA                 0      0      A7       6        0.0%
ABS                  0      0      9D       3        0.0%
NULL                 0      0       0       0        0.0%
STACK                0      0       A       2        0.0%


Microchip Technology PIC Macro Assembler V1.12 build 49521 
Symbol Table                                                                                   Sun Mar 10 13:40:17 2013

                                     pc 0002                             __CFG_CP$OFF 0000  
                           _SSPSTATbits 0094                            ___awdiv@sign 0039  
                                    fsr 0004          __size_of_rfm70setPowerdownMode 0025  
         __end_of_rfm70setPowerdownMode 0B6E               __size_of_RFM70_Initialize 0310  
               __size_of_SwitchToRxMode 003F                                     l130 0539  
                                   l122 03EB                                     l131 051B  
                                   l123 03BD                                     l140 0C0F  
                                   l132 0548                                     l124 03FB  
                                   l141 0C17                                     l133 0549  
                                   l125 0425                                     l134 054A  
                                   l126 044D                                     l311 0B21  
                                   l135 054A                                     l127 0486  
                                   l400 0D2B                                     l240 0AA3  
                                   l312 0B24                                     l144 0BDF  
                                   l128 04ED                                     l401 0D39  
                                   l313 0B24                                     l145 0BDF  
                                   l321 0B61                                     l161 0AB9  
                                   l129 0508                                     l402 0D41  
                                   l234 0B34                                     l306 07FC  
                                   l170 0A86                                     l146 0BE4  
                                   l322 0B63                                     l138 0C0A  
                                   l235 0B34                                     l243 0AEA  
                                   l307 07FF                                     l171 0A86  
                                   l147 0BEC                                     l323 0B6D  
                                   l139 0C0A                                     l236 0B3B  
                                   l308 07FF                                     l252 0B90  
                                   l172 0A8B                                     l164 0AD1  
                                   l340 0563                                     l237 0B48  
                                   l253 0B7C                                     l261 0BC1  
                                   l173 0A8D                                     l341 06FC  
                                   l254 0B96                                     l350 05C2  
                                   l342 0564                                     l190 0723  
                                   l255 0B97                                     l167 0A75  
                                   l351 0632                                     l343 0565  
                                   l191 0759                                     l520 0DFB  
                                   l264 0C7A                                     l280 00C2  
                                   l336 06DF                                     l360 0625  
                                   l352 05C3                                     l344 0594  
                                   l192 07CF                                     l521 0E40  
               __size_of_SwitchToTxMode 002A                                     l281 00DB  
                                   l361 0648                                     l353 05CD  
                                   l345 0566                                     l337 0554  
                                   l193 0798                                     l522 0E12  
                                   l266 0C6F                                     l258 0CB9  
                                   l290 01F0                                     l282 00F9  
                                   l362 06D1                                     l354 05F9  
                                   l346 0566                                     l370 06FC  
                                   l338 0561                                     l194 07B3  
                                   l523 0E06                                     l291 0265  
                                   l283 0122                                     l275 0034  
                                   l363 064F                                     l355 05EE  
                                   l339 0570                                     l347 0568  
                                   l195 07CE                                     l524 0E17  
                                   l268 0C65                                     l292 01F9  
                                   l284 0130                                     l276 0064  
                                   l364 06C1                                     l356 063B  
                                   l348 05B5                                     l188 07E0  
                                   l196 07D6                                     l525 0E18  
                                   l269 0C7A                                     l293 024A  
                                   l285 015F                                     l277 006D  
                                   l365 0650                                     l357 05FA  
                                   l349 05B4                                     l189 074E  
                                   l197 07E0                                     l526 0E31  
                                   l390 0DC7                                     l294 026E  
                                   l286 0170                                     l278 008B  
                                   l366 06CA                                     l358 0604  
                                   l527 0E3F                                     l519 0DED  
                                   l391 0DD5                                     l295 028C  
                                   l287 01E4                                     l279 00A4  
                                   l367 0689                                     l359 0630  
                                   l528 0E4A                                     l392 0DDD  
                                   l296 02A5                                     l288 0179  
                                   l368 06DE                                     l529 0E51  
                                   l385 0DD6                                     l297 02E8  
                                   l289 01C8                                     l369 06FB  
                                   l386 0DA8                                     l298 0324  
                                   l395 0D3A                                     l387 0D9C  
                                   l396 0D14                                     l388 0DAD  
                                   l397 0D08                                     l389 0DAE  
                                   l398 0D19                                     l399 0D1A  
                                   _GIE 005F                                     _ISR 0C18  
                                   fsr0 0004                                     indf 0000  
                                  ?_ISR 0070                                    l3001 0338  
                                  l3011 0343                                    l3003 0339  
                                  l3101 03FB                                    l3021 034C  
                                  l3013 0346                                    l3005 033A  
                                  l3111 042B                                    l3103 0414  
                                  l3031 0355                                    l3023 034F  
                                  l3015 0347                                    l3007 033D  
                                  l3201 0BE9                                    l3121 046F  
                                  l3113 0435                                    l3105 0419  
                                  l3041 035C                                    l3033 0356  
                                  l3025 0352                                    l3017 0348  
                                  l3009 0340                                    l3211 002C  
                                  l3203 0BEC                                    l3131 0508  
                                  l3115 044C                                    l3123 0486  
                                  l3107 0420                                    l3051 0369  
                                  l3043 035D                                    l3035 0357  
                                  l3027 0353                                    l3019 0349  
                                  l3301 01DD                                    l3221 0065  
                                  l3213 0033                                    l3205 0015  
                                  l3141 0516                                    l3133 050B  
                                  l3125 04D0                                    l3117 044D  
                                  l3109 0425                                    l3061 0378  
                                  l3053 036C                                    l3045 0360  
                                  l3037 035A                                    l3029 0354  
                                  l3311 01F9                                    l3303 01E4  
                                  l3223 006C                                    l3231 008B  
                                  l3215 0034                                    l3207 0023  
                                  l3151 0ABE                                    l3143 0517  
                                  l3135 0511                                    l3127 04D6  
                                  l3119 045F                                    l3071 0383  
                                  l3063 037B                                    l3055 036F  
                                  l3047 0363                                    l3039 035B  
                                  l3321 025F                                    l3313 023F  
                                  l3305 01EF                                    l3241 00B7  
                                  l3233 0099                                    l3225 006D  
                                  l3217 0058                                    l3209 0029  
                                  l3161 0AA8                                    l3153 0AC2  
                                  l3401 0782                                    l3145 051C  
                                  l3137 0514                                    l3129 04ED  
                                  l3081 0390                                    l3073 0384  
                                  l3065 037C                                    l3057 0372  
                                  l3049 0366                                    l3331 0285  
                                  l3323 0266                                    l3315 0243  
                                  l3307 01F1                                    l3251 00DA  
                                  l3243 00BB                                    l3235 009C  
                                  l3227 0080                                    l3219 005E  
                                  l3171 0AB3                                    l3163 0AAA  
                                  l3155 0AC5                                    l3411 07AD  
                                  l3403 0789                                    l3147 0539  
                                  l3139 0515                                    l3091 03A1  
                                  l3083 0391                                    l3075 0388  
                                  l3067 037D                                    l3059 0375  
                                  l3501 0B21                                    l3341 02A5  
                                  l3325 026D                                    l3333 028C  
                                  l3309 01F8                                    l3317 024A  
                                  l3261 0107                                    l3253 00DB  
                                  l3237 00A3                                    l3245 00C2  
                                  l3229 0084                                    l3181 0B57  
                                  l3173 0AB6                                    l3165 0AAD  
                                  l3157 0AC6                                    l3149 0ABA  
                                  l3421 07D6                                    l3413 07B3  
                                  l3405 078C                                    l3093 03A9  
                                  l3085 0392                                    l3077 038A  
                                  l3069 0380                                    l3503 0B23  
                                  l3431 0B98                                    l3423 0A85  
                                  l3351 02FB                                    l3343 02DD  
                                  l3335 029A                                    l3327 026E  
                                  l3319 0259                                    l3271 012F  
                                  l3263 0112                                    l3255 00EE  
                                  l3247 00D0                                    l3239 00A4  
                                  l3191 0BD1                                    l3183 0B5C  
                                  l3175 0A6C                                    l3167 0AB0  
                                  l3159 0AA4                                    l3415 07BD  
                                  l3407 0798                                    l3095 03BE  
                                  l3087 0397                                    l3079 038D  
                                  l3441 0AD5                                    l3433 0BA1  
                                  l3425 0A8B                                    l3353 0310  
                                  l3345 02E1                                    l3337 029D  
                                  l3329 0281                                    l3281 0165  
                                  l3273 0130                                    l3265 0117  
                                  l3257 00F2                                    l3249 00D3  
                                  l3193 0BD2                                    l3185 0B63  
                                  l3177 0A74                                    l3169 0AB1  
                                  l3361 0BF9                                    l3417 07C8  
                                  l3409 07A2                                    l3097 03D1  
                                  l3089 039C                                    l3611 0DA3  
                                  l3603 0D8F                                    l3451 0AEA  
                                  l3443 0AD6                                    l3435 0BAF  
                                  l3355 031B                                    l3339 02A4  
                                  l3347 02E8                                    l3291 0179  
                                  l3283 0168                                    l3275 0154  
                                  l3267 0122                                    l3259 00F9  
                                  l3195 0BDB                                    l3187 0BC2  
                                  l3179 0B4C                                    l3371 0C13  
                                  l3363 0BFC                                    l3419 07CF  
                                  l3099 03EB                                    l3621 0DC7  
                                  l3613 0DA8                                    l3605 0D93  
                                  l3445 0ADC                                    l3461 0B85  
                                  l3453 0B71                                    l3437 0BB4  
                                  l3357 0321                                    l3349 02ED  
                                  l3293 01BD                                    l3285 016F  
                                  l3277 0158                                    l3269 0128  
                                  l3197 0BE4                                    l3189 0BCE  
                                  l3373 0C14                                    l3365 0BFD  
                                  l3381 0710                                    l3631 0D05  
                                  l3623 0DCE                                    l3615 0DAE  
                                  l3607 0D99                                    l3447 0AE7  
                                  l3471 07F8                                    l3463 0B8B  
                                  l3455 0B72                                    l3439 0BBE  
                                  l3295 01C1                                    l3287 0171  
                                  l3279 015F                                    l3199 0BE8  
                                  l3375 0C17                                    l3367 0C06  
                                  l3359 0BED                                    l3391 074E  
                                  l3383 0714                                    l3641 0D24  
                                  l3633 0D08                                    l3617 0DBF  
                                  l3609 0D9C                                    l3625 0DD6  
                                  l3449 0AE8                                    l3481 0C7B  
                                  l3473 07FA                                    l3465 0B90  
                                  l3457 0B78                                    l3289 0178  
                                  l3297 01C8                                    l2921 0554  
                                  l3369 0C0F                                    l3393 0759  
                                  l3385 071F                                    l3377 0700  
                                  l3651 0DDE                                    l3643 0D2B  
                                  l3635 0D0F                                    l3627 0DDD  
                                  l3619 0DC5                                    l3571 0AA0  
                                  l3491 0B06                                    l3483 0C99  
                                  l3475 07FB                                    l3467 07E1  
                                  l3459 0B7C                                    l3299 01D7  
                                  l2931 059A                                    l2923 055A  
                                  l3395 0764                                    l3387 0723  
                                  l3379 0705                                    l3661 0DF6  
                                  l3653 0DE5                                    l3645 0D32  
                                  l3637 0D14                                    l3629 0CFD  
                                  l3573 0B28                                    l3581 0C57  
                                  l3493 0B13                                    l3485 0CA7  
                                  l3469 07EE                                    l3477 07FC  
                                  l2933 05A2                                    l2941 05B5  
                                  l2925 0568                                    l3397 0767  
                                  l3389 0747                                    l3671 0E0D  
                                  l3663 0DFB                                    l3655 0DEA  
                                  l3639 0D1A                                    l3647 0D3A  
                                  l3575 0B3B                                    l3567 0A91  
                                  l3591 0C6F                                    l3583 0C5C  
                                  l3495 0B1D                                    l3487 0CAC  
                                  l3479 07FE                                    l2951 05ED  
                                  l2943 05BD                                    l2935 05A6  
                                  l2927 056F                                    l2919 054D  
                                  l3399 077F                                    l3681 0E31  
                                  l3673 0E12                                    l3665 0DFD  
                                  l3657 0DED                                    l3649 0D41  
                                  l3577 0B48                                    l3569 0A92  
                                  l3585 0C60                                    l3497 0B1F  
                                  l3489 0CB6                                    l2961 0604  
                                  l2953 05EE                                    l2945 05C5  
                                  l2937 05AA                                    l2929 0570  
                                  l3691 0E51                                    l3683 0E38  
                                  l3675 0E18                                    l3667 0E03  
                                  l3659 0DF1                                    l3587 0C65  
                                  l3579 0C4C                                    l3499 0B20  
                                  l2963 0624                                    l2955 05F2  
                                  l2947 05CC                                    l2939 05AE  
                                  l2971 0632                                    l3677 0E29  
                                  l3669 0E06                                    l3685 0E40  
                                  l3589 0C6A                                    l2981 0689  
                                  l2965 0625                                    l2957 05FC  
                                  l2973 063B                                    l2949 05CD  
                                  l3687 0E44                                    l3679 0E2F  
                                  l2983 06B0                                    l2991 06D1  
                                  l2975 0641                                    l2967 0629  
                                  l2959 0603                                    l3689 0E4A  
                                  l2985 06C0                                    l2977 0648  
                                  l2969 0631                                    l2993 06DF  
                                  l2979 0650                                    l2987 06C1  
                                  l2995 0325                                    l2989 06CA  
                                  l2997 032F                                    l2999 0335  
                                  STR_1 10EC                                    STR_2 10D5  
                                  STR_3 10FF                                    STR_4 10A3  
                                  STR_5 1133                                    STR_6 114B  
                                  STR_7 115A                                    STR_8 1157  
                                  STR_9 1122                                    u3000 00A2  
                                  u3001 00A1                                    u3010 00C1  
                                  u3011 00C0                                    u3020 00D9  
                                  u3021 00D8                                    u3110 01B2  
                                  u3030 00F8                                    u3031 00F7  
                                  u3200 0265                                    u3120 01C7  
                                  u3040 0117                                    u3201 0264  
                                  u3121 01C6                                    u3105 01A4  
                                  u3041 0116                                    u3210 026C  
                                  u3130 01E3                                    u3050 012E  
                                  u3211 026B                                    u3131 01E2  
                                  u3115 01AD                                    u3051 012D  
                                  u3220 028B                                    u3140 01EE  
                                  u3060 015E                                    u3300 07A2  
                                  u3221 028A                                    u3141 01ED  
                                  u3061 015D                                    u3301 07A1  
                                  u3230 02A3                                    u3150 01F7  
                                  u3070 016E                                    u3310 07BD  
                                  u3231 02A2                                    u3151 01F6  
                                  u3071 016D                                    u3311 07BC  
                                  u3080 0177                                    u3320 07D5  
                                  u3081 0176                                    u3321 07D4  
                                  u3330 0A8A                                    u3250 02D2  
                                  u3331 0A89                                    u3340 0B96  
                                  u3260 02E7                                    u3180 0234  
                                  u3341 0B95                                    u3261 02E6  
                                  u3245 02C4                                    u3165 01FC  
                                  u3510 0DAC                                    u3430 0B3A  
                                  u3350 07EE                                    u3190 0249  
                                  u3270 0C0E                                    u3511 0DAB  
                                  u3431 0B39                                    u3351 07ED  
                                  u3255 02CD                                    u3191 0248  
                                  u3175 0225                                    u3095 017C  
                                  u3271 0C0D                                    u3440 0C60  
                                  u3360 0B13                                    u2800 05CB  
                                  u3280 0714                                    u3505 0D9D  
                                  u3361 0B12                                    u3185 022F  
                                  u2801 05CA                                    u3281 0713  
                                  u3610 0D38                                    u3530 0DBF  
                                  u3450 0C64                                    u2810 05EC  
                                  u3290 0758                                    u3611 0D37  
                                  u3531 0DBE                                    u2811 05EB  
                                  u3291 0757                                    u3700 0E3E  
                                  u3620 0DE5                                    u3460 0C6A  
                                  u2820 05F8                                    u2900 044B  
                                  u3701 0E3D                                    u3621 0DE4  
                                  u3605 0D2C                                    u3525 0DAF  
                                  u3461 0C69                                    u2821 05F7  
                                  u2901 044A                                    u3710 0E44  
                                  u3630 0DF1                                    u3550 0DD4  
                                  u3470 0C6E                                    u2830 0602  
                                  u2910 0485                                    u3631 0DF0  
                                  u3551 0DD3                                    u3535 0DBB  
                                  u2831 0601                                    u2815 05E8  
                                  u2911 0484                                    u2903 0447  
                                  u3640 0E03                                    u3560 0D05  
                                  u2840 0623                                    u2920 04D6  
                                  u3641 0E02                                    u3561 0D04  
                                  u3545 0DC8                                    u2841 0622  
                                  u2921 04D5                                    u2913 0481  
                                  u3490 0D99                                    u2850 062F  
                                  u2770 055A                                    u2930 0547  
                                  u3491 0D98                                    u2851 062E  
                                  u2771 0559                                    u2931 0546  
                                  _PEIE 005E                                    u3660 0E16  
                                  u3580 0D18                                    u2940 0B5C  
                                  u2860 0641                                    u2780 059A  
                                  u3661 0E15                                    u3581 0D17  
                                  u2941 0B5B                                    u2861 0640  
                                  u2845 061F                                    u2781 0599  
                                  u3590 0D24                                    u2950 0BE3  
                                  u2870 06DD                                    u2790 05AA  
                                  u3655 0E07                                    u3591 0D23  
                                  u3575 0D09                                    u3807 0B3F  
                                  u2951 0BE2                                    u2871 06DC  
                                  u2791 05A9                                    u3727 0786  
                                  u3680 0E29                                    u2960 0032  
                                  u2880 06FA                                    u3681 0E28  
                                  u2961 0031                                    u2881 06F9  
                                  u3737 0792                                    u2970 0064  
                                  u2890 03FA                                    u3675 0E19  
                                  u3595 0D20                                    u2971 0063  
                                  u3747 0C01                                    u2891 03F9  
                                  u2980 006B                                    _RCIF 0065  
                                  u3685 0E25                                    u2981 006A  
                                  u3757 0ACC                                    u2990 008A  
                                  u3695 0E32                                    u2991 0089  
                                  u3767 0BD6                                    u2895 03F6  
                                  u3777 001D                                    u3787 0316  
                                  u3797 0B2E                                    _TXIF 0064  
                                  _flag 02D0                                    _main 0325  
                                  btemp 007E                                    start 0012  
                       __end_ofi1_putch 0A82                           _SPI_Write_Buf 0B6E  
                       SPI_Read_Reg@reg 0037                           _SPI_Write_Reg 0A8E  
                         __CFG_MCLRE$ON 0000                                   ??_ISR 002E  
                         __CFG_PLLEN$ON 0000                                   ?_main 00C6  
                       __end_of_adcInit 0A76                         __end_of___awdiv 0E52  
                                 _ADRES 001E                                   STR_10 10BD  
                                 STR_11 1155                                   STR_12 113F  
                                 STR_14 1111                           __CFG_WDTE$OFF 0000  
                       ___awdiv@divisor 0033                         __end_of___lwdiv 0DDE  
                                 i1l117 0C3E                                   i1l118 0C3C  
                                 i1l119 0C3E                                   i1l400 0CE6  
                                 i1l401 0CF4                                   i1l170 0A78  
                                 i1l402 0CFC                                   i1l171 0A78  
                                 i1l172 0A7F                                   i1l340 0E68  
                                 i1l173 0A81                                   i1l341 0FFF  
                                 i1l350 0EC7                                   i1l342 0E69  
                                 i1l351 0F37                                   i1l343 0E6A  
                                 i1l336 0FE2                                   i1l360 0F2A  
                                 i1l352 0EC8                                   i1l344 0E99  
                                 i1l361 0F4D                                   i1l353 0ED2  
                                 i1l345 0E6B                                   i1l337 0E59  
                       __end_of___lwmod 0D42                                   i1l362 0FD4  
                                 i1l354 0EFE                                   i1l346 0E6B  
                                 i1l370 0FFF                                   i1l338 0E66  
                                 i1l363 0F54                                   i1l355 0EF3  
                                 i1l339 0E75                                   i1l347 0E6D  
                                 i1l364 0FC4                                   i1l356 0F40  
                                 i1l348 0EBA                                   i1l365 0F55  
                                 i1l357 0EFF                                   i1l349 0EB9  
                                 i1l390 0D78                                   i1l366 0FCD  
                                 i1l358 0F09                                   i1l391 0D86  
                                 i1l367 0F8C                                   i1l359 0F35  
                                 i1l392 0D8E                                   i1l368 0FE1  
                                 i1l385 0D87                                   i1l369 0FFE  
                                 i1l386 0D59                                   i1l395 0CF5  
                                 i1l387 0D4D                                   i1l396 0CCF  
                                 i1l388 0D5E                                   i1l397 0CC3  
                                 i1l389 0D5F                                   i1l398 0CD4  
                                 i1l399 0CD5                         ___awdiv@counter 0038  
                                 _RCREG 001A                                   _RCSTA 0018  
                                 _TMR1H 000F                                   _TMR1L 000E  
                                 _SPBRG 0099                                   _TXREG 0019  
                                 _TXSTA 0098                      i1___lwmod@dividend 007A  
                       __end_of_dpowers 108D                                   _putch 0A82  
                                 main@i 01B3                                   pclath 000A  
                       __end_of_spiInit 0AD2                          Send_Packet@len 0052  
                                 status 0003                                   wtemp0 007E  
                    __size_ofi1___lwdiv 004D                      __size_ofi1___lwmod 0043  
                      __end_ofi1_printf 1000                          ?_SPI_Write_Buf 0036  
                        ?_SPI_Write_Reg 0036                              i1printf@ap 0026  
                       __initialization 0AEB                            __end_of_main 054D  
      __end_of_rfm70TxDataSentInterrupt 0800                           ??_Send_Packet 00C0  
                                ??_main 00CA                        ___awdiv@dividend 0035  
                                ?_putch 0070                                  i1l2801 0CD5  
                                i1l2811 0CFC                                  i1l2803 0CDF  
                                i1l2805 0CE6                                  i1l2821 0E74  
                                i1l2813 0E52                                  i1l2901 0C31  
                                i1l2807 0CED                                  i1l2831 0EAF  
                                i1l2823 0E75                                  i1l2815 0E59  
                                i1l2903 0C34                                  i1l2761 0A77  
                                i1l2809 0CF5                                  i1l2841 0ED1  
                                i1l2833 0EB3                                  i1l2825 0E9F  
                                i1l2817 0E5F                                  i1l2905 0C35  
                                i1l2763 0A7F                                  i1l2771 0D4D  
                                i1l2851 0F01                                  i1l2843 0ED2  
                                i1l2827 0EA7                                  i1l2835 0EBA  
                                i1l2819 0E6D                                  i1l2907 0C3C  
                                i1l2781 0D76                                  i1l2773 0D54  
                                i1l2765 0D42                                  i1l2861 0F2E  
                                i1l2853 0F08                                  i1l2845 0EF2  
                                i1l2837 0EC2                                  i1l2829 0EAB  
                                i1l2791 0CBA                                  i1l2783 0D78  
                                i1l2775 0D59                                  i1l2767 0D44  
                                i1l2871 0F4D                                  i1l2863 0F36  
                                i1l2855 0F09                                  i1l2847 0EF3  
                                i1l2839 0ECA                                  i1l2793 0CC0  
                                i1l2785 0D7F                                  i1l2777 0D5F  
                                i1l2769 0D4A                                  i1l2873 0F55  
                                i1l2881 0FC4                                  i1l2857 0F29  
                                i1l2849 0EF7                                  i1l2865 0F37  
                                i1l2795 0CC3                                  i1l2779 0D70  
                                i1l2787 0D87                                  i1l2875 0F8C  
                                i1l2883 0FCD                                  i1l2859 0F2A  
                                i1l2867 0F40                                  i1l2891 0C1C  
                                i1l2797 0CCA                                  i1l2789 0D8E  
                                i1l2877 0FB3                                  i1l2885 0FD4  
                                i1l2869 0F46                                  i1l2893 0C20  
                                i1l2799 0CCF                                  i1l2879 0FC3  
                                i1l2887 0FE2                                  i1l2895 0C21  
                                i1l2897 0C22                                  i1l2889 0C18  
                                i1l2899 0C28                                  u250_20 0D4A  
                                u250_21 0D49                                  u251_25 0D4E  
                                u260_20 0CDF                                  u252_20 0D5D  
                                u260_21 0CDE                                  u252_21 0D5C  
                                u260_25 0CDB                                  u261_25 0CE7  
                                u253_25 0D60                                  u262_20 0CF3  
                                u254_20 0D70                                  u270_20 0F28  
                                u262_21 0CF2                                  u254_21 0D6F  
                                u270_21 0F27                                  u254_25 0D6C  
                                u270_25 0F24                                  u271_20 0F34  
                                u263_20 0E5F                                  u271_21 0F33  
                                u263_21 0E5E                                  u255_25 0D79  
                                u256_20 0D85                                  u272_20 0F46  
                                u264_20 0E9F                                  u256_21 0D84  
                                u272_21 0F45                                  u264_21 0E9E  
                                u249_20 0A7E                                  u257_20 0CC0  
                                u273_20 0FE0                                  u265_20 0EAF  
                                u249_21 0A7D                                  u257_21 0CBF  
                                u273_21 0FDF                                  u265_21 0EAE  
                                u274_20 0FFD                                  u266_20 0ED0  
                                u274_21 0FFC                                  u266_21 0ECF  
                                u258_25 0CC4                                  u259_20 0CD3  
                                u267_20 0EF1                                  u275_20 0C1C  
                                u259_21 0CD2                                  u267_21 0EF0  
                                u275_21 0C1B                                  u267_25 0EED  
                                u268_20 0EFD                                  u276_20 0C28  
                                u268_21 0EFC                                  u276_21 0C27  
                                u269_20 0F07                                  u269_21 0F06  
                             ??i1_putch 0070                                  _TMR1IE 0460  
                                _TMR1IF 0060                                  _SSPBUF 0013  
                                _SPI_RW 0B25                          __CFG_PWRTE$OFF 0000  
                          SwitchCFG@Tmp 003B                RFM70_Initialize@WriteArr 0043  
                     RFM70_Initialize@i 004F                       RFM70_Initialize@j 0050  
                             ??_adcInit 0033                               ??___awdiv 0037  
                      SPI_Write_Buf@reg 0039                               ??___lwdiv 0037  
                             ??___lwmod 003F                        ___awdiv@quotient 003A  
                        _SwitchToRxMode 0C7B                                  _printf 054D  
                      SPI_Write_Reg@reg 0037                                  _rx_buf 00A0  
                      _RFM70_Initialize 0015                          _SwitchToTxMode 0B98  
                     __end_of_Bank0_Reg 1078                                  _tx_buf 0056  
                                clrloop 0A65                           main@num_sleep 01B0  
                     __end_ofi1___lwdiv 0D8F                       __end_ofi1___lwmod 0CFD  
                      __end_of_uartInit 0ABA                                  saved_w 007E  
                   __end_of_Send_Packet 07E1                         Send_Packet@pbuf 0051  
                             ??_spiInit 0033                         Send_Packet@type 00C3  
                                putch@c 0033                     SwitchToRxMode@value 003A  
                    __size_of_SwitchCFG 0032                 __end_of__initialization 0B02  
                       ??_SPI_Write_Buf 0038                         ??_SPI_Write_Reg 0037  
                           i1printf@idx 0025                       SPI_Read_Reg@value 0038  
                        __pcstackCOMMON 0070   __end_of_rfm70TxDataSentErrorInterrupt 0B25  
__size_of_rfm70TxDataSentErrorInterrupt 001F           _rfm70TxDataSentErrorInterrupt 0B06  
                          __pidataBANK0 0003                  __end_of_SwitchToRxMode 0CBA  
                __end_of_SwitchToTxMode 0BC2                           __end_of_putch 0A8E  
                             ?i1_printf 0020                           ??_adcReadVcap 0033  
                         ??_adcReadTemp 0033                     SwitchToTxMode@value 003A  
                               ??_putch 0033                              __pbssBANK0 0053  
                            __pbssBANK1 00A0       __size_of_rfm70TxDataSentInterrupt 001F  
             ?_rfm70TxDataSentInterrupt 0070                         __CFG_VCAPEN$RA0 0000  
                               ?_SPI_RW 0070                              __pmaintext 0325  
                            __pintentry 0004                         ?_SwitchToRxMode 0070  
                       ?_SwitchToTxMode 0070                              __ptext1000 0BC2  
                            __ptext1001 0015                              __ptext1010 0A8E  
                            __ptext1002 0A82                              __ptext1011 0B25  
                            __ptext1003 0B98                              __ptext1020 0000  
                            __ptext1012 0D8F                              __ptext1004 0B6E  
                            __ptext1013 0CFD                              __ptext1005 07E1  
                            __ptext1014 0DDE                              __ptext1006 0C7B  
                            __ptext1015 0C18                              __ptext1007 0B06  
                            __ptext1016 0E52                              __ptext1008 0C49  
                            __ptext1017 0D42                              __ptext1009 0AD2  
                            __ptext1018 0CBA                              __ptext1019 0A76  
                           _Send_Packet 06FD                       __end_of_SwitchCFG 0C7B  
                               ?_printf 0041                   _rfm70setPowerdownMode 0B49  
            rfm70setPowerdownMode@value 003A                              ??i1_printf 0022  
                            __stringtab 1000                                 i1_putch 0A76  
                   __end_of_adcReadVcap 0BED                     __end_of_adcReadTemp 0C18  
                       __size_of_SPI_RW 0024                           SwitchCFG@_cfg 003A  
                             ?_uartInit 0070                                 _adcInit 0A6C  
                               ___awdiv 0DDE                                 ___lwdiv 0D8F  
                               ___lwmod 0CFD                       SPI_Write_Buf@pBuf 0036  
        ?_rfm70TxDataSentErrorInterrupt 0070                         __size_of_printf 01B0  
                          __size_of_ISR 0031                       __end_of_hexpowers 1095  
                             _T1CONbits 0010                                 _dpowers 1083  
                     i1___lwdiv@divisor 0070                       i1___lwdiv@counter 0075  
                               _spiInit 0ABA                              _tmr1Target 005B  
                  end_of_initialization 0B02                __end_of_RFM70_Initialize 0325  
                            ??_uartInit 0033                               _RCSTAbits 0018  
                               printf@c 0050                                 printf@f 0041  
                       _timelapse_count 0053                            __pstringtext 1000  
                             _PORTCbits 0007                               _PORTDbits 0008  
                             _PORTEbits 0009                  ?_rfm70setPowerdownMode 0070  
                      __CFG_FOSC$INTOSC 0000                               _Bank0_Reg 104A  
                             _TRISCbits 0087                               _TRISDbits 0088  
                             _TRISEbits 0089                               i1___lwdiv 0D42  
                           _adcReadVcap 0BC2                               i1___lwmod 0CBA  
                           _adcReadTemp 0BED                   __end_of_Bank1_Reg0_13 104A  
                             _TXSTAbits 0098                            i1printf@_val 0029  
                          i1printf@flag 0028                          __end_of_SPI_RW 0B49  
                          Send_Packet@i 00C5                            i1printf@prec 0027  
                         ?_SPI_Read_Reg 0070                             SPI_RW@value 0035  
                      adcReadVcap@value 0035                       i1___lwmod@divisor 0078  
                         __pbitbssBANK0 02D0                       i1___lwmod@counter 007D  
                        __end_of_printf 06FD                     start_initialization 0AEB  
                           __end_of_ISR 0C49                               i1printf@c 002D  
                             i1printf@f 0020                        adcReadTemp@value 0035  
                            ?i1___lwdiv 0070                              ?i1___lwmod 0078  
                     __size_ofi1_printf 01AE                                ??_SPI_RW 0033  
                        ??_SPI_Read_Reg 0036                   __end_of_SPI_Write_Buf 0B98  
                 __end_of_SPI_Write_Reg 0AA4                        ??_SwitchToRxMode 0039  
                      ??_SwitchToTxMode 0039                             __pdataBANK0 005B  
                          ?_Send_Packet 0051                                ??_printf 0045  
                             _SwitchCFG 0C49                           __pcstackBANK0 0020  
                         __pcstackBANK1 00C0                           __pcstackBANK3 0190  
                   __end_of__stringdata 115D                                ?i1_putch 0070  
                      ___lwdiv@dividend 0035                                ?_adcInit 0070  
                              ?___awdiv 0033                               __ptext993 06FD  
                             __ptext994 0BED                               __ptext995 054D  
                             __ptext996 0ABA                               __ptext997 0AA4  
                             __ptext998 0A6C                               __ptext999 0B49  
                   SPI_Write_Buf@length 0037                                ?___lwdiv 0033  
                     __size_of_uartInit 0016                                ?___lwmod 003B  
                            ?_SwitchCFG 0070                     Send_Packet@fifo_sta 00C4  
                              ?_spiInit 0070                   SPI_Write_Buf@byte_ctr 003A  
              _rfm70TxDataSentInterrupt 07E1                               _hexpowers 108D  
                      ___lwdiv@quotient 0039                             ??i1___lwdiv 0074  
                           ??i1___lwmod 007C                          __size_of_putch 000C  
       ??_rfm70TxDataSentErrorInterrupt 0039                       interrupt_function 0004  
                     ?_RFM70_Initialize 0070                      ??_RFM70_Initialize 003C  
                              _PIR1bits 000C                 ??_rfm70setPowerdownMode 0039  
                            _ADCON0bits 001F                             __stringbase 1012  
                            _ADCON1bits 009F                             __stringdata 10A3  
                  __end_of_Bank0_RegAct 10A3                              printf@_val 004C  
                            printf@flag 004B                              printf@prec 004A  
                             main@value 01B1                    __end_of_SPI_Read_Reg 0AEB  
                              i1_printf 0E52                            ?_adcReadVcap 0070  
                          ?_adcReadTemp 0070                                i1putch@c 0070  
                      __size_ofi1_putch 000C                        __size_of_adcInit 000A  
                      __size_of___awdiv 0074                     __end_of_RX0_Address 109A  
                      __size_of___lwdiv 004F                        __size_of___lwmod 0045  
                   __end_of_RX1_Address 109F                      __end_of__stringtab 1012  
                            _ANSELCbits 0187                              _ANSELDbits 0188  
                            _ANSELEbits 0189                    __size_of_Send_Packet 00E4  
                           ??_SwitchCFG 0039                         ___lwdiv@divisor 0033  
                       ___lwdiv@counter 0038                              _T1GCONbits 008F  
                      __size_of_spiInit 0018                      i1___lwdiv@dividend 0072  
                         __size_of_main 0228                                clear_ram 0A64  
                              _uartInit 0AA4                      SPI_Write_Reg@value 0036  
                   __end_of_Bank1_Reg14 1083                             _tmr1Counter 0055  
                             printf@idx 0048                                main@argc 00C6  
                              main@argv 00C8                         main@temp_tx_buf 0190  
                    i1___lwdiv@quotient 0076                rfm70setPowerdownMode@reg 003B  
                            _FVRCONbits 009D                                intlevel1 0000  
                      ___lwmod@dividend 003D                               stringcode 100A  
                            _OSCCONbits 0090                             _RX0_Address 1095  
                           _RX1_Address 109A                                printf@ap 0049  
            ??_rfm70TxDataSentInterrupt 0039                   __size_of_SPI_Read_Reg 0019  
                       ___lwmod@divisor 003B                         ___lwmod@counter 0040  
                              stringtab 1000                  __size_of_SPI_Write_Buf 002A  
                __size_of_SPI_Write_Reg 0016                           _Bank1_Reg0_13 1012  
                  __size_of_adcReadVcap 002B                    __size_of_adcReadTemp 002B  
                          _Bank0_RegAct 109F                              _SSPCONbits 0014  
                           _Bank1_Reg14 1078                            _SPI_Read_Reg 0AD2  
