

Microchip Technology PIC LITE Macro Assembler V1.12 build 49521 
                                                                                               Mon Mar  4 22:03:25 2013

HI-TECH Software Omniscient Code Generator (Lite mode) build 49521
     1  0000                     opt subtitle "HI-TECH Software Omniscient Code Generator (Lite mode) build 49521"
     2                           opt subtitle "HI-TECH Software Omniscient Code Generator (Lite mode) build 49521"
     3                           
     4                           opt pagewidth 120
     5                           
     6                           	opt lm
     7                           
     8                           	processor	16F707
     9                           clrc	macro
    10  0000                     	endm
    11                           opt subtitle "HI-TECH Software Omniscient Code Generator (Lite mode) build 49521"
    12                           
    13  0000                     	endm
    14                           opt subtitle "HI-TECH Software Omniscient Code Generator (Lite mode) build 49521"
    15                           
    16  0000                     	endm
    17                           opt subtitle "HI-TECH Software Omniscient Code Generator (Lite mode) build 49521"
    18                           
    19  0000                     	endm
    20                           opt subtitle "HI-TECH Software Omniscient Code Generator (Lite mode) build 49521"
    21                           
    22  0000                     	endm
    23                           opt subtitle "HI-TECH Software Omniscient Code Generator (Lite mode) build 49521"
    24                           
    25  0000                     	endm
    26                           opt subtitle "HI-TECH Software Omniscient Code Generator (Lite mode) build 49521"
    27                           
    28  0000                     	endm
    29                           opt subtitle "HI-TECH Software Omniscient Code Generator (Lite mode) build 49521"
    30                           
    31  0000                     	endm
    32  0000                     indf	equ	0
    33  0000                     indf0	equ	0
    34  0002                     pc	equ	2
    35  0002                     pcl	equ	2
    36  0003                     status	equ	3
    37  0004                     fsr	equ	4
    38  0004                     fsr0	equ	4
    39  0001                     c	equ	1
    40  0000                     z	equ	0
    41  000A                     pclath	equ	10
    42                           opt subtitle "HI-TECH Software Omniscient Code Generator (Lite mode) build 49521"
    43  0000                     INDF equ 00h ;# 
    44                           opt subtitle "HI-TECH Software Omniscient Code Generator (Lite mode) build 49521"
    45  0001                     TMR0 equ 01h ;# 
    46                           opt subtitle "HI-TECH Software Omniscient Code Generator (Lite mode) build 49521"
    47  0002                     PCL equ 02h ;# 
    48                           opt subtitle "HI-TECH Software Omniscient Code Generator (Lite mode) build 49521"
    49  0003                     STATUS equ 03h ;# 
    50                           opt subtitle "HI-TECH Software Omniscient Code Generator (Lite mode) build 49521"
    51  0004                     FSR equ 04h ;# 
    52                           opt subtitle "HI-TECH Software Omniscient Code Generator (Lite mode) build 49521"
    53  0005                     PORTA equ 05h ;# 
    54                           opt subtitle "HI-TECH Software Omniscient Code Generator (Lite mode) build 49521"
    55  0006                     PORTB equ 06h ;# 
    56                           opt subtitle "HI-TECH Software Omniscient Code Generator (Lite mode) build 49521"
    57  0007                     PORTC equ 07h ;# 
    58                           opt subtitle "HI-TECH Software Omniscient Code Generator (Lite mode) build 49521"
    59  0008                     PORTD equ 08h ;# 
    60                           opt subtitle "HI-TECH Software Omniscient Code Generator (Lite mode) build 49521"
    61  0009                     PORTE equ 09h ;# 
    62                           opt subtitle "HI-TECH Software Omniscient Code Generator (Lite mode) build 49521"
    63  000A                     PCLATH equ 0Ah ;# 
    64                           opt subtitle "HI-TECH Software Omniscient Code Generator (Lite mode) build 49521"
    65  000B                     INTCON equ 0Bh ;# 
    66                           opt subtitle "HI-TECH Software Omniscient Code Generator (Lite mode) build 49521"
    67  000C                     PIR1 equ 0Ch ;# 
    68                           opt subtitle "HI-TECH Software Omniscient Code Generator (Lite mode) build 49521"
    69  000D                     PIR2 equ 0Dh ;# 
    70                           opt subtitle "HI-TECH Software Omniscient Code Generator (Lite mode) build 49521"
    71  000E                     TMR1 equ 0Eh ;# 
    72                           opt subtitle "HI-TECH Software Omniscient Code Generator (Lite mode) build 49521"
    73  000E                     TMR1L equ 0Eh ;# 
    74                           opt subtitle "HI-TECH Software Omniscient Code Generator (Lite mode) build 49521"
    75  000F                     TMR1H equ 0Fh ;# 
    76                           opt subtitle "HI-TECH Software Omniscient Code Generator (Lite mode) build 49521"
    77  0010                     T1CON equ 010h ;# 
    78                           opt subtitle "HI-TECH Software Omniscient Code Generator (Lite mode) build 49521"
    79  0011                     TMR2 equ 011h ;# 
    80                           opt subtitle "HI-TECH Software Omniscient Code Generator (Lite mode) build 49521"
    81  0012                     T2CON equ 012h ;# 
    82                           opt subtitle "HI-TECH Software Omniscient Code Generator (Lite mode) build 49521"
    83  0013                     SSPBUF equ 013h ;# 
    84                           opt subtitle "HI-TECH Software Omniscient Code Generator (Lite mode) build 49521"
    85  0014                     SSPCON equ 014h ;# 
    86                           opt subtitle "HI-TECH Software Omniscient Code Generator (Lite mode) build 49521"
    87  0015                     CCPR1 equ 015h ;# 
    88                           opt subtitle "HI-TECH Software Omniscient Code Generator (Lite mode) build 49521"
    89  0015                     CCPR1L equ 015h ;# 
    90                           opt subtitle "HI-TECH Software Omniscient Code Generator (Lite mode) build 49521"
    91  0016                     CCPR1H equ 016h ;# 
    92                           opt subtitle "HI-TECH Software Omniscient Code Generator (Lite mode) build 49521"
    93  0017                     CCP1CON equ 017h ;# 
    94                           opt subtitle "HI-TECH Software Omniscient Code Generator (Lite mode) build 49521"
    95  0018                     RCSTA equ 018h ;# 
    96                           opt subtitle "HI-TECH Software Omniscient Code Generator (Lite mode) build 49521"
    97  0019                     TXREG equ 019h ;# 
    98                           opt subtitle "HI-TECH Software Omniscient Code Generator (Lite mode) build 49521"
    99  001A                     RCREG equ 01Ah ;# 
   100                           opt subtitle "HI-TECH Software Omniscient Code Generator (Lite mode) build 49521"
   101  001B                     CCPR2 equ 01Bh ;# 
   102                           opt subtitle "HI-TECH Software Omniscient Code Generator (Lite mode) build 49521"
   103  001B                     CCPR2L equ 01Bh ;# 
   104                           opt subtitle "HI-TECH Software Omniscient Code Generator (Lite mode) build 49521"
   105  001C                     CCPR2H equ 01Ch ;# 
   106                           opt subtitle "HI-TECH Software Omniscient Code Generator (Lite mode) build 49521"
   107  001D                     CCP2CON equ 01Dh ;# 
   108                           opt subtitle "HI-TECH Software Omniscient Code Generator (Lite mode) build 49521"
   109  001E                     ADRES equ 01Eh ;# 
   110                           opt subtitle "HI-TECH Software Omniscient Code Generator (Lite mode) build 49521"
   111  001F                     ADCON0 equ 01Fh ;# 
   112                           opt subtitle "HI-TECH Software Omniscient Code Generator (Lite mode) build 49521"
   113  0081                     OPTION_REG equ 081h ;# 
   114                           opt subtitle "HI-TECH Software Omniscient Code Generator (Lite mode) build 49521"
   115  0085                     TRISA equ 085h ;# 
   116                           opt subtitle "HI-TECH Software Omniscient Code Generator (Lite mode) build 49521"
   117  0086                     TRISB equ 086h ;# 
   118                           opt subtitle "HI-TECH Software Omniscient Code Generator (Lite mode) build 49521"
   119  0087                     TRISC equ 087h ;# 
   120                           opt subtitle "HI-TECH Software Omniscient Code Generator (Lite mode) build 49521"
   121  0088                     TRISD equ 088h ;# 
   122                           opt subtitle "HI-TECH Software Omniscient Code Generator (Lite mode) build 49521"
   123  0089                     TRISE equ 089h ;# 
   124                           opt subtitle "HI-TECH Software Omniscient Code Generator (Lite mode) build 49521"
   125  008C                     PIE1 equ 08Ch ;# 
   126                           opt subtitle "HI-TECH Software Omniscient Code Generator (Lite mode) build 49521"
   127  008D                     PIE2 equ 08Dh ;# 
   128                           opt subtitle "HI-TECH Software Omniscient Code Generator (Lite mode) build 49521"
   129  008E                     PCON equ 08Eh ;# 
   130                           opt subtitle "HI-TECH Software Omniscient Code Generator (Lite mode) build 49521"
   131  008F                     T1GCON equ 08Fh ;# 
   132                           opt subtitle "HI-TECH Software Omniscient Code Generator (Lite mode) build 49521"
   133  0090                     OSCCON equ 090h ;# 
   134                           opt subtitle "HI-TECH Software Omniscient Code Generator (Lite mode) build 49521"
   135  0091                     OSCTUNE equ 091h ;# 
   136                           opt subtitle "HI-TECH Software Omniscient Code Generator (Lite mode) build 49521"
   137  0092                     PR2 equ 092h ;# 
   138                           opt subtitle "HI-TECH Software Omniscient Code Generator (Lite mode) build 49521"
   139  0093                     SSPADD equ 093h ;# 
   140                           opt subtitle "HI-TECH Software Omniscient Code Generator (Lite mode) build 49521"
   141  0093                     SSPMSK equ 093h ;# 
   142                           opt subtitle "HI-TECH Software Omniscient Code Generator (Lite mode) build 49521"
   143  0094                     SSPSTAT equ 094h ;# 
   144                           opt subtitle "HI-TECH Software Omniscient Code Generator (Lite mode) build 49521"
   145  0095                     WPUB equ 095h ;# 
   146                           opt subtitle "HI-TECH Software Omniscient Code Generator (Lite mode) build 49521"
   147  0096                     IOCB equ 096h ;# 
   148                           opt subtitle "HI-TECH Software Omniscient Code Generator (Lite mode) build 49521"
   149  0097                     T3CON equ 097h ;# 
   150                           opt subtitle "HI-TECH Software Omniscient Code Generator (Lite mode) build 49521"
   151  0098                     TXSTA equ 098h ;# 
   152                           opt subtitle "HI-TECH Software Omniscient Code Generator (Lite mode) build 49521"
   153  0099                     SPBRG equ 099h ;# 
   154                           opt subtitle "HI-TECH Software Omniscient Code Generator (Lite mode) build 49521"
   155  009A                     TMR3 equ 09Ah ;# 
   156                           opt subtitle "HI-TECH Software Omniscient Code Generator (Lite mode) build 49521"
   157  009A                     TMR3L equ 09Ah ;# 
   158                           opt subtitle "HI-TECH Software Omniscient Code Generator (Lite mode) build 49521"
   159  009B                     TMR3H equ 09Bh ;# 
   160                           opt subtitle "HI-TECH Software Omniscient Code Generator (Lite mode) build 49521"
   161  009C                     APFCON equ 09Ch ;# 
   162                           opt subtitle "HI-TECH Software Omniscient Code Generator (Lite mode) build 49521"
   163  009D                     FVRCON equ 09Dh ;# 
   164                           opt subtitle "HI-TECH Software Omniscient Code Generator (Lite mode) build 49521"
   165  009E                     T3GCON equ 09Eh ;# 
   166                           opt subtitle "HI-TECH Software Omniscient Code Generator (Lite mode) build 49521"
   167  009F                     ADCON1 equ 09Fh ;# 
   168                           opt subtitle "HI-TECH Software Omniscient Code Generator (Lite mode) build 49521"
   169  0105                     TACON equ 0105h ;# 
   170                           opt subtitle "HI-TECH Software Omniscient Code Generator (Lite mode) build 49521"
   171  0106                     CPSBCON0 equ 0106h ;# 
   172                           opt subtitle "HI-TECH Software Omniscient Code Generator (Lite mode) build 49521"
   173  0107                     CPSBCON1 equ 0107h ;# 
   174                           opt subtitle "HI-TECH Software Omniscient Code Generator (Lite mode) build 49521"
   175  0108                     CPSACON0 equ 0108h ;# 
   176                           opt subtitle "HI-TECH Software Omniscient Code Generator (Lite mode) build 49521"
   177  0109                     CPSACON1 equ 0109h ;# 
   178                           opt subtitle "HI-TECH Software Omniscient Code Generator (Lite mode) build 49521"
   179  010C                     PMDATL equ 010Ch ;# 
   180                           opt subtitle "HI-TECH Software Omniscient Code Generator (Lite mode) build 49521"
   181  010D                     PMADRL equ 010Dh ;# 
   182                           opt subtitle "HI-TECH Software Omniscient Code Generator (Lite mode) build 49521"
   183  010E                     PMDATH equ 010Eh ;# 
   184                           opt subtitle "HI-TECH Software Omniscient Code Generator (Lite mode) build 49521"
   185  010F                     PMADRH equ 010Fh ;# 
   186                           opt subtitle "HI-TECH Software Omniscient Code Generator (Lite mode) build 49521"
   187  0110                     TMRA equ 0110h ;# 
   188                           opt subtitle "HI-TECH Software Omniscient Code Generator (Lite mode) build 49521"
   189  0111                     TBCON equ 0111h ;# 
   190                           opt subtitle "HI-TECH Software Omniscient Code Generator (Lite mode) build 49521"
   191  0112                     TMRB equ 0112h ;# 
   192                           opt subtitle "HI-TECH Software Omniscient Code Generator (Lite mode) build 49521"
   193  0113                     DACCON0 equ 0113h ;# 
   194                           opt subtitle "HI-TECH Software Omniscient Code Generator (Lite mode) build 49521"
   195  0114                     DACCON1 equ 0114h ;# 
   196                           opt subtitle "HI-TECH Software Omniscient Code Generator (Lite mode) build 49521"
   197  0185                     ANSELA equ 0185h ;# 
   198                           opt subtitle "HI-TECH Software Omniscient Code Generator (Lite mode) build 49521"
   199  0186                     ANSELB equ 0186h ;# 
   200                           opt subtitle "HI-TECH Software Omniscient Code Generator (Lite mode) build 49521"
   201  0187                     ANSELC equ 0187h ;# 
   202                           opt subtitle "HI-TECH Software Omniscient Code Generator (Lite mode) build 49521"
   203  0188                     ANSELD equ 0188h ;# 
   204                           opt subtitle "HI-TECH Software Omniscient Code Generator (Lite mode) build 49521"
   205  0189                     ANSELE equ 0189h ;# 
   206                           opt subtitle "HI-TECH Software Omniscient Code Generator (Lite mode) build 49521"
   207  018C                     PMCON1 equ 018Ch ;# 
   208                           opt subtitle "HI-TECH Software Omniscient Code Generator (Lite mode) build 49521"
   209  0000                     INDF equ 00h ;# 
   210                           opt subtitle "HI-TECH Software Omniscient Code Generator (Lite mode) build 49521"
   211  0001                     TMR0 equ 01h ;# 
   212                           opt subtitle "HI-TECH Software Omniscient Code Generator (Lite mode) build 49521"
   213  0002                     PCL equ 02h ;# 
   214                           opt subtitle "HI-TECH Software Omniscient Code Generator (Lite mode) build 49521"
   215  0003                     STATUS equ 03h ;# 
   216                           opt subtitle "HI-TECH Software Omniscient Code Generator (Lite mode) build 49521"
   217  0004                     FSR equ 04h ;# 
   218                           opt subtitle "HI-TECH Software Omniscient Code Generator (Lite mode) build 49521"
   219  0005                     PORTA equ 05h ;# 
   220                           opt subtitle "HI-TECH Software Omniscient Code Generator (Lite mode) build 49521"
   221  0006                     PORTB equ 06h ;# 
   222                           opt subtitle "HI-TECH Software Omniscient Code Generator (Lite mode) build 49521"
   223  0007                     PORTC equ 07h ;# 
   224                           opt subtitle "HI-TECH Software Omniscient Code Generator (Lite mode) build 49521"
   225  0008                     PORTD equ 08h ;# 
   226                           opt subtitle "HI-TECH Software Omniscient Code Generator (Lite mode) build 49521"
   227  0009                     PORTE equ 09h ;# 
   228                           opt subtitle "HI-TECH Software Omniscient Code Generator (Lite mode) build 49521"
   229  000A                     PCLATH equ 0Ah ;# 
   230                           opt subtitle "HI-TECH Software Omniscient Code Generator (Lite mode) build 49521"
   231  000B                     INTCON equ 0Bh ;# 
   232                           opt subtitle "HI-TECH Software Omniscient Code Generator (Lite mode) build 49521"
   233  000C                     PIR1 equ 0Ch ;# 
   234                           opt subtitle "HI-TECH Software Omniscient Code Generator (Lite mode) build 49521"
   235  000D                     PIR2 equ 0Dh ;# 
   236                           opt subtitle "HI-TECH Software Omniscient Code Generator (Lite mode) build 49521"
   237  000E                     TMR1 equ 0Eh ;# 
   238                           opt subtitle "HI-TECH Software Omniscient Code Generator (Lite mode) build 49521"
   239  000E                     TMR1L equ 0Eh ;# 
   240                           opt subtitle "HI-TECH Software Omniscient Code Generator (Lite mode) build 49521"
   241  000F                     TMR1H equ 0Fh ;# 
   242                           opt subtitle "HI-TECH Software Omniscient Code Generator (Lite mode) build 49521"
   243  0010                     T1CON equ 010h ;# 
   244                           opt subtitle "HI-TECH Software Omniscient Code Generator (Lite mode) build 49521"
   245  0011                     TMR2 equ 011h ;# 
   246                           opt subtitle "HI-TECH Software Omniscient Code Generator (Lite mode) build 49521"
   247  0012                     T2CON equ 012h ;# 
   248                           opt subtitle "HI-TECH Software Omniscient Code Generator (Lite mode) build 49521"
   249  0013                     SSPBUF equ 013h ;# 
   250                           opt subtitle "HI-TECH Software Omniscient Code Generator (Lite mode) build 49521"
   251  0014                     SSPCON equ 014h ;# 
   252                           opt subtitle "HI-TECH Software Omniscient Code Generator (Lite mode) build 49521"
   253  0015                     CCPR1 equ 015h ;# 
   254                           opt subtitle "HI-TECH Software Omniscient Code Generator (Lite mode) build 49521"
   255  0015                     CCPR1L equ 015h ;# 
   256                           opt subtitle "HI-TECH Software Omniscient Code Generator (Lite mode) build 49521"
   257  0016                     CCPR1H equ 016h ;# 
   258                           opt subtitle "HI-TECH Software Omniscient Code Generator (Lite mode) build 49521"
   259  0017                     CCP1CON equ 017h ;# 
   260                           opt subtitle "HI-TECH Software Omniscient Code Generator (Lite mode) build 49521"
   261  0018                     RCSTA equ 018h ;# 
   262                           opt subtitle "HI-TECH Software Omniscient Code Generator (Lite mode) build 49521"
   263  0019                     TXREG equ 019h ;# 
   264                           opt subtitle "HI-TECH Software Omniscient Code Generator (Lite mode) build 49521"
   265  001A                     RCREG equ 01Ah ;# 
   266                           opt subtitle "HI-TECH Software Omniscient Code Generator (Lite mode) build 49521"
   267  001B                     CCPR2 equ 01Bh ;# 
   268                           opt subtitle "HI-TECH Software Omniscient Code Generator (Lite mode) build 49521"
   269  001B                     CCPR2L equ 01Bh ;# 
   270                           opt subtitle "HI-TECH Software Omniscient Code Generator (Lite mode) build 49521"
   271  001C                     CCPR2H equ 01Ch ;# 
   272                           opt subtitle "HI-TECH Software Omniscient Code Generator (Lite mode) build 49521"
   273  001D                     CCP2CON equ 01Dh ;# 
   274                           opt subtitle "HI-TECH Software Omniscient Code Generator (Lite mode) build 49521"
   275  001E                     ADRES equ 01Eh ;# 
   276                           opt subtitle "HI-TECH Software Omniscient Code Generator (Lite mode) build 49521"
   277  001F                     ADCON0 equ 01Fh ;# 
   278                           opt subtitle "HI-TECH Software Omniscient Code Generator (Lite mode) build 49521"
   279  0081                     OPTION_REG equ 081h ;# 
   280                           opt subtitle "HI-TECH Software Omniscient Code Generator (Lite mode) build 49521"
   281  0085                     TRISA equ 085h ;# 
   282                           opt subtitle "HI-TECH Software Omniscient Code Generator (Lite mode) build 49521"
   283  0086                     TRISB equ 086h ;# 
   284                           opt subtitle "HI-TECH Software Omniscient Code Generator (Lite mode) build 49521"
   285  0087                     TRISC equ 087h ;# 
   286                           opt subtitle "HI-TECH Software Omniscient Code Generator (Lite mode) build 49521"
   287  0088                     TRISD equ 088h ;# 
   288                           opt subtitle "HI-TECH Software Omniscient Code Generator (Lite mode) build 49521"
   289  0089                     TRISE equ 089h ;# 
   290                           opt subtitle "HI-TECH Software Omniscient Code Generator (Lite mode) build 49521"
   291  008C                     PIE1 equ 08Ch ;# 
   292                           opt subtitle "HI-TECH Software Omniscient Code Generator (Lite mode) build 49521"
   293  008D                     PIE2 equ 08Dh ;# 
   294                           opt subtitle "HI-TECH Software Omniscient Code Generator (Lite mode) build 49521"
   295  008E                     PCON equ 08Eh ;# 
   296                           opt subtitle "HI-TECH Software Omniscient Code Generator (Lite mode) build 49521"
   297  008F                     T1GCON equ 08Fh ;# 
   298                           opt subtitle "HI-TECH Software Omniscient Code Generator (Lite mode) build 49521"
   299  0090                     OSCCON equ 090h ;# 
   300                           opt subtitle "HI-TECH Software Omniscient Code Generator (Lite mode) build 49521"
   301  0091                     OSCTUNE equ 091h ;# 
   302                           opt subtitle "HI-TECH Software Omniscient Code Generator (Lite mode) build 49521"
   303  0092                     PR2 equ 092h ;# 
   304                           opt subtitle "HI-TECH Software Omniscient Code Generator (Lite mode) build 49521"
   305  0093                     SSPADD equ 093h ;# 
   306                           opt subtitle "HI-TECH Software Omniscient Code Generator (Lite mode) build 49521"
   307  0093                     SSPMSK equ 093h ;# 
   308                           opt subtitle "HI-TECH Software Omniscient Code Generator (Lite mode) build 49521"
   309  0094                     SSPSTAT equ 094h ;# 
   310                           opt subtitle "HI-TECH Software Omniscient Code Generator (Lite mode) build 49521"
   311  0095                     WPUB equ 095h ;# 
   312                           opt subtitle "HI-TECH Software Omniscient Code Generator (Lite mode) build 49521"
   313  0096                     IOCB equ 096h ;# 
   314                           opt subtitle "HI-TECH Software Omniscient Code Generator (Lite mode) build 49521"
   315  0097                     T3CON equ 097h ;# 
   316                           opt subtitle "HI-TECH Software Omniscient Code Generator (Lite mode) build 49521"
   317  0098                     TXSTA equ 098h ;# 
   318                           opt subtitle "HI-TECH Software Omniscient Code Generator (Lite mode) build 49521"
   319  0099                     SPBRG equ 099h ;# 
   320                           opt subtitle "HI-TECH Software Omniscient Code Generator (Lite mode) build 49521"
   321  009A                     TMR3 equ 09Ah ;# 
   322                           opt subtitle "HI-TECH Software Omniscient Code Generator (Lite mode) build 49521"
   323  009A                     TMR3L equ 09Ah ;# 
   324                           opt subtitle "HI-TECH Software Omniscient Code Generator (Lite mode) build 49521"
   325  009B                     TMR3H equ 09Bh ;# 
   326                           opt subtitle "HI-TECH Software Omniscient Code Generator (Lite mode) build 49521"
   327  009C                     APFCON equ 09Ch ;# 
   328                           opt subtitle "HI-TECH Software Omniscient Code Generator (Lite mode) build 49521"
   329  009D                     FVRCON equ 09Dh ;# 
   330                           opt subtitle "HI-TECH Software Omniscient Code Generator (Lite mode) build 49521"
   331  009E                     T3GCON equ 09Eh ;# 
   332                           opt subtitle "HI-TECH Software Omniscient Code Generator (Lite mode) build 49521"
   333  009F                     ADCON1 equ 09Fh ;# 
   334                           opt subtitle "HI-TECH Software Omniscient Code Generator (Lite mode) build 49521"
   335  0105                     TACON equ 0105h ;# 
   336                           opt subtitle "HI-TECH Software Omniscient Code Generator (Lite mode) build 49521"
   337  0106                     CPSBCON0 equ 0106h ;# 
   338                           opt subtitle "HI-TECH Software Omniscient Code Generator (Lite mode) build 49521"
   339  0107                     CPSBCON1 equ 0107h ;# 
   340                           opt subtitle "HI-TECH Software Omniscient Code Generator (Lite mode) build 49521"
   341  0108                     CPSACON0 equ 0108h ;# 
   342                           opt subtitle "HI-TECH Software Omniscient Code Generator (Lite mode) build 49521"
   343  0109                     CPSACON1 equ 0109h ;# 
   344                           opt subtitle "HI-TECH Software Omniscient Code Generator (Lite mode) build 49521"
   345  010C                     PMDATL equ 010Ch ;# 
   346                           opt subtitle "HI-TECH Software Omniscient Code Generator (Lite mode) build 49521"
   347  010D                     PMADRL equ 010Dh ;# 
   348                           opt subtitle "HI-TECH Software Omniscient Code Generator (Lite mode) build 49521"
   349  010E                     PMDATH equ 010Eh ;# 
   350                           opt subtitle "HI-TECH Software Omniscient Code Generator (Lite mode) build 49521"
   351  010F                     PMADRH equ 010Fh ;# 
   352                           opt subtitle "HI-TECH Software Omniscient Code Generator (Lite mode) build 49521"
   353  0110                     TMRA equ 0110h ;# 
   354                           opt subtitle "HI-TECH Software Omniscient Code Generator (Lite mode) build 49521"
   355  0111                     TBCON equ 0111h ;# 
   356                           opt subtitle "HI-TECH Software Omniscient Code Generator (Lite mode) build 49521"
   357  0112                     TMRB equ 0112h ;# 
   358                           opt subtitle "HI-TECH Software Omniscient Code Generator (Lite mode) build 49521"
   359  0113                     DACCON0 equ 0113h ;# 
   360                           opt subtitle "HI-TECH Software Omniscient Code Generator (Lite mode) build 49521"
   361  0114                     DACCON1 equ 0114h ;# 
   362                           opt subtitle "HI-TECH Software Omniscient Code Generator (Lite mode) build 49521"
   363  0185                     ANSELA equ 0185h ;# 
   364                           opt subtitle "HI-TECH Software Omniscient Code Generator (Lite mode) build 49521"
   365  0186                     ANSELB equ 0186h ;# 
   366                           opt subtitle "HI-TECH Software Omniscient Code Generator (Lite mode) build 49521"
   367  0187                     ANSELC equ 0187h ;# 
   368                           opt subtitle "HI-TECH Software Omniscient Code Generator (Lite mode) build 49521"
   369  0188                     ANSELD equ 0188h ;# 
   370                           opt subtitle "HI-TECH Software Omniscient Code Generator (Lite mode) build 49521"
   371  0189                     ANSELE equ 0189h ;# 
   372                           opt subtitle "HI-TECH Software Omniscient Code Generator (Lite mode) build 49521"
   373  018C                     PMCON1 equ 018Ch ;# 
   374                           opt subtitle "HI-TECH Software Omniscient Code Generator (Lite mode) build 49521"
   375                           
   376                           opt pagewidth 120
   377                           
   378                           	opt lm
   379                           
   380                           	processor	16F707
   381                           clrc	macro
   382                           	bcf	3,0
   383                           	endm
   384                           clrz	macro
   385                           	bcf	3,2
   386                           	endm
   387                           setc	macro
   388                           	bsf	3,0
   389                           	endm
   390                           setz	macro
   391                           	bsf	3,2
   392                           	endm
   393                           skipc	macro
   394                           	btfss	3,0
   395                           	endm
   396                           skipz	macro
   397                           	btfss	3,2
   398                           	endm
   399                           skipnc	macro
   400                           	btfsc	3,0
   401                           	endm
   402                           skipnz	macro
   403                           	btfsc	3,2
   404                           	endm
   405                           indf	equ	0
   406                           indf0	equ	0
   407                           pc	equ	2
   408                           pcl	equ	2
   409                           status	equ	3
   410                           fsr	equ	4
   411                           fsr0	equ	4
   412                           c	equ	1
   413                           z	equ	0
   414                           pclath	equ	10
   415                           # 46 "/Applications/microchip/xc8/v1.12/include/pic16f707.h"
   416                           INDF equ 00h ;# 
   417                           # 52 "/Applications/microchip/xc8/v1.12/include/pic16f707.h"
   418                           TMR0 equ 01h ;# 
   419                           # 58 "/Applications/microchip/xc8/v1.12/include/pic16f707.h"
   420                           PCL equ 02h ;# 
   421                           # 64 "/Applications/microchip/xc8/v1.12/include/pic16f707.h"
   422  07FF                     __pidataBANK0:
   423                           opt subtitle "HI-TECH Software Omniscient Code Generator (Lite mode) build 49521"
   424                           
   425                           opt pagewidth 120
   426                           
   427  07FF  3401               	retlw	01h
   428                           opt subtitle "HI-TECH Software Omniscient Code Generator (Lite mode) build 49521"
   429                           
   430                           opt pagewidth 120
   431  0800                     __pstringtext:
   432                           opt subtitle "HI-TECH Software Omniscient Code Generator (Lite mode) build 49521"
   433  0800                     stringtab:
   434                           opt subtitle "HI-TECH Software Omniscient Code Generator (Lite mode) build 49521"
   435  0800                     __stringtab:
   436                           opt subtitle "HI-TECH Software Omniscient Code Generator (Lite mode) build 49521"
   437  0800  1BFF               	btfsc	(btemp+1),7
   438  0801  280A               	ljmp	stringcode
   439  0802  1383               	bcf	status,7
   440  0803  187F               	btfsc	(btemp+1),0
   441  0804  1783               	bsf	status,7
   442  0805  0800               	movf	indf,w
   443  0806  0A84               	incf fsr
   444  0807  1903               skipnz
   445  0808  0AFF               incf btemp+1
   446  0809  0008               	return
   447  080A                     stringcode:
   448  080A  087F               	movf btemp+1,w
   449  080B  397F               andlw 7Fh
   450  080C  008A               movwf	pclath
   451  080D  0804               	movf	fsr,w
   452  080E  0A84               incf fsr
   453  080F  1903               skipnz
   454  0810  0AFF               incf btemp+1
   455  0811  0082               	movwf pc
   456  0812                     __stringbase:
   457                           opt subtitle "HI-TECH Software Omniscient Code Generator (Lite mode) build 49521"
   458  0812                     __end_of__stringtab:
   459                           opt subtitle "HI-TECH Software Omniscient Code Generator (Lite mode) build 49521"
   460                           
   461  0812                     _Bank1_Reg0_13:
   462  0812  3440               	retlw	040h
   463  0813  344B               	retlw	04Bh
   464  0814  3401               	retlw	01h
   465  0815  34E2               	retlw	0E2h
   466                           opt subtitle "HI-TECH Software Omniscient Code Generator (Lite mode) build 49521"
   467  0816  34C0               	retlw	0C0h
   468  0817  344B               	retlw	04Bh
   469  0818  3400               	retlw	0
   470  0819  3400               	retlw	0
   471                           opt subtitle "HI-TECH Software Omniscient Code Generator (Lite mode) build 49521"
   472  081A  34D0               	retlw	0D0h
   473  081B  34FC               	retlw	0FCh
   474  081C  348C               	retlw	08Ch
   475  081D  3402               	retlw	02h
   476                           opt subtitle "HI-TECH Software Omniscient Code Generator (Lite mode) build 49521"
   477  081E  3499               	retlw	099h
   478  081F  3400               	retlw	0
   479  0820  3439               	retlw	039h
   480  0821  3441               	retlw	041h
   481                           opt subtitle "HI-TECH Software Omniscient Code Generator (Lite mode) build 49521"
   482  0822  34F9               	retlw	0F9h
   483  0823  349E               	retlw	09Eh
   484  0824  3486               	retlw	086h
   485  0825  340B               	retlw	0Bh
   486                           opt subtitle "HI-TECH Software Omniscient Code Generator (Lite mode) build 49521"
   487  0826  3424               	retlw	024h
   488  0827  3406               	retlw	06h
   489  0828  347F               	retlw	07Fh
   490  0829  34A6               	retlw	0A6h
   491                           opt subtitle "HI-TECH Software Omniscient Code Generator (Lite mode) build 49521"
   492  082A  3400               	retlw	0
   493  082B  3400               	retlw	0
   494  082C  3400               	retlw	0
   495  082D  3400               	retlw	0
   496                           opt subtitle "HI-TECH Software Omniscient Code Generator (Lite mode) build 49521"
   497  082E  3400               	retlw	0
   498  082F  3400               	retlw	0
   499  0830  3400               	retlw	0
   500  0831  3400               	retlw	0
   501                           opt subtitle "HI-TECH Software Omniscient Code Generator (Lite mode) build 49521"
   502  0832  3400               	retlw	0
   503  0833  3400               	retlw	0
   504  0834  3400               	retlw	0
   505  0835  3400               	retlw	0
   506                           opt subtitle "HI-TECH Software Omniscient Code Generator (Lite mode) build 49521"
   507  0836  3400               	retlw	0
   508  0837  3400               	retlw	0
   509  0838  3400               	retlw	0
   510  0839  3400               	retlw	0
   511                           opt subtitle "HI-TECH Software Omniscient Code Generator (Lite mode) build 49521"
   512  083A  3400               	retlw	0
   513  083B  3400               	retlw	0
   514  083C  3400               	retlw	0
   515  083D  3400               	retlw	0
   516                           opt subtitle "HI-TECH Software Omniscient Code Generator (Lite mode) build 49521"
   517  083E  3400               	retlw	0
   518  083F  3400               	retlw	0
   519  0840  3400               	retlw	0
   520  0841  3400               	retlw	0
   521                           opt subtitle "HI-TECH Software Omniscient Code Generator (Lite mode) build 49521"
   522  0842  3400               	retlw	0
   523  0843  3473               	retlw	073h
   524  0844  3412               	retlw	012h
   525  0845  3400               	retlw	0
   526                           opt subtitle "HI-TECH Software Omniscient Code Generator (Lite mode) build 49521"
   527  0846  3400               	retlw	0
   528  0847  3480               	retlw	080h
   529  0848  34B4               	retlw	0B4h
   530  0849  3436               	retlw	036h
   531                           opt subtitle "HI-TECH Software Omniscient Code Generator (Lite mode) build 49521"
   532                           
   533  084A                     __end_of_Bank1_Reg0_13:
   534                           opt subtitle "HI-TECH Software Omniscient Code Generator (Lite mode) build 49521"
   535                           
   536                           opt pagewidth 120
   537                           
   538  084A                     _Bank0_Reg:
   539  084A  3400               	retlw	0
   540  084B  340F               	retlw	0Fh
   541  084C  3401               	retlw	01h
   542  084D  343F               	retlw	03Fh
   543  084E  3402               	retlw	02h
   544  084F  343F               	retlw	03Fh
   545  0850  3403               	retlw	03h
   546  0851  3403               	retlw	03h
   547  0852  3404               	retlw	04h
   548  0853  34FF               	retlw	0FFh
   549  0854  3405               	retlw	05h
   550  0855  3417               	retlw	017h
   551  0856  3406               	retlw	06h
   552  0857  3401               	retlw	01h
   553  0858  3407               	retlw	07h
   554  0859  3407               	retlw	07h
   555  085A  3408               	retlw	08h
   556  085B  3400               	retlw	0
   557  085C  3409               	retlw	09h
   558  085D  3400               	retlw	0
   559  085E  340C               	retlw	0Ch
   560  085F  34C3               	retlw	0C3h
   561  0860  340D               	retlw	0Dh
   562  0861  34C4               	retlw	0C4h
   563  0862  340E               	retlw	0Eh
   564  0863  34C5               	retlw	0C5h
   565  0864  340F               	retlw	0Fh
   566  0865  34C6               	retlw	0C6h
   567  0866  3411               	retlw	011h
   568  0867  3420               	retlw	020h
   569  0868  3412               	retlw	012h
   570  0869  3420               	retlw	020h
   571  086A  3413               	retlw	013h
   572  086B  3420               	retlw	020h
   573  086C  3414               	retlw	014h
   574  086D  3420               	retlw	020h
   575  086E  3415               	retlw	015h
   576  086F  3420               	retlw	020h
   577  0870  3416               	retlw	016h
   578  0871  3420               	retlw	020h
   579  0872  3417               	retlw	017h
   580  0873  3400               	retlw	0
   581  0874  341C               	retlw	01Ch
   582  0875  343F               	retlw	03Fh
   583  0876  341D               	retlw	01Dh
   584  0877  3407               	retlw	07h
   585                           opt subtitle "HI-TECH Software Omniscient Code Generator (Lite mode) build 49521"
   586  0878                     __end_of_Bank0_Reg:
   587                           opt subtitle "HI-TECH Software Omniscient Code Generator (Lite mode) build 49521"
   588                           
   589                           opt pagewidth 120
   590                           
   591  0878                     _Bank1_Reg14:
   592  0878  3441               	retlw	041h
   593  0879  3420               	retlw	020h
   594  087A  3408               	retlw	08h
   595  087B  3404               	retlw	04h
   596  087C  3481               	retlw	081h
   597  087D  3420               	retlw	020h
   598  087E  34CF               	retlw	0CFh
   599  087F  34F7               	retlw	0F7h
   600  0880  34FE               	retlw	0FEh
   601  0881  34FF               	retlw	0FFh
   602  0882  34FF               	retlw	0FFh
   603                           opt subtitle "HI-TECH Software Omniscient Code Generator (Lite mode) build 49521"
   604  0883                     __end_of_Bank1_Reg14:
   605                           opt subtitle "HI-TECH Software Omniscient Code Generator (Lite mode) build 49521"
   606                           
   607                           opt pagewidth 120
   608                           
   609  0883                     _dpowers:
   610  0883  3401               	retlw	01h
   611  0884  3400               	retlw	0
   612                           opt subtitle "HI-TECH Software Omniscient Code Generator (Lite mode) build 49521"
   613  0885  340A               	retlw	0Ah
   614  0886  3400               	retlw	0
   615                           opt subtitle "HI-TECH Software Omniscient Code Generator (Lite mode) build 49521"
   616  0887  3464               	retlw	064h
   617  0888  3400               	retlw	0
   618                           opt subtitle "HI-TECH Software Omniscient Code Generator (Lite mode) build 49521"
   619  0889  34E8               	retlw	0E8h
   620  088A  3403               	retlw	03h
   621                           opt subtitle "HI-TECH Software Omniscient Code Generator (Lite mode) build 49521"
   622  088B  3410               	retlw	010h
   623  088C  3427               	retlw	027h
   624                           opt subtitle "HI-TECH Software Omniscient Code Generator (Lite mode) build 49521"
   625                           
   626  088D                     __end_of_dpowers:
   627                           opt subtitle "HI-TECH Software Omniscient Code Generator (Lite mode) build 49521"
   628                           
   629                           opt pagewidth 120
   630                           
   631  088D                     _hexpowers:
   632  088D  3401               	retlw	01h
   633  088E  3400               	retlw	0
   634                           opt subtitle "HI-TECH Software Omniscient Code Generator (Lite mode) build 49521"
   635  088F  3410               	retlw	010h
   636  0890  3400               	retlw	0
   637                           opt subtitle "HI-TECH Software Omniscient Code Generator (Lite mode) build 49521"
   638  0891  3400               	retlw	0
   639  0892  3401               	retlw	01h
   640                           opt subtitle "HI-TECH Software Omniscient Code Generator (Lite mode) build 49521"
   641  0893  3400               	retlw	0
   642  0894  3410               	retlw	010h
   643                           opt subtitle "HI-TECH Software Omniscient Code Generator (Lite mode) build 49521"
   644                           
   645  0895                     __end_of_hexpowers:
   646                           opt subtitle "HI-TECH Software Omniscient Code Generator (Lite mode) build 49521"
   647                           
   648                           opt pagewidth 120
   649                           
   650  0895                     _RX0_Address:
   651  0895  3434               	retlw	034h
   652  0896  3443               	retlw	043h
   653  0897  3410               	retlw	010h
   654  0898  3410               	retlw	010h
   655  0899  3401               	retlw	01h
   656                           opt subtitle "HI-TECH Software Omniscient Code Generator (Lite mode) build 49521"
   657  089A                     __end_of_RX0_Address:
   658                           opt subtitle "HI-TECH Software Omniscient Code Generator (Lite mode) build 49521"
   659                           
   660                           opt pagewidth 120
   661                           
   662  089A                     _RX1_Address:
   663  089A  3439               	retlw	039h
   664  089B  3438               	retlw	038h
   665  089C  3437               	retlw	037h
   666  089D  3436               	retlw	036h
   667  089E  34C2               	retlw	0C2h
   668                           opt subtitle "HI-TECH Software Omniscient Code Generator (Lite mode) build 49521"
   669  089F                     __end_of_RX1_Address:
   670                           opt subtitle "HI-TECH Software Omniscient Code Generator (Lite mode) build 49521"
   671                           
   672                           opt pagewidth 120
   673  089F                     _Bank0_RegAct:
   674  089F  341C               	retlw	01Ch
   675  08A0  343F               	retlw	03Fh
   676  08A1  341D               	retlw	01Dh
   677  08A2  3407               	retlw	07h
   678                           opt subtitle "HI-TECH Software Omniscient Code Generator (Lite mode) build 49521"
   679  08A3                     __end_of_Bank0_RegAct:
   680                           opt subtitle "HI-TECH Software Omniscient Code Generator (Lite mode) build 49521"
   681                           
   682                           opt pagewidth 120
   683                           
   684                           	opt lm
   685                           
   686                           	processor	16F707
   687                           clrc	macro
   688                           	bcf	3,0
   689                           	endm
   690                           clrz	macro
   691  001F                     _ADCON0bits	set	0x1F
   692                           opt subtitle "HI-TECH Software Omniscient Code Generator (Lite mode) build 49521"
   693  001E                     _ADRES	set	0x1E
   694                           opt subtitle "HI-TECH Software Omniscient Code Generator (Lite mode) build 49521"
   695  000C                     _PIR1bits	set	0xC
   696                           opt subtitle "HI-TECH Software Omniscient Code Generator (Lite mode) build 49521"
   697  0007                     _PORTCbits	set	0x7
   698                           opt subtitle "HI-TECH Software Omniscient Code Generator (Lite mode) build 49521"
   699  0008                     _PORTDbits	set	0x8
   700                           opt subtitle "HI-TECH Software Omniscient Code Generator (Lite mode) build 49521"
   701  001A                     _RCREG	set	0x1A
   702                           opt subtitle "HI-TECH Software Omniscient Code Generator (Lite mode) build 49521"
   703  0018                     _RCSTA	set	0x18
   704                           opt subtitle "HI-TECH Software Omniscient Code Generator (Lite mode) build 49521"
   705  0018                     _RCSTAbits	set	0x18
   706                           opt subtitle "HI-TECH Software Omniscient Code Generator (Lite mode) build 49521"
   707  0013                     _SSPBUF	set	0x13
   708                           opt subtitle "HI-TECH Software Omniscient Code Generator (Lite mode) build 49521"
   709  0014                     _SSPCONbits	set	0x14
   710                           opt subtitle "HI-TECH Software Omniscient Code Generator (Lite mode) build 49521"
   711  0010                     _T1CONbits	set	0x10
   712                           opt subtitle "HI-TECH Software Omniscient Code Generator (Lite mode) build 49521"
   713  000F                     _TMR1H	set	0xF
   714                           opt subtitle "HI-TECH Software Omniscient Code Generator (Lite mode) build 49521"
   715  000E                     _TMR1L	set	0xE
   716                           opt subtitle "HI-TECH Software Omniscient Code Generator (Lite mode) build 49521"
   717  0019                     _TXREG	set	0x19
   718                           opt subtitle "HI-TECH Software Omniscient Code Generator (Lite mode) build 49521"
   719  005F                     _GIE	set	0x5F
   720                           opt subtitle "HI-TECH Software Omniscient Code Generator (Lite mode) build 49521"
   721  005E                     _PEIE	set	0x5E
   722                           opt subtitle "HI-TECH Software Omniscient Code Generator (Lite mode) build 49521"
   723  0065                     _RCIF	set	0x65
   724                           opt subtitle "HI-TECH Software Omniscient Code Generator (Lite mode) build 49521"
   725  0060                     _TMR1IF	set	0x60
   726                           opt subtitle "HI-TECH Software Omniscient Code Generator (Lite mode) build 49521"
   727  0064                     _TXIF	set	0x64
   728                           opt subtitle "HI-TECH Software Omniscient Code Generator (Lite mode) build 49521"
   729  009F                     _ADCON1bits	set	0x9F
   730                           opt subtitle "HI-TECH Software Omniscient Code Generator (Lite mode) build 49521"
   731  0090                     _OSCCONbits	set	0x90
   732                           opt subtitle "HI-TECH Software Omniscient Code Generator (Lite mode) build 49521"
   733  0099                     _SPBRG	set	0x99
   734                           opt subtitle "HI-TECH Software Omniscient Code Generator (Lite mode) build 49521"
   735  0094                     _SSPSTATbits	set	0x94
   736                           opt subtitle "HI-TECH Software Omniscient Code Generator (Lite mode) build 49521"
   737  008F                     _T1GCONbits	set	0x8F
   738                           opt subtitle "HI-TECH Software Omniscient Code Generator (Lite mode) build 49521"
   739  0087                     _TRISCbits	set	0x87
   740                           opt subtitle "HI-TECH Software Omniscient Code Generator (Lite mode) build 49521"
   741  0088                     _TRISDbits	set	0x88
   742                           opt subtitle "HI-TECH Software Omniscient Code Generator (Lite mode) build 49521"
   743  0089                     _TRISEbits	set	0x89
   744                           opt subtitle "HI-TECH Software Omniscient Code Generator (Lite mode) build 49521"
   745  0098                     _TXSTA	set	0x98
   746                           opt subtitle "HI-TECH Software Omniscient Code Generator (Lite mode) build 49521"
   747  0098                     _TXSTAbits	set	0x98
   748                           opt subtitle "HI-TECH Software Omniscient Code Generator (Lite mode) build 49521"
   749  0460                     _TMR1IE	set	0x460
   750                           opt subtitle "HI-TECH Software Omniscient Code Generator (Lite mode) build 49521"
   751  0187                     _ANSELCbits	set	0x187
   752                           opt subtitle "HI-TECH Software Omniscient Code Generator (Lite mode) build 49521"
   753  0188                     _ANSELDbits	set	0x188
   754                           opt subtitle "HI-TECH Software Omniscient Code Generator (Lite mode) build 49521"
   755  0189                     _ANSELEbits	set	0x189
   756                           opt subtitle "HI-TECH Software Omniscient Code Generator (Lite mode) build 49521"
   757  08A3                     __stringdata:
   758                           opt subtitle "HI-TECH Software Omniscient Code Generator (Lite mode) build 49521"
   759  08A3                     STR_7:	
   760  08A3  344E               	retlw	78	;'N'
   761  08A4  346F               	retlw	111	;'o'
   762  08A5  3420               	retlw	32	;' '
   763  08A6  3464               	retlw	100	;'d'
   764  08A7  3461               	retlw	97	;'a'
   765  08A8  3474               	retlw	116	;'t'
   766  08A9  3461               	retlw	97	;'a'
   767  08AA  3420               	retlw	32	;' '
   768  08AB  3473               	retlw	115	;'s'
   769  08AC  3465               	retlw	101	;'e'
   770  08AD  346E               	retlw	110	;'n'
   771  08AE  3474               	retlw	116	;'t'
   772  08AF  343A               	retlw	58	;':'
   773  08B0  3420               	retlw	32	;' '
   774  08B1  3445               	retlw	69	;'E'
   775  08B2  3452               	retlw	82	;'R'
   776  08B3  3452               	retlw	82	;'R'
   777  08B4  344F               	retlw	79	;'O'
   778  08B5  3452               	retlw	82	;'R'
   779  08B6  3420               	retlw	32	;' '
   780  08B7  340D               	retlw	13
   781  08B8  340A               	retlw	10
   782  08B9  3420               	retlw	32	;' '
   783  08BA  3400               	retlw	0
   784                           opt subtitle "HI-TECH Software Omniscient Code Generator (Lite mode) build 49521"
   785                           
   786  08BB                     STR_1:	
   787  08BB  3445               	retlw	69	;'E'
   788  08BC  3463               	retlw	99	;'c'
   789  08BD  3463               	retlw	99	;'c'
   790  08BE  346F               	retlw	111	;'o'
   791  08BF  346D               	retlw	109	;'m'
   792  08C0  3469               	retlw	105	;'i'
   793  08C1  3420               	retlw	32	;' '
   794  08C2  346E               	retlw	110	;'n'
   795  08C3  3465               	retlw	101	;'e'
   796  08C4  346C               	retlw	108	;'l'
   797  08C5  346C               	retlw	108	;'l'
   798  08C6  3427               	retlw	39	;'''
   799  08C7  3449               	retlw	73	;'I'
   800  08C8  3453               	retlw	83	;'S'
   801  08C9  3452               	retlw	82	;'R'
   802  08CA  3421               	retlw	33	;'!'
   803  08CB  340D               	retlw	13
   804  08CC  340A               	retlw	10
   805  08CD  3400               	retlw	0
   806                           opt subtitle "HI-TECH Software Omniscient Code Generator (Lite mode) build 49521"
   807                           
   808  08CE                     STR_11:	
   809  08CE  3430               	retlw	48	;'0'
   810  08CF  3431               	retlw	49	;'1'
   811  08D0  3432               	retlw	50	;'2'
   812  08D1  3433               	retlw	51	;'3'
   813  08D2  3434               	retlw	52	;'4'
   814  08D3  3435               	retlw	53	;'5'
   815  08D4  3436               	retlw	54	;'6'
   816  08D5  3437               	retlw	55	;'7'
   817  08D6  3438               	retlw	56	;'8'
   818  08D7  3439               	retlw	57	;'9'
   819  08D8  3441               	retlw	65	;'A'
   820  08D9  3442               	retlw	66	;'B'
   821  08DA  3443               	retlw	67	;'C'
   822  08DB  3444               	retlw	68	;'D'
   823  08DC  3445               	retlw	69	;'E'
   824  08DD  3446               	retlw	70	;'F'
   825  08DE  3400               	retlw	0
   826                           opt subtitle "HI-TECH Software Omniscient Code Generator (Lite mode) build 49521"
   827                           
   828  08DF                     STR_6:	
   829  08DF  3444               	retlw	68	;'D'
   830  08E0  3461               	retlw	97	;'a'
   831  08E1  3474               	retlw	116	;'t'
   832  08E2  3461               	retlw	97	;'a'
   833  08E3  3420               	retlw	32	;' '
   834  08E4  3473               	retlw	115	;'s'
   835  08E5  3465               	retlw	101	;'e'
   836  08E6  346E               	retlw	110	;'n'
   837  08E7  3474               	retlw	116	;'t'
   838  08E8  343A               	retlw	58	;':'
   839  08E9  3420               	retlw	32	;' '
   840  08EA  344F               	retlw	79	;'O'
   841  08EB  344B               	retlw	75	;'K'
   842  08EC  3420               	retlw	32	;' '
   843  08ED  340D               	retlw	13
   844  08EE  340A               	retlw	10
   845  08EF  3400               	retlw	0
   846                           opt subtitle "HI-TECH Software Omniscient Code Generator (Lite mode) build 49521"
   847                           
   848  08F0                     STR_2:	
   849  08F0  3441               	retlw	65	;'A'
   850  08F1  3444               	retlw	68	;'D'
   851  08F2  3443               	retlw	67	;'C'
   852  08F3  3420               	retlw	32	;' '
   853  08F4  3476               	retlw	118	;'v'
   854  08F5  3461               	retlw	97	;'a'
   855  08F6  346C               	retlw	108	;'l'
   856  08F7  3475               	retlw	117	;'u'
   857  08F8  3465               	retlw	101	;'e'
   858  08F9  343A               	retlw	58	;':'
   859  08FA  3420               	retlw	32	;' '
   860  08FB  3425               	retlw	37	;'%'
   861  08FC  3464               	retlw	100	;'d'
   862  08FD  340D               	retlw	13
   863  08FE  340A               	retlw	10
   864  08FF  3400               	retlw	0
   865                           opt subtitle "HI-TECH Software Omniscient Code Generator (Lite mode) build 49521"
   866                           
   867  0900                     STR_9:	
   868  0900  3452               	retlw	82	;'R'
   869  0901  3465               	retlw	101	;'e'
   870  0902  3463               	retlw	99	;'c'
   871  0903  3465               	retlw	101	;'e'
   872  0904  3469               	retlw	105	;'i'
   873  0905  3476               	retlw	118	;'v'
   874  0906  3469               	retlw	105	;'i'
   875  0907  346E               	retlw	110	;'n'
   876  0908  3467               	retlw	103	;'g'
   877  0909  343A               	retlw	58	;':'
   878  090A  3420               	retlw	32	;' '
   879  090B  3400               	retlw	0
   880                           opt subtitle "HI-TECH Software Omniscient Code Generator (Lite mode) build 49521"
   881                           
   882  090C                     STR_3:	
   883  090C  3453               	retlw	83	;'S'
   884  090D  3465               	retlw	101	;'e'
   885  090E  346E               	retlw	110	;'n'
   886  090F  3464               	retlw	100	;'d'
   887  0910  3469               	retlw	105	;'i'
   888  0911  346E               	retlw	110	;'n'
   889  0912  3467               	retlw	103	;'g'
   890  0913  343A               	retlw	58	;':'
   891  0914  3420               	retlw	32	;' '
   892  0915  3400               	retlw	0
   893                           opt subtitle "HI-TECH Software Omniscient Code Generator (Lite mode) build 49521"
   894                           
   895  0916                     STR_8:	
   896  0916  340A               	retlw	10
   897  0917  340D               	retlw	13
   898  0918  340A               	retlw	10
   899  0919  340D               	retlw	13
   900  091A  3400               	retlw	0
   901                           opt subtitle "HI-TECH Software Omniscient Code Generator (Lite mode) build 49521"
   902                           
   903  091B                     STR_4:	
   904  091B  3425               	retlw	37	;'%'
   905  091C  3458               	retlw	88	;'X'
   906  091D  3400               	retlw	0
   907                           opt subtitle "HI-TECH Software Omniscient Code Generator (Lite mode) build 49521"
   908  0916                     STR_10	equ	STR_8+0
   909  0918                     STR_5	equ	STR_8+2
   910                           opt subtitle "HI-TECH Software Omniscient Code Generator (Lite mode) build 49521"
   911  091E                     __end_of__stringdata:
   912                           opt subtitle "HI-TECH Software Omniscient Code Generator (Lite mode) build 49521"
   913                           
   914  0000                     __CFG_BOREN$OFF equ 0x0
   915                           opt subtitle "HI-TECH Software Omniscient Code Generator (Lite mode) build 49521"
   916  0000                     __CFG_PLLEN$ON equ 0x0
   917                           opt subtitle "HI-TECH Software Omniscient Code Generator (Lite mode) build 49521"
   918  0000                     __CFG_FOSC$INTOSC equ 0x0
   919                           opt subtitle "HI-TECH Software Omniscient Code Generator (Lite mode) build 49521"
   920  0000                     __CFG_MCLRE$ON equ 0x0
   921                           opt subtitle "HI-TECH Software Omniscient Code Generator (Lite mode) build 49521"
   922  0000                     __CFG_WDTE$OFF equ 0x0
   923                           opt subtitle "HI-TECH Software Omniscient Code Generator (Lite mode) build 49521"
   924  0000                     __CFG_CP$OFF equ 0x0
   925                           opt subtitle "HI-TECH Software Omniscient Code Generator (Lite mode) build 49521"
   926  0000                     __CFG_PWRTE$OFF equ 0x0
   927                           opt subtitle "HI-TECH Software Omniscient Code Generator (Lite mode) build 49521"
   928  0000                     __CFG_VCAPEN$RA0 equ 0x0
   929                           opt subtitle "HI-TECH Software Omniscient Code Generator (Lite mode) build 49521"
   930                           
   931                           opt pagewidth 120
   932                           
   933  0C9B                     start_initialization:
   934                           opt subtitle "HI-TECH Software Omniscient Code Generator (Lite mode) build 49521"
   935                           
   936  0C9B                     __initialization:
   937                           opt subtitle "HI-TECH Software Omniscient Code Generator (Lite mode) build 49521"
   938                           
   939  02D8                     __pbitbssBANK0:
   940  02D8                     _flag:
   941  02D8                            ds      1
   942                           opt subtitle "HI-TECH Software Omniscient Code Generator (Lite mode) build 49521"
   943                           
   944                           opt pagewidth 120
   945  0059                     __pbssBANK0:
   946  0059                     _tmr1Counter:
   947  0059                            ds      1
   948                           opt subtitle "HI-TECH Software Omniscient Code Generator (Lite mode) build 49521"
   949  005A                     _tx_buf:
   950  005A                            ds      1
   951                           opt subtitle "HI-TECH Software Omniscient Code Generator (Lite mode) build 49521"
   952                           
   953                           opt pagewidth 120
   954  005C                     __pdataBANK0:
   955                           opt subtitle "HI-TECH Software Omniscient Code Generator (Lite mode) build 49521"
   956                           
   957  005C                     _tmr1Target:
   958  005C                            ds      1
   959                           opt subtitle "HI-TECH Software Omniscient Code Generator (Lite mode) build 49521"
   960                           
   961                           opt pagewidth 120
   962  00CB                     __pbssBANK1:
   963  00CB                     _rx_buf:
   964  00CB                            ds      32
   965                           opt subtitle "HI-TECH Software Omniscient Code Generator (Lite mode) build 49521"
   966                           
   967                           opt pagewidth 120
   968                           
   969                           	opt lm
   970  0C31                     clear_ram:
   971  0C31  0064               	clrwdt			;clear the watchdog before getting into this loop
   972  0C32                     clrloop:
   973  0C32  0180               	clrf	indf		;clear RAM location pointed to by FSR
   974  0C33  0A84               	incf	fsr,f		;increment pointer
   975  0C34  0604               	xorwf	fsr,w		;XOR with final address
   976  0C35  1903               	btfsc	status,2	;have we reached the end yet?
   977  0C36  3400               	retlw	0		;all done for this memory range, return
   978  0C37  0604               	xorwf	fsr,w		;XOR again to restore value
   979  0C38  2C32               	goto	clrloop		;do the next byte
   980                           opt subtitle "HI-TECH Software Omniscient Code Generator (Lite mode) build 49521"
   981                           
   982                           opt pagewidth 120
   983  0C9B  01DB               	clrf	((__pbitbssBANK0/8)+0)&07Fh
   984                           opt subtitle "HI-TECH Software Omniscient Code Generator (Lite mode) build 49521"
   985                           
   986  0C9C  01D9               	clrf	((__pbssBANK0)+0)&07Fh
   987  0C9D  01DA               	clrf	((__pbssBANK0)+1)&07Fh
   988                           opt subtitle "HI-TECH Software Omniscient Code Generator (Lite mode) build 49521"
   989                           
   990  0C9E  1383               	bcf	status, 7	;select IRP bank0
   991  0C9F  30CB               	movlw	low(__pbssBANK1)
   992  0CA0  0084               	movwf	fsr
   993  0CA1  30EB               	movlw	low((__pbssBANK1)+020h)
   994  0CA2  120A  158A  2431   	fcall	clear_ram
              120A  158A         
   995                           opt subtitle "HI-TECH Software Omniscient Code Generator (Lite mode) build 49521"
   996                           
   997                           opt pagewidth 120
   998  0CA7  120A  118A  27FF   	fcall	__pidataBANK0+0		;fetch initializer
              120A  158A         
   999  0CAC  00DC               	movwf	__pdataBANK0+0&07fh		
  1000                           opt subtitle "HI-TECH Software Omniscient Code Generator (Lite mode) build 49521"
  1001                           
  1002                           opt pagewidth 120
  1003                           
  1004                           	opt lm
  1005  0CAD                     end_of_initialization:
  1006  0CAD                     __end_of__initialization:clrf status
      + 0CAD  0183               	clrf	3
  1007  0CAE  120A  118A  2E83   ljmp _main	;jump to C main() function
  1008                           opt subtitle "HI-TECH Software Omniscient Code Generator (Lite mode) build 49521"
  1009                           
  1010  00A0                     __pcstackBANK1:
  1011  00A0                     ?_main:	; 2 bytes @ 0x0
  1012  00A0                     main@argc:	; 2 bytes @ 0x0
  1013  00A0                     	ds	2
  1014  00A2                     main@argv:	; 2 bytes @ 0x2
  1015  00A2                     	ds	2
  1016  00A4                     ??_main:	; 0 bytes @ 0x4
  1017  00A4                     	ds	3
  1018                           opt subtitle "HI-TECH Software Omniscient Code Generator (Lite mode) build 49521"
  1019  00A7                     main@temp_tx_buf:	; 32 bytes @ 0x7
  1020  00A7                     	ds	32
  1021                           opt subtitle "HI-TECH Software Omniscient Code Generator (Lite mode) build 49521"
  1022  00C7                     main@i:	; 4 bytes @ 0x27
  1023  00C7                     	ds	4
  1024                           opt subtitle "HI-TECH Software Omniscient Code Generator (Lite mode) build 49521"
  1025                           
  1026  0070                     __pcstackCOMMON:
  1027  0070                     ?_spiInit:	; 0 bytes @ 0x0
  1028  0070                     ?_uartInit:	; 0 bytes @ 0x0
  1029  0070                     ?_adcInit:	; 0 bytes @ 0x0
  1030  0070                     ?_rfm70setPowerdownMode:	; 0 bytes @ 0x0
  1031  0070                     ?_RFM70_Initialize:	; 0 bytes @ 0x0
  1032  0070                     ?_SwitchToTxMode:	; 0 bytes @ 0x0
  1033  0070                     ?_SwitchToRxMode:	; 0 bytes @ 0x0
  1034  0070                     ?_ISR:	; 0 bytes @ 0x0
  1035  0070                     ?_putch:	; 0 bytes @ 0x0
  1036  0070                     ?_SwitchCFG:	; 0 bytes @ 0x0
  1037  0070                     ?i1_putch:	; 0 bytes @ 0x0
  1038  0070                     ??i1_putch:	; 0 bytes @ 0x0
  1039  0070                     ?_adcRead:	; 1 bytes @ 0x0
  1040  0070                     ?_SPI_Read_Reg:	; 1 bytes @ 0x0
  1041  0070                     ?_rfm70TxDataSentInterrupt:	; 1 bytes @ 0x0
  1042  0070                     ?_rfm70TxDataSentErrorInterrupt:	; 1 bytes @ 0x0
  1043  0070                     ?_SPI_RW:	; 1 bytes @ 0x0
  1044                           opt subtitle "HI-TECH Software Omniscient Code Generator (Lite mode) build 49521"
  1045  0070                     ?i1___lwdiv:	; 2 bytes @ 0x0
  1046                           opt subtitle "HI-TECH Software Omniscient Code Generator (Lite mode) build 49521"
  1047  0070                     i1putch@c:	; 1 bytes @ 0x0
  1048                           opt subtitle "HI-TECH Software Omniscient Code Generator (Lite mode) build 49521"
  1049  0070                     i1___lwdiv@divisor:	; 2 bytes @ 0x0
  1050  0070                     	ds	2
  1051                           opt subtitle "HI-TECH Software Omniscient Code Generator (Lite mode) build 49521"
  1052  0072                     i1___lwdiv@dividend:	; 2 bytes @ 0x2
  1053  0072                     	ds	2
  1054  0074                     ??i1___lwdiv:	; 0 bytes @ 0x4
  1055  0074                     	ds	1
  1056                           opt subtitle "HI-TECH Software Omniscient Code Generator (Lite mode) build 49521"
  1057  0075                     i1___lwdiv@counter:	; 1 bytes @ 0x5
  1058  0075                     	ds	1
  1059                           opt subtitle "HI-TECH Software Omniscient Code Generator (Lite mode) build 49521"
  1060  0076                     i1___lwdiv@quotient:	; 2 bytes @ 0x6
  1061  0076                     	ds	2
  1062                           opt subtitle "HI-TECH Software Omniscient Code Generator (Lite mode) build 49521"
  1063  0078                     ?i1___lwmod:	; 2 bytes @ 0x8
  1064                           opt subtitle "HI-TECH Software Omniscient Code Generator (Lite mode) build 49521"
  1065  0078                     i1___lwmod@divisor:	; 2 bytes @ 0x8
  1066  0078                     	ds	2
  1067                           opt subtitle "HI-TECH Software Omniscient Code Generator (Lite mode) build 49521"
  1068  007A                     i1___lwmod@dividend:	; 2 bytes @ 0xA
  1069  007A                     	ds	2
  1070  007C                     ??i1___lwmod:	; 0 bytes @ 0xC
  1071  007C                     	ds	1
  1072                           opt subtitle "HI-TECH Software Omniscient Code Generator (Lite mode) build 49521"
  1073  007D                     i1___lwmod@counter:	; 1 bytes @ 0xD
  1074  007D                     	ds	1
  1075                           opt subtitle "HI-TECH Software Omniscient Code Generator (Lite mode) build 49521"
  1076                           
  1077  0020                     __pcstackBANK0:
  1078                           opt subtitle "HI-TECH Software Omniscient Code Generator (Lite mode) build 49521"
  1079  0020                     ?i1_printf:	; 2 bytes @ 0x0
  1080                           opt subtitle "HI-TECH Software Omniscient Code Generator (Lite mode) build 49521"
  1081  0020                     i1printf@f:	; 2 bytes @ 0x0
  1082  0020                     	ds	2
  1083  0022                     ??i1_printf:	; 0 bytes @ 0x2
  1084  0022                     	ds	3
  1085                           opt subtitle "HI-TECH Software Omniscient Code Generator (Lite mode) build 49521"
  1086  0025                     i1printf@idx:	; 1 bytes @ 0x5
  1087  0025                     	ds	1
  1088                           opt subtitle "HI-TECH Software Omniscient Code Generator (Lite mode) build 49521"
  1089  0026                     i1printf@ap:	; 1 bytes @ 0x6
  1090  0026                     	ds	1
  1091                           opt subtitle "HI-TECH Software Omniscient Code Generator (Lite mode) build 49521"
  1092  0027                     i1printf@prec:	; 1 bytes @ 0x7
  1093  0027                     	ds	1
  1094                           opt subtitle "HI-TECH Software Omniscient Code Generator (Lite mode) build 49521"
  1095  0028                     i1printf@flag:	; 1 bytes @ 0x8
  1096  0028                     	ds	1
  1097                           opt subtitle "HI-TECH Software Omniscient Code Generator (Lite mode) build 49521"
  1098  0029                     i1printf@_val:	; 4 bytes @ 0x9
  1099  0029                     	ds	4
  1100                           opt subtitle "HI-TECH Software Omniscient Code Generator (Lite mode) build 49521"
  1101  002D                     i1printf@c:	; 1 bytes @ 0xD
  1102  002D                     	ds	1
  1103  002E                     ??_ISR:	; 0 bytes @ 0xE
  1104  002E                     	ds	5
  1105  0033                     ??_spiInit:	; 0 bytes @ 0x13
  1106  0033                     ??_uartInit:	; 0 bytes @ 0x13
  1107  0033                     ??_adcInit:	; 0 bytes @ 0x13
  1108  0033                     ??_adcRead:	; 0 bytes @ 0x13
  1109  0033                     ??_putch:	; 0 bytes @ 0x13
  1110  0033                     ??_SPI_RW:	; 0 bytes @ 0x13
  1111                           opt subtitle "HI-TECH Software Omniscient Code Generator (Lite mode) build 49521"
  1112  0033                     ?___lwdiv:	; 2 bytes @ 0x13
  1113                           opt subtitle "HI-TECH Software Omniscient Code Generator (Lite mode) build 49521"
  1114  0033                     putch@c:	; 1 bytes @ 0x13
  1115                           opt subtitle "HI-TECH Software Omniscient Code Generator (Lite mode) build 49521"
  1116  0033                     ___lwdiv@divisor:	; 2 bytes @ 0x13
  1117  0033                     	ds	1
  1118                           opt subtitle "HI-TECH Software Omniscient Code Generator (Lite mode) build 49521"
  1119  0034                     adcRead@value:	; 1 bytes @ 0x14
  1120  0034                     	ds	1
  1121                           opt subtitle "HI-TECH Software Omniscient Code Generator (Lite mode) build 49521"
  1122  0035                     SPI_RW@value:	; 1 bytes @ 0x15
  1123                           opt subtitle "HI-TECH Software Omniscient Code Generator (Lite mode) build 49521"
  1124  0035                     ___lwdiv@dividend:	; 2 bytes @ 0x15
  1125  0035                     	ds	1
  1126  0036                     ??_SPI_Read_Reg:	; 0 bytes @ 0x16
  1127                           opt subtitle "HI-TECH Software Omniscient Code Generator (Lite mode) build 49521"
  1128  0036                     ?_SPI_Write_Buf:	; 0 bytes @ 0x16
  1129                           opt subtitle "HI-TECH Software Omniscient Code Generator (Lite mode) build 49521"
  1130  0036                     ?_SPI_Write_Reg:	; 0 bytes @ 0x16
  1131                           opt subtitle "HI-TECH Software Omniscient Code Generator (Lite mode) build 49521"
  1132  0036                     SPI_Write_Reg@value:	; 1 bytes @ 0x16
  1133                           opt subtitle "HI-TECH Software Omniscient Code Generator (Lite mode) build 49521"
  1134  0036                     SPI_Write_Buf@pBuf:	; 1 bytes @ 0x16
  1135  0036                     	ds	1
  1136  0037                     ??_SPI_Write_Reg:	; 0 bytes @ 0x17
  1137  0037                     ??___lwdiv:	; 0 bytes @ 0x17
  1138                           opt subtitle "HI-TECH Software Omniscient Code Generator (Lite mode) build 49521"
  1139  0037                     SPI_Write_Reg@reg:	; 1 bytes @ 0x17
  1140                           opt subtitle "HI-TECH Software Omniscient Code Generator (Lite mode) build 49521"
  1141  0037                     SPI_Read_Reg@reg:	; 1 bytes @ 0x17
  1142                           opt subtitle "HI-TECH Software Omniscient Code Generator (Lite mode) build 49521"
  1143  0037                     SPI_Write_Buf@length:	; 1 bytes @ 0x17
  1144  0037                     	ds	1
  1145  0038                     ??_SPI_Write_Buf:	; 0 bytes @ 0x18
  1146                           opt subtitle "HI-TECH Software Omniscient Code Generator (Lite mode) build 49521"
  1147  0038                     SPI_Read_Reg@value:	; 1 bytes @ 0x18
  1148                           opt subtitle "HI-TECH Software Omniscient Code Generator (Lite mode) build 49521"
  1149  0038                     ___lwdiv@quotient:	; 2 bytes @ 0x18
  1150  0038                     	ds	1
  1151  0039                     ??_rfm70setPowerdownMode:	; 0 bytes @ 0x19
  1152  0039                     ??_SwitchToTxMode:	; 0 bytes @ 0x19
  1153  0039                     ??_rfm70TxDataSentInterrupt:	; 0 bytes @ 0x19
  1154  0039                     ??_SwitchToRxMode:	; 0 bytes @ 0x19
  1155  0039                     ??_rfm70TxDataSentErrorInterrupt:	; 0 bytes @ 0x19
  1156  0039                     ??_SwitchCFG:	; 0 bytes @ 0x19
  1157                           opt subtitle "HI-TECH Software Omniscient Code Generator (Lite mode) build 49521"
  1158  0039                     SPI_Write_Buf@reg:	; 1 bytes @ 0x19
  1159  0039                     	ds	1
  1160                           opt subtitle "HI-TECH Software Omniscient Code Generator (Lite mode) build 49521"
  1161  003A                     SPI_Write_Buf@byte_ctr:	; 1 bytes @ 0x1A
  1162                           opt subtitle "HI-TECH Software Omniscient Code Generator (Lite mode) build 49521"
  1163  003A                     SwitchToRxMode@value:	; 1 bytes @ 0x1A
  1164                           opt subtitle "HI-TECH Software Omniscient Code Generator (Lite mode) build 49521"
  1165  003A                     SwitchToTxMode@value:	; 1 bytes @ 0x1A
  1166                           opt subtitle "HI-TECH Software Omniscient Code Generator (Lite mode) build 49521"
  1167  003A                     SwitchCFG@_cfg:	; 1 bytes @ 0x1A
  1168                           opt subtitle "HI-TECH Software Omniscient Code Generator (Lite mode) build 49521"
  1169  003A                     rfm70setPowerdownMode@value:	; 1 bytes @ 0x1A
  1170                           opt subtitle "HI-TECH Software Omniscient Code Generator (Lite mode) build 49521"
  1171  003A                     ___lwdiv@counter:	; 1 bytes @ 0x1A
  1172  003A                     	ds	1
  1173                           opt subtitle "HI-TECH Software Omniscient Code Generator (Lite mode) build 49521"
  1174  003B                     ?___lwmod:	; 2 bytes @ 0x1B
  1175                           opt subtitle "HI-TECH Software Omniscient Code Generator (Lite mode) build 49521"
  1176  003B                     SwitchCFG@Tmp:	; 1 bytes @ 0x1B
  1177                           opt subtitle "HI-TECH Software Omniscient Code Generator (Lite mode) build 49521"
  1178  003B                     rfm70setPowerdownMode@reg:	; 1 bytes @ 0x1B
  1179                           opt subtitle "HI-TECH Software Omniscient Code Generator (Lite mode) build 49521"
  1180  003B                     ___lwmod@divisor:	; 2 bytes @ 0x1B
  1181  003B                     	ds	1
  1182  003C                     ??_RFM70_Initialize:	; 0 bytes @ 0x1C
  1183  003C                     	ds	1
  1184                           opt subtitle "HI-TECH Software Omniscient Code Generator (Lite mode) build 49521"
  1185  003D                     ___lwmod@dividend:	; 2 bytes @ 0x1D
  1186  003D                     	ds	2
  1187  003F                     ??___lwmod:	; 0 bytes @ 0x1F
  1188  003F                     	ds	1
  1189                           opt subtitle "HI-TECH Software Omniscient Code Generator (Lite mode) build 49521"
  1190  0040                     ___lwmod@counter:	; 1 bytes @ 0x20
  1191  0040                     	ds	1
  1192                           opt subtitle "HI-TECH Software Omniscient Code Generator (Lite mode) build 49521"
  1193  0041                     ?_printf:	; 2 bytes @ 0x21
  1194                           opt subtitle "HI-TECH Software Omniscient Code Generator (Lite mode) build 49521"
  1195  0041                     printf@f:	; 2 bytes @ 0x21
  1196  0041                     	ds	2
  1197                           opt subtitle "HI-TECH Software Omniscient Code Generator (Lite mode) build 49521"
  1198  0043                     RFM70_Initialize@WriteArr:	; 12 bytes @ 0x23
  1199  0043                     	ds	2
  1200  0045                     ??_printf:	; 0 bytes @ 0x25
  1201  0045                     	ds	3
  1202                           opt subtitle "HI-TECH Software Omniscient Code Generator (Lite mode) build 49521"
  1203  0048                     printf@idx:	; 1 bytes @ 0x28
  1204  0048                     	ds	1
  1205                           opt subtitle "HI-TECH Software Omniscient Code Generator (Lite mode) build 49521"
  1206  0049                     printf@ap:	; 1 bytes @ 0x29
  1207  0049                     	ds	1
  1208                           opt subtitle "HI-TECH Software Omniscient Code Generator (Lite mode) build 49521"
  1209  004A                     printf@prec:	; 1 bytes @ 0x2A
  1210  004A                     	ds	1
  1211                           opt subtitle "HI-TECH Software Omniscient Code Generator (Lite mode) build 49521"
  1212  004B                     printf@flag:	; 1 bytes @ 0x2B
  1213  004B                     	ds	1
  1214                           opt subtitle "HI-TECH Software Omniscient Code Generator (Lite mode) build 49521"
  1215  004C                     printf@_val:	; 4 bytes @ 0x2C
  1216  004C                     	ds	3
  1217                           opt subtitle "HI-TECH Software Omniscient Code Generator (Lite mode) build 49521"
  1218  004F                     RFM70_Initialize@i:	; 1 bytes @ 0x2F
  1219  004F                     	ds	1
  1220                           opt subtitle "HI-TECH Software Omniscient Code Generator (Lite mode) build 49521"
  1221  0050                     RFM70_Initialize@j:	; 1 bytes @ 0x30
  1222                           opt subtitle "HI-TECH Software Omniscient Code Generator (Lite mode) build 49521"
  1223  0050                     printf@c:	; 1 bytes @ 0x30
  1224  0050                     	ds	1
  1225                           opt subtitle "HI-TECH Software Omniscient Code Generator (Lite mode) build 49521"
  1226  0051                     ?_Send_Packet:	; 0 bytes @ 0x31
  1227                           opt subtitle "HI-TECH Software Omniscient Code Generator (Lite mode) build 49521"
  1228  0051                     Send_Packet@pbuf:	; 1 bytes @ 0x31
  1229  0051                     	ds	1
  1230                           opt subtitle "HI-TECH Software Omniscient Code Generator (Lite mode) build 49521"
  1231  0052                     Send_Packet@len:	; 1 bytes @ 0x32
  1232  0052                     	ds	1
  1233  0053                     ??_Send_Packet:	; 0 bytes @ 0x33
  1234  0053                     	ds	3
  1235                           opt subtitle "HI-TECH Software Omniscient Code Generator (Lite mode) build 49521"
  1236  0056                     Send_Packet@type:	; 1 bytes @ 0x36
  1237  0056                     	ds	1
  1238                           opt subtitle "HI-TECH Software Omniscient Code Generator (Lite mode) build 49521"
  1239  0057                     Send_Packet@fifo_sta:	; 1 bytes @ 0x37
  1240  0057                     	ds	1
  1241                           opt subtitle "HI-TECH Software Omniscient Code Generator (Lite mode) build 49521"
  1242  0058                     Send_Packet@i:	; 1 bytes @ 0x38
  1243  0058                     	ds	1
  1244                           opt subtitle "HI-TECH Software Omniscient Code Generator (Lite mode) build 49521"
  1245                           
  1246                           opt pagewidth 120
  1247                           
  1248                           	opt lm
  1249                           
  1250                           	processor	16F707
  1251                           clrc	macro
  1252                           	bcf	3,0
  1253                           	endm
  1254                           clrz	macro
  1255                           	bcf	3,2
  1256                           	endm
  1257                           setc	macro
  1258                           	bsf	3,0
  1259                           	endm
  1260                           setz	macro
  1261                           	bsf	3,2
  1262                           	endm
  1263                           skipc	macro
  1264                           	btfss	3,0
  1265                           	endm
  1266                           skipz	macro
  1267                           	btfss	3,2
  1268                           	endm
  1269                           skipnc	macro
  1270                           	btfsc	3,0
  1271                           	endm
  1272                           skipnz	macro
  1273                           	btfsc	3,2
  1274                           	endm
  1275                           indf	equ	0
  1276                           indf0	equ	0
  1277                           pc	equ	2
  1278                           pcl	equ	2
  1279                           status	equ	3
  1280                           fsr	equ	4
  1281                           fsr0	equ	4
  1282                           c	equ	1
  1283                           z	equ	0
  1284                           pclath	equ	10
  1285                           # 46 "/Applications/microchip/xc8/v1.12/include/pic16f707.h"
  1286                           INDF equ 00h ;# 
  1287                           # 52 "/Applications/microchip/xc8/v1.12/include/pic16f707.h"
  1288                           TMR0 equ 01h ;# 
  1289                           # 58 "/Applications/microchip/xc8/v1.12/include/pic16f707.h"
  1290                           PCL equ 02h ;# 
  1291                           # 64 "/Applications/microchip/xc8/v1.12/include/pic16f707.h"
  1292                           STATUS equ 03h ;# 
  1293                           # 151 "/Applications/microchip/xc8/v1.12/include/pic16f707.h"
  1294                           FSR equ 04h ;# 
  1295                           # 157 "/Applications/microchip/xc8/v1.12/include/pic16f707.h"
  1296                           PORTA equ 05h ;# 
  1297                           # 346 "/Applications/microchip/xc8/v1.12/include/pic16f707.h"
  1298                           PORTB equ 06h ;# 
  1299                           # 520 "/Applications/microchip/xc8/v1.12/include/pic16f707.h"
  1300                           PORTC equ 07h ;# 
  1301                           # 715 "/Applications/microchip/xc8/v1.12/include/pic16f707.h"
  1302                           PORTD equ 08h ;# 
  1303                           # 834 "/Applications/microchip/xc8/v1.12/include/pic16f707.h"
  1304                           PORTE equ 09h ;# 
  1305                           # 917 "/Applications/microchip/xc8/v1.12/include/pic16f707.h"
  1306                           PCLATH equ 0Ah ;# 
  1307                           # 936 "/Applications/microchip/xc8/v1.12/include/pic16f707.h"
  1308                           INTCON equ 0Bh ;# 
  1309                           # 1013 "/Applications/microchip/xc8/v1.12/include/pic16f707.h"
  1310                           PIR1 equ 0Ch ;# 
  1311                           # 1074 "/Applications/microchip/xc8/v1.12/include/pic16f707.h"
  1312                           PIR2 equ 0Dh ;# 
  1313                           # 1118 "/Applications/microchip/xc8/v1.12/include/pic16f707.h"
  1314                           TMR1 equ 0Eh ;# 
  1315                           # 1124 "/Applications/microchip/xc8/v1.12/include/pic16f707.h"
  1316                           TMR1L equ 0Eh ;# 
  1317                           # 1130 "/Applications/microchip/xc8/v1.12/include/pic16f707.h"
  1318                           TMR1H equ 0Fh ;# 
  1319                           # 1136 "/Applications/microchip/xc8/v1.12/include/pic16f707.h"
  1320                           T1CON equ 010h ;# 
  1321                           # 1214 "/Applications/microchip/xc8/v1.12/include/pic16f707.h"
  1322                           TMR2 equ 011h ;# 
  1323                           # 1220 "/Applications/microchip/xc8/v1.12/include/pic16f707.h"
  1324                           T2CON equ 012h ;# 
  1325                           # 1290 "/Applications/microchip/xc8/v1.12/include/pic16f707.h"
  1326                           SSPBUF equ 013h ;# 
  1327                           # 1296 "/Applications/microchip/xc8/v1.12/include/pic16f707.h"
  1328                           SSPCON equ 014h ;# 
  1329                           # 1365 "/Applications/microchip/xc8/v1.12/include/pic16f707.h"
  1330                           CCPR1 equ 015h ;# 
  1331                           # 1371 "/Applications/microchip/xc8/v1.12/include/pic16f707.h"
  1332                           CCPR1L equ 015h ;# 
  1333                           # 1377 "/Applications/microchip/xc8/v1.12/include/pic16f707.h"
  1334                           CCPR1H equ 016h ;# 
  1335                           # 1383 "/Applications/microchip/xc8/v1.12/include/pic16f707.h"
  1336                           CCP1CON equ 017h ;# 
  1337                           # 1446 "/Applications/microchip/xc8/v1.12/include/pic16f707.h"
  1338                           RCSTA equ 018h ;# 
  1339                           # 1507 "/Applications/microchip/xc8/v1.12/include/pic16f707.h"
  1340                           TXREG equ 019h ;# 
  1341                           # 1513 "/Applications/microchip/xc8/v1.12/include/pic16f707.h"
  1342                           RCREG equ 01Ah ;# 
  1343                           # 1519 "/Applications/microchip/xc8/v1.12/include/pic16f707.h"
  1344                           CCPR2 equ 01Bh ;# 
  1345                           # 1525 "/Applications/microchip/xc8/v1.12/include/pic16f707.h"
  1346                           CCPR2L equ 01Bh ;# 
  1347                           # 1531 "/Applications/microchip/xc8/v1.12/include/pic16f707.h"
  1348                           CCPR2H equ 01Ch ;# 
  1349                           # 1537 "/Applications/microchip/xc8/v1.12/include/pic16f707.h"
  1350                           CCP2CON equ 01Dh ;# 
  1351                           # 1600 "/Applications/microchip/xc8/v1.12/include/pic16f707.h"
  1352                           ADRES equ 01Eh ;# 
  1353                           # 1606 "/Applications/microchip/xc8/v1.12/include/pic16f707.h"
  1354                           ADCON0 equ 01Fh ;# 
  1355                           # 1664 "/Applications/microchip/xc8/v1.12/include/pic16f707.h"
  1356                           OPTION_REG equ 081h ;# 
  1357                           # 1746 "/Applications/microchip/xc8/v1.12/include/pic16f707.h"
  1358                           TRISA equ 085h ;# 
  1359                           # 1807 "/Applications/microchip/xc8/v1.12/include/pic16f707.h"
  1360                           TRISB equ 086h ;# 
  1361                           # 1868 "/Applications/microchip/xc8/v1.12/include/pic16f707.h"
  1362                           TRISC equ 087h ;# 
  1363                           # 1929 "/Applications/microchip/xc8/v1.12/include/pic16f707.h"
  1364                           TRISD equ 088h ;# 
  1365                           # 1990 "/Applications/microchip/xc8/v1.12/include/pic16f707.h"
  1366                           TRISE equ 089h ;# 
  1367                           # 2027 "/Applications/microchip/xc8/v1.12/include/pic16f707.h"
  1368                           PIE1 equ 08Ch ;# 
  1369                           # 2088 "/Applications/microchip/xc8/v1.12/include/pic16f707.h"
  1370                           PIE2 equ 08Dh ;# 
  1371                           # 2132 "/Applications/microchip/xc8/v1.12/include/pic16f707.h"
  1372                           PCON equ 08Eh ;# 
  1373                           # 2157 "/Applications/microchip/xc8/v1.12/include/pic16f707.h"
  1374                           T1GCON equ 08Fh ;# 
  1375                           # 2226 "/Applications/microchip/xc8/v1.12/include/pic16f707.h"
  1376                           OSCCON equ 090h ;# 
  1377                           # 2273 "/Applications/microchip/xc8/v1.12/include/pic16f707.h"
  1378                           OSCTUNE equ 091h ;# 
  1379                           # 2292 "/Applications/microchip/xc8/v1.12/include/pic16f707.h"
  1380                           PR2 equ 092h ;# 
  1381                           # 2298 "/Applications/microchip/xc8/v1.12/include/pic16f707.h"
  1382                           SSPADD equ 093h ;# 
  1383                           # 2317 "/Applications/microchip/xc8/v1.12/include/pic16f707.h"
  1384                           SSPMSK equ 093h ;# 
  1385                           # 2336 "/Applications/microchip/xc8/v1.12/include/pic16f707.h"
  1386                           SSPSTAT equ 094h ;# 
  1387                           # 2397 "/Applications/microchip/xc8/v1.12/include/pic16f707.h"
  1388                           WPUB equ 095h ;# 
  1389                           # 2458 "/Applications/microchip/xc8/v1.12/include/pic16f707.h"
  1390                           IOCB equ 096h ;# 
  1391                           # 2519 "/Applications/microchip/xc8/v1.12/include/pic16f707.h"
  1392                           T3CON equ 097h ;# 
  1393                           # 2585 "/Applications/microchip/xc8/v1.12/include/pic16f707.h"
  1394                           TXSTA equ 098h ;# 
  1395                           # 2641 "/Applications/microchip/xc8/v1.12/include/pic16f707.h"
  1396                           SPBRG equ 099h ;# 
  1397                           # 2647 "/Applications/microchip/xc8/v1.12/include/pic16f707.h"
  1398                           TMR3 equ 09Ah ;# 
  1399                           # 2653 "/Applications/microchip/xc8/v1.12/include/pic16f707.h"
  1400                           TMR3L equ 09Ah ;# 
  1401                           # 2659 "/Applications/microchip/xc8/v1.12/include/pic16f707.h"
  1402                           TMR3H equ 09Bh ;# 
  1403                           # 2665 "/Applications/microchip/xc8/v1.12/include/pic16f707.h"
  1404                           APFCON equ 09Ch ;# 
  1405                           # 2690 "/Applications/microchip/xc8/v1.12/include/pic16f707.h"
  1406                           FVRCON equ 09Dh ;# 
  1407                           # 2755 "/Applications/microchip/xc8/v1.12/include/pic16f707.h"
  1408                           T3GCON equ 09Eh ;# 
  1409                           # 2824 "/Applications/microchip/xc8/v1.12/include/pic16f707.h"
  1410                           ADCON1 equ 09Fh ;# 
  1411                           # 2883 "/Applications/microchip/xc8/v1.12/include/pic16f707.h"
  1412                           TACON equ 0105h ;# 
  1413                           # 2993 "/Applications/microchip/xc8/v1.12/include/pic16f707.h"
  1414                           CPSBCON0 equ 0106h ;# 
  1415                           # 3052 "/Applications/microchip/xc8/v1.12/include/pic16f707.h"
  1416                           CPSBCON1 equ 0107h ;# 
  1417                           # 3097 "/Applications/microchip/xc8/v1.12/include/pic16f707.h"
  1418                           CPSACON0 equ 0108h ;# 
  1419                           # 3156 "/Applications/microchip/xc8/v1.12/include/pic16f707.h"
  1420                           CPSACON1 equ 0109h ;# 
  1421                           # 3201 "/Applications/microchip/xc8/v1.12/include/pic16f707.h"
  1422                           PMDATL equ 010Ch ;# 
  1423                           # 3207 "/Applications/microchip/xc8/v1.12/include/pic16f707.h"
  1424                           PMADRL equ 010Dh ;# 
  1425                           # 3213 "/Applications/microchip/xc8/v1.12/include/pic16f707.h"
  1426                           PMDATH equ 010Eh ;# 
  1427                           # 3219 "/Applications/microchip/xc8/v1.12/include/pic16f707.h"
  1428                           PMADRH equ 010Fh ;# 
  1429                           # 3225 "/Applications/microchip/xc8/v1.12/include/pic16f707.h"
  1430                           TMRA equ 0110h ;# 
  1431                           # 3231 "/Applications/microchip/xc8/v1.12/include/pic16f707.h"
  1432                           TBCON equ 0111h ;# 
  1433                           # 3341 "/Applications/microchip/xc8/v1.12/include/pic16f707.h"
  1434                           TMRB equ 0112h ;# 
  1435                           # 3347 "/Applications/microchip/xc8/v1.12/include/pic16f707.h"
  1436                           DACCON0 equ 0113h ;# 
  1437                           # 3401 "/Applications/microchip/xc8/v1.12/include/pic16f707.h"
  1438                           DACCON1 equ 0114h ;# 
  1439                           # 3452 "/Applications/microchip/xc8/v1.12/include/pic16f707.h"
  1440                           ANSELA equ 0185h ;# 
  1441                           # 3521 "/Applications/microchip/xc8/v1.12/include/pic16f707.h"
  1442                           ANSELB equ 0186h ;# 
  1443                           # 3590 "/Applications/microchip/xc8/v1.12/include/pic16f707.h"
  1444                           ANSELC equ 0187h ;# 
  1445                           # 3648 "/Applications/microchip/xc8/v1.12/include/pic16f707.h"
  1446                           ANSELD equ 0188h ;# 
  1447                           # 3717 "/Applications/microchip/xc8/v1.12/include/pic16f707.h"
  1448                           ANSELE equ 0189h ;# 
  1449                           # 3756 "/Applications/microchip/xc8/v1.12/include/pic16f707.h"
  1450                           PMCON1 equ 018Ch ;# 
  1451                           # 46 "/Applications/microchip/xc8/v1.12/include/pic16f707.h"
  1452                           INDF equ 00h ;# 
  1453                           # 52 "/Applications/microchip/xc8/v1.12/include/pic16f707.h"
  1454                           TMR0 equ 01h ;# 
  1455                           # 58 "/Applications/microchip/xc8/v1.12/include/pic16f707.h"
  1456                           PCL equ 02h ;# 
  1457                           # 64 "/Applications/microchip/xc8/v1.12/include/pic16f707.h"
  1458                           STATUS equ 03h ;# 
  1459                           # 151 "/Applications/microchip/xc8/v1.12/include/pic16f707.h"
  1460                           FSR equ 04h ;# 
  1461                           # 157 "/Applications/microchip/xc8/v1.12/include/pic16f707.h"
  1462                           PORTA equ 05h ;# 
  1463                           # 346 "/Applications/microchip/xc8/v1.12/include/pic16f707.h"
  1464                           PORTB equ 06h ;# 
  1465                           # 520 "/Applications/microchip/xc8/v1.12/include/pic16f707.h"
  1466                           PORTC equ 07h ;# 
  1467                           # 715 "/Applications/microchip/xc8/v1.12/include/pic16f707.h"
  1468                           PORTD equ 08h ;# 
  1469                           # 834 "/Applications/microchip/xc8/v1.12/include/pic16f707.h"
  1470                           PORTE equ 09h ;# 
  1471                           # 917 "/Applications/microchip/xc8/v1.12/include/pic16f707.h"
  1472                           PCLATH equ 0Ah ;# 
  1473                           # 936 "/Applications/microchip/xc8/v1.12/include/pic16f707.h"
  1474                           INTCON equ 0Bh ;# 
  1475                           # 1013 "/Applications/microchip/xc8/v1.12/include/pic16f707.h"
  1476                           PIR1 equ 0Ch ;# 
  1477                           # 1074 "/Applications/microchip/xc8/v1.12/include/pic16f707.h"
  1478                           PIR2 equ 0Dh ;# 
  1479                           # 1118 "/Applications/microchip/xc8/v1.12/include/pic16f707.h"
  1480                           TMR1 equ 0Eh ;# 
  1481                           # 1124 "/Applications/microchip/xc8/v1.12/include/pic16f707.h"
  1482                           TMR1L equ 0Eh ;# 
  1483                           # 1130 "/Applications/microchip/xc8/v1.12/include/pic16f707.h"
  1484                           TMR1H equ 0Fh ;# 
  1485                           # 1136 "/Applications/microchip/xc8/v1.12/include/pic16f707.h"
  1486                           T1CON equ 010h ;# 
  1487                           # 1214 "/Applications/microchip/xc8/v1.12/include/pic16f707.h"
  1488                           TMR2 equ 011h ;# 
  1489                           # 1220 "/Applications/microchip/xc8/v1.12/include/pic16f707.h"
  1490                           T2CON equ 012h ;# 
  1491                           # 1290 "/Applications/microchip/xc8/v1.12/include/pic16f707.h"
  1492                           SSPBUF equ 013h ;# 
  1493                           # 1296 "/Applications/microchip/xc8/v1.12/include/pic16f707.h"
  1494                           SSPCON equ 014h ;# 
  1495                           # 1365 "/Applications/microchip/xc8/v1.12/include/pic16f707.h"
  1496                           CCPR1 equ 015h ;# 
  1497                           # 1371 "/Applications/microchip/xc8/v1.12/include/pic16f707.h"
  1498                           CCPR1L equ 015h ;# 
  1499                           # 1377 "/Applications/microchip/xc8/v1.12/include/pic16f707.h"
  1500                           CCPR1H equ 016h ;# 
  1501                           # 1383 "/Applications/microchip/xc8/v1.12/include/pic16f707.h"
  1502                           CCP1CON equ 017h ;# 
  1503                           # 1446 "/Applications/microchip/xc8/v1.12/include/pic16f707.h"
  1504                           RCSTA equ 018h ;# 
  1505                           # 1507 "/Applications/microchip/xc8/v1.12/include/pic16f707.h"
  1506                           TXREG equ 019h ;# 
  1507                           # 1513 "/Applications/microchip/xc8/v1.12/include/pic16f707.h"
  1508                           RCREG equ 01Ah ;# 
  1509                           # 1519 "/Applications/microchip/xc8/v1.12/include/pic16f707.h"
  1510                           CCPR2 equ 01Bh ;# 
  1511                           # 1525 "/Applications/microchip/xc8/v1.12/include/pic16f707.h"
  1512                           CCPR2L equ 01Bh ;# 
  1513                           # 1531 "/Applications/microchip/xc8/v1.12/include/pic16f707.h"
  1514                           CCPR2H equ 01Ch ;# 
  1515                           # 1537 "/Applications/microchip/xc8/v1.12/include/pic16f707.h"
  1516                           CCP2CON equ 01Dh ;# 
  1517                           # 1600 "/Applications/microchip/xc8/v1.12/include/pic16f707.h"
  1518                           ADRES equ 01Eh ;# 
  1519                           # 1606 "/Applications/microchip/xc8/v1.12/include/pic16f707.h"
  1520                           ADCON0 equ 01Fh ;# 
  1521                           # 1664 "/Applications/microchip/xc8/v1.12/include/pic16f707.h"
  1522                           OPTION_REG equ 081h ;# 
  1523                           # 1746 "/Applications/microchip/xc8/v1.12/include/pic16f707.h"
  1524                           TRISA equ 085h ;# 
  1525                           # 1807 "/Applications/microchip/xc8/v1.12/include/pic16f707.h"
  1526                           TRISB equ 086h ;# 
  1527                           # 1868 "/Applications/microchip/xc8/v1.12/include/pic16f707.h"
  1528                           TRISC equ 087h ;# 
  1529                           # 1929 "/Applications/microchip/xc8/v1.12/include/pic16f707.h"
  1530                           TRISD equ 088h ;# 
  1531                           # 1990 "/Applications/microchip/xc8/v1.12/include/pic16f707.h"
  1532                           TRISE equ 089h ;# 
  1533                           # 2027 "/Applications/microchip/xc8/v1.12/include/pic16f707.h"
  1534                           PIE1 equ 08Ch ;# 
  1535                           # 2088 "/Applications/microchip/xc8/v1.12/include/pic16f707.h"
  1536                           PIE2 equ 08Dh ;# 
  1537                           # 2132 "/Applications/microchip/xc8/v1.12/include/pic16f707.h"
  1538                           PCON equ 08Eh ;# 
  1539                           # 2157 "/Applications/microchip/xc8/v1.12/include/pic16f707.h"
  1540                           T1GCON equ 08Fh ;# 
  1541                           # 2226 "/Applications/microchip/xc8/v1.12/include/pic16f707.h"
  1542                           OSCCON equ 090h ;# 
  1543                           # 2273 "/Applications/microchip/xc8/v1.12/include/pic16f707.h"
  1544                           OSCTUNE equ 091h ;# 
  1545                           # 2292 "/Applications/microchip/xc8/v1.12/include/pic16f707.h"
  1546                           PR2 equ 092h ;# 
  1547                           # 2298 "/Applications/microchip/xc8/v1.12/include/pic16f707.h"
  1548                           SSPADD equ 093h ;# 
  1549                           # 2317 "/Applications/microchip/xc8/v1.12/include/pic16f707.h"
  1550                           SSPMSK equ 093h ;# 
  1551                           # 2336 "/Applications/microchip/xc8/v1.12/include/pic16f707.h"
  1552                           SSPSTAT equ 094h ;# 
  1553                           # 2397 "/Applications/microchip/xc8/v1.12/include/pic16f707.h"
  1554                           WPUB equ 095h ;# 
  1555                           # 2458 "/Applications/microchip/xc8/v1.12/include/pic16f707.h"
  1556                           IOCB equ 096h ;# 
  1557                           # 2519 "/Applications/microchip/xc8/v1.12/include/pic16f707.h"
  1558                           T3CON equ 097h ;# 
  1559                           # 2585 "/Applications/microchip/xc8/v1.12/include/pic16f707.h"
  1560                           TXSTA equ 098h ;# 
  1561                           # 2641 "/Applications/microchip/xc8/v1.12/include/pic16f707.h"
  1562                           SPBRG equ 099h ;# 
  1563                           # 2647 "/Applications/microchip/xc8/v1.12/include/pic16f707.h"
  1564                           TMR3 equ 09Ah ;# 
  1565                           # 2653 "/Applications/microchip/xc8/v1.12/include/pic16f707.h"
  1566                           TMR3L equ 09Ah ;# 
  1567                           # 2659 "/Applications/microchip/xc8/v1.12/include/pic16f707.h"
  1568                           TMR3H equ 09Bh ;# 
  1569                           # 2665 "/Applications/microchip/xc8/v1.12/include/pic16f707.h"
  1570                           APFCON equ 09Ch ;# 
  1571                           # 2690 "/Applications/microchip/xc8/v1.12/include/pic16f707.h"
  1572                           FVRCON equ 09Dh ;# 
  1573                           # 2755 "/Applications/microchip/xc8/v1.12/include/pic16f707.h"
  1574                           T3GCON equ 09Eh ;# 
  1575                           # 2824 "/Applications/microchip/xc8/v1.12/include/pic16f707.h"
  1576                           ADCON1 equ 09Fh ;# 
  1577                           # 2883 "/Applications/microchip/xc8/v1.12/include/pic16f707.h"
  1578                           TACON equ 0105h ;# 
  1579                           # 2993 "/Applications/microchip/xc8/v1.12/include/pic16f707.h"
  1580                           CPSBCON0 equ 0106h ;# 
  1581                           # 3052 "/Applications/microchip/xc8/v1.12/include/pic16f707.h"
  1582                           CPSBCON1 equ 0107h ;# 
  1583                           # 3097 "/Applications/microchip/xc8/v1.12/include/pic16f707.h"
  1584                           CPSACON0 equ 0108h ;# 
  1585                           # 3156 "/Applications/microchip/xc8/v1.12/include/pic16f707.h"
  1586                           CPSACON1 equ 0109h ;# 
  1587                           # 3201 "/Applications/microchip/xc8/v1.12/include/pic16f707.h"
  1588                           PMDATL equ 010Ch ;# 
  1589                           # 3207 "/Applications/microchip/xc8/v1.12/include/pic16f707.h"
  1590                           PMADRL equ 010Dh ;# 
  1591                           # 3213 "/Applications/microchip/xc8/v1.12/include/pic16f707.h"
  1592                           PMDATH equ 010Eh ;# 
  1593                           # 3219 "/Applications/microchip/xc8/v1.12/include/pic16f707.h"
  1594                           PMADRH equ 010Fh ;# 
  1595                           # 3225 "/Applications/microchip/xc8/v1.12/include/pic16f707.h"
  1596                           TMRA equ 0110h ;# 
  1597                           # 3231 "/Applications/microchip/xc8/v1.12/include/pic16f707.h"
  1598                           TBCON equ 0111h ;# 
  1599                           # 3341 "/Applications/microchip/xc8/v1.12/include/pic16f707.h"
  1600                           TMRB equ 0112h ;# 
  1601                           # 3347 "/Applications/microchip/xc8/v1.12/include/pic16f707.h"
  1602                           DACCON0 equ 0113h ;# 
  1603                           # 3401 "/Applications/microchip/xc8/v1.12/include/pic16f707.h"
  1604                           DACCON1 equ 0114h ;# 
  1605                           # 3452 "/Applications/microchip/xc8/v1.12/include/pic16f707.h"
  1606                           ANSELA equ 0185h ;# 
  1607                           # 3521 "/Applications/microchip/xc8/v1.12/include/pic16f707.h"
  1608                           ANSELB equ 0186h ;# 
  1609                           # 3590 "/Applications/microchip/xc8/v1.12/include/pic16f707.h"
  1610                           ANSELC equ 0187h ;# 
  1611                           # 3648 "/Applications/microchip/xc8/v1.12/include/pic16f707.h"
  1612                           ANSELD equ 0188h ;# 
  1613                           # 3717 "/Applications/microchip/xc8/v1.12/include/pic16f707.h"
  1614                           ANSELE equ 0189h ;# 
  1615                           # 3756 "/Applications/microchip/xc8/v1.12/include/pic16f707.h"
  1616                           PMCON1 equ 018Ch ;# 
  1617                           	FNCALL	_main,_spiInit
  1618                           	FNCALL	_main,_uartInit
  1619                           	FNCALL	_main,_adcInit
  1620                           	FNCALL	_main,_rfm70setPowerdownMode
  1621  0683                     __pmaintext:	;psect for function _main
  1622                           opt subtitle "HI-TECH Software Omniscient Code Generator (Lite mode) build 49521"
  1623                           
  1624                           opt pagewidth 120
  1625                           
  1626  012F                     	__size_of_main	equ	__end_of_main-_main
  1627                           opt subtitle "HI-TECH Software Omniscient Code Generator (Lite mode) build 49521"
  1628  0683                     _main:	
  1629                           opt subtitle "HI-TECH Software Omniscient Code Generator (Lite mode) build 49521"
  1630                           
  1631                           opt pagewidth 120
  1632                           
  1633  0683                     l2580:	
  1634                           opt subtitle "HI-TECH Software Omniscient Code Generator (Lite mode) build 49521"
  1635  0683  3000               	movlw	0
  1636  0684  1683               	bsf	status, 5	;RP0=1, select bank1
  1637  0685  1303               	bcf	status, 6	;RP1=0, select bank1
  1638  0686  00CA               	movwf	(main@i+3)^080h
  1639  0687  3000               	movlw	0
  1640  0688  00C9               	movwf	(main@i+2)^080h
  1641  0689  3000               	movlw	0
  1642  068A  00C8               	movwf	(main@i+1)^080h
  1643  068B  3000               	movlw	0
  1644  068C  00C7               	movwf	(main@i)^080h
  1645                           opt subtitle "HI-TECH Software Omniscient Code Generator (Lite mode) build 49521"
  1646                           
  1647                           opt pagewidth 120
  1648  068D                     l2582:	
  1649                           opt subtitle "HI-TECH Software Omniscient Code Generator (Lite mode) build 49521"
  1650                           
  1651                           opt pagewidth 120
  1652  068D  0810               	movf	(144)^080h,w	;volatile
  1653  068E  39CF               	andlw	not (((1<<2)-1)<<4)
  1654  068F  3820               	iorlw	(02h & ((1<<2)-1))<<4
  1655  0690  0090               	movwf	(144)^080h	;volatile
  1656                           opt subtitle "HI-TECH Software Omniscient Code Generator (Lite mode) build 49521"
  1657                           
  1658  0691                     l2584:	
  1659                           opt subtitle "HI-TECH Software Omniscient Code Generator (Lite mode) build 49521"
  1660  0691  1683               	bsf	status, 5	;RP0=1, select bank3
  1661  0692  1703               	bsf	status, 6	;RP1=1, select bank3
  1662  0693  1008               	bcf	(392)^0180h,0	;volatile
  1663                           opt subtitle "HI-TECH Software Omniscient Code Generator (Lite mode) build 49521"
  1664                           
  1665  0694                     l2586:	
  1666                           opt subtitle "HI-TECH Software Omniscient Code Generator (Lite mode) build 49521"
  1667  0694  1307               	bcf	(391)^0180h,6	;volatile
  1668                           opt subtitle "HI-TECH Software Omniscient Code Generator (Lite mode) build 49521"
  1669                           
  1670  0695                     l2588:	
  1671                           opt subtitle "HI-TECH Software Omniscient Code Generator (Lite mode) build 49521"
  1672  0695  1387               	bcf	(391)^0180h,7	;volatile
  1673                           opt subtitle "HI-TECH Software Omniscient Code Generator (Lite mode) build 49521"
  1674                           
  1675  0696                     l2590:	
  1676                           opt subtitle "HI-TECH Software Omniscient Code Generator (Lite mode) build 49521"
  1677  0696  1683               	bsf	status, 5	;RP0=1, select bank1
  1678  0697  1303               	bcf	status, 6	;RP1=0, select bank1
  1679  0698  1008               	bcf	(136)^080h,0	;volatile
  1680                           opt subtitle "HI-TECH Software Omniscient Code Generator (Lite mode) build 49521"
  1681                           
  1682  0699                     l2592:	
  1683                           opt subtitle "HI-TECH Software Omniscient Code Generator (Lite mode) build 49521"
  1684  0699  1283               	bcf	status, 5	;RP0=0, select bank0
  1685  069A  1303               	bcf	status, 6	;RP1=0, select bank0
  1686  069B  1008               	bcf	(8),0	;volatile
  1687                           opt subtitle "HI-TECH Software Omniscient Code Generator (Lite mode) build 49521"
  1688                           
  1689  069C                     l2594:	
  1690                           opt subtitle "HI-TECH Software Omniscient Code Generator (Lite mode) build 49521"
  1691  069C  1683               	bsf	status, 5	;RP0=1, select bank1
  1692  069D  1303               	bcf	status, 6	;RP1=0, select bank1
  1693  069E  1307               	bcf	(135)^080h,6	;volatile
  1694                           opt subtitle "HI-TECH Software Omniscient Code Generator (Lite mode) build 49521"
  1695                           
  1696  069F                     l2596:	
  1697                           opt subtitle "HI-TECH Software Omniscient Code Generator (Lite mode) build 49521"
  1698  069F  1683               	bsf	status, 5	;RP0=1, select bank3
  1699  06A0  1703               	bsf	status, 6	;RP1=1, select bank3
  1700  06A1  1107               	bcf	(391)^0180h,2	;volatile
  1701                           opt subtitle "HI-TECH Software Omniscient Code Generator (Lite mode) build 49521"
  1702                           
  1703  06A2                     l2598:	
  1704                           opt subtitle "HI-TECH Software Omniscient Code Generator (Lite mode) build 49521"
  1705  06A2  1108               	bcf	(392)^0180h,2	;volatile
  1706                           opt subtitle "HI-TECH Software Omniscient Code Generator (Lite mode) build 49521"
  1707                           
  1708  06A3                     l2600:	
  1709                           opt subtitle "HI-TECH Software Omniscient Code Generator (Lite mode) build 49521"
  1710  06A3  1287               	bcf	(391)^0180h,5	;volatile
  1711                           opt subtitle "HI-TECH Software Omniscient Code Generator (Lite mode) build 49521"
  1712                           
  1713  06A4                     l2602:	
  1714                           opt subtitle "HI-TECH Software Omniscient Code Generator (Lite mode) build 49521"
  1715  06A4  1088               	bcf	(392)^0180h,1	;volatile
  1716                           opt subtitle "HI-TECH Software Omniscient Code Generator (Lite mode) build 49521"
  1717                           
  1718  06A5                     l2604:	
  1719                           opt subtitle "HI-TECH Software Omniscient Code Generator (Lite mode) build 49521"
  1720  06A5  1683               	bsf	status, 5	;RP0=1, select bank1
  1721  06A6  1303               	bcf	status, 6	;RP1=0, select bank1
  1722  06A7  1509               	bsf	(137)^080h,2	;volatile
  1723                           opt subtitle "HI-TECH Software Omniscient Code Generator (Lite mode) build 49521"
  1724                           
  1725  06A8                     l2606:	
  1726                           opt subtitle "HI-TECH Software Omniscient Code Generator (Lite mode) build 49521"
  1727  06A8  1683               	bsf	status, 5	;RP0=1, select bank3
  1728  06A9  1703               	bsf	status, 6	;RP1=1, select bank3
  1729  06AA  1509               	bsf	(393)^0180h,2	;volatile
  1730                           opt subtitle "HI-TECH Software Omniscient Code Generator (Lite mode) build 49521"
  1731                           
  1732  06AB                     l2608:	
  1733                           opt subtitle "HI-TECH Software Omniscient Code Generator (Lite mode) build 49521"
  1734  06AB  1683               	bsf	status, 5	;RP0=1, select bank1
  1735  06AC  1303               	bcf	status, 6	;RP1=0, select bank1
  1736  06AD  1107               	bcf	(135)^080h,2	;volatile
  1737                           opt subtitle "HI-TECH Software Omniscient Code Generator (Lite mode) build 49521"
  1738                           
  1739  06AE                     l2610:	
  1740                           opt subtitle "HI-TECH Software Omniscient Code Generator (Lite mode) build 49521"
  1741  06AE  1108               	bcf	(136)^080h,2	;volatile
  1742                           opt subtitle "HI-TECH Software Omniscient Code Generator (Lite mode) build 49521"
  1743                           
  1744  06AF                     l2612:	
  1745                           opt subtitle "HI-TECH Software Omniscient Code Generator (Lite mode) build 49521"
  1746  06AF  1187               	bcf	(135)^080h,3	;volatile
  1747                           opt subtitle "HI-TECH Software Omniscient Code Generator (Lite mode) build 49521"
  1748                           
  1749  06B0                     l2614:	
  1750                           opt subtitle "HI-TECH Software Omniscient Code Generator (Lite mode) build 49521"
  1751  06B0  1287               	bcf	(135)^080h,5	;volatile
  1752                           opt subtitle "HI-TECH Software Omniscient Code Generator (Lite mode) build 49521"
  1753                           
  1754  06B1                     l2616:	
  1755                           opt subtitle "HI-TECH Software Omniscient Code Generator (Lite mode) build 49521"
  1756  06B1  1607               	bsf	(135)^080h,4	;volatile
  1757                           opt subtitle "HI-TECH Software Omniscient Code Generator (Lite mode) build 49521"
  1758                           
  1759  06B2                     l2618:	
  1760                           opt subtitle "HI-TECH Software Omniscient Code Generator (Lite mode) build 49521"
  1761  06B2  1488               	bsf	(136)^080h,1	;volatile
  1762                           opt subtitle "HI-TECH Software Omniscient Code Generator (Lite mode) build 49521"
  1763                           
  1764  06B3                     l2620:	
  1765                           opt subtitle "HI-TECH Software Omniscient Code Generator (Lite mode) build 49521"
  1766  06B3  1283               	bcf	status, 5	;RP0=0, select bank0
  1767  06B4  1303               	bcf	status, 6	;RP1=0, select bank0
  1768  06B5  1107               	bcf	(7),2	;volatile
  1769                           opt subtitle "HI-TECH Software Omniscient Code Generator (Lite mode) build 49521"
  1770                           
  1771  06B6                     l2622:	
  1772                           opt subtitle "HI-TECH Software Omniscient Code Generator (Lite mode) build 49521"
  1773  06B6  178B               	bsf	(95/8),(95)&7	;volatile
  1774                           opt subtitle "HI-TECH Software Omniscient Code Generator (Lite mode) build 49521"
  1775                           
  1776  06B7                     l2624:	
  1777                           opt subtitle "HI-TECH Software Omniscient Code Generator (Lite mode) build 49521"
  1778  06B7  170B               	bsf	(94/8),(94)&7	;volatile
  1779                           opt subtitle "HI-TECH Software Omniscient Code Generator (Lite mode) build 49521"
  1780                           
  1781  06B8                     l2626:	
  1782                           opt subtitle "HI-TECH Software Omniscient Code Generator (Lite mode) build 49521"
  1783  06B8  1683               	bsf	status, 5	;RP0=1, select bank1
  1784  06B9  1303               	bcf	status, 6	;RP1=0, select bank1
  1785  06BA  140C               	bsf	(1120/8)^080h,(1120)&7	;volatile
  1786                           opt subtitle "HI-TECH Software Omniscient Code Generator (Lite mode) build 49521"
  1787                           
  1788  06BB                     l2628:	
  1789                           opt subtitle "HI-TECH Software Omniscient Code Generator (Lite mode) build 49521"
  1790  06BB  1283               	bcf	status, 5	;RP0=0, select bank0
  1791  06BC  1303               	bcf	status, 6	;RP1=0, select bank0
  1792  06BD  1408               	bsf	(8),0	;volatile
  1793                           opt subtitle "HI-TECH Software Omniscient Code Generator (Lite mode) build 49521"
  1794                           
  1795  06BE                     l2630:	
  1796                           opt subtitle "HI-TECH Software Omniscient Code Generator (Lite mode) build 49521"
  1797                           
  1798  06BE  3002               movlw  2
  1799  06BF  1683               	bsf	status, 5	;RP0=1, select bank1
  1800  06C0  1303               	bcf	status, 6	;RP1=0, select bank1
  1801  06C1  00A6               movwf	((??_main+0)^080h+0+2),f
  1802  06C2  3004               movlw	4
  1803  06C3  00A5               movwf	((??_main+0)^080h+0+1),f
  1804  06C4  30BA               	movlw	186
  1805  06C5  00A4               movwf	((??_main+0)^080h+0),f
  1806  06C6                     u2487:
  1807  06C6  0BA4               	decfsz	((??_main+0)^080h+0),f
  1808  06C7  2EC6               	goto	u2487
  1809  06C8  0BA5               	decfsz	((??_main+0)^080h+0+1),f
  1810  06C9  2EC6               	goto	u2487
  1811  06CA  0BA6               	decfsz	((??_main+0)^080h+0+2),f
  1812  06CB  2EC6               	goto	u2487
  1813  06CC  0000               	nop
  1814                           opt subtitle "HI-TECH Software Omniscient Code Generator (Lite mode) build 49521"
  1815                           
  1816                           opt pagewidth 120
  1817                           
  1818  06CD                     l2632:	
  1819                           opt subtitle "HI-TECH Software Omniscient Code Generator (Lite mode) build 49521"
  1820  06CD  1283               	bcf	status, 5	;RP0=0, select bank0
  1821  06CE  1303               	bcf	status, 6	;RP1=0, select bank0
  1822  06CF  1008               	bcf	(8),0	;volatile
  1823                           opt subtitle "HI-TECH Software Omniscient Code Generator (Lite mode) build 49521"
  1824                           
  1825  06D0                     l2634:	
  1826                           opt subtitle "HI-TECH Software Omniscient Code Generator (Lite mode) build 49521"
  1827                           
  1828  06D0  3002               movlw  2
  1829  06D1  1683               	bsf	status, 5	;RP0=1, select bank1
  1830  06D2  1303               	bcf	status, 6	;RP1=0, select bank1
  1831  06D3  00A6               movwf	((??_main+0)^080h+0+2),f
  1832  06D4  3004               movlw	4
  1833  06D5  00A5               movwf	((??_main+0)^080h+0+1),f
  1834  06D6  30BA               	movlw	186
  1835  06D7  00A4               movwf	((??_main+0)^080h+0),f
  1836  06D8                     u2497:
  1837  06D8  0BA4               	decfsz	((??_main+0)^080h+0),f
  1838  06D9  2ED8               	goto	u2497
  1839  06DA  0BA5               	decfsz	((??_main+0)^080h+0+1),f
  1840  06DB  2ED8               	goto	u2497
  1841  06DC  0BA6               	decfsz	((??_main+0)^080h+0+2),f
  1842  06DD  2ED8               	goto	u2497
  1843  06DE  0000               	nop
  1844                           opt subtitle "HI-TECH Software Omniscient Code Generator (Lite mode) build 49521"
  1845                           
  1846                           opt pagewidth 120
  1847                           
  1848  06DF                     l2636:	
  1849                           opt subtitle "HI-TECH Software Omniscient Code Generator (Lite mode) build 49521"
  1850  06DF  1283               	bcf	status, 5	;RP0=0, select bank0
  1851  06E0  1303               	bcf	status, 6	;RP1=0, select bank0
  1852  06E1  018F               	clrf	(15)	;volatile
  1853                           opt subtitle "HI-TECH Software Omniscient Code Generator (Lite mode) build 49521"
  1854                           
  1855  06E2                     l2638:	
  1856                           opt subtitle "HI-TECH Software Omniscient Code Generator (Lite mode) build 49521"
  1857  06E2  018E               	clrf	(14)	;volatile
  1858                           opt subtitle "HI-TECH Software Omniscient Code Generator (Lite mode) build 49521"
  1859                           
  1860  06E3                     l2640:	
  1861                           opt subtitle "HI-TECH Software Omniscient Code Generator (Lite mode) build 49521"
  1862  06E3  0810               	movf	(16),w	;volatile
  1863  06E4  393F               	andlw	not (((1<<2)-1)<<6)
  1864  06E5  3880               	iorlw	(02h & ((1<<2)-1))<<6
  1865  06E6  0090               	movwf	(16)	;volatile
  1866                           opt subtitle "HI-TECH Software Omniscient Code Generator (Lite mode) build 49521"
  1867                           
  1868  06E7                     l2642:	
  1869                           opt subtitle "HI-TECH Software Omniscient Code Generator (Lite mode) build 49521"
  1870  06E7  3030               	movlw	(03h & ((1<<2)-1))<<4
  1871  06E8  0490               	iorwf	(16),f	;volatile
  1872                           opt subtitle "HI-TECH Software Omniscient Code Generator (Lite mode) build 49521"
  1873                           
  1874  06E9                     l2644:	
  1875                           opt subtitle "HI-TECH Software Omniscient Code Generator (Lite mode) build 49521"
  1876  06E9  1683               	bsf	status, 5	;RP0=1, select bank1
  1877  06EA  1303               	bcf	status, 6	;RP1=0, select bank1
  1878  06EB  178F               	bsf	(143)^080h,7	;volatile
  1879                           opt subtitle "HI-TECH Software Omniscient Code Generator (Lite mode) build 49521"
  1880                           
  1881  06EC                     l2646:	
  1882                           opt subtitle "HI-TECH Software Omniscient Code Generator (Lite mode) build 49521"
  1883  06EC  1283               	bcf	status, 5	;RP0=0, select bank0
  1884  06ED  1303               	bcf	status, 6	;RP1=0, select bank0
  1885  06EE  1510               	bsf	(16),2	;volatile
  1886                           opt subtitle "HI-TECH Software Omniscient Code Generator (Lite mode) build 49521"
  1887                           
  1888  06EF                     l2648:	
  1889                           opt subtitle "HI-TECH Software Omniscient Code Generator (Lite mode) build 49521"
  1890  06EF  1590               	bsf	(16),3	;volatile
  1891                           opt subtitle "HI-TECH Software Omniscient Code Generator (Lite mode) build 49521"
  1892                           
  1893  06F0                     l2650:	
  1894                           opt subtitle "HI-TECH Software Omniscient Code Generator (Lite mode) build 49521"
  1895  06F0  1410               	bsf	(16),0	;volatile
  1896                           opt subtitle "HI-TECH Software Omniscient Code Generator (Lite mode) build 49521"
  1897                           
  1898  06F1                     l2652:	
  1899                           opt subtitle "HI-TECH Software Omniscient Code Generator (Lite mode) build 49521"
  1900  06F1  120A  158A  24B1   	fcall	_spiInit
              120A  118A         
  1901                           opt subtitle "HI-TECH Software Omniscient Code Generator (Lite mode) build 49521"
  1902                           
  1903  06F6                     l2654:	
  1904                           opt subtitle "HI-TECH Software Omniscient Code Generator (Lite mode) build 49521"
  1905  06F6  120A  158A  2485   	fcall	_uartInit
              120A  118A         
  1906                           opt subtitle "HI-TECH Software Omniscient Code Generator (Lite mode) build 49521"
  1907                           
  1908  06FB                     l2656:	
  1909                           opt subtitle "HI-TECH Software Omniscient Code Generator (Lite mode) build 49521"
  1910  06FB  120A  158A  2451   	fcall	_adcInit
              120A  118A         
  1911                           opt subtitle "HI-TECH Software Omniscient Code Generator (Lite mode) build 49521"
  1912                           
  1913  0700                     l2658:	
  1914                           opt subtitle "HI-TECH Software Omniscient Code Generator (Lite mode) build 49521"
  1915  0700  3000               	movlw	(0)
  1916  0701  120A  158A  2544   	fcall	_rfm70setPowerdownMode
              120A  118A         
  1917                           opt subtitle "HI-TECH Software Omniscient Code Generator (Lite mode) build 49521"
  1918                           
  1919  0706                     l2660:	
  1920                           opt subtitle "HI-TECH Software Omniscient Code Generator (Lite mode) build 49521"
  1921  0706  120A  158A  245E   	fcall	_adcRead
              120A  118A         
  1922                           opt subtitle "HI-TECH Software Omniscient Code Generator (Lite mode) build 49521"
  1923                           
  1924  070B                     l2662:	
  1925                           opt subtitle "HI-TECH Software Omniscient Code Generator (Lite mode) build 49521"
  1926  070B  30F0               	movlw	low(STR_2|8000h)
  1927  070C  1283               	bcf	status, 5	;RP0=0, select bank0
  1928  070D  1303               	bcf	status, 6	;RP1=0, select bank0
  1929  070E  00C1               	movwf	(?_printf)
  1930  070F  3088               	movlw	high(STR_2|8000h)
  1931  0710  00C2               	movwf	((?_printf))+1
  1932  0711  120A  158A  245E   	fcall	_adcRead
              120A  118A         
  1933  0716  1683               	bsf	status, 5	;RP0=1, select bank1
  1934  0717  1303               	bcf	status, 6	;RP1=0, select bank1
  1935  0718  00A4               	movwf	(??_main+0)^080h+0+0
  1936  0719  01A5               	clrf	(??_main+0)^080h+0+1
  1937  071A  0824               	movf	0+(??_main+0)^080h+0,w
  1938  071B  1283               	bcf	status, 5	;RP0=0, select bank0
  1939  071C  1303               	bcf	status, 6	;RP1=0, select bank0
  1940  071D  00C3               	movwf	0+(?_printf)+02h
  1941  071E  1683               	bsf	status, 5	;RP0=1, select bank1
  1942  071F  1303               	bcf	status, 6	;RP1=0, select bank1
  1943  0720  0825               	movf	1+(??_main+0)^080h+0,w
  1944  0721  1283               	bcf	status, 5	;RP0=0, select bank0
  1945  0722  1303               	bcf	status, 6	;RP1=0, select bank0
  1946  0723  00C4               	movwf	1+(?_printf)+02h
  1947  0724  120A  118A  2325   	fcall	_printf
              120A  118A         
  1948                           opt subtitle "HI-TECH Software Omniscient Code Generator (Lite mode) build 49521"
  1949                           
  1950  0729                     l2664:	
  1951                           opt subtitle "HI-TECH Software Omniscient Code Generator (Lite mode) build 49521"
  1952  0729  120A  118A  2015   	fcall	_RFM70_Initialize
              120A  118A         
  1953  072E  2F2F               	goto	l2666
  1954                           opt subtitle "HI-TECH Software Omniscient Code Generator (Lite mode) build 49521"
  1955                           
  1956                           opt pagewidth 120
  1957  072F                     l114:	
  1958                           opt subtitle "HI-TECH Software Omniscient Code Generator (Lite mode) build 49521"
  1959                           
  1960  072F                     l2666:	
  1961                           opt subtitle "HI-TECH Software Omniscient Code Generator (Lite mode) build 49521"
  1962                           
  1963  072F  3002               movlw  2
  1964  0730  1683               	bsf	status, 5	;RP0=1, select bank1
  1965  0731  1303               	bcf	status, 6	;RP1=0, select bank1
  1966  0732  00A6               movwf	((??_main+0)^080h+0+2),f
  1967  0733  3004               movlw	4
  1968  0734  00A5               movwf	((??_main+0)^080h+0+1),f
  1969  0735  30BA               	movlw	186
  1970  0736  00A4               movwf	((??_main+0)^080h+0),f
  1971  0737                     u2507:
  1972  0737  0BA4               	decfsz	((??_main+0)^080h+0),f
  1973  0738  2F37               	goto	u2507
  1974  0739  0BA5               	decfsz	((??_main+0)^080h+0+1),f
  1975  073A  2F37               	goto	u2507
  1976  073B  0BA6               	decfsz	((??_main+0)^080h+0+2),f
  1977  073C  2F37               	goto	u2507
  1978  073D  0000               	nop
  1979                           opt subtitle "HI-TECH Software Omniscient Code Generator (Lite mode) build 49521"
  1980                           
  1981                           opt pagewidth 120
  1982                           
  1983  073E                     l2668:	
  1984                           opt subtitle "HI-TECH Software Omniscient Code Generator (Lite mode) build 49521"
  1985  073E  3000               	movlw	0
  1986  073F  1683               	bsf	status, 5	;RP0=1, select bank1
  1987  0740  1303               	bcf	status, 6	;RP1=0, select bank1
  1988  0741  00CA               	movwf	(main@i+3)^080h
  1989  0742  3000               	movlw	0
  1990  0743  00C9               	movwf	(main@i+2)^080h
  1991  0744  3000               	movlw	0
  1992  0745  00C8               	movwf	(main@i+1)^080h
  1993  0746  3000               	movlw	0
  1994  0747  00C7               	movwf	(main@i)^080h
  1995                           opt subtitle "HI-TECH Software Omniscient Code Generator (Lite mode) build 49521"
  1996                           
  1997  0748                     l2670:	
  1998  0748  084A               	movf	(main@i+3)^080h,w
  1999  0749  3A80               	xorlw	80h
  2000  074A  00FF               	movwf	btemp+1
  2001  074B  3000               	movlw	0
  2002  074C  3A80               	xorlw	80h
  2003  074D  027F               	subwf	btemp+1,w
  2004                           opt subtitle "HI-TECH Software Omniscient Code Generator (Lite mode) build 49521"
  2005  074E  1D03               	skipz
  2006  074F  2F5A               	goto	u2463
  2007  0750  3000               	movlw	0
  2008  0751  0249               	subwf	(main@i+2)^080h,w
  2009  0752  1D03               	skipz
  2010  0753  2F5A               	goto	u2463
  2011  0754  3000               	movlw	0
  2012  0755  0248               	subwf	(main@i+1)^080h,w
  2013  0756  1D03               	skipz
  2014  0757  2F5A               	goto	u2463
  2015  0758  3001               	movlw	01h
  2016  0759  0247               	subwf	(main@i)^080h,w
  2017  075A                     u2463:
  2018  075A  1C03               	skipc
  2019  075B  2F5D               	goto	u2461
  2020  075C  2F5E               	goto	u2460
  2021  075D                     u2461:
  2022  075D  2F60               	goto	l2674
  2023  075E                     u2460:
  2024  075E  2F90               	goto	l2680
  2025                           opt subtitle "HI-TECH Software Omniscient Code Generator (Lite mode) build 49521"
  2026  075F                     l2672:	
  2027  075F  2F90               	goto	l2680
  2028                           opt subtitle "HI-TECH Software Omniscient Code Generator (Lite mode) build 49521"
  2029  0760                     l115:	
  2030                           opt subtitle "HI-TECH Software Omniscient Code Generator (Lite mode) build 49521"
  2031                           
  2032  0760                     l2674:	
  2033                           opt subtitle "HI-TECH Software Omniscient Code Generator (Lite mode) build 49521"
  2034  0760  0847               	movf	(main@i)^080h,w
  2035  0761  3E5A               	addlw	_tx_buf&0ffh
  2036  0762  0084               	movwf	fsr0
  2037  0763  1383               	bcf	status, 7	;select IRP bank0
  2038  0764  0800               	movf	indf,w
  2039  0765  00A4               	movwf	(??_main+0)^080h+0
  2040  0766  0847               	movf	(main@i)^080h,w
  2041  0767  3EA7               	addlw	main@temp_tx_buf&0ffh
  2042  0768  0084               	movwf	fsr0
  2043  0769  0824               	movf	(??_main+0)^080h+0,w
  2044  076A  0080               	movwf	indf
  2045                           opt subtitle "HI-TECH Software Omniscient Code Generator (Lite mode) build 49521"
  2046                           
  2047  076B                     l2676:	
  2048  076B  3001               	movlw	01h
  2049  076C  07C7               	addwf	(main@i)^080h,f
  2050  076D  3000               	movlw	0
  2051  076E  1803               	skipnc
  2052  076F  3001               movlw 1
  2053  0770  07C8               	addwf	(main@i+1)^080h,f
  2054  0771  3000               	movlw	0
  2055  0772  1803               	skipnc
  2056  0773  3001               movlw 1
  2057  0774  07C9               	addwf	(main@i+2)^080h,f
  2058  0775  3000               	movlw	0
  2059  0776  1803               	skipnc
  2060  0777  3001               movlw 1
  2061  0778  07CA               	addwf	(main@i+3)^080h,f
  2062                           opt subtitle "HI-TECH Software Omniscient Code Generator (Lite mode) build 49521"
  2063  0779                     l2678:	
  2064  0779  084A               	movf	(main@i+3)^080h,w
  2065  077A  3A80               	xorlw	80h
  2066  077B  00FF               	movwf	btemp+1
  2067  077C  3000               	movlw	0
  2068  077D  3A80               	xorlw	80h
  2069  077E  027F               	subwf	btemp+1,w
  2070                           opt subtitle "HI-TECH Software Omniscient Code Generator (Lite mode) build 49521"
  2071  077F  1D03               	skipz
  2072  0780  2F8B               	goto	u2473
  2073  0781  3000               	movlw	0
  2074  0782  0249               	subwf	(main@i+2)^080h,w
  2075  0783  1D03               	skipz
  2076  0784  2F8B               	goto	u2473
  2077  0785  3000               	movlw	0
  2078  0786  0248               	subwf	(main@i+1)^080h,w
  2079  0787  1D03               	skipz
  2080  0788  2F8B               	goto	u2473
  2081  0789  3001               	movlw	01h
  2082  078A  0247               	subwf	(main@i)^080h,w
  2083  078B                     u2473:
  2084  078B  1C03               	skipc
  2085  078C  2F8E               	goto	u2471
  2086  078D  2F8F               	goto	u2470
  2087  078E                     u2471:
  2088  078E  2F60               	goto	l2674
  2089  078F                     u2470:
  2090  078F  2F90               	goto	l2680
  2091                           opt subtitle "HI-TECH Software Omniscient Code Generator (Lite mode) build 49521"
  2092  0790                     l116:	
  2093                           opt subtitle "HI-TECH Software Omniscient Code Generator (Lite mode) build 49521"
  2094                           
  2095  0790                     l2680:	
  2096                           opt subtitle "HI-TECH Software Omniscient Code Generator (Lite mode) build 49521"
  2097                           
  2098  0790  305A               	movlw	(_tx_buf)&0ffh
  2099  0791  00A4               	movwf	(??_main+0)^080h+0
  2100  0792  0824               	movf	(??_main+0)^080h+0,w
  2101  0793  1283               	bcf	status, 5	;RP0=0, select bank0
  2102  0794  1303               	bcf	status, 6	;RP1=0, select bank0
  2103  0795  00D1               	movwf	(?_Send_Packet)
  2104  0796  01D2               	clrf	0+(?_Send_Packet)+01h
  2105  0797  0AD2               	incf	0+(?_Send_Packet)+01h,f
  2106  0798  30B0               	movlw	(0B0h)
  2107  0799  120A  158A  2731   	fcall	_Send_Packet
              120A  118A         
  2108                           opt subtitle "HI-TECH Software Omniscient Code Generator (Lite mode) build 49521"
  2109                           
  2110  079E                     l2682:	
  2111                           opt subtitle "HI-TECH Software Omniscient Code Generator (Lite mode) build 49521"
  2112  079E  3001               	movlw	(01h)
  2113  079F  1683               	bsf	status, 5	;RP0=1, select bank1
  2114  07A0  1303               	bcf	status, 6	;RP1=0, select bank1
  2115  07A1  00A4               	movwf	(??_main+0)^080h+0
  2116  07A2  0824               	movf	(??_main+0)^080h+0,w
  2117  07A3  1283               	bcf	status, 5	;RP0=0, select bank0
  2118  07A4  1303               	bcf	status, 6	;RP1=0, select bank0
  2119  07A5  07DA               	addwf	(_tx_buf),f
  2120                           opt subtitle "HI-TECH Software Omniscient Code Generator (Lite mode) build 49521"
  2121                           
  2122  07A6                     l2684:	
  2123                           opt subtitle "HI-TECH Software Omniscient Code Generator (Lite mode) build 49521"
  2124  07A6  1107               	bcf	(7),2	;volatile
  2125                           opt subtitle "HI-TECH Software Omniscient Code Generator (Lite mode) build 49521"
  2126                           
  2127  07A7                     l2686:	
  2128                           opt subtitle "HI-TECH Software Omniscient Code Generator (Lite mode) build 49521"
  2129  07A7  1010               	bcf	(16),0	;volatile
  2130                           opt subtitle "HI-TECH Software Omniscient Code Generator (Lite mode) build 49521"
  2131                           
  2132  07A8                     l2688:	
  2133                           opt subtitle "HI-TECH Software Omniscient Code Generator (Lite mode) build 49521"
  2134  07A8  30F0               	movlw	(0F0h)
  2135  07A9  008F               	movwf	(15)	;volatile
  2136                           opt subtitle "HI-TECH Software Omniscient Code Generator (Lite mode) build 49521"
  2137                           
  2138  07AA                     l2690:	
  2139                           opt subtitle "HI-TECH Software Omniscient Code Generator (Lite mode) build 49521"
  2140  07AA  018E               	clrf	(14)	;volatile
  2141                           opt subtitle "HI-TECH Software Omniscient Code Generator (Lite mode) build 49521"
  2142                           
  2143  07AB                     l2692:	
  2144                           opt subtitle "HI-TECH Software Omniscient Code Generator (Lite mode) build 49521"
  2145  07AB  1410               	bsf	(16),0	;volatile
  2146                           opt subtitle "HI-TECH Software Omniscient Code Generator (Lite mode) build 49521"
  2147                           
  2148  07AC  0063               sleep ;# 
  2149                           opt subtitle "HI-TECH Software Omniscient Code Generator (Lite mode) build 49521"
  2150  07AD  2F2F               	goto	l2666
  2151                           opt subtitle "HI-TECH Software Omniscient Code Generator (Lite mode) build 49521"
  2152                           
  2153  07AE                     l117:	
  2154                           opt subtitle "HI-TECH Software Omniscient Code Generator (Lite mode) build 49521"
  2155  07AE  2F2F               	goto	l2666
  2156                           opt subtitle "HI-TECH Software Omniscient Code Generator (Lite mode) build 49521"
  2157  07AF                     l118:	
  2158                           opt subtitle "HI-TECH Software Omniscient Code Generator (Lite mode) build 49521"
  2159                           
  2160                           opt pagewidth 120
  2161                           
  2162                           	opt lm
  2163  07AF                     l119:	
  2164                           opt subtitle "HI-TECH Software Omniscient Code Generator (Lite mode) build 49521"
  2165  07AF  120A  118A  2812   	ljmp	start
  2166                           opt subtitle "HI-TECH Software Omniscient Code Generator (Lite mode) build 49521"
  2167                           
  2168  07B2                     	__end_of_main:
  2169                           opt subtitle "HI-TECH Software Omniscient Code Generator (Lite mode) build 49521"
  2170                           
  2171                           opt pagewidth 120
  2172                           
  2173                           	opt lm
  2174                           
  2175                           	processor	16F707
  2176                           clrc	macro
  2177                           	bcf	3,0
  2178                           	endm
  2179                           clrz	macro
  2180                           	bcf	3,2
  2181                           	endm
  2182                           setc	macro
  2183                           	bsf	3,0
  2184                           	endm
  2185                           setz	macro
  2186                           	bsf	3,2
  2187                           	endm
  2188                           skipc	macro
  2189                           	btfss	3,0
  2190                           	endm
  2191                           skipz	macro
  2192                           	btfss	3,2
  2193                           	endm
  2194                           skipnc	macro
  2195                           	btfsc	3,0
  2196                           	endm
  2197                           skipnz	macro
  2198                           	btfsc	3,2
  2199                           	endm
  2200                           indf	equ	0
  2201                           indf0	equ	0
  2202                           pc	equ	2
  2203  0CB1                     __ptext855:	;psect for function _spiInit
  2204                           opt subtitle "HI-TECH Software Omniscient Code Generator (Lite mode) build 49521"
  2205                           
  2206                           opt pagewidth 120
  2207                           
  2208  0018                     	__size_of_spiInit	equ	__end_of_spiInit-_spiInit
  2209                           opt subtitle "HI-TECH Software Omniscient Code Generator (Lite mode) build 49521"
  2210  0CB1                     _spiInit:	
  2211                           opt subtitle "HI-TECH Software Omniscient Code Generator (Lite mode) build 49521"
  2212                           
  2213                           opt pagewidth 120
  2214                           
  2215  0CB1                     l1960:	
  2216                           opt subtitle "HI-TECH Software Omniscient Code Generator (Lite mode) build 49521"
  2217  0CB1  1283               	bcf	status, 5	;RP0=0, select bank0
  2218  0CB2  1303               	bcf	status, 6	;RP1=0, select bank0
  2219  0CB3  1694               	bsf	(20),5	;volatile
  2220                           opt subtitle "HI-TECH Software Omniscient Code Generator (Lite mode) build 49521"
  2221                           
  2222  0CB4  1214               	bcf	(20),4	;volatile
  2223                           opt subtitle "HI-TECH Software Omniscient Code Generator (Lite mode) build 49521"
  2224                           
  2225  0CB5                     l1962:	
  2226                           opt subtitle "HI-TECH Software Omniscient Code Generator (Lite mode) build 49521"
  2227  0CB5  0814               	movf	(20),w	;volatile
  2228  0CB6  39F0               	andlw	not (((1<<4)-1)<<0)
  2229  0CB7  3802               	iorlw	(02h & ((1<<4)-1))<<0
  2230  0CB8  0094               	movwf	(20)	;volatile
  2231                           opt subtitle "HI-TECH Software Omniscient Code Generator (Lite mode) build 49521"
  2232                           
  2233  0CB9                     l1964:	
  2234                           opt subtitle "HI-TECH Software Omniscient Code Generator (Lite mode) build 49521"
  2235  0CB9  1683               	bsf	status, 5	;RP0=1, select bank1
  2236  0CBA  1303               	bcf	status, 6	;RP1=0, select bank1
  2237  0CBB  1394               	bcf	(148)^080h,7	;volatile
  2238                           opt subtitle "HI-TECH Software Omniscient Code Generator (Lite mode) build 49521"
  2239                           
  2240  0CBC                     l1966:	
  2241                           opt subtitle "HI-TECH Software Omniscient Code Generator (Lite mode) build 49521"
  2242  0CBC  1714               	bsf	(148)^080h,6	;volatile
  2243                           opt subtitle "HI-TECH Software Omniscient Code Generator (Lite mode) build 49521"
  2244                           
  2245  0CBD                     l1968:	
  2246                           opt subtitle "HI-TECH Software Omniscient Code Generator (Lite mode) build 49521"
  2247                           
  2248  0CBD  3082               movlw	130
  2249  0CBE  1283               	bcf	status, 5	;RP0=0, select bank0
  2250  0CBF  1303               	bcf	status, 6	;RP1=0, select bank0
  2251  0CC0  00B4               movwf	((??_spiInit+0)+0+1),f
  2252  0CC1  30DD               	movlw	221
  2253  0CC2  00B3               movwf	((??_spiInit+0)+0),f
  2254  0CC3                     u2517:
  2255  0CC3  0BB3               	decfsz	((??_spiInit+0)+0),f
  2256  0CC4  2CC3               	goto	u2517
  2257  0CC5  0BB4               	decfsz	((??_spiInit+0)+0+1),f
  2258  0CC6  2CC3               	goto	u2517
  2259  0CC7  2CC8               	nop2
  2260                           opt subtitle "HI-TECH Software Omniscient Code Generator (Lite mode) build 49521"
  2261                           
  2262                           opt pagewidth 120
  2263                           
  2264  0CC8                     l131:	
  2265  0CC8  0008               	return
  2266                           opt subtitle "HI-TECH Software Omniscient Code Generator (Lite mode) build 49521"
  2267                           
  2268  0CC9                     	__end_of_spiInit:
  2269                           opt subtitle "HI-TECH Software Omniscient Code Generator (Lite mode) build 49521"
  2270                           
  2271                           opt pagewidth 120
  2272                           
  2273                           	opt lm
  2274                           
  2275                           	processor	16F707
  2276                           clrc	macro
  2277                           	bcf	3,0
  2278                           	endm
  2279                           clrz	macro
  2280                           	bcf	3,2
  2281                           	endm
  2282                           setc	macro
  2283                           	bsf	3,0
  2284                           	endm
  2285                           setz	macro
  2286                           	bsf	3,2
  2287                           	endm
  2288                           skipc	macro
  2289                           	btfss	3,0
  2290                           	endm
  2291                           skipz	macro
  2292                           	btfss	3,2
  2293                           	endm
  2294                           skipnc	macro
  2295                           	btfsc	3,0
  2296                           	endm
  2297                           skipnz	macro
  2298                           	btfsc	3,2
  2299                           	endm
  2300                           indf	equ	0
  2301                           indf0	equ	0
  2302                           pc	equ	2
  2303  0C85                     __ptext856:	;psect for function _uartInit
  2304                           opt subtitle "HI-TECH Software Omniscient Code Generator (Lite mode) build 49521"
  2305                           
  2306                           opt pagewidth 120
  2307                           
  2308  0016                     	__size_of_uartInit	equ	__end_of_uartInit-_uartInit
  2309                           opt subtitle "HI-TECH Software Omniscient Code Generator (Lite mode) build 49521"
  2310  0C85                     _uartInit:	
  2311                           opt subtitle "HI-TECH Software Omniscient Code Generator (Lite mode) build 49521"
  2312                           
  2313                           opt pagewidth 120
  2314                           
  2315  0C85                     l1970:	
  2316                           opt subtitle "HI-TECH Software Omniscient Code Generator (Lite mode) build 49521"
  2317  0C85  1683               	bsf	status, 5	;RP0=1, select bank1
  2318  0C86  1303               	bcf	status, 6	;RP1=0, select bank1
  2319  0C87  1787               	bsf	(135)^080h,7	;volatile
  2320                           opt subtitle "HI-TECH Software Omniscient Code Generator (Lite mode) build 49521"
  2321                           
  2322  0C88  1307               	bcf	(135)^080h,6	;volatile
  2323                           opt subtitle "HI-TECH Software Omniscient Code Generator (Lite mode) build 49521"
  2324                           
  2325  0C89                     l1972:	
  2326                           opt subtitle "HI-TECH Software Omniscient Code Generator (Lite mode) build 49521"
  2327  0C89  3002               	movlw	(02h)
  2328  0C8A  0098               	movwf	(152)^080h	;volatile
  2329                           opt subtitle "HI-TECH Software Omniscient Code Generator (Lite mode) build 49521"
  2330                           
  2331  0C8B                     l1974:	
  2332                           opt subtitle "HI-TECH Software Omniscient Code Generator (Lite mode) build 49521"
  2333  0C8B  1283               	bcf	status, 5	;RP0=0, select bank0
  2334  0C8C  1303               	bcf	status, 6	;RP1=0, select bank0
  2335  0C8D  0198               	clrf	(24)	;volatile
  2336                           opt subtitle "HI-TECH Software Omniscient Code Generator (Lite mode) build 49521"
  2337                           
  2338  0C8E                     l1976:	
  2339                           opt subtitle "HI-TECH Software Omniscient Code Generator (Lite mode) build 49521"
  2340  0C8E  1683               	bsf	status, 5	;RP0=1, select bank1
  2341  0C8F  1303               	bcf	status, 6	;RP1=0, select bank1
  2342  0C90  1118               	bcf	(152)^080h,2	;volatile
  2343                           opt subtitle "HI-TECH Software Omniscient Code Generator (Lite mode) build 49521"
  2344                           
  2345  0C91                     l1978:	
  2346                           opt subtitle "HI-TECH Software Omniscient Code Generator (Lite mode) build 49521"
  2347  0C91  1218               	bcf	(152)^080h,4	;volatile
  2348                           opt subtitle "HI-TECH Software Omniscient Code Generator (Lite mode) build 49521"
  2349                           
  2350  0C92                     l1980:	
  2351                           opt subtitle "HI-TECH Software Omniscient Code Generator (Lite mode) build 49521"
  2352  0C92  300C               	movlw	(0Ch)
  2353  0C93  0099               	movwf	(153)^080h	;volatile
  2354                           opt subtitle "HI-TECH Software Omniscient Code Generator (Lite mode) build 49521"
  2355                           
  2356  0C94                     l1982:	
  2357                           opt subtitle "HI-TECH Software Omniscient Code Generator (Lite mode) build 49521"
  2358  0C94  1283               	bcf	status, 5	;RP0=0, select bank0
  2359  0C95  1303               	bcf	status, 6	;RP1=0, select bank0
  2360  0C96  1798               	bsf	(24),7	;volatile
  2361                           opt subtitle "HI-TECH Software Omniscient Code Generator (Lite mode) build 49521"
  2362                           
  2363  0C97                     l1984:	
  2364                           opt subtitle "HI-TECH Software Omniscient Code Generator (Lite mode) build 49521"
  2365  0C97  1683               	bsf	status, 5	;RP0=1, select bank1
  2366  0C98  1303               	bcf	status, 6	;RP1=0, select bank1
  2367  0C99  1698               	bsf	(152)^080h,5	;volatile
  2368                           opt subtitle "HI-TECH Software Omniscient Code Generator (Lite mode) build 49521"
  2369                           
  2370  0C9A                     l128:	
  2371  0C9A  0008               	return
  2372                           opt subtitle "HI-TECH Software Omniscient Code Generator (Lite mode) build 49521"
  2373                           
  2374  0C9B                     	__end_of_uartInit:
  2375                           opt subtitle "HI-TECH Software Omniscient Code Generator (Lite mode) build 49521"
  2376                           
  2377                           opt pagewidth 120
  2378                           
  2379                           	opt lm
  2380                           
  2381                           	processor	16F707
  2382                           clrc	macro
  2383                           	bcf	3,0
  2384                           	endm
  2385                           clrz	macro
  2386                           	bcf	3,2
  2387                           	endm
  2388                           setc	macro
  2389                           	bsf	3,0
  2390                           	endm
  2391                           setz	macro
  2392                           	bsf	3,2
  2393                           	endm
  2394                           skipc	macro
  2395                           	btfss	3,0
  2396                           	endm
  2397                           skipz	macro
  2398                           	btfss	3,2
  2399                           	endm
  2400                           skipnc	macro
  2401                           	btfsc	3,0
  2402                           	endm
  2403                           skipnz	macro
  2404                           	btfsc	3,2
  2405                           	endm
  2406                           indf	equ	0
  2407                           indf0	equ	0
  2408                           pc	equ	2
  2409  0C51                     __ptext857:	;psect for function _adcInit
  2410                           opt subtitle "HI-TECH Software Omniscient Code Generator (Lite mode) build 49521"
  2411                           
  2412                           opt pagewidth 120
  2413                           
  2414  000D                     	__size_of_adcInit	equ	__end_of_adcInit-_adcInit
  2415                           opt subtitle "HI-TECH Software Omniscient Code Generator (Lite mode) build 49521"
  2416  0C51                     _adcInit:	
  2417                           opt subtitle "HI-TECH Software Omniscient Code Generator (Lite mode) build 49521"
  2418                           
  2419                           opt pagewidth 120
  2420                           
  2421  0C51                     l1986:	
  2422                           opt subtitle "HI-TECH Software Omniscient Code Generator (Lite mode) build 49521"
  2423  0C51  1283               	bcf	status, 5	;RP0=0, select bank0
  2424  0C52  1303               	bcf	status, 6	;RP1=0, select bank0
  2425  0C53  081F               	movf	(31),w	;volatile
  2426  0C54  39C3               	andlw	not (((1<<4)-1)<<2)
  2427  0C55  381C               	iorlw	(07h & ((1<<4)-1))<<2
  2428  0C56  009F               	movwf	(31)	;volatile
  2429                           opt subtitle "HI-TECH Software Omniscient Code Generator (Lite mode) build 49521"
  2430                           
  2431  0C57  308F               	movlw	((0 & ((1<<3)-1))<<4)|not (((1<<3)-1)<<4)
  2432  0C58  1683               	bsf	status, 5	;RP0=1, select bank1
  2433  0C59  1303               	bcf	status, 6	;RP1=0, select bank1
  2434  0C5A  059F               	andwf	(159)^080h,f	;volatile
  2435                           opt subtitle "HI-TECH Software Omniscient Code Generator (Lite mode) build 49521"
  2436                           
  2437  0C5B  30FC               	movlw	((0 & ((1<<2)-1))<<0)|not (((1<<2)-1)<<0)
  2438  0C5C  059F               	andwf	(159)^080h,f	;volatile
  2439                           opt subtitle "HI-TECH Software Omniscient Code Generator (Lite mode) build 49521"
  2440                           
  2441  0C5D                     l134:	
  2442  0C5D  0008               	return
  2443                           opt subtitle "HI-TECH Software Omniscient Code Generator (Lite mode) build 49521"
  2444                           
  2445  0C5E                     	__end_of_adcInit:
  2446                           opt subtitle "HI-TECH Software Omniscient Code Generator (Lite mode) build 49521"
  2447                           
  2448                           opt pagewidth 120
  2449                           
  2450                           	opt lm
  2451                           
  2452                           	processor	16F707
  2453                           clrc	macro
  2454                           	bcf	3,0
  2455                           	endm
  2456                           clrz	macro
  2457                           	bcf	3,2
  2458                           	endm
  2459                           setc	macro
  2460                           	bsf	3,0
  2461                           	endm
  2462                           setz	macro
  2463                           	bsf	3,2
  2464                           	endm
  2465                           skipc	macro
  2466                           	btfss	3,0
  2467                           	endm
  2468                           skipz	macro
  2469                           	btfss	3,2
  2470                           	endm
  2471                           skipnc	macro
  2472                           	btfsc	3,0
  2473                           	endm
  2474                           skipnz	macro
  2475                           	btfsc	3,2
  2476                           	endm
  2477                           indf	equ	0
  2478                           indf0	equ	0
  2479                           pc	equ	2
  2480                           pcl	equ	2
  2481                           status	equ	3
  2482  0D44                     __ptext858:	;psect for function _rfm70setPowerdownMode
  2483                           opt subtitle "HI-TECH Software Omniscient Code Generator (Lite mode) build 49521"
  2484                           
  2485                           opt pagewidth 120
  2486                           
  2487  0025                     	__size_of_rfm70setPowerdownMode	equ	__end_of_rfm70setPowerdownMode-_rfm70setPowerdownMo
                                 de
  2488                           opt subtitle "HI-TECH Software Omniscient Code Generator (Lite mode) build 49521"
  2489  0D44                     _rfm70setPowerdownMode:	
  2490                           opt subtitle "HI-TECH Software Omniscient Code Generator (Lite mode) build 49521"
  2491                           
  2492                           opt pagewidth 120
  2493                           
  2494  0D44  1283               	bcf	status, 5	;RP0=0, select bank0
  2495  0D45  1303               	bcf	status, 6	;RP1=0, select bank0
  2496  0D46  00BA               	movwf	(rfm70setPowerdownMode@value)
  2497                           opt subtitle "HI-TECH Software Omniscient Code Generator (Lite mode) build 49521"
  2498  0D47                     l1988:	
  2499                           opt subtitle "HI-TECH Software Omniscient Code Generator (Lite mode) build 49521"
  2500                           
  2501  0D47  3000               	movlw	(0)
  2502  0D48  120A  158A  24C9   	fcall	_SPI_Read_Reg
              120A  158A         
  2503  0D4D  1283               	bcf	status, 5	;RP0=0, select bank0
  2504  0D4E  1303               	bcf	status, 6	;RP1=0, select bank0
  2505  0D4F  00B9               	movwf	(??_rfm70setPowerdownMode+0)+0
  2506  0D50  0839               	movf	(??_rfm70setPowerdownMode+0)+0,w
  2507  0D51  00BB               	movwf	(rfm70setPowerdownMode@reg)
  2508                           opt subtitle "HI-TECH Software Omniscient Code Generator (Lite mode) build 49521"
  2509                           
  2510  0D52                     l1990:	
  2511                           opt subtitle "HI-TECH Software Omniscient Code Generator (Lite mode) build 49521"
  2512  0D52  08BA               	movf	(rfm70setPowerdownMode@value),f
  2513  0D53  1D03               	skipz
  2514  0D54  2D56               	goto	u1511
  2515  0D55  2D57               	goto	u1510
  2516  0D56                     u1511:
  2517  0D56  2D5C               	goto	l288
  2518  0D57                     u1510:
  2519                           opt subtitle "HI-TECH Software Omniscient Code Generator (Lite mode) build 49521"
  2520                           
  2521  0D57                     l1992:	
  2522                           opt subtitle "HI-TECH Software Omniscient Code Generator (Lite mode) build 49521"
  2523  0D57  3002               	movlw	(02h)
  2524  0D58  00B9               	movwf	(??_rfm70setPowerdownMode+0)+0
  2525  0D59  0839               	movf	(??_rfm70setPowerdownMode+0)+0,w
  2526  0D5A  06BB               	xorwf	(rfm70setPowerdownMode@reg),f
  2527                           opt subtitle "HI-TECH Software Omniscient Code Generator (Lite mode) build 49521"
  2528                           
  2529  0D5B  2D5E               	goto	l1994
  2530                           opt subtitle "HI-TECH Software Omniscient Code Generator (Lite mode) build 49521"
  2531                           
  2532  0D5C                     l288:	
  2533                           opt subtitle "HI-TECH Software Omniscient Code Generator (Lite mode) build 49521"
  2534                           
  2535                           opt pagewidth 120
  2536  0D5C  14BB               	bsf	(rfm70setPowerdownMode@reg)+(1/8),(1)&7
  2537  0D5D  2D5E               	goto	l1994
  2538                           opt subtitle "HI-TECH Software Omniscient Code Generator (Lite mode) build 49521"
  2539                           
  2540  0D5E                     l289:	
  2541                           opt subtitle "HI-TECH Software Omniscient Code Generator (Lite mode) build 49521"
  2542                           
  2543  0D5E                     l1994:	
  2544                           opt subtitle "HI-TECH Software Omniscient Code Generator (Lite mode) build 49521"
  2545                           
  2546  0D5E  083B               	movf	(rfm70setPowerdownMode@reg),w
  2547  0D5F  00B9               	movwf	(??_rfm70setPowerdownMode+0)+0
  2548  0D60  0839               	movf	(??_rfm70setPowerdownMode+0)+0,w
  2549  0D61  00B6               	movwf	(?_SPI_Write_Reg)
  2550  0D62  3020               	movlw	(020h)
  2551  0D63  120A  158A  246F   	fcall	_SPI_Write_Reg
              120A  158A         
  2552                           opt subtitle "HI-TECH Software Omniscient Code Generator (Lite mode) build 49521"
  2553                           
  2554  0D68                     l290:	
  2555  0D68  0008               	return
  2556                           opt subtitle "HI-TECH Software Omniscient Code Generator (Lite mode) build 49521"
  2557                           
  2558  0D69                     	__end_of_rfm70setPowerdownMode:
  2559                           opt subtitle "HI-TECH Software Omniscient Code Generator (Lite mode) build 49521"
  2560                           
  2561                           opt pagewidth 120
  2562                           
  2563                           	opt lm
  2564                           
  2565                           	processor	16F707
  2566                           clrc	macro
  2567                           	bcf	3,0
  2568                           	endm
  2569                           clrz	macro
  2570                           	bcf	3,2
  2571                           	endm
  2572                           setc	macro
  2573                           	bsf	3,0
  2574                           	endm
  2575                           setz	macro
  2576                           	bsf	3,2
  2577                           	endm
  2578                           skipc	macro
  2579                           	btfss	3,0
  2580                           	endm
  2581                           skipz	macro
  2582                           	btfss	3,2
  2583                           	endm
  2584                           skipnc	macro
  2585                           	btfsc	3,0
  2586                           	endm
  2587                           skipnz	macro
  2588                           	btfsc	3,2
  2589                           	endm
  2590                           indf	equ	0
  2591                           indf0	equ	0
  2592                           pc	equ	2
  2593  0C5E                     __ptext859:	;psect for function _adcRead
  2594                           opt subtitle "HI-TECH Software Omniscient Code Generator (Lite mode) build 49521"
  2595                           
  2596                           opt pagewidth 120
  2597                           
  2598  0011                     	__size_of_adcRead	equ	__end_of_adcRead-_adcRead
  2599                           opt subtitle "HI-TECH Software Omniscient Code Generator (Lite mode) build 49521"
  2600  0C5E                     _adcRead:	
  2601                           opt subtitle "HI-TECH Software Omniscient Code Generator (Lite mode) build 49521"
  2602                           
  2603                           opt pagewidth 120
  2604                           
  2605  0C5E                     l1996:	
  2606                           opt subtitle "HI-TECH Software Omniscient Code Generator (Lite mode) build 49521"
  2607                           
  2608  0C5E  1283               	bcf	status, 5	;RP0=0, select bank0
  2609  0C5F  1303               	bcf	status, 6	;RP1=0, select bank0
  2610  0C60  141F               	bsf	(31),0	;volatile
  2611                           opt subtitle "HI-TECH Software Omniscient Code Generator (Lite mode) build 49521"
  2612                           
  2613  0C61  149F               	bsf	(31),1	;volatile
  2614                           opt subtitle "HI-TECH Software Omniscient Code Generator (Lite mode) build 49521"
  2615                           
  2616  0C62  2C63               	goto	l122
  2617                           opt subtitle "HI-TECH Software Omniscient Code Generator (Lite mode) build 49521"
  2618  0C63                     l123:	
  2619                           opt subtitle "HI-TECH Software Omniscient Code Generator (Lite mode) build 49521"
  2620  0C63                     l122:	
  2621  0C63  189F               	btfsc	(31),1	;volatile
  2622  0C64  2C66               	goto	u1521
  2623  0C65  2C67               	goto	u1520
  2624  0C66                     u1521:
  2625  0C66  2C63               	goto	l122
  2626  0C67                     u1520:
  2627  0C67  2C68               	goto	l1998
  2628                           opt subtitle "HI-TECH Software Omniscient Code Generator (Lite mode) build 49521"
  2629  0C68                     l124:	
  2630                           opt subtitle "HI-TECH Software Omniscient Code Generator (Lite mode) build 49521"
  2631                           
  2632  0C68                     l1998:	
  2633                           opt subtitle "HI-TECH Software Omniscient Code Generator (Lite mode) build 49521"
  2634  0C68  081E               	movf	(30),w	;volatile
  2635  0C69  00B3               	movwf	(??_adcRead+0)+0
  2636  0C6A  0833               	movf	(??_adcRead+0)+0,w
  2637  0C6B  00B4               	movwf	(adcRead@value)
  2638                           opt subtitle "HI-TECH Software Omniscient Code Generator (Lite mode) build 49521"
  2639                           
  2640  0C6C  0834               	movf	(adcRead@value),w
  2641  0C6D  2C6E               	goto	l125
  2642                           opt subtitle "HI-TECH Software Omniscient Code Generator (Lite mode) build 49521"
  2643  0C6E                     l2000:	
  2644                           opt subtitle "HI-TECH Software Omniscient Code Generator (Lite mode) build 49521"
  2645                           
  2646  0C6E                     l125:	
  2647  0C6E  0008               	return
  2648                           opt subtitle "HI-TECH Software Omniscient Code Generator (Lite mode) build 49521"
  2649                           
  2650  0C6F                     	__end_of_adcRead:
  2651                           opt subtitle "HI-TECH Software Omniscient Code Generator (Lite mode) build 49521"
  2652                           
  2653                           opt pagewidth 120
  2654                           
  2655                           	opt lm
  2656                           
  2657                           	processor	16F707
  2658                           clrc	macro
  2659                           	bcf	3,0
  2660                           	endm
  2661                           clrz	macro
  2662                           	bcf	3,2
  2663                           	endm
  2664                           setc	macro
  2665                           	bsf	3,0
  2666                           	endm
  2667                           setz	macro
  2668                           	bsf	3,2
  2669                           	endm
  2670                           skipc	macro
  2671                           	btfss	3,0
  2672                           	endm
  2673                           skipz	macro
  2674                           	btfss	3,2
  2675                           	endm
  2676                           skipnc	macro
  2677                           	btfsc	3,0
  2678                           	endm
  2679                           skipnz	macro
  2680                           	btfsc	3,2
  2681                           	endm
  2682                           indf	equ	0
  2683                           indf0	equ	0
  2684                           pc	equ	2
  2685                           pcl	equ	2
  2686                           status	equ	3
  2687                           fsr	equ	4
  2688                           fsr0	equ	4
  2689                           c	equ	1
  2690  0015                     __ptext860:	;psect for function _RFM70_Initialize
  2691                           opt subtitle "HI-TECH Software Omniscient Code Generator (Lite mode) build 49521"
  2692                           
  2693                           opt pagewidth 120
  2694                           
  2695  0310                     	__size_of_RFM70_Initialize	equ	__end_of_RFM70_Initialize-_RFM70_Initialize
  2696                           opt subtitle "HI-TECH Software Omniscient Code Generator (Lite mode) build 49521"
  2697  0015                     _RFM70_Initialize:	
  2698                           opt subtitle "HI-TECH Software Omniscient Code Generator (Lite mode) build 49521"
  2699                           
  2700                           opt pagewidth 120
  2701                           
  2702  0015                     l2002:	
  2703                           opt subtitle "HI-TECH Software Omniscient Code Generator (Lite mode) build 49521"
  2704                           
  2705                           opt pagewidth 120
  2706                           
  2707  0015  3003               movlw  3
  2708  0016  1283               	bcf	status, 5	;RP0=0, select bank0
  2709  0017  1303               	bcf	status, 6	;RP1=0, select bank0
  2710  0018  00BE               movwf	((??_RFM70_Initialize+0)+0+2),f
  2711  0019  3008               movlw	8
  2712  001A  00BD               movwf	((??_RFM70_Initialize+0)+0+1),f
  2713  001B  3078               	movlw	120
  2714  001C  00BC               movwf	((??_RFM70_Initialize+0)+0),f
  2715  001D                     u2527:
  2716  001D  0BBC               	decfsz	((??_RFM70_Initialize+0)+0),f
  2717  001E  281D               	goto	u2527
  2718  001F  0BBD               	decfsz	((??_RFM70_Initialize+0)+0+1),f
  2719  0020  281D               	goto	u2527
  2720  0021  0BBE               	decfsz	((??_RFM70_Initialize+0)+0+2),f
  2721  0022  281D               	goto	u2527
  2722                           opt subtitle "HI-TECH Software Omniscient Code Generator (Lite mode) build 49521"
  2723                           
  2724                           opt pagewidth 120
  2725                           
  2726  0023                     l2004:	
  2727                           opt subtitle "HI-TECH Software Omniscient Code Generator (Lite mode) build 49521"
  2728  0023  3000               	movlw	(0)
  2729  0024  120A  158A  25E9   	fcall	_SwitchCFG
              120A  118A         
  2730                           opt subtitle "HI-TECH Software Omniscient Code Generator (Lite mode) build 49521"
  2731                           
  2732  0029                     l2006:	
  2733                           opt subtitle "HI-TECH Software Omniscient Code Generator (Lite mode) build 49521"
  2734  0029  1283               	bcf	status, 5	;RP0=0, select bank0
  2735  002A  1303               	bcf	status, 6	;RP1=0, select bank0
  2736  002B  01CF               	clrf	(RFM70_Initialize@i)
  2737                           opt subtitle "HI-TECH Software Omniscient Code Generator (Lite mode) build 49521"
  2738  002C                     l2008:	
  2739  002C  3014               	movlw	(014h)
  2740  002D  024F               	subwf	(RFM70_Initialize@i),w
  2741  002E  1C03               	skipc
  2742  002F  2831               	goto	u1531
  2743  0030  2832               	goto	u1530
  2744  0031                     u1531:
  2745  0031  2834               	goto	l2012
  2746  0032                     u1530:
  2747  0032  2864               	goto	l243
  2748                           opt subtitle "HI-TECH Software Omniscient Code Generator (Lite mode) build 49521"
  2749  0033                     l2010:	
  2750  0033  2864               	goto	l243
  2751                           opt subtitle "HI-TECH Software Omniscient Code Generator (Lite mode) build 49521"
  2752                           
  2753  0034                     l242:	
  2754                           opt subtitle "HI-TECH Software Omniscient Code Generator (Lite mode) build 49521"
  2755                           
  2756  0034                     l2012:	
  2757                           opt subtitle "HI-TECH Software Omniscient Code Generator (Lite mode) build 49521"
  2758                           
  2759  0034  1403               	setc
  2760  0035  0D4F               	rlf	(RFM70_Initialize@i),w
  2761  0036  3E4A               	addlw	low(_Bank0_Reg|8000h)
  2762  0037  0084               	movwf	fsr0
  2763  0038  3088               	movlw	high(_Bank0_Reg|8000h)
  2764  0039  1803               	skipnc
  2765  003A  3E01               	addlw	1
  2766  003B  00FF               	movwf	btemp+1
  2767  003C  120A  158A  2000   	fcall	stringtab
              120A  118A         
  2768  0041  00BC               	movwf	(??_RFM70_Initialize+0)+0
  2769  0042  083C               	movf	(??_RFM70_Initialize+0)+0,w
  2770  0043  00B6               	movwf	(?_SPI_Write_Reg)
  2771  0044  084F               	movf	(RFM70_Initialize@i),w
  2772  0045  00BD               	movwf	(??_RFM70_Initialize+1)+0
  2773  0046  073D               	addwf	(??_RFM70_Initialize+1)+0,w
  2774  0047  3E4A               	addlw	low(_Bank0_Reg|8000h)
  2775  0048  0084               	movwf	fsr0
  2776  0049  3088               	movlw	high(_Bank0_Reg|8000h)
  2777  004A  1803               	skipnc
  2778  004B  3E01               	addlw	1
  2779  004C  00FF               	movwf	btemp+1
  2780  004D  120A  158A  2000   	fcall	stringtab
              120A  118A         
  2781  0052  3820               	iorlw	020h
  2782  0053  120A  158A  246F   	fcall	_SPI_Write_Reg
              120A  118A         
  2783                           opt subtitle "HI-TECH Software Omniscient Code Generator (Lite mode) build 49521"
  2784                           
  2785  0058                     l2014:	
  2786  0058  3001               	movlw	(01h)
  2787  0059  1283               	bcf	status, 5	;RP0=0, select bank0
  2788  005A  1303               	bcf	status, 6	;RP1=0, select bank0
  2789  005B  00BC               	movwf	(??_RFM70_Initialize+0)+0
  2790  005C  083C               	movf	(??_RFM70_Initialize+0)+0,w
  2791  005D  07CF               	addwf	(RFM70_Initialize@i),f
  2792                           opt subtitle "HI-TECH Software Omniscient Code Generator (Lite mode) build 49521"
  2793  005E                     l2016:	
  2794  005E  3014               	movlw	(014h)
  2795  005F  024F               	subwf	(RFM70_Initialize@i),w
  2796  0060  1C03               	skipc
  2797  0061  2863               	goto	u1541
  2798  0062  2864               	goto	u1540
  2799  0063                     u1541:
  2800  0063  2834               	goto	l2012
  2801  0064                     u1540:
  2802                           opt subtitle "HI-TECH Software Omniscient Code Generator (Lite mode) build 49521"
  2803  0064                     l243:	
  2804                           opt subtitle "HI-TECH Software Omniscient Code Generator (Lite mode) build 49521"
  2805                           
  2806                           opt pagewidth 120
  2807  0064  01D0               	clrf	(RFM70_Initialize@j)
  2808                           opt subtitle "HI-TECH Software Omniscient Code Generator (Lite mode) build 49521"
  2809  0065                     l2018:	
  2810  0065  3005               	movlw	(05h)
  2811  0066  0250               	subwf	(RFM70_Initialize@j),w
  2812  0067  1C03               	skipc
  2813  0068  286A               	goto	u1551
  2814  0069  286B               	goto	u1550
  2815  006A                     u1551:
  2816  006A  286D               	goto	l2022
  2817  006B                     u1550:
  2818  006B  288B               	goto	l2028
  2819                           opt subtitle "HI-TECH Software Omniscient Code Generator (Lite mode) build 49521"
  2820  006C                     l2020:	
  2821  006C  288B               	goto	l2028
  2822                           opt subtitle "HI-TECH Software Omniscient Code Generator (Lite mode) build 49521"
  2823                           
  2824  006D                     l244:	
  2825                           opt subtitle "HI-TECH Software Omniscient Code Generator (Lite mode) build 49521"
  2826                           
  2827  006D                     l2022:	
  2828                           opt subtitle "HI-TECH Software Omniscient Code Generator (Lite mode) build 49521"
  2829                           
  2830  006D  0850               	movf	(RFM70_Initialize@j),w
  2831  006E  3E95               	addlw	low(_RX0_Address|8000h)
  2832  006F  0084               	movwf	fsr0
  2833  0070  3088               	movlw	high(_RX0_Address|8000h)
  2834  0071  1803               	skipnc
  2835  0072  3E01               	addlw	1
  2836  0073  00FF               	movwf	btemp+1
  2837  0074  120A  158A  2000   	fcall	stringtab
              120A  118A         
  2838  0079  00BC               	movwf	(??_RFM70_Initialize+0)+0
  2839  007A  0850               	movf	(RFM70_Initialize@j),w
  2840  007B  3E43               	addlw	RFM70_Initialize@WriteArr&0ffh
  2841  007C  0084               	movwf	fsr0
  2842  007D  083C               	movf	(??_RFM70_Initialize+0)+0,w
  2843  007E  1383               	bcf	status, 7	;select IRP bank0
  2844  007F  0080               	movwf	indf
  2845                           opt subtitle "HI-TECH Software Omniscient Code Generator (Lite mode) build 49521"
  2846                           
  2847  0080                     l2024:	
  2848  0080  3001               	movlw	(01h)
  2849  0081  00BC               	movwf	(??_RFM70_Initialize+0)+0
  2850  0082  083C               	movf	(??_RFM70_Initialize+0)+0,w
  2851  0083  07D0               	addwf	(RFM70_Initialize@j),f
  2852                           opt subtitle "HI-TECH Software Omniscient Code Generator (Lite mode) build 49521"
  2853  0084                     l2026:	
  2854  0084  3005               	movlw	(05h)
  2855  0085  0250               	subwf	(RFM70_Initialize@j),w
  2856  0086  1C03               	skipc
  2857  0087  2889               	goto	u1561
  2858  0088  288A               	goto	u1560
  2859  0089                     u1561:
  2860  0089  286D               	goto	l2022
  2861  008A                     u1560:
  2862  008A  288B               	goto	l2028
  2863                           opt subtitle "HI-TECH Software Omniscient Code Generator (Lite mode) build 49521"
  2864  008B                     l245:	
  2865                           opt subtitle "HI-TECH Software Omniscient Code Generator (Lite mode) build 49521"
  2866                           
  2867  008B                     l2028:	
  2868                           opt subtitle "HI-TECH Software Omniscient Code Generator (Lite mode) build 49521"
  2869                           
  2870  008B  3043               	movlw	(RFM70_Initialize@WriteArr)&0ffh
  2871  008C  00BC               	movwf	(??_RFM70_Initialize+0)+0
  2872  008D  083C               	movf	(??_RFM70_Initialize+0)+0,w
  2873  008E  00B6               	movwf	(?_SPI_Write_Buf)
  2874  008F  3005               	movlw	(05h)
  2875  0090  00BD               	movwf	(??_RFM70_Initialize+1)+0
  2876  0091  083D               	movf	(??_RFM70_Initialize+1)+0,w
  2877  0092  00B7               	movwf	0+(?_SPI_Write_Buf)+01h
  2878  0093  302A               	movlw	(02Ah)
  2879  0094  120A  158A  2569   	fcall	_SPI_Write_Buf
              120A  118A         
  2880                           opt subtitle "HI-TECH Software Omniscient Code Generator (Lite mode) build 49521"
  2881                           
  2882  0099                     l2030:	
  2883                           opt subtitle "HI-TECH Software Omniscient Code Generator (Lite mode) build 49521"
  2884  0099  1283               	bcf	status, 5	;RP0=0, select bank0
  2885  009A  1303               	bcf	status, 6	;RP1=0, select bank0
  2886  009B  01D0               	clrf	(RFM70_Initialize@j)
  2887                           opt subtitle "HI-TECH Software Omniscient Code Generator (Lite mode) build 49521"
  2888  009C                     l2032:	
  2889  009C  3005               	movlw	(05h)
  2890  009D  0250               	subwf	(RFM70_Initialize@j),w
  2891  009E  1C03               	skipc
  2892  009F  28A1               	goto	u1571
  2893  00A0  28A2               	goto	u1570
  2894  00A1                     u1571:
  2895  00A1  28A4               	goto	l2036
  2896  00A2                     u1570:
  2897  00A2  28C2               	goto	l2042
  2898                           opt subtitle "HI-TECH Software Omniscient Code Generator (Lite mode) build 49521"
  2899  00A3                     l2034:	
  2900  00A3  28C2               	goto	l2042
  2901                           opt subtitle "HI-TECH Software Omniscient Code Generator (Lite mode) build 49521"
  2902                           
  2903  00A4                     l246:	
  2904                           opt subtitle "HI-TECH Software Omniscient Code Generator (Lite mode) build 49521"
  2905                           
  2906  00A4                     l2036:	
  2907                           opt subtitle "HI-TECH Software Omniscient Code Generator (Lite mode) build 49521"
  2908                           
  2909  00A4  0850               	movf	(RFM70_Initialize@j),w
  2910  00A5  3E9A               	addlw	low(_RX1_Address|8000h)
  2911  00A6  0084               	movwf	fsr0
  2912  00A7  3088               	movlw	high(_RX1_Address|8000h)
  2913  00A8  1803               	skipnc
  2914  00A9  3E01               	addlw	1
  2915  00AA  00FF               	movwf	btemp+1
  2916  00AB  120A  158A  2000   	fcall	stringtab
              120A  118A         
  2917  00B0  00BC               	movwf	(??_RFM70_Initialize+0)+0
  2918  00B1  0850               	movf	(RFM70_Initialize@j),w
  2919  00B2  3E43               	addlw	RFM70_Initialize@WriteArr&0ffh
  2920  00B3  0084               	movwf	fsr0
  2921  00B4  083C               	movf	(??_RFM70_Initialize+0)+0,w
  2922  00B5  1383               	bcf	status, 7	;select IRP bank0
  2923  00B6  0080               	movwf	indf
  2924                           opt subtitle "HI-TECH Software Omniscient Code Generator (Lite mode) build 49521"
  2925                           
  2926  00B7                     l2038:	
  2927  00B7  3001               	movlw	(01h)
  2928  00B8  00BC               	movwf	(??_RFM70_Initialize+0)+0
  2929  00B9  083C               	movf	(??_RFM70_Initialize+0)+0,w
  2930  00BA  07D0               	addwf	(RFM70_Initialize@j),f
  2931                           opt subtitle "HI-TECH Software Omniscient Code Generator (Lite mode) build 49521"
  2932  00BB                     l2040:	
  2933  00BB  3005               	movlw	(05h)
  2934  00BC  0250               	subwf	(RFM70_Initialize@j),w
  2935  00BD  1C03               	skipc
  2936  00BE  28C0               	goto	u1581
  2937  00BF  28C1               	goto	u1580
  2938  00C0                     u1581:
  2939  00C0  28A4               	goto	l2036
  2940  00C1                     u1580:
  2941  00C1  28C2               	goto	l2042
  2942                           opt subtitle "HI-TECH Software Omniscient Code Generator (Lite mode) build 49521"
  2943  00C2                     l247:	
  2944                           opt subtitle "HI-TECH Software Omniscient Code Generator (Lite mode) build 49521"
  2945                           
  2946  00C2                     l2042:	
  2947                           opt subtitle "HI-TECH Software Omniscient Code Generator (Lite mode) build 49521"
  2948                           
  2949  00C2  3043               	movlw	(RFM70_Initialize@WriteArr)&0ffh
  2950  00C3  00BC               	movwf	(??_RFM70_Initialize+0)+0
  2951  00C4  083C               	movf	(??_RFM70_Initialize+0)+0,w
  2952  00C5  00B6               	movwf	(?_SPI_Write_Buf)
  2953  00C6  3005               	movlw	(05h)
  2954  00C7  00BD               	movwf	(??_RFM70_Initialize+1)+0
  2955  00C8  083D               	movf	(??_RFM70_Initialize+1)+0,w
  2956  00C9  00B7               	movwf	0+(?_SPI_Write_Buf)+01h
  2957  00CA  302B               	movlw	(02Bh)
  2958  00CB  120A  158A  2569   	fcall	_SPI_Write_Buf
              120A  118A         
  2959                           opt subtitle "HI-TECH Software Omniscient Code Generator (Lite mode) build 49521"
  2960                           
  2961  00D0                     l2044:	
  2962                           opt subtitle "HI-TECH Software Omniscient Code Generator (Lite mode) build 49521"
  2963  00D0  1283               	bcf	status, 5	;RP0=0, select bank0
  2964  00D1  1303               	bcf	status, 6	;RP1=0, select bank0
  2965  00D2  01D0               	clrf	(RFM70_Initialize@j)
  2966                           opt subtitle "HI-TECH Software Omniscient Code Generator (Lite mode) build 49521"
  2967  00D3                     l2046:	
  2968  00D3  3005               	movlw	(05h)
  2969  00D4  0250               	subwf	(RFM70_Initialize@j),w
  2970  00D5  1C03               	skipc
  2971  00D6  28D8               	goto	u1591
  2972  00D7  28D9               	goto	u1590
  2973  00D8                     u1591:
  2974  00D8  28DB               	goto	l2050
  2975  00D9                     u1590:
  2976  00D9  28F9               	goto	l2056
  2977                           opt subtitle "HI-TECH Software Omniscient Code Generator (Lite mode) build 49521"
  2978  00DA                     l2048:	
  2979  00DA  28F9               	goto	l2056
  2980                           opt subtitle "HI-TECH Software Omniscient Code Generator (Lite mode) build 49521"
  2981                           
  2982  00DB                     l248:	
  2983                           opt subtitle "HI-TECH Software Omniscient Code Generator (Lite mode) build 49521"
  2984                           
  2985  00DB                     l2050:	
  2986                           opt subtitle "HI-TECH Software Omniscient Code Generator (Lite mode) build 49521"
  2987                           
  2988  00DB  0850               	movf	(RFM70_Initialize@j),w
  2989  00DC  3E95               	addlw	low(_RX0_Address|8000h)
  2990  00DD  0084               	movwf	fsr0
  2991  00DE  3088               	movlw	high(_RX0_Address|8000h)
  2992  00DF  1803               	skipnc
  2993  00E0  3E01               	addlw	1
  2994  00E1  00FF               	movwf	btemp+1
  2995  00E2  120A  158A  2000   	fcall	stringtab
              120A  118A         
  2996  00E7  00BC               	movwf	(??_RFM70_Initialize+0)+0
  2997  00E8  0850               	movf	(RFM70_Initialize@j),w
  2998  00E9  3E43               	addlw	RFM70_Initialize@WriteArr&0ffh
  2999  00EA  0084               	movwf	fsr0
  3000  00EB  083C               	movf	(??_RFM70_Initialize+0)+0,w
  3001  00EC  1383               	bcf	status, 7	;select IRP bank0
  3002  00ED  0080               	movwf	indf
  3003                           opt subtitle "HI-TECH Software Omniscient Code Generator (Lite mode) build 49521"
  3004                           
  3005  00EE                     l2052:	
  3006  00EE  3001               	movlw	(01h)
  3007  00EF  00BC               	movwf	(??_RFM70_Initialize+0)+0
  3008  00F0  083C               	movf	(??_RFM70_Initialize+0)+0,w
  3009  00F1  07D0               	addwf	(RFM70_Initialize@j),f
  3010                           opt subtitle "HI-TECH Software Omniscient Code Generator (Lite mode) build 49521"
  3011  00F2                     l2054:	
  3012  00F2  3005               	movlw	(05h)
  3013  00F3  0250               	subwf	(RFM70_Initialize@j),w
  3014  00F4  1C03               	skipc
  3015  00F5  28F7               	goto	u1601
  3016  00F6  28F8               	goto	u1600
  3017  00F7                     u1601:
  3018  00F7  28DB               	goto	l2050
  3019  00F8                     u1600:
  3020  00F8  28F9               	goto	l2056
  3021                           opt subtitle "HI-TECH Software Omniscient Code Generator (Lite mode) build 49521"
  3022  00F9                     l249:	
  3023                           opt subtitle "HI-TECH Software Omniscient Code Generator (Lite mode) build 49521"
  3024                           
  3025  00F9                     l2056:	
  3026                           opt subtitle "HI-TECH Software Omniscient Code Generator (Lite mode) build 49521"
  3027                           
  3028  00F9  3043               	movlw	(RFM70_Initialize@WriteArr)&0ffh
  3029  00FA  00BC               	movwf	(??_RFM70_Initialize+0)+0
  3030  00FB  083C               	movf	(??_RFM70_Initialize+0)+0,w
  3031  00FC  00B6               	movwf	(?_SPI_Write_Buf)
  3032  00FD  3005               	movlw	(05h)
  3033  00FE  00BD               	movwf	(??_RFM70_Initialize+1)+0
  3034  00FF  083D               	movf	(??_RFM70_Initialize+1)+0,w
  3035  0100  00B7               	movwf	0+(?_SPI_Write_Buf)+01h
  3036  0101  3030               	movlw	(030h)
  3037  0102  120A  158A  2569   	fcall	_SPI_Write_Buf
              120A  118A         
  3038                           opt subtitle "HI-TECH Software Omniscient Code Generator (Lite mode) build 49521"
  3039                           
  3040  0107  301D               	movlw	(01Dh)
  3041  0108  120A  158A  24C9   	fcall	_SPI_Read_Reg
              120A  118A         
  3042  010D  1283               	bcf	status, 5	;RP0=0, select bank0
  3043  010E  1303               	bcf	status, 6	;RP1=0, select bank0
  3044  010F  00BC               	movwf	(??_RFM70_Initialize+0)+0
  3045  0110  083C               	movf	(??_RFM70_Initialize+0)+0,w
  3046  0111  00CF               	movwf	(RFM70_Initialize@i)
  3047                           opt subtitle "HI-TECH Software Omniscient Code Generator (Lite mode) build 49521"
  3048                           
  3049  0112                     l2058:	
  3050                           opt subtitle "HI-TECH Software Omniscient Code Generator (Lite mode) build 49521"
  3051  0112  08CF               	movf	(RFM70_Initialize@i),f
  3052  0113  1D03               	skipz
  3053  0114  2916               	goto	u1611
  3054  0115  2917               	goto	u1610
  3055  0116                     u1611:
  3056  0116  2922               	goto	l2062
  3057  0117                     u1610:
  3058                           opt subtitle "HI-TECH Software Omniscient Code Generator (Lite mode) build 49521"
  3059                           
  3060  0117                     l2060:	
  3061                           opt subtitle "HI-TECH Software Omniscient Code Generator (Lite mode) build 49521"
  3062  0117  3073               	movlw	(073h)
  3063  0118  00BC               	movwf	(??_RFM70_Initialize+0)+0
  3064  0119  083C               	movf	(??_RFM70_Initialize+0)+0,w
  3065  011A  00B6               	movwf	(?_SPI_Write_Reg)
  3066  011B  3050               	movlw	(050h)
  3067  011C  120A  158A  246F   	fcall	_SPI_Write_Reg
              120A  118A         
  3068  0121  2922               	goto	l2062
  3069                           opt subtitle "HI-TECH Software Omniscient Code Generator (Lite mode) build 49521"
  3070  0122                     l250:	
  3071                           opt subtitle "HI-TECH Software Omniscient Code Generator (Lite mode) build 49521"
  3072                           
  3073  0122                     l2062:	
  3074                           opt subtitle "HI-TECH Software Omniscient Code Generator (Lite mode) build 49521"
  3075  0122  3016               	movlw	(016h)
  3076  0123  1283               	bcf	status, 5	;RP0=0, select bank0
  3077  0124  1303               	bcf	status, 6	;RP1=0, select bank0
  3078  0125  00BC               	movwf	(??_RFM70_Initialize+0)+0
  3079  0126  083C               	movf	(??_RFM70_Initialize+0)+0,w
  3080  0127  00CF               	movwf	(RFM70_Initialize@i)
  3081                           opt subtitle "HI-TECH Software Omniscient Code Generator (Lite mode) build 49521"
  3082  0128                     l2064:	
  3083  0128  3015               	movlw	(015h)
  3084  0129  024F               	subwf	(RFM70_Initialize@i),w
  3085  012A  1803               	skipnc
  3086  012B  292D               	goto	u1621
  3087  012C  292E               	goto	u1620
  3088  012D                     u1621:
  3089  012D  2930               	goto	l2068
  3090  012E                     u1620:
  3091  012E  295F               	goto	l2074
  3092                           opt subtitle "HI-TECH Software Omniscient Code Generator (Lite mode) build 49521"
  3093  012F                     l2066:	
  3094  012F  295F               	goto	l2074
  3095                           opt subtitle "HI-TECH Software Omniscient Code Generator (Lite mode) build 49521"
  3096                           
  3097  0130                     l251:	
  3098                           opt subtitle "HI-TECH Software Omniscient Code Generator (Lite mode) build 49521"
  3099                           
  3100  0130                     l2068:	
  3101                           opt subtitle "HI-TECH Software Omniscient Code Generator (Lite mode) build 49521"
  3102                           
  3103  0130  1403               	setc
  3104  0131  0D4F               	rlf	(RFM70_Initialize@i),w
  3105  0132  3E4A               	addlw	low(_Bank0_Reg|8000h)
  3106  0133  0084               	movwf	fsr0
  3107  0134  3088               	movlw	high(_Bank0_Reg|8000h)
  3108  0135  1803               	skipnc
  3109  0136  3E01               	addlw	1
  3110  0137  00FF               	movwf	btemp+1
  3111  0138  120A  158A  2000   	fcall	stringtab
              120A  118A         
  3112  013D  00BC               	movwf	(??_RFM70_Initialize+0)+0
  3113  013E  083C               	movf	(??_RFM70_Initialize+0)+0,w
  3114  013F  00B6               	movwf	(?_SPI_Write_Reg)
  3115  0140  084F               	movf	(RFM70_Initialize@i),w
  3116  0141  00BD               	movwf	(??_RFM70_Initialize+1)+0
  3117  0142  073D               	addwf	(??_RFM70_Initialize+1)+0,w
  3118  0143  3E4A               	addlw	low(_Bank0_Reg|8000h)
  3119  0144  0084               	movwf	fsr0
  3120  0145  3088               	movlw	high(_Bank0_Reg|8000h)
  3121  0146  1803               	skipnc
  3122  0147  3E01               	addlw	1
  3123  0148  00FF               	movwf	btemp+1
  3124  0149  120A  158A  2000   	fcall	stringtab
              120A  118A         
  3125  014E  3820               	iorlw	020h
  3126  014F  120A  158A  246F   	fcall	_SPI_Write_Reg
              120A  118A         
  3127                           opt subtitle "HI-TECH Software Omniscient Code Generator (Lite mode) build 49521"
  3128                           
  3129  0154                     l2070:	
  3130  0154  3001               	movlw	low(01h)
  3131  0155  1283               	bcf	status, 5	;RP0=0, select bank0
  3132  0156  1303               	bcf	status, 6	;RP1=0, select bank0
  3133  0157  02CF               	subwf	(RFM70_Initialize@i),f
  3134                           opt subtitle "HI-TECH Software Omniscient Code Generator (Lite mode) build 49521"
  3135  0158                     l2072:	
  3136  0158  3015               	movlw	(015h)
  3137  0159  024F               	subwf	(RFM70_Initialize@i),w
  3138  015A  1803               	skipnc
  3139  015B  295D               	goto	u1631
  3140  015C  295E               	goto	u1630
  3141  015D                     u1631:
  3142  015D  2930               	goto	l2068
  3143  015E                     u1630:
  3144  015E  295F               	goto	l2074
  3145                           opt subtitle "HI-TECH Software Omniscient Code Generator (Lite mode) build 49521"
  3146  015F                     l252:	
  3147                           opt subtitle "HI-TECH Software Omniscient Code Generator (Lite mode) build 49521"
  3148                           
  3149  015F                     l2074:	
  3150                           opt subtitle "HI-TECH Software Omniscient Code Generator (Lite mode) build 49521"
  3151                           
  3152  015F  3001               	movlw	(01h)
  3153  0160  120A  158A  25E9   	fcall	_SwitchCFG
              120A  118A         
  3154                           opt subtitle "HI-TECH Software Omniscient Code Generator (Lite mode) build 49521"
  3155                           
  3156  0165                     l2076:	
  3157                           opt subtitle "HI-TECH Software Omniscient Code Generator (Lite mode) build 49521"
  3158  0165  1283               	bcf	status, 5	;RP0=0, select bank0
  3159  0166  1303               	bcf	status, 6	;RP1=0, select bank0
  3160  0167  01CF               	clrf	(RFM70_Initialize@i)
  3161                           opt subtitle "HI-TECH Software Omniscient Code Generator (Lite mode) build 49521"
  3162  0168                     l2078:	
  3163  0168  3009               	movlw	(09h)
  3164  0169  024F               	subwf	(RFM70_Initialize@i),w
  3165  016A  1C03               	skipc
  3166  016B  296D               	goto	u1641
  3167  016C  296E               	goto	u1640
  3168  016D                     u1641:
  3169  016D  2970               	goto	l253
  3170  016E                     u1640:
  3171  016E  29E4               	goto	l2098
  3172                           opt subtitle "HI-TECH Software Omniscient Code Generator (Lite mode) build 49521"
  3173  016F                     l2080:	
  3174  016F  29E4               	goto	l2098
  3175                           opt subtitle "HI-TECH Software Omniscient Code Generator (Lite mode) build 49521"
  3176                           
  3177  0170                     l253:	
  3178                           opt subtitle "HI-TECH Software Omniscient Code Generator (Lite mode) build 49521"
  3179                           
  3180                           opt pagewidth 120
  3181  0170  01D0               	clrf	(RFM70_Initialize@j)
  3182                           opt subtitle "HI-TECH Software Omniscient Code Generator (Lite mode) build 49521"
  3183  0171                     l2082:	
  3184  0171  3004               	movlw	(04h)
  3185  0172  0250               	subwf	(RFM70_Initialize@j),w
  3186  0173  1C03               	skipc
  3187  0174  2976               	goto	u1651
  3188  0175  2977               	goto	u1650
  3189  0176                     u1651:
  3190  0176  2979               	goto	l2086
  3191  0177                     u1650:
  3192  0177  29C8               	goto	l2092
  3193                           opt subtitle "HI-TECH Software Omniscient Code Generator (Lite mode) build 49521"
  3194  0178                     l2084:	
  3195  0178  29C8               	goto	l2092
  3196                           opt subtitle "HI-TECH Software Omniscient Code Generator (Lite mode) build 49521"
  3197                           
  3198  0179                     l255:	
  3199                           opt subtitle "HI-TECH Software Omniscient Code Generator (Lite mode) build 49521"
  3200  0179                     l2086:	
  3201                           opt subtitle "HI-TECH Software Omniscient Code Generator (Lite mode) build 49521"
  3202  0179  084F               	movf	(RFM70_Initialize@i),w
  3203  017A  00BC               	movwf	(??_RFM70_Initialize+0)+0
  3204  017B  3001               	movlw	(02h)-1
  3205  017C                     u1665:
  3206  017C  1003               	clrc
  3207  017D  0DBC               	rlf	(??_RFM70_Initialize+0)+0,f
  3208  017E  3EFF               	addlw	-1
  3209  017F  1D03               	skipz
  3210  0180  297C               	goto	u1665
  3211  0181  1003               	clrc
  3212  0182  0D3C               	rlf	(??_RFM70_Initialize+0)+0,w
  3213  0183  3E12               	addlw	low(_Bank1_Reg0_13|8000h)
  3214  0184  0084               	movwf	fsr0
  3215  0185  3088               	movlw	high(_Bank1_Reg0_13|8000h)
  3216  0186  1803               	skipnc
  3217  0187  3E01               	addlw	1
  3218  0188  00FF               	movwf	btemp+1
  3219  0189  120A  158A  2000   	fcall	stringtab
              120A  118A         
  3220  018E  00BD               	movwf	((??_RFM70_Initialize+1)+0)
  3221  018F  120A  158A  2000   	fcall	stringtab
              120A  118A         
  3222  0194  00BE               	movwf	((??_RFM70_Initialize+1)+0+1)
  3223  0195  120A  158A  2000   	fcall	stringtab
              120A  118A         
  3224  019A  00BF               	movwf	((??_RFM70_Initialize+1)+0+2)
  3225  019B  120A  158A  2000   	fcall	stringtab
              120A  118A         
  3226  01A0  00C0               	movwf	((??_RFM70_Initialize+1)+0+3)
  3227  01A1  0850               	movf	(RFM70_Initialize@j),w
  3228  01A2  00C1               	movwf	(??_RFM70_Initialize+5)+0
  3229  01A3  3002               	movlw	(03h)-1
  3230  01A4                     u1675:
  3231  01A4  1003               	clrc
  3232  01A5  0DC1               	rlf	(??_RFM70_Initialize+5)+0,f
  3233  01A6  3EFF               	addlw	-1
  3234  01A7  1D03               	skipz
  3235  01A8  29A4               	goto	u1675
  3236  01A9  1003               	clrc
  3237  01AA  0D41               	rlf	(??_RFM70_Initialize+5)+0,w
  3238  01AB  3E01               	addlw	1
  3239  01AC  29B2               	goto	u1680
  3240  01AD                     u1685:
  3241  01AD  1003               	clrc
  3242  01AE  0CC0               	rrf	(??_RFM70_Initialize+1)+3,f
  3243  01AF  0CBF               	rrf	(??_RFM70_Initialize+1)+2,f
  3244  01B0  0CBE               	rrf	(??_RFM70_Initialize+1)+1,f
  3245  01B1  0CBD               	rrf	(??_RFM70_Initialize+1)+0,f
  3246  01B2                     u1680:
  3247  01B2  3EFF               	addlw	-1
  3248  01B3  1D03               	skipz
  3249  01B4  29AD               	goto	u1685
  3250  01B5  083D               	movf	0+(??_RFM70_Initialize+1)+0,w
  3251  01B6  00C2               	movwf	(??_RFM70_Initialize+6)+0
  3252  01B7  0850               	movf	(RFM70_Initialize@j),w
  3253  01B8  3E43               	addlw	RFM70_Initialize@WriteArr&0ffh
  3254  01B9  0084               	movwf	fsr0
  3255  01BA  0842               	movf	(??_RFM70_Initialize+6)+0,w
  3256  01BB  1383               	bcf	status, 7	;select IRP bank0
  3257  01BC  0080               	movwf	indf
  3258                           opt subtitle "HI-TECH Software Omniscient Code Generator (Lite mode) build 49521"
  3259                           
  3260  01BD                     l2088:	
  3261  01BD  3001               	movlw	(01h)
  3262  01BE  00BC               	movwf	(??_RFM70_Initialize+0)+0
  3263  01BF  083C               	movf	(??_RFM70_Initialize+0)+0,w
  3264  01C0  07D0               	addwf	(RFM70_Initialize@j),f
  3265                           opt subtitle "HI-TECH Software Omniscient Code Generator (Lite mode) build 49521"
  3266  01C1                     l2090:	
  3267  01C1  3004               	movlw	(04h)
  3268  01C2  0250               	subwf	(RFM70_Initialize@j),w
  3269  01C3  1C03               	skipc
  3270  01C4  29C6               	goto	u1691
  3271  01C5  29C7               	goto	u1690
  3272  01C6                     u1691:
  3273  01C6  2979               	goto	l2086
  3274  01C7                     u1690:
  3275  01C7  29C8               	goto	l2092
  3276                           opt subtitle "HI-TECH Software Omniscient Code Generator (Lite mode) build 49521"
  3277  01C8                     l256:	
  3278                           opt subtitle "HI-TECH Software Omniscient Code Generator (Lite mode) build 49521"
  3279                           
  3280  01C8                     l2092:	
  3281                           opt subtitle "HI-TECH Software Omniscient Code Generator (Lite mode) build 49521"
  3282  01C8  3043               	movlw	(RFM70_Initialize@WriteArr)&0ffh
  3283  01C9  00BC               	movwf	(??_RFM70_Initialize+0)+0
  3284  01CA  083C               	movf	(??_RFM70_Initialize+0)+0,w
  3285  01CB  00B6               	movwf	(?_SPI_Write_Buf)
  3286  01CC  3004               	movlw	(04h)
  3287  01CD  00BD               	movwf	(??_RFM70_Initialize+1)+0
  3288  01CE  083D               	movf	(??_RFM70_Initialize+1)+0,w
  3289  01CF  00B7               	movwf	0+(?_SPI_Write_Buf)+01h
  3290  01D0  084F               	movf	(RFM70_Initialize@i),w
  3291  01D1  3820               	iorlw	020h
  3292  01D2  120A  158A  2569   	fcall	_SPI_Write_Buf
              120A  118A         
  3293                           opt subtitle "HI-TECH Software Omniscient Code Generator (Lite mode) build 49521"
  3294                           
  3295  01D7                     l2094:	
  3296  01D7  3001               	movlw	(01h)
  3297  01D8  1283               	bcf	status, 5	;RP0=0, select bank0
  3298  01D9  1303               	bcf	status, 6	;RP1=0, select bank0
  3299  01DA  00BC               	movwf	(??_RFM70_Initialize+0)+0
  3300  01DB  083C               	movf	(??_RFM70_Initialize+0)+0,w
  3301  01DC  07CF               	addwf	(RFM70_Initialize@i),f
  3302                           opt subtitle "HI-TECH Software Omniscient Code Generator (Lite mode) build 49521"
  3303  01DD                     l2096:	
  3304  01DD  3009               	movlw	(09h)
  3305  01DE  024F               	subwf	(RFM70_Initialize@i),w
  3306  01DF  1C03               	skipc
  3307  01E0  29E2               	goto	u1701
  3308  01E1  29E3               	goto	u1700
  3309  01E2                     u1701:
  3310  01E2  2970               	goto	l253
  3311  01E3                     u1700:
  3312  01E3  29E4               	goto	l2098
  3313                           opt subtitle "HI-TECH Software Omniscient Code Generator (Lite mode) build 49521"
  3314  01E4                     l254:	
  3315                           opt subtitle "HI-TECH Software Omniscient Code Generator (Lite mode) build 49521"
  3316                           
  3317  01E4                     l2098:	
  3318                           opt subtitle "HI-TECH Software Omniscient Code Generator (Lite mode) build 49521"
  3319                           
  3320  01E4  3009               	movlw	(09h)
  3321  01E5  00BC               	movwf	(??_RFM70_Initialize+0)+0
  3322  01E6  083C               	movf	(??_RFM70_Initialize+0)+0,w
  3323  01E7  00CF               	movwf	(RFM70_Initialize@i)
  3324  01E8  300E               	movlw	(0Eh)
  3325  01E9  024F               	subwf	(RFM70_Initialize@i),w
  3326  01EA  1C03               	skipc
  3327  01EB  29ED               	goto	u1711
  3328  01EC  29EE               	goto	u1710
  3329  01ED                     u1711:
  3330  01ED  29F0               	goto	l257
  3331  01EE                     u1710:
  3332  01EE  2A65               	goto	l258
  3333                           opt subtitle "HI-TECH Software Omniscient Code Generator (Lite mode) build 49521"
  3334  01EF                     l2100:	
  3335  01EF  2A65               	goto	l258
  3336                           opt subtitle "HI-TECH Software Omniscient Code Generator (Lite mode) build 49521"
  3337                           
  3338  01F0                     l257:	
  3339                           opt subtitle "HI-TECH Software Omniscient Code Generator (Lite mode) build 49521"
  3340                           
  3341                           opt pagewidth 120
  3342  01F0  01D0               	clrf	(RFM70_Initialize@j)
  3343                           opt subtitle "HI-TECH Software Omniscient Code Generator (Lite mode) build 49521"
  3344  01F1                     l2102:	
  3345  01F1  3004               	movlw	(04h)
  3346  01F2  0250               	subwf	(RFM70_Initialize@j),w
  3347  01F3  1C03               	skipc
  3348  01F4  29F6               	goto	u1721
  3349  01F5  29F7               	goto	u1720
  3350  01F6                     u1721:
  3351  01F6  29F9               	goto	l2106
  3352  01F7                     u1720:
  3353  01F7  2A4A               	goto	l2112
  3354                           opt subtitle "HI-TECH Software Omniscient Code Generator (Lite mode) build 49521"
  3355  01F8                     l2104:	
  3356  01F8  2A4A               	goto	l2112
  3357                           opt subtitle "HI-TECH Software Omniscient Code Generator (Lite mode) build 49521"
  3358                           
  3359  01F9                     l259:	
  3360                           opt subtitle "HI-TECH Software Omniscient Code Generator (Lite mode) build 49521"
  3361  01F9                     l2106:	
  3362                           opt subtitle "HI-TECH Software Omniscient Code Generator (Lite mode) build 49521"
  3363  01F9  084F               	movf	(RFM70_Initialize@i),w
  3364  01FA  00BC               	movwf	(??_RFM70_Initialize+0)+0
  3365  01FB  3001               	movlw	(02h)-1
  3366  01FC                     u1735:
  3367  01FC  1003               	clrc
  3368  01FD  0DBC               	rlf	(??_RFM70_Initialize+0)+0,f
  3369  01FE  3EFF               	addlw	-1
  3370  01FF  1D03               	skipz
  3371  0200  29FC               	goto	u1735
  3372  0201  1003               	clrc
  3373  0202  0D3C               	rlf	(??_RFM70_Initialize+0)+0,w
  3374  0203  3E12               	addlw	low(_Bank1_Reg0_13|8000h)
  3375  0204  0084               	movwf	fsr0
  3376  0205  3088               	movlw	high(_Bank1_Reg0_13|8000h)
  3377  0206  1803               	skipnc
  3378  0207  3E01               	addlw	1
  3379  0208  00FF               	movwf	btemp+1
  3380  0209  120A  158A  2000   	fcall	stringtab
              120A  118A         
  3381  020E  00BD               	movwf	((??_RFM70_Initialize+1)+0)
  3382  020F  120A  158A  2000   	fcall	stringtab
              120A  118A         
  3383  0214  00BE               	movwf	((??_RFM70_Initialize+1)+0+1)
  3384  0215  120A  158A  2000   	fcall	stringtab
              120A  118A         
  3385  021A  00BF               	movwf	((??_RFM70_Initialize+1)+0+2)
  3386  021B  120A  158A  2000   	fcall	stringtab
              120A  118A         
  3387  0220  00C0               	movwf	((??_RFM70_Initialize+1)+0+3)
  3388  0221  0350               	decf	(RFM70_Initialize@j),w
  3389  0222  3AFF               	xorlw	0ffh
  3390  0223  00C1               	movwf	(??_RFM70_Initialize+5)+0
  3391  0224  3002               	movlw	(03h)-1
  3392  0225                     u1745:
  3393  0225  1003               	clrc
  3394  0226  0DC1               	rlf	(??_RFM70_Initialize+5)+0,f
  3395  0227  3EFF               	addlw	-1
  3396  0228  1D03               	skipz
  3397  0229  2A25               	goto	u1745
  3398  022A  1003               	clrc
  3399  022B  0D41               	rlf	(??_RFM70_Initialize+5)+0,w
  3400  022C  3E18               	addlw	018h
  3401  022D  3E01               	addlw	1
  3402  022E  2A34               	goto	u1750
  3403  022F                     u1755:
  3404  022F  1003               	clrc
  3405  0230  0CC0               	rrf	(??_RFM70_Initialize+1)+3,f
  3406  0231  0CBF               	rrf	(??_RFM70_Initialize+1)+2,f
  3407  0232  0CBE               	rrf	(??_RFM70_Initialize+1)+1,f
  3408  0233  0CBD               	rrf	(??_RFM70_Initialize+1)+0,f
  3409  0234                     u1750:
  3410  0234  3EFF               	addlw	-1
  3411  0235  1D03               	skipz
  3412  0236  2A2F               	goto	u1755
  3413  0237  083D               	movf	0+(??_RFM70_Initialize+1)+0,w
  3414  0238  00C2               	movwf	(??_RFM70_Initialize+6)+0
  3415  0239  0850               	movf	(RFM70_Initialize@j),w
  3416  023A  3E43               	addlw	RFM70_Initialize@WriteArr&0ffh
  3417  023B  0084               	movwf	fsr0
  3418  023C  0842               	movf	(??_RFM70_Initialize+6)+0,w
  3419  023D  1383               	bcf	status, 7	;select IRP bank0
  3420  023E  0080               	movwf	indf
  3421                           opt subtitle "HI-TECH Software Omniscient Code Generator (Lite mode) build 49521"
  3422                           
  3423  023F                     l2108:	
  3424  023F  3001               	movlw	(01h)
  3425  0240  00BC               	movwf	(??_RFM70_Initialize+0)+0
  3426  0241  083C               	movf	(??_RFM70_Initialize+0)+0,w
  3427  0242  07D0               	addwf	(RFM70_Initialize@j),f
  3428                           opt subtitle "HI-TECH Software Omniscient Code Generator (Lite mode) build 49521"
  3429  0243                     l2110:	
  3430  0243  3004               	movlw	(04h)
  3431  0244  0250               	subwf	(RFM70_Initialize@j),w
  3432  0245  1C03               	skipc
  3433  0246  2A48               	goto	u1761
  3434  0247  2A49               	goto	u1760
  3435  0248                     u1761:
  3436  0248  29F9               	goto	l2106
  3437  0249                     u1760:
  3438  0249  2A4A               	goto	l2112
  3439                           opt subtitle "HI-TECH Software Omniscient Code Generator (Lite mode) build 49521"
  3440  024A                     l260:	
  3441                           opt subtitle "HI-TECH Software Omniscient Code Generator (Lite mode) build 49521"
  3442                           
  3443  024A                     l2112:	
  3444                           opt subtitle "HI-TECH Software Omniscient Code Generator (Lite mode) build 49521"
  3445  024A  3043               	movlw	(RFM70_Initialize@WriteArr)&0ffh
  3446  024B  00BC               	movwf	(??_RFM70_Initialize+0)+0
  3447  024C  083C               	movf	(??_RFM70_Initialize+0)+0,w
  3448  024D  00B6               	movwf	(?_SPI_Write_Buf)
  3449  024E  3004               	movlw	(04h)
  3450  024F  00BD               	movwf	(??_RFM70_Initialize+1)+0
  3451  0250  083D               	movf	(??_RFM70_Initialize+1)+0,w
  3452  0251  00B7               	movwf	0+(?_SPI_Write_Buf)+01h
  3453  0252  084F               	movf	(RFM70_Initialize@i),w
  3454  0253  3820               	iorlw	020h
  3455  0254  120A  158A  2569   	fcall	_SPI_Write_Buf
              120A  118A         
  3456                           opt subtitle "HI-TECH Software Omniscient Code Generator (Lite mode) build 49521"
  3457                           
  3458  0259                     l2114:	
  3459  0259  3001               	movlw	(01h)
  3460  025A  1283               	bcf	status, 5	;RP0=0, select bank0
  3461  025B  1303               	bcf	status, 6	;RP1=0, select bank0
  3462  025C  00BC               	movwf	(??_RFM70_Initialize+0)+0
  3463  025D  083C               	movf	(??_RFM70_Initialize+0)+0,w
  3464  025E  07CF               	addwf	(RFM70_Initialize@i),f
  3465                           opt subtitle "HI-TECH Software Omniscient Code Generator (Lite mode) build 49521"
  3466  025F                     l2116:	
  3467  025F  300E               	movlw	(0Eh)
  3468  0260  024F               	subwf	(RFM70_Initialize@i),w
  3469  0261  1C03               	skipc
  3470  0262  2A64               	goto	u1771
  3471  0263  2A65               	goto	u1770
  3472  0264                     u1771:
  3473  0264  29F0               	goto	l257
  3474  0265                     u1770:
  3475                           opt subtitle "HI-TECH Software Omniscient Code Generator (Lite mode) build 49521"
  3476  0265                     l258:	
  3477                           opt subtitle "HI-TECH Software Omniscient Code Generator (Lite mode) build 49521"
  3478                           
  3479                           opt pagewidth 120
  3480  0265  01D0               	clrf	(RFM70_Initialize@j)
  3481                           opt subtitle "HI-TECH Software Omniscient Code Generator (Lite mode) build 49521"
  3482  0266                     l2118:	
  3483  0266  300B               	movlw	(0Bh)
  3484  0267  0250               	subwf	(RFM70_Initialize@j),w
  3485  0268  1C03               	skipc
  3486  0269  2A6B               	goto	u1781
  3487  026A  2A6C               	goto	u1780
  3488  026B                     u1781:
  3489  026B  2A6E               	goto	l2122
  3490  026C                     u1780:
  3491  026C  2A8C               	goto	l2128
  3492                           opt subtitle "HI-TECH Software Omniscient Code Generator (Lite mode) build 49521"
  3493  026D                     l2120:	
  3494  026D  2A8C               	goto	l2128
  3495                           opt subtitle "HI-TECH Software Omniscient Code Generator (Lite mode) build 49521"
  3496                           
  3497  026E                     l261:	
  3498                           opt subtitle "HI-TECH Software Omniscient Code Generator (Lite mode) build 49521"
  3499                           
  3500  026E                     l2122:	
  3501                           opt subtitle "HI-TECH Software Omniscient Code Generator (Lite mode) build 49521"
  3502                           
  3503  026E  0850               	movf	(RFM70_Initialize@j),w
  3504  026F  3E78               	addlw	low(_Bank1_Reg14|8000h)
  3505  0270  0084               	movwf	fsr0
  3506  0271  3088               	movlw	high(_Bank1_Reg14|8000h)
  3507  0272  1803               	skipnc
  3508  0273  3E01               	addlw	1
  3509  0274  00FF               	movwf	btemp+1
  3510  0275  120A  158A  2000   	fcall	stringtab
              120A  118A         
  3511  027A  00BC               	movwf	(??_RFM70_Initialize+0)+0
  3512  027B  0850               	movf	(RFM70_Initialize@j),w
  3513  027C  3E43               	addlw	RFM70_Initialize@WriteArr&0ffh
  3514  027D  0084               	movwf	fsr0
  3515  027E  083C               	movf	(??_RFM70_Initialize+0)+0,w
  3516  027F  1383               	bcf	status, 7	;select IRP bank0
  3517  0280  0080               	movwf	indf
  3518                           opt subtitle "HI-TECH Software Omniscient Code Generator (Lite mode) build 49521"
  3519                           
  3520  0281                     l2124:	
  3521  0281  3001               	movlw	(01h)
  3522  0282  00BC               	movwf	(??_RFM70_Initialize+0)+0
  3523  0283  083C               	movf	(??_RFM70_Initialize+0)+0,w
  3524  0284  07D0               	addwf	(RFM70_Initialize@j),f
  3525                           opt subtitle "HI-TECH Software Omniscient Code Generator (Lite mode) build 49521"
  3526  0285                     l2126:	
  3527  0285  300B               	movlw	(0Bh)
  3528  0286  0250               	subwf	(RFM70_Initialize@j),w
  3529  0287  1C03               	skipc
  3530  0288  2A8A               	goto	u1791
  3531  0289  2A8B               	goto	u1790
  3532  028A                     u1791:
  3533  028A  2A6E               	goto	l2122
  3534  028B                     u1790:
  3535  028B  2A8C               	goto	l2128
  3536                           opt subtitle "HI-TECH Software Omniscient Code Generator (Lite mode) build 49521"
  3537  028C                     l262:	
  3538                           opt subtitle "HI-TECH Software Omniscient Code Generator (Lite mode) build 49521"
  3539                           
  3540  028C                     l2128:	
  3541                           opt subtitle "HI-TECH Software Omniscient Code Generator (Lite mode) build 49521"
  3542                           
  3543  028C  3043               	movlw	(RFM70_Initialize@WriteArr)&0ffh
  3544  028D  00BC               	movwf	(??_RFM70_Initialize+0)+0
  3545  028E  083C               	movf	(??_RFM70_Initialize+0)+0,w
  3546  028F  00B6               	movwf	(?_SPI_Write_Buf)
  3547  0290  300B               	movlw	(0Bh)
  3548  0291  00BD               	movwf	(??_RFM70_Initialize+1)+0
  3549  0292  083D               	movf	(??_RFM70_Initialize+1)+0,w
  3550  0293  00B7               	movwf	0+(?_SPI_Write_Buf)+01h
  3551  0294  302E               	movlw	(02Eh)
  3552  0295  120A  158A  2569   	fcall	_SPI_Write_Buf
              120A  118A         
  3553                           opt subtitle "HI-TECH Software Omniscient Code Generator (Lite mode) build 49521"
  3554                           
  3555  029A                     l2130:	
  3556                           opt subtitle "HI-TECH Software Omniscient Code Generator (Lite mode) build 49521"
  3557  029A  1283               	bcf	status, 5	;RP0=0, select bank0
  3558  029B  1303               	bcf	status, 6	;RP1=0, select bank0
  3559  029C  01D0               	clrf	(RFM70_Initialize@j)
  3560                           opt subtitle "HI-TECH Software Omniscient Code Generator (Lite mode) build 49521"
  3561  029D                     l2132:	
  3562  029D  3004               	movlw	(04h)
  3563  029E  0250               	subwf	(RFM70_Initialize@j),w
  3564  029F  1C03               	skipc
  3565  02A0  2AA2               	goto	u1801
  3566  02A1  2AA3               	goto	u1800
  3567  02A2                     u1801:
  3568  02A2  2AA5               	goto	l2136
  3569  02A3                     u1800:
  3570  02A3  2AE8               	goto	l2142
  3571                           opt subtitle "HI-TECH Software Omniscient Code Generator (Lite mode) build 49521"
  3572  02A4                     l2134:	
  3573  02A4  2AE8               	goto	l2142
  3574                           opt subtitle "HI-TECH Software Omniscient Code Generator (Lite mode) build 49521"
  3575                           
  3576  02A5                     l263:	
  3577                           opt subtitle "HI-TECH Software Omniscient Code Generator (Lite mode) build 49521"
  3578  02A5                     l2136:	
  3579                           opt subtitle "HI-TECH Software Omniscient Code Generator (Lite mode) build 49521"
  3580  02A5  3022               	movlw	low(_Bank1_Reg0_13|8000h+010h)
  3581  02A6  0084               	movwf	fsr0
  3582  02A7  3088               	movlw	high(_Bank1_Reg0_13|8000h+010h)
  3583  02A8  00FF               	movwf	btemp+1
  3584  02A9  120A  158A  2000   	fcall	stringtab
              120A  118A         
  3585  02AE  00BC               	movwf	((??_RFM70_Initialize+0)+0)
  3586  02AF  120A  158A  2000   	fcall	stringtab
              120A  118A         
  3587  02B4  00BD               	movwf	((??_RFM70_Initialize+0)+0+1)
  3588  02B5  120A  158A  2000   	fcall	stringtab
              120A  118A         
  3589  02BA  00BE               	movwf	((??_RFM70_Initialize+0)+0+2)
  3590  02BB  120A  158A  2000   	fcall	stringtab
              120A  118A         
  3591  02C0  00BF               	movwf	((??_RFM70_Initialize+0)+0+3)
  3592  02C1  0850               	movf	(RFM70_Initialize@j),w
  3593  02C2  00C0               	movwf	(??_RFM70_Initialize+4)+0
  3594  02C3  3002               	movlw	(03h)-1
  3595  02C4                     u1815:
  3596  02C4  1003               	clrc
  3597  02C5  0DC0               	rlf	(??_RFM70_Initialize+4)+0,f
  3598  02C6  3EFF               	addlw	-1
  3599  02C7  1D03               	skipz
  3600  02C8  2AC4               	goto	u1815
  3601  02C9  1003               	clrc
  3602  02CA  0D40               	rlf	(??_RFM70_Initialize+4)+0,w
  3603  02CB  3E01               	addlw	1
  3604  02CC  2AD2               	goto	u1820
  3605  02CD                     u1825:
  3606  02CD  1003               	clrc
  3607  02CE  0CBF               	rrf	(??_RFM70_Initialize+0)+3,f
  3608  02CF  0CBE               	rrf	(??_RFM70_Initialize+0)+2,f
  3609  02D0  0CBD               	rrf	(??_RFM70_Initialize+0)+1,f
  3610  02D1  0CBC               	rrf	(??_RFM70_Initialize+0)+0,f
  3611  02D2                     u1820:
  3612  02D2  3EFF               	addlw	-1
  3613  02D3  1D03               	skipz
  3614  02D4  2ACD               	goto	u1825
  3615  02D5  083C               	movf	0+(??_RFM70_Initialize+0)+0,w
  3616  02D6  00C1               	movwf	(??_RFM70_Initialize+5)+0
  3617  02D7  0850               	movf	(RFM70_Initialize@j),w
  3618  02D8  3E43               	addlw	RFM70_Initialize@WriteArr&0ffh
  3619  02D9  0084               	movwf	fsr0
  3620  02DA  0841               	movf	(??_RFM70_Initialize+5)+0,w
  3621  02DB  1383               	bcf	status, 7	;select IRP bank0
  3622  02DC  0080               	movwf	indf
  3623                           opt subtitle "HI-TECH Software Omniscient Code Generator (Lite mode) build 49521"
  3624                           
  3625  02DD                     l2138:	
  3626  02DD  3001               	movlw	(01h)
  3627  02DE  00BC               	movwf	(??_RFM70_Initialize+0)+0
  3628  02DF  083C               	movf	(??_RFM70_Initialize+0)+0,w
  3629  02E0  07D0               	addwf	(RFM70_Initialize@j),f
  3630                           opt subtitle "HI-TECH Software Omniscient Code Generator (Lite mode) build 49521"
  3631  02E1                     l2140:	
  3632  02E1  3004               	movlw	(04h)
  3633  02E2  0250               	subwf	(RFM70_Initialize@j),w
  3634  02E3  1C03               	skipc
  3635  02E4  2AE6               	goto	u1831
  3636  02E5  2AE7               	goto	u1830
  3637  02E6                     u1831:
  3638  02E6  2AA5               	goto	l2136
  3639  02E7                     u1830:
  3640  02E7  2AE8               	goto	l2142
  3641                           opt subtitle "HI-TECH Software Omniscient Code Generator (Lite mode) build 49521"
  3642  02E8                     l264:	
  3643                           opt subtitle "HI-TECH Software Omniscient Code Generator (Lite mode) build 49521"
  3644                           
  3645  02E8                     l2142:	
  3646                           opt subtitle "HI-TECH Software Omniscient Code Generator (Lite mode) build 49521"
  3647  02E8  0843               	movf	(RFM70_Initialize@WriteArr),w
  3648  02E9  3806               	iorlw	06h
  3649  02EA  00BC               	movwf	(??_RFM70_Initialize+0)+0
  3650  02EB  083C               	movf	(??_RFM70_Initialize+0)+0,w
  3651  02EC  00C3               	movwf	(RFM70_Initialize@WriteArr)
  3652                           opt subtitle "HI-TECH Software Omniscient Code Generator (Lite mode) build 49521"
  3653                           
  3654  02ED                     l2144:	
  3655                           opt subtitle "HI-TECH Software Omniscient Code Generator (Lite mode) build 49521"
  3656  02ED  3043               	movlw	(RFM70_Initialize@WriteArr)&0ffh
  3657  02EE  00BC               	movwf	(??_RFM70_Initialize+0)+0
  3658  02EF  083C               	movf	(??_RFM70_Initialize+0)+0,w
  3659  02F0  00B6               	movwf	(?_SPI_Write_Buf)
  3660  02F1  3004               	movlw	(04h)
  3661  02F2  00BD               	movwf	(??_RFM70_Initialize+1)+0
  3662  02F3  083D               	movf	(??_RFM70_Initialize+1)+0,w
  3663  02F4  00B7               	movwf	0+(?_SPI_Write_Buf)+01h
  3664  02F5  3024               	movlw	(024h)
  3665  02F6  120A  158A  2569   	fcall	_SPI_Write_Buf
              120A  118A         
  3666                           opt subtitle "HI-TECH Software Omniscient Code Generator (Lite mode) build 49521"
  3667                           
  3668  02FB                     l2146:	
  3669                           opt subtitle "HI-TECH Software Omniscient Code Generator (Lite mode) build 49521"
  3670  02FB  1283               	bcf	status, 5	;RP0=0, select bank0
  3671  02FC  1303               	bcf	status, 6	;RP1=0, select bank0
  3672  02FD  0843               	movf	(RFM70_Initialize@WriteArr),w
  3673  02FE  39F9               	andlw	0F9h
  3674  02FF  00BC               	movwf	(??_RFM70_Initialize+0)+0
  3675  0300  083C               	movf	(??_RFM70_Initialize+0)+0,w
  3676  0301  00C3               	movwf	(RFM70_Initialize@WriteArr)
  3677                           opt subtitle "HI-TECH Software Omniscient Code Generator (Lite mode) build 49521"
  3678                           
  3679  0302  3043               	movlw	(RFM70_Initialize@WriteArr)&0ffh
  3680  0303  00BC               	movwf	(??_RFM70_Initialize+0)+0
  3681  0304  083C               	movf	(??_RFM70_Initialize+0)+0,w
  3682  0305  00B6               	movwf	(?_SPI_Write_Buf)
  3683  0306  3004               	movlw	(04h)
  3684  0307  00BD               	movwf	(??_RFM70_Initialize+1)+0
  3685  0308  083D               	movf	(??_RFM70_Initialize+1)+0,w
  3686  0309  00B7               	movwf	0+(?_SPI_Write_Buf)+01h
  3687  030A  3024               	movlw	(024h)
  3688  030B  120A  158A  2569   	fcall	_SPI_Write_Buf
              120A  118A         
  3689                           opt subtitle "HI-TECH Software Omniscient Code Generator (Lite mode) build 49521"
  3690                           
  3691  0310                     l2148:	
  3692                           opt subtitle "HI-TECH Software Omniscient Code Generator (Lite mode) build 49521"
  3693                           
  3694  0310  3082               movlw	130
  3695  0311  1283               	bcf	status, 5	;RP0=0, select bank0
  3696  0312  1303               	bcf	status, 6	;RP1=0, select bank0
  3697  0313  00BD               movwf	((??_RFM70_Initialize+0)+0+1),f
  3698  0314  30DD               	movlw	221
  3699  0315  00BC               movwf	((??_RFM70_Initialize+0)+0),f
  3700  0316                     u2537:
  3701  0316  0BBC               	decfsz	((??_RFM70_Initialize+0)+0),f
  3702  0317  2B16               	goto	u2537
  3703  0318  0BBD               	decfsz	((??_RFM70_Initialize+0)+0+1),f
  3704  0319  2B16               	goto	u2537
  3705  031A  2B1B               	nop2
  3706                           opt subtitle "HI-TECH Software Omniscient Code Generator (Lite mode) build 49521"
  3707                           
  3708                           opt pagewidth 120
  3709                           
  3710  031B                     l2150:	
  3711                           opt subtitle "HI-TECH Software Omniscient Code Generator (Lite mode) build 49521"
  3712  031B  3000               	movlw	(0)
  3713  031C  120A  158A  25E9   	fcall	_SwitchCFG
              120A  118A         
  3714                           opt subtitle "HI-TECH Software Omniscient Code Generator (Lite mode) build 49521"
  3715                           
  3716  0321                     l2152:	
  3717                           opt subtitle "HI-TECH Software Omniscient Code Generator (Lite mode) build 49521"
  3718  0321  1283               	bcf	status, 5	;RP0=0, select bank0
  3719  0322  1303               	bcf	status, 6	;RP1=0, select bank0
  3720  0323  1107               	bcf	(7),2	;volatile
  3721                           opt subtitle "HI-TECH Software Omniscient Code Generator (Lite mode) build 49521"
  3722                           
  3723  0324                     l265:	
  3724  0324  0008               	return
  3725                           opt subtitle "HI-TECH Software Omniscient Code Generator (Lite mode) build 49521"
  3726                           
  3727  0325                     	__end_of_RFM70_Initialize:
  3728                           opt subtitle "HI-TECH Software Omniscient Code Generator (Lite mode) build 49521"
  3729                           
  3730                           opt pagewidth 120
  3731                           
  3732                           	opt lm
  3733                           
  3734                           	processor	16F707
  3735                           clrc	macro
  3736                           	bcf	3,0
  3737                           	endm
  3738                           clrz	macro
  3739                           	bcf	3,2
  3740                           	endm
  3741                           setc	macro
  3742                           	bsf	3,0
  3743                           	endm
  3744                           setz	macro
  3745                           	bsf	3,2
  3746                           	endm
  3747                           skipc	macro
  3748                           	btfss	3,0
  3749                           	endm
  3750                           skipz	macro
  3751                           	btfss	3,2
  3752                           	endm
  3753                           skipnc	macro
  3754                           	btfsc	3,0
  3755                           	endm
  3756                           skipnz	macro
  3757                           	btfsc	3,2
  3758                           	endm
  3759                           indf	equ	0
  3760                           indf0	equ	0
  3761                           pc	equ	2
  3762                           pcl	equ	2
  3763                           status	equ	3
  3764                           fsr	equ	4
  3765                           fsr0	equ	4
  3766                           c	equ	1
  3767                           z	equ	0
  3768                           pclath	equ	10
  3769                           # 46 "/Applications/microchip/xc8/v1.12/include/pic16f707.h"
  3770                           INDF equ 00h ;# 
  3771                           # 52 "/Applications/microchip/xc8/v1.12/include/pic16f707.h"
  3772                           TMR0 equ 01h ;# 
  3773  0F31                     __ptext861:	;psect for function _Send_Packet
  3774                           opt subtitle "HI-TECH Software Omniscient Code Generator (Lite mode) build 49521"
  3775                           
  3776                           opt pagewidth 120
  3777                           
  3778  00CF                     	__size_of_Send_Packet	equ	__end_of_Send_Packet-_Send_Packet
  3779                           opt subtitle "HI-TECH Software Omniscient Code Generator (Lite mode) build 49521"
  3780  0F31                     _Send_Packet:	
  3781                           opt subtitle "HI-TECH Software Omniscient Code Generator (Lite mode) build 49521"
  3782                           
  3783                           opt pagewidth 120
  3784                           
  3785  0F31  1283               	bcf	status, 5	;RP0=0, select bank0
  3786  0F32  1303               	bcf	status, 6	;RP1=0, select bank0
  3787  0F33  00D6               	movwf	(Send_Packet@type)
  3788                           opt subtitle "HI-TECH Software Omniscient Code Generator (Lite mode) build 49521"
  3789  0F34                     l2154:	
  3790                           opt subtitle "HI-TECH Software Omniscient Code Generator (Lite mode) build 49521"
  3791                           
  3792  0F34  120A  158A  2593   	fcall	_SwitchToTxMode
              120A  158A         
  3793                           opt subtitle "HI-TECH Software Omniscient Code Generator (Lite mode) build 49521"
  3794                           
  3795  0F39  3017               	movlw	(017h)
  3796  0F3A  120A  158A  24C9   	fcall	_SPI_Read_Reg
              120A  158A         
  3797  0F3F  1283               	bcf	status, 5	;RP0=0, select bank0
  3798  0F40  1303               	bcf	status, 6	;RP1=0, select bank0
  3799  0F41  00D3               	movwf	(??_Send_Packet+0)+0
  3800  0F42  0853               	movf	(??_Send_Packet+0)+0,w
  3801  0F43  00D7               	movwf	(Send_Packet@fifo_sta)
  3802                           opt subtitle "HI-TECH Software Omniscient Code Generator (Lite mode) build 49521"
  3803                           
  3804  0F44                     l2156:	
  3805                           opt subtitle "HI-TECH Software Omniscient Code Generator (Lite mode) build 49521"
  3806  0F44  1AD7               	btfsc	(Send_Packet@fifo_sta),(5)&7
  3807  0F45  2F47               	goto	u1841
  3808  0F46  2F48               	goto	u1840
  3809  0F47                     u1841:
  3810  0F47  2FFF               	goto	l164
  3811  0F48                     u1840:
  3812                           opt subtitle "HI-TECH Software Omniscient Code Generator (Lite mode) build 49521"
  3813                           
  3814  0F48                     l2158:	
  3815                           opt subtitle "HI-TECH Software Omniscient Code Generator (Lite mode) build 49521"
  3816                           
  3817  0F48  300C               	movlw	low(STR_3|8000h)
  3818  0F49  00C1               	movwf	(?_printf)
  3819  0F4A  3089               	movlw	high(STR_3|8000h)
  3820  0F4B  00C2               	movwf	((?_printf))+1
  3821  0F4C  120A  118A  2325   	fcall	_printf
              120A  158A         
  3822                           opt subtitle "HI-TECH Software Omniscient Code Generator (Lite mode) build 49521"
  3823                           
  3824  0F51                     l2160:	
  3825                           opt subtitle "HI-TECH Software Omniscient Code Generator (Lite mode) build 49521"
  3826  0F51  1283               	bcf	status, 5	;RP0=0, select bank0
  3827  0F52  1303               	bcf	status, 6	;RP1=0, select bank0
  3828  0F53  01D8               	clrf	(Send_Packet@i)
  3829  0F54  2F72               	goto	l2166
  3830                           opt subtitle "HI-TECH Software Omniscient Code Generator (Lite mode) build 49521"
  3831  0F55                     l157:	
  3832                           opt subtitle "HI-TECH Software Omniscient Code Generator (Lite mode) build 49521"
  3833                           
  3834  0F55                     l2162:	
  3835                           opt subtitle "HI-TECH Software Omniscient Code Generator (Lite mode) build 49521"
  3836  0F55  301B               	movlw	low(STR_4|8000h)
  3837  0F56  00C1               	movwf	(?_printf)
  3838  0F57  3089               	movlw	high(STR_4|8000h)
  3839  0F58  00C2               	movwf	((?_printf))+1
  3840  0F59  0858               	movf	(Send_Packet@i),w
  3841  0F5A  0751               	addwf	(Send_Packet@pbuf),w
  3842  0F5B  00D3               	movwf	(??_Send_Packet+0)+0
  3843  0F5C  0853               	movf	0+(??_Send_Packet+0)+0,w
  3844  0F5D  0084               	movwf	fsr0
  3845  0F5E  1383               	bcf	status, 7	;select IRP bank0
  3846  0F5F  0800               	movf	indf,w
  3847  0F60  00D4               	movwf	(??_Send_Packet+1)+0+0
  3848  0F61  01D5               	clrf	(??_Send_Packet+1)+0+1
  3849  0F62  0854               	movf	0+(??_Send_Packet+1)+0,w
  3850  0F63  00C3               	movwf	0+(?_printf)+02h
  3851  0F64  0855               	movf	1+(??_Send_Packet+1)+0,w
  3852  0F65  00C4               	movwf	1+(?_printf)+02h
  3853  0F66  120A  118A  2325   	fcall	_printf
              120A  158A         
  3854                           opt subtitle "HI-TECH Software Omniscient Code Generator (Lite mode) build 49521"
  3855                           
  3856  0F6B                     l2164:	
  3857  0F6B  3001               	movlw	(01h)
  3858  0F6C  1283               	bcf	status, 5	;RP0=0, select bank0
  3859  0F6D  1303               	bcf	status, 6	;RP1=0, select bank0
  3860  0F6E  00D3               	movwf	(??_Send_Packet+0)+0
  3861  0F6F  0853               	movf	(??_Send_Packet+0)+0,w
  3862  0F70  07D8               	addwf	(Send_Packet@i),f
  3863  0F71  2F72               	goto	l2166
  3864                           opt subtitle "HI-TECH Software Omniscient Code Generator (Lite mode) build 49521"
  3865  0F72                     l156:	
  3866                           opt subtitle "HI-TECH Software Omniscient Code Generator (Lite mode) build 49521"
  3867  0F72                     l2166:	
  3868  0F72  0852               	movf	(Send_Packet@len),w
  3869  0F73  0258               	subwf	(Send_Packet@i),w
  3870  0F74  1C03               	skipc
  3871  0F75  2F77               	goto	u1851
  3872  0F76  2F78               	goto	u1850
  3873  0F77                     u1851:
  3874  0F77  2F55               	goto	l2162
  3875  0F78                     u1850:
  3876  0F78  2F79               	goto	l2168
  3877                           opt subtitle "HI-TECH Software Omniscient Code Generator (Lite mode) build 49521"
  3878  0F79                     l158:	
  3879                           opt subtitle "HI-TECH Software Omniscient Code Generator (Lite mode) build 49521"
  3880                           
  3881  0F79                     l2168:	
  3882                           opt subtitle "HI-TECH Software Omniscient Code Generator (Lite mode) build 49521"
  3883                           
  3884  0F79  3018               	movlw	low(STR_5|8000h)
  3885  0F7A  00C1               	movwf	(?_printf)
  3886  0F7B  3089               	movlw	high(STR_5|8000h)
  3887  0F7C  00C2               	movwf	((?_printf))+1
  3888  0F7D  120A  118A  2325   	fcall	_printf
              120A  158A         
  3889                           opt subtitle "HI-TECH Software Omniscient Code Generator (Lite mode) build 49521"
  3890                           
  3891  0F82                     l2170:	
  3892                           opt subtitle "HI-TECH Software Omniscient Code Generator (Lite mode) build 49521"
  3893  0F82  1283               	bcf	status, 5	;RP0=0, select bank0
  3894  0F83  1303               	bcf	status, 6	;RP1=0, select bank0
  3895  0F84  1107               	bcf	(7),2	;volatile
  3896                           opt subtitle "HI-TECH Software Omniscient Code Generator (Lite mode) build 49521"
  3897                           
  3898  0F85                     l2172:	
  3899                           opt subtitle "HI-TECH Software Omniscient Code Generator (Lite mode) build 49521"
  3900  0F85  0851               	movf	(Send_Packet@pbuf),w
  3901  0F86  00D3               	movwf	(??_Send_Packet+0)+0
  3902  0F87  0853               	movf	(??_Send_Packet+0)+0,w
  3903  0F88  00B6               	movwf	(?_SPI_Write_Buf)
  3904  0F89  0852               	movf	(Send_Packet@len),w
  3905  0F8A  00D4               	movwf	(??_Send_Packet+1)+0
  3906  0F8B  0854               	movf	(??_Send_Packet+1)+0,w
  3907  0F8C  00B7               	movwf	0+(?_SPI_Write_Buf)+01h
  3908  0F8D  0856               	movf	(Send_Packet@type),w
  3909  0F8E  120A  158A  2569   	fcall	_SPI_Write_Buf
              120A  158A         
  3910                           opt subtitle "HI-TECH Software Omniscient Code Generator (Lite mode) build 49521"
  3911                           
  3912  0F93                     l2174:	
  3913                           opt subtitle "HI-TECH Software Omniscient Code Generator (Lite mode) build 49521"
  3914  0F93  1283               	bcf	status, 5	;RP0=0, select bank0
  3915  0F94  1303               	bcf	status, 6	;RP1=0, select bank0
  3916  0F95  1507               	bsf	(7),2	;volatile
  3917                           opt subtitle "HI-TECH Software Omniscient Code Generator (Lite mode) build 49521"
  3918                           
  3919  0F96                     l2176:	
  3920                           opt subtitle "HI-TECH Software Omniscient Code Generator (Lite mode) build 49521"
  3921                           
  3922  0F96  3006               movlw	6
  3923  0F97  00D3               movwf	(??_Send_Packet+0)+0,f
  3924  0F98                     u2547:
  3925  0F98  0BD3               decfsz	(??_Send_Packet+0)+0,f
  3926  0F99  2F98               	goto	u2547
  3927  0F9A  0000               	nop
  3928                           opt subtitle "HI-TECH Software Omniscient Code Generator (Lite mode) build 49521"
  3929                           
  3930                           opt pagewidth 120
  3931                           
  3932  0F9B                     l2178:	
  3933                           opt subtitle "HI-TECH Software Omniscient Code Generator (Lite mode) build 49521"
  3934  0F9B  1283               	bcf	status, 5	;RP0=0, select bank0
  3935  0F9C  1303               	bcf	status, 6	;RP1=0, select bank0
  3936  0F9D  1107               	bcf	(7),2	;volatile
  3937                           opt subtitle "HI-TECH Software Omniscient Code Generator (Lite mode) build 49521"
  3938                           
  3939  0F9E                     l2180:	
  3940                           opt subtitle "HI-TECH Software Omniscient Code Generator (Lite mode) build 49521"
  3941                           
  3942  0F9E  3003               movlw	3
  3943  0F9F  00D4               movwf	((??_Send_Packet+0)+0+1),f
  3944  0FA0  3097               	movlw	151
  3945  0FA1  00D3               movwf	((??_Send_Packet+0)+0),f
  3946  0FA2                     u2557:
  3947  0FA2  0BD3               	decfsz	((??_Send_Packet+0)+0),f
  3948  0FA3  2FA2               	goto	u2557
  3949  0FA4  0BD4               	decfsz	((??_Send_Packet+0)+0+1),f
  3950  0FA5  2FA2               	goto	u2557
  3951  0FA6  2FA7               	nop2
  3952                           opt subtitle "HI-TECH Software Omniscient Code Generator (Lite mode) build 49521"
  3953                           
  3954                           opt pagewidth 120
  3955                           
  3956  0FA7  2FDF               	goto	l2194
  3957                           opt subtitle "HI-TECH Software Omniscient Code Generator (Lite mode) build 49521"
  3958  0FA8                     l160:	
  3959                           opt subtitle "HI-TECH Software Omniscient Code Generator (Lite mode) build 49521"
  3960                           
  3961  0FA8                     l2182:	
  3962                           opt subtitle "HI-TECH Software Omniscient Code Generator (Lite mode) build 49521"
  3963  0FA8  120A  158A  2501   	fcall	_rfm70TxDataSentInterrupt
              120A  158A         
  3964  0FAD  3A00               	xorlw	0
  3965  0FAE  1903               	skipnz
  3966  0FAF  2FB1               	goto	u1861
  3967  0FB0  2FB2               	goto	u1860
  3968  0FB1                     u1861:
  3969  0FB1  2FC3               	goto	l2188
  3970  0FB2                     u1860:
  3971                           opt subtitle "HI-TECH Software Omniscient Code Generator (Lite mode) build 49521"
  3972                           
  3973  0FB2                     l2184:	
  3974                           opt subtitle "HI-TECH Software Omniscient Code Generator (Lite mode) build 49521"
  3975  0FB2  30DF               	movlw	low(STR_6|8000h)
  3976  0FB3  1283               	bcf	status, 5	;RP0=0, select bank0
  3977  0FB4  1303               	bcf	status, 6	;RP1=0, select bank0
  3978  0FB5  00C1               	movwf	(?_printf)
  3979  0FB6  3088               	movlw	high(STR_6|8000h)
  3980  0FB7  00C2               	movwf	((?_printf))+1
  3981  0FB8  120A  118A  2325   	fcall	_printf
              120A  158A         
  3982                           opt subtitle "HI-TECH Software Omniscient Code Generator (Lite mode) build 49521"
  3983                           
  3984  0FBD                     l2186:	
  3985                           opt subtitle "HI-TECH Software Omniscient Code Generator (Lite mode) build 49521"
  3986  0FBD  120A  158A  261B   	fcall	_SwitchToRxMode
              120A  158A         
  3987  0FC2  2FC3               	goto	l2188
  3988                           opt subtitle "HI-TECH Software Omniscient Code Generator (Lite mode) build 49521"
  3989                           
  3990  0FC3                     l161:	
  3991                           opt subtitle "HI-TECH Software Omniscient Code Generator (Lite mode) build 49521"
  3992                           
  3993  0FC3                     l2188:	
  3994                           opt subtitle "HI-TECH Software Omniscient Code Generator (Lite mode) build 49521"
  3995                           
  3996  0FC3  120A  158A  24E2   	fcall	_rfm70TxDataSentErrorInterrupt
              120A  158A         
  3997  0FC8  3A00               	xorlw	0
  3998  0FC9  1903               	skipnz
  3999  0FCA  2FCC               	goto	u1871
  4000  0FCB  2FCD               	goto	u1870
  4001  0FCC                     u1871:
  4002  0FCC  2FDF               	goto	l2194
  4003  0FCD                     u1870:
  4004                           opt subtitle "HI-TECH Software Omniscient Code Generator (Lite mode) build 49521"
  4005                           
  4006  0FCD                     l2190:	
  4007                           opt subtitle "HI-TECH Software Omniscient Code Generator (Lite mode) build 49521"
  4008  0FCD  30A3               	movlw	low(STR_7|8000h)
  4009  0FCE  1283               	bcf	status, 5	;RP0=0, select bank0
  4010  0FCF  1303               	bcf	status, 6	;RP1=0, select bank0
  4011  0FD0  00C1               	movwf	(?_printf)
  4012  0FD1  3088               	movlw	high(STR_7|8000h)
  4013  0FD2  00C2               	movwf	((?_printf))+1
  4014  0FD3  120A  118A  2325   	fcall	_printf
              120A  158A         
  4015                           opt subtitle "HI-TECH Software Omniscient Code Generator (Lite mode) build 49521"
  4016                           
  4017  0FD8                     l2192:	
  4018                           opt subtitle "HI-TECH Software Omniscient Code Generator (Lite mode) build 49521"
  4019  0FD8  120A  158A  261B   	fcall	_SwitchToRxMode
              120A  158A         
  4020  0FDD  2FDF               	goto	l2194
  4021                           opt subtitle "HI-TECH Software Omniscient Code Generator (Lite mode) build 49521"
  4022                           
  4023  0FDE                     l162:	
  4024  0FDE  2FDF               	goto	l2194
  4025                           opt subtitle "HI-TECH Software Omniscient Code Generator (Lite mode) build 49521"
  4026                           
  4027  0FDF                     l159:	
  4028                           opt subtitle "HI-TECH Software Omniscient Code Generator (Lite mode) build 49521"
  4029                           
  4030  0FDF                     l2194:	
  4031  0FDF  1283               	bcf	status, 5	;RP0=0, select bank0
  4032  0FE0  1303               	bcf	status, 6	;RP1=0, select bank0
  4033  0FE1  1C88               	btfss	(8),1	;volatile
  4034  0FE2  2FE4               	goto	u1881
  4035  0FE3  2FE5               	goto	u1880
  4036  0FE4                     u1881:
  4037  0FE4  2FA8               	goto	l2182
  4038  0FE5                     u1880:
  4039  0FE5  2FE6               	goto	l2196
  4040                           opt subtitle "HI-TECH Software Omniscient Code Generator (Lite mode) build 49521"
  4041  0FE6                     l163:	
  4042                           opt subtitle "HI-TECH Software Omniscient Code Generator (Lite mode) build 49521"
  4043                           
  4044  0FE6                     l2196:	
  4045                           opt subtitle "HI-TECH Software Omniscient Code Generator (Lite mode) build 49521"
  4046                           
  4047                           opt pagewidth 120
  4048  0FE6  3016               	movlw	low(STR_8|8000h)
  4049  0FE7  00C1               	movwf	(?_printf)
  4050  0FE8  3089               	movlw	high(STR_8|8000h)
  4051  0FE9  00C2               	movwf	((?_printf))+1
  4052  0FEA  120A  118A  2325   	fcall	_printf
              120A  158A         
  4053                           opt subtitle "HI-TECH Software Omniscient Code Generator (Lite mode) build 49521"
  4054                           
  4055  0FEF                     l2198:	
  4056                           opt subtitle "HI-TECH Software Omniscient Code Generator (Lite mode) build 49521"
  4057                           
  4058  0FEF  3002               movlw  2
  4059  0FF0  1283               	bcf	status, 5	;RP0=0, select bank0
  4060  0FF1  1303               	bcf	status, 6	;RP1=0, select bank0
  4061  0FF2  00D5               movwf	((??_Send_Packet+0)+0+2),f
  4062  0FF3  3004               movlw	4
  4063  0FF4  00D4               movwf	((??_Send_Packet+0)+0+1),f
  4064  0FF5  30BA               	movlw	186
  4065  0FF6  00D3               movwf	((??_Send_Packet+0)+0),f
  4066  0FF7                     u2567:
  4067  0FF7  0BD3               	decfsz	((??_Send_Packet+0)+0),f
  4068  0FF8  2FF7               	goto	u2567
  4069  0FF9  0BD4               	decfsz	((??_Send_Packet+0)+0+1),f
  4070  0FFA  2FF7               	goto	u2567
  4071  0FFB  0BD5               	decfsz	((??_Send_Packet+0)+0+2),f
  4072  0FFC  2FF7               	goto	u2567
  4073  0FFD  0000               	nop
  4074                           opt subtitle "HI-TECH Software Omniscient Code Generator (Lite mode) build 49521"
  4075                           
  4076  0FFE  2FFF               	goto	l164
  4077                           opt subtitle "HI-TECH Software Omniscient Code Generator (Lite mode) build 49521"
  4078                           
  4079  0FFF                     l155:	
  4080                           opt subtitle "HI-TECH Software Omniscient Code Generator (Lite mode) build 49521"
  4081                           
  4082  0FFF                     l164:	
  4083  0FFF  0008               	return
  4084                           opt subtitle "HI-TECH Software Omniscient Code Generator (Lite mode) build 49521"
  4085                           
  4086  1000                     	__end_of_Send_Packet:
  4087                           opt subtitle "HI-TECH Software Omniscient Code Generator (Lite mode) build 49521"
  4088                           
  4089                           opt pagewidth 120
  4090                           
  4091                           	opt lm
  4092                           
  4093                           	processor	16F707
  4094                           clrc	macro
  4095                           	bcf	3,0
  4096                           	endm
  4097                           clrz	macro
  4098                           	bcf	3,2
  4099                           	endm
  4100                           setc	macro
  4101                           	bsf	3,0
  4102                           	endm
  4103                           setz	macro
  4104                           	bsf	3,2
  4105                           	endm
  4106                           skipc	macro
  4107                           	btfss	3,0
  4108                           	endm
  4109                           skipz	macro
  4110                           	btfss	3,2
  4111                           	endm
  4112                           skipnc	macro
  4113                           	btfsc	3,0
  4114                           	endm
  4115                           skipnz	macro
  4116                           	btfsc	3,2
  4117                           	endm
  4118                           indf	equ	0
  4119                           indf0	equ	0
  4120                           pc	equ	2
  4121                           pcl	equ	2
  4122  0D93                     __ptext862:	;psect for function _SwitchToTxMode
  4123                           opt subtitle "HI-TECH Software Omniscient Code Generator (Lite mode) build 49521"
  4124                           
  4125                           opt pagewidth 120
  4126                           
  4127  002A                     	__size_of_SwitchToTxMode	equ	__end_of_SwitchToTxMode-_SwitchToTxMode
  4128                           opt subtitle "HI-TECH Software Omniscient Code Generator (Lite mode) build 49521"
  4129  0D93                     _SwitchToTxMode:	
  4130                           opt subtitle "HI-TECH Software Omniscient Code Generator (Lite mode) build 49521"
  4131                           
  4132                           opt pagewidth 120
  4133                           
  4134  0D93                     l2208:	
  4135                           opt subtitle "HI-TECH Software Omniscient Code Generator (Lite mode) build 49521"
  4136                           
  4137  0D93  1283               	bcf	status, 5	;RP0=0, select bank0
  4138  0D94  1303               	bcf	status, 6	;RP1=0, select bank0
  4139  0D95  01B6               	clrf	(?_SPI_Write_Reg)
  4140  0D96  30E1               	movlw	(0E1h)
  4141  0D97  120A  158A  246F   	fcall	_SPI_Write_Reg
              120A  158A         
  4142                           opt subtitle "HI-TECH Software Omniscient Code Generator (Lite mode) build 49521"
  4143                           
  4144  0D9C                     l2210:	
  4145                           opt subtitle "HI-TECH Software Omniscient Code Generator (Lite mode) build 49521"
  4146  0D9C  1283               	bcf	status, 5	;RP0=0, select bank0
  4147  0D9D  1303               	bcf	status, 6	;RP1=0, select bank0
  4148  0D9E  1107               	bcf	(7),2	;volatile
  4149                           opt subtitle "HI-TECH Software Omniscient Code Generator (Lite mode) build 49521"
  4150                           
  4151  0D9F  3000               	movlw	(0)
  4152  0DA0  120A  158A  24C9   	fcall	_SPI_Read_Reg
              120A  158A         
  4153  0DA5  1283               	bcf	status, 5	;RP0=0, select bank0
  4154  0DA6  1303               	bcf	status, 6	;RP1=0, select bank0
  4155  0DA7  00B9               	movwf	(??_SwitchToTxMode+0)+0
  4156  0DA8  0839               	movf	(??_SwitchToTxMode+0)+0,w
  4157  0DA9  00BA               	movwf	(SwitchToTxMode@value)
  4158                           opt subtitle "HI-TECH Software Omniscient Code Generator (Lite mode) build 49521"
  4159                           
  4160  0DAA                     l2212:	
  4161                           opt subtitle "HI-TECH Software Omniscient Code Generator (Lite mode) build 49521"
  4162  0DAA  083A               	movf	(SwitchToTxMode@value),w
  4163  0DAB  39FE               	andlw	0FEh
  4164  0DAC  00B9               	movwf	(??_SwitchToTxMode+0)+0
  4165  0DAD  0839               	movf	(??_SwitchToTxMode+0)+0,w
  4166  0DAE  00BA               	movwf	(SwitchToTxMode@value)
  4167                           opt subtitle "HI-TECH Software Omniscient Code Generator (Lite mode) build 49521"
  4168                           
  4169  0DAF                     l2214:	
  4170                           opt subtitle "HI-TECH Software Omniscient Code Generator (Lite mode) build 49521"
  4171  0DAF  083A               	movf	(SwitchToTxMode@value),w
  4172  0DB0  00B9               	movwf	(??_SwitchToTxMode+0)+0
  4173  0DB1  0839               	movf	(??_SwitchToTxMode+0)+0,w
  4174  0DB2  00B6               	movwf	(?_SPI_Write_Reg)
  4175  0DB3  3020               	movlw	(020h)
  4176  0DB4  120A  158A  246F   	fcall	_SPI_Write_Reg
              120A  158A         
  4177                           opt subtitle "HI-TECH Software Omniscient Code Generator (Lite mode) build 49521"
  4178                           
  4179  0DB9                     l2216:	
  4180                           opt subtitle "HI-TECH Software Omniscient Code Generator (Lite mode) build 49521"
  4181  0DB9  1283               	bcf	status, 5	;RP0=0, select bank0
  4182  0DBA  1303               	bcf	status, 6	;RP1=0, select bank0
  4183  0DBB  1507               	bsf	(7),2	;volatile
  4184                           opt subtitle "HI-TECH Software Omniscient Code Generator (Lite mode) build 49521"
  4185                           
  4186  0DBC                     l228:	
  4187  0DBC  0008               	return
  4188                           opt subtitle "HI-TECH Software Omniscient Code Generator (Lite mode) build 49521"
  4189                           
  4190  0DBD                     	__end_of_SwitchToTxMode:
  4191                           opt subtitle "HI-TECH Software Omniscient Code Generator (Lite mode) build 49521"
  4192                           
  4193                           opt pagewidth 120
  4194                           
  4195                           	opt lm
  4196                           
  4197                           	processor	16F707
  4198                           clrc	macro
  4199                           	bcf	3,0
  4200                           	endm
  4201                           clrz	macro
  4202                           	bcf	3,2
  4203                           	endm
  4204                           setc	macro
  4205                           	bsf	3,0
  4206                           	endm
  4207                           setz	macro
  4208                           	bsf	3,2
  4209                           	endm
  4210                           skipc	macro
  4211                           	btfss	3,0
  4212                           	endm
  4213                           skipz	macro
  4214                           	btfss	3,2
  4215                           	endm
  4216                           skipnc	macro
  4217                           	btfsc	3,0
  4218                           	endm
  4219                           skipnz	macro
  4220                           	btfsc	3,2
  4221                           	endm
  4222                           indf	equ	0
  4223                           indf0	equ	0
  4224                           pc	equ	2
  4225                           pcl	equ	2
  4226                           status	equ	3
  4227                           fsr	equ	4
  4228                           fsr0	equ	4
  4229                           c	equ	1
  4230                           z	equ	0
  4231                           pclath	equ	10
  4232                           # 46 "/Applications/microchip/xc8/v1.12/include/pic16f707.h"
  4233                           INDF equ 00h ;# 
  4234                           # 52 "/Applications/microchip/xc8/v1.12/include/pic16f707.h"
  4235                           TMR0 equ 01h ;# 
  4236                           # 58 "/Applications/microchip/xc8/v1.12/include/pic16f707.h"
  4237                           PCL equ 02h ;# 
  4238  0325                     __ptext863:	;psect for function _printf
  4239                           opt subtitle "HI-TECH Software Omniscient Code Generator (Lite mode) build 49521"
  4240                           
  4241                           opt pagewidth 120
  4242                           
  4243  01B0                     	__size_of_printf	equ	__end_of_printf-_printf
  4244                           opt subtitle "HI-TECH Software Omniscient Code Generator (Lite mode) build 49521"
  4245  0325                     _printf:	
  4246                           opt subtitle "HI-TECH Software Omniscient Code Generator (Lite mode) build 49521"
  4247                           
  4248                           opt pagewidth 120
  4249                           
  4250  0325                     l1770:	
  4251                           opt subtitle "HI-TECH Software Omniscient Code Generator (Lite mode) build 49521"
  4252                           
  4253                           opt pagewidth 120
  4254                           
  4255                           	opt lm
  4256                           
  4257                           	processor	16F707
  4258                           clrc	macro
  4259                           	bcf	3,0
  4260                           	endm
  4261                           clrz	macro
  4262                           	bcf	3,2
  4263  0325  3043               	movlw	(?_printf+02h)&0ffh
  4264  0326  1283               	bcf	status, 5	;RP0=0, select bank0
  4265  0327  1303               	bcf	status, 6	;RP1=0, select bank0
  4266  0328  00C5               	movwf	(??_printf+0)+0
  4267  0329  0845               	movf	(??_printf+0)+0,w
  4268  032A  00C9               	movwf	(printf@ap)
  4269                           opt subtitle "HI-TECH Software Omniscient Code Generator (Lite mode) build 49521"
  4270                           
  4271  032B  2CB7               	goto	l1844
  4272                           opt subtitle "HI-TECH Software Omniscient Code Generator (Lite mode) build 49521"
  4273  032C                     l304:	
  4274                           opt subtitle "HI-TECH Software Omniscient Code Generator (Lite mode) build 49521"
  4275                           
  4276  032C                     l1772:	
  4277                           opt subtitle "HI-TECH Software Omniscient Code Generator (Lite mode) build 49521"
  4278  032C  0850               	movf	(printf@c),w
  4279  032D  3A25               	xorlw	025h
  4280  032E  1903               	skipnz
  4281  032F  2B31               	goto	u1371
  4282  0330  2B32               	goto	u1370
  4283  0331                     u1371:
  4284  0331  2B39               	goto	l305
  4285  0332                     u1370:
  4286                           opt subtitle "HI-TECH Software Omniscient Code Generator (Lite mode) build 49521"
  4287                           
  4288  0332                     l1774:	
  4289                           opt subtitle "HI-TECH Software Omniscient Code Generator (Lite mode) build 49521"
  4290                           
  4291  0332  0850               	movf	(printf@c),w
  4292  0333  120A  158A  2445   	fcall	_putch
              120A  118A         
  4293                           opt subtitle "HI-TECH Software Omniscient Code Generator (Lite mode) build 49521"
  4294                           
  4295  0338  2CB7               	goto	l1844
  4296                           opt subtitle "HI-TECH Software Omniscient Code Generator (Lite mode) build 49521"
  4297                           
  4298  0339                     l305:	
  4299                           opt subtitle "HI-TECH Software Omniscient Code Generator (Lite mode) build 49521"
  4300                           
  4301                           opt pagewidth 120
  4302  0339  01CB               	clrf	(printf@flag)
  4303                           opt subtitle "HI-TECH Software Omniscient Code Generator (Lite mode) build 49521"
  4304                           
  4305  033A  2B48               	goto	l1780
  4306                           opt subtitle "HI-TECH Software Omniscient Code Generator (Lite mode) build 49521"
  4307                           
  4308                           opt pagewidth 120
  4309  033B                     l307:	
  4310                           opt subtitle "HI-TECH Software Omniscient Code Generator (Lite mode) build 49521"
  4311                           
  4312  033B  2CD4               	goto	l337
  4313                           opt subtitle "HI-TECH Software Omniscient Code Generator (Lite mode) build 49521"
  4314                           
  4315                           opt pagewidth 120
  4316  033C                     l309:	
  4317  033C  2B6C               	goto	l311
  4318                           opt subtitle "HI-TECH Software Omniscient Code Generator (Lite mode) build 49521"
  4319                           
  4320  033D                     l310:	
  4321                           opt subtitle "HI-TECH Software Omniscient Code Generator (Lite mode) build 49521"
  4322                           
  4323                           opt pagewidth 120
  4324  033D  2B6C               	goto	l311
  4325                           opt subtitle "HI-TECH Software Omniscient Code Generator (Lite mode) build 49521"
  4326                           
  4327                           opt pagewidth 120
  4328  033E                     l312:	
  4329                           opt subtitle "HI-TECH Software Omniscient Code Generator (Lite mode) build 49521"
  4330                           
  4331  033E                     l313:	
  4332                           opt subtitle "HI-TECH Software Omniscient Code Generator (Lite mode) build 49521"
  4333                           
  4334                           opt pagewidth 120
  4335  033E  17CB               	bsf	(printf@flag)+(7/8),(7)&7
  4336                           opt subtitle "HI-TECH Software Omniscient Code Generator (Lite mode) build 49521"
  4337                           
  4338  033F  2B6C               	goto	l311
  4339                           opt subtitle "HI-TECH Software Omniscient Code Generator (Lite mode) build 49521"
  4340                           
  4341                           opt pagewidth 120
  4342  0340                     l314:	
  4343                           opt subtitle "HI-TECH Software Omniscient Code Generator (Lite mode) build 49521"
  4344                           
  4345  0340                     l1776:	
  4346                           opt subtitle "HI-TECH Software Omniscient Code Generator (Lite mode) build 49521"
  4347  0340  0850               	movf	(printf@c),w
  4348  0341  120A  158A  2445   	fcall	_putch
              120A  118A         
  4349                           opt subtitle "HI-TECH Software Omniscient Code Generator (Lite mode) build 49521"
  4350                           
  4351  0346  2CB7               	goto	l1844
  4352                           opt subtitle "HI-TECH Software Omniscient Code Generator (Lite mode) build 49521"
  4353                           
  4354  0347                     l1778:	
  4355                           opt subtitle "HI-TECH Software Omniscient Code Generator (Lite mode) build 49521"
  4356  0347  2B6C               	goto	l311
  4357                           opt subtitle "HI-TECH Software Omniscient Code Generator (Lite mode) build 49521"
  4358                           
  4359  0348                     l306:	
  4360                           opt subtitle "HI-TECH Software Omniscient Code Generator (Lite mode) build 49521"
  4361  0348                     l1780:	
  4362  0348  1283               	bcf	status, 5	;RP0=0, select bank0
  4363  0349  1303               	bcf	status, 6	;RP1=0, select bank0
  4364  034A  0842               	movf	(printf@f+1),w
  4365  034B  00C6               	movwf	(??_printf+0)+0+1
  4366  034C  0841               	movf	(printf@f),w
  4367  034D  00C5               	movwf	(??_printf+0)+0
  4368  034E  3001               	movlw	(01h)
  4369  034F  07C1               	addwf	(printf@f),f
  4370  0350  1803               	skipnc
  4371  0351  0AC2               	incf	(printf@f+1),f
  4372  0352  0846               	movf	1+(??_printf+0)+0,w
  4373  0353  00FF               	movwf	btemp+1
  4374  0354  0845               	movf	0+(??_printf+0)+0,w
  4375  0355  0084               	movwf	fsr0
  4376  0356  120A  158A  2000   	fcall	stringtab
              120A  118A         
  4377  035B  00D0               	movwf	(printf@c)
  4378                           opt subtitle "HI-TECH Software Omniscient Code Generator (Lite mode) build 49521"
  4379                           
  4380                           opt pagewidth 120
  4381                           
  4382                           	opt lm
  4383                           
  4384                           	processor	16F707
  4385                           clrc	macro
  4386                           	bcf	3,0
  4387                           	endm
  4388                           clrz	macro
  4389                           	bcf	3,2
  4390  035C  3A00               	xorlw	0^0	; case 0
  4391  035D  1903               	skipnz
  4392  035E  2CD4               	goto	l337
  4393  035F  3A58               	xorlw	88^0	; case 88
  4394  0360  1903               	skipnz
  4395  0361  2B3E               	goto	l313
  4396  0362  3A3C               	xorlw	100^88	; case 100
  4397  0363  1903               	skipnz
  4398  0364  2B6C               	goto	l311
  4399  0365  3A0D               	xorlw	105^100	; case 105
  4400  0366  1903               	skipnz
  4401  0367  2B6C               	goto	l311
  4402  0368  3A11               	xorlw	120^105	; case 120
  4403  0369  1903               	skipnz
  4404  036A  2B3E               	goto	l313
  4405  036B  2B40               	goto	l1776
  4406                           opt subtitle "HI-TECH Software Omniscient Code Generator (Lite mode) build 49521"
  4407                           
  4408                           opt pagewidth 120
  4409                           
  4410  036C                     l311:	
  4411                           opt subtitle "HI-TECH Software Omniscient Code Generator (Lite mode) build 49521"
  4412                           
  4413  036C  1283               	bcf	status, 5	;RP0=0, select bank0
  4414  036D  1303               	bcf	status, 6	;RP1=0, select bank0
  4415  036E  1BCB               	btfsc	(printf@flag),(7)&7
  4416  036F  2B71               	goto	u1381
  4417  0370  2B72               	goto	u1380
  4418  0371                     u1381:
  4419  0371  2B8D               	goto	l1792
  4420  0372                     u1380:
  4421                           opt subtitle "HI-TECH Software Omniscient Code Generator (Lite mode) build 49521"
  4422                           
  4423  0372                     l1782:	
  4424                           opt subtitle "HI-TECH Software Omniscient Code Generator (Lite mode) build 49521"
  4425                           
  4426  0372  0849               	movf	(printf@ap),w
  4427  0373  0084               	movwf	fsr0
  4428  0374  1383               	bcf	status, 7	;select IRP bank0
  4429  0375  0800               	movf	indf,w
  4430  0376  00CC               	movwf	(printf@_val)
  4431  0377  0A84               	incf	fsr0,f
  4432  0378  0800               	movf	indf,w
  4433  0379  00CD               	movwf	(printf@_val+1)
  4434                           opt subtitle "HI-TECH Software Omniscient Code Generator (Lite mode) build 49521"
  4435  037A                     l1784:	
  4436  037A  3002               	movlw	(02h)
  4437  037B  00C5               	movwf	(??_printf+0)+0
  4438  037C  0845               	movf	(??_printf+0)+0,w
  4439  037D  07C9               	addwf	(printf@ap),f
  4440                           opt subtitle "HI-TECH Software Omniscient Code Generator (Lite mode) build 49521"
  4441                           
  4442  037E                     l1786:	
  4443                           opt subtitle "HI-TECH Software Omniscient Code Generator (Lite mode) build 49521"
  4444  037E  1FCD               	btfss	(printf@_val+1),7
  4445  037F  2B81               	goto	u1391
  4446  0380  2B82               	goto	u1390
  4447  0381                     u1391:
  4448  0381  2C0A               	goto	l1822
  4449  0382                     u1390:
  4450                           opt subtitle "HI-TECH Software Omniscient Code Generator (Lite mode) build 49521"
  4451                           
  4452  0382                     l1788:	
  4453                           opt subtitle "HI-TECH Software Omniscient Code Generator (Lite mode) build 49521"
  4454  0382  3003               	movlw	(03h)
  4455  0383  00C5               	movwf	(??_printf+0)+0
  4456  0384  0845               	movf	(??_printf+0)+0,w
  4457  0385  04CB               	iorwf	(printf@flag),f
  4458                           opt subtitle "HI-TECH Software Omniscient Code Generator (Lite mode) build 49521"
  4459                           
  4460  0386                     l1790:	
  4461                           opt subtitle "HI-TECH Software Omniscient Code Generator (Lite mode) build 49521"
  4462  0386  09CC               	comf	(printf@_val),f
  4463  0387  09CD               	comf	(printf@_val+1),f
  4464  0388  0ACC               	incf	(printf@_val),f
  4465  0389  1903               	skipnz
  4466  038A  0ACD               	incf	(printf@_val+1),f
  4467  038B  2C0A               	goto	l1822
  4468                           opt subtitle "HI-TECH Software Omniscient Code Generator (Lite mode) build 49521"
  4469                           
  4470  038C                     l316:	
  4471                           opt subtitle "HI-TECH Software Omniscient Code Generator (Lite mode) build 49521"
  4472                           
  4473                           opt pagewidth 120
  4474  038C  2C0A               	goto	l1822
  4475                           opt subtitle "HI-TECH Software Omniscient Code Generator (Lite mode) build 49521"
  4476                           
  4477  038D                     l315:	
  4478                           opt subtitle "HI-TECH Software Omniscient Code Generator (Lite mode) build 49521"
  4479                           
  4480  038D                     l1792:	
  4481                           opt subtitle "HI-TECH Software Omniscient Code Generator (Lite mode) build 49521"
  4482                           
  4483                           opt pagewidth 120
  4484  038D  0849               	movf	(printf@ap),w
  4485  038E  0084               	movwf	fsr0
  4486  038F  1383               	bcf	status, 7	;select IRP bank0
  4487  0390  0800               	movf	indf,w
  4488  0391  00CC               	movwf	(printf@_val)
  4489  0392  0A84               	incf	fsr0,f
  4490  0393  0800               	movf	indf,w
  4491  0394  00CD               	movwf	(printf@_val+1)
  4492                           opt subtitle "HI-TECH Software Omniscient Code Generator (Lite mode) build 49521"
  4493  0395                     l1794:	
  4494  0395  3002               	movlw	(02h)
  4495  0396  00C5               	movwf	(??_printf+0)+0
  4496  0397  0845               	movf	(??_printf+0)+0,w
  4497  0398  07C9               	addwf	(printf@ap),f
  4498  0399  2C0A               	goto	l1822
  4499                           opt subtitle "HI-TECH Software Omniscient Code Generator (Lite mode) build 49521"
  4500                           
  4501  039A                     l317:	
  4502                           opt subtitle "HI-TECH Software Omniscient Code Generator (Lite mode) build 49521"
  4503                           
  4504                           opt pagewidth 120
  4505  039A  2C0A               	goto	l1822
  4506                           opt subtitle "HI-TECH Software Omniscient Code Generator (Lite mode) build 49521"
  4507                           
  4508                           opt pagewidth 120
  4509  039B                     l319:	
  4510                           opt subtitle "HI-TECH Software Omniscient Code Generator (Lite mode) build 49521"
  4511                           
  4512  039B  01D0               	clrf	(printf@c)
  4513  039C  0AD0               	incf	(printf@c),f
  4514                           opt subtitle "HI-TECH Software Omniscient Code Generator (Lite mode) build 49521"
  4515  039D                     l1796:	
  4516  039D  0850               	movf	(printf@c),w
  4517  039E  3A05               	xorlw	05h
  4518  039F  1D03               	skipz
  4519  03A0  2BA2               	goto	u1401
  4520  03A1  2BA3               	goto	u1400
  4521  03A2                     u1401:
  4522  03A2  2BA5               	goto	l1800
  4523  03A3                     u1400:
  4524  03A3  2C13               	goto	l1824
  4525                           opt subtitle "HI-TECH Software Omniscient Code Generator (Lite mode) build 49521"
  4526  03A4                     l1798:	
  4527  03A4  2C13               	goto	l1824
  4528                           opt subtitle "HI-TECH Software Omniscient Code Generator (Lite mode) build 49521"
  4529                           
  4530  03A5                     l320:	
  4531                           opt subtitle "HI-TECH Software Omniscient Code Generator (Lite mode) build 49521"
  4532  03A5                     l1800:	
  4533                           opt subtitle "HI-TECH Software Omniscient Code Generator (Lite mode) build 49521"
  4534  03A5  0850               	movf	(printf@c),w
  4535  03A6  00C5               	movwf	(??_printf+0)+0
  4536  03A7  0745               	addwf	(??_printf+0)+0,w
  4537  03A8  3E83               	addlw	low(_dpowers|8000h)
  4538  03A9  0084               	movwf	fsr0
  4539  03AA  3088               	movlw	high(_dpowers|8000h)
  4540  03AB  1803               	skipnc
  4541  03AC  3E01               	addlw	1
  4542  03AD  00FF               	movwf	btemp+1
  4543  03AE  120A  158A  2000   	fcall	stringtab
              120A  118A         
  4544  03B3  00C6               	movwf	(??_printf+1)+0
  4545  03B4  120A  158A  2000   	fcall	stringtab
              120A  118A         
  4546  03B9  00C7               	movwf	(??_printf+1)+0+1
  4547  03BA  0847               	movf	1+(??_printf+1)+0,w
  4548  03BB  024D               	subwf	(printf@_val+1),w
  4549  03BC  1D03               	skipz
  4550  03BD  2BC0               	goto	u1415
  4551  03BE  0846               	movf	0+(??_printf+1)+0,w
  4552  03BF  024C               	subwf	(printf@_val),w
  4553  03C0                     u1415:
  4554  03C0  1803               	skipnc
  4555  03C1  2BC3               	goto	u1411
  4556  03C2  2BC4               	goto	u1410
  4557  03C3                     u1411:
  4558  03C3  2BC6               	goto	l1804
  4559  03C4                     u1410:
  4560  03C4  2C13               	goto	l1824
  4561                           opt subtitle "HI-TECH Software Omniscient Code Generator (Lite mode) build 49521"
  4562                           
  4563  03C5                     l1802:	
  4564                           opt subtitle "HI-TECH Software Omniscient Code Generator (Lite mode) build 49521"
  4565  03C5  2C13               	goto	l1824
  4566                           opt subtitle "HI-TECH Software Omniscient Code Generator (Lite mode) build 49521"
  4567  03C6                     l322:	
  4568                           opt subtitle "HI-TECH Software Omniscient Code Generator (Lite mode) build 49521"
  4569                           
  4570  03C6                     l1804:	
  4571  03C6  3001               	movlw	(01h)
  4572  03C7  00C5               	movwf	(??_printf+0)+0
  4573  03C8  0845               	movf	(??_printf+0)+0,w
  4574  03C9  07D0               	addwf	(printf@c),f
  4575                           opt subtitle "HI-TECH Software Omniscient Code Generator (Lite mode) build 49521"
  4576  03CA                     l1806:	
  4577  03CA  0850               	movf	(printf@c),w
  4578  03CB  3A05               	xorlw	05h
  4579  03CC  1D03               	skipz
  4580  03CD  2BCF               	goto	u1421
  4581  03CE  2BD0               	goto	u1420
  4582  03CF                     u1421:
  4583  03CF  2BA5               	goto	l1800
  4584  03D0                     u1420:
  4585  03D0  2C13               	goto	l1824
  4586                           opt subtitle "HI-TECH Software Omniscient Code Generator (Lite mode) build 49521"
  4587  03D1                     l321:	
  4588                           opt subtitle "HI-TECH Software Omniscient Code Generator (Lite mode) build 49521"
  4589                           
  4590  03D1  2C13               	goto	l1824
  4591                           opt subtitle "HI-TECH Software Omniscient Code Generator (Lite mode) build 49521"
  4592                           
  4593                           opt pagewidth 120
  4594  03D2                     l324:	
  4595                           opt subtitle "HI-TECH Software Omniscient Code Generator (Lite mode) build 49521"
  4596                           
  4597  03D2  01D0               	clrf	(printf@c)
  4598  03D3  0AD0               	incf	(printf@c),f
  4599                           opt subtitle "HI-TECH Software Omniscient Code Generator (Lite mode) build 49521"
  4600  03D4                     l1808:	
  4601  03D4  0850               	movf	(printf@c),w
  4602  03D5  3A04               	xorlw	04h
  4603  03D6  1D03               	skipz
  4604  03D7  2BD9               	goto	u1431
  4605  03D8  2BDA               	goto	u1430
  4606  03D9                     u1431:
  4607  03D9  2BDC               	goto	l1812
  4608  03DA                     u1430:
  4609  03DA  2C13               	goto	l1824
  4610                           opt subtitle "HI-TECH Software Omniscient Code Generator (Lite mode) build 49521"
  4611  03DB                     l1810:	
  4612  03DB  2C13               	goto	l1824
  4613                           opt subtitle "HI-TECH Software Omniscient Code Generator (Lite mode) build 49521"
  4614                           
  4615  03DC                     l325:	
  4616                           opt subtitle "HI-TECH Software Omniscient Code Generator (Lite mode) build 49521"
  4617  03DC                     l1812:	
  4618                           opt subtitle "HI-TECH Software Omniscient Code Generator (Lite mode) build 49521"
  4619  03DC  0850               	movf	(printf@c),w
  4620  03DD  00C5               	movwf	(??_printf+0)+0
  4621  03DE  0745               	addwf	(??_printf+0)+0,w
  4622  03DF  3E8D               	addlw	low(_hexpowers|8000h)
  4623  03E0  0084               	movwf	fsr0
  4624  03E1  3088               	movlw	high(_hexpowers|8000h)
  4625  03E2  1803               	skipnc
  4626  03E3  3E01               	addlw	1
  4627  03E4  00FF               	movwf	btemp+1
  4628  03E5  120A  158A  2000   	fcall	stringtab
              120A  118A         
  4629  03EA  00C6               	movwf	(??_printf+1)+0
  4630  03EB  120A  158A  2000   	fcall	stringtab
              120A  118A         
  4631  03F0  00C7               	movwf	(??_printf+1)+0+1
  4632  03F1  0847               	movf	1+(??_printf+1)+0,w
  4633  03F2  024D               	subwf	(printf@_val+1),w
  4634  03F3  1D03               	skipz
  4635  03F4  2BF7               	goto	u1445
  4636  03F5  0846               	movf	0+(??_printf+1)+0,w
  4637  03F6  024C               	subwf	(printf@_val),w
  4638  03F7                     u1445:
  4639  03F7  1803               	skipnc
  4640  03F8  2BFA               	goto	u1441
  4641  03F9  2BFB               	goto	u1440
  4642  03FA                     u1441:
  4643  03FA  2BFD               	goto	l1816
  4644  03FB                     u1440:
  4645  03FB  2C13               	goto	l1824
  4646                           opt subtitle "HI-TECH Software Omniscient Code Generator (Lite mode) build 49521"
  4647                           
  4648  03FC                     l1814:	
  4649                           opt subtitle "HI-TECH Software Omniscient Code Generator (Lite mode) build 49521"
  4650  03FC  2C13               	goto	l1824
  4651                           opt subtitle "HI-TECH Software Omniscient Code Generator (Lite mode) build 49521"
  4652  03FD                     l327:	
  4653                           opt subtitle "HI-TECH Software Omniscient Code Generator (Lite mode) build 49521"
  4654                           
  4655  03FD                     l1816:	
  4656  03FD  3001               	movlw	(01h)
  4657  03FE  00C5               	movwf	(??_printf+0)+0
  4658  03FF  0845               	movf	(??_printf+0)+0,w
  4659  0400  07D0               	addwf	(printf@c),f
  4660                           opt subtitle "HI-TECH Software Omniscient Code Generator (Lite mode) build 49521"
  4661  0401                     l1818:	
  4662  0401  0850               	movf	(printf@c),w
  4663  0402  3A04               	xorlw	04h
  4664  0403  1D03               	skipz
  4665  0404  2C06               	goto	u1451
  4666  0405  2C07               	goto	u1450
  4667  0406                     u1451:
  4668  0406  2BDC               	goto	l1812
  4669  0407                     u1450:
  4670  0407  2C13               	goto	l1824
  4671                           opt subtitle "HI-TECH Software Omniscient Code Generator (Lite mode) build 49521"
  4672  0408                     l326:	
  4673                           opt subtitle "HI-TECH Software Omniscient Code Generator (Lite mode) build 49521"
  4674                           
  4675  0408  2C13               	goto	l1824
  4676                           opt subtitle "HI-TECH Software Omniscient Code Generator (Lite mode) build 49521"
  4677                           
  4678  0409                     l1820:	
  4679                           opt subtitle "HI-TECH Software Omniscient Code Generator (Lite mode) build 49521"
  4680  0409  2C13               	goto	l1824
  4681                           opt subtitle "HI-TECH Software Omniscient Code Generator (Lite mode) build 49521"
  4682                           
  4683  040A                     l318:	
  4684                           opt subtitle "HI-TECH Software Omniscient Code Generator (Lite mode) build 49521"
  4685  040A                     l1822:	
  4686  040A  084B               	movf	(printf@flag),w
  4687  040B  3980               	andlw	080h
  4688                           opt subtitle "HI-TECH Software Omniscient Code Generator (Lite mode) build 49521"
  4689                           
  4690                           opt pagewidth 120
  4691                           
  4692                           	opt lm
  4693                           
  4694                           	processor	16F707
  4695                           clrc	macro
  4696                           	bcf	3,0
  4697                           	endm
  4698                           clrz	macro
  4699                           	bcf	3,2
  4700  040C  3A00               	xorlw	0^0	; case 0
  4701  040D  1903               	skipnz
  4702  040E  2B9B               	goto	l319
  4703  040F  3A80               	xorlw	128^0	; case 128
  4704  0410  1903               	skipnz
  4705  0411  2BD2               	goto	l324
  4706  0412  2C13               	goto	l1824
  4707                           opt subtitle "HI-TECH Software Omniscient Code Generator (Lite mode) build 49521"
  4708                           
  4709                           opt pagewidth 120
  4710                           
  4711  0413                     l323:	
  4712                           opt subtitle "HI-TECH Software Omniscient Code Generator (Lite mode) build 49521"
  4713                           
  4714  0413                     l1824:	
  4715                           opt subtitle "HI-TECH Software Omniscient Code Generator (Lite mode) build 49521"
  4716                           
  4717  0413  084B               	movf	(printf@flag),w
  4718  0414  3903               	andlw	03h
  4719  0415  1903               	btfsc	status,2
  4720  0416  2C18               	goto	u1461
  4721  0417  2C19               	goto	u1460
  4722  0418                     u1461:
  4723  0418  2C20               	goto	l1828
  4724  0419                     u1460:
  4725                           opt subtitle "HI-TECH Software Omniscient Code Generator (Lite mode) build 49521"
  4726                           
  4727  0419                     l1826:	
  4728                           opt subtitle "HI-TECH Software Omniscient Code Generator (Lite mode) build 49521"
  4729  0419  302D               	movlw	(02Dh)
  4730  041A  120A  158A  2445   	fcall	_putch
              120A  118A         
  4731  041F  2C20               	goto	l1828
  4732                           opt subtitle "HI-TECH Software Omniscient Code Generator (Lite mode) build 49521"
  4733  0420                     l328:	
  4734                           opt subtitle "HI-TECH Software Omniscient Code Generator (Lite mode) build 49521"
  4735                           
  4736  0420                     l1828:	
  4737                           opt subtitle "HI-TECH Software Omniscient Code Generator (Lite mode) build 49521"
  4738                           
  4739  0420  1283               	bcf	status, 5	;RP0=0, select bank0
  4740  0421  1303               	bcf	status, 6	;RP1=0, select bank0
  4741  0422  0850               	movf	(printf@c),w
  4742  0423  00C5               	movwf	(??_printf+0)+0
  4743  0424  0845               	movf	(??_printf+0)+0,w
  4744  0425  00CA               	movwf	(printf@prec)
  4745                           opt subtitle "HI-TECH Software Omniscient Code Generator (Lite mode) build 49521"
  4746                           
  4747  0426  2CA9               	goto	l1842
  4748                           opt subtitle "HI-TECH Software Omniscient Code Generator (Lite mode) build 49521"
  4749  0427                     l330:	
  4750                           opt subtitle "HI-TECH Software Omniscient Code Generator (Lite mode) build 49521"
  4751                           
  4752  0427  2C99               	goto	l1838
  4753                           opt subtitle "HI-TECH Software Omniscient Code Generator (Lite mode) build 49521"
  4754                           
  4755                           opt pagewidth 120
  4756                           
  4757  0428                     l332:	
  4758                           opt subtitle "HI-TECH Software Omniscient Code Generator (Lite mode) build 49521"
  4759                           
  4760  0428                     l1830:	
  4761                           opt subtitle "HI-TECH Software Omniscient Code Generator (Lite mode) build 49521"
  4762  0428  300A               	movlw	low(0Ah)
  4763  0429  00BB               	movwf	(?___lwmod)
  4764  042A  3000               	movlw	high(0Ah)
  4765  042B  00BC               	movwf	((?___lwmod))+1
  4766  042C  084A               	movf	(printf@prec),w
  4767  042D  00C5               	movwf	(??_printf+0)+0
  4768  042E  0745               	addwf	(??_printf+0)+0,w
  4769  042F  3E83               	addlw	low(_dpowers|8000h)
  4770  0430  0084               	movwf	fsr0
  4771  0431  3088               	movlw	high(_dpowers|8000h)
  4772  0432  1803               	skipnc
  4773  0433  3E01               	addlw	1
  4774  0434  00FF               	movwf	btemp+1
  4775  0435  120A  158A  2000   	fcall	stringtab
              120A  118A         
  4776  043A  00B3               	movwf	(?___lwdiv)
  4777  043B  120A  158A  2000   	fcall	stringtab
              120A  118A         
  4778  0440  00B4               	movwf	(?___lwdiv+1)
  4779  0441  084D               	movf	(printf@_val+1),w
  4780  0442  01B6               	clrf	1+(?___lwdiv)+02h
  4781  0443  07B6               	addwf	1+(?___lwdiv)+02h
  4782  0444  084C               	movf	(printf@_val),w
  4783  0445  01B5               	clrf	0+(?___lwdiv)+02h
  4784  0446  07B5               	addwf	0+(?___lwdiv)+02h
  4785                           opt subtitle "HI-TECH Software Omniscient Code Generator (Lite mode) build 49521"
  4786  0447  120A  158A  26E2   	fcall	___lwdiv
              120A  118A         
  4787  044C  1283               	bcf	status, 5	;RP0=0, select bank0
  4788  044D  1303               	bcf	status, 6	;RP1=0, select bank0
  4789  044E  0834               	movf	(1+(?___lwdiv)),w
  4790  044F  01BE               	clrf	1+(?___lwmod)+02h
  4791  0450  07BE               	addwf	1+(?___lwmod)+02h
  4792  0451  0833               	movf	(0+(?___lwdiv)),w
  4793  0452  01BD               	clrf	0+(?___lwmod)+02h
  4794  0453  07BD               	addwf	0+(?___lwmod)+02h
  4795                           opt subtitle "HI-TECH Software Omniscient Code Generator (Lite mode) build 49521"
  4796  0454  120A  158A  269D   	fcall	___lwmod
              120A  118A         
  4797  0459  1283               	bcf	status, 5	;RP0=0, select bank0
  4798  045A  1303               	bcf	status, 6	;RP1=0, select bank0
  4799  045B  083B               	movf	(0+(?___lwmod)),w
  4800  045C  3E30               	addlw	030h
  4801  045D  00C6               	movwf	(??_printf+1)+0
  4802  045E  0846               	movf	(??_printf+1)+0,w
  4803  045F  00D0               	movwf	(printf@c)
  4804                           opt subtitle "HI-TECH Software Omniscient Code Generator (Lite mode) build 49521"
  4805                           
  4806  0460  2CA2               	goto	l1840
  4807                           opt subtitle "HI-TECH Software Omniscient Code Generator (Lite mode) build 49521"
  4808                           
  4809                           opt pagewidth 120
  4810  0461                     l334:	
  4811                           opt subtitle "HI-TECH Software Omniscient Code Generator (Lite mode) build 49521"
  4812                           
  4813  0461                     l1832:	
  4814                           opt subtitle "HI-TECH Software Omniscient Code Generator (Lite mode) build 49521"
  4815                           
  4816  0461  084A               	movf	(printf@prec),w
  4817  0462  00C5               	movwf	(??_printf+0)+0
  4818  0463  0745               	addwf	(??_printf+0)+0,w
  4819  0464  3E8D               	addlw	low(_hexpowers|8000h)
  4820  0465  0084               	movwf	fsr0
  4821  0466  3088               	movlw	high(_hexpowers|8000h)
  4822  0467  1803               	skipnc
  4823  0468  3E01               	addlw	1
  4824  0469  00FF               	movwf	btemp+1
  4825  046A  120A  158A  2000   	fcall	stringtab
              120A  118A         
  4826  046F  00B3               	movwf	(?___lwdiv)
  4827  0470  120A  158A  2000   	fcall	stringtab
              120A  118A         
  4828  0475  00B4               	movwf	(?___lwdiv+1)
  4829  0476  084D               	movf	(printf@_val+1),w
  4830  0477  01B6               	clrf	1+(?___lwdiv)+02h
  4831  0478  07B6               	addwf	1+(?___lwdiv)+02h
  4832  0479  084C               	movf	(printf@_val),w
  4833  047A  01B5               	clrf	0+(?___lwdiv)+02h
  4834  047B  07B5               	addwf	0+(?___lwdiv)+02h
  4835                           opt subtitle "HI-TECH Software Omniscient Code Generator (Lite mode) build 49521"
  4836  047C  120A  158A  26E2   	fcall	___lwdiv
              120A  118A         
  4837  0481  1283               	bcf	status, 5	;RP0=0, select bank0
  4838  0482  1303               	bcf	status, 6	;RP1=0, select bank0
  4839  0483  0833               	movf	(0+(?___lwdiv)),w
  4840  0484  390F               	andlw	0Fh
  4841  0485  00C6               	movwf	(??_printf+1)+0
  4842  0486  0846               	movf	(??_printf+1)+0,w
  4843  0487  00C8               	movwf	(printf@idx)
  4844                           opt subtitle "HI-TECH Software Omniscient Code Generator (Lite mode) build 49521"
  4845                           
  4846  0488                     l1834:	
  4847                           opt subtitle "HI-TECH Software Omniscient Code Generator (Lite mode) build 49521"
  4848  0488  0848               	movf	(printf@idx),w
  4849  0489  3ECE               	addlw	low(STR_11|8000h)
  4850  048A  0084               	movwf	fsr0
  4851  048B  3088               	movlw	high(STR_11|8000h)
  4852  048C  1803               	skipnc
  4853  048D  3E01               	addlw	1
  4854  048E  00FF               	movwf	btemp+1
  4855  048F  120A  158A  2000   	fcall	stringtab
              120A  118A         
  4856  0494  00C5               	movwf	(??_printf+0)+0
  4857  0495  0845               	movf	(??_printf+0)+0,w
  4858  0496  00D0               	movwf	(printf@c)
  4859                           opt subtitle "HI-TECH Software Omniscient Code Generator (Lite mode) build 49521"
  4860                           
  4861                           opt pagewidth 120
  4862  0497  2CA2               	goto	l1840
  4863                           opt subtitle "HI-TECH Software Omniscient Code Generator (Lite mode) build 49521"
  4864                           
  4865  0498                     l1836:	
  4866                           opt subtitle "HI-TECH Software Omniscient Code Generator (Lite mode) build 49521"
  4867  0498  2CA2               	goto	l1840
  4868                           opt subtitle "HI-TECH Software Omniscient Code Generator (Lite mode) build 49521"
  4869                           
  4870  0499                     l331:	
  4871                           opt subtitle "HI-TECH Software Omniscient Code Generator (Lite mode) build 49521"
  4872  0499                     l1838:	
  4873  0499  084B               	movf	(printf@flag),w
  4874  049A  3980               	andlw	080h
  4875                           opt subtitle "HI-TECH Software Omniscient Code Generator (Lite mode) build 49521"
  4876                           
  4877                           opt pagewidth 120
  4878                           
  4879                           	opt lm
  4880                           
  4881                           	processor	16F707
  4882                           clrc	macro
  4883                           	bcf	3,0
  4884                           	endm
  4885                           clrz	macro
  4886                           	bcf	3,2
  4887  049B  3A00               	xorlw	0^0	; case 0
  4888  049C  1903               	skipnz
  4889  049D  2C28               	goto	l1830
  4890  049E  3A80               	xorlw	128^0	; case 128
  4891  049F  1903               	skipnz
  4892  04A0  2C61               	goto	l1832
  4893  04A1  2CA2               	goto	l1840
  4894                           opt subtitle "HI-TECH Software Omniscient Code Generator (Lite mode) build 49521"
  4895                           
  4896                           opt pagewidth 120
  4897                           
  4898  04A2                     l333:	
  4899                           opt subtitle "HI-TECH Software Omniscient Code Generator (Lite mode) build 49521"
  4900                           
  4901  04A2                     l1840:	
  4902                           opt subtitle "HI-TECH Software Omniscient Code Generator (Lite mode) build 49521"
  4903  04A2  0850               	movf	(printf@c),w
  4904  04A3  120A  158A  2445   	fcall	_putch
              120A  118A         
  4905  04A8  2CA9               	goto	l1842
  4906                           opt subtitle "HI-TECH Software Omniscient Code Generator (Lite mode) build 49521"
  4907                           
  4908  04A9                     l329:	
  4909                           opt subtitle "HI-TECH Software Omniscient Code Generator (Lite mode) build 49521"
  4910                           
  4911  04A9                     l1842:	
  4912  04A9  30FF               	movlw	(-1)
  4913  04AA  1283               	bcf	status, 5	;RP0=0, select bank0
  4914  04AB  1303               	bcf	status, 6	;RP1=0, select bank0
  4915  04AC  00C5               	movwf	(??_printf+0)+0
  4916  04AD  0845               	movf	(??_printf+0)+0,w
  4917  04AE  07CA               	addwf	(printf@prec),f
  4918  04AF  084A               	movf	((printf@prec)),w
  4919  04B0  3AFF               	xorlw	-1
  4920  04B1  1D03               	skipz
  4921  04B2  2CB4               	goto	u1471
  4922  04B3  2CB5               	goto	u1470
  4923  04B4                     u1471:
  4924  04B4  2C99               	goto	l1838
  4925  04B5                     u1470:
  4926  04B5  2CB7               	goto	l1844
  4927                           opt subtitle "HI-TECH Software Omniscient Code Generator (Lite mode) build 49521"
  4928  04B6                     l335:	
  4929  04B6  2CB7               	goto	l1844
  4930                           opt subtitle "HI-TECH Software Omniscient Code Generator (Lite mode) build 49521"
  4931                           
  4932  04B7                     l303:	
  4933                           opt subtitle "HI-TECH Software Omniscient Code Generator (Lite mode) build 49521"
  4934                           
  4935  04B7                     l1844:	
  4936  04B7  1283               	bcf	status, 5	;RP0=0, select bank0
  4937  04B8  1303               	bcf	status, 6	;RP1=0, select bank0
  4938  04B9  0842               	movf	(printf@f+1),w
  4939  04BA  00C6               	movwf	(??_printf+0)+0+1
  4940  04BB  0841               	movf	(printf@f),w
  4941  04BC  00C5               	movwf	(??_printf+0)+0
  4942  04BD  3001               	movlw	(01h)
  4943  04BE  07C1               	addwf	(printf@f),f
  4944  04BF  1803               	skipnc
  4945  04C0  0AC2               	incf	(printf@f+1),f
  4946  04C1  0846               	movf	1+(??_printf+0)+0,w
  4947  04C2  00FF               	movwf	btemp+1
  4948  04C3  0845               	movf	0+(??_printf+0)+0,w
  4949  04C4  0084               	movwf	fsr0
  4950  04C5  120A  158A  2000   	fcall	stringtab
              120A  118A         
  4951  04CA  00C7               	movwf	(??_printf+2)+0
  4952  04CB  0847               	movf	(??_printf+2)+0,w
  4953  04CC  00D0               	movwf	(printf@c)
  4954  04CD  08D0               	movf	((printf@c)),f
  4955  04CE  1D03               	skipz
  4956  04CF  2CD1               	goto	u1481
  4957  04D0  2CD2               	goto	u1480
  4958  04D1                     u1481:
  4959  04D1  2B2C               	goto	l1772
  4960  04D2                     u1480:
  4961  04D2  2CD4               	goto	l337
  4962                           opt subtitle "HI-TECH Software Omniscient Code Generator (Lite mode) build 49521"
  4963  04D3                     l336:	
  4964  04D3  2CD4               	goto	l337
  4965                           opt subtitle "HI-TECH Software Omniscient Code Generator (Lite mode) build 49521"
  4966                           
  4967                           opt pagewidth 120
  4968                           
  4969                           	opt lm
  4970  04D4                     l308:	
  4971                           opt subtitle "HI-TECH Software Omniscient Code Generator (Lite mode) build 49521"
  4972                           
  4973                           opt pagewidth 120
  4974                           
  4975  04D4                     l337:	
  4976  04D4  0008               	return
  4977                           opt subtitle "HI-TECH Software Omniscient Code Generator (Lite mode) build 49521"
  4978                           
  4979  04D5                     	__end_of_printf:
  4980                           opt subtitle "HI-TECH Software Omniscient Code Generator (Lite mode) build 49521"
  4981                           
  4982                           opt pagewidth 120
  4983                           
  4984                           	opt lm
  4985                           
  4986                           	processor	16F707
  4987                           clrc	macro
  4988                           	bcf	3,0
  4989                           	endm
  4990                           clrz	macro
  4991                           	bcf	3,2
  4992                           	endm
  4993                           setc	macro
  4994                           	bsf	3,0
  4995                           	endm
  4996                           setz	macro
  4997                           	bsf	3,2
  4998                           	endm
  4999                           skipc	macro
  5000                           	btfss	3,0
  5001                           	endm
  5002                           skipz	macro
  5003                           	btfss	3,2
  5004                           	endm
  5005                           skipnc	macro
  5006                           	btfsc	3,0
  5007                           	endm
  5008                           skipnz	macro
  5009                           	btfsc	3,2
  5010                           	endm
  5011                           indf	equ	0
  5012                           indf0	equ	0
  5013                           pc	equ	2
  5014                           pcl	equ	2
  5015  0C45                     __ptext864:	;psect for function _putch
  5016                           opt subtitle "HI-TECH Software Omniscient Code Generator (Lite mode) build 49521"
  5017                           
  5018                           opt pagewidth 120
  5019                           
  5020  000C                     	__size_of_putch	equ	__end_of_putch-_putch
  5021                           opt subtitle "HI-TECH Software Omniscient Code Generator (Lite mode) build 49521"
  5022  0C45                     _putch:	
  5023                           opt subtitle "HI-TECH Software Omniscient Code Generator (Lite mode) build 49521"
  5024                           
  5025                           opt pagewidth 120
  5026  0C45  1283               	bcf	status, 5	;RP0=0, select bank0
  5027  0C46  1303               	bcf	status, 6	;RP1=0, select bank0
  5028  0C47  00B3               	movwf	(putch@c)
  5029                           opt subtitle "HI-TECH Software Omniscient Code Generator (Lite mode) build 49521"
  5030                           
  5031  0C48                     l2200:	
  5032                           opt subtitle "HI-TECH Software Omniscient Code Generator (Lite mode) build 49521"
  5033  0C48  2C49               	goto	l137
  5034                           opt subtitle "HI-TECH Software Omniscient Code Generator (Lite mode) build 49521"
  5035  0C49                     l138:	
  5036                           opt subtitle "HI-TECH Software Omniscient Code Generator (Lite mode) build 49521"
  5037  0C49                     l137:	
  5038  0C49  1E0C               	btfss	(100/8),(100)&7	;volatile
  5039  0C4A  2C4C               	goto	u1891
  5040  0C4B  2C4D               	goto	u1890
  5041  0C4C                     u1891:
  5042  0C4C  2C49               	goto	l137
  5043  0C4D                     u1890:
  5044  0C4D  2C4E               	goto	l2202
  5045                           opt subtitle "HI-TECH Software Omniscient Code Generator (Lite mode) build 49521"
  5046  0C4E                     l139:	
  5047                           opt subtitle "HI-TECH Software Omniscient Code Generator (Lite mode) build 49521"
  5048                           
  5049  0C4E                     l2202:	
  5050                           opt subtitle "HI-TECH Software Omniscient Code Generator (Lite mode) build 49521"
  5051  0C4E  0833               	movf	(putch@c),w
  5052  0C4F  0099               	movwf	(25)	;volatile
  5053                           opt subtitle "HI-TECH Software Omniscient Code Generator (Lite mode) build 49521"
  5054                           
  5055  0C50                     l140:	
  5056  0C50  0008               	return
  5057                           opt subtitle "HI-TECH Software Omniscient Code Generator (Lite mode) build 49521"
  5058                           
  5059  0C51                     	__end_of_putch:
  5060                           opt subtitle "HI-TECH Software Omniscient Code Generator (Lite mode) build 49521"
  5061                           
  5062                           opt pagewidth 120
  5063                           
  5064                           	opt lm
  5065                           
  5066                           	processor	16F707
  5067                           clrc	macro
  5068                           	bcf	3,0
  5069                           	endm
  5070                           clrz	macro
  5071                           	bcf	3,2
  5072                           	endm
  5073                           setc	macro
  5074                           	bsf	3,0
  5075                           	endm
  5076                           setz	macro
  5077                           	bsf	3,2
  5078                           	endm
  5079                           skipc	macro
  5080                           	btfss	3,0
  5081                           	endm
  5082                           skipz	macro
  5083                           	btfss	3,2
  5084                           	endm
  5085                           skipnc	macro
  5086                           	btfsc	3,0
  5087                           	endm
  5088                           skipnz	macro
  5089                           	btfsc	3,2
  5090                           	endm
  5091                           indf	equ	0
  5092                           indf0	equ	0
  5093                           pc	equ	2
  5094                           pcl	equ	2
  5095                           status	equ	3
  5096                           fsr	equ	4
  5097                           fsr0	equ	4
  5098                           c	equ	1
  5099  0D69                     __ptext865:	;psect for function _SPI_Write_Buf
  5100                           opt subtitle "HI-TECH Software Omniscient Code Generator (Lite mode) build 49521"
  5101                           
  5102                           opt pagewidth 120
  5103                           
  5104  002A                     	__size_of_SPI_Write_Buf	equ	__end_of_SPI_Write_Buf-_SPI_Write_Buf
  5105                           opt subtitle "HI-TECH Software Omniscient Code Generator (Lite mode) build 49521"
  5106  0D69                     _SPI_Write_Buf:	
  5107                           opt subtitle "HI-TECH Software Omniscient Code Generator (Lite mode) build 49521"
  5108                           
  5109                           opt pagewidth 120
  5110                           
  5111  0D69  1283               	bcf	status, 5	;RP0=0, select bank0
  5112  0D6A  1303               	bcf	status, 6	;RP1=0, select bank0
  5113  0D6B  00B9               	movwf	(SPI_Write_Buf@reg)
  5114                           opt subtitle "HI-TECH Software Omniscient Code Generator (Lite mode) build 49521"
  5115  0D6C                     l2230:	
  5116                           opt subtitle "HI-TECH Software Omniscient Code Generator (Lite mode) build 49521"
  5117                           
  5118  0D6C  1108               	bcf	(8),2	;volatile
  5119                           opt subtitle "HI-TECH Software Omniscient Code Generator (Lite mode) build 49521"
  5120                           
  5121  0D6D                     l2232:	
  5122                           opt subtitle "HI-TECH Software Omniscient Code Generator (Lite mode) build 49521"
  5123  0D6D  0839               	movf	(SPI_Write_Buf@reg),w
  5124  0D6E  120A  158A  2520   	fcall	_SPI_RW
              120A  158A         
  5125                           opt subtitle "HI-TECH Software Omniscient Code Generator (Lite mode) build 49521"
  5126                           
  5127  0D73                     l2234:	
  5128                           opt subtitle "HI-TECH Software Omniscient Code Generator (Lite mode) build 49521"
  5129  0D73  1283               	bcf	status, 5	;RP0=0, select bank0
  5130  0D74  1303               	bcf	status, 6	;RP1=0, select bank0
  5131  0D75  01BA               	clrf	(SPI_Write_Buf@byte_ctr)
  5132  0D76  2D8B               	goto	l2242
  5133                           opt subtitle "HI-TECH Software Omniscient Code Generator (Lite mode) build 49521"
  5134                           
  5135  0D77                     l220:	
  5136                           opt subtitle "HI-TECH Software Omniscient Code Generator (Lite mode) build 49521"
  5137  0D77                     l2236:	
  5138                           opt subtitle "HI-TECH Software Omniscient Code Generator (Lite mode) build 49521"
  5139  0D77  0836               	movf	(SPI_Write_Buf@pBuf),w
  5140  0D78  0084               	movwf	fsr0
  5141  0D79  1383               	bcf	status, 7	;select IRP bank0
  5142  0D7A  0800               	movf	indf,w
  5143  0D7B  120A  158A  2520   	fcall	_SPI_RW
              120A  158A         
  5144                           opt subtitle "HI-TECH Software Omniscient Code Generator (Lite mode) build 49521"
  5145  0D80                     l2238:	
  5146  0D80  3001               	movlw	(01h)
  5147  0D81  1283               	bcf	status, 5	;RP0=0, select bank0
  5148  0D82  1303               	bcf	status, 6	;RP1=0, select bank0
  5149  0D83  00B8               	movwf	(??_SPI_Write_Buf+0)+0
  5150  0D84  0838               	movf	(??_SPI_Write_Buf+0)+0,w
  5151  0D85  07B6               	addwf	(SPI_Write_Buf@pBuf),f
  5152                           opt subtitle "HI-TECH Software Omniscient Code Generator (Lite mode) build 49521"
  5153                           
  5154  0D86                     l2240:	
  5155  0D86  3001               	movlw	(01h)
  5156  0D87  00B8               	movwf	(??_SPI_Write_Buf+0)+0
  5157  0D88  0838               	movf	(??_SPI_Write_Buf+0)+0,w
  5158  0D89  07BA               	addwf	(SPI_Write_Buf@byte_ctr),f
  5159  0D8A  2D8B               	goto	l2242
  5160                           opt subtitle "HI-TECH Software Omniscient Code Generator (Lite mode) build 49521"
  5161  0D8B                     l219:	
  5162                           opt subtitle "HI-TECH Software Omniscient Code Generator (Lite mode) build 49521"
  5163  0D8B                     l2242:	
  5164  0D8B  0837               	movf	(SPI_Write_Buf@length),w
  5165  0D8C  023A               	subwf	(SPI_Write_Buf@byte_ctr),w
  5166  0D8D  1C03               	skipc
  5167  0D8E  2D90               	goto	u1901
  5168  0D8F  2D91               	goto	u1900
  5169  0D90                     u1901:
  5170  0D90  2D77               	goto	l2236
  5171  0D91                     u1900:
  5172                           opt subtitle "HI-TECH Software Omniscient Code Generator (Lite mode) build 49521"
  5173  0D91                     l221:	
  5174                           opt subtitle "HI-TECH Software Omniscient Code Generator (Lite mode) build 49521"
  5175                           
  5176  0D91  1508               	bsf	(8),2	;volatile
  5177                           opt subtitle "HI-TECH Software Omniscient Code Generator (Lite mode) build 49521"
  5178                           
  5179  0D92                     l222:	
  5180  0D92  0008               	return
  5181                           opt subtitle "HI-TECH Software Omniscient Code Generator (Lite mode) build 49521"
  5182                           
  5183  0D93                     	__end_of_SPI_Write_Buf:
  5184                           opt subtitle "HI-TECH Software Omniscient Code Generator (Lite mode) build 49521"
  5185                           
  5186                           opt pagewidth 120
  5187                           
  5188                           	opt lm
  5189                           
  5190                           	processor	16F707
  5191                           clrc	macro
  5192                           	bcf	3,0
  5193                           	endm
  5194                           clrz	macro
  5195                           	bcf	3,2
  5196                           	endm
  5197                           setc	macro
  5198                           	bsf	3,0
  5199                           	endm
  5200                           setz	macro
  5201                           	bsf	3,2
  5202                           	endm
  5203                           skipc	macro
  5204                           	btfss	3,0
  5205                           	endm
  5206                           skipz	macro
  5207                           	btfss	3,2
  5208                           	endm
  5209                           skipnc	macro
  5210                           	btfsc	3,0
  5211                           	endm
  5212                           skipnz	macro
  5213                           	btfsc	3,2
  5214                           	endm
  5215                           indf	equ	0
  5216                           indf0	equ	0
  5217                           pc	equ	2
  5218                           pcl	equ	2
  5219  0D01                     __ptext866:	;psect for function _rfm70TxDataSentInterrupt
  5220                           opt subtitle "HI-TECH Software Omniscient Code Generator (Lite mode) build 49521"
  5221                           
  5222                           opt pagewidth 120
  5223                           
  5224  001F                     	__size_of_rfm70TxDataSentInterrupt	equ	__end_of_rfm70TxDataSentInterrupt-_rfm70TxDataSe
                                 ntInterrupt
  5225                           opt subtitle "HI-TECH Software Omniscient Code Generator (Lite mode) build 49521"
  5226  0D01                     _rfm70TxDataSentInterrupt:	
  5227                           opt subtitle "HI-TECH Software Omniscient Code Generator (Lite mode) build 49521"
  5228                           
  5229                           opt pagewidth 120
  5230                           
  5231  0D01                     l2244:	
  5232                           opt subtitle "HI-TECH Software Omniscient Code Generator (Lite mode) build 49521"
  5233  0D01  3007               	movlw	(07h)
  5234  0D02  120A  158A  24C9   	fcall	_SPI_Read_Reg
              120A  158A         
  5235  0D07  1283               	bcf	status, 5	;RP0=0, select bank0
  5236  0D08  1303               	bcf	status, 6	;RP1=0, select bank0
  5237  0D09  00B9               	movwf	(??_rfm70TxDataSentInterrupt+0)+0
  5238  0D0A  1EB9               	btfss	0+(??_rfm70TxDataSentInterrupt+0)+0,(5)&7
  5239  0D0B  2D0D               	goto	u1911
  5240  0D0C  2D0E               	goto	u1910
  5241  0D0D                     u1911:
  5242  0D0D  2D1C               	goto	l2254
  5243  0D0E                     u1910:
  5244                           opt subtitle "HI-TECH Software Omniscient Code Generator (Lite mode) build 49521"
  5245                           
  5246  0D0E                     l2246:	
  5247                           opt subtitle "HI-TECH Software Omniscient Code Generator (Lite mode) build 49521"
  5248  0D0E  3020               	movlw	(020h)
  5249  0D0F  00B9               	movwf	(??_rfm70TxDataSentInterrupt+0)+0
  5250  0D10  0839               	movf	(??_rfm70TxDataSentInterrupt+0)+0,w
  5251  0D11  00B6               	movwf	(?_SPI_Write_Reg)
  5252  0D12  3027               	movlw	(027h)
  5253  0D13  120A  158A  246F   	fcall	_SPI_Write_Reg
              120A  158A         
  5254                           opt subtitle "HI-TECH Software Omniscient Code Generator (Lite mode) build 49521"
  5255                           
  5256  0D18                     l2248:	
  5257                           opt subtitle "HI-TECH Software Omniscient Code Generator (Lite mode) build 49521"
  5258  0D18  3001               	movlw	(01h)
  5259  0D19  2D1F               	goto	l274
  5260                           opt subtitle "HI-TECH Software Omniscient Code Generator (Lite mode) build 49521"
  5261  0D1A                     l2250:	
  5262  0D1A  2D1F               	goto	l274
  5263                           opt subtitle "HI-TECH Software Omniscient Code Generator (Lite mode) build 49521"
  5264                           
  5265  0D1B                     l2252:	
  5266                           opt subtitle "HI-TECH Software Omniscient Code Generator (Lite mode) build 49521"
  5267  0D1B  2D1F               	goto	l274
  5268                           opt subtitle "HI-TECH Software Omniscient Code Generator (Lite mode) build 49521"
  5269                           
  5270  0D1C                     l273:	
  5271                           opt subtitle "HI-TECH Software Omniscient Code Generator (Lite mode) build 49521"
  5272                           
  5273  0D1C                     l2254:	
  5274                           opt subtitle "HI-TECH Software Omniscient Code Generator (Lite mode) build 49521"
  5275                           
  5276  0D1C  3000               	movlw	(0)
  5277  0D1D  2D1F               	goto	l274
  5278                           opt subtitle "HI-TECH Software Omniscient Code Generator (Lite mode) build 49521"
  5279  0D1E                     l2256:	
  5280  0D1E  2D1F               	goto	l274
  5281                           opt subtitle "HI-TECH Software Omniscient Code Generator (Lite mode) build 49521"
  5282  0D1F                     l275:	
  5283                           opt subtitle "HI-TECH Software Omniscient Code Generator (Lite mode) build 49521"
  5284                           
  5285  0D1F                     l274:	
  5286  0D1F  0008               	return
  5287                           opt subtitle "HI-TECH Software Omniscient Code Generator (Lite mode) build 49521"
  5288                           
  5289  0D20                     	__end_of_rfm70TxDataSentInterrupt:
  5290                           opt subtitle "HI-TECH Software Omniscient Code Generator (Lite mode) build 49521"
  5291                           
  5292                           opt pagewidth 120
  5293                           
  5294                           	opt lm
  5295                           
  5296                           	processor	16F707
  5297                           clrc	macro
  5298                           	bcf	3,0
  5299                           	endm
  5300                           clrz	macro
  5301                           	bcf	3,2
  5302                           	endm
  5303                           setc	macro
  5304                           	bsf	3,0
  5305                           	endm
  5306                           setz	macro
  5307                           	bsf	3,2
  5308                           	endm
  5309                           skipc	macro
  5310                           	btfss	3,0
  5311                           	endm
  5312                           skipz	macro
  5313                           	btfss	3,2
  5314                           	endm
  5315                           skipnc	macro
  5316                           	btfsc	3,0
  5317                           	endm
  5318                           skipnz	macro
  5319                           	btfsc	3,2
  5320                           	endm
  5321                           indf	equ	0
  5322                           indf0	equ	0
  5323                           pc	equ	2
  5324                           pcl	equ	2
  5325                           status	equ	3
  5326  0E1B                     __ptext867:	;psect for function _SwitchToRxMode
  5327                           opt subtitle "HI-TECH Software Omniscient Code Generator (Lite mode) build 49521"
  5328                           
  5329                           opt pagewidth 120
  5330                           
  5331  003F                     	__size_of_SwitchToRxMode	equ	__end_of_SwitchToRxMode-_SwitchToRxMode
  5332                           opt subtitle "HI-TECH Software Omniscient Code Generator (Lite mode) build 49521"
  5333  0E1B                     _SwitchToRxMode:	
  5334                           opt subtitle "HI-TECH Software Omniscient Code Generator (Lite mode) build 49521"
  5335                           
  5336                           opt pagewidth 120
  5337                           
  5338  0E1B                     l2258:	
  5339                           opt subtitle "HI-TECH Software Omniscient Code Generator (Lite mode) build 49521"
  5340                           
  5341  0E1B  1283               	bcf	status, 5	;RP0=0, select bank0
  5342  0E1C  1303               	bcf	status, 6	;RP1=0, select bank0
  5343  0E1D  01B6               	clrf	(?_SPI_Write_Reg)
  5344  0E1E  30E2               	movlw	(0E2h)
  5345  0E1F  120A  158A  246F   	fcall	_SPI_Write_Reg
              120A  158A         
  5346                           opt subtitle "HI-TECH Software Omniscient Code Generator (Lite mode) build 49521"
  5347                           
  5348  0E24                     l2260:	
  5349                           opt subtitle "HI-TECH Software Omniscient Code Generator (Lite mode) build 49521"
  5350  0E24  3007               	movlw	(07h)
  5351  0E25  120A  158A  24C9   	fcall	_SPI_Read_Reg
              120A  158A         
  5352  0E2A  1283               	bcf	status, 5	;RP0=0, select bank0
  5353  0E2B  1303               	bcf	status, 6	;RP1=0, select bank0
  5354  0E2C  00B9               	movwf	(??_SwitchToRxMode+0)+0
  5355  0E2D  0839               	movf	(??_SwitchToRxMode+0)+0,w
  5356  0E2E  00BA               	movwf	(SwitchToRxMode@value)
  5357                           opt subtitle "HI-TECH Software Omniscient Code Generator (Lite mode) build 49521"
  5358                           
  5359  0E2F                     l2262:	
  5360                           opt subtitle "HI-TECH Software Omniscient Code Generator (Lite mode) build 49521"
  5361  0E2F  083A               	movf	(SwitchToRxMode@value),w
  5362  0E30  00B9               	movwf	(??_SwitchToRxMode+0)+0
  5363  0E31  0839               	movf	(??_SwitchToRxMode+0)+0,w
  5364  0E32  00B6               	movwf	(?_SPI_Write_Reg)
  5365  0E33  3027               	movlw	(027h)
  5366  0E34  120A  158A  246F   	fcall	_SPI_Write_Reg
              120A  158A         
  5367                           opt subtitle "HI-TECH Software Omniscient Code Generator (Lite mode) build 49521"
  5368                           
  5369  0E39                     l2264:	
  5370                           opt subtitle "HI-TECH Software Omniscient Code Generator (Lite mode) build 49521"
  5371  0E39  1283               	bcf	status, 5	;RP0=0, select bank0
  5372  0E3A  1303               	bcf	status, 6	;RP1=0, select bank0
  5373  0E3B  1107               	bcf	(7),2	;volatile
  5374                           opt subtitle "HI-TECH Software Omniscient Code Generator (Lite mode) build 49521"
  5375                           
  5376  0E3C  3000               	movlw	(0)
  5377  0E3D  120A  158A  24C9   	fcall	_SPI_Read_Reg
              120A  158A         
  5378  0E42  1283               	bcf	status, 5	;RP0=0, select bank0
  5379  0E43  1303               	bcf	status, 6	;RP1=0, select bank0
  5380  0E44  00B9               	movwf	(??_SwitchToRxMode+0)+0
  5381  0E45  0839               	movf	(??_SwitchToRxMode+0)+0,w
  5382  0E46  00BA               	movwf	(SwitchToRxMode@value)
  5383                           opt subtitle "HI-TECH Software Omniscient Code Generator (Lite mode) build 49521"
  5384                           
  5385  0E47                     l2266:	
  5386                           opt subtitle "HI-TECH Software Omniscient Code Generator (Lite mode) build 49521"
  5387  0E47  083A               	movf	(SwitchToRxMode@value),w
  5388  0E48  3801               	iorlw	01h
  5389  0E49  00B9               	movwf	(??_SwitchToRxMode+0)+0
  5390  0E4A  0839               	movf	(??_SwitchToRxMode+0)+0,w
  5391  0E4B  00BA               	movwf	(SwitchToRxMode@value)
  5392                           opt subtitle "HI-TECH Software Omniscient Code Generator (Lite mode) build 49521"
  5393                           
  5394  0E4C                     l2268:	
  5395                           opt subtitle "HI-TECH Software Omniscient Code Generator (Lite mode) build 49521"
  5396  0E4C  083A               	movf	(SwitchToRxMode@value),w
  5397  0E4D  00B9               	movwf	(??_SwitchToRxMode+0)+0
  5398  0E4E  0839               	movf	(??_SwitchToRxMode+0)+0,w
  5399  0E4F  00B6               	movwf	(?_SPI_Write_Reg)
  5400  0E50  3020               	movlw	(020h)
  5401  0E51  120A  158A  246F   	fcall	_SPI_Write_Reg
              120A  158A         
  5402                           opt subtitle "HI-TECH Software Omniscient Code Generator (Lite mode) build 49521"
  5403                           
  5404  0E56                     l2270:	
  5405                           opt subtitle "HI-TECH Software Omniscient Code Generator (Lite mode) build 49521"
  5406  0E56  1283               	bcf	status, 5	;RP0=0, select bank0
  5407  0E57  1303               	bcf	status, 6	;RP1=0, select bank0
  5408  0E58  1507               	bsf	(7),2	;volatile
  5409                           opt subtitle "HI-TECH Software Omniscient Code Generator (Lite mode) build 49521"
  5410                           
  5411  0E59                     l225:	
  5412  0E59  0008               	return
  5413                           opt subtitle "HI-TECH Software Omniscient Code Generator (Lite mode) build 49521"
  5414                           
  5415  0E5A                     	__end_of_SwitchToRxMode:
  5416                           opt subtitle "HI-TECH Software Omniscient Code Generator (Lite mode) build 49521"
  5417                           
  5418                           opt pagewidth 120
  5419                           
  5420                           	opt lm
  5421                           
  5422                           	processor	16F707
  5423                           clrc	macro
  5424                           	bcf	3,0
  5425                           	endm
  5426                           clrz	macro
  5427                           	bcf	3,2
  5428                           	endm
  5429                           setc	macro
  5430                           	bsf	3,0
  5431                           	endm
  5432                           setz	macro
  5433                           	bsf	3,2
  5434                           	endm
  5435                           skipc	macro
  5436                           	btfss	3,0
  5437                           	endm
  5438                           skipz	macro
  5439                           	btfss	3,2
  5440                           	endm
  5441                           skipnc	macro
  5442                           	btfsc	3,0
  5443                           	endm
  5444                           skipnz	macro
  5445                           	btfsc	3,2
  5446                           	endm
  5447                           indf	equ	0
  5448                           indf0	equ	0
  5449                           pc	equ	2
  5450                           pcl	equ	2
  5451  0CE2                     __ptext868:	;psect for function _rfm70TxDataSentErrorInterrupt
  5452                           opt subtitle "HI-TECH Software Omniscient Code Generator (Lite mode) build 49521"
  5453                           
  5454                           opt pagewidth 120
  5455                           
  5456  001F                     	__size_of_rfm70TxDataSentErrorInterrupt	equ	__end_of_rfm70TxDataSentErrorInterrupt-_rfm
                                 70TxDataSentErrorInterrupt
  5457                           opt subtitle "HI-TECH Software Omniscient Code Generator (Lite mode) build 49521"
  5458  0CE2                     _rfm70TxDataSentErrorInterrupt:	
  5459                           opt subtitle "HI-TECH Software Omniscient Code Generator (Lite mode) build 49521"
  5460                           
  5461                           opt pagewidth 120
  5462                           
  5463  0CE2                     l2272:	
  5464                           opt subtitle "HI-TECH Software Omniscient Code Generator (Lite mode) build 49521"
  5465  0CE2  3007               	movlw	(07h)
  5466  0CE3  120A  158A  24C9   	fcall	_SPI_Read_Reg
              120A  158A         
  5467  0CE8  1283               	bcf	status, 5	;RP0=0, select bank0
  5468  0CE9  1303               	bcf	status, 6	;RP1=0, select bank0
  5469  0CEA  00B9               	movwf	(??_rfm70TxDataSentErrorInterrupt+0)+0
  5470  0CEB  1EB9               	btfss	0+(??_rfm70TxDataSentErrorInterrupt+0)+0,(5)&7
  5471  0CEC  2CEE               	goto	u1921
  5472  0CED  2CEF               	goto	u1920
  5473  0CEE                     u1921:
  5474  0CEE  2CFD               	goto	l2282
  5475  0CEF                     u1920:
  5476                           opt subtitle "HI-TECH Software Omniscient Code Generator (Lite mode) build 49521"
  5477                           
  5478  0CEF                     l2274:	
  5479                           opt subtitle "HI-TECH Software Omniscient Code Generator (Lite mode) build 49521"
  5480  0CEF  3010               	movlw	(010h)
  5481  0CF0  00B9               	movwf	(??_rfm70TxDataSentErrorInterrupt+0)+0
  5482  0CF1  0839               	movf	(??_rfm70TxDataSentErrorInterrupt+0)+0,w
  5483  0CF2  00B6               	movwf	(?_SPI_Write_Reg)
  5484  0CF3  3027               	movlw	(027h)
  5485  0CF4  120A  158A  246F   	fcall	_SPI_Write_Reg
              120A  158A         
  5486                           opt subtitle "HI-TECH Software Omniscient Code Generator (Lite mode) build 49521"
  5487                           
  5488  0CF9                     l2276:	
  5489                           opt subtitle "HI-TECH Software Omniscient Code Generator (Lite mode) build 49521"
  5490  0CF9  3001               	movlw	(01h)
  5491  0CFA  2D00               	goto	l279
  5492                           opt subtitle "HI-TECH Software Omniscient Code Generator (Lite mode) build 49521"
  5493  0CFB                     l2278:	
  5494  0CFB  2D00               	goto	l279
  5495                           opt subtitle "HI-TECH Software Omniscient Code Generator (Lite mode) build 49521"
  5496                           
  5497  0CFC                     l2280:	
  5498                           opt subtitle "HI-TECH Software Omniscient Code Generator (Lite mode) build 49521"
  5499  0CFC  2D00               	goto	l279
  5500                           opt subtitle "HI-TECH Software Omniscient Code Generator (Lite mode) build 49521"
  5501                           
  5502  0CFD                     l278:	
  5503                           opt subtitle "HI-TECH Software Omniscient Code Generator (Lite mode) build 49521"
  5504                           
  5505  0CFD                     l2282:	
  5506                           opt subtitle "HI-TECH Software Omniscient Code Generator (Lite mode) build 49521"
  5507                           
  5508  0CFD  3000               	movlw	(0)
  5509  0CFE  2D00               	goto	l279
  5510                           opt subtitle "HI-TECH Software Omniscient Code Generator (Lite mode) build 49521"
  5511  0CFF                     l2284:	
  5512  0CFF  2D00               	goto	l279
  5513                           opt subtitle "HI-TECH Software Omniscient Code Generator (Lite mode) build 49521"
  5514  0D00                     l280:	
  5515                           opt subtitle "HI-TECH Software Omniscient Code Generator (Lite mode) build 49521"
  5516                           
  5517  0D00                     l279:	
  5518  0D00  0008               	return
  5519                           opt subtitle "HI-TECH Software Omniscient Code Generator (Lite mode) build 49521"
  5520                           
  5521  0D01                     	__end_of_rfm70TxDataSentErrorInterrupt:
  5522                           opt subtitle "HI-TECH Software Omniscient Code Generator (Lite mode) build 49521"
  5523                           
  5524                           opt pagewidth 120
  5525                           
  5526                           	opt lm
  5527                           
  5528                           	processor	16F707
  5529                           clrc	macro
  5530                           	bcf	3,0
  5531                           	endm
  5532                           clrz	macro
  5533                           	bcf	3,2
  5534                           	endm
  5535                           setc	macro
  5536                           	bsf	3,0
  5537                           	endm
  5538                           setz	macro
  5539                           	bsf	3,2
  5540                           	endm
  5541                           skipc	macro
  5542                           	btfss	3,0
  5543                           	endm
  5544                           skipz	macro
  5545                           	btfss	3,2
  5546                           	endm
  5547                           skipnc	macro
  5548                           	btfsc	3,0
  5549                           	endm
  5550                           skipnz	macro
  5551                           	btfsc	3,2
  5552                           	endm
  5553                           indf	equ	0
  5554                           indf0	equ	0
  5555                           pc	equ	2
  5556                           pcl	equ	2
  5557                           status	equ	3
  5558  0DE9                     __ptext869:	;psect for function _SwitchCFG
  5559                           opt subtitle "HI-TECH Software Omniscient Code Generator (Lite mode) build 49521"
  5560                           
  5561                           opt pagewidth 120
  5562                           
  5563  0032                     	__size_of_SwitchCFG	equ	__end_of_SwitchCFG-_SwitchCFG
  5564                           opt subtitle "HI-TECH Software Omniscient Code Generator (Lite mode) build 49521"
  5565  0DE9                     _SwitchCFG:	
  5566                           opt subtitle "HI-TECH Software Omniscient Code Generator (Lite mode) build 49521"
  5567                           
  5568                           opt pagewidth 120
  5569                           
  5570  0DE9  1283               	bcf	status, 5	;RP0=0, select bank0
  5571  0DEA  1303               	bcf	status, 6	;RP1=0, select bank0
  5572  0DEB  00BA               	movwf	(SwitchCFG@_cfg)
  5573                           opt subtitle "HI-TECH Software Omniscient Code Generator (Lite mode) build 49521"
  5574  0DEC                     l2362:	
  5575                           opt subtitle "HI-TECH Software Omniscient Code Generator (Lite mode) build 49521"
  5576                           
  5577  0DEC  3007               	movlw	(07h)
  5578  0DED  120A  158A  24C9   	fcall	_SPI_Read_Reg
              120A  158A         
  5579  0DF2  1283               	bcf	status, 5	;RP0=0, select bank0
  5580  0DF3  1303               	bcf	status, 6	;RP1=0, select bank0
  5581  0DF4  00B9               	movwf	(??_SwitchCFG+0)+0
  5582  0DF5  0839               	movf	(??_SwitchCFG+0)+0,w
  5583  0DF6  00BB               	movwf	(SwitchCFG@Tmp)
  5584                           opt subtitle "HI-TECH Software Omniscient Code Generator (Lite mode) build 49521"
  5585                           
  5586  0DF7                     l2364:	
  5587                           opt subtitle "HI-TECH Software Omniscient Code Generator (Lite mode) build 49521"
  5588  0DF7  083B               	movf	(SwitchCFG@Tmp),w
  5589  0DF8  3980               	andlw	080h
  5590  0DF9  00B9               	movwf	(??_SwitchCFG+0)+0
  5591  0DFA  0839               	movf	(??_SwitchCFG+0)+0,w
  5592  0DFB  00BB               	movwf	(SwitchCFG@Tmp)
  5593                           opt subtitle "HI-TECH Software Omniscient Code Generator (Lite mode) build 49521"
  5594                           
  5595  0DFC                     l2366:	
  5596                           opt subtitle "HI-TECH Software Omniscient Code Generator (Lite mode) build 49521"
  5597                           
  5598  0DFC  083B               	movf	(SwitchCFG@Tmp),w
  5599  0DFD  1D03               	skipz
  5600  0DFE  2E00               	goto	u2000
  5601  0DFF  2E05               	goto	l2370
  5602  0E00                     u2000:
  5603                           opt subtitle "HI-TECH Software Omniscient Code Generator (Lite mode) build 49521"
  5604  0E00                     l2368:	
  5605  0E00  083A               	movf	(SwitchCFG@_cfg),w
  5606  0E01  1D03               	skipz
  5607  0E02  2E04               	goto	u2010
  5608  0E03  2E0F               	goto	l2374
  5609  0E04                     u2010:
  5610  0E04  2E05               	goto	l2370
  5611                           opt subtitle "HI-TECH Software Omniscient Code Generator (Lite mode) build 49521"
  5612  0E05                     l235:	
  5613                           opt subtitle "HI-TECH Software Omniscient Code Generator (Lite mode) build 49521"
  5614  0E05                     l2370:	
  5615  0E05  08BB               	movf	(SwitchCFG@Tmp),f
  5616  0E06  1D03               	skipz
  5617  0E07  2E09               	goto	u2021
  5618  0E08  2E0A               	goto	u2020
  5619  0E09                     u2021:
  5620  0E09  2E1A               	goto	l236
  5621  0E0A                     u2020:
  5622                           opt subtitle "HI-TECH Software Omniscient Code Generator (Lite mode) build 49521"
  5623  0E0A                     l2372:	
  5624  0E0A  083A               	movf	(SwitchCFG@_cfg),w
  5625  0E0B  1D03               	skipz
  5626  0E0C  2E0E               	goto	u2030
  5627  0E0D  2E1A               	goto	l236
  5628  0E0E                     u2030:
  5629  0E0E  2E0F               	goto	l2374
  5630                           opt subtitle "HI-TECH Software Omniscient Code Generator (Lite mode) build 49521"
  5631  0E0F                     l233:	
  5632                           opt subtitle "HI-TECH Software Omniscient Code Generator (Lite mode) build 49521"
  5633                           
  5634  0E0F                     l2374:	
  5635                           opt subtitle "HI-TECH Software Omniscient Code Generator (Lite mode) build 49521"
  5636                           
  5637  0E0F  3053               	movlw	(053h)
  5638  0E10  00B9               	movwf	(??_SwitchCFG+0)+0
  5639  0E11  0839               	movf	(??_SwitchCFG+0)+0,w
  5640  0E12  00B6               	movwf	(?_SPI_Write_Reg)
  5641  0E13  3050               	movlw	(050h)
  5642  0E14  120A  158A  246F   	fcall	_SPI_Write_Reg
              120A  158A         
  5643  0E19  2E1A               	goto	l236
  5644                           opt subtitle "HI-TECH Software Omniscient Code Generator (Lite mode) build 49521"
  5645                           
  5646  0E1A                     l231:	
  5647                           opt subtitle "HI-TECH Software Omniscient Code Generator (Lite mode) build 49521"
  5648                           
  5649  0E1A                     l236:	
  5650  0E1A  0008               	return
  5651                           opt subtitle "HI-TECH Software Omniscient Code Generator (Lite mode) build 49521"
  5652                           
  5653  0E1B                     	__end_of_SwitchCFG:
  5654                           opt subtitle "HI-TECH Software Omniscient Code Generator (Lite mode) build 49521"
  5655                           
  5656                           opt pagewidth 120
  5657                           
  5658                           	opt lm
  5659                           
  5660                           	processor	16F707
  5661                           clrc	macro
  5662                           	bcf	3,0
  5663                           	endm
  5664                           clrz	macro
  5665                           	bcf	3,2
  5666                           	endm
  5667                           setc	macro
  5668                           	bsf	3,0
  5669                           	endm
  5670                           setz	macro
  5671                           	bsf	3,2
  5672                           	endm
  5673                           skipc	macro
  5674                           	btfss	3,0
  5675                           	endm
  5676                           skipz	macro
  5677                           	btfss	3,2
  5678                           	endm
  5679                           skipnc	macro
  5680                           	btfsc	3,0
  5681                           	endm
  5682                           skipnz	macro
  5683                           	btfsc	3,2
  5684                           	endm
  5685                           indf	equ	0
  5686                           indf0	equ	0
  5687                           pc	equ	2
  5688                           pcl	equ	2
  5689                           status	equ	3
  5690                           fsr	equ	4
  5691                           fsr0	equ	4
  5692                           c	equ	1
  5693                           z	equ	0
  5694                           pclath	equ	10
  5695                           # 46 "/Applications/microchip/xc8/v1.12/include/pic16f707.h"
  5696                           INDF equ 00h ;# 
  5697                           # 52 "/Applications/microchip/xc8/v1.12/include/pic16f707.h"
  5698  0CC9                     __ptext870:	;psect for function _SPI_Read_Reg
  5699                           opt subtitle "HI-TECH Software Omniscient Code Generator (Lite mode) build 49521"
  5700                           
  5701                           opt pagewidth 120
  5702                           
  5703  0019                     	__size_of_SPI_Read_Reg	equ	__end_of_SPI_Read_Reg-_SPI_Read_Reg
  5704                           opt subtitle "HI-TECH Software Omniscient Code Generator (Lite mode) build 49521"
  5705  0CC9                     _SPI_Read_Reg:	
  5706                           opt subtitle "HI-TECH Software Omniscient Code Generator (Lite mode) build 49521"
  5707                           
  5708                           opt pagewidth 120
  5709                           
  5710  0CC9  1283               	bcf	status, 5	;RP0=0, select bank0
  5711  0CCA  1303               	bcf	status, 6	;RP1=0, select bank0
  5712  0CCB  00B7               	movwf	(SPI_Read_Reg@reg)
  5713                           opt subtitle "HI-TECH Software Omniscient Code Generator (Lite mode) build 49521"
  5714  0CCC                     l2218:	
  5715                           opt subtitle "HI-TECH Software Omniscient Code Generator (Lite mode) build 49521"
  5716                           
  5717  0CCC  1108               	bcf	(8),2	;volatile
  5718                           opt subtitle "HI-TECH Software Omniscient Code Generator (Lite mode) build 49521"
  5719                           
  5720  0CCD                     l2220:	
  5721                           opt subtitle "HI-TECH Software Omniscient Code Generator (Lite mode) build 49521"
  5722  0CCD  0837               	movf	(SPI_Read_Reg@reg),w
  5723  0CCE  120A  158A  2520   	fcall	_SPI_RW
              120A  158A         
  5724                           opt subtitle "HI-TECH Software Omniscient Code Generator (Lite mode) build 49521"
  5725                           
  5726  0CD3                     l2222:	
  5727                           opt subtitle "HI-TECH Software Omniscient Code Generator (Lite mode) build 49521"
  5728  0CD3  3000               	movlw	(0)
  5729  0CD4  120A  158A  2520   	fcall	_SPI_RW
              120A  158A         
  5730  0CD9  1283               	bcf	status, 5	;RP0=0, select bank0
  5731  0CDA  1303               	bcf	status, 6	;RP1=0, select bank0
  5732  0CDB  00B6               	movwf	(??_SPI_Read_Reg+0)+0
  5733  0CDC  0836               	movf	(??_SPI_Read_Reg+0)+0,w
  5734  0CDD  00B8               	movwf	(SPI_Read_Reg@value)
  5735                           opt subtitle "HI-TECH Software Omniscient Code Generator (Lite mode) build 49521"
  5736                           
  5737  0CDE                     l2224:	
  5738                           opt subtitle "HI-TECH Software Omniscient Code Generator (Lite mode) build 49521"
  5739  0CDE  1508               	bsf	(8),2	;volatile
  5740                           opt subtitle "HI-TECH Software Omniscient Code Generator (Lite mode) build 49521"
  5741                           
  5742  0CDF                     l2226:	
  5743                           opt subtitle "HI-TECH Software Omniscient Code Generator (Lite mode) build 49521"
  5744  0CDF  0838               	movf	(SPI_Read_Reg@value),w
  5745  0CE0  2CE1               	goto	l210
  5746                           opt subtitle "HI-TECH Software Omniscient Code Generator (Lite mode) build 49521"
  5747  0CE1                     l2228:	
  5748                           opt subtitle "HI-TECH Software Omniscient Code Generator (Lite mode) build 49521"
  5749                           
  5750  0CE1                     l210:	
  5751  0CE1  0008               	return
  5752                           opt subtitle "HI-TECH Software Omniscient Code Generator (Lite mode) build 49521"
  5753                           
  5754  0CE2                     	__end_of_SPI_Read_Reg:
  5755                           opt subtitle "HI-TECH Software Omniscient Code Generator (Lite mode) build 49521"
  5756                           
  5757                           opt pagewidth 120
  5758                           
  5759                           	opt lm
  5760                           
  5761                           	processor	16F707
  5762                           clrc	macro
  5763                           	bcf	3,0
  5764                           	endm
  5765                           clrz	macro
  5766                           	bcf	3,2
  5767                           	endm
  5768                           setc	macro
  5769                           	bsf	3,0
  5770                           	endm
  5771                           setz	macro
  5772                           	bsf	3,2
  5773                           	endm
  5774                           skipc	macro
  5775                           	btfss	3,0
  5776                           	endm
  5777                           skipz	macro
  5778                           	btfss	3,2
  5779                           	endm
  5780                           skipnc	macro
  5781                           	btfsc	3,0
  5782                           	endm
  5783                           skipnz	macro
  5784                           	btfsc	3,2
  5785                           	endm
  5786                           indf	equ	0
  5787                           indf0	equ	0
  5788                           pc	equ	2
  5789                           pcl	equ	2
  5790                           status	equ	3
  5791                           fsr	equ	4
  5792                           fsr0	equ	4
  5793                           c	equ	1
  5794                           z	equ	0
  5795                           pclath	equ	10
  5796                           # 46 "/Applications/microchip/xc8/v1.12/include/pic16f707.h"
  5797                           INDF equ 00h ;# 
  5798                           # 52 "/Applications/microchip/xc8/v1.12/include/pic16f707.h"
  5799  0C6F                     __ptext871:	;psect for function _SPI_Write_Reg
  5800                           opt subtitle "HI-TECH Software Omniscient Code Generator (Lite mode) build 49521"
  5801                           
  5802                           opt pagewidth 120
  5803                           
  5804  0016                     	__size_of_SPI_Write_Reg	equ	__end_of_SPI_Write_Reg-_SPI_Write_Reg
  5805                           opt subtitle "HI-TECH Software Omniscient Code Generator (Lite mode) build 49521"
  5806  0C6F                     _SPI_Write_Reg:	
  5807                           opt subtitle "HI-TECH Software Omniscient Code Generator (Lite mode) build 49521"
  5808                           
  5809                           opt pagewidth 120
  5810  0C6F  1283               	bcf	status, 5	;RP0=0, select bank0
  5811  0C70  1303               	bcf	status, 6	;RP1=0, select bank0
  5812  0C71  00B7               	movwf	(SPI_Write_Reg@reg)
  5813                           opt subtitle "HI-TECH Software Omniscient Code Generator (Lite mode) build 49521"
  5814                           
  5815  0C72                     l2350:	
  5816                           opt subtitle "HI-TECH Software Omniscient Code Generator (Lite mode) build 49521"
  5817  0C72  1108               	bcf	(8),2	;volatile
  5818                           opt subtitle "HI-TECH Software Omniscient Code Generator (Lite mode) build 49521"
  5819                           
  5820  0C73                     l2352:	
  5821                           opt subtitle "HI-TECH Software Omniscient Code Generator (Lite mode) build 49521"
  5822  0C73  0837               	movf	(SPI_Write_Reg@reg),w
  5823  0C74  120A  158A  2520   	fcall	_SPI_RW
              120A  158A         
  5824                           opt subtitle "HI-TECH Software Omniscient Code Generator (Lite mode) build 49521"
  5825                           
  5826  0C79  1283               	bcf	status, 5	;RP0=0, select bank0
  5827  0C7A  1303               	bcf	status, 6	;RP1=0, select bank0
  5828  0C7B  0836               	movf	(SPI_Write_Reg@value),w
  5829  0C7C  120A  158A  2520   	fcall	_SPI_RW
              120A  158A         
  5830                           opt subtitle "HI-TECH Software Omniscient Code Generator (Lite mode) build 49521"
  5831                           
  5832  0C81                     l2354:	
  5833                           opt subtitle "HI-TECH Software Omniscient Code Generator (Lite mode) build 49521"
  5834  0C81  1283               	bcf	status, 5	;RP0=0, select bank0
  5835  0C82  1303               	bcf	status, 6	;RP1=0, select bank0
  5836  0C83  1508               	bsf	(8),2	;volatile
  5837                           opt subtitle "HI-TECH Software Omniscient Code Generator (Lite mode) build 49521"
  5838                           
  5839  0C84                     l207:	
  5840  0C84  0008               	return
  5841                           opt subtitle "HI-TECH Software Omniscient Code Generator (Lite mode) build 49521"
  5842                           
  5843  0C85                     	__end_of_SPI_Write_Reg:
  5844                           opt subtitle "HI-TECH Software Omniscient Code Generator (Lite mode) build 49521"
  5845                           
  5846                           opt pagewidth 120
  5847                           
  5848                           	opt lm
  5849                           
  5850                           	processor	16F707
  5851                           clrc	macro
  5852                           	bcf	3,0
  5853                           	endm
  5854                           clrz	macro
  5855                           	bcf	3,2
  5856                           	endm
  5857                           setc	macro
  5858                           	bsf	3,0
  5859                           	endm
  5860                           setz	macro
  5861                           	bsf	3,2
  5862                           	endm
  5863                           skipc	macro
  5864                           	btfss	3,0
  5865                           	endm
  5866                           skipz	macro
  5867                           	btfss	3,2
  5868                           	endm
  5869                           skipnc	macro
  5870                           	btfsc	3,0
  5871                           	endm
  5872                           skipnz	macro
  5873                           	btfsc	3,2
  5874                           	endm
  5875                           indf	equ	0
  5876                           indf0	equ	0
  5877                           pc	equ	2
  5878                           pcl	equ	2
  5879                           status	equ	3
  5880                           fsr	equ	4
  5881  0D20                     __ptext872:	;psect for function _SPI_RW
  5882                           opt subtitle "HI-TECH Software Omniscient Code Generator (Lite mode) build 49521"
  5883                           
  5884                           opt pagewidth 120
  5885                           
  5886  0024                     	__size_of_SPI_RW	equ	__end_of_SPI_RW-_SPI_RW
  5887                           opt subtitle "HI-TECH Software Omniscient Code Generator (Lite mode) build 49521"
  5888  0D20                     _SPI_RW:	
  5889                           opt subtitle "HI-TECH Software Omniscient Code Generator (Lite mode) build 49521"
  5890                           
  5891                           opt pagewidth 120
  5892  0D20  1283               	bcf	status, 5	;RP0=0, select bank0
  5893  0D21  1303               	bcf	status, 6	;RP1=0, select bank0
  5894  0D22  00B5               	movwf	(SPI_RW@value)
  5895                           opt subtitle "HI-TECH Software Omniscient Code Generator (Lite mode) build 49521"
  5896                           
  5897  0D23                     l2356:	
  5898                           opt subtitle "HI-TECH Software Omniscient Code Generator (Lite mode) build 49521"
  5899  0D23  0835               	movf	(SPI_RW@value),w
  5900  0D24  0093               	movwf	(19)	;volatile
  5901                           opt subtitle "HI-TECH Software Omniscient Code Generator (Lite mode) build 49521"
  5902                           
  5903                           opt pagewidth 120
  5904  0D25  300B               movlw	11
  5905  0D26  00B4               movwf	((??_SPI_RW+0)+0+1),f
  5906  0D27  3062               	movlw	98
  5907  0D28  00B3               movwf	((??_SPI_RW+0)+0),f
  5908  0D29                     u2577:
  5909  0D29  0BB3               	decfsz	((??_SPI_RW+0)+0),f
  5910  0D2A  2D29               	goto	u2577
  5911  0D2B  0BB4               	decfsz	((??_SPI_RW+0)+0+1),f
  5912  0D2C  2D29               	goto	u2577
  5913  0D2D  0000               	nop
  5914                           opt subtitle "HI-TECH Software Omniscient Code Generator (Lite mode) build 49521"
  5915                           
  5916                           opt pagewidth 120
  5917                           
  5918  0D2E  2D2F               	goto	l201
  5919                           opt subtitle "HI-TECH Software Omniscient Code Generator (Lite mode) build 49521"
  5920  0D2F                     l202:	
  5921                           opt subtitle "HI-TECH Software Omniscient Code Generator (Lite mode) build 49521"
  5922  0D2F                     l201:	
  5923  0D2F  1283               	bcf	status, 5	;RP0=0, select bank0
  5924  0D30  1303               	bcf	status, 6	;RP1=0, select bank0
  5925  0D31  1D8C               	btfss	(12),3	;volatile
  5926  0D32  2D34               	goto	u1991
  5927  0D33  2D35               	goto	u1990
  5928  0D34                     u1991:
  5929  0D34  2D2F               	goto	l201
  5930  0D35                     u1990:
  5931  0D35  2D36               	goto	l2358
  5932                           opt subtitle "HI-TECH Software Omniscient Code Generator (Lite mode) build 49521"
  5933  0D36                     l203:	
  5934                           opt subtitle "HI-TECH Software Omniscient Code Generator (Lite mode) build 49521"
  5935                           
  5936  0D36                     l2358:	
  5937                           opt subtitle "HI-TECH Software Omniscient Code Generator (Lite mode) build 49521"
  5938                           
  5939  0D36  300B               movlw	11
  5940  0D37  00B4               movwf	((??_SPI_RW+0)+0+1),f
  5941  0D38  3062               	movlw	98
  5942  0D39  00B3               movwf	((??_SPI_RW+0)+0),f
  5943  0D3A                     u2587:
  5944  0D3A  0BB3               	decfsz	((??_SPI_RW+0)+0),f
  5945  0D3B  2D3A               	goto	u2587
  5946  0D3C  0BB4               	decfsz	((??_SPI_RW+0)+0+1),f
  5947  0D3D  2D3A               	goto	u2587
  5948  0D3E  0000               	nop
  5949                           opt subtitle "HI-TECH Software Omniscient Code Generator (Lite mode) build 49521"
  5950                           
  5951                           opt pagewidth 120
  5952                           
  5953  0D3F  1283               	bcf	status, 5	;RP0=0, select bank0
  5954  0D40  1303               	bcf	status, 6	;RP1=0, select bank0
  5955  0D41  0813               	movf	(19),w	;volatile
  5956  0D42  2D43               	goto	l204
  5957                           opt subtitle "HI-TECH Software Omniscient Code Generator (Lite mode) build 49521"
  5958  0D43                     l2360:	
  5959                           opt subtitle "HI-TECH Software Omniscient Code Generator (Lite mode) build 49521"
  5960                           
  5961  0D43                     l204:	
  5962  0D43  0008               	return
  5963                           opt subtitle "HI-TECH Software Omniscient Code Generator (Lite mode) build 49521"
  5964                           
  5965  0D44                     	__end_of_SPI_RW:
  5966                           opt subtitle "HI-TECH Software Omniscient Code Generator (Lite mode) build 49521"
  5967                           
  5968                           opt pagewidth 120
  5969                           
  5970                           	opt lm
  5971                           
  5972                           	processor	16F707
  5973                           clrc	macro
  5974                           	bcf	3,0
  5975                           	endm
  5976                           clrz	macro
  5977                           	bcf	3,2
  5978                           	endm
  5979                           setc	macro
  5980                           	bsf	3,0
  5981                           	endm
  5982                           setz	macro
  5983                           	bsf	3,2
  5984                           	endm
  5985                           skipc	macro
  5986                           	btfss	3,0
  5987                           	endm
  5988                           skipz	macro
  5989                           	btfss	3,2
  5990                           	endm
  5991                           skipnc	macro
  5992                           	btfsc	3,0
  5993                           	endm
  5994                           skipnz	macro
  5995                           	btfsc	3,2
  5996                           	endm
  5997                           indf	equ	0
  5998                           indf0	equ	0
  5999                           pc	equ	2
  6000                           pcl	equ	2
  6001                           status	equ	3
  6002  0EE2                     __ptext873:	;psect for function ___lwdiv
  6003                           opt subtitle "HI-TECH Software Omniscient Code Generator (Lite mode) build 49521"
  6004                           
  6005                           opt pagewidth 120
  6006                           
  6007  004F                     	__size_of___lwdiv	equ	__end_of___lwdiv-___lwdiv
  6008                           opt subtitle "HI-TECH Software Omniscient Code Generator (Lite mode) build 49521"
  6009  0EE2                     ___lwdiv:	
  6010                           opt subtitle "HI-TECH Software Omniscient Code Generator (Lite mode) build 49521"
  6011                           
  6012                           opt pagewidth 120
  6013                           
  6014  0EE2                     l2386:	
  6015  0EE2  1283               	bcf	status, 5	;RP0=0, select bank0
  6016  0EE3  1303               	bcf	status, 6	;RP1=0, select bank0
  6017  0EE4  01B8               	clrf	(___lwdiv@quotient)
  6018  0EE5  01B9               	clrf	(___lwdiv@quotient+1)
  6019                           opt subtitle "HI-TECH Software Omniscient Code Generator (Lite mode) build 49521"
  6020                           
  6021  0EE6                     l2388:	
  6022  0EE6  0834               	movf	(___lwdiv@divisor+1),w
  6023  0EE7  0433               	iorwf	(___lwdiv@divisor),w
  6024  0EE8  1903               	skipnz
  6025  0EE9  2EEB               	goto	u2051
  6026  0EEA  2EEC               	goto	u2050
  6027  0EEB                     u2051:
  6028  0EEB  2F29               	goto	l2408
  6029  0EEC                     u2050:
  6030                           opt subtitle "HI-TECH Software Omniscient Code Generator (Lite mode) build 49521"
  6031                           
  6032  0EEC                     l2390:	
  6033  0EEC  01BA               	clrf	(___lwdiv@counter)
  6034  0EED  0ABA               	incf	(___lwdiv@counter),f
  6035                           opt subtitle "HI-TECH Software Omniscient Code Generator (Lite mode) build 49521"
  6036  0EEE  2EFB               	goto	l2396
  6037                           opt subtitle "HI-TECH Software Omniscient Code Generator (Lite mode) build 49521"
  6038  0EEF                     l354:	
  6039                           opt subtitle "HI-TECH Software Omniscient Code Generator (Lite mode) build 49521"
  6040                           
  6041  0EEF                     l2392:	
  6042  0EEF  3001               	movlw	01h
  6043                           opt subtitle "HI-TECH Software Omniscient Code Generator (Lite mode) build 49521"
  6044  0EF0                     u2065:
  6045  0EF0  1003               	clrc
  6046  0EF1  0DB3               	rlf	(___lwdiv@divisor),f
  6047  0EF2  0DB4               	rlf	(___lwdiv@divisor+1),f
  6048  0EF3  3EFF               	addlw	-1
  6049  0EF4  1D03               	skipz
  6050  0EF5  2EF0               	goto	u2065
  6051                           opt subtitle "HI-TECH Software Omniscient Code Generator (Lite mode) build 49521"
  6052                           
  6053  0EF6                     l2394:	
  6054  0EF6  3001               	movlw	(01h)
  6055  0EF7  00B7               	movwf	(??___lwdiv+0)+0
  6056  0EF8  0837               	movf	(??___lwdiv+0)+0,w
  6057  0EF9  07BA               	addwf	(___lwdiv@counter),f
  6058  0EFA  2EFB               	goto	l2396
  6059                           opt subtitle "HI-TECH Software Omniscient Code Generator (Lite mode) build 49521"
  6060                           
  6061  0EFB                     l353:	
  6062                           opt subtitle "HI-TECH Software Omniscient Code Generator (Lite mode) build 49521"
  6063                           
  6064  0EFB                     l2396:	
  6065  0EFB  1FB4               	btfss	(___lwdiv@divisor+1),(15)&7
  6066  0EFC  2EFE               	goto	u2071
  6067  0EFD  2EFF               	goto	u2070
  6068  0EFE                     u2071:
  6069  0EFE  2EEF               	goto	l2392
  6070  0EFF                     u2070:
  6071  0EFF  2F01               	goto	l2398
  6072                           opt subtitle "HI-TECH Software Omniscient Code Generator (Lite mode) build 49521"
  6073  0F00                     l355:	
  6074  0F00  2F01               	goto	l2398
  6075                           opt subtitle "HI-TECH Software Omniscient Code Generator (Lite mode) build 49521"
  6076                           
  6077  0F01                     l356:	
  6078                           opt subtitle "HI-TECH Software Omniscient Code Generator (Lite mode) build 49521"
  6079                           
  6080  0F01                     l2398:	
  6081  0F01  3001               	movlw	01h
  6082                           opt subtitle "HI-TECH Software Omniscient Code Generator (Lite mode) build 49521"
  6083  0F02                     u2085:
  6084  0F02  1003               	clrc
  6085  0F03  0DB8               	rlf	(___lwdiv@quotient),f
  6086  0F04  0DB9               	rlf	(___lwdiv@quotient+1),f
  6087  0F05  3EFF               	addlw	-1
  6088  0F06  1D03               	skipz
  6089  0F07  2F02               	goto	u2085
  6090                           opt subtitle "HI-TECH Software Omniscient Code Generator (Lite mode) build 49521"
  6091  0F08  0834               	movf	(___lwdiv@divisor+1),w
  6092  0F09  0236               	subwf	(___lwdiv@dividend+1),w
  6093  0F0A  1D03               	skipz
  6094  0F0B  2F0E               	goto	u2095
  6095  0F0C  0833               	movf	(___lwdiv@divisor),w
  6096  0F0D  0235               	subwf	(___lwdiv@dividend),w
  6097  0F0E                     u2095:
  6098  0F0E  1C03               	skipc
  6099  0F0F  2F11               	goto	u2091
  6100  0F10  2F12               	goto	u2090
  6101  0F11                     u2091:
  6102  0F11  2F1A               	goto	l2404
  6103  0F12                     u2090:
  6104                           opt subtitle "HI-TECH Software Omniscient Code Generator (Lite mode) build 49521"
  6105                           
  6106  0F12                     l2400:	
  6107  0F12  0833               	movf	(___lwdiv@divisor),w
  6108  0F13  02B5               	subwf	(___lwdiv@dividend),f
  6109  0F14  0834               	movf	(___lwdiv@divisor+1),w
  6110  0F15  1C03               	skipc
  6111  0F16  03B6               	decf	(___lwdiv@dividend+1),f
  6112  0F17  02B6               	subwf	(___lwdiv@dividend+1),f
  6113                           opt subtitle "HI-TECH Software Omniscient Code Generator (Lite mode) build 49521"
  6114                           
  6115  0F18                     l2402:	
  6116  0F18  1438               	bsf	(___lwdiv@quotient)+(0/8),(0)&7
  6117  0F19  2F1A               	goto	l2404
  6118                           opt subtitle "HI-TECH Software Omniscient Code Generator (Lite mode) build 49521"
  6119                           
  6120  0F1A                     l357:	
  6121                           opt subtitle "HI-TECH Software Omniscient Code Generator (Lite mode) build 49521"
  6122                           
  6123  0F1A                     l2404:	
  6124  0F1A  3001               	movlw	01h
  6125                           opt subtitle "HI-TECH Software Omniscient Code Generator (Lite mode) build 49521"
  6126  0F1B                     u2105:
  6127  0F1B  1003               	clrc
  6128  0F1C  0CB4               	rrf	(___lwdiv@divisor+1),f
  6129  0F1D  0CB3               	rrf	(___lwdiv@divisor),f
  6130  0F1E  3EFF               	addlw	-1
  6131  0F1F  1D03               	skipz
  6132  0F20  2F1B               	goto	u2105
  6133                           opt subtitle "HI-TECH Software Omniscient Code Generator (Lite mode) build 49521"
  6134                           
  6135  0F21                     l2406:	
  6136  0F21  3001               	movlw	low(01h)
  6137  0F22  02BA               	subwf	(___lwdiv@counter),f
  6138  0F23  1D03               	btfss	status,2
  6139  0F24  2F26               	goto	u2111
  6140  0F25  2F27               	goto	u2110
  6141  0F26                     u2111:
  6142  0F26  2F01               	goto	l2398
  6143  0F27                     u2110:
  6144  0F27  2F29               	goto	l2408
  6145                           opt subtitle "HI-TECH Software Omniscient Code Generator (Lite mode) build 49521"
  6146  0F28                     l358:	
  6147  0F28  2F29               	goto	l2408
  6148                           opt subtitle "HI-TECH Software Omniscient Code Generator (Lite mode) build 49521"
  6149                           
  6150  0F29                     l352:	
  6151                           opt subtitle "HI-TECH Software Omniscient Code Generator (Lite mode) build 49521"
  6152                           
  6153  0F29                     l2408:	
  6154  0F29  0839               	movf	(___lwdiv@quotient+1),w
  6155  0F2A  01B4               	clrf	(?___lwdiv+1)
  6156  0F2B  07B4               	addwf	(?___lwdiv+1)
  6157  0F2C  0838               	movf	(___lwdiv@quotient),w
  6158  0F2D  01B3               	clrf	(?___lwdiv)
  6159  0F2E  07B3               	addwf	(?___lwdiv)
  6160                           opt subtitle "HI-TECH Software Omniscient Code Generator (Lite mode) build 49521"
  6161  0F2F  2F30               	goto	l359
  6162                           opt subtitle "HI-TECH Software Omniscient Code Generator (Lite mode) build 49521"
  6163  0F30                     l2410:	
  6164                           opt subtitle "HI-TECH Software Omniscient Code Generator (Lite mode) build 49521"
  6165                           
  6166  0F30                     l359:	
  6167  0F30  0008               	return
  6168                           opt subtitle "HI-TECH Software Omniscient Code Generator (Lite mode) build 49521"
  6169                           
  6170  0F31                     	__end_of___lwdiv:
  6171                           opt subtitle "HI-TECH Software Omniscient Code Generator (Lite mode) build 49521"
  6172                           
  6173                           opt pagewidth 120
  6174                           
  6175                           	opt lm
  6176                           
  6177                           	processor	16F707
  6178                           clrc	macro
  6179                           	bcf	3,0
  6180                           	endm
  6181                           clrz	macro
  6182                           	bcf	3,2
  6183                           	endm
  6184                           setc	macro
  6185                           	bsf	3,0
  6186                           	endm
  6187                           setz	macro
  6188                           	bsf	3,2
  6189                           	endm
  6190                           skipc	macro
  6191                           	btfss	3,0
  6192                           	endm
  6193                           skipz	macro
  6194                           	btfss	3,2
  6195                           	endm
  6196                           skipnc	macro
  6197                           	btfsc	3,0
  6198                           	endm
  6199                           skipnz	macro
  6200                           	btfsc	3,2
  6201                           	endm
  6202                           indf	equ	0
  6203                           indf0	equ	0
  6204                           pc	equ	2
  6205                           pcl	equ	2
  6206  0E9D                     __ptext874:	;psect for function ___lwmod
  6207                           opt subtitle "HI-TECH Software Omniscient Code Generator (Lite mode) build 49521"
  6208                           
  6209                           opt pagewidth 120
  6210                           
  6211  0045                     	__size_of___lwmod	equ	__end_of___lwmod-___lwmod
  6212                           opt subtitle "HI-TECH Software Omniscient Code Generator (Lite mode) build 49521"
  6213  0E9D                     ___lwmod:	
  6214                           opt subtitle "HI-TECH Software Omniscient Code Generator (Lite mode) build 49521"
  6215                           
  6216                           opt pagewidth 120
  6217                           
  6218  0E9D                     l2412:	
  6219  0E9D  1283               	bcf	status, 5	;RP0=0, select bank0
  6220  0E9E  1303               	bcf	status, 6	;RP1=0, select bank0
  6221  0E9F  083C               	movf	(___lwmod@divisor+1),w
  6222  0EA0  043B               	iorwf	(___lwmod@divisor),w
  6223  0EA1  1903               	skipnz
  6224  0EA2  2EA4               	goto	u2121
  6225  0EA3  2EA5               	goto	u2120
  6226  0EA4                     u2121:
  6227  0EA4  2EDA               	goto	l2430
  6228  0EA5                     u2120:
  6229                           opt subtitle "HI-TECH Software Omniscient Code Generator (Lite mode) build 49521"
  6230                           
  6231  0EA5                     l2414:	
  6232  0EA5  01C0               	clrf	(___lwmod@counter)
  6233  0EA6  0AC0               	incf	(___lwmod@counter),f
  6234                           opt subtitle "HI-TECH Software Omniscient Code Generator (Lite mode) build 49521"
  6235  0EA7  2EB4               	goto	l2420
  6236                           opt subtitle "HI-TECH Software Omniscient Code Generator (Lite mode) build 49521"
  6237  0EA8                     l364:	
  6238                           opt subtitle "HI-TECH Software Omniscient Code Generator (Lite mode) build 49521"
  6239                           
  6240  0EA8                     l2416:	
  6241  0EA8  3001               	movlw	01h
  6242                           opt subtitle "HI-TECH Software Omniscient Code Generator (Lite mode) build 49521"
  6243  0EA9                     u2135:
  6244  0EA9  1003               	clrc
  6245  0EAA  0DBB               	rlf	(___lwmod@divisor),f
  6246  0EAB  0DBC               	rlf	(___lwmod@divisor+1),f
  6247  0EAC  3EFF               	addlw	-1
  6248  0EAD  1D03               	skipz
  6249  0EAE  2EA9               	goto	u2135
  6250                           opt subtitle "HI-TECH Software Omniscient Code Generator (Lite mode) build 49521"
  6251                           
  6252  0EAF                     l2418:	
  6253  0EAF  3001               	movlw	(01h)
  6254  0EB0  00BF               	movwf	(??___lwmod+0)+0
  6255  0EB1  083F               	movf	(??___lwmod+0)+0,w
  6256  0EB2  07C0               	addwf	(___lwmod@counter),f
  6257  0EB3  2EB4               	goto	l2420
  6258                           opt subtitle "HI-TECH Software Omniscient Code Generator (Lite mode) build 49521"
  6259                           
  6260  0EB4                     l363:	
  6261                           opt subtitle "HI-TECH Software Omniscient Code Generator (Lite mode) build 49521"
  6262                           
  6263  0EB4                     l2420:	
  6264  0EB4  1FBC               	btfss	(___lwmod@divisor+1),(15)&7
  6265  0EB5  2EB7               	goto	u2141
  6266  0EB6  2EB8               	goto	u2140
  6267  0EB7                     u2141:
  6268  0EB7  2EA8               	goto	l2416
  6269  0EB8                     u2140:
  6270  0EB8  2EBA               	goto	l2422
  6271                           opt subtitle "HI-TECH Software Omniscient Code Generator (Lite mode) build 49521"
  6272  0EB9                     l365:	
  6273  0EB9  2EBA               	goto	l2422
  6274                           opt subtitle "HI-TECH Software Omniscient Code Generator (Lite mode) build 49521"
  6275                           
  6276  0EBA                     l366:	
  6277                           opt subtitle "HI-TECH Software Omniscient Code Generator (Lite mode) build 49521"
  6278                           
  6279  0EBA                     l2422:	
  6280  0EBA  083C               	movf	(___lwmod@divisor+1),w
  6281  0EBB  023E               	subwf	(___lwmod@dividend+1),w
  6282  0EBC  1D03               	skipz
  6283  0EBD  2EC0               	goto	u2155
  6284  0EBE  083B               	movf	(___lwmod@divisor),w
  6285  0EBF  023D               	subwf	(___lwmod@dividend),w
  6286  0EC0                     u2155:
  6287  0EC0  1C03               	skipc
  6288  0EC1  2EC3               	goto	u2151
  6289  0EC2  2EC4               	goto	u2150
  6290  0EC3                     u2151:
  6291  0EC3  2ECB               	goto	l2426
  6292  0EC4                     u2150:
  6293                           opt subtitle "HI-TECH Software Omniscient Code Generator (Lite mode) build 49521"
  6294                           
  6295  0EC4                     l2424:	
  6296  0EC4  083B               	movf	(___lwmod@divisor),w
  6297  0EC5  02BD               	subwf	(___lwmod@dividend),f
  6298  0EC6  083C               	movf	(___lwmod@divisor+1),w
  6299  0EC7  1C03               	skipc
  6300  0EC8  03BE               	decf	(___lwmod@dividend+1),f
  6301  0EC9  02BE               	subwf	(___lwmod@dividend+1),f
  6302  0ECA  2ECB               	goto	l2426
  6303                           opt subtitle "HI-TECH Software Omniscient Code Generator (Lite mode) build 49521"
  6304  0ECB                     l367:	
  6305                           opt subtitle "HI-TECH Software Omniscient Code Generator (Lite mode) build 49521"
  6306                           
  6307  0ECB                     l2426:	
  6308  0ECB  3001               	movlw	01h
  6309                           opt subtitle "HI-TECH Software Omniscient Code Generator (Lite mode) build 49521"
  6310  0ECC                     u2165:
  6311  0ECC  1003               	clrc
  6312  0ECD  0CBC               	rrf	(___lwmod@divisor+1),f
  6313  0ECE  0CBB               	rrf	(___lwmod@divisor),f
  6314  0ECF  3EFF               	addlw	-1
  6315  0ED0  1D03               	skipz
  6316  0ED1  2ECC               	goto	u2165
  6317                           opt subtitle "HI-TECH Software Omniscient Code Generator (Lite mode) build 49521"
  6318                           
  6319  0ED2                     l2428:	
  6320  0ED2  3001               	movlw	low(01h)
  6321  0ED3  02C0               	subwf	(___lwmod@counter),f
  6322  0ED4  1D03               	btfss	status,2
  6323  0ED5  2ED7               	goto	u2171
  6324  0ED6  2ED8               	goto	u2170
  6325  0ED7                     u2171:
  6326  0ED7  2EBA               	goto	l2422
  6327  0ED8                     u2170:
  6328  0ED8  2EDA               	goto	l2430
  6329                           opt subtitle "HI-TECH Software Omniscient Code Generator (Lite mode) build 49521"
  6330  0ED9                     l368:	
  6331  0ED9  2EDA               	goto	l2430
  6332                           opt subtitle "HI-TECH Software Omniscient Code Generator (Lite mode) build 49521"
  6333                           
  6334  0EDA                     l362:	
  6335                           opt subtitle "HI-TECH Software Omniscient Code Generator (Lite mode) build 49521"
  6336                           
  6337  0EDA                     l2430:	
  6338  0EDA  083E               	movf	(___lwmod@dividend+1),w
  6339  0EDB  01BC               	clrf	(?___lwmod+1)
  6340  0EDC  07BC               	addwf	(?___lwmod+1)
  6341  0EDD  083D               	movf	(___lwmod@dividend),w
  6342  0EDE  01BB               	clrf	(?___lwmod)
  6343  0EDF  07BB               	addwf	(?___lwmod)
  6344                           opt subtitle "HI-TECH Software Omniscient Code Generator (Lite mode) build 49521"
  6345  0EE0  2EE1               	goto	l369
  6346                           opt subtitle "HI-TECH Software Omniscient Code Generator (Lite mode) build 49521"
  6347  0EE1                     l2432:	
  6348                           opt subtitle "HI-TECH Software Omniscient Code Generator (Lite mode) build 49521"
  6349                           
  6350  0EE1                     l369:	
  6351  0EE1  0008               	return
  6352                           opt subtitle "HI-TECH Software Omniscient Code Generator (Lite mode) build 49521"
  6353                           
  6354  0EE2                     	__end_of___lwmod:
  6355                           opt subtitle "HI-TECH Software Omniscient Code Generator (Lite mode) build 49521"
  6356                           
  6357                           opt pagewidth 120
  6358                           
  6359                           	opt lm
  6360                           
  6361                           	processor	16F707
  6362                           clrc	macro
  6363                           	bcf	3,0
  6364                           	endm
  6365                           clrz	macro
  6366                           	bcf	3,2
  6367                           	endm
  6368                           setc	macro
  6369                           	bsf	3,0
  6370                           	endm
  6371                           setz	macro
  6372                           	bsf	3,2
  6373                           	endm
  6374                           skipc	macro
  6375                           	btfss	3,0
  6376                           	endm
  6377                           skipz	macro
  6378                           	btfss	3,2
  6379                           	endm
  6380                           skipnc	macro
  6381                           	btfsc	3,0
  6382                           	endm
  6383                           skipnz	macro
  6384                           	btfsc	3,2
  6385                           	endm
  6386                           indf	equ	0
  6387                           indf0	equ	0
  6388                           pc	equ	2
  6389  0DBD                     __ptext875:	;psect for function _ISR
  6390                           opt subtitle "HI-TECH Software Omniscient Code Generator (Lite mode) build 49521"
  6391                           
  6392                           opt pagewidth 120
  6393                           
  6394  002C                     	__size_of_ISR	equ	__end_of_ISR-_ISR
  6395                           opt subtitle "HI-TECH Software Omniscient Code Generator (Lite mode) build 49521"
  6396  0DBD                     _ISR:	
  6397                           opt subtitle "HI-TECH Software Omniscient Code Generator (Lite mode) build 49521"
  6398                           
  6399                           opt pagewidth 120
  6400                           
  6401  0004                     __pintentry:
  6402                           opt subtitle "HI-TECH Software Omniscient Code Generator (Lite mode) build 49521"
  6403  0004                     interrupt_function:
  6404                           opt subtitle "HI-TECH Software Omniscient Code Generator (Lite mode) build 49521"
  6405  007E                     	saved_w	set	btemp+0
  6406  0004  00FE               	movwf	saved_w
  6407  0005  0E03               	swapf	status,w
  6408  0006  1283               	bcf	status, 5	;RP0=0, select bank0
  6409  0007  1303               	bcf	status, 6	;RP1=0, select bank0
  6410  0008  00AF               	movwf	(??_ISR+1)
  6411  0009  0804               	movf	fsr0,w
  6412  000A  00B0               	movwf	(??_ISR+2)
  6413  000B  080A               	movf	pclath,w
  6414  000C  00B1               	movwf	(??_ISR+3)
  6415  000D  087F               	movf	btemp+1,w
  6416  000E  00B2               	movwf	(??_ISR+4)
  6417  000F  120A  158A  2DBD   	ljmp	_ISR
  6418                           opt subtitle "HI-TECH Software Omniscient Code Generator (Lite mode) build 49521"
  6419                           
  6420                           opt pagewidth 120
  6421  0DBD                     i1l2562:	
  6422                           opt subtitle "HI-TECH Software Omniscient Code Generator (Lite mode) build 49521"
  6423  0DBD  1C0C               	btfss	(96/8),(96)&7	;volatile
  6424  0DBE  2DC0               	goto	u244_21
  6425  0DBF  2DC1               	goto	u244_20
  6426  0DC0                     u244_21:
  6427  0DC0  2DDE               	goto	i1l111
  6428  0DC1                     u244_20:
  6429                           opt subtitle "HI-TECH Software Omniscient Code Generator (Lite mode) build 49521"
  6430                           
  6431  0DC1                     i1l2564:	
  6432                           opt subtitle "HI-TECH Software Omniscient Code Generator (Lite mode) build 49521"
  6433                           
  6434  0DC1  3001               	movlw	(01h)
  6435  0DC2  00AE               	movwf	(??_ISR+0)+0
  6436  0DC3  082E               	movf	(??_ISR+0)+0,w
  6437  0DC4  07D9               	addwf	(_tmr1Counter),f
  6438                           opt subtitle "HI-TECH Software Omniscient Code Generator (Lite mode) build 49521"
  6439                           
  6440  0DC5                     i1l2566:	
  6441                           opt subtitle "HI-TECH Software Omniscient Code Generator (Lite mode) build 49521"
  6442  0DC5  30F0               	movlw	(0F0h)
  6443  0DC6  008F               	movwf	(15)	;volatile
  6444                           opt subtitle "HI-TECH Software Omniscient Code Generator (Lite mode) build 49521"
  6445                           
  6446  0DC7                     i1l2568:	
  6447                           opt subtitle "HI-TECH Software Omniscient Code Generator (Lite mode) build 49521"
  6448  0DC7  018E               	clrf	(14)	;volatile
  6449                           opt subtitle "HI-TECH Software Omniscient Code Generator (Lite mode) build 49521"
  6450                           
  6451  0DC8                     i1l2570:	
  6452                           opt subtitle "HI-TECH Software Omniscient Code Generator (Lite mode) build 49521"
  6453  0DC8  0859               	movf	(_tmr1Counter),w
  6454  0DC9  065C               	xorwf	(_tmr1Target),w
  6455  0DCA  1D03               	skipz
  6456  0DCB  2DCD               	goto	u245_21
  6457  0DCC  2DCE               	goto	u245_20
  6458  0DCD                     u245_21:
  6459  0DCD  2DDC               	goto	i1l2578
  6460  0DCE                     u245_20:
  6461                           opt subtitle "HI-TECH Software Omniscient Code Generator (Lite mode) build 49521"
  6462                           
  6463  0DCE                     i1l2572:	
  6464                           opt subtitle "HI-TECH Software Omniscient Code Generator (Lite mode) build 49521"
  6465  0DCE  30BB               	movlw	low(STR_1|8000h)
  6466  0DCF  00A0               	movwf	(?i1_printf)
  6467  0DD0  3088               	movlw	high(STR_1|8000h)
  6468  0DD1  00A1               	movwf	((?i1_printf))+1
  6469  0DD2  120A  118A  24D5   	fcall	i1_printf
              120A  158A         
  6470                           opt subtitle "HI-TECH Software Omniscient Code Generator (Lite mode) build 49521"
  6471                           
  6472  0DD7                     i1l2574:	
  6473                           opt subtitle "HI-TECH Software Omniscient Code Generator (Lite mode) build 49521"
  6474  0DD7  1283               	bcf	status, 5	;RP0=0, select bank0
  6475  0DD8  1303               	bcf	status, 6	;RP1=0, select bank0
  6476  0DD9  01D9               	clrf	(_tmr1Counter)
  6477                           opt subtitle "HI-TECH Software Omniscient Code Generator (Lite mode) build 49521"
  6478                           
  6479  0DDA                     i1l2576:	
  6480                           opt subtitle "HI-TECH Software Omniscient Code Generator (Lite mode) build 49521"
  6481  0DDA  145B               	bsf	(_flag/8),(_flag)&7
  6482  0DDB  2DDC               	goto	i1l2578
  6483                           opt subtitle "HI-TECH Software Omniscient Code Generator (Lite mode) build 49521"
  6484                           
  6485  0DDC                     i1l110:	
  6486                           opt subtitle "HI-TECH Software Omniscient Code Generator (Lite mode) build 49521"
  6487                           
  6488  0DDC                     i1l2578:	
  6489                           opt subtitle "HI-TECH Software Omniscient Code Generator (Lite mode) build 49521"
  6490                           
  6491  0DDC  100C               	bcf	(96/8),(96)&7	;volatile
  6492  0DDD  2DDE               	goto	i1l111
  6493                           opt subtitle "HI-TECH Software Omniscient Code Generator (Lite mode) build 49521"
  6494                           
  6495  0DDE                     i1l109:	
  6496                           opt subtitle "HI-TECH Software Omniscient Code Generator (Lite mode) build 49521"
  6497                           
  6498  0DDE                     i1l111:	
  6499  0DDE  0832               	movf	(??_ISR+4),w
  6500  0DDF  00FF               	movwf	btemp+1
  6501  0DE0  0831               	movf	(??_ISR+3),w
  6502  0DE1  008A               	movwf	pclath
  6503  0DE2  0830               	movf	(??_ISR+2),w
  6504  0DE3  0084               	movwf	fsr0
  6505  0DE4  0E2F               	swapf	(??_ISR+1)^00h,w
  6506  0DE5  0083               	movwf	status
  6507  0DE6  0EFE               	swapf	saved_w,f
  6508  0DE7  0E7E               	swapf	saved_w,w
  6509  0DE8  0009               	retfie
  6510                           opt subtitle "HI-TECH Software Omniscient Code Generator (Lite mode) build 49521"
  6511                           
  6512  0DE9                     	__end_of_ISR:
  6513                           opt subtitle "HI-TECH Software Omniscient Code Generator (Lite mode) build 49521"
  6514                           
  6515                           opt pagewidth 120
  6516                           
  6517                           	opt lm
  6518                           
  6519                           	processor	16F707
  6520                           clrc	macro
  6521                           	bcf	3,0
  6522                           	endm
  6523                           clrz	macro
  6524                           	bcf	3,2
  6525                           	endm
  6526                           setc	macro
  6527                           	bsf	3,0
  6528                           	endm
  6529                           setz	macro
  6530                           	bsf	3,2
  6531                           	endm
  6532                           skipc	macro
  6533                           	btfss	3,0
  6534                           	endm
  6535                           skipz	macro
  6536                           	btfss	3,2
  6537                           	endm
  6538                           skipnc	macro
  6539                           	btfsc	3,0
  6540                           	endm
  6541                           skipnz	macro
  6542                           	btfsc	3,2
  6543                           	endm
  6544                           indf	equ	0
  6545                           indf0	equ	0
  6546                           pc	equ	2
  6547                           pcl	equ	2
  6548                           status	equ	3
  6549                           fsr	equ	4
  6550                           fsr0	equ	4
  6551                           c	equ	1
  6552                           z	equ	0
  6553                           pclath	equ	10
  6554                           # 46 "/Applications/microchip/xc8/v1.12/include/pic16f707.h"
  6555                           INDF equ 00h ;# 
  6556                           # 52 "/Applications/microchip/xc8/v1.12/include/pic16f707.h"
  6557                           TMR0 equ 01h ;# 
  6558  04D5                     __ptext876:	;psect for function i1_printf
  6559                           opt subtitle "HI-TECH Software Omniscient Code Generator (Lite mode) build 49521"
  6560                           
  6561                           opt pagewidth 120
  6562                           
  6563  01AE                     	__size_ofi1_printf	equ	__end_ofi1_printf-i1_printf
  6564                           opt subtitle "HI-TECH Software Omniscient Code Generator (Lite mode) build 49521"
  6565  04D5                     i1_printf:	
  6566                           opt subtitle "HI-TECH Software Omniscient Code Generator (Lite mode) build 49521"
  6567                           
  6568                           opt pagewidth 120
  6569                           
  6570  04D5                     i1l2486:	
  6571                           opt subtitle "HI-TECH Software Omniscient Code Generator (Lite mode) build 49521"
  6572                           
  6573                           opt pagewidth 120
  6574                           
  6575                           	opt lm
  6576                           
  6577                           	processor	16F707
  6578                           clrc	macro
  6579                           	bcf	3,0
  6580                           	endm
  6581                           clrz	macro
  6582                           	bcf	3,2
  6583  04D5  3022               	movlw	(?i1_printf+02h)&0ffh
  6584  04D6  1283               	bcf	status, 5	;RP0=0, select bank0
  6585  04D7  1303               	bcf	status, 6	;RP1=0, select bank0
  6586  04D8  00A2               	movwf	(??i1_printf+0)+0
  6587  04D9  0822               	movf	(??i1_printf+0)+0,w
  6588  04DA  00A6               	movwf	(i1printf@ap)
  6589                           opt subtitle "HI-TECH Software Omniscient Code Generator (Lite mode) build 49521"
  6590                           
  6591  04DB  2E65               	goto	i1l2560
  6592                           opt subtitle "HI-TECH Software Omniscient Code Generator (Lite mode) build 49521"
  6593  04DC                     i1l304:	
  6594                           opt subtitle "HI-TECH Software Omniscient Code Generator (Lite mode) build 49521"
  6595                           
  6596  04DC                     i1l2488:	
  6597                           opt subtitle "HI-TECH Software Omniscient Code Generator (Lite mode) build 49521"
  6598  04DC  082D               	movf	(i1printf@c),w
  6599  04DD  3A25               	xorlw	025h
  6600  04DE  1903               	skipnz
  6601  04DF  2CE1               	goto	u232_21
  6602  04E0  2CE2               	goto	u232_20
  6603  04E1                     u232_21:
  6604  04E1  2CE9               	goto	i1l305
  6605  04E2                     u232_20:
  6606                           opt subtitle "HI-TECH Software Omniscient Code Generator (Lite mode) build 49521"
  6607                           
  6608  04E2                     i1l2490:	
  6609                           opt subtitle "HI-TECH Software Omniscient Code Generator (Lite mode) build 49521"
  6610                           
  6611  04E2  082D               	movf	(i1printf@c),w
  6612  04E3  120A  158A  2439   	fcall	i1_putch
              120A  118A         
  6613                           opt subtitle "HI-TECH Software Omniscient Code Generator (Lite mode) build 49521"
  6614                           
  6615  04E8  2E65               	goto	i1l2560
  6616                           opt subtitle "HI-TECH Software Omniscient Code Generator (Lite mode) build 49521"
  6617                           
  6618  04E9                     i1l305:	
  6619                           opt subtitle "HI-TECH Software Omniscient Code Generator (Lite mode) build 49521"
  6620                           
  6621                           opt pagewidth 120
  6622  04E9  01A8               	clrf	(i1printf@flag)
  6623                           opt subtitle "HI-TECH Software Omniscient Code Generator (Lite mode) build 49521"
  6624                           
  6625  04EA  2CF8               	goto	i1l2496
  6626                           opt subtitle "HI-TECH Software Omniscient Code Generator (Lite mode) build 49521"
  6627                           
  6628                           opt pagewidth 120
  6629  04EB                     i1l307:	
  6630                           opt subtitle "HI-TECH Software Omniscient Code Generator (Lite mode) build 49521"
  6631                           
  6632  04EB  2E82               	goto	i1l337
  6633                           opt subtitle "HI-TECH Software Omniscient Code Generator (Lite mode) build 49521"
  6634                           
  6635                           opt pagewidth 120
  6636  04EC                     i1l309:	
  6637  04EC  2D1C               	goto	i1l311
  6638                           opt subtitle "HI-TECH Software Omniscient Code Generator (Lite mode) build 49521"
  6639                           
  6640  04ED                     i1l310:	
  6641                           opt subtitle "HI-TECH Software Omniscient Code Generator (Lite mode) build 49521"
  6642                           
  6643                           opt pagewidth 120
  6644  04ED  2D1C               	goto	i1l311
  6645                           opt subtitle "HI-TECH Software Omniscient Code Generator (Lite mode) build 49521"
  6646                           
  6647                           opt pagewidth 120
  6648  04EE                     i1l312:	
  6649                           opt subtitle "HI-TECH Software Omniscient Code Generator (Lite mode) build 49521"
  6650                           
  6651  04EE                     i1l313:	
  6652                           opt subtitle "HI-TECH Software Omniscient Code Generator (Lite mode) build 49521"
  6653                           
  6654                           opt pagewidth 120
  6655  04EE  17A8               	bsf	(i1printf@flag)+(7/8),(7)&7
  6656                           opt subtitle "HI-TECH Software Omniscient Code Generator (Lite mode) build 49521"
  6657                           
  6658  04EF  2D1C               	goto	i1l311
  6659                           opt subtitle "HI-TECH Software Omniscient Code Generator (Lite mode) build 49521"
  6660                           
  6661                           opt pagewidth 120
  6662  04F0                     i1l314:	
  6663                           opt subtitle "HI-TECH Software Omniscient Code Generator (Lite mode) build 49521"
  6664                           
  6665  04F0                     i1l2492:	
  6666                           opt subtitle "HI-TECH Software Omniscient Code Generator (Lite mode) build 49521"
  6667  04F0  082D               	movf	(i1printf@c),w
  6668  04F1  120A  158A  2439   	fcall	i1_putch
              120A  118A         
  6669                           opt subtitle "HI-TECH Software Omniscient Code Generator (Lite mode) build 49521"
  6670                           
  6671  04F6  2E65               	goto	i1l2560
  6672                           opt subtitle "HI-TECH Software Omniscient Code Generator (Lite mode) build 49521"
  6673                           
  6674  04F7                     i1l2494:	
  6675                           opt subtitle "HI-TECH Software Omniscient Code Generator (Lite mode) build 49521"
  6676  04F7  2D1C               	goto	i1l311
  6677                           opt subtitle "HI-TECH Software Omniscient Code Generator (Lite mode) build 49521"
  6678                           
  6679  04F8                     i1l306:	
  6680                           opt subtitle "HI-TECH Software Omniscient Code Generator (Lite mode) build 49521"
  6681  04F8                     i1l2496:	
  6682  04F8  1283               	bcf	status, 5	;RP0=0, select bank0
  6683  04F9  1303               	bcf	status, 6	;RP1=0, select bank0
  6684  04FA  0821               	movf	(i1printf@f+1),w
  6685  04FB  00A3               	movwf	(??i1_printf+0)+0+1
  6686  04FC  0820               	movf	(i1printf@f),w
  6687  04FD  00A2               	movwf	(??i1_printf+0)+0
  6688  04FE  3001               	movlw	(01h)
  6689  04FF  07A0               	addwf	(i1printf@f),f
  6690  0500  1803               	skipnc
  6691  0501  0AA1               	incf	(i1printf@f+1),f
  6692  0502  0823               	movf	1+(??i1_printf+0)+0,w
  6693  0503  00FF               	movwf	btemp+1
  6694  0504  0822               	movf	0+(??i1_printf+0)+0,w
  6695  0505  0084               	movwf	fsr0
  6696  0506  120A  158A  2000   	fcall	stringtab
              120A  118A         
  6697  050B  00AD               	movwf	(i1printf@c)
  6698                           opt subtitle "HI-TECH Software Omniscient Code Generator (Lite mode) build 49521"
  6699                           
  6700                           opt pagewidth 120
  6701                           
  6702                           	opt lm
  6703                           
  6704                           	processor	16F707
  6705                           clrc	macro
  6706                           	bcf	3,0
  6707                           	endm
  6708                           clrz	macro
  6709                           	bcf	3,2
  6710  050C  3A00               	xorlw	0^0	; case 0
  6711  050D  1903               	skipnz
  6712  050E  2E82               	goto	i1l337
  6713  050F  3A58               	xorlw	88^0	; case 88
  6714  0510  1903               	skipnz
  6715  0511  2CEE               	goto	i1l313
  6716  0512  3A3C               	xorlw	100^88	; case 100
  6717  0513  1903               	skipnz
  6718  0514  2D1C               	goto	i1l311
  6719  0515  3A0D               	xorlw	105^100	; case 105
  6720  0516  1903               	skipnz
  6721  0517  2D1C               	goto	i1l311
  6722  0518  3A11               	xorlw	120^105	; case 120
  6723  0519  1903               	skipnz
  6724  051A  2CEE               	goto	i1l313
  6725  051B  2CF0               	goto	i1l2492
  6726                           opt subtitle "HI-TECH Software Omniscient Code Generator (Lite mode) build 49521"
  6727                           
  6728                           opt pagewidth 120
  6729                           
  6730  051C                     i1l311:	
  6731                           opt subtitle "HI-TECH Software Omniscient Code Generator (Lite mode) build 49521"
  6732                           
  6733  051C  1283               	bcf	status, 5	;RP0=0, select bank0
  6734  051D  1303               	bcf	status, 6	;RP1=0, select bank0
  6735  051E  1BA8               	btfsc	(i1printf@flag),(7)&7
  6736  051F  2D21               	goto	u233_21
  6737  0520  2D22               	goto	u233_20
  6738  0521                     u233_21:
  6739  0521  2D3D               	goto	i1l2508
  6740  0522                     u233_20:
  6741                           opt subtitle "HI-TECH Software Omniscient Code Generator (Lite mode) build 49521"
  6742                           
  6743  0522                     i1l2498:	
  6744                           opt subtitle "HI-TECH Software Omniscient Code Generator (Lite mode) build 49521"
  6745                           
  6746  0522  0826               	movf	(i1printf@ap),w
  6747  0523  0084               	movwf	fsr0
  6748  0524  1383               	bcf	status, 7	;select IRP bank0
  6749  0525  0800               	movf	indf,w
  6750  0526  00A9               	movwf	(i1printf@_val)
  6751  0527  0A84               	incf	fsr0,f
  6752  0528  0800               	movf	indf,w
  6753  0529  00AA               	movwf	(i1printf@_val+1)
  6754                           opt subtitle "HI-TECH Software Omniscient Code Generator (Lite mode) build 49521"
  6755  052A                     i1l2500:	
  6756  052A  3002               	movlw	(02h)
  6757  052B  00A2               	movwf	(??i1_printf+0)+0
  6758  052C  0822               	movf	(??i1_printf+0)+0,w
  6759  052D  07A6               	addwf	(i1printf@ap),f
  6760                           opt subtitle "HI-TECH Software Omniscient Code Generator (Lite mode) build 49521"
  6761                           
  6762  052E                     i1l2502:	
  6763                           opt subtitle "HI-TECH Software Omniscient Code Generator (Lite mode) build 49521"
  6764  052E  1FAA               	btfss	(i1printf@_val+1),7
  6765  052F  2D31               	goto	u234_21
  6766  0530  2D32               	goto	u234_20
  6767  0531                     u234_21:
  6768  0531  2DBA               	goto	i1l2538
  6769  0532                     u234_20:
  6770                           opt subtitle "HI-TECH Software Omniscient Code Generator (Lite mode) build 49521"
  6771                           
  6772  0532                     i1l2504:	
  6773                           opt subtitle "HI-TECH Software Omniscient Code Generator (Lite mode) build 49521"
  6774  0532  3003               	movlw	(03h)
  6775  0533  00A2               	movwf	(??i1_printf+0)+0
  6776  0534  0822               	movf	(??i1_printf+0)+0,w
  6777  0535  04A8               	iorwf	(i1printf@flag),f
  6778                           opt subtitle "HI-TECH Software Omniscient Code Generator (Lite mode) build 49521"
  6779                           
  6780  0536                     i1l2506:	
  6781                           opt subtitle "HI-TECH Software Omniscient Code Generator (Lite mode) build 49521"
  6782  0536  09A9               	comf	(i1printf@_val),f
  6783  0537  09AA               	comf	(i1printf@_val+1),f
  6784  0538  0AA9               	incf	(i1printf@_val),f
  6785  0539  1903               	skipnz
  6786  053A  0AAA               	incf	(i1printf@_val+1),f
  6787  053B  2DBA               	goto	i1l2538
  6788                           opt subtitle "HI-TECH Software Omniscient Code Generator (Lite mode) build 49521"
  6789                           
  6790  053C                     i1l316:	
  6791                           opt subtitle "HI-TECH Software Omniscient Code Generator (Lite mode) build 49521"
  6792                           
  6793                           opt pagewidth 120
  6794  053C  2DBA               	goto	i1l2538
  6795                           opt subtitle "HI-TECH Software Omniscient Code Generator (Lite mode) build 49521"
  6796                           
  6797  053D                     i1l315:	
  6798                           opt subtitle "HI-TECH Software Omniscient Code Generator (Lite mode) build 49521"
  6799                           
  6800  053D                     i1l2508:	
  6801                           opt subtitle "HI-TECH Software Omniscient Code Generator (Lite mode) build 49521"
  6802                           
  6803                           opt pagewidth 120
  6804  053D  0826               	movf	(i1printf@ap),w
  6805  053E  0084               	movwf	fsr0
  6806  053F  1383               	bcf	status, 7	;select IRP bank0
  6807  0540  0800               	movf	indf,w
  6808  0541  00A9               	movwf	(i1printf@_val)
  6809  0542  0A84               	incf	fsr0,f
  6810  0543  0800               	movf	indf,w
  6811  0544  00AA               	movwf	(i1printf@_val+1)
  6812                           opt subtitle "HI-TECH Software Omniscient Code Generator (Lite mode) build 49521"
  6813  0545                     i1l2510:	
  6814  0545  3002               	movlw	(02h)
  6815  0546  00A2               	movwf	(??i1_printf+0)+0
  6816  0547  0822               	movf	(??i1_printf+0)+0,w
  6817  0548  07A6               	addwf	(i1printf@ap),f
  6818  0549  2DBA               	goto	i1l2538
  6819                           opt subtitle "HI-TECH Software Omniscient Code Generator (Lite mode) build 49521"
  6820                           
  6821  054A                     i1l317:	
  6822                           opt subtitle "HI-TECH Software Omniscient Code Generator (Lite mode) build 49521"
  6823                           
  6824                           opt pagewidth 120
  6825  054A  2DBA               	goto	i1l2538
  6826                           opt subtitle "HI-TECH Software Omniscient Code Generator (Lite mode) build 49521"
  6827                           
  6828                           opt pagewidth 120
  6829  054B                     i1l319:	
  6830                           opt subtitle "HI-TECH Software Omniscient Code Generator (Lite mode) build 49521"
  6831                           
  6832  054B  01AD               	clrf	(i1printf@c)
  6833  054C  0AAD               	incf	(i1printf@c),f
  6834                           opt subtitle "HI-TECH Software Omniscient Code Generator (Lite mode) build 49521"
  6835  054D                     i1l2512:	
  6836  054D  082D               	movf	(i1printf@c),w
  6837  054E  3A05               	xorlw	05h
  6838  054F  1D03               	skipz
  6839  0550  2D52               	goto	u235_21
  6840  0551  2D53               	goto	u235_20
  6841  0552                     u235_21:
  6842  0552  2D55               	goto	i1l2516
  6843  0553                     u235_20:
  6844  0553  2DC3               	goto	i1l2540
  6845                           opt subtitle "HI-TECH Software Omniscient Code Generator (Lite mode) build 49521"
  6846  0554                     i1l2514:	
  6847  0554  2DC3               	goto	i1l2540
  6848                           opt subtitle "HI-TECH Software Omniscient Code Generator (Lite mode) build 49521"
  6849                           
  6850  0555                     i1l320:	
  6851                           opt subtitle "HI-TECH Software Omniscient Code Generator (Lite mode) build 49521"
  6852  0555                     i1l2516:	
  6853                           opt subtitle "HI-TECH Software Omniscient Code Generator (Lite mode) build 49521"
  6854  0555  082D               	movf	(i1printf@c),w
  6855  0556  00A2               	movwf	(??i1_printf+0)+0
  6856  0557  0722               	addwf	(??i1_printf+0)+0,w
  6857  0558  3E83               	addlw	low(_dpowers|8000h)
  6858  0559  0084               	movwf	fsr0
  6859  055A  3088               	movlw	high(_dpowers|8000h)
  6860  055B  1803               	skipnc
  6861  055C  3E01               	addlw	1
  6862  055D  00FF               	movwf	btemp+1
  6863  055E  120A  158A  2000   	fcall	stringtab
              120A  118A         
  6864  0563  00A3               	movwf	(??i1_printf+1)+0
  6865  0564  120A  158A  2000   	fcall	stringtab
              120A  118A         
  6866  0569  00A4               	movwf	(??i1_printf+1)+0+1
  6867  056A  0824               	movf	1+(??i1_printf+1)+0,w
  6868  056B  022A               	subwf	(i1printf@_val+1),w
  6869  056C  1D03               	skipz
  6870  056D  2D70               	goto	u236_25
  6871  056E  0823               	movf	0+(??i1_printf+1)+0,w
  6872  056F  0229               	subwf	(i1printf@_val),w
  6873  0570                     u236_25:
  6874  0570  1803               	skipnc
  6875  0571  2D73               	goto	u236_21
  6876  0572  2D74               	goto	u236_20
  6877  0573                     u236_21:
  6878  0573  2D76               	goto	i1l2520
  6879  0574                     u236_20:
  6880  0574  2DC3               	goto	i1l2540
  6881                           opt subtitle "HI-TECH Software Omniscient Code Generator (Lite mode) build 49521"
  6882                           
  6883  0575                     i1l2518:	
  6884                           opt subtitle "HI-TECH Software Omniscient Code Generator (Lite mode) build 49521"
  6885  0575  2DC3               	goto	i1l2540
  6886                           opt subtitle "HI-TECH Software Omniscient Code Generator (Lite mode) build 49521"
  6887  0576                     i1l322:	
  6888                           opt subtitle "HI-TECH Software Omniscient Code Generator (Lite mode) build 49521"
  6889                           
  6890  0576                     i1l2520:	
  6891  0576  3001               	movlw	(01h)
  6892  0577  00A2               	movwf	(??i1_printf+0)+0
  6893  0578  0822               	movf	(??i1_printf+0)+0,w
  6894  0579  07AD               	addwf	(i1printf@c),f
  6895                           opt subtitle "HI-TECH Software Omniscient Code Generator (Lite mode) build 49521"
  6896  057A                     i1l2522:	
  6897  057A  082D               	movf	(i1printf@c),w
  6898  057B  3A05               	xorlw	05h
  6899  057C  1D03               	skipz
  6900  057D  2D7F               	goto	u237_21
  6901  057E  2D80               	goto	u237_20
  6902  057F                     u237_21:
  6903  057F  2D55               	goto	i1l2516
  6904  0580                     u237_20:
  6905  0580  2DC3               	goto	i1l2540
  6906                           opt subtitle "HI-TECH Software Omniscient Code Generator (Lite mode) build 49521"
  6907  0581                     i1l321:	
  6908                           opt subtitle "HI-TECH Software Omniscient Code Generator (Lite mode) build 49521"
  6909                           
  6910  0581  2DC3               	goto	i1l2540
  6911                           opt subtitle "HI-TECH Software Omniscient Code Generator (Lite mode) build 49521"
  6912                           
  6913                           opt pagewidth 120
  6914  0582                     i1l324:	
  6915                           opt subtitle "HI-TECH Software Omniscient Code Generator (Lite mode) build 49521"
  6916                           
  6917  0582  01AD               	clrf	(i1printf@c)
  6918  0583  0AAD               	incf	(i1printf@c),f
  6919                           opt subtitle "HI-TECH Software Omniscient Code Generator (Lite mode) build 49521"
  6920  0584                     i1l2524:	
  6921  0584  082D               	movf	(i1printf@c),w
  6922  0585  3A04               	xorlw	04h
  6923  0586  1D03               	skipz
  6924  0587  2D89               	goto	u238_21
  6925  0588  2D8A               	goto	u238_20
  6926  0589                     u238_21:
  6927  0589  2D8C               	goto	i1l2528
  6928  058A                     u238_20:
  6929  058A  2DC3               	goto	i1l2540
  6930                           opt subtitle "HI-TECH Software Omniscient Code Generator (Lite mode) build 49521"
  6931  058B                     i1l2526:	
  6932  058B  2DC3               	goto	i1l2540
  6933                           opt subtitle "HI-TECH Software Omniscient Code Generator (Lite mode) build 49521"
  6934                           
  6935  058C                     i1l325:	
  6936                           opt subtitle "HI-TECH Software Omniscient Code Generator (Lite mode) build 49521"
  6937  058C                     i1l2528:	
  6938                           opt subtitle "HI-TECH Software Omniscient Code Generator (Lite mode) build 49521"
  6939  058C  082D               	movf	(i1printf@c),w
  6940  058D  00A2               	movwf	(??i1_printf+0)+0
  6941  058E  0722               	addwf	(??i1_printf+0)+0,w
  6942  058F  3E8D               	addlw	low(_hexpowers|8000h)
  6943  0590  0084               	movwf	fsr0
  6944  0591  3088               	movlw	high(_hexpowers|8000h)
  6945  0592  1803               	skipnc
  6946  0593  3E01               	addlw	1
  6947  0594  00FF               	movwf	btemp+1
  6948  0595  120A  158A  2000   	fcall	stringtab
              120A  118A         
  6949  059A  00A3               	movwf	(??i1_printf+1)+0
  6950  059B  120A  158A  2000   	fcall	stringtab
              120A  118A         
  6951  05A0  00A4               	movwf	(??i1_printf+1)+0+1
  6952  05A1  0824               	movf	1+(??i1_printf+1)+0,w
  6953  05A2  022A               	subwf	(i1printf@_val+1),w
  6954  05A3  1D03               	skipz
  6955  05A4  2DA7               	goto	u239_25
  6956  05A5  0823               	movf	0+(??i1_printf+1)+0,w
  6957  05A6  0229               	subwf	(i1printf@_val),w
  6958  05A7                     u239_25:
  6959  05A7  1803               	skipnc
  6960  05A8  2DAA               	goto	u239_21
  6961  05A9  2DAB               	goto	u239_20
  6962  05AA                     u239_21:
  6963  05AA  2DAD               	goto	i1l2532
  6964  05AB                     u239_20:
  6965  05AB  2DC3               	goto	i1l2540
  6966                           opt subtitle "HI-TECH Software Omniscient Code Generator (Lite mode) build 49521"
  6967                           
  6968  05AC                     i1l2530:	
  6969                           opt subtitle "HI-TECH Software Omniscient Code Generator (Lite mode) build 49521"
  6970  05AC  2DC3               	goto	i1l2540
  6971                           opt subtitle "HI-TECH Software Omniscient Code Generator (Lite mode) build 49521"
  6972  05AD                     i1l327:	
  6973                           opt subtitle "HI-TECH Software Omniscient Code Generator (Lite mode) build 49521"
  6974                           
  6975  05AD                     i1l2532:	
  6976  05AD  3001               	movlw	(01h)
  6977  05AE  00A2               	movwf	(??i1_printf+0)+0
  6978  05AF  0822               	movf	(??i1_printf+0)+0,w
  6979  05B0  07AD               	addwf	(i1printf@c),f
  6980                           opt subtitle "HI-TECH Software Omniscient Code Generator (Lite mode) build 49521"
  6981  05B1                     i1l2534:	
  6982  05B1  082D               	movf	(i1printf@c),w
  6983  05B2  3A04               	xorlw	04h
  6984  05B3  1D03               	skipz
  6985  05B4  2DB6               	goto	u240_21
  6986  05B5  2DB7               	goto	u240_20
  6987  05B6                     u240_21:
  6988  05B6  2D8C               	goto	i1l2528
  6989  05B7                     u240_20:
  6990  05B7  2DC3               	goto	i1l2540
  6991                           opt subtitle "HI-TECH Software Omniscient Code Generator (Lite mode) build 49521"
  6992  05B8                     i1l326:	
  6993                           opt subtitle "HI-TECH Software Omniscient Code Generator (Lite mode) build 49521"
  6994                           
  6995  05B8  2DC3               	goto	i1l2540
  6996                           opt subtitle "HI-TECH Software Omniscient Code Generator (Lite mode) build 49521"
  6997                           
  6998  05B9                     i1l2536:	
  6999                           opt subtitle "HI-TECH Software Omniscient Code Generator (Lite mode) build 49521"
  7000  05B9  2DC3               	goto	i1l2540
  7001                           opt subtitle "HI-TECH Software Omniscient Code Generator (Lite mode) build 49521"
  7002                           
  7003  05BA                     i1l318:	
  7004                           opt subtitle "HI-TECH Software Omniscient Code Generator (Lite mode) build 49521"
  7005  05BA                     i1l2538:	
  7006  05BA  0828               	movf	(i1printf@flag),w
  7007  05BB  3980               	andlw	080h
  7008                           opt subtitle "HI-TECH Software Omniscient Code Generator (Lite mode) build 49521"
  7009                           
  7010                           opt pagewidth 120
  7011                           
  7012                           	opt lm
  7013                           
  7014                           	processor	16F707
  7015                           clrc	macro
  7016                           	bcf	3,0
  7017                           	endm
  7018                           clrz	macro
  7019                           	bcf	3,2
  7020  05BC  3A00               	xorlw	0^0	; case 0
  7021  05BD  1903               	skipnz
  7022  05BE  2D4B               	goto	i1l319
  7023  05BF  3A80               	xorlw	128^0	; case 128
  7024  05C0  1903               	skipnz
  7025  05C1  2D82               	goto	i1l324
  7026  05C2  2DC3               	goto	i1l2540
  7027                           opt subtitle "HI-TECH Software Omniscient Code Generator (Lite mode) build 49521"
  7028                           
  7029                           opt pagewidth 120
  7030                           
  7031  05C3                     i1l323:	
  7032                           opt subtitle "HI-TECH Software Omniscient Code Generator (Lite mode) build 49521"
  7033                           
  7034  05C3                     i1l2540:	
  7035                           opt subtitle "HI-TECH Software Omniscient Code Generator (Lite mode) build 49521"
  7036                           
  7037  05C3  0828               	movf	(i1printf@flag),w
  7038  05C4  3903               	andlw	03h
  7039  05C5  1903               	btfsc	status,2
  7040  05C6  2DC8               	goto	u241_21
  7041  05C7  2DC9               	goto	u241_20
  7042  05C8                     u241_21:
  7043  05C8  2DD0               	goto	i1l2544
  7044  05C9                     u241_20:
  7045                           opt subtitle "HI-TECH Software Omniscient Code Generator (Lite mode) build 49521"
  7046                           
  7047  05C9                     i1l2542:	
  7048                           opt subtitle "HI-TECH Software Omniscient Code Generator (Lite mode) build 49521"
  7049  05C9  302D               	movlw	(02Dh)
  7050  05CA  120A  158A  2439   	fcall	i1_putch
              120A  118A         
  7051  05CF  2DD0               	goto	i1l2544
  7052                           opt subtitle "HI-TECH Software Omniscient Code Generator (Lite mode) build 49521"
  7053  05D0                     i1l328:	
  7054                           opt subtitle "HI-TECH Software Omniscient Code Generator (Lite mode) build 49521"
  7055                           
  7056  05D0                     i1l2544:	
  7057                           opt subtitle "HI-TECH Software Omniscient Code Generator (Lite mode) build 49521"
  7058                           
  7059  05D0  1283               	bcf	status, 5	;RP0=0, select bank0
  7060  05D1  1303               	bcf	status, 6	;RP1=0, select bank0
  7061  05D2  082D               	movf	(i1printf@c),w
  7062  05D3  00A2               	movwf	(??i1_printf+0)+0
  7063  05D4  0822               	movf	(??i1_printf+0)+0,w
  7064  05D5  00A7               	movwf	(i1printf@prec)
  7065                           opt subtitle "HI-TECH Software Omniscient Code Generator (Lite mode) build 49521"
  7066                           
  7067  05D6  2E57               	goto	i1l2558
  7068                           opt subtitle "HI-TECH Software Omniscient Code Generator (Lite mode) build 49521"
  7069  05D7                     i1l330:	
  7070                           opt subtitle "HI-TECH Software Omniscient Code Generator (Lite mode) build 49521"
  7071                           
  7072  05D7  2E47               	goto	i1l2554
  7073                           opt subtitle "HI-TECH Software Omniscient Code Generator (Lite mode) build 49521"
  7074                           
  7075                           opt pagewidth 120
  7076                           
  7077  05D8                     i1l332:	
  7078                           opt subtitle "HI-TECH Software Omniscient Code Generator (Lite mode) build 49521"
  7079                           
  7080  05D8                     i1l2546:	
  7081                           opt subtitle "HI-TECH Software Omniscient Code Generator (Lite mode) build 49521"
  7082  05D8  300A               	movlw	low(0Ah)
  7083  05D9  00F8               	movwf	(?i1___lwmod)
  7084  05DA  3000               	movlw	high(0Ah)
  7085  05DB  00F9               	movwf	((?i1___lwmod))+1
  7086  05DC  0827               	movf	(i1printf@prec),w
  7087  05DD  00A2               	movwf	(??i1_printf+0)+0
  7088  05DE  0722               	addwf	(??i1_printf+0)+0,w
  7089  05DF  3E83               	addlw	low(_dpowers|8000h)
  7090  05E0  0084               	movwf	fsr0
  7091  05E1  3088               	movlw	high(_dpowers|8000h)
  7092  05E2  1803               	skipnc
  7093  05E3  3E01               	addlw	1
  7094  05E4  00FF               	movwf	btemp+1
  7095  05E5  120A  158A  2000   	fcall	stringtab
              120A  118A         
  7096  05EA  00F0               	movwf	(?i1___lwdiv)
  7097  05EB  120A  158A  2000   	fcall	stringtab
              120A  118A         
  7098  05F0  00F1               	movwf	(?i1___lwdiv+1)
  7099  05F1  082A               	movf	(i1printf@_val+1),w
  7100  05F2  01F3               	clrf	1+(?i1___lwdiv)+02h
  7101  05F3  07F3               	addwf	1+(?i1___lwdiv)+02h
  7102  05F4  0829               	movf	(i1printf@_val),w
  7103  05F5  01F2               	clrf	0+(?i1___lwdiv)+02h
  7104  05F6  07F2               	addwf	0+(?i1___lwdiv)+02h
  7105                           opt subtitle "HI-TECH Software Omniscient Code Generator (Lite mode) build 49521"
  7106  05F7  120A  118A  27B2   	fcall	i1___lwdiv
              120A  118A         
  7107  05FC  0871               	movf	(1+(?i1___lwdiv)),w
  7108  05FD  01FB               	clrf	1+(?i1___lwmod)+02h
  7109  05FE  07FB               	addwf	1+(?i1___lwmod)+02h
  7110  05FF  0870               	movf	(0+(?i1___lwdiv)),w
  7111  0600  01FA               	clrf	0+(?i1___lwmod)+02h
  7112  0601  07FA               	addwf	0+(?i1___lwmod)+02h
  7113                           opt subtitle "HI-TECH Software Omniscient Code Generator (Lite mode) build 49521"
  7114  0602  120A  158A  265A   	fcall	i1___lwmod
              120A  118A         
  7115  0607  0878               	movf	(0+(?i1___lwmod)),w
  7116  0608  3E30               	addlw	030h
  7117  0609  1283               	bcf	status, 5	;RP0=0, select bank0
  7118  060A  1303               	bcf	status, 6	;RP1=0, select bank0
  7119  060B  00A3               	movwf	(??i1_printf+1)+0
  7120  060C  0823               	movf	(??i1_printf+1)+0,w
  7121  060D  00AD               	movwf	(i1printf@c)
  7122                           opt subtitle "HI-TECH Software Omniscient Code Generator (Lite mode) build 49521"
  7123                           
  7124  060E  2E50               	goto	i1l2556
  7125                           opt subtitle "HI-TECH Software Omniscient Code Generator (Lite mode) build 49521"
  7126                           
  7127                           opt pagewidth 120
  7128  060F                     i1l334:	
  7129                           opt subtitle "HI-TECH Software Omniscient Code Generator (Lite mode) build 49521"
  7130                           
  7131  060F                     i1l2548:	
  7132                           opt subtitle "HI-TECH Software Omniscient Code Generator (Lite mode) build 49521"
  7133                           
  7134  060F  0827               	movf	(i1printf@prec),w
  7135  0610  00A2               	movwf	(??i1_printf+0)+0
  7136  0611  0722               	addwf	(??i1_printf+0)+0,w
  7137  0612  3E8D               	addlw	low(_hexpowers|8000h)
  7138  0613  0084               	movwf	fsr0
  7139  0614  3088               	movlw	high(_hexpowers|8000h)
  7140  0615  1803               	skipnc
  7141  0616  3E01               	addlw	1
  7142  0617  00FF               	movwf	btemp+1
  7143  0618  120A  158A  2000   	fcall	stringtab
              120A  118A         
  7144  061D  00F0               	movwf	(?i1___lwdiv)
  7145  061E  120A  158A  2000   	fcall	stringtab
              120A  118A         
  7146  0623  00F1               	movwf	(?i1___lwdiv+1)
  7147  0624  082A               	movf	(i1printf@_val+1),w
  7148  0625  01F3               	clrf	1+(?i1___lwdiv)+02h
  7149  0626  07F3               	addwf	1+(?i1___lwdiv)+02h
  7150  0627  0829               	movf	(i1printf@_val),w
  7151  0628  01F2               	clrf	0+(?i1___lwdiv)+02h
  7152  0629  07F2               	addwf	0+(?i1___lwdiv)+02h
  7153                           opt subtitle "HI-TECH Software Omniscient Code Generator (Lite mode) build 49521"
  7154  062A  120A  118A  27B2   	fcall	i1___lwdiv
              120A  118A         
  7155  062F  0870               	movf	(0+(?i1___lwdiv)),w
  7156  0630  390F               	andlw	0Fh
  7157  0631  1283               	bcf	status, 5	;RP0=0, select bank0
  7158  0632  1303               	bcf	status, 6	;RP1=0, select bank0
  7159  0633  00A3               	movwf	(??i1_printf+1)+0
  7160  0634  0823               	movf	(??i1_printf+1)+0,w
  7161  0635  00A5               	movwf	(i1printf@idx)
  7162                           opt subtitle "HI-TECH Software Omniscient Code Generator (Lite mode) build 49521"
  7163                           
  7164  0636                     i1l2550:	
  7165                           opt subtitle "HI-TECH Software Omniscient Code Generator (Lite mode) build 49521"
  7166  0636  0825               	movf	(i1printf@idx),w
  7167  0637  3ECE               	addlw	low(STR_11|8000h)
  7168  0638  0084               	movwf	fsr0
  7169  0639  3088               	movlw	high(STR_11|8000h)
  7170  063A  1803               	skipnc
  7171  063B  3E01               	addlw	1
  7172  063C  00FF               	movwf	btemp+1
  7173  063D  120A  158A  2000   	fcall	stringtab
              120A  118A         
  7174  0642  00A2               	movwf	(??i1_printf+0)+0
  7175  0643  0822               	movf	(??i1_printf+0)+0,w
  7176  0644  00AD               	movwf	(i1printf@c)
  7177                           opt subtitle "HI-TECH Software Omniscient Code Generator (Lite mode) build 49521"
  7178                           
  7179                           opt pagewidth 120
  7180  0645  2E50               	goto	i1l2556
  7181                           opt subtitle "HI-TECH Software Omniscient Code Generator (Lite mode) build 49521"
  7182                           
  7183  0646                     i1l2552:	
  7184                           opt subtitle "HI-TECH Software Omniscient Code Generator (Lite mode) build 49521"
  7185  0646  2E50               	goto	i1l2556
  7186                           opt subtitle "HI-TECH Software Omniscient Code Generator (Lite mode) build 49521"
  7187                           
  7188  0647                     i1l331:	
  7189                           opt subtitle "HI-TECH Software Omniscient Code Generator (Lite mode) build 49521"
  7190  0647                     i1l2554:	
  7191  0647  0828               	movf	(i1printf@flag),w
  7192  0648  3980               	andlw	080h
  7193                           opt subtitle "HI-TECH Software Omniscient Code Generator (Lite mode) build 49521"
  7194                           
  7195                           opt pagewidth 120
  7196                           
  7197                           	opt lm
  7198                           
  7199                           	processor	16F707
  7200                           clrc	macro
  7201                           	bcf	3,0
  7202                           	endm
  7203                           clrz	macro
  7204                           	bcf	3,2
  7205  0649  3A00               	xorlw	0^0	; case 0
  7206  064A  1903               	skipnz
  7207  064B  2DD8               	goto	i1l2546
  7208  064C  3A80               	xorlw	128^0	; case 128
  7209  064D  1903               	skipnz
  7210  064E  2E0F               	goto	i1l2548
  7211  064F  2E50               	goto	i1l2556
  7212                           opt subtitle "HI-TECH Software Omniscient Code Generator (Lite mode) build 49521"
  7213                           
  7214                           opt pagewidth 120
  7215                           
  7216  0650                     i1l333:	
  7217                           opt subtitle "HI-TECH Software Omniscient Code Generator (Lite mode) build 49521"
  7218                           
  7219  0650                     i1l2556:	
  7220                           opt subtitle "HI-TECH Software Omniscient Code Generator (Lite mode) build 49521"
  7221  0650  082D               	movf	(i1printf@c),w
  7222  0651  120A  158A  2439   	fcall	i1_putch
              120A  118A         
  7223  0656  2E57               	goto	i1l2558
  7224                           opt subtitle "HI-TECH Software Omniscient Code Generator (Lite mode) build 49521"
  7225                           
  7226  0657                     i1l329:	
  7227                           opt subtitle "HI-TECH Software Omniscient Code Generator (Lite mode) build 49521"
  7228                           
  7229  0657                     i1l2558:	
  7230  0657  30FF               	movlw	(-1)
  7231  0658  1283               	bcf	status, 5	;RP0=0, select bank0
  7232  0659  1303               	bcf	status, 6	;RP1=0, select bank0
  7233  065A  00A2               	movwf	(??i1_printf+0)+0
  7234  065B  0822               	movf	(??i1_printf+0)+0,w
  7235  065C  07A7               	addwf	(i1printf@prec),f
  7236  065D  0827               	movf	((i1printf@prec)),w
  7237  065E  3AFF               	xorlw	-1
  7238  065F  1D03               	skipz
  7239  0660  2E62               	goto	u242_21
  7240  0661  2E63               	goto	u242_20
  7241  0662                     u242_21:
  7242  0662  2E47               	goto	i1l2554
  7243  0663                     u242_20:
  7244  0663  2E65               	goto	i1l2560
  7245                           opt subtitle "HI-TECH Software Omniscient Code Generator (Lite mode) build 49521"
  7246  0664                     i1l335:	
  7247  0664  2E65               	goto	i1l2560
  7248                           opt subtitle "HI-TECH Software Omniscient Code Generator (Lite mode) build 49521"
  7249                           
  7250  0665                     i1l303:	
  7251                           opt subtitle "HI-TECH Software Omniscient Code Generator (Lite mode) build 49521"
  7252                           
  7253  0665                     i1l2560:	
  7254  0665  1283               	bcf	status, 5	;RP0=0, select bank0
  7255  0666  1303               	bcf	status, 6	;RP1=0, select bank0
  7256  0667  0821               	movf	(i1printf@f+1),w
  7257  0668  00A3               	movwf	(??i1_printf+0)+0+1
  7258  0669  0820               	movf	(i1printf@f),w
  7259  066A  00A2               	movwf	(??i1_printf+0)+0
  7260  066B  3001               	movlw	(01h)
  7261  066C  07A0               	addwf	(i1printf@f),f
  7262  066D  1803               	skipnc
  7263  066E  0AA1               	incf	(i1printf@f+1),f
  7264  066F  0823               	movf	1+(??i1_printf+0)+0,w
  7265  0670  00FF               	movwf	btemp+1
  7266  0671  0822               	movf	0+(??i1_printf+0)+0,w
  7267  0672  0084               	movwf	fsr0
  7268  0673  120A  158A  2000   	fcall	stringtab
              120A  118A         
  7269  0678  00A4               	movwf	(??i1_printf+2)+0
  7270  0679  0824               	movf	(??i1_printf+2)+0,w
  7271  067A  00AD               	movwf	(i1printf@c)
  7272  067B  08AD               	movf	((i1printf@c)),f
  7273  067C  1D03               	skipz
  7274  067D  2E7F               	goto	u243_21
  7275  067E  2E80               	goto	u243_20
  7276  067F                     u243_21:
  7277  067F  2CDC               	goto	i1l2488
  7278  0680                     u243_20:
  7279  0680  2E82               	goto	i1l337
  7280                           opt subtitle "HI-TECH Software Omniscient Code Generator (Lite mode) build 49521"
  7281  0681                     i1l336:	
  7282  0681  2E82               	goto	i1l337
  7283                           opt subtitle "HI-TECH Software Omniscient Code Generator (Lite mode) build 49521"
  7284                           
  7285                           opt pagewidth 120
  7286                           
  7287                           	opt lm
  7288  0682                     i1l308:	
  7289                           opt subtitle "HI-TECH Software Omniscient Code Generator (Lite mode) build 49521"
  7290                           
  7291                           opt pagewidth 120
  7292                           
  7293  0682                     i1l337:	
  7294  0682  0008               	return
  7295                           opt subtitle "HI-TECH Software Omniscient Code Generator (Lite mode) build 49521"
  7296                           
  7297  0683                     	__end_ofi1_printf:
  7298                           opt subtitle "HI-TECH Software Omniscient Code Generator (Lite mode) build 49521"
  7299                           
  7300                           opt pagewidth 120
  7301                           
  7302                           	opt lm
  7303                           
  7304                           	processor	16F707
  7305                           clrc	macro
  7306                           	bcf	3,0
  7307                           	endm
  7308                           clrz	macro
  7309                           	bcf	3,2
  7310                           	endm
  7311                           setc	macro
  7312                           	bsf	3,0
  7313                           	endm
  7314                           setz	macro
  7315                           	bsf	3,2
  7316                           	endm
  7317                           skipc	macro
  7318                           	btfss	3,0
  7319                           	endm
  7320                           skipz	macro
  7321                           	btfss	3,2
  7322                           	endm
  7323                           skipnc	macro
  7324                           	btfsc	3,0
  7325                           	endm
  7326                           skipnz	macro
  7327                           	btfsc	3,2
  7328                           	endm
  7329                           indf	equ	0
  7330                           indf0	equ	0
  7331                           pc	equ	2
  7332  0E5A                     __ptext877:	;psect for function i1___lwmod
  7333                           opt subtitle "HI-TECH Software Omniscient Code Generator (Lite mode) build 49521"
  7334                           
  7335                           opt pagewidth 120
  7336                           
  7337  0043                     	__size_ofi1___lwmod	equ	__end_ofi1___lwmod-i1___lwmod
  7338                           opt subtitle "HI-TECH Software Omniscient Code Generator (Lite mode) build 49521"
  7339  0E5A                     i1___lwmod:	
  7340                           opt subtitle "HI-TECH Software Omniscient Code Generator (Lite mode) build 49521"
  7341                           
  7342                           opt pagewidth 120
  7343                           
  7344  0E5A                     i1l2464:	
  7345  0E5A  0879               	movf	(i1___lwmod@divisor+1),w
  7346  0E5B  0478               	iorwf	(i1___lwmod@divisor),w
  7347  0E5C  1903               	skipnz
  7348  0E5D  2E5F               	goto	u226_21
  7349  0E5E  2E60               	goto	u226_20
  7350  0E5F                     u226_21:
  7351  0E5F  2E95               	goto	i1l2482
  7352  0E60                     u226_20:
  7353                           opt subtitle "HI-TECH Software Omniscient Code Generator (Lite mode) build 49521"
  7354                           
  7355  0E60                     i1l2466:	
  7356  0E60  01FD               	clrf	(i1___lwmod@counter)
  7357  0E61  0AFD               	incf	(i1___lwmod@counter),f
  7358                           opt subtitle "HI-TECH Software Omniscient Code Generator (Lite mode) build 49521"
  7359  0E62  2E6F               	goto	i1l2472
  7360                           opt subtitle "HI-TECH Software Omniscient Code Generator (Lite mode) build 49521"
  7361  0E63                     i1l364:	
  7362                           opt subtitle "HI-TECH Software Omniscient Code Generator (Lite mode) build 49521"
  7363                           
  7364  0E63                     i1l2468:	
  7365  0E63  3001               	movlw	01h
  7366                           opt subtitle "HI-TECH Software Omniscient Code Generator (Lite mode) build 49521"
  7367  0E64                     u227_25:
  7368  0E64  1003               	clrc
  7369  0E65  0DF8               	rlf	(i1___lwmod@divisor),f
  7370  0E66  0DF9               	rlf	(i1___lwmod@divisor+1),f
  7371  0E67  3EFF               	addlw	-1
  7372  0E68  1D03               	skipz
  7373  0E69  2E64               	goto	u227_25
  7374                           opt subtitle "HI-TECH Software Omniscient Code Generator (Lite mode) build 49521"
  7375                           
  7376  0E6A                     i1l2470:	
  7377  0E6A  3001               	movlw	(01h)
  7378  0E6B  00FC               	movwf	(??i1___lwmod+0)+0
  7379  0E6C  087C               	movf	(??i1___lwmod+0)+0,w
  7380  0E6D  07FD               	addwf	(i1___lwmod@counter),f
  7381  0E6E  2E6F               	goto	i1l2472
  7382                           opt subtitle "HI-TECH Software Omniscient Code Generator (Lite mode) build 49521"
  7383                           
  7384  0E6F                     i1l363:	
  7385                           opt subtitle "HI-TECH Software Omniscient Code Generator (Lite mode) build 49521"
  7386                           
  7387  0E6F                     i1l2472:	
  7388  0E6F  1FF9               	btfss	(i1___lwmod@divisor+1),(15)&7
  7389  0E70  2E72               	goto	u228_21
  7390  0E71  2E73               	goto	u228_20
  7391  0E72                     u228_21:
  7392  0E72  2E63               	goto	i1l2468
  7393  0E73                     u228_20:
  7394  0E73  2E75               	goto	i1l2474
  7395                           opt subtitle "HI-TECH Software Omniscient Code Generator (Lite mode) build 49521"
  7396  0E74                     i1l365:	
  7397  0E74  2E75               	goto	i1l2474
  7398                           opt subtitle "HI-TECH Software Omniscient Code Generator (Lite mode) build 49521"
  7399                           
  7400  0E75                     i1l366:	
  7401                           opt subtitle "HI-TECH Software Omniscient Code Generator (Lite mode) build 49521"
  7402                           
  7403  0E75                     i1l2474:	
  7404  0E75  0879               	movf	(i1___lwmod@divisor+1),w
  7405  0E76  027B               	subwf	(i1___lwmod@dividend+1),w
  7406  0E77  1D03               	skipz
  7407  0E78  2E7B               	goto	u229_25
  7408  0E79  0878               	movf	(i1___lwmod@divisor),w
  7409  0E7A  027A               	subwf	(i1___lwmod@dividend),w
  7410  0E7B                     u229_25:
  7411  0E7B  1C03               	skipc
  7412  0E7C  2E7E               	goto	u229_21
  7413  0E7D  2E7F               	goto	u229_20
  7414  0E7E                     u229_21:
  7415  0E7E  2E86               	goto	i1l2478
  7416  0E7F                     u229_20:
  7417                           opt subtitle "HI-TECH Software Omniscient Code Generator (Lite mode) build 49521"
  7418                           
  7419  0E7F                     i1l2476:	
  7420  0E7F  0878               	movf	(i1___lwmod@divisor),w
  7421  0E80  02FA               	subwf	(i1___lwmod@dividend),f
  7422  0E81  0879               	movf	(i1___lwmod@divisor+1),w
  7423  0E82  1C03               	skipc
  7424  0E83  03FB               	decf	(i1___lwmod@dividend+1),f
  7425  0E84  02FB               	subwf	(i1___lwmod@dividend+1),f
  7426  0E85  2E86               	goto	i1l2478
  7427                           opt subtitle "HI-TECH Software Omniscient Code Generator (Lite mode) build 49521"
  7428  0E86                     i1l367:	
  7429                           opt subtitle "HI-TECH Software Omniscient Code Generator (Lite mode) build 49521"
  7430                           
  7431  0E86                     i1l2478:	
  7432  0E86  3001               	movlw	01h
  7433                           opt subtitle "HI-TECH Software Omniscient Code Generator (Lite mode) build 49521"
  7434  0E87                     u230_25:
  7435  0E87  1003               	clrc
  7436  0E88  0CF9               	rrf	(i1___lwmod@divisor+1),f
  7437  0E89  0CF8               	rrf	(i1___lwmod@divisor),f
  7438  0E8A  3EFF               	addlw	-1
  7439  0E8B  1D03               	skipz
  7440  0E8C  2E87               	goto	u230_25
  7441                           opt subtitle "HI-TECH Software Omniscient Code Generator (Lite mode) build 49521"
  7442                           
  7443  0E8D                     i1l2480:	
  7444  0E8D  3001               	movlw	low(01h)
  7445  0E8E  02FD               	subwf	(i1___lwmod@counter),f
  7446  0E8F  1D03               	btfss	status,2
  7447  0E90  2E92               	goto	u231_21
  7448  0E91  2E93               	goto	u231_20
  7449  0E92                     u231_21:
  7450  0E92  2E75               	goto	i1l2474
  7451  0E93                     u231_20:
  7452  0E93  2E95               	goto	i1l2482
  7453                           opt subtitle "HI-TECH Software Omniscient Code Generator (Lite mode) build 49521"
  7454  0E94                     i1l368:	
  7455  0E94  2E95               	goto	i1l2482
  7456                           opt subtitle "HI-TECH Software Omniscient Code Generator (Lite mode) build 49521"
  7457                           
  7458  0E95                     i1l362:	
  7459                           opt subtitle "HI-TECH Software Omniscient Code Generator (Lite mode) build 49521"
  7460                           
  7461  0E95                     i1l2482:	
  7462  0E95  087B               	movf	(i1___lwmod@dividend+1),w
  7463  0E96  01F9               	clrf	(?i1___lwmod+1)
  7464  0E97  07F9               	addwf	(?i1___lwmod+1)
  7465  0E98  087A               	movf	(i1___lwmod@dividend),w
  7466  0E99  01F8               	clrf	(?i1___lwmod)
  7467  0E9A  07F8               	addwf	(?i1___lwmod)
  7468                           opt subtitle "HI-TECH Software Omniscient Code Generator (Lite mode) build 49521"
  7469  0E9B  2E9C               	goto	i1l369
  7470                           opt subtitle "HI-TECH Software Omniscient Code Generator (Lite mode) build 49521"
  7471  0E9C                     i1l2484:	
  7472                           opt subtitle "HI-TECH Software Omniscient Code Generator (Lite mode) build 49521"
  7473                           
  7474  0E9C                     i1l369:	
  7475  0E9C  0008               	return
  7476                           opt subtitle "HI-TECH Software Omniscient Code Generator (Lite mode) build 49521"
  7477                           
  7478  0E9D                     	__end_ofi1___lwmod:
  7479                           opt subtitle "HI-TECH Software Omniscient Code Generator (Lite mode) build 49521"
  7480                           
  7481                           opt pagewidth 120
  7482                           
  7483                           	opt lm
  7484                           
  7485                           	processor	16F707
  7486                           clrc	macro
  7487                           	bcf	3,0
  7488                           	endm
  7489                           clrz	macro
  7490                           	bcf	3,2
  7491                           	endm
  7492                           setc	macro
  7493                           	bsf	3,0
  7494                           	endm
  7495                           setz	macro
  7496                           	bsf	3,2
  7497                           	endm
  7498                           skipc	macro
  7499                           	btfss	3,0
  7500                           	endm
  7501                           skipz	macro
  7502                           	btfss	3,2
  7503                           	endm
  7504                           skipnc	macro
  7505                           	btfsc	3,0
  7506                           	endm
  7507                           skipnz	macro
  7508                           	btfsc	3,2
  7509                           	endm
  7510                           indf	equ	0
  7511                           indf0	equ	0
  7512                           pc	equ	2
  7513                           pcl	equ	2
  7514  07B2                     __ptext878:	;psect for function i1___lwdiv
  7515                           opt subtitle "HI-TECH Software Omniscient Code Generator (Lite mode) build 49521"
  7516                           
  7517                           opt pagewidth 120
  7518                           
  7519  004D                     	__size_ofi1___lwdiv	equ	__end_ofi1___lwdiv-i1___lwdiv
  7520                           opt subtitle "HI-TECH Software Omniscient Code Generator (Lite mode) build 49521"
  7521  07B2                     i1___lwdiv:	
  7522                           opt subtitle "HI-TECH Software Omniscient Code Generator (Lite mode) build 49521"
  7523                           
  7524                           opt pagewidth 120
  7525                           
  7526  07B2                     i1l2438:	
  7527  07B2  01F6               	clrf	(i1___lwdiv@quotient)
  7528  07B3  01F7               	clrf	(i1___lwdiv@quotient+1)
  7529                           opt subtitle "HI-TECH Software Omniscient Code Generator (Lite mode) build 49521"
  7530                           
  7531  07B4                     i1l2440:	
  7532  07B4  0871               	movf	(i1___lwdiv@divisor+1),w
  7533  07B5  0470               	iorwf	(i1___lwdiv@divisor),w
  7534  07B6  1903               	skipnz
  7535  07B7  2FB9               	goto	u219_21
  7536  07B8  2FBA               	goto	u219_20
  7537  07B9                     u219_21:
  7538  07B9  2FF7               	goto	i1l2460
  7539  07BA                     u219_20:
  7540                           opt subtitle "HI-TECH Software Omniscient Code Generator (Lite mode) build 49521"
  7541                           
  7542  07BA                     i1l2442:	
  7543  07BA  01F5               	clrf	(i1___lwdiv@counter)
  7544  07BB  0AF5               	incf	(i1___lwdiv@counter),f
  7545                           opt subtitle "HI-TECH Software Omniscient Code Generator (Lite mode) build 49521"
  7546  07BC  2FC9               	goto	i1l2448
  7547                           opt subtitle "HI-TECH Software Omniscient Code Generator (Lite mode) build 49521"
  7548  07BD                     i1l354:	
  7549                           opt subtitle "HI-TECH Software Omniscient Code Generator (Lite mode) build 49521"
  7550                           
  7551  07BD                     i1l2444:	
  7552  07BD  3001               	movlw	01h
  7553                           opt subtitle "HI-TECH Software Omniscient Code Generator (Lite mode) build 49521"
  7554  07BE                     u220_25:
  7555  07BE  1003               	clrc
  7556  07BF  0DF0               	rlf	(i1___lwdiv@divisor),f
  7557  07C0  0DF1               	rlf	(i1___lwdiv@divisor+1),f
  7558  07C1  3EFF               	addlw	-1
  7559  07C2  1D03               	skipz
  7560  07C3  2FBE               	goto	u220_25
  7561                           opt subtitle "HI-TECH Software Omniscient Code Generator (Lite mode) build 49521"
  7562                           
  7563  07C4                     i1l2446:	
  7564  07C4  3001               	movlw	(01h)
  7565  07C5  00F4               	movwf	(??i1___lwdiv+0)+0
  7566  07C6  0874               	movf	(??i1___lwdiv+0)+0,w
  7567  07C7  07F5               	addwf	(i1___lwdiv@counter),f
  7568  07C8  2FC9               	goto	i1l2448
  7569                           opt subtitle "HI-TECH Software Omniscient Code Generator (Lite mode) build 49521"
  7570                           
  7571  07C9                     i1l353:	
  7572                           opt subtitle "HI-TECH Software Omniscient Code Generator (Lite mode) build 49521"
  7573                           
  7574  07C9                     i1l2448:	
  7575  07C9  1FF1               	btfss	(i1___lwdiv@divisor+1),(15)&7
  7576  07CA  2FCC               	goto	u221_21
  7577  07CB  2FCD               	goto	u221_20
  7578  07CC                     u221_21:
  7579  07CC  2FBD               	goto	i1l2444
  7580  07CD                     u221_20:
  7581  07CD  2FCF               	goto	i1l2450
  7582                           opt subtitle "HI-TECH Software Omniscient Code Generator (Lite mode) build 49521"
  7583  07CE                     i1l355:	
  7584  07CE  2FCF               	goto	i1l2450
  7585                           opt subtitle "HI-TECH Software Omniscient Code Generator (Lite mode) build 49521"
  7586                           
  7587  07CF                     i1l356:	
  7588                           opt subtitle "HI-TECH Software Omniscient Code Generator (Lite mode) build 49521"
  7589                           
  7590  07CF                     i1l2450:	
  7591  07CF  3001               	movlw	01h
  7592                           opt subtitle "HI-TECH Software Omniscient Code Generator (Lite mode) build 49521"
  7593  07D0                     u222_25:
  7594  07D0  1003               	clrc
  7595  07D1  0DF6               	rlf	(i1___lwdiv@quotient),f
  7596  07D2  0DF7               	rlf	(i1___lwdiv@quotient+1),f
  7597  07D3  3EFF               	addlw	-1
  7598  07D4  1D03               	skipz
  7599  07D5  2FD0               	goto	u222_25
  7600                           opt subtitle "HI-TECH Software Omniscient Code Generator (Lite mode) build 49521"
  7601  07D6  0871               	movf	(i1___lwdiv@divisor+1),w
  7602  07D7  0273               	subwf	(i1___lwdiv@dividend+1),w
  7603  07D8  1D03               	skipz
  7604  07D9  2FDC               	goto	u223_25
  7605  07DA  0870               	movf	(i1___lwdiv@divisor),w
  7606  07DB  0272               	subwf	(i1___lwdiv@dividend),w
  7607  07DC                     u223_25:
  7608  07DC  1C03               	skipc
  7609  07DD  2FDF               	goto	u223_21
  7610  07DE  2FE0               	goto	u223_20
  7611  07DF                     u223_21:
  7612  07DF  2FE8               	goto	i1l2456
  7613  07E0                     u223_20:
  7614                           opt subtitle "HI-TECH Software Omniscient Code Generator (Lite mode) build 49521"
  7615                           
  7616  07E0                     i1l2452:	
  7617  07E0  0870               	movf	(i1___lwdiv@divisor),w
  7618  07E1  02F2               	subwf	(i1___lwdiv@dividend),f
  7619  07E2  0871               	movf	(i1___lwdiv@divisor+1),w
  7620  07E3  1C03               	skipc
  7621  07E4  03F3               	decf	(i1___lwdiv@dividend+1),f
  7622  07E5  02F3               	subwf	(i1___lwdiv@dividend+1),f
  7623                           opt subtitle "HI-TECH Software Omniscient Code Generator (Lite mode) build 49521"
  7624                           
  7625  07E6                     i1l2454:	
  7626  07E6  1476               	bsf	(i1___lwdiv@quotient)+(0/8),(0)&7
  7627  07E7  2FE8               	goto	i1l2456
  7628                           opt subtitle "HI-TECH Software Omniscient Code Generator (Lite mode) build 49521"
  7629                           
  7630  07E8                     i1l357:	
  7631                           opt subtitle "HI-TECH Software Omniscient Code Generator (Lite mode) build 49521"
  7632                           
  7633  07E8                     i1l2456:	
  7634  07E8  3001               	movlw	01h
  7635                           opt subtitle "HI-TECH Software Omniscient Code Generator (Lite mode) build 49521"
  7636  07E9                     u224_25:
  7637  07E9  1003               	clrc
  7638  07EA  0CF1               	rrf	(i1___lwdiv@divisor+1),f
  7639  07EB  0CF0               	rrf	(i1___lwdiv@divisor),f
  7640  07EC  3EFF               	addlw	-1
  7641  07ED  1D03               	skipz
  7642  07EE  2FE9               	goto	u224_25
  7643                           opt subtitle "HI-TECH Software Omniscient Code Generator (Lite mode) build 49521"
  7644                           
  7645  07EF                     i1l2458:	
  7646  07EF  3001               	movlw	low(01h)
  7647  07F0  02F5               	subwf	(i1___lwdiv@counter),f
  7648  07F1  1D03               	btfss	status,2
  7649  07F2  2FF4               	goto	u225_21
  7650  07F3  2FF5               	goto	u225_20
  7651  07F4                     u225_21:
  7652  07F4  2FCF               	goto	i1l2450
  7653  07F5                     u225_20:
  7654  07F5  2FF7               	goto	i1l2460
  7655                           opt subtitle "HI-TECH Software Omniscient Code Generator (Lite mode) build 49521"
  7656  07F6                     i1l358:	
  7657  07F6  2FF7               	goto	i1l2460
  7658                           opt subtitle "HI-TECH Software Omniscient Code Generator (Lite mode) build 49521"
  7659                           
  7660  07F7                     i1l352:	
  7661                           opt subtitle "HI-TECH Software Omniscient Code Generator (Lite mode) build 49521"
  7662                           
  7663  07F7                     i1l2460:	
  7664  07F7  0877               	movf	(i1___lwdiv@quotient+1),w
  7665  07F8  01F1               	clrf	(?i1___lwdiv+1)
  7666  07F9  07F1               	addwf	(?i1___lwdiv+1)
  7667  07FA  0876               	movf	(i1___lwdiv@quotient),w
  7668  07FB  01F0               	clrf	(?i1___lwdiv)
  7669  07FC  07F0               	addwf	(?i1___lwdiv)
  7670                           opt subtitle "HI-TECH Software Omniscient Code Generator (Lite mode) build 49521"
  7671  07FD  2FFE               	goto	i1l359
  7672                           opt subtitle "HI-TECH Software Omniscient Code Generator (Lite mode) build 49521"
  7673  07FE                     i1l2462:	
  7674                           opt subtitle "HI-TECH Software Omniscient Code Generator (Lite mode) build 49521"
  7675                           
  7676  07FE                     i1l359:	
  7677  07FE  0008               	return
  7678                           opt subtitle "HI-TECH Software Omniscient Code Generator (Lite mode) build 49521"
  7679                           
  7680  07FF                     	__end_ofi1___lwdiv:
  7681                           opt subtitle "HI-TECH Software Omniscient Code Generator (Lite mode) build 49521"
  7682                           
  7683                           opt pagewidth 120
  7684                           
  7685                           	opt lm
  7686                           
  7687                           	processor	16F707
  7688                           clrc	macro
  7689                           	bcf	3,0
  7690                           	endm
  7691                           clrz	macro
  7692                           	bcf	3,2
  7693                           	endm
  7694                           setc	macro
  7695                           	bsf	3,0
  7696                           	endm
  7697                           setz	macro
  7698                           	bsf	3,2
  7699                           	endm
  7700                           skipc	macro
  7701                           	btfss	3,0
  7702                           	endm
  7703                           skipz	macro
  7704                           	btfss	3,2
  7705                           	endm
  7706                           skipnc	macro
  7707                           	btfsc	3,0
  7708                           	endm
  7709                           skipnz	macro
  7710                           	btfsc	3,2
  7711                           	endm
  7712                           indf	equ	0
  7713                           indf0	equ	0
  7714  0C39                     __ptext879:	;psect for function i1_putch
  7715                           opt subtitle "HI-TECH Software Omniscient Code Generator (Lite mode) build 49521"
  7716                           
  7717                           opt pagewidth 120
  7718                           
  7719  000C                     	__size_ofi1_putch	equ	__end_ofi1_putch-i1_putch
  7720                           opt subtitle "HI-TECH Software Omniscient Code Generator (Lite mode) build 49521"
  7721  0C39                     i1_putch:	
  7722                           opt subtitle "HI-TECH Software Omniscient Code Generator (Lite mode) build 49521"
  7723                           
  7724                           opt pagewidth 120
  7725  0C39  00F0               	movwf	(i1putch@c)
  7726                           opt subtitle "HI-TECH Software Omniscient Code Generator (Lite mode) build 49521"
  7727                           
  7728  0C3A                     i1l2434:	
  7729                           opt subtitle "HI-TECH Software Omniscient Code Generator (Lite mode) build 49521"
  7730  0C3A  2C3B               	goto	i1l137
  7731                           opt subtitle "HI-TECH Software Omniscient Code Generator (Lite mode) build 49521"
  7732  0C3B                     i1l138:	
  7733                           opt subtitle "HI-TECH Software Omniscient Code Generator (Lite mode) build 49521"
  7734  0C3B                     i1l137:	
  7735  0C3B  1283               	bcf	status, 5	;RP0=0, select bank0
  7736  0C3C  1303               	bcf	status, 6	;RP1=0, select bank0
  7737  0C3D  1E0C               	btfss	(100/8),(100)&7	;volatile
  7738  0C3E  2C40               	goto	u218_21
  7739  0C3F  2C41               	goto	u218_20
  7740  0C40                     u218_21:
  7741  0C40  2C3B               	goto	i1l137
  7742  0C41                     u218_20:
  7743  0C41  2C42               	goto	i1l2436
  7744                           opt subtitle "HI-TECH Software Omniscient Code Generator (Lite mode) build 49521"
  7745  0C42                     i1l139:	
  7746                           opt subtitle "HI-TECH Software Omniscient Code Generator (Lite mode) build 49521"
  7747                           
  7748  0C42                     i1l2436:	
  7749                           opt subtitle "HI-TECH Software Omniscient Code Generator (Lite mode) build 49521"
  7750  0C42  0870               	movf	(i1putch@c),w
  7751  0C43  0099               	movwf	(25)	;volatile
  7752                           opt subtitle "HI-TECH Software Omniscient Code Generator (Lite mode) build 49521"
  7753                           
  7754  0C44                     i1l140:	
  7755  0C44  0008               	return
  7756                           opt subtitle "HI-TECH Software Omniscient Code Generator (Lite mode) build 49521"
  7757                           
  7758  0C45                     	__end_ofi1_putch:
  7759                           opt subtitle "HI-TECH Software Omniscient Code Generator (Lite mode) build 49521"
  7760                           
  7761                           opt pagewidth 120
  7762  0000                     __ptext880:	;psect for function i1_putch
  7763                           opt subtitle "HI-TECH Software Omniscient Code Generator (Lite mode) build 49521"
  7764  007E                     	btemp set 07Eh
  7765                           opt subtitle "HI-TECH Software Omniscient Code Generator (Lite mode) build 49521"
  7766                           
  7767                           opt pagewidth 120
  7768  007E                     	wtemp0 set btemp


Data Sizes:
    Strings     123
    Constant    145
    Data        1
    BSS         34
    Persistent  0
    Stack       0

Auto Spaces:
    Space          Size  Autos    Used
    COMMON           14     14      14
    BANK0            80     57      61
    BANK1            80     43      75
    BANK3            96      0       0
    BANK2            91      0       0

Pointer List with Targets:

    ?___lwdiv	unsigned int  size(1) Largest target is 0

    ?___lwmod	unsigned int  size(1) Largest target is 0

    printf@f	PTR const unsigned char  size(2) Largest target is 32
		 -> STR_10(CODE[5]), STR_9(CODE[12]), Receive_Packet@rx_buf(BANK0[32]), STR_8(CODE[5]), 
		 -> STR_7(CODE[24]), STR_6(CODE[17]), STR_5(CODE[3]), STR_4(CODE[3]), 
		 -> STR_3(CODE[10]), STR_2(CODE[16]), STR_1(CODE[19]), 

    ?_printf	int  size(1) Largest target is 0

    printf@ap	PTR void [1] size(1) Largest target is 2
		 -> ?_printf(BANK0[2]), 

    S895$_cp	PTR const unsigned char  size(1) Largest target is 0

    _val._str._cp	PTR const unsigned char  size(1) Largest target is 0

    SPI_Write_Buf@pBuf	PTR unsigned char  size(1) Largest target is 12
		 -> RFM70_Initialize@WriteArr(BANK0[12]), tx_buf(BANK0[1]), 

    Send_Packet@pbuf	PTR unsigned char  size(1) Largest target is 1
		 -> tx_buf(BANK0[1]), 


Critical Paths under _main in COMMON

    None.

Critical Paths under _ISR in COMMON

    i1_printf->i1___lwmod
    i1___lwmod->i1___lwdiv

Critical Paths under _main in BANK0

    _main->_Send_Packet
    _rfm70setPowerdownMode->_SPI_Read_Reg
    _RFM70_Initialize->_SwitchCFG
    _Send_Packet->_printf
    _SwitchToTxMode->_SPI_Read_Reg
    _printf->___lwmod
    _SPI_Write_Buf->_SPI_RW
    _rfm70TxDataSentInterrupt->_SPI_Read_Reg
    _SwitchToRxMode->_SPI_Read_Reg
    _rfm70TxDataSentErrorInterrupt->_SPI_Read_Reg
    _SwitchCFG->_SPI_Read_Reg
    _SPI_Read_Reg->_SPI_RW
    _SPI_Write_Reg->_SPI_RW
    ___lwmod->___lwdiv

Critical Paths under _ISR in BANK0

    _ISR->i1_printf

Critical Paths under _main in BANK1

    None.

Critical Paths under _ISR in BANK1

    None.

Critical Paths under _main in BANK3

    None.

Critical Paths under _ISR in BANK3

    None.

Critical Paths under _main in BANK2

    None.

Critical Paths under _ISR in BANK2

    None.

Call Graph Tables:

 ---------------------------------------------------------------------------------
 (Depth) Function   	        Calls       Base Space   Used Autos Params    Refs
 ---------------------------------------------------------------------------------
 (0) _main                                                48    44      4    5274
                                              0 BANK1     43    39      4
                            _spiInit
                           _uartInit
                            _adcInit
              _rfm70setPowerdownMode
                            _adcRead
                             _printf
                   _RFM70_Initialize
                        _Send_Packet
 ---------------------------------------------------------------------------------
 (1) _spiInit                                              2     2      0       0
                                             19 BANK0      2     2      0
 ---------------------------------------------------------------------------------
 (1) _uartInit                                             0     0      0       0
 ---------------------------------------------------------------------------------
 (1) _adcInit                                              0     0      0       0
 ---------------------------------------------------------------------------------
 (1) _rfm70setPowerdownMode                                3     3      0     180
                                             25 BANK0      3     3      0
                       _SPI_Read_Reg
                      _SPI_Write_Reg
 ---------------------------------------------------------------------------------
 (1) _adcRead                                              2     2      0      23
                                             19 BANK0      2     2      0
 ---------------------------------------------------------------------------------
 (1) _RFM70_Initialize                                    21    21      0    1895
                                             28 BANK0     21    21      0
                          _SwitchCFG
                      _SPI_Write_Reg
                      _SPI_Write_Buf
                       _SPI_Read_Reg
 ---------------------------------------------------------------------------------
 (1) _Send_Packet                                          8     6      2    2006
                                             49 BANK0      8     6      2
                     _SwitchToTxMode
                       _SPI_Read_Reg
                             _printf
                      _SPI_Write_Buf
           _rfm70TxDataSentInterrupt
                     _SwitchToRxMode
      _rfm70TxDataSentErrorInterrupt
 ---------------------------------------------------------------------------------
 (2) _SwitchToTxMode                                       2     2      0     179
                                             25 BANK0      2     2      0
                      _SPI_Write_Reg
                       _SPI_Read_Reg
 ---------------------------------------------------------------------------------
 (2) _printf                                              16    12      4    1000
                                             33 BANK0     16    12      4
                              _putch
                            ___lwdiv
                            ___lwmod
                            _adcRead (ARG)
 ---------------------------------------------------------------------------------
 (3) _putch                                                1     1      0      22
                                             19 BANK0      1     1      0
 ---------------------------------------------------------------------------------
 (2) _SPI_Write_Buf                                        5     3      2     113
                                             22 BANK0      5     3      2
                             _SPI_RW
 ---------------------------------------------------------------------------------
 (2) _rfm70TxDataSentInterrupt                             1     1      0     133
                                             25 BANK0      1     1      0
                       _SPI_Read_Reg
                      _SPI_Write_Reg
 ---------------------------------------------------------------------------------
 (2) _SwitchToRxMode                                       2     2      0     202
                                             25 BANK0      2     2      0
                      _SPI_Write_Reg
                       _SPI_Read_Reg
 ---------------------------------------------------------------------------------
 (2) _rfm70TxDataSentErrorInterrupt                        1     1      0     133
                                             25 BANK0      1     1      0
                       _SPI_Read_Reg
                      _SPI_Write_Reg
 ---------------------------------------------------------------------------------
 (2) _SwitchCFG                                            3     3      0     245
                                             25 BANK0      3     3      0
                       _SPI_Read_Reg
                      _SPI_Write_Reg
 ---------------------------------------------------------------------------------
 (3) _SPI_Read_Reg                                         3     3      0      67
                                             22 BANK0      3     3      0
                             _SPI_RW
 ---------------------------------------------------------------------------------
 (3) _SPI_Write_Reg                                        2     1      1      66
                                             22 BANK0      2     1      1
                             _SPI_RW
 ---------------------------------------------------------------------------------
 (4) _SPI_RW                                               3     3      0      22
                                             19 BANK0      3     3      0
 ---------------------------------------------------------------------------------
 (3) ___lwdiv                                              8     4      4     162
                                             19 BANK0      8     4      4
 ---------------------------------------------------------------------------------
 (3) ___lwmod                                              6     2      4     159
                                             27 BANK0      6     2      4
                            ___lwdiv (ARG)
 ---------------------------------------------------------------------------------
 Estimated maximum stack depth 4
 ---------------------------------------------------------------------------------
 (Depth) Function   	        Calls       Base Space   Used Autos Params    Refs
 ---------------------------------------------------------------------------------
 (5) _ISR                                                  5     5      0    3276
                                             14 BANK0      5     5      0
                           i1_printf
 ---------------------------------------------------------------------------------
 (6) i1_printf                                            14    12      2    3276
                                              0 BANK0     14    12      2
                            i1_putch
                          i1___lwdiv
                          i1___lwmod
 ---------------------------------------------------------------------------------
 (7) i1___lwmod                                            6     2      4     521
                                              8 COMMON     6     2      4
                          i1___lwdiv (ARG)
 ---------------------------------------------------------------------------------
 (7) i1___lwdiv                                            8     4      4     527
                                              0 COMMON     8     4      4
 ---------------------------------------------------------------------------------
 (7) i1_putch                                              1     1      0      73
                                              0 COMMON     1     1      0
 ---------------------------------------------------------------------------------
 Estimated maximum stack depth 7
 ---------------------------------------------------------------------------------

 Call Graph Graphs:

 _main (ROOT)
   _spiInit
   _uartInit
   _adcInit
   _rfm70setPowerdownMode
     _SPI_Read_Reg
       _SPI_RW
     _SPI_Write_Reg
       _SPI_RW
   _adcRead
   _printf
     _putch
     ___lwdiv
     ___lwmod
       ___lwdiv (ARG)
     _adcRead (ARG)
   _RFM70_Initialize
     _SwitchCFG
       _SPI_Read_Reg
         _SPI_RW
       _SPI_Write_Reg
         _SPI_RW
     _SPI_Write_Reg
       _SPI_RW
     _SPI_Write_Buf
       _SPI_RW
     _SPI_Read_Reg
       _SPI_RW
   _Send_Packet
     _SwitchToTxMode
       _SPI_Write_Reg
         _SPI_RW
       _SPI_Read_Reg
         _SPI_RW
     _SPI_Read_Reg
       _SPI_RW
     _printf
       _putch
       ___lwdiv
       ___lwmod
         ___lwdiv (ARG)
       _adcRead (ARG)
     _SPI_Write_Buf
       _SPI_RW
     _rfm70TxDataSentInterrupt
       _SPI_Read_Reg
         _SPI_RW
       _SPI_Write_Reg
         _SPI_RW
     _SwitchToRxMode
       _SPI_Write_Reg
         _SPI_RW
       _SPI_Read_Reg
         _SPI_RW
     _rfm70TxDataSentErrorInterrupt
       _SPI_Read_Reg
         _SPI_RW
       _SPI_Write_Reg
         _SPI_RW

 _ISR (ROOT)
   i1_printf
     i1_putch
     i1___lwdiv
     i1___lwmod
       i1___lwdiv (ARG)

 Address spaces:
Name               Size   Autos  Total    Cost      Usage
BANK3               60      0       0      10        0.0%
BITBANK3            60      0       0       9        0.0%
SFR3                 0      0       0       4        0.0%
BITSFR3              0      0       0       4        0.0%
BANK2               5B      0       0      12        0.0%
BITBANK2            5B      0       0      11        0.0%
SFR2                 0      0       0       5        0.0%
BITSFR2              0      0       0       5        0.0%
BANK1               50     2B      4B       8       93.8%
BITBANK1            50      0       0       7        0.0%
SFR1                 0      0       0       2        0.0%
BITSFR1              0      0       0       2        0.0%
BANK0               50     39      3D       5       76.2%
BITBANK0            50      0       1       4        1.2%
SFR0                 0      0       0       1        0.0%
BITSFR0              0      0       0       1        0.0%
COMMON               E      E       E       1      100.0%
BITCOMMON            E      0       0       0        0.0%
CODE                 0      0       0       0        0.0%
DATA                 0      0      A0       6        0.0%
ABS                  0      0      96       3        0.0%
NULL                 0      0       0       0        0.0%
STACK                0      0       A       2        0.0%


Microchip Technology PIC Macro Assembler V1.12 build 49521 
Symbol Table                                                                                   Mon Mar  4 22:03:25 2013

                                     pc 0002                             __CFG_CP$OFF 0000  
                           _SSPSTATbits 0094                                      fsr 0004  
        __size_of_rfm70setPowerdownMode 0025           __end_of_rfm70setPowerdownMode 0D69  
             __size_of_RFM70_Initialize 0310                 __size_of_SwitchToRxMode 003F  
                                   l201 0D2F                                     l202 0D2F  
                                   l210 0CE1                                     l122 0C63  
                                   l114 072F                                     l203 0D36  
                                   l123 0C63                                     l131 0CC8  
                                   l115 0760                                     l204 0D43  
                                   l220 0D77                                     l140 0C50  
                                   l124 0C68                                     l116 0790  
                                   l221 0D91                                     l125 0C6E  
                                   l117 07AE                                     l222 0D92  
                                   l310 033D                                     l134 0C5D  
                                   l118 07AF                                     l207 0C84  
                                   l231 0E1A                                     l303 04B7  
                                   l311 036C                                     l119 07AF  
                                   l320 03A5                                     l312 033E  
                                   l304 032C                                     l160 0FA8  
                                   l128 0C9A                                     l233 0E0F  
                                   l225 0E59                                     l137 0C49  
                                   l321 03D1                                     l313 033E  
                                   l305 0339                                     l161 0FC3  
                                   l138 0C49                                     l330 0427  
                                   l322 03C6                                     l306 0348  
                                   l314 0340                                     l162 0FDE  
                                   l250 0122                                     l242 0034  
                                   l235 0E05                                     l219 0D8B  
                                   l139 0C4E                                     l331 0499  
                                   l323 0413                                     l315 038D  
                                   l307 033B                                     l155 0FFF  
                                   l163 0FE6                                     l251 0130  
                                   l243 0064                                     l236 0E1A  
                                   l308 04D4                                     l332 0428  
                                   l324 03D2                                     l316 038C  
                                   l228 0DBC                                     l156 0F72  
                                   l164 0FFF                                     l260 024A  
                                   l252 015F                                     l244 006D  
                                   l333 04A2                                     l325 03DC  
                                   l317 039A                                     l309 033C  
                                   l157 0F55                                     l261 026E  
                                   l253 0170                                     l245 008B  
                                   l334 0461                                     l318 040A  
                                   l326 0408                                     l158 0F79  
                                   l262 028C                                     l254 01E4  
                                   l246 00A4                                     l335 04B6  
                                   l327 03FD                                     l319 039B  
                                   l159 0FDF                                     l263 02A5  
                                   l255 0179                                     l247 00C2  
                                   l352 0F29                                     l280 0D00  
                                   l336 04D3                                     l328 0420  
                                   l264 02E8                                     l256 01C8  
                                   l248 00DB                                     l353 0EFB  
                                   l273 0D1C                                     l329 04A9  
                                   l337 04D4                 __size_of_SwitchToTxMode 002A  
                                   l265 0324                                     l257 01F0  
                                   l249 00F9                                     l362 0EDA  
                                   l354 0EEF                                     l274 0D1F  
                                   l258 0265                                     l290 0D68  
                                   l363 0EB4                                     l355 0F00  
                                   l275 0D1F                                     l259 01F9  
                                   l364 0EA8                                     l356 0F01  
                                   l365 0EB9                                     l357 0F1A  
                                   l366 0EBA                                     l358 0F28  
                                   l278 0CFD                                     l367 0ECB  
                                   l359 0F30                                     l279 0D00  
                                   l368 0ED9                                     l288 0D5C  
                                   l369 0EE1                                     l289 0D5E  
                                   _GIE 005F                                     _ISR 0DBD  
                                   fsr0 0004                                     indf 0000  
                                  ?_ISR 0070                                    l2000 0C6E  
                                  l2010 0033                                    l2002 0015  
                                  l2100 01EF                                    l2020 006C  
                                  l2012 0034                                    l2004 0023  
                                  l2110 0243                                    l2102 01F1  
                                  l2030 0099                                    l2022 006D  
                                  l2014 0058                                    l2006 0029  
                                  l2200 0C48                                    l2120 026D  
                                  l2104 01F8                                    l2112 024A  
                                  l2040 00BB                                    l2032 009C  
                                  l2024 0080                                    l2016 005E  
                                  l2008 002C                                    l2202 0C4E  
                                  l2210 0D9C                                    l2130 029A  
                                  l2122 026E                                    l2114 0259  
                                  l2106 01F9                                    l2050 00DB  
                                  l2034 00A3                                    l2042 00C2  
                                  l2026 0084                                    l2018 0065  
                                  l2220 0CCD                                    l2212 0DAA  
                                  l2140 02E1                                    l2132 029D  
                                  l2124 0281                                    l2116 025F  
                                  l2108 023F                                    l2060 0117  
                                  l2052 00EE                                    l2044 00D0  
                                  l2036 00A4                                    l2028 008B  
                                  l2222 0CD3                                    l2230 0D6C  
                                  l2214 0DAF                                    l2150 031B  
                                  l2134 02A4                                    l2142 02E8  
                                  l2126 0285                                    l2118 0266  
                                  l2070 0154                                    l2062 0122  
                                  l2054 00F2                                    l2046 00D3  
                                  l2038 00B7                                    l2400 0F12  
                                  l2224 0CDE                                    l2240 0D86  
                                  l2232 0D6D                                    l2216 0DB9  
                                  l2208 0D93                                    l2160 0F51  
                                  l2152 0321                                    l2144 02ED  
                                  l2136 02A5                                    l2128 028C  
                                  l2080 016F                                    l2072 0158  
                                  l2064 0128                                    l2048 00DA  
                                  l2056 00F9                                    l2410 0F30  
                                  l2402 0F18                                    l2226 0CDF  
                                  l2218 0CCC                                    l2250 0D1A  
                                  l2242 0D8B                                    l2234 0D73  
                                  l2170 0F82                                    l2162 0F55  
                                  l2154 0F34                                    l2146 02FB  
                                  l2138 02DD                                    l2090 01C1  
                                  l2082 0171                                    l2066 012F  
                                  l2074 015F                                    l2058 0112  
                                  l2420 0EB4                                    l2412 0E9D  
                                  l2404 0F1A                                    l2228 0CE1  
                                  l2260 0E24                                    l2252 0D1B  
                                  l2244 0D01                                    l2236 0D77  
                                  l2180 0F9E                                    l2172 0F85  
                                  l2164 0F6B                                    l2156 0F44  
                                  l2148 0310                                    l2084 0178  
                                  l2092 01C8                                    l2076 0165  
                                  l2068 0130                                    l2422 0EBA  
                                  l2414 0EA5                                    l2430 0EDA  
                                  l2406 0F21                                    l2350 0C72  
                                  l2270 0E56                                    l2262 0E2F  
                                  l2246 0D0E                                    l2254 0D1C  
                                  l2238 0D80                                    l2190 0FCD  
                                  l2182 0FA8                                    l2174 0F93  
                                  l2166 0F72                                    l2158 0F48  
                                  l2094 01D7                                    l2086 0179  
                                  l2078 0168                                    l2432 0EE1  
                                  l2424 0EC4                                    l2416 0EA8  
                                  l2408 0F29                                    l2360 0D43  
                                  l2352 0C73                                    l2280 0CFC  
                                  l2272 0CE2                                    l2264 0E39  
                                  l2256 0D1E                                    l2248 0D18  
                                  l1800 03A5                                    l2192 0FD8  
                                  l2184 0FB2                                    l2176 0F96  
                                  l2168 0F79                                    l2096 01DD  
                                  l2088 01BD                                    l2600 06A3  
                                  l2426 0ECB                                    l2418 0EAF  
                                  l2354 0C81                                    l2370 0E05  
                                  l2362 0DEC                                    l2274 0CEF  
                                  l2282 0CFD                                    l2266 0E47  
                                  l2258 0E1B                                    l1810 03DB  
                                  l1802 03C5                                    l2186 0FBD  
                                  l2194 0FDF                                    l2178 0F9B  
                                  l2098 01E4                                    l2610 06AE  
                                  l2602 06A4                                    l2428 0ED2  
                                  l2356 0D23                                    l2372 0E0A  
                                  l2364 0DF7                                    l2284 0CFF  
                                  l2276 0CF9                                    l2268 0E4C  
                                  l1820 0409                                    l1812 03DC  
                                  l1804 03C6                                    l2196 0FE6  
                                  l2188 0FC3                                    l2620 06B3  
                                  l2612 06AF                                    l2604 06A5  
                                  l2390 0EEC                                    l2358 0D36  
                                  l2374 0E0F                                    l2366 0DFC  
                                  l2278 0CFB                                    l1830 0428  
                                  l1814 03FC                                    l1806 03CA  
                                  l1822 040A                                    l2198 0FEF  
                                  l2630 06BE                                    l2622 06B6  
                                  l2614 06B0                                    l2606 06A8  
                                  l2392 0EEF                                    l2368 0E00  
                                  l1832 0461                                    l1840 04A2  
                                  l1816 03FD                                    l1808 03D4  
                                  l1824 0413                                    l2640 06E3  
                                  l2632 06CD                                    l2624 06B7  
                                  l2616 06B1                                    l2608 06AB  
                                  l2394 0EF6                                    l2386 0EE2  
                                  l1834 0488                                    l1842 04A9  
                                  l1826 0419                                    l1818 0401  
                                  l1770 0325                                    l2650 06F0  
                                  l2642 06E7                                    l2634 06D0  
                                  l2626 06B8                                    l2618 06B2  
                                  l2396 0EFB                                    l2388 0EE6  
                                  l1836 0498                                    l1828 0420  
                                  l1780 0348                                    l1772 032C  
                                  l1844 04B7                                    l2660 0706  
                                  l2652 06F1                                    l2644 06E9  
                                  l2636 06DF                                    l2628 06BB  
                                  l2580 0683                                    l2398 0F01  
                                  l1838 0499                                    l1790 0386  
                                  l1782 0372                                    l1774 0332  
                                  l2670 0748                                    l2662 070B  
                                  l2654 06F6                                    l2646 06EC  
                                  l2638 06E2                                    l2590 0696  
                                  l2582 068D                                    l1784 037A  
                                  l1792 038D                                    l1776 0340  
                                  l1960 0CB1                                    l2672 075F  
                                  l2680 0790                                    l2664 0729  
                                  l2656 06FB                                    l2648 06EF  
                                  l2592 0699                                    l2584 0691  
                                  l1794 0395                                    l1786 037E  
                                  l1778 0347                                    l1970 0C85  
                                  l1962 0CB5                                    l2690 07AA  
                                  l2682 079E                                    l2674 0760  
                                  l2666 072F                                    l2658 0700  
                                  l2594 069C                                    l2586 0694  
                                  l1796 039D                                    l1788 0382  
                                  l1980 0C92                                    l1972 0C89  
                                  l1964 0CB9                                    l2692 07AB  
                                  l2684 07A6                                    l2676 076B  
                                  l2668 073E                                    l2596 069F  
                                  l2588 0695                                    l1798 03A4  
                                  l1990 0D52                                    l1982 0C94  
                                  l1974 0C8B                                    l1966 0CBC  
                                  l2686 07A7                                    l2678 0779  
                                  l2598 06A2                                    l1992 0D57  
                                  l1984 0C97                                    l1976 0C8E  
                                  l1968 0CBD                                    l2688 07A8  
                                  l1994 0D5E                                    l1986 0C51  
                                  l1978 0C91                                    l1996 0C5E  
                                  l1988 0D47                                    l1998 0C68  
                                  STR_1 08BB                                    STR_2 08F0  
                                  STR_3 090C                                    STR_4 091B  
                                  STR_5 0918                                    STR_6 08DF  
                                  STR_7 08A3                                    STR_8 0916  
                                  STR_9 0900                                    u2000 0E00  
                                  u2010 0E04                                    u2020 0E0A  
                                  u2021 0E09                                    u2110 0F27  
                                  u2030 0E0E                                    u2111 0F26  
                                  u2120 0EA5                                    u1400 03A3  
                                  u2121 0EA4                                    u2105 0F1B  
                                  u1401 03A2                                    u2050 0EEC  
                                  u1410 03C4                                    u2051 0EEB  
                                  u1411 03C3                                    u2140 0EB8  
                                  u1420 03D0                                    u2141 0EB7  
                                  u1421 03CF                                    u2150 0EC4  
                                  u2070 0EFF                                    u1430 03DA  
                                  u1510 0D57                                    u2151 0EC3  
                                  u2135 0EA9                                    u2071 0EFE  
                                  u1431 03D9                                    u1415 03C0  
                                  u1511 0D56                                    u1440 03FB  
                                  u1600 00F8                                    u1520 0C67  
                                  u2065 0EF0                                    u1441 03FA  
                                  u1601 00F7                                    u1521 0C66  
                                  u2170 0ED8                                    u2090 0F12  
                                  u1450 0407                                    u1370 0332  
                                  u1610 0117                                    u1530 0032  
                                  u2171 0ED7                                    u2155 0EC0  
                                  u2091 0F11                                    u1451 0406  
                                  u1371 0331                                    u1611 0116  
                                  u1531 0031                                    u1460 0419  
                                  u1380 0372                                    u1700 01E3  
                                  u1620 012E                                    u1540 0064  
                                  u2165 0ECC                                    u2085 0F02  
                                  u1461 0418                                    u1445 03F7  
                                  u1381 0371                                    u1701 01E2  
                                  u1621 012D                                    u1541 0063  
                                  u1470 04B5                                    u1390 0382  
                                  u1710 01EE                                    u1630 015E  
                                  u1550 006B                                    u2095 0F0E  
                                  u1471 04B4                                    u1391 0381  
                                  u1711 01ED                                    u1631 015D  
                                  u1551 006A                                    u1480 04D2  
                                  u1800 02A3                                    u1720 01F7  
                                  u1640 016E                                    u1560 008A  
                                  u1481 04D1                                    u1801 02A2  
                                  u1721 01F6                                    u1641 016D  
                                  u1561 0089                                    u1650 0177  
                                  u1570 00A2                                    u1651 0176  
                                  u1571 00A1                                    u2507 0737  
                                  u1900 0D91                                    u1820 02D2  
                                  u1580 00C1                                    u2460 075E  
                                  u1901 0D90                                    u1581 00C0  
                                  u2517 0CC3                                    u2461 075D  
                                  u1910 0D0E                                    u1830 02E7  
                                  u1750 0234                                    u1590 00D9  
                                  u2470 078F                                    u1911 0D0D  
                                  u1831 02E6                                    u1815 02C4  
                                  u1735 01FC                                    u1591 00D8  
                                  u2527 001D                                    u2471 078E  
                                  u2463 075A                                    u1920 0CEF  
                                  u1840 0F48                                    u1760 0249  
                                  u1680 01B2                                    u1921 0CEE  
                                  u1841 0F47                                    u2537 0316  
                                  u1825 02CD                                    u1761 0248  
                                  u1745 0225                                    u1665 017C  
                                  u2473 078B                                    u1850 0F78  
                                  u1770 0265                                    u1690 01C7  
                                  u2547 0F98                                    u1851 0F77  
                                  u1771 0264                                    u1755 022F  
                                  u1691 01C6                                    u1675 01A4  
                                  u1860 0FB2                                    u1780 026C  
                                  u1861 0FB1                                    u2557 0FA2  
                                  u1781 026B                                    u1685 01AD  
                                  u1870 0FCD                                    u1790 028B  
                                  u2567 0FF7                                    u1871 0FCC  
                                  u1791 028A                                    u2487 06C6  
                                  u1880 0FE5                                    u2577 0D29  
                                  u1881 0FE4                                    u2497 06D8  
                                  u1890 0C4D                                    u2587 0D3A  
                                  u1891 0C4C                                    _PEIE 005E  
                                  u1990 0D35                                    u1991 0D34  
                                  _RCIF 0065                                    _TXIF 0064  
                                  _flag 02D8                                    _main 0683  
                                  btemp 007E                                    start 0012  
                       __end_ofi1_putch 0C45                           _SPI_Write_Buf 0D69  
                       SPI_Read_Reg@reg 0037                           _SPI_Write_Reg 0C6F  
                         __CFG_MCLRE$ON 0000                                   ??_ISR 002E  
                         __CFG_PLLEN$ON 0000                                   ?_main 00A0  
                       __end_of_adcInit 0C5E                         __end_of_adcRead 0C6F  
                                 _ADRES 001E                                   STR_11 08CE  
                         __CFG_WDTE$OFF 0000                         __end_of___lwdiv 0F31  
                                 i1l110 0DDC                                   i1l111 0DDE  
                                 i1l140 0C44                                   i1l109 0DDE  
                                 i1l310 04ED                                   i1l303 0665  
                                 i1l311 051C                                   i1l320 0555  
                                 i1l312 04EE                                   i1l304 04DC  
                                 i1l137 0C3B                                   i1l321 0581  
                                 i1l313 04EE                                   i1l305 04E9  
                                 i1l138 0C3B                                   i1l330 05D7  
                                 i1l322 0576                                   i1l306 04F8  
                                 i1l314 04F0                                   i1l139 0C42  
                                 i1l331 0647                                   i1l323 05C3  
                                 i1l315 053D                                   i1l307 04EB  
                                 i1l308 0682                                   i1l332 05D8  
                                 i1l324 0582                                   i1l316 053C  
                                 i1l333 0650                                   i1l325 058C  
                                 i1l317 054A                                   i1l309 04EC  
                                 i1l334 060F                                   i1l318 05BA  
                                 i1l326 05B8                                   i1l335 0664  
                                 i1l327 05AD                                   i1l319 054B  
                                 i1l352 07F7                                   i1l336 0681  
                                 i1l328 05D0                                   i1l353 07C9  
                                 i1l329 0657                                   i1l337 0682  
                       __end_of___lwmod 0EE2                                   i1l354 07BD  
                                 i1l362 0E95                                   i1l355 07CE  
                                 i1l363 0E6F                                   i1l356 07CF  
                                 i1l364 0E63                                   i1l357 07E8  
                                 i1l365 0E74                                   i1l358 07F6  
                                 i1l366 0E75                                   i1l359 07FE  
                                 i1l367 0E86                                   i1l368 0E94  
                                 i1l369 0E9C                                   _RCREG 001A  
                                 _RCSTA 0018                                   _TMR1H 000F  
                                 _TMR1L 000E                                   _SPBRG 0099  
                                 _TXREG 0019                                   _TXSTA 0098  
                    i1___lwmod@dividend 007A                         __end_of_dpowers 088D  
                                 _putch 0C45                                   main@i 00C7  
                        __CFG_BOREN$OFF 0000                                   pclath 000A  
                       __end_of_spiInit 0CC9                          Send_Packet@len 0052  
                                 status 0003                                   wtemp0 007E  
                    __size_ofi1___lwdiv 004D                      __size_ofi1___lwmod 0043  
                      __end_ofi1_printf 0683                          ?_SPI_Write_Buf 0036  
                        ?_SPI_Write_Reg 0036                              i1printf@ap 0026  
                       __initialization 0C9B                            __end_of_main 07B2  
      __end_of_rfm70TxDataSentInterrupt 0D20                           ??_Send_Packet 0053  
                                ??_main 00A4                            adcRead@value 0034  
                                ?_putch 0070                                  i1l2500 052A  
                                i1l2510 0545                                  i1l2502 052E  
                                i1l2440 07B4                                  i1l2520 0576  
                                i1l2512 054D                                  i1l2504 0532  
                                i1l2434 0C3A                                  i1l2450 07CF  
                                i1l2442 07BA                                  i1l2530 05AC  
                                i1l2522 057A                                  i1l2514 0554  
                                i1l2506 0536                                  i1l2436 0C42  
                                i1l2452 07E0                                  i1l2444 07BD  
                                i1l2460 07F7                                  i1l2532 05AD  
                                i1l2524 0584                                  i1l2540 05C3  
                                i1l2516 0555                                  i1l2508 053D  
                                i1l2462 07FE                                  i1l2454 07E6  
                                i1l2446 07C4                                  i1l2438 07B2  
                                i1l2470 0E6A                                  i1l2550 0636  
                                i1l2542 05C9                                  i1l2534 05B1  
                                i1l2526 058B                                  i1l2518 0575  
                                i1l2456 07E8                                  i1l2448 07C9  
                                i1l2480 0E8D                                  i1l2472 0E6F  
                                i1l2464 0E5A                                  i1l2552 0646  
                                i1l2544 05D0                                  i1l2536 05B9  
                                i1l2528 058C                                  i1l2560 0665  
                                i1l2458 07EF                                  i1l2474 0E75  
                                i1l2466 0E60                                  i1l2482 0E95  
                                i1l2546 05D8                                  i1l2554 0647  
                                i1l2538 05BA                                  i1l2490 04E2  
                                i1l2570 0DC8                                  i1l2562 0DBD  
                                i1l2484 0E9C                                  i1l2476 0E7F  
                                i1l2468 0E63                                  i1l2548 060F  
                                i1l2556 0650                                  i1l2492 04F0  
                                i1l2572 0DCE                                  i1l2564 0DC1  
                                i1l2478 0E86                                  i1l2558 0657  
                                i1l2494 04F7                                  i1l2486 04D5  
                                i1l2574 0DD7                                  i1l2566 0DC5  
                                i1l2496 04F8                                  i1l2488 04DC  
                                i1l2576 0DDA                                  i1l2568 0DC7  
                                i1l2498 0522                                  i1l2578 0DDC  
                                u220_25 07BE                                  u221_20 07CD  
                                u221_21 07CC                                  u222_25 07D0  
                                u230_25 0E87                                  u223_20 07E0  
                                u231_20 0E93                                  u223_21 07DF  
                                u231_21 0E92                                  u223_25 07DC  
                                u240_20 05B7                                  u232_20 04E2  
                                u240_21 05B6                                  u232_21 04E1  
                                u224_25 07E9                                  u225_20 07F5  
                                u241_20 05C9                                  u233_20 0522  
                                u225_21 07F4                                  u241_21 05C8  
                                u233_21 0521                                  u218_20 0C41  
                                u226_20 0E60                                  u242_20 0663  
                                u234_20 0532                                  u218_21 0C40  
                                u226_21 0E5F                                  u242_21 0662  
                                u234_21 0531                                  u219_20 07BA  
                                u243_20 0680                                  u235_20 0553  
                                u219_21 07B9                                  u243_21 067F  
                                u235_21 0552                                  u227_25 0E64  
                                u228_20 0E73                                  u236_20 0574  
                                u244_20 0DC1                                  u228_21 0E72  
                                u236_21 0573                                  u244_21 0DC0  
                                u236_25 0570                                  u229_20 0E7F  
                                u237_20 0580                                  u245_20 0DCE  
                                u229_21 0E7E                                  u237_21 057F  
                                u245_21 0DCD                                  u229_25 0E7B  
                                u238_20 058A                                  u238_21 0589  
                                u239_20 05AB                                  u239_21 05AA  
                                u239_25 05A7                               ??i1_putch 0070  
                                _TMR1IE 0460                                  _TMR1IF 0060  
                                _SSPBUF 0013                                  _SPI_RW 0D20  
                        __CFG_PWRTE$OFF 0000                            SwitchCFG@Tmp 003B  
              RFM70_Initialize@WriteArr 0043                       RFM70_Initialize@i 004F  
                     RFM70_Initialize@j 0050                               ??_adcInit 0033  
                             ??_adcRead 0033                        SPI_Write_Buf@reg 0039  
                             ??___lwdiv 0037                               ??___lwmod 003F  
                        _SwitchToRxMode 0E1B                                  _printf 0325  
                      SPI_Write_Reg@reg 0037                                  _rx_buf 00CB  
                      _RFM70_Initialize 0015                          _SwitchToTxMode 0D93  
                     __end_of_Bank0_Reg 0878                                  _tx_buf 005A  
                                clrloop 0C32                       __end_ofi1___lwdiv 07FF  
                     __end_ofi1___lwmod 0E9D                        __end_of_uartInit 0C9B  
                                saved_w 007E                     __end_of_Send_Packet 1000  
                       Send_Packet@pbuf 0051                               ??_spiInit 0033  
                       Send_Packet@type 0056                                  putch@c 0033  
                   SwitchToRxMode@value 003A                      __size_of_SwitchCFG 0032  
               __end_of__initialization 0CAD                         ??_SPI_Write_Buf 0038  
                       ??_SPI_Write_Reg 0037                             i1printf@idx 0025  
                     SPI_Read_Reg@value 0038                          __pcstackCOMMON 0070  
 __end_of_rfm70TxDataSentErrorInterrupt 0D01  __size_of_rfm70TxDataSentErrorInterrupt 001F  
         _rfm70TxDataSentErrorInterrupt 0CE2                            __pidataBANK0 07FF  
                __end_of_SwitchToRxMode 0E5A                  __end_of_SwitchToTxMode 0DBD  
                         __end_of_putch 0C51                               ?i1_printf 0020  
                   SwitchToTxMode@value 003A                                 ??_putch 0033  
                            __pbssBANK0 0059                              __pbssBANK1 00CB  
     __size_of_rfm70TxDataSentInterrupt 001F               ?_rfm70TxDataSentInterrupt 0070  
                       __CFG_VCAPEN$RA0 0000                                 ?_SPI_RW 0070  
                            __pmaintext 0683                              __pintentry 0004  
                       ?_SwitchToRxMode 0070                         ?_SwitchToTxMode 0070  
                           _Send_Packet 0F31                       __end_of_SwitchCFG 0E1B  
                               ?_printf 0041                   _rfm70setPowerdownMode 0D44  
            rfm70setPowerdownMode@value 003A                              ??i1_printf 0022  
                            __stringtab 0800                                 i1_putch 0C39  
                       __size_of_SPI_RW 0024                           SwitchCFG@_cfg 003A  
                             ?_uartInit 0070                                 _adcInit 0C51  
                               _adcRead 0C5E                                 ___lwdiv 0EE2  
                               ___lwmod 0E9D                       SPI_Write_Buf@pBuf 0036  
        ?_rfm70TxDataSentErrorInterrupt 0070                         __size_of_printf 01B0  
                          __size_of_ISR 002C                       __end_of_hexpowers 0895  
                             _T1CONbits 0010                                 _dpowers 0883  
                     i1___lwdiv@divisor 0070                       i1___lwdiv@counter 0075  
                               _spiInit 0CB1                              _tmr1Target 005C  
                  end_of_initialization 0CAD                __end_of_RFM70_Initialize 0325  
                            ??_uartInit 0033                               _RCSTAbits 0018  
                               printf@c 0050                                 printf@f 0041  
                          __pstringtext 0800                               _PORTCbits 0007  
                             _PORTDbits 0008                  ?_rfm70setPowerdownMode 0070  
                      __CFG_FOSC$INTOSC 0000                               _Bank0_Reg 084A  
                             _TRISCbits 0087                               _TRISDbits 0088  
                             _TRISEbits 0089                               i1___lwdiv 07B2  
                             i1___lwmod 0E5A                   __end_of_Bank1_Reg0_13 084A  
                             _TXSTAbits 0098                            i1printf@_val 0029  
                          i1printf@flag 0028                          __end_of_SPI_RW 0D44  
                          Send_Packet@i 0058                            i1printf@prec 0027  
                         ?_SPI_Read_Reg 0070                             SPI_RW@value 0035  
                     i1___lwmod@divisor 0078                           __pbitbssBANK0 02D8  
                     i1___lwmod@counter 007D                          __end_of_printf 04D5  
                   start_initialization 0C9B                             __end_of_ISR 0DE9  
                             i1printf@c 002D                               i1printf@f 0020  
                            ?i1___lwdiv 0070                              ?i1___lwmod 0078  
                     __size_ofi1_printf 01AE                                ??_SPI_RW 0033  
                        ??_SPI_Read_Reg 0036                   __end_of_SPI_Write_Buf 0D93  
                 __end_of_SPI_Write_Reg 0C85                        ??_SwitchToRxMode 0039  
                      ??_SwitchToTxMode 0039                             __pdataBANK0 005C  
                          ?_Send_Packet 0051                                ??_printf 0045  
                             _SwitchCFG 0DE9                           __pcstackBANK0 0020  
                         __pcstackBANK1 00A0                     __end_of__stringdata 091E  
                              ?i1_putch 0070                        ___lwdiv@dividend 0035  
                              ?_adcInit 0070                                ?_adcRead 0070  
                             __ptext860 0015                               __ptext861 0F31  
                             __ptext870 0CC9                               __ptext862 0D93  
                             __ptext871 0C6F                               __ptext863 0325  
                             __ptext855 0CB1                               __ptext880 0000  
                             __ptext872 0D20                               __ptext864 0C45  
                             __ptext856 0C85                               __ptext873 0EE2  
                             __ptext865 0D69                               __ptext857 0C51  
                             __ptext874 0E9D                               __ptext866 0D01  
                             __ptext858 0D44                               __ptext875 0DBD  
                             __ptext867 0E1B                               __ptext859 0C5E  
                             __ptext876 04D5                               __ptext868 0CE2  
                             __ptext877 0E5A                               __ptext869 0DE9  
                             __ptext878 07B2                               __ptext879 0C39  
                   SPI_Write_Buf@length 0037                                ?___lwdiv 0033  
                     __size_of_uartInit 0016                                ?___lwmod 003B  
                            ?_SwitchCFG 0070                     Send_Packet@fifo_sta 0057  
                              ?_spiInit 0070                   SPI_Write_Buf@byte_ctr 003A  
              _rfm70TxDataSentInterrupt 0D01                               _hexpowers 088D  
                      ___lwdiv@quotient 0038                             ??i1___lwdiv 0074  
                           ??i1___lwmod 007C                          __size_of_putch 000C  
       ??_rfm70TxDataSentErrorInterrupt 0039                       interrupt_function 0004  
                     ?_RFM70_Initialize 0070                      ??_RFM70_Initialize 003C  
                              _PIR1bits 000C                 ??_rfm70setPowerdownMode 0039  
                            _ADCON0bits 001F                             __stringbase 0812  
                            _ADCON1bits 009F                             __stringdata 08A3  
                  __end_of_Bank0_RegAct 08A3                              printf@_val 004C  
                            printf@flag 004B                              printf@prec 004A  
                  __end_of_SPI_Read_Reg 0CE2                                i1_printf 04D5  
                              i1putch@c 0070                        __size_ofi1_putch 000C  
                      __size_of_adcInit 000D                        __size_of_adcRead 0011  
                   __end_of_RX0_Address 089A                        __size_of___lwdiv 004F  
                      __size_of___lwmod 0045                     __end_of_RX1_Address 089F  
                    __end_of__stringtab 0812                              _ANSELCbits 0187  
                            _ANSELDbits 0188                              _ANSELEbits 0189  
                  __size_of_Send_Packet 00CF                             ??_SwitchCFG 0039  
                       ___lwdiv@divisor 0033                         ___lwdiv@counter 003A  
                            _T1GCONbits 008F                        __size_of_spiInit 0018  
                    i1___lwdiv@dividend 0072                           __size_of_main 012F  
                              clear_ram 0C31                                _uartInit 0C85  
                    SPI_Write_Reg@value 0036                     __end_of_Bank1_Reg14 0883  
                           _tmr1Counter 0059                               printf@idx 0048  
                              main@argc 00A0                                main@argv 00A2  
                       main@temp_tx_buf 00A7                      i1___lwdiv@quotient 0076  
              rfm70setPowerdownMode@reg 003B                                intlevel1 0000  
                      ___lwmod@dividend 003D                               stringcode 080A  
                            _OSCCONbits 0090                             _RX0_Address 0895  
                           _RX1_Address 089A                                printf@ap 0049  
            ??_rfm70TxDataSentInterrupt 0039                   __size_of_SPI_Read_Reg 0019  
                       ___lwmod@divisor 003B                         ___lwmod@counter 0040  
                              stringtab 0800                  __size_of_SPI_Write_Buf 002A  
                __size_of_SPI_Write_Reg 0016                           _Bank1_Reg0_13 0812  
                          _Bank0_RegAct 089F                              _SSPCONbits 0014  
                           _Bank1_Reg14 0878                            _SPI_Read_Reg 0CC9  
