

Microchip Technology PIC LITE Macro Assembler V1.12 build 49521 
                                                                                               Tue May 14 15:02:16 2013

HI-TECH Software Omniscient Code Generator (Lite mode) build 49521
     1  0000                     opt subtitle "HI-TECH Software Omniscient Code Generator (Lite mode) build 49521"
     2                           opt subtitle "HI-TECH Software Omniscient Code Generator (Lite mode) build 49521"
     3                           
     4                           opt pagewidth 120
     5                           
     6                           	opt lm
     7                           
     8                           	processor	16LF707
     9                           clrc	macro
    10  0000                     	endm
    11                           opt subtitle "HI-TECH Software Omniscient Code Generator (Lite mode) build 49521"
    12                           
    13  0000                     	endm
    14                           opt subtitle "HI-TECH Software Omniscient Code Generator (Lite mode) build 49521"
    15                           
    16  0000                     	endm
    17                           opt subtitle "HI-TECH Software Omniscient Code Generator (Lite mode) build 49521"
    18                           
    19  0000                     	endm
    20                           opt subtitle "HI-TECH Software Omniscient Code Generator (Lite mode) build 49521"
    21                           
    22  0000                     	endm
    23                           opt subtitle "HI-TECH Software Omniscient Code Generator (Lite mode) build 49521"
    24                           
    25  0000                     	endm
    26                           opt subtitle "HI-TECH Software Omniscient Code Generator (Lite mode) build 49521"
    27                           
    28  0000                     	endm
    29                           opt subtitle "HI-TECH Software Omniscient Code Generator (Lite mode) build 49521"
    30                           
    31  0000                     	endm
    32  0000                     indf	equ	0
    33  0000                     indf0	equ	0
    34  0002                     pc	equ	2
    35  0002                     pcl	equ	2
    36  0003                     status	equ	3
    37  0004                     fsr	equ	4
    38  0004                     fsr0	equ	4
    39  0001                     c	equ	1
    40  0000                     z	equ	0
    41  000A                     pclath	equ	10
    42                           opt subtitle "HI-TECH Software Omniscient Code Generator (Lite mode) build 49521"
    43  0000                     INDF equ 00h ;# 
    44                           opt subtitle "HI-TECH Software Omniscient Code Generator (Lite mode) build 49521"
    45  0001                     TMR0 equ 01h ;# 
    46                           opt subtitle "HI-TECH Software Omniscient Code Generator (Lite mode) build 49521"
    47  0002                     PCL equ 02h ;# 
    48                           opt subtitle "HI-TECH Software Omniscient Code Generator (Lite mode) build 49521"
    49  0003                     STATUS equ 03h ;# 
    50                           opt subtitle "HI-TECH Software Omniscient Code Generator (Lite mode) build 49521"
    51  0004                     FSR equ 04h ;# 
    52                           opt subtitle "HI-TECH Software Omniscient Code Generator (Lite mode) build 49521"
    53  0005                     PORTA equ 05h ;# 
    54                           opt subtitle "HI-TECH Software Omniscient Code Generator (Lite mode) build 49521"
    55  0006                     PORTB equ 06h ;# 
    56                           opt subtitle "HI-TECH Software Omniscient Code Generator (Lite mode) build 49521"
    57  0007                     PORTC equ 07h ;# 
    58                           opt subtitle "HI-TECH Software Omniscient Code Generator (Lite mode) build 49521"
    59  0008                     PORTD equ 08h ;# 
    60                           opt subtitle "HI-TECH Software Omniscient Code Generator (Lite mode) build 49521"
    61  0009                     PORTE equ 09h ;# 
    62                           opt subtitle "HI-TECH Software Omniscient Code Generator (Lite mode) build 49521"
    63  000A                     PCLATH equ 0Ah ;# 
    64                           opt subtitle "HI-TECH Software Omniscient Code Generator (Lite mode) build 49521"
    65  000B                     INTCON equ 0Bh ;# 
    66                           opt subtitle "HI-TECH Software Omniscient Code Generator (Lite mode) build 49521"
    67  000C                     PIR1 equ 0Ch ;# 
    68                           opt subtitle "HI-TECH Software Omniscient Code Generator (Lite mode) build 49521"
    69  000D                     PIR2 equ 0Dh ;# 
    70                           opt subtitle "HI-TECH Software Omniscient Code Generator (Lite mode) build 49521"
    71  000E                     TMR1 equ 0Eh ;# 
    72                           opt subtitle "HI-TECH Software Omniscient Code Generator (Lite mode) build 49521"
    73  000E                     TMR1L equ 0Eh ;# 
    74                           opt subtitle "HI-TECH Software Omniscient Code Generator (Lite mode) build 49521"
    75  000F                     TMR1H equ 0Fh ;# 
    76                           opt subtitle "HI-TECH Software Omniscient Code Generator (Lite mode) build 49521"
    77  0010                     T1CON equ 010h ;# 
    78                           opt subtitle "HI-TECH Software Omniscient Code Generator (Lite mode) build 49521"
    79  0011                     TMR2 equ 011h ;# 
    80                           opt subtitle "HI-TECH Software Omniscient Code Generator (Lite mode) build 49521"
    81  0012                     T2CON equ 012h ;# 
    82                           opt subtitle "HI-TECH Software Omniscient Code Generator (Lite mode) build 49521"
    83  0013                     SSPBUF equ 013h ;# 
    84                           opt subtitle "HI-TECH Software Omniscient Code Generator (Lite mode) build 49521"
    85  0014                     SSPCON equ 014h ;# 
    86                           opt subtitle "HI-TECH Software Omniscient Code Generator (Lite mode) build 49521"
    87  0015                     CCPR1 equ 015h ;# 
    88                           opt subtitle "HI-TECH Software Omniscient Code Generator (Lite mode) build 49521"
    89  0015                     CCPR1L equ 015h ;# 
    90                           opt subtitle "HI-TECH Software Omniscient Code Generator (Lite mode) build 49521"
    91  0016                     CCPR1H equ 016h ;# 
    92                           opt subtitle "HI-TECH Software Omniscient Code Generator (Lite mode) build 49521"
    93  0017                     CCP1CON equ 017h ;# 
    94                           opt subtitle "HI-TECH Software Omniscient Code Generator (Lite mode) build 49521"
    95  0018                     RCSTA equ 018h ;# 
    96                           opt subtitle "HI-TECH Software Omniscient Code Generator (Lite mode) build 49521"
    97  0019                     TXREG equ 019h ;# 
    98                           opt subtitle "HI-TECH Software Omniscient Code Generator (Lite mode) build 49521"
    99  001A                     RCREG equ 01Ah ;# 
   100                           opt subtitle "HI-TECH Software Omniscient Code Generator (Lite mode) build 49521"
   101  001B                     CCPR2 equ 01Bh ;# 
   102                           opt subtitle "HI-TECH Software Omniscient Code Generator (Lite mode) build 49521"
   103  001B                     CCPR2L equ 01Bh ;# 
   104                           opt subtitle "HI-TECH Software Omniscient Code Generator (Lite mode) build 49521"
   105  001C                     CCPR2H equ 01Ch ;# 
   106                           opt subtitle "HI-TECH Software Omniscient Code Generator (Lite mode) build 49521"
   107  001D                     CCP2CON equ 01Dh ;# 
   108                           opt subtitle "HI-TECH Software Omniscient Code Generator (Lite mode) build 49521"
   109  001E                     ADRES equ 01Eh ;# 
   110                           opt subtitle "HI-TECH Software Omniscient Code Generator (Lite mode) build 49521"
   111  001F                     ADCON0 equ 01Fh ;# 
   112                           opt subtitle "HI-TECH Software Omniscient Code Generator (Lite mode) build 49521"
   113  0081                     OPTION_REG equ 081h ;# 
   114                           opt subtitle "HI-TECH Software Omniscient Code Generator (Lite mode) build 49521"
   115  0085                     TRISA equ 085h ;# 
   116                           opt subtitle "HI-TECH Software Omniscient Code Generator (Lite mode) build 49521"
   117  0086                     TRISB equ 086h ;# 
   118                           opt subtitle "HI-TECH Software Omniscient Code Generator (Lite mode) build 49521"
   119  0087                     TRISC equ 087h ;# 
   120                           opt subtitle "HI-TECH Software Omniscient Code Generator (Lite mode) build 49521"
   121  0088                     TRISD equ 088h ;# 
   122                           opt subtitle "HI-TECH Software Omniscient Code Generator (Lite mode) build 49521"
   123  0089                     TRISE equ 089h ;# 
   124                           opt subtitle "HI-TECH Software Omniscient Code Generator (Lite mode) build 49521"
   125  008C                     PIE1 equ 08Ch ;# 
   126                           opt subtitle "HI-TECH Software Omniscient Code Generator (Lite mode) build 49521"
   127  008D                     PIE2 equ 08Dh ;# 
   128                           opt subtitle "HI-TECH Software Omniscient Code Generator (Lite mode) build 49521"
   129  008E                     PCON equ 08Eh ;# 
   130                           opt subtitle "HI-TECH Software Omniscient Code Generator (Lite mode) build 49521"
   131  008F                     T1GCON equ 08Fh ;# 
   132                           opt subtitle "HI-TECH Software Omniscient Code Generator (Lite mode) build 49521"
   133  0090                     OSCCON equ 090h ;# 
   134                           opt subtitle "HI-TECH Software Omniscient Code Generator (Lite mode) build 49521"
   135  0091                     OSCTUNE equ 091h ;# 
   136                           opt subtitle "HI-TECH Software Omniscient Code Generator (Lite mode) build 49521"
   137  0092                     PR2 equ 092h ;# 
   138                           opt subtitle "HI-TECH Software Omniscient Code Generator (Lite mode) build 49521"
   139  0093                     SSPADD equ 093h ;# 
   140                           opt subtitle "HI-TECH Software Omniscient Code Generator (Lite mode) build 49521"
   141  0093                     SSPMSK equ 093h ;# 
   142                           opt subtitle "HI-TECH Software Omniscient Code Generator (Lite mode) build 49521"
   143  0094                     SSPSTAT equ 094h ;# 
   144                           opt subtitle "HI-TECH Software Omniscient Code Generator (Lite mode) build 49521"
   145  0095                     WPUB equ 095h ;# 
   146                           opt subtitle "HI-TECH Software Omniscient Code Generator (Lite mode) build 49521"
   147  0096                     IOCB equ 096h ;# 
   148                           opt subtitle "HI-TECH Software Omniscient Code Generator (Lite mode) build 49521"
   149  0097                     T3CON equ 097h ;# 
   150                           opt subtitle "HI-TECH Software Omniscient Code Generator (Lite mode) build 49521"
   151  0098                     TXSTA equ 098h ;# 
   152                           opt subtitle "HI-TECH Software Omniscient Code Generator (Lite mode) build 49521"
   153  0099                     SPBRG equ 099h ;# 
   154                           opt subtitle "HI-TECH Software Omniscient Code Generator (Lite mode) build 49521"
   155  009A                     TMR3 equ 09Ah ;# 
   156                           opt subtitle "HI-TECH Software Omniscient Code Generator (Lite mode) build 49521"
   157  009A                     TMR3L equ 09Ah ;# 
   158                           opt subtitle "HI-TECH Software Omniscient Code Generator (Lite mode) build 49521"
   159  009B                     TMR3H equ 09Bh ;# 
   160                           opt subtitle "HI-TECH Software Omniscient Code Generator (Lite mode) build 49521"
   161  009C                     APFCON equ 09Ch ;# 
   162                           opt subtitle "HI-TECH Software Omniscient Code Generator (Lite mode) build 49521"
   163  009D                     FVRCON equ 09Dh ;# 
   164                           opt subtitle "HI-TECH Software Omniscient Code Generator (Lite mode) build 49521"
   165  009E                     T3GCON equ 09Eh ;# 
   166                           opt subtitle "HI-TECH Software Omniscient Code Generator (Lite mode) build 49521"
   167  009F                     ADCON1 equ 09Fh ;# 
   168                           opt subtitle "HI-TECH Software Omniscient Code Generator (Lite mode) build 49521"
   169  0105                     TACON equ 0105h ;# 
   170                           opt subtitle "HI-TECH Software Omniscient Code Generator (Lite mode) build 49521"
   171  0106                     CPSBCON0 equ 0106h ;# 
   172                           opt subtitle "HI-TECH Software Omniscient Code Generator (Lite mode) build 49521"
   173  0107                     CPSBCON1 equ 0107h ;# 
   174                           opt subtitle "HI-TECH Software Omniscient Code Generator (Lite mode) build 49521"
   175  0108                     CPSACON0 equ 0108h ;# 
   176                           opt subtitle "HI-TECH Software Omniscient Code Generator (Lite mode) build 49521"
   177  0109                     CPSACON1 equ 0109h ;# 
   178                           opt subtitle "HI-TECH Software Omniscient Code Generator (Lite mode) build 49521"
   179  010C                     PMDATL equ 010Ch ;# 
   180                           opt subtitle "HI-TECH Software Omniscient Code Generator (Lite mode) build 49521"
   181  010D                     PMADRL equ 010Dh ;# 
   182                           opt subtitle "HI-TECH Software Omniscient Code Generator (Lite mode) build 49521"
   183  010E                     PMDATH equ 010Eh ;# 
   184                           opt subtitle "HI-TECH Software Omniscient Code Generator (Lite mode) build 49521"
   185  010F                     PMADRH equ 010Fh ;# 
   186                           opt subtitle "HI-TECH Software Omniscient Code Generator (Lite mode) build 49521"
   187  0110                     TMRA equ 0110h ;# 
   188                           opt subtitle "HI-TECH Software Omniscient Code Generator (Lite mode) build 49521"
   189  0111                     TBCON equ 0111h ;# 
   190                           opt subtitle "HI-TECH Software Omniscient Code Generator (Lite mode) build 49521"
   191  0112                     TMRB equ 0112h ;# 
   192                           opt subtitle "HI-TECH Software Omniscient Code Generator (Lite mode) build 49521"
   193  0113                     DACCON0 equ 0113h ;# 
   194                           opt subtitle "HI-TECH Software Omniscient Code Generator (Lite mode) build 49521"
   195  0114                     DACCON1 equ 0114h ;# 
   196                           opt subtitle "HI-TECH Software Omniscient Code Generator (Lite mode) build 49521"
   197  0185                     ANSELA equ 0185h ;# 
   198                           opt subtitle "HI-TECH Software Omniscient Code Generator (Lite mode) build 49521"
   199  0186                     ANSELB equ 0186h ;# 
   200                           opt subtitle "HI-TECH Software Omniscient Code Generator (Lite mode) build 49521"
   201  0187                     ANSELC equ 0187h ;# 
   202                           opt subtitle "HI-TECH Software Omniscient Code Generator (Lite mode) build 49521"
   203  0188                     ANSELD equ 0188h ;# 
   204                           opt subtitle "HI-TECH Software Omniscient Code Generator (Lite mode) build 49521"
   205  0189                     ANSELE equ 0189h ;# 
   206                           opt subtitle "HI-TECH Software Omniscient Code Generator (Lite mode) build 49521"
   207  018C                     PMCON1 equ 018Ch ;# 
   208                           opt subtitle "HI-TECH Software Omniscient Code Generator (Lite mode) build 49521"
   209  0000                     INDF equ 00h ;# 
   210                           opt subtitle "HI-TECH Software Omniscient Code Generator (Lite mode) build 49521"
   211  0001                     TMR0 equ 01h ;# 
   212                           opt subtitle "HI-TECH Software Omniscient Code Generator (Lite mode) build 49521"
   213  0002                     PCL equ 02h ;# 
   214                           opt subtitle "HI-TECH Software Omniscient Code Generator (Lite mode) build 49521"
   215  0003                     STATUS equ 03h ;# 
   216                           opt subtitle "HI-TECH Software Omniscient Code Generator (Lite mode) build 49521"
   217  0004                     FSR equ 04h ;# 
   218                           opt subtitle "HI-TECH Software Omniscient Code Generator (Lite mode) build 49521"
   219  0005                     PORTA equ 05h ;# 
   220                           opt subtitle "HI-TECH Software Omniscient Code Generator (Lite mode) build 49521"
   221  0006                     PORTB equ 06h ;# 
   222                           opt subtitle "HI-TECH Software Omniscient Code Generator (Lite mode) build 49521"
   223  0007                     PORTC equ 07h ;# 
   224                           opt subtitle "HI-TECH Software Omniscient Code Generator (Lite mode) build 49521"
   225  0008                     PORTD equ 08h ;# 
   226                           opt subtitle "HI-TECH Software Omniscient Code Generator (Lite mode) build 49521"
   227  0009                     PORTE equ 09h ;# 
   228                           opt subtitle "HI-TECH Software Omniscient Code Generator (Lite mode) build 49521"
   229  000A                     PCLATH equ 0Ah ;# 
   230                           opt subtitle "HI-TECH Software Omniscient Code Generator (Lite mode) build 49521"
   231  000B                     INTCON equ 0Bh ;# 
   232                           opt subtitle "HI-TECH Software Omniscient Code Generator (Lite mode) build 49521"
   233  000C                     PIR1 equ 0Ch ;# 
   234                           opt subtitle "HI-TECH Software Omniscient Code Generator (Lite mode) build 49521"
   235  000D                     PIR2 equ 0Dh ;# 
   236                           opt subtitle "HI-TECH Software Omniscient Code Generator (Lite mode) build 49521"
   237  000E                     TMR1 equ 0Eh ;# 
   238                           opt subtitle "HI-TECH Software Omniscient Code Generator (Lite mode) build 49521"
   239  000E                     TMR1L equ 0Eh ;# 
   240                           opt subtitle "HI-TECH Software Omniscient Code Generator (Lite mode) build 49521"
   241  000F                     TMR1H equ 0Fh ;# 
   242                           opt subtitle "HI-TECH Software Omniscient Code Generator (Lite mode) build 49521"
   243  0010                     T1CON equ 010h ;# 
   244                           opt subtitle "HI-TECH Software Omniscient Code Generator (Lite mode) build 49521"
   245  0011                     TMR2 equ 011h ;# 
   246                           opt subtitle "HI-TECH Software Omniscient Code Generator (Lite mode) build 49521"
   247  0012                     T2CON equ 012h ;# 
   248                           opt subtitle "HI-TECH Software Omniscient Code Generator (Lite mode) build 49521"
   249  0013                     SSPBUF equ 013h ;# 
   250                           opt subtitle "HI-TECH Software Omniscient Code Generator (Lite mode) build 49521"
   251  0014                     SSPCON equ 014h ;# 
   252                           opt subtitle "HI-TECH Software Omniscient Code Generator (Lite mode) build 49521"
   253  0015                     CCPR1 equ 015h ;# 
   254                           opt subtitle "HI-TECH Software Omniscient Code Generator (Lite mode) build 49521"
   255  0015                     CCPR1L equ 015h ;# 
   256                           opt subtitle "HI-TECH Software Omniscient Code Generator (Lite mode) build 49521"
   257  0016                     CCPR1H equ 016h ;# 
   258                           opt subtitle "HI-TECH Software Omniscient Code Generator (Lite mode) build 49521"
   259  0017                     CCP1CON equ 017h ;# 
   260                           opt subtitle "HI-TECH Software Omniscient Code Generator (Lite mode) build 49521"
   261  0018                     RCSTA equ 018h ;# 
   262                           opt subtitle "HI-TECH Software Omniscient Code Generator (Lite mode) build 49521"
   263  0019                     TXREG equ 019h ;# 
   264                           opt subtitle "HI-TECH Software Omniscient Code Generator (Lite mode) build 49521"
   265  001A                     RCREG equ 01Ah ;# 
   266                           opt subtitle "HI-TECH Software Omniscient Code Generator (Lite mode) build 49521"
   267  001B                     CCPR2 equ 01Bh ;# 
   268                           opt subtitle "HI-TECH Software Omniscient Code Generator (Lite mode) build 49521"
   269  001B                     CCPR2L equ 01Bh ;# 
   270                           opt subtitle "HI-TECH Software Omniscient Code Generator (Lite mode) build 49521"
   271  001C                     CCPR2H equ 01Ch ;# 
   272                           opt subtitle "HI-TECH Software Omniscient Code Generator (Lite mode) build 49521"
   273  001D                     CCP2CON equ 01Dh ;# 
   274                           opt subtitle "HI-TECH Software Omniscient Code Generator (Lite mode) build 49521"
   275  001E                     ADRES equ 01Eh ;# 
   276                           opt subtitle "HI-TECH Software Omniscient Code Generator (Lite mode) build 49521"
   277  001F                     ADCON0 equ 01Fh ;# 
   278                           opt subtitle "HI-TECH Software Omniscient Code Generator (Lite mode) build 49521"
   279  0081                     OPTION_REG equ 081h ;# 
   280                           opt subtitle "HI-TECH Software Omniscient Code Generator (Lite mode) build 49521"
   281  0085                     TRISA equ 085h ;# 
   282                           opt subtitle "HI-TECH Software Omniscient Code Generator (Lite mode) build 49521"
   283  0086                     TRISB equ 086h ;# 
   284                           opt subtitle "HI-TECH Software Omniscient Code Generator (Lite mode) build 49521"
   285  0087                     TRISC equ 087h ;# 
   286                           opt subtitle "HI-TECH Software Omniscient Code Generator (Lite mode) build 49521"
   287  0088                     TRISD equ 088h ;# 
   288                           opt subtitle "HI-TECH Software Omniscient Code Generator (Lite mode) build 49521"
   289  0089                     TRISE equ 089h ;# 
   290                           opt subtitle "HI-TECH Software Omniscient Code Generator (Lite mode) build 49521"
   291  008C                     PIE1 equ 08Ch ;# 
   292                           opt subtitle "HI-TECH Software Omniscient Code Generator (Lite mode) build 49521"
   293  008D                     PIE2 equ 08Dh ;# 
   294                           opt subtitle "HI-TECH Software Omniscient Code Generator (Lite mode) build 49521"
   295  008E                     PCON equ 08Eh ;# 
   296                           opt subtitle "HI-TECH Software Omniscient Code Generator (Lite mode) build 49521"
   297  008F                     T1GCON equ 08Fh ;# 
   298                           opt subtitle "HI-TECH Software Omniscient Code Generator (Lite mode) build 49521"
   299  0090                     OSCCON equ 090h ;# 
   300                           opt subtitle "HI-TECH Software Omniscient Code Generator (Lite mode) build 49521"
   301  0091                     OSCTUNE equ 091h ;# 
   302                           opt subtitle "HI-TECH Software Omniscient Code Generator (Lite mode) build 49521"
   303  0092                     PR2 equ 092h ;# 
   304                           opt subtitle "HI-TECH Software Omniscient Code Generator (Lite mode) build 49521"
   305  0093                     SSPADD equ 093h ;# 
   306                           opt subtitle "HI-TECH Software Omniscient Code Generator (Lite mode) build 49521"
   307  0093                     SSPMSK equ 093h ;# 
   308                           opt subtitle "HI-TECH Software Omniscient Code Generator (Lite mode) build 49521"
   309  0094                     SSPSTAT equ 094h ;# 
   310                           opt subtitle "HI-TECH Software Omniscient Code Generator (Lite mode) build 49521"
   311  0095                     WPUB equ 095h ;# 
   312                           opt subtitle "HI-TECH Software Omniscient Code Generator (Lite mode) build 49521"
   313  0096                     IOCB equ 096h ;# 
   314                           opt subtitle "HI-TECH Software Omniscient Code Generator (Lite mode) build 49521"
   315  0097                     T3CON equ 097h ;# 
   316                           opt subtitle "HI-TECH Software Omniscient Code Generator (Lite mode) build 49521"
   317  0098                     TXSTA equ 098h ;# 
   318                           opt subtitle "HI-TECH Software Omniscient Code Generator (Lite mode) build 49521"
   319  0099                     SPBRG equ 099h ;# 
   320                           opt subtitle "HI-TECH Software Omniscient Code Generator (Lite mode) build 49521"
   321  009A                     TMR3 equ 09Ah ;# 
   322                           opt subtitle "HI-TECH Software Omniscient Code Generator (Lite mode) build 49521"
   323  009A                     TMR3L equ 09Ah ;# 
   324                           opt subtitle "HI-TECH Software Omniscient Code Generator (Lite mode) build 49521"
   325  009B                     TMR3H equ 09Bh ;# 
   326                           opt subtitle "HI-TECH Software Omniscient Code Generator (Lite mode) build 49521"
   327  009C                     APFCON equ 09Ch ;# 
   328                           opt subtitle "HI-TECH Software Omniscient Code Generator (Lite mode) build 49521"
   329  009D                     FVRCON equ 09Dh ;# 
   330                           opt subtitle "HI-TECH Software Omniscient Code Generator (Lite mode) build 49521"
   331  009E                     T3GCON equ 09Eh ;# 
   332                           opt subtitle "HI-TECH Software Omniscient Code Generator (Lite mode) build 49521"
   333  009F                     ADCON1 equ 09Fh ;# 
   334                           opt subtitle "HI-TECH Software Omniscient Code Generator (Lite mode) build 49521"
   335  0105                     TACON equ 0105h ;# 
   336                           opt subtitle "HI-TECH Software Omniscient Code Generator (Lite mode) build 49521"
   337  0106                     CPSBCON0 equ 0106h ;# 
   338                           opt subtitle "HI-TECH Software Omniscient Code Generator (Lite mode) build 49521"
   339  0107                     CPSBCON1 equ 0107h ;# 
   340                           opt subtitle "HI-TECH Software Omniscient Code Generator (Lite mode) build 49521"
   341  0108                     CPSACON0 equ 0108h ;# 
   342                           opt subtitle "HI-TECH Software Omniscient Code Generator (Lite mode) build 49521"
   343  0109                     CPSACON1 equ 0109h ;# 
   344                           opt subtitle "HI-TECH Software Omniscient Code Generator (Lite mode) build 49521"
   345  010C                     PMDATL equ 010Ch ;# 
   346                           opt subtitle "HI-TECH Software Omniscient Code Generator (Lite mode) build 49521"
   347  010D                     PMADRL equ 010Dh ;# 
   348                           opt subtitle "HI-TECH Software Omniscient Code Generator (Lite mode) build 49521"
   349  010E                     PMDATH equ 010Eh ;# 
   350                           opt subtitle "HI-TECH Software Omniscient Code Generator (Lite mode) build 49521"
   351  010F                     PMADRH equ 010Fh ;# 
   352                           opt subtitle "HI-TECH Software Omniscient Code Generator (Lite mode) build 49521"
   353  0110                     TMRA equ 0110h ;# 
   354                           opt subtitle "HI-TECH Software Omniscient Code Generator (Lite mode) build 49521"
   355  0111                     TBCON equ 0111h ;# 
   356                           opt subtitle "HI-TECH Software Omniscient Code Generator (Lite mode) build 49521"
   357  0112                     TMRB equ 0112h ;# 
   358                           opt subtitle "HI-TECH Software Omniscient Code Generator (Lite mode) build 49521"
   359  0113                     DACCON0 equ 0113h ;# 
   360                           opt subtitle "HI-TECH Software Omniscient Code Generator (Lite mode) build 49521"
   361  0114                     DACCON1 equ 0114h ;# 
   362                           opt subtitle "HI-TECH Software Omniscient Code Generator (Lite mode) build 49521"
   363  0185                     ANSELA equ 0185h ;# 
   364                           opt subtitle "HI-TECH Software Omniscient Code Generator (Lite mode) build 49521"
   365  0186                     ANSELB equ 0186h ;# 
   366                           opt subtitle "HI-TECH Software Omniscient Code Generator (Lite mode) build 49521"
   367  0187                     ANSELC equ 0187h ;# 
   368                           opt subtitle "HI-TECH Software Omniscient Code Generator (Lite mode) build 49521"
   369  0188                     ANSELD equ 0188h ;# 
   370                           opt subtitle "HI-TECH Software Omniscient Code Generator (Lite mode) build 49521"
   371  0189                     ANSELE equ 0189h ;# 
   372                           opt subtitle "HI-TECH Software Omniscient Code Generator (Lite mode) build 49521"
   373  018C                     PMCON1 equ 018Ch ;# 
   374                           opt subtitle "HI-TECH Software Omniscient Code Generator (Lite mode) build 49521"
   375                           
   376                           opt pagewidth 120
   377                           
   378                           	opt lm
   379                           
   380                           	processor	16LF707
   381                           clrc	macro
   382                           	bcf	3,0
   383                           	endm
   384                           clrz	macro
   385                           	bcf	3,2
   386                           	endm
   387                           setc	macro
   388                           	bsf	3,0
   389                           	endm
   390                           setz	macro
   391                           	bsf	3,2
   392                           	endm
   393                           skipc	macro
   394                           	btfss	3,0
   395                           	endm
   396                           skipz	macro
   397                           	btfss	3,2
   398                           	endm
   399                           skipnc	macro
   400                           	btfsc	3,0
   401                           	endm
   402                           skipnz	macro
   403                           	btfsc	3,2
   404                           	endm
   405                           indf	equ	0
   406                           indf0	equ	0
   407                           pc	equ	2
   408                           pcl	equ	2
   409                           status	equ	3
   410                           fsr	equ	4
   411                           fsr0	equ	4
   412                           c	equ	1
   413                           z	equ	0
   414                           pclath	equ	10
   415                           # 46 "/Applications/microchip/xc8/v1.12/include/pic16lf707.h"
   416                           INDF equ 00h ;# 
   417                           # 52 "/Applications/microchip/xc8/v1.12/include/pic16lf707.h"
   418                           TMR0 equ 01h ;# 
   419                           # 58 "/Applications/microchip/xc8/v1.12/include/pic16lf707.h"
   420                           PCL equ 02h ;# 
   421                           # 64 "/Applications/microchip/xc8/v1.12/include/pic16lf707.h"
   422                           STATUS equ 03h ;# 
   423                           # 151 "/Applications/microchip/xc8/v1.12/include/pic16lf707.h"
   424                           FSR equ 04h ;# 
   425                           # 157 "/Applications/microchip/xc8/v1.12/include/pic16lf707.h"
   426                           PORTA equ 05h ;# 
   427                           # 346 "/Applications/microchip/xc8/v1.12/include/pic16lf707.h"
   428                           PORTB equ 06h ;# 
   429                           # 520 "/Applications/microchip/xc8/v1.12/include/pic16lf707.h"
   430                           PORTC equ 07h ;# 
   431                           # 715 "/Applications/microchip/xc8/v1.12/include/pic16lf707.h"
   432                           PORTD equ 08h ;# 
   433                           # 834 "/Applications/microchip/xc8/v1.12/include/pic16lf707.h"
   434                           PORTE equ 09h ;# 
   435  07FC                     __pidataBANK0:
   436                           opt subtitle "HI-TECH Software Omniscient Code Generator (Lite mode) build 49521"
   437                           
   438                           opt pagewidth 120
   439                           
   440  07FC  341A               	retlw	01Ah
   441  07FD  3400               	retlw	0
   442                           opt subtitle "HI-TECH Software Omniscient Code Generator (Lite mode) build 49521"
   443                           
   444                           opt pagewidth 120
   445                           
   446  07FE  3401               	retlw	01h
   447                           opt subtitle "HI-TECH Software Omniscient Code Generator (Lite mode) build 49521"
   448                           
   449  1486                     __pidataBANK1:
   450                           opt subtitle "HI-TECH Software Omniscient Code Generator (Lite mode) build 49521"
   451                           
   452                           opt pagewidth 120
   453  1486  3400               	retlw	0x0
   454  1487  3420               	retlw	0x20
   455  1488  3441               	retlw	0x41
   456                           opt subtitle "HI-TECH Software Omniscient Code Generator (Lite mode) build 49521"
   457                           
   458                           opt pagewidth 120
   459                           
   460  1489  3400               	retlw	0
   461  148A  3400               	retlw	0
   462  148B  3400               	retlw	0
   463  148C  3400               	retlw	0
   464  148D  3400               	retlw	0
   465  148E  34AA               	retlw	0AAh
   466  148F  34AA               	retlw	0AAh
   467  1490  34AA               	retlw	0AAh
   468                           opt subtitle "HI-TECH Software Omniscient Code Generator (Lite mode) build 49521"
   469                           
   470                           opt pagewidth 120
   471  1000                     __pstringtext:
   472                           opt subtitle "HI-TECH Software Omniscient Code Generator (Lite mode) build 49521"
   473  1000                     stringtab:
   474                           opt subtitle "HI-TECH Software Omniscient Code Generator (Lite mode) build 49521"
   475  1000                     __stringtab:
   476                           opt subtitle "HI-TECH Software Omniscient Code Generator (Lite mode) build 49521"
   477  1000  1BFF               	btfsc	(btemp+1),7
   478  1001  280A               	ljmp	stringcode
   479  1002  1383               	bcf	status,7
   480  1003  187F               	btfsc	(btemp+1),0
   481  1004  1783               	bsf	status,7
   482  1005  0800               	movf	indf,w
   483  1006  0A84               	incf fsr
   484  1007  1903               skipnz
   485  1008  0AFF               incf btemp+1
   486  1009  0008               	return
   487  100A                     stringcode:
   488  100A  087F               	movf btemp+1,w
   489  100B  397F               andlw 7Fh
   490  100C  008A               movwf	pclath
   491  100D  0804               	movf	fsr,w
   492  100E  0A84               incf fsr
   493  100F  1903               skipnz
   494  1010  0AFF               incf btemp+1
   495  1011  0082               	movwf pc
   496  1012                     __stringbase:
   497                           opt subtitle "HI-TECH Software Omniscient Code Generator (Lite mode) build 49521"
   498  1012                     __end_of__stringtab:
   499                           opt subtitle "HI-TECH Software Omniscient Code Generator (Lite mode) build 49521"
   500                           
   501  1012                     _Bank1_Reg0_13:
   502  1012  3440               	retlw	040h
   503  1013  344B               	retlw	04Bh
   504  1014  3401               	retlw	01h
   505  1015  34E2               	retlw	0E2h
   506                           opt subtitle "HI-TECH Software Omniscient Code Generator (Lite mode) build 49521"
   507  1016  34C0               	retlw	0C0h
   508  1017  344B               	retlw	04Bh
   509  1018  3400               	retlw	0
   510  1019  3400               	retlw	0
   511                           opt subtitle "HI-TECH Software Omniscient Code Generator (Lite mode) build 49521"
   512  101A  34D0               	retlw	0D0h
   513  101B  34FC               	retlw	0FCh
   514  101C  348C               	retlw	08Ch
   515  101D  3402               	retlw	02h
   516                           opt subtitle "HI-TECH Software Omniscient Code Generator (Lite mode) build 49521"
   517  101E  3499               	retlw	099h
   518  101F  3400               	retlw	0
   519  1020  3439               	retlw	039h
   520  1021  3441               	retlw	041h
   521                           opt subtitle "HI-TECH Software Omniscient Code Generator (Lite mode) build 49521"
   522  1022  34F9               	retlw	0F9h
   523  1023  349E               	retlw	09Eh
   524  1024  3486               	retlw	086h
   525  1025  340B               	retlw	0Bh
   526                           opt subtitle "HI-TECH Software Omniscient Code Generator (Lite mode) build 49521"
   527  1026  3424               	retlw	024h
   528  1027  3406               	retlw	06h
   529  1028  347F               	retlw	07Fh
   530  1029  34A6               	retlw	0A6h
   531                           opt subtitle "HI-TECH Software Omniscient Code Generator (Lite mode) build 49521"
   532  102A  3400               	retlw	0
   533  102B  3400               	retlw	0
   534  102C  3400               	retlw	0
   535  102D  3400               	retlw	0
   536                           opt subtitle "HI-TECH Software Omniscient Code Generator (Lite mode) build 49521"
   537  102E  3400               	retlw	0
   538  102F  3400               	retlw	0
   539  1030  3400               	retlw	0
   540  1031  3400               	retlw	0
   541                           opt subtitle "HI-TECH Software Omniscient Code Generator (Lite mode) build 49521"
   542  1032  3400               	retlw	0
   543  1033  3400               	retlw	0
   544  1034  3400               	retlw	0
   545  1035  3400               	retlw	0
   546                           opt subtitle "HI-TECH Software Omniscient Code Generator (Lite mode) build 49521"
   547  1036  3400               	retlw	0
   548  1037  3400               	retlw	0
   549  1038  3400               	retlw	0
   550  1039  3400               	retlw	0
   551                           opt subtitle "HI-TECH Software Omniscient Code Generator (Lite mode) build 49521"
   552  103A  3400               	retlw	0
   553  103B  3400               	retlw	0
   554  103C  3400               	retlw	0
   555  103D  3400               	retlw	0
   556                           opt subtitle "HI-TECH Software Omniscient Code Generator (Lite mode) build 49521"
   557  103E  3400               	retlw	0
   558  103F  3400               	retlw	0
   559  1040  3400               	retlw	0
   560  1041  3400               	retlw	0
   561                           opt subtitle "HI-TECH Software Omniscient Code Generator (Lite mode) build 49521"
   562  1042  3400               	retlw	0
   563  1043  3473               	retlw	073h
   564  1044  3412               	retlw	012h
   565  1045  3400               	retlw	0
   566                           opt subtitle "HI-TECH Software Omniscient Code Generator (Lite mode) build 49521"
   567  1046  3400               	retlw	0
   568  1047  3480               	retlw	080h
   569  1048  34B4               	retlw	0B4h
   570  1049  3436               	retlw	036h
   571                           opt subtitle "HI-TECH Software Omniscient Code Generator (Lite mode) build 49521"
   572                           
   573  104A                     __end_of_Bank1_Reg0_13:
   574                           opt subtitle "HI-TECH Software Omniscient Code Generator (Lite mode) build 49521"
   575                           
   576                           opt pagewidth 120
   577                           
   578  104A                     _Bank0_Reg:
   579  104A  3400               	retlw	0
   580  104B  340F               	retlw	0Fh
   581  104C  3401               	retlw	01h
   582  104D  343F               	retlw	03Fh
   583  104E  3402               	retlw	02h
   584  104F  343F               	retlw	03Fh
   585  1050  3403               	retlw	03h
   586  1051  3403               	retlw	03h
   587  1052  3404               	retlw	04h
   588  1053  34FF               	retlw	0FFh
   589  1054  3405               	retlw	05h
   590  1055  3417               	retlw	017h
   591  1056  3406               	retlw	06h
   592  1057  3401               	retlw	01h
   593  1058  3407               	retlw	07h
   594  1059  3407               	retlw	07h
   595  105A  3408               	retlw	08h
   596  105B  3400               	retlw	0
   597  105C  3409               	retlw	09h
   598  105D  3400               	retlw	0
   599  105E  340C               	retlw	0Ch
   600  105F  34C3               	retlw	0C3h
   601  1060  340D               	retlw	0Dh
   602  1061  34C4               	retlw	0C4h
   603  1062  340E               	retlw	0Eh
   604  1063  34C5               	retlw	0C5h
   605  1064  340F               	retlw	0Fh
   606  1065  34C6               	retlw	0C6h
   607  1066  3411               	retlw	011h
   608  1067  3420               	retlw	020h
   609  1068  3412               	retlw	012h
   610  1069  3420               	retlw	020h
   611  106A  3413               	retlw	013h
   612  106B  3420               	retlw	020h
   613  106C  3414               	retlw	014h
   614  106D  3420               	retlw	020h
   615  106E  3415               	retlw	015h
   616  106F  3420               	retlw	020h
   617  1070  3416               	retlw	016h
   618  1071  3420               	retlw	020h
   619  1072  3417               	retlw	017h
   620  1073  3400               	retlw	0
   621  1074  341C               	retlw	01Ch
   622  1075  343F               	retlw	03Fh
   623  1076  341D               	retlw	01Dh
   624  1077  3407               	retlw	07h
   625                           opt subtitle "HI-TECH Software Omniscient Code Generator (Lite mode) build 49521"
   626  1078                     __end_of_Bank0_Reg:
   627                           opt subtitle "HI-TECH Software Omniscient Code Generator (Lite mode) build 49521"
   628                           
   629                           opt pagewidth 120
   630                           
   631  1078                     _Bank1_Reg14:
   632  1078  3441               	retlw	041h
   633  1079  3420               	retlw	020h
   634  107A  3408               	retlw	08h
   635  107B  3404               	retlw	04h
   636  107C  3481               	retlw	081h
   637  107D  3420               	retlw	020h
   638  107E  34CF               	retlw	0CFh
   639  107F  34F7               	retlw	0F7h
   640  1080  34FE               	retlw	0FEh
   641  1081  34FF               	retlw	0FFh
   642  1082  34FF               	retlw	0FFh
   643                           opt subtitle "HI-TECH Software Omniscient Code Generator (Lite mode) build 49521"
   644  1083                     __end_of_Bank1_Reg14:
   645                           opt subtitle "HI-TECH Software Omniscient Code Generator (Lite mode) build 49521"
   646                           
   647                           opt pagewidth 120
   648                           
   649  1083                     _dpowers:
   650  1083  3401               	retlw	01h
   651  1084  3400               	retlw	0
   652                           opt subtitle "HI-TECH Software Omniscient Code Generator (Lite mode) build 49521"
   653  1085  340A               	retlw	0Ah
   654  1086  3400               	retlw	0
   655                           opt subtitle "HI-TECH Software Omniscient Code Generator (Lite mode) build 49521"
   656  1087  3464               	retlw	064h
   657  1088  3400               	retlw	0
   658                           opt subtitle "HI-TECH Software Omniscient Code Generator (Lite mode) build 49521"
   659  1089  34E8               	retlw	0E8h
   660  108A  3403               	retlw	03h
   661                           opt subtitle "HI-TECH Software Omniscient Code Generator (Lite mode) build 49521"
   662  108B  3410               	retlw	010h
   663  108C  3427               	retlw	027h
   664                           opt subtitle "HI-TECH Software Omniscient Code Generator (Lite mode) build 49521"
   665                           
   666  108D                     __end_of_dpowers:
   667                           opt subtitle "HI-TECH Software Omniscient Code Generator (Lite mode) build 49521"
   668                           
   669                           opt pagewidth 120
   670                           
   671  108D                     _hexpowers:
   672  108D  3401               	retlw	01h
   673  108E  3400               	retlw	0
   674                           opt subtitle "HI-TECH Software Omniscient Code Generator (Lite mode) build 49521"
   675  108F  3410               	retlw	010h
   676  1090  3400               	retlw	0
   677                           opt subtitle "HI-TECH Software Omniscient Code Generator (Lite mode) build 49521"
   678  1091  3400               	retlw	0
   679  1092  3401               	retlw	01h
   680                           opt subtitle "HI-TECH Software Omniscient Code Generator (Lite mode) build 49521"
   681  1093  3400               	retlw	0
   682  1094  3410               	retlw	010h
   683                           opt subtitle "HI-TECH Software Omniscient Code Generator (Lite mode) build 49521"
   684                           
   685  1095                     __end_of_hexpowers:
   686                           opt subtitle "HI-TECH Software Omniscient Code Generator (Lite mode) build 49521"
   687                           
   688                           opt pagewidth 120
   689                           
   690  1095                     _RX0_Address:
   691  1095  3434               	retlw	034h
   692  1096  3443               	retlw	043h
   693  1097  3410               	retlw	010h
   694  1098  3410               	retlw	010h
   695  1099  3401               	retlw	01h
   696                           opt subtitle "HI-TECH Software Omniscient Code Generator (Lite mode) build 49521"
   697  109A                     __end_of_RX0_Address:
   698                           opt subtitle "HI-TECH Software Omniscient Code Generator (Lite mode) build 49521"
   699                           
   700                           opt pagewidth 120
   701                           
   702  109A                     _RX1_Address:
   703  109A  3439               	retlw	039h
   704  109B  3438               	retlw	038h
   705  109C  3437               	retlw	037h
   706  109D  3436               	retlw	036h
   707  109E  34C2               	retlw	0C2h
   708                           opt subtitle "HI-TECH Software Omniscient Code Generator (Lite mode) build 49521"
   709  109F                     __end_of_RX1_Address:
   710                           opt subtitle "HI-TECH Software Omniscient Code Generator (Lite mode) build 49521"
   711                           
   712                           opt pagewidth 120
   713  109F                     _Bank0_RegAct:
   714  109F  341C               	retlw	01Ch
   715  10A0  343F               	retlw	03Fh
   716  10A1  341D               	retlw	01Dh
   717  10A2  3407               	retlw	07h
   718                           opt subtitle "HI-TECH Software Omniscient Code Generator (Lite mode) build 49521"
   719  10A3                     __end_of_Bank0_RegAct:
   720                           opt subtitle "HI-TECH Software Omniscient Code Generator (Lite mode) build 49521"
   721                           
   722                           opt pagewidth 120
   723                           
   724                           	opt lm
   725                           
   726                           	processor	16LF707
   727                           clrc	macro
   728                           	bcf	3,0
   729                           	endm
   730                           clrz	macro
   731                           	bcf	3,2
   732                           	endm
   733                           setc	macro
   734                           	bsf	3,0
   735                           	endm
   736                           setz	macro
   737                           	bsf	3,2
   738  001F                     _ADCON0bits	set	0x1F
   739                           opt subtitle "HI-TECH Software Omniscient Code Generator (Lite mode) build 49521"
   740  001E                     _ADRES	set	0x1E
   741                           opt subtitle "HI-TECH Software Omniscient Code Generator (Lite mode) build 49521"
   742  000C                     _PIR1bits	set	0xC
   743                           opt subtitle "HI-TECH Software Omniscient Code Generator (Lite mode) build 49521"
   744  0005                     _PORTAbits	set	0x5
   745                           opt subtitle "HI-TECH Software Omniscient Code Generator (Lite mode) build 49521"
   746  0006                     _PORTBbits	set	0x6
   747                           opt subtitle "HI-TECH Software Omniscient Code Generator (Lite mode) build 49521"
   748  0007                     _PORTCbits	set	0x7
   749                           opt subtitle "HI-TECH Software Omniscient Code Generator (Lite mode) build 49521"
   750  0008                     _PORTD	set	0x8
   751                           opt subtitle "HI-TECH Software Omniscient Code Generator (Lite mode) build 49521"
   752  0008                     _PORTDbits	set	0x8
   753                           opt subtitle "HI-TECH Software Omniscient Code Generator (Lite mode) build 49521"
   754  0009                     _PORTEbits	set	0x9
   755                           opt subtitle "HI-TECH Software Omniscient Code Generator (Lite mode) build 49521"
   756  001A                     _RCREG	set	0x1A
   757                           opt subtitle "HI-TECH Software Omniscient Code Generator (Lite mode) build 49521"
   758  0018                     _RCSTA	set	0x18
   759                           opt subtitle "HI-TECH Software Omniscient Code Generator (Lite mode) build 49521"
   760  0018                     _RCSTAbits	set	0x18
   761                           opt subtitle "HI-TECH Software Omniscient Code Generator (Lite mode) build 49521"
   762  0013                     _SSPBUF	set	0x13
   763                           opt subtitle "HI-TECH Software Omniscient Code Generator (Lite mode) build 49521"
   764  0014                     _SSPCONbits	set	0x14
   765                           opt subtitle "HI-TECH Software Omniscient Code Generator (Lite mode) build 49521"
   766  0010                     _T1CONbits	set	0x10
   767                           opt subtitle "HI-TECH Software Omniscient Code Generator (Lite mode) build 49521"
   768  000F                     _TMR1H	set	0xF
   769                           opt subtitle "HI-TECH Software Omniscient Code Generator (Lite mode) build 49521"
   770  000E                     _TMR1L	set	0xE
   771                           opt subtitle "HI-TECH Software Omniscient Code Generator (Lite mode) build 49521"
   772  0019                     _TXREG	set	0x19
   773                           opt subtitle "HI-TECH Software Omniscient Code Generator (Lite mode) build 49521"
   774  005F                     _GIE	set	0x5F
   775                           opt subtitle "HI-TECH Software Omniscient Code Generator (Lite mode) build 49521"
   776  005E                     _PEIE	set	0x5E
   777                           opt subtitle "HI-TECH Software Omniscient Code Generator (Lite mode) build 49521"
   778  0065                     _RCIF	set	0x65
   779                           opt subtitle "HI-TECH Software Omniscient Code Generator (Lite mode) build 49521"
   780  0060                     _TMR1IF	set	0x60
   781                           opt subtitle "HI-TECH Software Omniscient Code Generator (Lite mode) build 49521"
   782  0064                     _TXIF	set	0x64
   783                           opt subtitle "HI-TECH Software Omniscient Code Generator (Lite mode) build 49521"
   784  009F                     _ADCON1bits	set	0x9F
   785                           opt subtitle "HI-TECH Software Omniscient Code Generator (Lite mode) build 49521"
   786  009D                     _FVRCONbits	set	0x9D
   787                           opt subtitle "HI-TECH Software Omniscient Code Generator (Lite mode) build 49521"
   788  0090                     _OSCCONbits	set	0x90
   789                           opt subtitle "HI-TECH Software Omniscient Code Generator (Lite mode) build 49521"
   790  0099                     _SPBRG	set	0x99
   791                           opt subtitle "HI-TECH Software Omniscient Code Generator (Lite mode) build 49521"
   792  0094                     _SSPSTATbits	set	0x94
   793                           opt subtitle "HI-TECH Software Omniscient Code Generator (Lite mode) build 49521"
   794  008F                     _T1GCONbits	set	0x8F
   795                           opt subtitle "HI-TECH Software Omniscient Code Generator (Lite mode) build 49521"
   796  0085                     _TRISAbits	set	0x85
   797                           opt subtitle "HI-TECH Software Omniscient Code Generator (Lite mode) build 49521"
   798  0086                     _TRISBbits	set	0x86
   799                           opt subtitle "HI-TECH Software Omniscient Code Generator (Lite mode) build 49521"
   800  0087                     _TRISCbits	set	0x87
   801                           opt subtitle "HI-TECH Software Omniscient Code Generator (Lite mode) build 49521"
   802  0088                     _TRISDbits	set	0x88
   803                           opt subtitle "HI-TECH Software Omniscient Code Generator (Lite mode) build 49521"
   804  0089                     _TRISEbits	set	0x89
   805                           opt subtitle "HI-TECH Software Omniscient Code Generator (Lite mode) build 49521"
   806  0098                     _TXSTA	set	0x98
   807                           opt subtitle "HI-TECH Software Omniscient Code Generator (Lite mode) build 49521"
   808  0098                     _TXSTAbits	set	0x98
   809                           opt subtitle "HI-TECH Software Omniscient Code Generator (Lite mode) build 49521"
   810  0460                     _TMR1IE	set	0x460
   811                           opt subtitle "HI-TECH Software Omniscient Code Generator (Lite mode) build 49521"
   812  0113                     _DACCON0	set	0x113
   813                           opt subtitle "HI-TECH Software Omniscient Code Generator (Lite mode) build 49521"
   814  0114                     _DACCON1	set	0x114
   815                           opt subtitle "HI-TECH Software Omniscient Code Generator (Lite mode) build 49521"
   816  0185                     _ANSELAbits	set	0x185
   817                           opt subtitle "HI-TECH Software Omniscient Code Generator (Lite mode) build 49521"
   818  0186                     _ANSELBbits	set	0x186
   819                           opt subtitle "HI-TECH Software Omniscient Code Generator (Lite mode) build 49521"
   820  0187                     _ANSELCbits	set	0x187
   821                           opt subtitle "HI-TECH Software Omniscient Code Generator (Lite mode) build 49521"
   822  0188                     _ANSELDbits	set	0x188
   823                           opt subtitle "HI-TECH Software Omniscient Code Generator (Lite mode) build 49521"
   824  0189                     _ANSELEbits	set	0x189
   825                           opt subtitle "HI-TECH Software Omniscient Code Generator (Lite mode) build 49521"
   826  10A3                     __stringdata:
   827                           opt subtitle "HI-TECH Software Omniscient Code Generator (Lite mode) build 49521"
   828  10A3                     STR_4:	
   829  10A3  3456               	retlw	86	;'V'
   830  10A4  3473               	retlw	115	;'s'
   831  10A5  3474               	retlw	116	;'t'
   832  10A6  346F               	retlw	111	;'o'
   833  10A7  3472               	retlw	114	;'r'
   834  10A8  3461               	retlw	97	;'a'
   835  10A9  3467               	retlw	103	;'g'
   836  10AA  3465               	retlw	101	;'e'
   837  10AB  3420               	retlw	32	;' '
   838  10AC  344F               	retlw	79	;'O'
   839  10AD  344B               	retlw	75	;'K'
   840  10AE  3420               	retlw	32	;' '
   841  10AF  346F               	retlw	111	;'o'
   842  10B0  3472               	retlw	114	;'r'
   843  10B1  3420               	retlw	32	;' '
   844  10B2  346D               	retlw	109	;'m'
   845  10B3  3465               	retlw	101	;'e'
   846  10B4  3461               	retlw	97	;'a'
   847  10B5  3473               	retlw	115	;'s'
   848  10B6  3475               	retlw	117	;'u'
   849  10B7  3472               	retlw	114	;'r'
   850  10B8  3465               	retlw	101	;'e'
   851  10B9  3420               	retlw	32	;' '
   852  10BA  3473               	retlw	115	;'s'
   853  10BB  346B               	retlw	107	;'k'
   854  10BC  3469               	retlw	105	;'i'
   855  10BD  3470               	retlw	112	;'p'
   856  10BE  3470               	retlw	112	;'p'
   857  10BF  3465               	retlw	101	;'e'
   858  10C0  3464               	retlw	100	;'d'
   859  10C1  343A               	retlw	58	;':'
   860  10C2  3420               	retlw	32	;' '
   861  10C3  3425               	retlw	37	;'%'
   862  10C4  3464               	retlw	100	;'d'
   863  10C5  340D               	retlw	13
   864  10C6  340A               	retlw	10
   865  10C7  3400               	retlw	0
   866                           opt subtitle "HI-TECH Software Omniscient Code Generator (Lite mode) build 49521"
   867                           
   868  10C8                     STR_5:	
   869  10C8  3456               	retlw	86	;'V'
   870  10C9  3453               	retlw	83	;'S'
   871  10CA  3474               	retlw	116	;'t'
   872  10CB  346F               	retlw	111	;'o'
   873  10CC  3472               	retlw	114	;'r'
   874  10CD  3461               	retlw	97	;'a'
   875  10CE  3467               	retlw	103	;'g'
   876  10CF  3465               	retlw	101	;'e'
   877  10D0  343A               	retlw	58	;':'
   878  10D1  3420               	retlw	32	;' '
   879  10D2  3425               	retlw	37	;'%'
   880  10D3  3464               	retlw	100	;'d'
   881  10D4  3420               	retlw	32	;' '
   882  10D5  3420               	retlw	32	;' '
   883  10D6  343D               	retlw	61	;'='
   884  10D7  343E               	retlw	62	;'>'
   885  10D8  3420               	retlw	32	;' '
   886  10D9  346E               	retlw	110	;'n'
   887  10DA  346F               	retlw	111	;'o'
   888  10DB  3474               	retlw	116	;'t'
   889  10DC  3420               	retlw	32	;' '
   890  10DD  344F               	retlw	79	;'O'
   891  10DE  344B               	retlw	75	;'K'
   892  10DF  340D               	retlw	13
   893  10E0  340A               	retlw	10
   894  10E1  3400               	retlw	0
   895                           opt subtitle "HI-TECH Software Omniscient Code Generator (Lite mode) build 49521"
   896                           
   897  10E2                     STR_12:	
   898  10E2  344E               	retlw	78	;'N'
   899  10E3  346F               	retlw	111	;'o'
   900  10E4  3420               	retlw	32	;' '
   901  10E5  3464               	retlw	100	;'d'
   902  10E6  3461               	retlw	97	;'a'
   903  10E7  3474               	retlw	116	;'t'
   904  10E8  3461               	retlw	97	;'a'
   905  10E9  3420               	retlw	32	;' '
   906  10EA  3473               	retlw	115	;'s'
   907  10EB  3465               	retlw	101	;'e'
   908  10EC  346E               	retlw	110	;'n'
   909  10ED  3474               	retlw	116	;'t'
   910  10EE  343A               	retlw	58	;':'
   911  10EF  3420               	retlw	32	;' '
   912  10F0  3445               	retlw	69	;'E'
   913  10F1  3452               	retlw	82	;'R'
   914  10F2  3452               	retlw	82	;'R'
   915  10F3  344F               	retlw	79	;'O'
   916  10F4  3452               	retlw	82	;'R'
   917  10F5  3420               	retlw	32	;' '
   918  10F6  340D               	retlw	13
   919  10F7  340A               	retlw	10
   920  10F8  3420               	retlw	32	;' '
   921  10F9  3400               	retlw	0
   922                           opt subtitle "HI-TECH Software Omniscient Code Generator (Lite mode) build 49521"
   923                           
   924  10FA                     STR_3:	
   925  10FA  3456               	retlw	86	;'V'
   926  10FB  3473               	retlw	115	;'s'
   927  10FC  3474               	retlw	116	;'t'
   928  10FD  346F               	retlw	111	;'o'
   929  10FE  3472               	retlw	114	;'r'
   930  10FF  3461               	retlw	97	;'a'
   931  1100  3467               	retlw	103	;'g'
   932  1101  3465               	retlw	101	;'e'
   933  1102  3420               	retlw	32	;' '
   934  1103  3474               	retlw	116	;'t'
   935  1104  346F               	retlw	111	;'o'
   936  1105  346F               	retlw	111	;'o'
   937  1106  3420               	retlw	32	;' '
   938  1107  346C               	retlw	108	;'l'
   939  1108  346F               	retlw	111	;'o'
   940  1109  3477               	retlw	119	;'w'
   941  110A  343A               	retlw	58	;':'
   942  110B  3420               	retlw	32	;' '
   943  110C  3425               	retlw	37	;'%'
   944  110D  3464               	retlw	100	;'d'
   945  110E  340D               	retlw	13
   946  110F  340A               	retlw	10
   947  1110  3400               	retlw	0
   948                           opt subtitle "HI-TECH Software Omniscient Code Generator (Lite mode) build 49521"
   949                           
   950  1111                     STR_6:	
   951  1111  3453               	retlw	83	;'S'
   952  1112  346C               	retlw	108	;'l'
   953  1113  3465               	retlw	101	;'e'
   954  1114  3465               	retlw	101	;'e'
   955  1115  3470               	retlw	112	;'p'
   956  1116  3420               	retlw	32	;' '
   957  1117  3463               	retlw	99	;'c'
   958  1118  346F               	retlw	111	;'o'
   959  1119  3475               	retlw	117	;'u'
   960  111A  346E               	retlw	110	;'n'
   961  111B  3474               	retlw	116	;'t'
   962  111C  3465               	retlw	101	;'e'
   963  111D  3472               	retlw	114	;'r'
   964  111E  3420               	retlw	32	;' '
   965  111F  343D               	retlw	61	;'='
   966  1120  3420               	retlw	32	;' '
   967  1121  3425               	retlw	37	;'%'
   968  1122  3464               	retlw	100	;'d'
   969  1123  340D               	retlw	13
   970  1124  340A               	retlw	10
   971  1125  3400               	retlw	0
   972                           opt subtitle "HI-TECH Software Omniscient Code Generator (Lite mode) build 49521"
   973                           
   974  1126                     STR_2:	
   975  1126  3453               	retlw	83	;'S'
   976  1127  346C               	retlw	108	;'l'
   977  1128  3465               	retlw	101	;'e'
   978  1129  3465               	retlw	101	;'e'
   979  112A  3470               	retlw	112	;'p'
   980  112B  3420               	retlw	32	;' '
   981  112C  3463               	retlw	99	;'c'
   982  112D  346F               	retlw	111	;'o'
   983  112E  3475               	retlw	117	;'u'
   984  112F  346E               	retlw	110	;'n'
   985  1130  3474               	retlw	116	;'t'
   986  1131  3465               	retlw	101	;'e'
   987  1132  3472               	retlw	114	;'r'
   988  1133  343A               	retlw	58	;':'
   989  1134  3420               	retlw	32	;' '
   990  1135  3425               	retlw	37	;'%'
   991  1136  3458               	retlw	88	;'X'
   992  1137  340D               	retlw	13
   993  1138  340A               	retlw	10
   994  1139  3400               	retlw	0
   995                           opt subtitle "HI-TECH Software Omniscient Code Generator (Lite mode) build 49521"
   996                           
   997  113A                     STR_1:	
   998  113A  3445               	retlw	69	;'E'
   999  113B  3463               	retlw	99	;'c'
  1000  113C  3463               	retlw	99	;'c'
  1001  113D  346F               	retlw	111	;'o'
  1002  113E  346D               	retlw	109	;'m'
  1003  113F  3469               	retlw	105	;'i'
  1004  1140  3420               	retlw	32	;' '
  1005  1141  346E               	retlw	110	;'n'
  1006  1142  3465               	retlw	101	;'e'
  1007  1143  346C               	retlw	108	;'l'
  1008  1144  346C               	retlw	108	;'l'
  1009  1145  3427               	retlw	39	;'''
  1010  1146  3449               	retlw	73	;'I'
  1011  1147  3453               	retlw	83	;'S'
  1012  1148  3452               	retlw	82	;'R'
  1013  1149  3421               	retlw	33	;'!'
  1014  114A  340D               	retlw	13
  1015  114B  340A               	retlw	10
  1016  114C  3400               	retlw	0
  1017                           opt subtitle "HI-TECH Software Omniscient Code Generator (Lite mode) build 49521"
  1018                           
  1019  114D                     STR_7:	
  1020  114D  3453               	retlw	83	;'S'
  1021  114E  346C               	retlw	108	;'l'
  1022  114F  3465               	retlw	101	;'e'
  1023  1150  3465               	retlw	101	;'e'
  1024  1151  3470               	retlw	112	;'p'
  1025  1152  343A               	retlw	58	;':'
  1026  1153  3420               	retlw	32	;' '
  1027  1154  3425               	retlw	37	;'%'
  1028  1155  3464               	retlw	100	;'d'
  1029  1156  3420               	retlw	32	;' '
  1030  1157  346F               	retlw	111	;'o'
  1031  1158  346E               	retlw	110	;'n'
  1032  1159  3420               	retlw	32	;' '
  1033  115A  3425               	retlw	37	;'%'
  1034  115B  3464               	retlw	100	;'d'
  1035  115C  340D               	retlw	13
  1036  115D  340A               	retlw	10
  1037  115E  3400               	retlw	0
  1038                           opt subtitle "HI-TECH Software Omniscient Code Generator (Lite mode) build 49521"
  1039                           
  1040  115F                     STR_16:	
  1041  115F  3430               	retlw	48	;'0'
  1042  1160  3431               	retlw	49	;'1'
  1043  1161  3432               	retlw	50	;'2'
  1044  1162  3433               	retlw	51	;'3'
  1045  1163  3434               	retlw	52	;'4'
  1046  1164  3435               	retlw	53	;'5'
  1047  1165  3436               	retlw	54	;'6'
  1048  1166  3437               	retlw	55	;'7'
  1049  1167  3438               	retlw	56	;'8'
  1050  1168  3439               	retlw	57	;'9'
  1051  1169  3441               	retlw	65	;'A'
  1052  116A  3442               	retlw	66	;'B'
  1053  116B  3443               	retlw	67	;'C'
  1054  116C  3444               	retlw	68	;'D'
  1055  116D  3445               	retlw	69	;'E'
  1056  116E  3446               	retlw	70	;'F'
  1057  116F  3400               	retlw	0
  1058                           opt subtitle "HI-TECH Software Omniscient Code Generator (Lite mode) build 49521"
  1059                           
  1060  1170                     STR_11:	
  1061  1170  3444               	retlw	68	;'D'
  1062  1171  3461               	retlw	97	;'a'
  1063  1172  3474               	retlw	116	;'t'
  1064  1173  3461               	retlw	97	;'a'
  1065  1174  3420               	retlw	32	;' '
  1066  1175  3473               	retlw	115	;'s'
  1067  1176  3465               	retlw	101	;'e'
  1068  1177  346E               	retlw	110	;'n'
  1069  1178  3474               	retlw	116	;'t'
  1070  1179  343A               	retlw	58	;':'
  1071  117A  3420               	retlw	32	;' '
  1072  117B  344F               	retlw	79	;'O'
  1073  117C  344B               	retlw	75	;'K'
  1074  117D  3420               	retlw	32	;' '
  1075  117E  340D               	retlw	13
  1076  117F  340A               	retlw	10
  1077  1180  3400               	retlw	0
  1078                           opt subtitle "HI-TECH Software Omniscient Code Generator (Lite mode) build 49521"
  1079                           
  1080  1181                     STR_14:	
  1081  1181  3452               	retlw	82	;'R'
  1082  1182  3465               	retlw	101	;'e'
  1083  1183  3463               	retlw	99	;'c'
  1084  1184  3465               	retlw	101	;'e'
  1085  1185  3469               	retlw	105	;'i'
  1086  1186  3476               	retlw	118	;'v'
  1087  1187  3469               	retlw	105	;'i'
  1088  1188  346E               	retlw	110	;'n'
  1089  1189  3467               	retlw	103	;'g'
  1090  118A  343A               	retlw	58	;':'
  1091  118B  3420               	retlw	32	;' '
  1092  118C  3400               	retlw	0
  1093                           opt subtitle "HI-TECH Software Omniscient Code Generator (Lite mode) build 49521"
  1094                           
  1095  118D                     STR_8:	
  1096  118D  3453               	retlw	83	;'S'
  1097  118E  3465               	retlw	101	;'e'
  1098  118F  346E               	retlw	110	;'n'
  1099  1190  3464               	retlw	100	;'d'
  1100  1191  3469               	retlw	105	;'i'
  1101  1192  346E               	retlw	110	;'n'
  1102  1193  3467               	retlw	103	;'g'
  1103  1194  343A               	retlw	58	;':'
  1104  1195  3420               	retlw	32	;' '
  1105  1196  3400               	retlw	0
  1106                           opt subtitle "HI-TECH Software Omniscient Code Generator (Lite mode) build 49521"
  1107                           
  1108  1197                     STR_13:	
  1109  1197  340A               	retlw	10
  1110  1198  340D               	retlw	13
  1111  1199  340A               	retlw	10
  1112  119A  340D               	retlw	13
  1113  119B  3400               	retlw	0
  1114                           opt subtitle "HI-TECH Software Omniscient Code Generator (Lite mode) build 49521"
  1115                           
  1116  119C                     STR_9:	
  1117  119C  3425               	retlw	37	;'%'
  1118  119D  3458               	retlw	88	;'X'
  1119  119E  3400               	retlw	0
  1120                           opt subtitle "HI-TECH Software Omniscient Code Generator (Lite mode) build 49521"
  1121  1197                     STR_15	equ	STR_13+0
  1122  1199                     STR_10	equ	STR_13+2
  1123                           opt subtitle "HI-TECH Software Omniscient Code Generator (Lite mode) build 49521"
  1124  119F                     __end_of__stringdata:
  1125                           opt subtitle "HI-TECH Software Omniscient Code Generator (Lite mode) build 49521"
  1126                           
  1127  0000                     __CFG_BOREN$OFF equ 0x0
  1128                           opt subtitle "HI-TECH Software Omniscient Code Generator (Lite mode) build 49521"
  1129  0000                     __CFG_PLLEN$ON equ 0x0
  1130                           opt subtitle "HI-TECH Software Omniscient Code Generator (Lite mode) build 49521"
  1131  0000                     __CFG_FOSC$INTOSC equ 0x0
  1132                           opt subtitle "HI-TECH Software Omniscient Code Generator (Lite mode) build 49521"
  1133  0000                     __CFG_MCLRE$ON equ 0x0
  1134                           opt subtitle "HI-TECH Software Omniscient Code Generator (Lite mode) build 49521"
  1135  0000                     __CFG_WDTE$OFF equ 0x0
  1136                           opt subtitle "HI-TECH Software Omniscient Code Generator (Lite mode) build 49521"
  1137  0000                     __CFG_CP$OFF equ 0x0
  1138                           opt subtitle "HI-TECH Software Omniscient Code Generator (Lite mode) build 49521"
  1139  0000                     __CFG_PWRTE$OFF equ 0x0
  1140                           opt subtitle "HI-TECH Software Omniscient Code Generator (Lite mode) build 49521"
  1141                           
  1142                           opt pagewidth 120
  1143                           
  1144  1665                     start_initialization:
  1145                           opt subtitle "HI-TECH Software Omniscient Code Generator (Lite mode) build 49521"
  1146                           
  1147  1665                     __initialization:
  1148                           opt subtitle "HI-TECH Software Omniscient Code Generator (Lite mode) build 49521"
  1149                           
  1150  02D8                     __pbitbssBANK0:
  1151  02D8                     _flag:
  1152  02D8                            ds      1
  1153                           opt subtitle "HI-TECH Software Omniscient Code Generator (Lite mode) build 49521"
  1154                           
  1155                           opt pagewidth 120
  1156  0052                     __pbssBANK0:
  1157  0052                     _charge_pulse:
  1158  0052                            ds      2
  1159                           opt subtitle "HI-TECH Software Omniscient Code Generator (Lite mode) build 49521"
  1160  0054                     _charge_time:
  1161  0054                            ds      2
  1162                           opt subtitle "HI-TECH Software Omniscient Code Generator (Lite mode) build 49521"
  1163  0056                     _sleep_counter:
  1164  0056                            ds      1
  1165                           opt subtitle "HI-TECH Software Omniscient Code Generator (Lite mode) build 49521"
  1166  0057                     _tmr1Counter:
  1167  0057                            ds      1
  1168                           opt subtitle "HI-TECH Software Omniscient Code Generator (Lite mode) build 49521"
  1169                           
  1170                           opt pagewidth 120
  1171  0058                     __pdataBANK0:
  1172                           opt subtitle "HI-TECH Software Omniscient Code Generator (Lite mode) build 49521"
  1173                           
  1174  0058                     _dac_value:
  1175  0058                            ds      2
  1176                           opt subtitle "HI-TECH Software Omniscient Code Generator (Lite mode) build 49521"
  1177                           
  1178                           opt pagewidth 120
  1179                           
  1180  005A                     _tmr1Target:
  1181  005A                            ds      1
  1182                           opt subtitle "HI-TECH Software Omniscient Code Generator (Lite mode) build 49521"
  1183                           
  1184                           opt pagewidth 120
  1185  00E6                     __pbssBANK1:
  1186  00E6                     _timelapse_count:
  1187  00E6                            ds      2
  1188                           opt subtitle "HI-TECH Software Omniscient Code Generator (Lite mode) build 49521"
  1189  00E8                     _value:
  1190  00E8                            ds      2
  1191                           opt subtitle "HI-TECH Software Omniscient Code Generator (Lite mode) build 49521"
  1192  00EA                     _values:
  1193  00EA                            ds      2
  1194                           opt subtitle "HI-TECH Software Omniscient Code Generator (Lite mode) build 49521"
  1195  00EC                     _jumper_stat:
  1196  00EC                            ds      1
  1197                           opt subtitle "HI-TECH Software Omniscient Code Generator (Lite mode) build 49521"
  1198  00ED                     _sleep_count:
  1199  00ED                            ds      1
  1200                           opt subtitle "HI-TECH Software Omniscient Code Generator (Lite mode) build 49521"
  1201                           
  1202                           opt pagewidth 120
  1203  00DB                     __pdataBANK1:
  1204                           opt subtitle "HI-TECH Software Omniscient Code Generator (Lite mode) build 49521"
  1205                           
  1206  00DB                     _charge_pulse_float:
  1207  00DB                            ds      3
  1208                           opt subtitle "HI-TECH Software Omniscient Code Generator (Lite mode) build 49521"
  1209                           
  1210                           opt pagewidth 120
  1211                           
  1212  00DE                     _tx_buf:
  1213  00DE                            ds      8
  1214                           opt subtitle "HI-TECH Software Omniscient Code Generator (Lite mode) build 49521"
  1215                           
  1216                           opt pagewidth 120
  1217  0190                     __pbssBANK3:
  1218  0190                     _rx_buf:
  1219  0190                            ds      32
  1220                           opt subtitle "HI-TECH Software Omniscient Code Generator (Lite mode) build 49521"
  1221                           
  1222                           opt pagewidth 120
  1223                           
  1224                           	opt lm
  1225  1474                     clear_ram:
  1226  1474  0064               	clrwdt			;clear the watchdog before getting into this loop
  1227  1475                     clrloop:
  1228  1475  0180               	clrf	indf		;clear RAM location pointed to by FSR
  1229  1476  0A84               	incf	fsr,f		;increment pointer
  1230  1477  0604               	xorwf	fsr,w		;XOR with final address
  1231  1478  1903               	btfsc	status,2	;have we reached the end yet?
  1232  1479  3400               	retlw	0		;all done for this memory range, return
  1233  147A  0604               	xorwf	fsr,w		;XOR again to restore value
  1234  147B  2C75               	goto	clrloop		;do the next byte
  1235                           opt subtitle "HI-TECH Software Omniscient Code Generator (Lite mode) build 49521"
  1236                           
  1237                           opt pagewidth 120
  1238  1665  01DB               	clrf	((__pbitbssBANK0/8)+0)&07Fh
  1239                           opt subtitle "HI-TECH Software Omniscient Code Generator (Lite mode) build 49521"
  1240                           
  1241  1666  01D2               	clrf	((__pbssBANK0)+0)&07Fh
  1242  1667  01D3               	clrf	((__pbssBANK0)+1)&07Fh
  1243  1668  01D4               	clrf	((__pbssBANK0)+2)&07Fh
  1244  1669  01D5               	clrf	((__pbssBANK0)+3)&07Fh
  1245  166A  01D6               	clrf	((__pbssBANK0)+4)&07Fh
  1246  166B  01D7               	clrf	((__pbssBANK0)+5)&07Fh
  1247                           opt subtitle "HI-TECH Software Omniscient Code Generator (Lite mode) build 49521"
  1248                           
  1249  166C  1383               	bcf	status, 7	;select IRP bank0
  1250  166D  30E6               	movlw	low(__pbssBANK1)
  1251  166E  0084               	movwf	fsr
  1252  166F  30EE               	movlw	low((__pbssBANK1)+08h)
  1253  1670  160A  118A  2474   	fcall	clear_ram
              160A  118A         
  1254                           opt subtitle "HI-TECH Software Omniscient Code Generator (Lite mode) build 49521"
  1255                           
  1256  1675  1783               	bsf	status, 7	;select IRP bank2
  1257  1676  3090               	movlw	low(__pbssBANK3)
  1258  1677  0084               	movwf	fsr
  1259  1678  30B0               	movlw	low((__pbssBANK3)+020h)
  1260  1679  160A  118A  2474   	fcall	clear_ram
              160A  118A         
  1261                           opt subtitle "HI-TECH Software Omniscient Code Generator (Lite mode) build 49521"
  1262                           
  1263                           opt pagewidth 120
  1264                           
  1265  149D                     init_fetch:
  1266  149D  087E               	movf btemp,w
  1267  149E  008A               	movwf pclath
  1268  149F  087F               	movf btemp+1,w
  1269  14A0  0082               	movwf pc
  1270                           opt subtitle "HI-TECH Software Omniscient Code Generator (Lite mode) build 49521"
  1271                           
  1272                           opt pagewidth 120
  1273                           
  1274                           	opt lm
  1275                           
  1276  14A1                     init_ram:
  1277  14A1  160A  118A  249D   	fcall init_fetch
              160A  118A         
  1278  14A6  0080               	movwf indf,f
  1279  14A7  0A84               	incf fsr,f
  1280  14A8  0804               	movf fsr,w
  1281  14A9  067D               	xorwf btemp-1,w
  1282  14AA  1903               	btfsc status,2
  1283  14AB  3400               	retlw 0
  1284  14AC  0AFF               	incf btemp+1,f
  1285  14AD  1903               	btfsc status,2
  1286  14AE  0AFE               	incf btemp,f
  1287  14AF  2CA1               	goto init_ram
  1288                           opt subtitle "HI-TECH Software Omniscient Code Generator (Lite mode) build 49521"
  1289                           
  1290                           opt pagewidth 120
  1291  167E  1383               	bcf	status, 7	;select IRP bank0
  1292  167F  30E6               	movlw low(__pdataBANK1+11)
  1293  1680  00FD               	movwf btemp-1,f
  1294  1681  3014               	movlw high(__pidataBANK1)
  1295  1682  00FE               	movwf btemp,f
  1296  1683  3086               	movlw low(__pidataBANK1)
  1297  1684  00FF               	movwf btemp+1,f
  1298  1685  30DB               	movlw low(__pdataBANK1)
  1299  1686  0084               	movwf fsr,f
  1300  1687  160A  118A  24A1   	fcall init_ram
              160A  118A         
  1301                           opt subtitle "HI-TECH Software Omniscient Code Generator (Lite mode) build 49521"
  1302                           
  1303                           opt pagewidth 120
  1304  168C  305B               	movlw low(__pdataBANK0+3)
  1305  168D  00FD               	movwf btemp-1,f
  1306  168E  3007               	movlw high(__pidataBANK0)
  1307  168F  00FE               	movwf btemp,f
  1308  1690  30FC               	movlw low(__pidataBANK0)
  1309  1691  00FF               	movwf btemp+1,f
  1310  1692  3058               	movlw low(__pdataBANK0)
  1311  1693  0084               	movwf fsr,f
  1312  1694  160A  118A  24A1   	fcall init_ram
              160A  118A         
  1313                           opt subtitle "HI-TECH Software Omniscient Code Generator (Lite mode) build 49521"
  1314                           
  1315                           opt pagewidth 120
  1316                           
  1317                           	opt lm
  1318  1699                     end_of_initialization:
  1319  1699                     __end_of__initialization:clrf status
      + 1699  0183               	clrf	3
  1320  169A  120A  118A  2B25   ljmp _main	;jump to C main() function
  1321                           opt subtitle "HI-TECH Software Omniscient Code Generator (Lite mode) build 49521"
  1322                           
  1323  00A0                     __pcstackBANK1:
  1324                           opt subtitle "HI-TECH Software Omniscient Code Generator (Lite mode) build 49521"
  1325  00A0                     printf@idx:	; 1 bytes @ 0x0
  1326  00A0                     	ds	1
  1327                           opt subtitle "HI-TECH Software Omniscient Code Generator (Lite mode) build 49521"
  1328  00A1                     printf@ap:	; 1 bytes @ 0x1
  1329  00A1                     	ds	1
  1330                           opt subtitle "HI-TECH Software Omniscient Code Generator (Lite mode) build 49521"
  1331  00A2                     printf@prec:	; 1 bytes @ 0x2
  1332  00A2                     	ds	1
  1333                           opt subtitle "HI-TECH Software Omniscient Code Generator (Lite mode) build 49521"
  1334  00A3                     printf@flag:	; 1 bytes @ 0x3
  1335  00A3                     	ds	1
  1336                           opt subtitle "HI-TECH Software Omniscient Code Generator (Lite mode) build 49521"
  1337  00A4                     printf@_val:	; 4 bytes @ 0x4
  1338  00A4                     	ds	4
  1339                           opt subtitle "HI-TECH Software Omniscient Code Generator (Lite mode) build 49521"
  1340  00A8                     printf@c:	; 1 bytes @ 0x8
  1341  00A8                     	ds	1
  1342                           opt subtitle "HI-TECH Software Omniscient Code Generator (Lite mode) build 49521"
  1343  00A9                     Send_Packet@type:	; 1 bytes @ 0x9
  1344  00A9                     	ds	1
  1345                           opt subtitle "HI-TECH Software Omniscient Code Generator (Lite mode) build 49521"
  1346  00AA                     Send_Packet@fifo_sta:	; 1 bytes @ 0xA
  1347  00AA                     	ds	1
  1348                           opt subtitle "HI-TECH Software Omniscient Code Generator (Lite mode) build 49521"
  1349  00AB                     Send_Packet@i:	; 1 bytes @ 0xB
  1350  00AB                     	ds	1
  1351  00AC                     ?_main:	; 2 bytes @ 0xC
  1352  00AC                     main@argc:	; 2 bytes @ 0xC
  1353  00AC                     	ds	2
  1354  00AE                     main@argv:	; 2 bytes @ 0xE
  1355  00AE                     	ds	2
  1356  00B0                     ??_main:	; 0 bytes @ 0x10
  1357  00B0                     	ds	4
  1358                           opt subtitle "HI-TECH Software Omniscient Code Generator (Lite mode) build 49521"
  1359  00B4                     main@temp_tx_buf:	; 32 bytes @ 0x14
  1360  00B4                     	ds	32
  1361                           opt subtitle "HI-TECH Software Omniscient Code Generator (Lite mode) build 49521"
  1362  00D4                     main@num_sleep:	; 1 bytes @ 0x34
  1363  00D4                     	ds	1
  1364                           opt subtitle "HI-TECH Software Omniscient Code Generator (Lite mode) build 49521"
  1365  00D5                     main@temp:	; 2 bytes @ 0x35
  1366  00D5                     	ds	2
  1367                           opt subtitle "HI-TECH Software Omniscient Code Generator (Lite mode) build 49521"
  1368  00D7                     main@i:	; 4 bytes @ 0x37
  1369  00D7                     	ds	4
  1370                           opt subtitle "HI-TECH Software Omniscient Code Generator (Lite mode) build 49521"
  1371                           
  1372  0070                     __pcstackCOMMON:
  1373  0070                     ?_spiInit:	; 0 bytes @ 0x0
  1374  0070                     ?_uartInit:	; 0 bytes @ 0x0
  1375  0070                     ?_adcInit:	; 0 bytes @ 0x0
  1376  0070                     ?_rfm70setPowerdownMode:	; 0 bytes @ 0x0
  1377  0070                     ?_RFM70_Initialize:	; 0 bytes @ 0x0
  1378  0070                     ?_sleep:	; 0 bytes @ 0x0
  1379  0070                     ?_SwitchToTxMode:	; 0 bytes @ 0x0
  1380  0070                     ?_SwitchToRxMode:	; 0 bytes @ 0x0
  1381  0070                     ?_ISR:	; 0 bytes @ 0x0
  1382  0070                     ?_putch:	; 0 bytes @ 0x0
  1383  0070                     ?_SwitchCFG:	; 0 bytes @ 0x0
  1384  0070                     ?i1_putch:	; 0 bytes @ 0x0
  1385  0070                     ??i1_putch:	; 0 bytes @ 0x0
  1386  0070                     ?_adcReadVcap:	; 1 bytes @ 0x0
  1387  0070                     ?_adcReadTemp:	; 1 bytes @ 0x0
  1388  0070                     ?_SPI_Read_Reg:	; 1 bytes @ 0x0
  1389  0070                     ?_rfm70TxDataSentInterrupt:	; 1 bytes @ 0x0
  1390  0070                     ?_rfm70TxDataSentErrorInterrupt:	; 1 bytes @ 0x0
  1391  0070                     ?_SPI_RW:	; 1 bytes @ 0x0
  1392                           opt subtitle "HI-TECH Software Omniscient Code Generator (Lite mode) build 49521"
  1393  0070                     ?i1___lwdiv:	; 2 bytes @ 0x0
  1394                           opt subtitle "HI-TECH Software Omniscient Code Generator (Lite mode) build 49521"
  1395  0070                     i1putch@c:	; 1 bytes @ 0x0
  1396                           opt subtitle "HI-TECH Software Omniscient Code Generator (Lite mode) build 49521"
  1397  0070                     i1___lwdiv@divisor:	; 2 bytes @ 0x0
  1398  0070                     	ds	2
  1399                           opt subtitle "HI-TECH Software Omniscient Code Generator (Lite mode) build 49521"
  1400  0072                     i1___lwdiv@dividend:	; 2 bytes @ 0x2
  1401  0072                     	ds	2
  1402  0074                     ??i1___lwdiv:	; 0 bytes @ 0x4
  1403  0074                     	ds	1
  1404                           opt subtitle "HI-TECH Software Omniscient Code Generator (Lite mode) build 49521"
  1405  0075                     i1___lwdiv@counter:	; 1 bytes @ 0x5
  1406  0075                     	ds	1
  1407                           opt subtitle "HI-TECH Software Omniscient Code Generator (Lite mode) build 49521"
  1408  0076                     i1___lwdiv@quotient:	; 2 bytes @ 0x6
  1409  0076                     	ds	2
  1410                           opt subtitle "HI-TECH Software Omniscient Code Generator (Lite mode) build 49521"
  1411  0078                     ?i1___lwmod:	; 2 bytes @ 0x8
  1412                           opt subtitle "HI-TECH Software Omniscient Code Generator (Lite mode) build 49521"
  1413  0078                     i1___lwmod@divisor:	; 2 bytes @ 0x8
  1414  0078                     	ds	2
  1415                           opt subtitle "HI-TECH Software Omniscient Code Generator (Lite mode) build 49521"
  1416  007A                     i1___lwmod@dividend:	; 2 bytes @ 0xA
  1417  007A                     	ds	2
  1418  007C                     ??i1___lwmod:	; 0 bytes @ 0xC
  1419  007C                     	ds	1
  1420                           opt subtitle "HI-TECH Software Omniscient Code Generator (Lite mode) build 49521"
  1421  007D                     i1___lwmod@counter:	; 1 bytes @ 0xD
  1422  007D                     	ds	1
  1423                           opt subtitle "HI-TECH Software Omniscient Code Generator (Lite mode) build 49521"
  1424                           
  1425  0020                     __pcstackBANK0:
  1426                           opt subtitle "HI-TECH Software Omniscient Code Generator (Lite mode) build 49521"
  1427  0020                     ?i1_printf:	; 2 bytes @ 0x0
  1428                           opt subtitle "HI-TECH Software Omniscient Code Generator (Lite mode) build 49521"
  1429  0020                     i1printf@f:	; 2 bytes @ 0x0
  1430  0020                     	ds	2
  1431  0022                     ??i1_printf:	; 0 bytes @ 0x2
  1432  0022                     	ds	3
  1433                           opt subtitle "HI-TECH Software Omniscient Code Generator (Lite mode) build 49521"
  1434  0025                     i1printf@idx:	; 1 bytes @ 0x5
  1435  0025                     	ds	1
  1436                           opt subtitle "HI-TECH Software Omniscient Code Generator (Lite mode) build 49521"
  1437  0026                     i1printf@ap:	; 1 bytes @ 0x6
  1438  0026                     	ds	1
  1439                           opt subtitle "HI-TECH Software Omniscient Code Generator (Lite mode) build 49521"
  1440  0027                     i1printf@prec:	; 1 bytes @ 0x7
  1441  0027                     	ds	1
  1442                           opt subtitle "HI-TECH Software Omniscient Code Generator (Lite mode) build 49521"
  1443  0028                     i1printf@flag:	; 1 bytes @ 0x8
  1444  0028                     	ds	1
  1445                           opt subtitle "HI-TECH Software Omniscient Code Generator (Lite mode) build 49521"
  1446  0029                     i1printf@_val:	; 4 bytes @ 0x9
  1447  0029                     	ds	4
  1448                           opt subtitle "HI-TECH Software Omniscient Code Generator (Lite mode) build 49521"
  1449  002D                     i1printf@c:	; 1 bytes @ 0xD
  1450  002D                     	ds	1
  1451  002E                     ??_ISR:	; 0 bytes @ 0xE
  1452  002E                     	ds	6
  1453  0034                     ??_spiInit:	; 0 bytes @ 0x14
  1454  0034                     ??_uartInit:	; 0 bytes @ 0x14
  1455  0034                     ??_adcInit:	; 0 bytes @ 0x14
  1456  0034                     ??_adcReadVcap:	; 0 bytes @ 0x14
  1457  0034                     ??_adcReadTemp:	; 0 bytes @ 0x14
  1458  0034                     ??_putch:	; 0 bytes @ 0x14
  1459  0034                     ??_SPI_RW:	; 0 bytes @ 0x14
  1460                           opt subtitle "HI-TECH Software Omniscient Code Generator (Lite mode) build 49521"
  1461  0034                     ?___ftge:	; 1 bit 
  1462                           opt subtitle "HI-TECH Software Omniscient Code Generator (Lite mode) build 49521"
  1463  0034                     ?___wmul:	; 2 bytes @ 0x14
  1464                           opt subtitle "HI-TECH Software Omniscient Code Generator (Lite mode) build 49521"
  1465  0034                     ?___lwdiv:	; 2 bytes @ 0x14
  1466                           opt subtitle "HI-TECH Software Omniscient Code Generator (Lite mode) build 49521"
  1467  0034                     ?___ftpack:	; 3 bytes @ 0x14
  1468                           opt subtitle "HI-TECH Software Omniscient Code Generator (Lite mode) build 49521"
  1469  0034                     ?___fttol:	; 4 bytes @ 0x14
  1470                           opt subtitle "HI-TECH Software Omniscient Code Generator (Lite mode) build 49521"
  1471  0034                     putch@c:	; 1 bytes @ 0x14
  1472                           opt subtitle "HI-TECH Software Omniscient Code Generator (Lite mode) build 49521"
  1473  0034                     ___wmul@multiplier:	; 2 bytes @ 0x14
  1474                           opt subtitle "HI-TECH Software Omniscient Code Generator (Lite mode) build 49521"
  1475  0034                     ___lwdiv@divisor:	; 2 bytes @ 0x14
  1476                           opt subtitle "HI-TECH Software Omniscient Code Generator (Lite mode) build 49521"
  1477  0034                     ___fttol@f1:	; 3 bytes @ 0x14
  1478                           opt subtitle "HI-TECH Software Omniscient Code Generator (Lite mode) build 49521"
  1479  0034                     ___ftge@ff1:	; 3 bytes @ 0x14
  1480                           opt subtitle "HI-TECH Software Omniscient Code Generator (Lite mode) build 49521"
  1481  0034                     ___ftpack@arg:	; 3 bytes @ 0x14
  1482  0034                     	ds	2
  1483                           opt subtitle "HI-TECH Software Omniscient Code Generator (Lite mode) build 49521"
  1484  0036                     adcReadTemp@value:	; 1 bytes @ 0x16
  1485                           opt subtitle "HI-TECH Software Omniscient Code Generator (Lite mode) build 49521"
  1486  0036                     adcReadVcap@value:	; 1 bytes @ 0x16
  1487                           opt subtitle "HI-TECH Software Omniscient Code Generator (Lite mode) build 49521"
  1488  0036                     SPI_RW@value:	; 1 bytes @ 0x16
  1489                           opt subtitle "HI-TECH Software Omniscient Code Generator (Lite mode) build 49521"
  1490  0036                     ___wmul@multiplicand:	; 2 bytes @ 0x16
  1491                           opt subtitle "HI-TECH Software Omniscient Code Generator (Lite mode) build 49521"
  1492  0036                     ___lwdiv@dividend:	; 2 bytes @ 0x16
  1493  0036                     	ds	1
  1494  0037                     ??_SPI_Read_Reg:	; 0 bytes @ 0x17
  1495                           opt subtitle "HI-TECH Software Omniscient Code Generator (Lite mode) build 49521"
  1496  0037                     ?_SPI_Write_Buf:	; 0 bytes @ 0x17
  1497                           opt subtitle "HI-TECH Software Omniscient Code Generator (Lite mode) build 49521"
  1498  0037                     ?_SPI_Write_Reg:	; 0 bytes @ 0x17
  1499                           opt subtitle "HI-TECH Software Omniscient Code Generator (Lite mode) build 49521"
  1500  0037                     SPI_Write_Reg@value:	; 1 bytes @ 0x17
  1501                           opt subtitle "HI-TECH Software Omniscient Code Generator (Lite mode) build 49521"
  1502  0037                     SPI_Write_Buf@pBuf:	; 1 bytes @ 0x17
  1503                           opt subtitle "HI-TECH Software Omniscient Code Generator (Lite mode) build 49521"
  1504  0037                     ___ftpack@exp:	; 1 bytes @ 0x17
  1505                           opt subtitle "HI-TECH Software Omniscient Code Generator (Lite mode) build 49521"
  1506  0037                     ___ftge@ff2:	; 3 bytes @ 0x17
  1507  0037                     	ds	1
  1508  0038                     ??_SPI_Write_Reg:	; 0 bytes @ 0x18
  1509  0038                     ??___wmul:	; 0 bytes @ 0x18
  1510  0038                     ??___lwdiv:	; 0 bytes @ 0x18
  1511  0038                     ??___fttol:	; 0 bytes @ 0x18
  1512                           opt subtitle "HI-TECH Software Omniscient Code Generator (Lite mode) build 49521"
  1513  0038                     SPI_Write_Reg@reg:	; 1 bytes @ 0x18
  1514                           opt subtitle "HI-TECH Software Omniscient Code Generator (Lite mode) build 49521"
  1515  0038                     SPI_Read_Reg@reg:	; 1 bytes @ 0x18
  1516                           opt subtitle "HI-TECH Software Omniscient Code Generator (Lite mode) build 49521"
  1517  0038                     SPI_Write_Buf@length:	; 1 bytes @ 0x18
  1518                           opt subtitle "HI-TECH Software Omniscient Code Generator (Lite mode) build 49521"
  1519  0038                     ___ftpack@sign:	; 1 bytes @ 0x18
  1520                           opt subtitle "HI-TECH Software Omniscient Code Generator (Lite mode) build 49521"
  1521  0038                     ___wmul@product:	; 2 bytes @ 0x18
  1522  0038                     	ds	1
  1523  0039                     ??_SPI_Write_Buf:	; 0 bytes @ 0x19
  1524  0039                     ??___ftpack:	; 0 bytes @ 0x19
  1525                           opt subtitle "HI-TECH Software Omniscient Code Generator (Lite mode) build 49521"
  1526  0039                     SPI_Read_Reg@value:	; 1 bytes @ 0x19
  1527                           opt subtitle "HI-TECH Software Omniscient Code Generator (Lite mode) build 49521"
  1528  0039                     ___lwdiv@counter:	; 1 bytes @ 0x19
  1529  0039                     	ds	1
  1530  003A                     ??_rfm70setPowerdownMode:	; 0 bytes @ 0x1A
  1531  003A                     ??_SwitchToTxMode:	; 0 bytes @ 0x1A
  1532  003A                     ??_rfm70TxDataSentInterrupt:	; 0 bytes @ 0x1A
  1533  003A                     ??_SwitchToRxMode:	; 0 bytes @ 0x1A
  1534  003A                     ??_rfm70TxDataSentErrorInterrupt:	; 0 bytes @ 0x1A
  1535  003A                     ??_SwitchCFG:	; 0 bytes @ 0x1A
  1536  003A                     ??___ftge:	; 0 bytes @ 0x1A
  1537                           opt subtitle "HI-TECH Software Omniscient Code Generator (Lite mode) build 49521"
  1538  003A                     SPI_Write_Buf@reg:	; 1 bytes @ 0x1A
  1539                           opt subtitle "HI-TECH Software Omniscient Code Generator (Lite mode) build 49521"
  1540  003A                     ___lwdiv@quotient:	; 2 bytes @ 0x1A
  1541  003A                     	ds	1
  1542                           opt subtitle "HI-TECH Software Omniscient Code Generator (Lite mode) build 49521"
  1543  003B                     SPI_Write_Buf@byte_ctr:	; 1 bytes @ 0x1B
  1544                           opt subtitle "HI-TECH Software Omniscient Code Generator (Lite mode) build 49521"
  1545  003B                     SwitchToRxMode@value:	; 1 bytes @ 0x1B
  1546                           opt subtitle "HI-TECH Software Omniscient Code Generator (Lite mode) build 49521"
  1547  003B                     SwitchToTxMode@value:	; 1 bytes @ 0x1B
  1548                           opt subtitle "HI-TECH Software Omniscient Code Generator (Lite mode) build 49521"
  1549  003B                     SwitchCFG@_cfg:	; 1 bytes @ 0x1B
  1550                           opt subtitle "HI-TECH Software Omniscient Code Generator (Lite mode) build 49521"
  1551  003B                     rfm70setPowerdownMode@value:	; 1 bytes @ 0x1B
  1552  003B                     	ds	1
  1553                           opt subtitle "HI-TECH Software Omniscient Code Generator (Lite mode) build 49521"
  1554  003C                     ?___lwmod:	; 2 bytes @ 0x1C
  1555                           opt subtitle "HI-TECH Software Omniscient Code Generator (Lite mode) build 49521"
  1556  003C                     ?___ftdiv:	; 3 bytes @ 0x1C
  1557                           opt subtitle "HI-TECH Software Omniscient Code Generator (Lite mode) build 49521"
  1558  003C                     ?___ftmul:	; 3 bytes @ 0x1C
  1559                           opt subtitle "HI-TECH Software Omniscient Code Generator (Lite mode) build 49521"
  1560  003C                     SwitchCFG@Tmp:	; 1 bytes @ 0x1C
  1561                           opt subtitle "HI-TECH Software Omniscient Code Generator (Lite mode) build 49521"
  1562  003C                     rfm70setPowerdownMode@reg:	; 1 bytes @ 0x1C
  1563                           opt subtitle "HI-TECH Software Omniscient Code Generator (Lite mode) build 49521"
  1564  003C                     ___fttol@sign1:	; 1 bytes @ 0x1C
  1565                           opt subtitle "HI-TECH Software Omniscient Code Generator (Lite mode) build 49521"
  1566  003C                     ___lwmod@divisor:	; 2 bytes @ 0x1C
  1567                           opt subtitle "HI-TECH Software Omniscient Code Generator (Lite mode) build 49521"
  1568  003C                     ___ftdiv@f2:	; 3 bytes @ 0x1C
  1569                           opt subtitle "HI-TECH Software Omniscient Code Generator (Lite mode) build 49521"
  1570  003C                     ___ftmul@f1:	; 3 bytes @ 0x1C
  1571  003C                     	ds	1
  1572  003D                     ??_RFM70_Initialize:	; 0 bytes @ 0x1D
  1573                           opt subtitle "HI-TECH Software Omniscient Code Generator (Lite mode) build 49521"
  1574  003D                     ___fttol@lval:	; 4 bytes @ 0x1D
  1575  003D                     	ds	1
  1576                           opt subtitle "HI-TECH Software Omniscient Code Generator (Lite mode) build 49521"
  1577  003E                     ___lwmod@dividend:	; 2 bytes @ 0x1E
  1578  003E                     	ds	1
  1579                           opt subtitle "HI-TECH Software Omniscient Code Generator (Lite mode) build 49521"
  1580  003F                     ___ftdiv@f1:	; 3 bytes @ 0x1F
  1581                           opt subtitle "HI-TECH Software Omniscient Code Generator (Lite mode) build 49521"
  1582  003F                     ___ftmul@f2:	; 3 bytes @ 0x1F
  1583  003F                     	ds	1
  1584  0040                     ??___lwmod:	; 0 bytes @ 0x20
  1585  0040                     	ds	1
  1586                           opt subtitle "HI-TECH Software Omniscient Code Generator (Lite mode) build 49521"
  1587  0041                     ___lwmod@counter:	; 1 bytes @ 0x21
  1588                           opt subtitle "HI-TECH Software Omniscient Code Generator (Lite mode) build 49521"
  1589  0041                     ___fttol@exp1:	; 1 bytes @ 0x21
  1590  0041                     	ds	1
  1591  0042                     ??___ftdiv:	; 0 bytes @ 0x22
  1592  0042                     ??___ftmul:	; 0 bytes @ 0x22
  1593                           opt subtitle "HI-TECH Software Omniscient Code Generator (Lite mode) build 49521"
  1594  0042                     ?_printf:	; 2 bytes @ 0x22
  1595                           opt subtitle "HI-TECH Software Omniscient Code Generator (Lite mode) build 49521"
  1596  0042                     printf@f:	; 2 bytes @ 0x22
  1597  0042                     	ds	2
  1598                           opt subtitle "HI-TECH Software Omniscient Code Generator (Lite mode) build 49521"
  1599  0044                     RFM70_Initialize@WriteArr:	; 12 bytes @ 0x24
  1600  0044                     	ds	2
  1601                           opt subtitle "HI-TECH Software Omniscient Code Generator (Lite mode) build 49521"
  1602  0046                     ___ftdiv@cntr:	; 1 bytes @ 0x26
  1603                           opt subtitle "HI-TECH Software Omniscient Code Generator (Lite mode) build 49521"
  1604  0046                     ___ftmul@exp:	; 1 bytes @ 0x26
  1605  0046                     	ds	1
  1606                           opt subtitle "HI-TECH Software Omniscient Code Generator (Lite mode) build 49521"
  1607  0047                     ___ftdiv@f3:	; 3 bytes @ 0x27
  1608                           opt subtitle "HI-TECH Software Omniscient Code Generator (Lite mode) build 49521"
  1609  0047                     ___ftmul@f3_as_product:	; 3 bytes @ 0x27
  1610  0047                     	ds	1
  1611  0048                     ??_printf:	; 0 bytes @ 0x28
  1612  0048                     	ds	2
  1613                           opt subtitle "HI-TECH Software Omniscient Code Generator (Lite mode) build 49521"
  1614  004A                     ___ftdiv@exp:	; 1 bytes @ 0x2A
  1615                           opt subtitle "HI-TECH Software Omniscient Code Generator (Lite mode) build 49521"
  1616  004A                     ___ftmul@cntr:	; 1 bytes @ 0x2A
  1617  004A                     	ds	1
  1618                           opt subtitle "HI-TECH Software Omniscient Code Generator (Lite mode) build 49521"
  1619  004B                     ?_Send_Packet:	; 0 bytes @ 0x2B
  1620                           opt subtitle "HI-TECH Software Omniscient Code Generator (Lite mode) build 49521"
  1621  004B                     Send_Packet@pbuf:	; 1 bytes @ 0x2B
  1622                           opt subtitle "HI-TECH Software Omniscient Code Generator (Lite mode) build 49521"
  1623  004B                     ___ftdiv@sign:	; 1 bytes @ 0x2B
  1624                           opt subtitle "HI-TECH Software Omniscient Code Generator (Lite mode) build 49521"
  1625  004B                     ___ftmul@sign:	; 1 bytes @ 0x2B
  1626  004B                     	ds	1
  1627  004C                     ??_sleep:	; 0 bytes @ 0x2C
  1628                           opt subtitle "HI-TECH Software Omniscient Code Generator (Lite mode) build 49521"
  1629  004C                     Send_Packet@len:	; 1 bytes @ 0x2C
  1630  004C                     	ds	1
  1631  004D                     ??_Send_Packet:	; 0 bytes @ 0x2D
  1632  004D                     	ds	1
  1633                           opt subtitle "HI-TECH Software Omniscient Code Generator (Lite mode) build 49521"
  1634  004E                     sleep@new_value:	; 1 bytes @ 0x2E
  1635  004E                     	ds	2
  1636                           opt subtitle "HI-TECH Software Omniscient Code Generator (Lite mode) build 49521"
  1637  0050                     RFM70_Initialize@i:	; 1 bytes @ 0x30
  1638  0050                     	ds	1
  1639                           opt subtitle "HI-TECH Software Omniscient Code Generator (Lite mode) build 49521"
  1640  0051                     RFM70_Initialize@j:	; 1 bytes @ 0x31
  1641  0051                     	ds	1
  1642                           opt subtitle "HI-TECH Software Omniscient Code Generator (Lite mode) build 49521"
  1643                           
  1644                           opt pagewidth 120
  1645                           
  1646                           	opt lm
  1647                           
  1648                           	processor	16LF707
  1649                           clrc	macro
  1650                           	bcf	3,0
  1651                           	endm
  1652                           clrz	macro
  1653                           	bcf	3,2
  1654                           	endm
  1655                           setc	macro
  1656                           	bsf	3,0
  1657                           	endm
  1658                           setz	macro
  1659                           	bsf	3,2
  1660                           	endm
  1661                           skipc	macro
  1662                           	btfss	3,0
  1663                           	endm
  1664                           skipz	macro
  1665                           	btfss	3,2
  1666                           	endm
  1667                           skipnc	macro
  1668                           	btfsc	3,0
  1669                           	endm
  1670                           skipnz	macro
  1671                           	btfsc	3,2
  1672                           	endm
  1673                           indf	equ	0
  1674                           indf0	equ	0
  1675                           pc	equ	2
  1676                           pcl	equ	2
  1677                           status	equ	3
  1678                           fsr	equ	4
  1679                           fsr0	equ	4
  1680                           c	equ	1
  1681                           z	equ	0
  1682                           pclath	equ	10
  1683                           # 46 "/Applications/microchip/xc8/v1.12/include/pic16lf707.h"
  1684                           INDF equ 00h ;# 
  1685                           # 52 "/Applications/microchip/xc8/v1.12/include/pic16lf707.h"
  1686                           TMR0 equ 01h ;# 
  1687                           # 58 "/Applications/microchip/xc8/v1.12/include/pic16lf707.h"
  1688                           PCL equ 02h ;# 
  1689                           # 64 "/Applications/microchip/xc8/v1.12/include/pic16lf707.h"
  1690                           STATUS equ 03h ;# 
  1691                           # 151 "/Applications/microchip/xc8/v1.12/include/pic16lf707.h"
  1692                           FSR equ 04h ;# 
  1693                           # 157 "/Applications/microchip/xc8/v1.12/include/pic16lf707.h"
  1694                           PORTA equ 05h ;# 
  1695                           # 346 "/Applications/microchip/xc8/v1.12/include/pic16lf707.h"
  1696                           PORTB equ 06h ;# 
  1697                           # 520 "/Applications/microchip/xc8/v1.12/include/pic16lf707.h"
  1698                           PORTC equ 07h ;# 
  1699                           # 715 "/Applications/microchip/xc8/v1.12/include/pic16lf707.h"
  1700                           PORTD equ 08h ;# 
  1701                           # 834 "/Applications/microchip/xc8/v1.12/include/pic16lf707.h"
  1702                           PORTE equ 09h ;# 
  1703                           # 917 "/Applications/microchip/xc8/v1.12/include/pic16lf707.h"
  1704                           PCLATH equ 0Ah ;# 
  1705                           # 936 "/Applications/microchip/xc8/v1.12/include/pic16lf707.h"
  1706                           INTCON equ 0Bh ;# 
  1707                           # 1013 "/Applications/microchip/xc8/v1.12/include/pic16lf707.h"
  1708                           PIR1 equ 0Ch ;# 
  1709                           # 1074 "/Applications/microchip/xc8/v1.12/include/pic16lf707.h"
  1710                           PIR2 equ 0Dh ;# 
  1711                           # 1118 "/Applications/microchip/xc8/v1.12/include/pic16lf707.h"
  1712                           TMR1 equ 0Eh ;# 
  1713                           # 1124 "/Applications/microchip/xc8/v1.12/include/pic16lf707.h"
  1714                           TMR1L equ 0Eh ;# 
  1715                           # 1130 "/Applications/microchip/xc8/v1.12/include/pic16lf707.h"
  1716                           TMR1H equ 0Fh ;# 
  1717                           # 1136 "/Applications/microchip/xc8/v1.12/include/pic16lf707.h"
  1718                           T1CON equ 010h ;# 
  1719                           # 1214 "/Applications/microchip/xc8/v1.12/include/pic16lf707.h"
  1720                           TMR2 equ 011h ;# 
  1721                           # 1220 "/Applications/microchip/xc8/v1.12/include/pic16lf707.h"
  1722                           T2CON equ 012h ;# 
  1723                           # 1290 "/Applications/microchip/xc8/v1.12/include/pic16lf707.h"
  1724                           SSPBUF equ 013h ;# 
  1725                           # 1296 "/Applications/microchip/xc8/v1.12/include/pic16lf707.h"
  1726                           SSPCON equ 014h ;# 
  1727                           # 1365 "/Applications/microchip/xc8/v1.12/include/pic16lf707.h"
  1728                           CCPR1 equ 015h ;# 
  1729                           # 1371 "/Applications/microchip/xc8/v1.12/include/pic16lf707.h"
  1730                           CCPR1L equ 015h ;# 
  1731                           # 1377 "/Applications/microchip/xc8/v1.12/include/pic16lf707.h"
  1732                           CCPR1H equ 016h ;# 
  1733                           # 1383 "/Applications/microchip/xc8/v1.12/include/pic16lf707.h"
  1734                           CCP1CON equ 017h ;# 
  1735                           # 1446 "/Applications/microchip/xc8/v1.12/include/pic16lf707.h"
  1736                           RCSTA equ 018h ;# 
  1737                           # 1507 "/Applications/microchip/xc8/v1.12/include/pic16lf707.h"
  1738                           TXREG equ 019h ;# 
  1739                           # 1513 "/Applications/microchip/xc8/v1.12/include/pic16lf707.h"
  1740                           RCREG equ 01Ah ;# 
  1741                           # 1519 "/Applications/microchip/xc8/v1.12/include/pic16lf707.h"
  1742                           CCPR2 equ 01Bh ;# 
  1743                           # 1525 "/Applications/microchip/xc8/v1.12/include/pic16lf707.h"
  1744                           CCPR2L equ 01Bh ;# 
  1745                           # 1531 "/Applications/microchip/xc8/v1.12/include/pic16lf707.h"
  1746                           CCPR2H equ 01Ch ;# 
  1747                           # 1537 "/Applications/microchip/xc8/v1.12/include/pic16lf707.h"
  1748                           CCP2CON equ 01Dh ;# 
  1749                           # 1600 "/Applications/microchip/xc8/v1.12/include/pic16lf707.h"
  1750                           ADRES equ 01Eh ;# 
  1751                           # 1606 "/Applications/microchip/xc8/v1.12/include/pic16lf707.h"
  1752                           ADCON0 equ 01Fh ;# 
  1753                           # 1664 "/Applications/microchip/xc8/v1.12/include/pic16lf707.h"
  1754                           OPTION_REG equ 081h ;# 
  1755                           # 1746 "/Applications/microchip/xc8/v1.12/include/pic16lf707.h"
  1756                           TRISA equ 085h ;# 
  1757                           # 1807 "/Applications/microchip/xc8/v1.12/include/pic16lf707.h"
  1758                           TRISB equ 086h ;# 
  1759                           # 1868 "/Applications/microchip/xc8/v1.12/include/pic16lf707.h"
  1760                           TRISC equ 087h ;# 
  1761                           # 1929 "/Applications/microchip/xc8/v1.12/include/pic16lf707.h"
  1762                           TRISD equ 088h ;# 
  1763                           # 1990 "/Applications/microchip/xc8/v1.12/include/pic16lf707.h"
  1764                           TRISE equ 089h ;# 
  1765                           # 2027 "/Applications/microchip/xc8/v1.12/include/pic16lf707.h"
  1766                           PIE1 equ 08Ch ;# 
  1767                           # 2088 "/Applications/microchip/xc8/v1.12/include/pic16lf707.h"
  1768                           PIE2 equ 08Dh ;# 
  1769                           # 2132 "/Applications/microchip/xc8/v1.12/include/pic16lf707.h"
  1770                           PCON equ 08Eh ;# 
  1771                           # 2157 "/Applications/microchip/xc8/v1.12/include/pic16lf707.h"
  1772                           T1GCON equ 08Fh ;# 
  1773                           # 2226 "/Applications/microchip/xc8/v1.12/include/pic16lf707.h"
  1774                           OSCCON equ 090h ;# 
  1775                           # 2273 "/Applications/microchip/xc8/v1.12/include/pic16lf707.h"
  1776                           OSCTUNE equ 091h ;# 
  1777                           # 2292 "/Applications/microchip/xc8/v1.12/include/pic16lf707.h"
  1778                           PR2 equ 092h ;# 
  1779                           # 2298 "/Applications/microchip/xc8/v1.12/include/pic16lf707.h"
  1780                           SSPADD equ 093h ;# 
  1781                           # 2317 "/Applications/microchip/xc8/v1.12/include/pic16lf707.h"
  1782                           SSPMSK equ 093h ;# 
  1783                           # 2336 "/Applications/microchip/xc8/v1.12/include/pic16lf707.h"
  1784                           SSPSTAT equ 094h ;# 
  1785                           # 2397 "/Applications/microchip/xc8/v1.12/include/pic16lf707.h"
  1786                           WPUB equ 095h ;# 
  1787                           # 2458 "/Applications/microchip/xc8/v1.12/include/pic16lf707.h"
  1788                           IOCB equ 096h ;# 
  1789                           # 2519 "/Applications/microchip/xc8/v1.12/include/pic16lf707.h"
  1790                           T3CON equ 097h ;# 
  1791                           # 2585 "/Applications/microchip/xc8/v1.12/include/pic16lf707.h"
  1792                           TXSTA equ 098h ;# 
  1793                           # 2641 "/Applications/microchip/xc8/v1.12/include/pic16lf707.h"
  1794                           SPBRG equ 099h ;# 
  1795                           # 2647 "/Applications/microchip/xc8/v1.12/include/pic16lf707.h"
  1796                           TMR3 equ 09Ah ;# 
  1797                           # 2653 "/Applications/microchip/xc8/v1.12/include/pic16lf707.h"
  1798                           TMR3L equ 09Ah ;# 
  1799                           # 2659 "/Applications/microchip/xc8/v1.12/include/pic16lf707.h"
  1800                           TMR3H equ 09Bh ;# 
  1801                           # 2665 "/Applications/microchip/xc8/v1.12/include/pic16lf707.h"
  1802                           APFCON equ 09Ch ;# 
  1803                           # 2690 "/Applications/microchip/xc8/v1.12/include/pic16lf707.h"
  1804                           FVRCON equ 09Dh ;# 
  1805                           # 2755 "/Applications/microchip/xc8/v1.12/include/pic16lf707.h"
  1806                           T3GCON equ 09Eh ;# 
  1807                           # 2824 "/Applications/microchip/xc8/v1.12/include/pic16lf707.h"
  1808                           ADCON1 equ 09Fh ;# 
  1809                           # 2883 "/Applications/microchip/xc8/v1.12/include/pic16lf707.h"
  1810                           TACON equ 0105h ;# 
  1811                           # 2993 "/Applications/microchip/xc8/v1.12/include/pic16lf707.h"
  1812                           CPSBCON0 equ 0106h ;# 
  1813                           # 3052 "/Applications/microchip/xc8/v1.12/include/pic16lf707.h"
  1814                           CPSBCON1 equ 0107h ;# 
  1815                           # 3097 "/Applications/microchip/xc8/v1.12/include/pic16lf707.h"
  1816                           CPSACON0 equ 0108h ;# 
  1817                           # 3156 "/Applications/microchip/xc8/v1.12/include/pic16lf707.h"
  1818                           CPSACON1 equ 0109h ;# 
  1819                           # 3201 "/Applications/microchip/xc8/v1.12/include/pic16lf707.h"
  1820                           PMDATL equ 010Ch ;# 
  1821                           # 3207 "/Applications/microchip/xc8/v1.12/include/pic16lf707.h"
  1822                           PMADRL equ 010Dh ;# 
  1823                           # 3213 "/Applications/microchip/xc8/v1.12/include/pic16lf707.h"
  1824                           PMDATH equ 010Eh ;# 
  1825                           # 3219 "/Applications/microchip/xc8/v1.12/include/pic16lf707.h"
  1826                           PMADRH equ 010Fh ;# 
  1827                           # 3225 "/Applications/microchip/xc8/v1.12/include/pic16lf707.h"
  1828                           TMRA equ 0110h ;# 
  1829                           # 3231 "/Applications/microchip/xc8/v1.12/include/pic16lf707.h"
  1830                           TBCON equ 0111h ;# 
  1831                           # 3341 "/Applications/microchip/xc8/v1.12/include/pic16lf707.h"
  1832                           TMRB equ 0112h ;# 
  1833                           # 3347 "/Applications/microchip/xc8/v1.12/include/pic16lf707.h"
  1834                           DACCON0 equ 0113h ;# 
  1835                           # 3401 "/Applications/microchip/xc8/v1.12/include/pic16lf707.h"
  1836                           DACCON1 equ 0114h ;# 
  1837                           # 3452 "/Applications/microchip/xc8/v1.12/include/pic16lf707.h"
  1838                           ANSELA equ 0185h ;# 
  1839                           # 3521 "/Applications/microchip/xc8/v1.12/include/pic16lf707.h"
  1840                           ANSELB equ 0186h ;# 
  1841                           # 3590 "/Applications/microchip/xc8/v1.12/include/pic16lf707.h"
  1842                           ANSELC equ 0187h ;# 
  1843                           # 3648 "/Applications/microchip/xc8/v1.12/include/pic16lf707.h"
  1844                           ANSELD equ 0188h ;# 
  1845                           # 3717 "/Applications/microchip/xc8/v1.12/include/pic16lf707.h"
  1846                           ANSELE equ 0189h ;# 
  1847                           # 3756 "/Applications/microchip/xc8/v1.12/include/pic16lf707.h"
  1848                           PMCON1 equ 018Ch ;# 
  1849                           # 46 "/Applications/microchip/xc8/v1.12/include/pic16lf707.h"
  1850                           INDF equ 00h ;# 
  1851                           # 52 "/Applications/microchip/xc8/v1.12/include/pic16lf707.h"
  1852                           TMR0 equ 01h ;# 
  1853                           # 58 "/Applications/microchip/xc8/v1.12/include/pic16lf707.h"
  1854                           PCL equ 02h ;# 
  1855                           # 64 "/Applications/microchip/xc8/v1.12/include/pic16lf707.h"
  1856                           STATUS equ 03h ;# 
  1857                           # 151 "/Applications/microchip/xc8/v1.12/include/pic16lf707.h"
  1858                           FSR equ 04h ;# 
  1859                           # 157 "/Applications/microchip/xc8/v1.12/include/pic16lf707.h"
  1860                           PORTA equ 05h ;# 
  1861                           # 346 "/Applications/microchip/xc8/v1.12/include/pic16lf707.h"
  1862                           PORTB equ 06h ;# 
  1863                           # 520 "/Applications/microchip/xc8/v1.12/include/pic16lf707.h"
  1864                           PORTC equ 07h ;# 
  1865                           # 715 "/Applications/microchip/xc8/v1.12/include/pic16lf707.h"
  1866                           PORTD equ 08h ;# 
  1867                           # 834 "/Applications/microchip/xc8/v1.12/include/pic16lf707.h"
  1868                           PORTE equ 09h ;# 
  1869                           # 917 "/Applications/microchip/xc8/v1.12/include/pic16lf707.h"
  1870                           PCLATH equ 0Ah ;# 
  1871                           # 936 "/Applications/microchip/xc8/v1.12/include/pic16lf707.h"
  1872                           INTCON equ 0Bh ;# 
  1873                           # 1013 "/Applications/microchip/xc8/v1.12/include/pic16lf707.h"
  1874                           PIR1 equ 0Ch ;# 
  1875                           # 1074 "/Applications/microchip/xc8/v1.12/include/pic16lf707.h"
  1876                           PIR2 equ 0Dh ;# 
  1877                           # 1118 "/Applications/microchip/xc8/v1.12/include/pic16lf707.h"
  1878                           TMR1 equ 0Eh ;# 
  1879                           # 1124 "/Applications/microchip/xc8/v1.12/include/pic16lf707.h"
  1880                           TMR1L equ 0Eh ;# 
  1881                           # 1130 "/Applications/microchip/xc8/v1.12/include/pic16lf707.h"
  1882                           TMR1H equ 0Fh ;# 
  1883                           # 1136 "/Applications/microchip/xc8/v1.12/include/pic16lf707.h"
  1884                           T1CON equ 010h ;# 
  1885                           # 1214 "/Applications/microchip/xc8/v1.12/include/pic16lf707.h"
  1886                           TMR2 equ 011h ;# 
  1887                           # 1220 "/Applications/microchip/xc8/v1.12/include/pic16lf707.h"
  1888                           T2CON equ 012h ;# 
  1889                           # 1290 "/Applications/microchip/xc8/v1.12/include/pic16lf707.h"
  1890                           SSPBUF equ 013h ;# 
  1891                           # 1296 "/Applications/microchip/xc8/v1.12/include/pic16lf707.h"
  1892                           SSPCON equ 014h ;# 
  1893                           # 1365 "/Applications/microchip/xc8/v1.12/include/pic16lf707.h"
  1894                           CCPR1 equ 015h ;# 
  1895                           # 1371 "/Applications/microchip/xc8/v1.12/include/pic16lf707.h"
  1896                           CCPR1L equ 015h ;# 
  1897                           # 1377 "/Applications/microchip/xc8/v1.12/include/pic16lf707.h"
  1898                           CCPR1H equ 016h ;# 
  1899                           # 1383 "/Applications/microchip/xc8/v1.12/include/pic16lf707.h"
  1900                           CCP1CON equ 017h ;# 
  1901                           # 1446 "/Applications/microchip/xc8/v1.12/include/pic16lf707.h"
  1902                           RCSTA equ 018h ;# 
  1903                           # 1507 "/Applications/microchip/xc8/v1.12/include/pic16lf707.h"
  1904                           TXREG equ 019h ;# 
  1905                           # 1513 "/Applications/microchip/xc8/v1.12/include/pic16lf707.h"
  1906                           RCREG equ 01Ah ;# 
  1907                           # 1519 "/Applications/microchip/xc8/v1.12/include/pic16lf707.h"
  1908                           CCPR2 equ 01Bh ;# 
  1909                           # 1525 "/Applications/microchip/xc8/v1.12/include/pic16lf707.h"
  1910                           CCPR2L equ 01Bh ;# 
  1911                           # 1531 "/Applications/microchip/xc8/v1.12/include/pic16lf707.h"
  1912                           CCPR2H equ 01Ch ;# 
  1913                           # 1537 "/Applications/microchip/xc8/v1.12/include/pic16lf707.h"
  1914                           CCP2CON equ 01Dh ;# 
  1915                           # 1600 "/Applications/microchip/xc8/v1.12/include/pic16lf707.h"
  1916                           ADRES equ 01Eh ;# 
  1917                           # 1606 "/Applications/microchip/xc8/v1.12/include/pic16lf707.h"
  1918                           ADCON0 equ 01Fh ;# 
  1919                           # 1664 "/Applications/microchip/xc8/v1.12/include/pic16lf707.h"
  1920                           OPTION_REG equ 081h ;# 
  1921                           # 1746 "/Applications/microchip/xc8/v1.12/include/pic16lf707.h"
  1922                           TRISA equ 085h ;# 
  1923                           # 1807 "/Applications/microchip/xc8/v1.12/include/pic16lf707.h"
  1924                           TRISB equ 086h ;# 
  1925                           # 1868 "/Applications/microchip/xc8/v1.12/include/pic16lf707.h"
  1926                           TRISC equ 087h ;# 
  1927                           # 1929 "/Applications/microchip/xc8/v1.12/include/pic16lf707.h"
  1928                           TRISD equ 088h ;# 
  1929                           # 1990 "/Applications/microchip/xc8/v1.12/include/pic16lf707.h"
  1930                           TRISE equ 089h ;# 
  1931                           # 2027 "/Applications/microchip/xc8/v1.12/include/pic16lf707.h"
  1932                           PIE1 equ 08Ch ;# 
  1933                           # 2088 "/Applications/microchip/xc8/v1.12/include/pic16lf707.h"
  1934                           PIE2 equ 08Dh ;# 
  1935                           # 2132 "/Applications/microchip/xc8/v1.12/include/pic16lf707.h"
  1936                           PCON equ 08Eh ;# 
  1937                           # 2157 "/Applications/microchip/xc8/v1.12/include/pic16lf707.h"
  1938                           T1GCON equ 08Fh ;# 
  1939                           # 2226 "/Applications/microchip/xc8/v1.12/include/pic16lf707.h"
  1940                           OSCCON equ 090h ;# 
  1941                           # 2273 "/Applications/microchip/xc8/v1.12/include/pic16lf707.h"
  1942                           OSCTUNE equ 091h ;# 
  1943                           # 2292 "/Applications/microchip/xc8/v1.12/include/pic16lf707.h"
  1944                           PR2 equ 092h ;# 
  1945                           # 2298 "/Applications/microchip/xc8/v1.12/include/pic16lf707.h"
  1946                           SSPADD equ 093h ;# 
  1947                           # 2317 "/Applications/microchip/xc8/v1.12/include/pic16lf707.h"
  1948                           SSPMSK equ 093h ;# 
  1949                           # 2336 "/Applications/microchip/xc8/v1.12/include/pic16lf707.h"
  1950                           SSPSTAT equ 094h ;# 
  1951                           # 2397 "/Applications/microchip/xc8/v1.12/include/pic16lf707.h"
  1952                           WPUB equ 095h ;# 
  1953                           # 2458 "/Applications/microchip/xc8/v1.12/include/pic16lf707.h"
  1954                           IOCB equ 096h ;# 
  1955                           # 2519 "/Applications/microchip/xc8/v1.12/include/pic16lf707.h"
  1956                           T3CON equ 097h ;# 
  1957                           # 2585 "/Applications/microchip/xc8/v1.12/include/pic16lf707.h"
  1958                           TXSTA equ 098h ;# 
  1959                           # 2641 "/Applications/microchip/xc8/v1.12/include/pic16lf707.h"
  1960                           SPBRG equ 099h ;# 
  1961                           # 2647 "/Applications/microchip/xc8/v1.12/include/pic16lf707.h"
  1962                           TMR3 equ 09Ah ;# 
  1963                           # 2653 "/Applications/microchip/xc8/v1.12/include/pic16lf707.h"
  1964                           TMR3L equ 09Ah ;# 
  1965                           # 2659 "/Applications/microchip/xc8/v1.12/include/pic16lf707.h"
  1966                           TMR3H equ 09Bh ;# 
  1967                           # 2665 "/Applications/microchip/xc8/v1.12/include/pic16lf707.h"
  1968                           APFCON equ 09Ch ;# 
  1969                           # 2690 "/Applications/microchip/xc8/v1.12/include/pic16lf707.h"
  1970                           FVRCON equ 09Dh ;# 
  1971                           # 2755 "/Applications/microchip/xc8/v1.12/include/pic16lf707.h"
  1972                           T3GCON equ 09Eh ;# 
  1973                           # 2824 "/Applications/microchip/xc8/v1.12/include/pic16lf707.h"
  1974                           ADCON1 equ 09Fh ;# 
  1975                           # 2883 "/Applications/microchip/xc8/v1.12/include/pic16lf707.h"
  1976                           TACON equ 0105h ;# 
  1977                           # 2993 "/Applications/microchip/xc8/v1.12/include/pic16lf707.h"
  1978                           CPSBCON0 equ 0106h ;# 
  1979                           # 3052 "/Applications/microchip/xc8/v1.12/include/pic16lf707.h"
  1980                           CPSBCON1 equ 0107h ;# 
  1981                           # 3097 "/Applications/microchip/xc8/v1.12/include/pic16lf707.h"
  1982                           CPSACON0 equ 0108h ;# 
  1983                           # 3156 "/Applications/microchip/xc8/v1.12/include/pic16lf707.h"
  1984                           CPSACON1 equ 0109h ;# 
  1985                           # 3201 "/Applications/microchip/xc8/v1.12/include/pic16lf707.h"
  1986                           PMDATL equ 010Ch ;# 
  1987                           # 3207 "/Applications/microchip/xc8/v1.12/include/pic16lf707.h"
  1988                           PMADRL equ 010Dh ;# 
  1989                           # 3213 "/Applications/microchip/xc8/v1.12/include/pic16lf707.h"
  1990                           PMDATH equ 010Eh ;# 
  1991                           # 3219 "/Applications/microchip/xc8/v1.12/include/pic16lf707.h"
  1992                           PMADRH equ 010Fh ;# 
  1993                           # 3225 "/Applications/microchip/xc8/v1.12/include/pic16lf707.h"
  1994                           TMRA equ 0110h ;# 
  1995                           # 3231 "/Applications/microchip/xc8/v1.12/include/pic16lf707.h"
  1996                           TBCON equ 0111h ;# 
  1997                           # 3341 "/Applications/microchip/xc8/v1.12/include/pic16lf707.h"
  1998                           TMRB equ 0112h ;# 
  1999                           # 3347 "/Applications/microchip/xc8/v1.12/include/pic16lf707.h"
  2000                           DACCON0 equ 0113h ;# 
  2001                           # 3401 "/Applications/microchip/xc8/v1.12/include/pic16lf707.h"
  2002                           DACCON1 equ 0114h ;# 
  2003                           # 3452 "/Applications/microchip/xc8/v1.12/include/pic16lf707.h"
  2004                           ANSELA equ 0185h ;# 
  2005                           # 3521 "/Applications/microchip/xc8/v1.12/include/pic16lf707.h"
  2006                           ANSELB equ 0186h ;# 
  2007                           # 3590 "/Applications/microchip/xc8/v1.12/include/pic16lf707.h"
  2008                           ANSELC equ 0187h ;# 
  2009                           # 3648 "/Applications/microchip/xc8/v1.12/include/pic16lf707.h"
  2010                           ANSELD equ 0188h ;# 
  2011                           # 3717 "/Applications/microchip/xc8/v1.12/include/pic16lf707.h"
  2012                           ANSELE equ 0189h ;# 
  2013                           # 3756 "/Applications/microchip/xc8/v1.12/include/pic16lf707.h"
  2014                           PMCON1 equ 018Ch ;# 
  2015                           	FNCALL	_main,_spiInit
  2016                           	FNCALL	_main,_uartInit
  2017                           	FNCALL	_main,_adcInit
  2018                           	FNCALL	_main,_rfm70setPowerdownMode
  2019                           	FNCALL	_main,_printf
  2020                           	FNCALL	_main,_adcReadVcap
  2021                           	FNCALL	_main,_RFM70_Initialize
  2022                           	FNCALL	_main,_adcReadTemp
  2023                           	FNCALL	_main,___wmul
  2024                           	FNCALL	_main,___fttol
  2025                           	FNCALL	_main,_Send_Packet
  2026                           	FNCALL	_main,_sleep
  2027                           	FNCALL	_rfm70setPowerdownMode,_SPI_Read_Reg
  2028                           	FNCALL	_rfm70setPowerdownMode,_SPI_Write_Reg
  2029                           	FNCALL	_RFM70_Initialize,_SwitchCFG
  2030                           	FNCALL	_RFM70_Initialize,_SPI_Write_Reg
  2031                           	FNCALL	_RFM70_Initialize,_SPI_Write_Buf
  2032                           	FNCALL	_RFM70_Initialize,_SPI_Read_Reg
  2033                           	FNCALL	_Send_Packet,_SwitchToTxMode
  2034                           	FNCALL	_Send_Packet,_SPI_Read_Reg
  2035                           	FNCALL	_Send_Packet,_printf
  2036                           	FNCALL	_Send_Packet,_SPI_Write_Buf
  2037                           	FNCALL	_Send_Packet,_rfm70TxDataSentInterrupt
  2038                           	FNCALL	_Send_Packet,_SwitchToRxMode
  2039                           	FNCALL	_Send_Packet,_rfm70TxDataSentErrorInterrupt
  2040                           	FNCALL	_printf,_putch
  2041                           	FNCALL	_printf,___lwdiv
  2042                           	FNCALL	_printf,___lwmod
  2043                           	FNCALL	_rfm70TxDataSentErrorInterrupt,_SPI_Read_Reg
  2044                           	FNCALL	_rfm70TxDataSentErrorInterrupt,_SPI_Write_Reg
  2045                           	FNCALL	_SwitchToRxMode,_SPI_Write_Reg
  2046                           	FNCALL	_SwitchToRxMode,_SPI_Read_Reg
  2047                           	FNCALL	_rfm70TxDataSentInterrupt,_SPI_Read_Reg
  2048                           	FNCALL	_rfm70TxDataSentInterrupt,_SPI_Write_Reg
  2049                           	FNCALL	_SPI_Write_Buf,_SPI_RW
  2050                           	FNCALL	_SwitchToTxMode,_SPI_Write_Reg
  2051                           	FNCALL	_SwitchToTxMode,_SPI_Read_Reg
  2052                           	FNCALL	_sleep,_adcReadVcap
  2053                           	FNCALL	_sleep,___fttol
  2054                           	FNCALL	_sleep,___ftge
  2055                           	FNCALL	_sleep,___ftmul
  2056                           	FNCALL	_sleep,___ftdiv
  2057                           	FNCALL	_SwitchCFG,_SPI_Read_Reg
  2058                           	FNCALL	_SwitchCFG,_SPI_Write_Reg
  2059                           	FNCALL	_SPI_Write_Reg,_SPI_RW
  2060                           	FNCALL	_SPI_Read_Reg,_SPI_RW
  2061                           	FNCALL	___ftmul,___ftpack
  2062                           	FNCALL	___ftdiv,___ftpack
  2063                           	FNROOT	_main
  2064                           	FNCALL	_ISR,i1_printf
  2065                           	FNCALL	i1_printf,i1_putch
  2066                           	FNCALL	i1_printf,i1___lwdiv
  2067                           	FNCALL	i1_printf,i1___lwmod
  2068                           	FNCALL	intlevel1,_ISR
  2069                           	global	intlevel1
  2070                           	FNROOT	intlevel1
  2071                           	global	_tmr1Target
  2072                           	global	_charge_pulse_float
  2073                           	global	_tx_buf
  2074                           psect	idataBANK0,class=CODE,space=0,delta=2
  2075                           global __pidataBANK0
  2076                           __pidataBANK0:
  2077                           	file	"main.c"
  2078                           	line	97
  2079                           
  2080                           ;initializer for _dac_value
  2081                           	retlw	01Ah
  2082                           	retlw	0
  2083                           
  2084                           	line	85
  2085                           
  2086                           ;initializer for _tmr1Target
  2087  0325                     __pmaintext:	;psect for function _main
  2088                           opt subtitle "HI-TECH Software Omniscient Code Generator (Lite mode) build 49521"
  2089                           
  2090                           opt pagewidth 120
  2091                           
  2092  02FD                     	__size_of_main	equ	__end_of_main-_main
  2093                           opt subtitle "HI-TECH Software Omniscient Code Generator (Lite mode) build 49521"
  2094  0325                     _main:	
  2095                           opt subtitle "HI-TECH Software Omniscient Code Generator (Lite mode) build 49521"
  2096                           
  2097                           opt pagewidth 120
  2098                           
  2099  0325                     l3890:	
  2100                           opt subtitle "HI-TECH Software Omniscient Code Generator (Lite mode) build 49521"
  2101  0325  3000               	movlw	0
  2102  0326  1683               	bsf	status, 5	;RP0=1, select bank1
  2103  0327  1303               	bcf	status, 6	;RP1=0, select bank1
  2104  0328  00DA               	movwf	(main@i+3)^080h
  2105  0329  3000               	movlw	0
  2106  032A  00D9               	movwf	(main@i+2)^080h
  2107  032B  3000               	movlw	0
  2108  032C  00D8               	movwf	(main@i+1)^080h
  2109  032D  3000               	movlw	0
  2110  032E  00D7               	movwf	(main@i)^080h
  2111                           opt subtitle "HI-TECH Software Omniscient Code Generator (Lite mode) build 49521"
  2112                           
  2113                           opt pagewidth 120
  2114  032F                     l3892:	
  2115                           opt subtitle "HI-TECH Software Omniscient Code Generator (Lite mode) build 49521"
  2116                           
  2117                           opt pagewidth 120
  2118                           
  2119                           	opt lm
  2120  032F  01D5               	clrf	(main@temp)^080h
  2121  0330  01D6               	clrf	(main@temp+1)^080h
  2122                           opt subtitle "HI-TECH Software Omniscient Code Generator (Lite mode) build 49521"
  2123                           
  2124  0331                     l3894:	
  2125                           opt subtitle "HI-TECH Software Omniscient Code Generator (Lite mode) build 49521"
  2126  0331  0810               	movf	(144)^080h,w	;volatile
  2127  0332  39CF               	andlw	not (((1<<2)-1)<<4)
  2128  0333  3820               	iorlw	(02h & ((1<<2)-1))<<4
  2129  0334  0090               	movwf	(144)^080h	;volatile
  2130                           opt subtitle "HI-TECH Software Omniscient Code Generator (Lite mode) build 49521"
  2131                           
  2132  0335                     l3896:	
  2133                           opt subtitle "HI-TECH Software Omniscient Code Generator (Lite mode) build 49521"
  2134  0335  1683               	bsf	status, 5	;RP0=1, select bank3
  2135  0336  1703               	bsf	status, 6	;RP1=1, select bank3
  2136  0337  1307               	bcf	(391)^0180h,6	;volatile
  2137                           opt subtitle "HI-TECH Software Omniscient Code Generator (Lite mode) build 49521"
  2138                           
  2139  0338                     l3898:	
  2140                           opt subtitle "HI-TECH Software Omniscient Code Generator (Lite mode) build 49521"
  2141  0338  1387               	bcf	(391)^0180h,7	;volatile
  2142                           opt subtitle "HI-TECH Software Omniscient Code Generator (Lite mode) build 49521"
  2143                           
  2144  0339                     l3900:	
  2145                           opt subtitle "HI-TECH Software Omniscient Code Generator (Lite mode) build 49521"
  2146  0339  1683               	bsf	status, 5	;RP0=1, select bank1
  2147  033A  1303               	bcf	status, 6	;RP1=0, select bank1
  2148  033B  1307               	bcf	(135)^080h,6	;volatile
  2149                           opt subtitle "HI-TECH Software Omniscient Code Generator (Lite mode) build 49521"
  2150                           
  2151  033C                     l3902:	
  2152                           opt subtitle "HI-TECH Software Omniscient Code Generator (Lite mode) build 49521"
  2153  033C  1683               	bsf	status, 5	;RP0=1, select bank3
  2154  033D  1703               	bsf	status, 6	;RP1=1, select bank3
  2155  033E  1107               	bcf	(391)^0180h,2	;volatile
  2156                           opt subtitle "HI-TECH Software Omniscient Code Generator (Lite mode) build 49521"
  2157                           
  2158  033F                     l3904:	
  2159                           opt subtitle "HI-TECH Software Omniscient Code Generator (Lite mode) build 49521"
  2160  033F  1108               	bcf	(392)^0180h,2	;volatile
  2161                           opt subtitle "HI-TECH Software Omniscient Code Generator (Lite mode) build 49521"
  2162                           
  2163  0340                     l3906:	
  2164                           opt subtitle "HI-TECH Software Omniscient Code Generator (Lite mode) build 49521"
  2165  0340  1287               	bcf	(391)^0180h,5	;volatile
  2166                           opt subtitle "HI-TECH Software Omniscient Code Generator (Lite mode) build 49521"
  2167                           
  2168  0341                     l3908:	
  2169                           opt subtitle "HI-TECH Software Omniscient Code Generator (Lite mode) build 49521"
  2170  0341  1088               	bcf	(392)^0180h,1	;volatile
  2171                           opt subtitle "HI-TECH Software Omniscient Code Generator (Lite mode) build 49521"
  2172                           
  2173  0342                     l3910:	
  2174                           opt subtitle "HI-TECH Software Omniscient Code Generator (Lite mode) build 49521"
  2175  0342  1683               	bsf	status, 5	;RP0=1, select bank1
  2176  0343  1303               	bcf	status, 6	;RP1=0, select bank1
  2177  0344  1509               	bsf	(137)^080h,2	;volatile
  2178                           opt subtitle "HI-TECH Software Omniscient Code Generator (Lite mode) build 49521"
  2179                           
  2180  0345                     l3912:	
  2181                           opt subtitle "HI-TECH Software Omniscient Code Generator (Lite mode) build 49521"
  2182  0345  1683               	bsf	status, 5	;RP0=1, select bank3
  2183  0346  1703               	bsf	status, 6	;RP1=1, select bank3
  2184  0347  1509               	bsf	(393)^0180h,2	;volatile
  2185                           opt subtitle "HI-TECH Software Omniscient Code Generator (Lite mode) build 49521"
  2186                           
  2187  0348                     l3914:	
  2188                           opt subtitle "HI-TECH Software Omniscient Code Generator (Lite mode) build 49521"
  2189  0348  1683               	bsf	status, 5	;RP0=1, select bank1
  2190  0349  1303               	bcf	status, 6	;RP1=0, select bank1
  2191  034A  1105               	bcf	(133)^080h,2	;volatile
  2192                           opt subtitle "HI-TECH Software Omniscient Code Generator (Lite mode) build 49521"
  2193                           
  2194  034B                     l3916:	
  2195                           opt subtitle "HI-TECH Software Omniscient Code Generator (Lite mode) build 49521"
  2196  034B  1683               	bsf	status, 5	;RP0=1, select bank3
  2197  034C  1703               	bsf	status, 6	;RP1=1, select bank3
  2198  034D  1105               	bcf	(389)^0180h,2	;volatile
  2199                           opt subtitle "HI-TECH Software Omniscient Code Generator (Lite mode) build 49521"
  2200                           
  2201  034E                     l3918:	
  2202                           opt subtitle "HI-TECH Software Omniscient Code Generator (Lite mode) build 49521"
  2203  034E  1283               	bcf	status, 5	;RP0=0, select bank0
  2204  034F  1303               	bcf	status, 6	;RP1=0, select bank0
  2205  0350  1505               	bsf	(5),2	;volatile
  2206                           opt subtitle "HI-TECH Software Omniscient Code Generator (Lite mode) build 49521"
  2207                           
  2208  0351                     l3920:	
  2209                           opt subtitle "HI-TECH Software Omniscient Code Generator (Lite mode) build 49521"
  2210  0351  1683               	bsf	status, 5	;RP0=1, select bank1
  2211  0352  1303               	bcf	status, 6	;RP1=0, select bank1
  2212  0353  1107               	bcf	(135)^080h,2	;volatile
  2213                           opt subtitle "HI-TECH Software Omniscient Code Generator (Lite mode) build 49521"
  2214                           
  2215  0354                     l3922:	
  2216                           opt subtitle "HI-TECH Software Omniscient Code Generator (Lite mode) build 49521"
  2217  0354  1108               	bcf	(136)^080h,2	;volatile
  2218                           opt subtitle "HI-TECH Software Omniscient Code Generator (Lite mode) build 49521"
  2219                           
  2220  0355                     l3924:	
  2221                           opt subtitle "HI-TECH Software Omniscient Code Generator (Lite mode) build 49521"
  2222  0355  1187               	bcf	(135)^080h,3	;volatile
  2223                           opt subtitle "HI-TECH Software Omniscient Code Generator (Lite mode) build 49521"
  2224                           
  2225  0356                     l3926:	
  2226                           opt subtitle "HI-TECH Software Omniscient Code Generator (Lite mode) build 49521"
  2227  0356  1287               	bcf	(135)^080h,5	;volatile
  2228                           opt subtitle "HI-TECH Software Omniscient Code Generator (Lite mode) build 49521"
  2229                           
  2230  0357                     l3928:	
  2231                           opt subtitle "HI-TECH Software Omniscient Code Generator (Lite mode) build 49521"
  2232  0357  1607               	bsf	(135)^080h,4	;volatile
  2233                           opt subtitle "HI-TECH Software Omniscient Code Generator (Lite mode) build 49521"
  2234                           
  2235  0358                     l3930:	
  2236                           opt subtitle "HI-TECH Software Omniscient Code Generator (Lite mode) build 49521"
  2237  0358  1488               	bsf	(136)^080h,1	;volatile
  2238                           opt subtitle "HI-TECH Software Omniscient Code Generator (Lite mode) build 49521"
  2239                           
  2240  0359                     l3932:	
  2241                           opt subtitle "HI-TECH Software Omniscient Code Generator (Lite mode) build 49521"
  2242  0359  1283               	bcf	status, 5	;RP0=0, select bank0
  2243  035A  1303               	bcf	status, 6	;RP1=0, select bank0
  2244  035B  1107               	bcf	(7),2	;volatile
  2245                           opt subtitle "HI-TECH Software Omniscient Code Generator (Lite mode) build 49521"
  2246                           
  2247  035C                     l3934:	
  2248                           opt subtitle "HI-TECH Software Omniscient Code Generator (Lite mode) build 49521"
  2249  035C  1508               	bsf	(8),2	;volatile
  2250                           opt subtitle "HI-TECH Software Omniscient Code Generator (Lite mode) build 49521"
  2251                           
  2252  035D                     l3936:	
  2253                           opt subtitle "HI-TECH Software Omniscient Code Generator (Lite mode) build 49521"
  2254  035D  1187               	bcf	(7),3	;volatile
  2255                           opt subtitle "HI-TECH Software Omniscient Code Generator (Lite mode) build 49521"
  2256                           
  2257  035E                     l3938:	
  2258                           opt subtitle "HI-TECH Software Omniscient Code Generator (Lite mode) build 49521"
  2259  035E  1287               	bcf	(7),5	;volatile
  2260                           opt subtitle "HI-TECH Software Omniscient Code Generator (Lite mode) build 49521"
  2261                           
  2262  035F                     l3940:	
  2263                           opt subtitle "HI-TECH Software Omniscient Code Generator (Lite mode) build 49521"
  2264  035F  1683               	bsf	status, 5	;RP0=1, select bank1
  2265  0360  1303               	bcf	status, 6	;RP1=0, select bank1
  2266  0361  1008               	bcf	(136)^080h,0	;volatile
  2267                           opt subtitle "HI-TECH Software Omniscient Code Generator (Lite mode) build 49521"
  2268                           
  2269  0362                     l3942:	
  2270                           opt subtitle "HI-TECH Software Omniscient Code Generator (Lite mode) build 49521"
  2271  0362  1683               	bsf	status, 5	;RP0=1, select bank3
  2272  0363  1703               	bsf	status, 6	;RP1=1, select bank3
  2273  0364  1008               	bcf	(392)^0180h,0	;volatile
  2274                           opt subtitle "HI-TECH Software Omniscient Code Generator (Lite mode) build 49521"
  2275                           
  2276  0365                     l3944:	
  2277                           opt subtitle "HI-TECH Software Omniscient Code Generator (Lite mode) build 49521"
  2278  0365  1683               	bsf	status, 5	;RP0=1, select bank1
  2279  0366  1303               	bcf	status, 6	;RP1=0, select bank1
  2280  0367  1509               	bsf	(137)^080h,2	;volatile
  2281                           opt subtitle "HI-TECH Software Omniscient Code Generator (Lite mode) build 49521"
  2282                           
  2283  0368                     l3946:	
  2284                           opt subtitle "HI-TECH Software Omniscient Code Generator (Lite mode) build 49521"
  2285  0368  1683               	bsf	status, 5	;RP0=1, select bank3
  2286  0369  1703               	bsf	status, 6	;RP1=1, select bank3
  2287  036A  1509               	bsf	(393)^0180h,2	;volatile
  2288                           opt subtitle "HI-TECH Software Omniscient Code Generator (Lite mode) build 49521"
  2289                           
  2290  036B                     l3948:	
  2291                           opt subtitle "HI-TECH Software Omniscient Code Generator (Lite mode) build 49521"
  2292  036B  1683               	bsf	status, 5	;RP0=1, select bank1
  2293  036C  1303               	bcf	status, 6	;RP1=0, select bank1
  2294  036D  1409               	bsf	(137)^080h,0	;volatile
  2295                           opt subtitle "HI-TECH Software Omniscient Code Generator (Lite mode) build 49521"
  2296                           
  2297  036E                     l3950:	
  2298                           opt subtitle "HI-TECH Software Omniscient Code Generator (Lite mode) build 49521"
  2299  036E  1683               	bsf	status, 5	;RP0=1, select bank3
  2300  036F  1703               	bsf	status, 6	;RP1=1, select bank3
  2301  0370  1009               	bcf	(393)^0180h,0	;volatile
  2302                           opt subtitle "HI-TECH Software Omniscient Code Generator (Lite mode) build 49521"
  2303                           
  2304  0371                     l3952:	
  2305                           opt subtitle "HI-TECH Software Omniscient Code Generator (Lite mode) build 49521"
  2306  0371  1283               	bcf	status, 5	;RP0=0, select bank0
  2307  0372  1303               	bcf	status, 6	;RP1=0, select bank0
  2308  0373  1008               	bcf	(8),0	;volatile
  2309                           opt subtitle "HI-TECH Software Omniscient Code Generator (Lite mode) build 49521"
  2310                           
  2311  0374                     l3954:	
  2312                           opt subtitle "HI-TECH Software Omniscient Code Generator (Lite mode) build 49521"
  2313  0374  1683               	bsf	status, 5	;RP0=1, select bank1
  2314  0375  1303               	bcf	status, 6	;RP1=0, select bank1
  2315  0376  1409               	bsf	(137)^080h,0	;volatile
  2316                           opt subtitle "HI-TECH Software Omniscient Code Generator (Lite mode) build 49521"
  2317                           
  2318  0377                     l3956:	
  2319                           opt subtitle "HI-TECH Software Omniscient Code Generator (Lite mode) build 49521"
  2320  0377  1683               	bsf	status, 5	;RP0=1, select bank3
  2321  0378  1703               	bsf	status, 6	;RP1=1, select bank3
  2322  0379  1409               	bsf	(393)^0180h,0	;volatile
  2323                           opt subtitle "HI-TECH Software Omniscient Code Generator (Lite mode) build 49521"
  2324                           
  2325  037A                     l3958:	
  2326                           opt subtitle "HI-TECH Software Omniscient Code Generator (Lite mode) build 49521"
  2327  037A  1683               	bsf	status, 5	;RP0=1, select bank1
  2328  037B  1303               	bcf	status, 6	;RP1=0, select bank1
  2329  037C  1188               	bcf	(136)^080h,3	;volatile
  2330                           opt subtitle "HI-TECH Software Omniscient Code Generator (Lite mode) build 49521"
  2331                           
  2332  037D                     l3960:	
  2333                           opt subtitle "HI-TECH Software Omniscient Code Generator (Lite mode) build 49521"
  2334  037D  1283               	bcf	status, 5	;RP0=0, select bank0
  2335  037E  1303               	bcf	status, 6	;RP1=0, select bank0
  2336  037F  1188               	bcf	(8),3	;volatile
  2337                           opt subtitle "HI-TECH Software Omniscient Code Generator (Lite mode) build 49521"
  2338                           
  2339  0380                     l3962:	
  2340                           opt subtitle "HI-TECH Software Omniscient Code Generator (Lite mode) build 49521"
  2341  0380  1683               	bsf	status, 5	;RP0=1, select bank1
  2342  0381  1303               	bcf	status, 6	;RP1=0, select bank1
  2343  0382  1688               	bsf	(136)^080h,5	;volatile
  2344                           opt subtitle "HI-TECH Software Omniscient Code Generator (Lite mode) build 49521"
  2345                           
  2346  0383                     l3964:	
  2347                           opt subtitle "HI-TECH Software Omniscient Code Generator (Lite mode) build 49521"
  2348  0383  1683               	bsf	status, 5	;RP0=1, select bank3
  2349  0384  1703               	bsf	status, 6	;RP1=1, select bank3
  2350  0385  1288               	bcf	(392)^0180h,5	;volatile
  2351                           opt subtitle "HI-TECH Software Omniscient Code Generator (Lite mode) build 49521"
  2352                           
  2353  0386                     l3966:	
  2354                           opt subtitle "HI-TECH Software Omniscient Code Generator (Lite mode) build 49521"
  2355  0386  1683               	bsf	status, 5	;RP0=1, select bank1
  2356  0387  1303               	bcf	status, 6	;RP1=0, select bank1
  2357  0388  1708               	bsf	(136)^080h,6	;volatile
  2358                           opt subtitle "HI-TECH Software Omniscient Code Generator (Lite mode) build 49521"
  2359                           
  2360  0389                     l3968:	
  2361                           opt subtitle "HI-TECH Software Omniscient Code Generator (Lite mode) build 49521"
  2362  0389  1788               	bsf	(136)^080h,7	;volatile
  2363                           opt subtitle "HI-TECH Software Omniscient Code Generator (Lite mode) build 49521"
  2364                           
  2365  038A                     l3970:	
  2366                           opt subtitle "HI-TECH Software Omniscient Code Generator (Lite mode) build 49521"
  2367  038A  1683               	bsf	status, 5	;RP0=1, select bank3
  2368  038B  1703               	bsf	status, 6	;RP1=1, select bank3
  2369  038C  1308               	bcf	(392)^0180h,6	;volatile
  2370                           opt subtitle "HI-TECH Software Omniscient Code Generator (Lite mode) build 49521"
  2371                           
  2372  038D                     l3972:	
  2373                           opt subtitle "HI-TECH Software Omniscient Code Generator (Lite mode) build 49521"
  2374  038D  1388               	bcf	(392)^0180h,7	;volatile
  2375                           opt subtitle "HI-TECH Software Omniscient Code Generator (Lite mode) build 49521"
  2376                           
  2377  038E                     l3974:	
  2378                           opt subtitle "HI-TECH Software Omniscient Code Generator (Lite mode) build 49521"
  2379  038E  178B               	bsf	(95/8),(95)&7	;volatile
  2380                           opt subtitle "HI-TECH Software Omniscient Code Generator (Lite mode) build 49521"
  2381                           
  2382  038F                     l3976:	
  2383                           opt subtitle "HI-TECH Software Omniscient Code Generator (Lite mode) build 49521"
  2384  038F  170B               	bsf	(94/8),(94)&7	;volatile
  2385                           opt subtitle "HI-TECH Software Omniscient Code Generator (Lite mode) build 49521"
  2386                           
  2387  0390                     l3978:	
  2388                           opt subtitle "HI-TECH Software Omniscient Code Generator (Lite mode) build 49521"
  2389  0390  1683               	bsf	status, 5	;RP0=1, select bank1
  2390  0391  1303               	bcf	status, 6	;RP1=0, select bank1
  2391  0392  140C               	bsf	(1120/8)^080h,(1120)&7	;volatile
  2392                           opt subtitle "HI-TECH Software Omniscient Code Generator (Lite mode) build 49521"
  2393                           
  2394  0393                     l3980:	
  2395                           opt subtitle "HI-TECH Software Omniscient Code Generator (Lite mode) build 49521"
  2396  0393  3010               	movlw	(010h)
  2397  0394  1283               	bcf	status, 5	;RP0=0, select bank0
  2398  0395  1303               	bcf	status, 6	;RP1=0, select bank0
  2399  0396  008F               	movwf	(15)	;volatile
  2400                           opt subtitle "HI-TECH Software Omniscient Code Generator (Lite mode) build 49521"
  2401                           
  2402  0397                     l3982:	
  2403                           opt subtitle "HI-TECH Software Omniscient Code Generator (Lite mode) build 49521"
  2404  0397  018E               	clrf	(14)	;volatile
  2405                           opt subtitle "HI-TECH Software Omniscient Code Generator (Lite mode) build 49521"
  2406                           
  2407  0398  0810               	movf	(16),w	;volatile
  2408  0399  393F               	andlw	not (((1<<2)-1)<<6)
  2409  039A  3880               	iorlw	(02h & ((1<<2)-1))<<6
  2410  039B  0090               	movwf	(16)	;volatile
  2411                           opt subtitle "HI-TECH Software Omniscient Code Generator (Lite mode) build 49521"
  2412                           
  2413  039C  3030               	movlw	(03h & ((1<<2)-1))<<4
  2414  039D  0490               	iorwf	(16),f	;volatile
  2415                           opt subtitle "HI-TECH Software Omniscient Code Generator (Lite mode) build 49521"
  2416                           
  2417  039E                     l3984:	
  2418                           opt subtitle "HI-TECH Software Omniscient Code Generator (Lite mode) build 49521"
  2419  039E  1683               	bsf	status, 5	;RP0=1, select bank1
  2420  039F  1303               	bcf	status, 6	;RP1=0, select bank1
  2421  03A0  178F               	bsf	(143)^080h,7	;volatile
  2422                           opt subtitle "HI-TECH Software Omniscient Code Generator (Lite mode) build 49521"
  2423                           
  2424  03A1                     l3986:	
  2425                           opt subtitle "HI-TECH Software Omniscient Code Generator (Lite mode) build 49521"
  2426  03A1  1283               	bcf	status, 5	;RP0=0, select bank0
  2427  03A2  1303               	bcf	status, 6	;RP1=0, select bank0
  2428  03A3  1510               	bsf	(16),2	;volatile
  2429                           opt subtitle "HI-TECH Software Omniscient Code Generator (Lite mode) build 49521"
  2430                           
  2431  03A4                     l3988:	
  2432                           opt subtitle "HI-TECH Software Omniscient Code Generator (Lite mode) build 49521"
  2433  03A4  1590               	bsf	(16),3	;volatile
  2434                           opt subtitle "HI-TECH Software Omniscient Code Generator (Lite mode) build 49521"
  2435                           
  2436  03A5                     l3990:	
  2437                           opt subtitle "HI-TECH Software Omniscient Code Generator (Lite mode) build 49521"
  2438  03A5  1410               	bsf	(16),0	;volatile
  2439                           opt subtitle "HI-TECH Software Omniscient Code Generator (Lite mode) build 49521"
  2440                           
  2441  03A6                     l3992:	
  2442                           opt subtitle "HI-TECH Software Omniscient Code Generator (Lite mode) build 49521"
  2443  03A6  1683               	bsf	status, 5	;RP0=1, select bank1
  2444  03A7  1303               	bcf	status, 6	;RP1=0, select bank1
  2445  03A8  1005               	bcf	(133)^080h,0	;volatile
  2446                           opt subtitle "HI-TECH Software Omniscient Code Generator (Lite mode) build 49521"
  2447                           
  2448  03A9                     l3994:	
  2449                           opt subtitle "HI-TECH Software Omniscient Code Generator (Lite mode) build 49521"
  2450  03A9  1085               	bcf	(133)^080h,1	;volatile
  2451                           opt subtitle "HI-TECH Software Omniscient Code Generator (Lite mode) build 49521"
  2452                           
  2453  03AA                     l3996:	
  2454                           opt subtitle "HI-TECH Software Omniscient Code Generator (Lite mode) build 49521"
  2455  03AA  1185               	bcf	(133)^080h,3	;volatile
  2456                           opt subtitle "HI-TECH Software Omniscient Code Generator (Lite mode) build 49521"
  2457                           
  2458  03AB                     l3998:	
  2459                           opt subtitle "HI-TECH Software Omniscient Code Generator (Lite mode) build 49521"
  2460  03AB  1205               	bcf	(133)^080h,4	;volatile
  2461                           opt subtitle "HI-TECH Software Omniscient Code Generator (Lite mode) build 49521"
  2462                           
  2463  03AC                     l4000:	
  2464                           opt subtitle "HI-TECH Software Omniscient Code Generator (Lite mode) build 49521"
  2465  03AC  1285               	bcf	(133)^080h,5	;volatile
  2466                           opt subtitle "HI-TECH Software Omniscient Code Generator (Lite mode) build 49521"
  2467                           
  2468  03AD                     l4002:	
  2469                           opt subtitle "HI-TECH Software Omniscient Code Generator (Lite mode) build 49521"
  2470  03AD  1305               	bcf	(133)^080h,6	;volatile
  2471                           opt subtitle "HI-TECH Software Omniscient Code Generator (Lite mode) build 49521"
  2472                           
  2473  03AE                     l4004:	
  2474                           opt subtitle "HI-TECH Software Omniscient Code Generator (Lite mode) build 49521"
  2475  03AE  1385               	bcf	(133)^080h,7	;volatile
  2476                           opt subtitle "HI-TECH Software Omniscient Code Generator (Lite mode) build 49521"
  2477                           
  2478  03AF                     l4006:	
  2479                           opt subtitle "HI-TECH Software Omniscient Code Generator (Lite mode) build 49521"
  2480  03AF  1683               	bsf	status, 5	;RP0=1, select bank3
  2481  03B0  1703               	bsf	status, 6	;RP1=1, select bank3
  2482  03B1  1005               	bcf	(389)^0180h,0	;volatile
  2483                           opt subtitle "HI-TECH Software Omniscient Code Generator (Lite mode) build 49521"
  2484                           
  2485  03B2                     l4008:	
  2486                           opt subtitle "HI-TECH Software Omniscient Code Generator (Lite mode) build 49521"
  2487  03B2  1085               	bcf	(389)^0180h,1	;volatile
  2488                           opt subtitle "HI-TECH Software Omniscient Code Generator (Lite mode) build 49521"
  2489                           
  2490  03B3                     l4010:	
  2491                           opt subtitle "HI-TECH Software Omniscient Code Generator (Lite mode) build 49521"
  2492  03B3  1185               	bcf	(389)^0180h,3	;volatile
  2493                           opt subtitle "HI-TECH Software Omniscient Code Generator (Lite mode) build 49521"
  2494                           
  2495  03B4                     l4012:	
  2496                           opt subtitle "HI-TECH Software Omniscient Code Generator (Lite mode) build 49521"
  2497  03B4  1205               	bcf	(389)^0180h,4	;volatile
  2498                           opt subtitle "HI-TECH Software Omniscient Code Generator (Lite mode) build 49521"
  2499                           
  2500  03B5                     l4014:	
  2501                           opt subtitle "HI-TECH Software Omniscient Code Generator (Lite mode) build 49521"
  2502  03B5  1285               	bcf	(389)^0180h,5	;volatile
  2503                           opt subtitle "HI-TECH Software Omniscient Code Generator (Lite mode) build 49521"
  2504                           
  2505  03B6                     l4016:	
  2506                           opt subtitle "HI-TECH Software Omniscient Code Generator (Lite mode) build 49521"
  2507  03B6  1305               	bcf	(389)^0180h,6	;volatile
  2508                           opt subtitle "HI-TECH Software Omniscient Code Generator (Lite mode) build 49521"
  2509                           
  2510  03B7                     l4018:	
  2511                           opt subtitle "HI-TECH Software Omniscient Code Generator (Lite mode) build 49521"
  2512  03B7  1385               	bcf	(389)^0180h,7	;volatile
  2513                           opt subtitle "HI-TECH Software Omniscient Code Generator (Lite mode) build 49521"
  2514                           
  2515  03B8                     l4020:	
  2516                           opt subtitle "HI-TECH Software Omniscient Code Generator (Lite mode) build 49521"
  2517  03B8  1283               	bcf	status, 5	;RP0=0, select bank0
  2518  03B9  1303               	bcf	status, 6	;RP1=0, select bank0
  2519  03BA  1005               	bcf	(5),0	;volatile
  2520                           opt subtitle "HI-TECH Software Omniscient Code Generator (Lite mode) build 49521"
  2521                           
  2522  03BB                     l4022:	
  2523                           opt subtitle "HI-TECH Software Omniscient Code Generator (Lite mode) build 49521"
  2524  03BB  1085               	bcf	(5),1	;volatile
  2525                           opt subtitle "HI-TECH Software Omniscient Code Generator (Lite mode) build 49521"
  2526                           
  2527  03BC                     l4024:	
  2528                           opt subtitle "HI-TECH Software Omniscient Code Generator (Lite mode) build 49521"
  2529  03BC  1185               	bcf	(5),3	;volatile
  2530                           opt subtitle "HI-TECH Software Omniscient Code Generator (Lite mode) build 49521"
  2531                           
  2532  03BD                     l4026:	
  2533                           opt subtitle "HI-TECH Software Omniscient Code Generator (Lite mode) build 49521"
  2534  03BD  1205               	bcf	(5),4	;volatile
  2535                           opt subtitle "HI-TECH Software Omniscient Code Generator (Lite mode) build 49521"
  2536                           
  2537  03BE                     l4028:	
  2538                           opt subtitle "HI-TECH Software Omniscient Code Generator (Lite mode) build 49521"
  2539  03BE  1285               	bcf	(5),5	;volatile
  2540                           opt subtitle "HI-TECH Software Omniscient Code Generator (Lite mode) build 49521"
  2541                           
  2542  03BF                     l4030:	
  2543                           opt subtitle "HI-TECH Software Omniscient Code Generator (Lite mode) build 49521"
  2544  03BF  1305               	bcf	(5),6	;volatile
  2545                           opt subtitle "HI-TECH Software Omniscient Code Generator (Lite mode) build 49521"
  2546                           
  2547  03C0                     l4032:	
  2548                           opt subtitle "HI-TECH Software Omniscient Code Generator (Lite mode) build 49521"
  2549  03C0  1385               	bcf	(5),7	;volatile
  2550                           opt subtitle "HI-TECH Software Omniscient Code Generator (Lite mode) build 49521"
  2551                           
  2552  03C1                     l4034:	
  2553                           opt subtitle "HI-TECH Software Omniscient Code Generator (Lite mode) build 49521"
  2554  03C1  1683               	bsf	status, 5	;RP0=1, select bank1
  2555  03C2  1303               	bcf	status, 6	;RP1=0, select bank1
  2556  03C3  1006               	bcf	(134)^080h,0	;volatile
  2557                           opt subtitle "HI-TECH Software Omniscient Code Generator (Lite mode) build 49521"
  2558                           
  2559  03C4                     l4036:	
  2560                           opt subtitle "HI-TECH Software Omniscient Code Generator (Lite mode) build 49521"
  2561  03C4  1086               	bcf	(134)^080h,1	;volatile
  2562                           opt subtitle "HI-TECH Software Omniscient Code Generator (Lite mode) build 49521"
  2563                           
  2564  03C5                     l4038:	
  2565                           opt subtitle "HI-TECH Software Omniscient Code Generator (Lite mode) build 49521"
  2566  03C5  1106               	bcf	(134)^080h,2	;volatile
  2567                           opt subtitle "HI-TECH Software Omniscient Code Generator (Lite mode) build 49521"
  2568                           
  2569  03C6                     l4040:	
  2570                           opt subtitle "HI-TECH Software Omniscient Code Generator (Lite mode) build 49521"
  2571  03C6  1186               	bcf	(134)^080h,3	;volatile
  2572                           opt subtitle "HI-TECH Software Omniscient Code Generator (Lite mode) build 49521"
  2573                           
  2574  03C7                     l4042:	
  2575                           opt subtitle "HI-TECH Software Omniscient Code Generator (Lite mode) build 49521"
  2576  03C7  1206               	bcf	(134)^080h,4	;volatile
  2577                           opt subtitle "HI-TECH Software Omniscient Code Generator (Lite mode) build 49521"
  2578                           
  2579  03C8                     l4044:	
  2580                           opt subtitle "HI-TECH Software Omniscient Code Generator (Lite mode) build 49521"
  2581  03C8  1286               	bcf	(134)^080h,5	;volatile
  2582                           opt subtitle "HI-TECH Software Omniscient Code Generator (Lite mode) build 49521"
  2583                           
  2584  03C9                     l4046:	
  2585                           opt subtitle "HI-TECH Software Omniscient Code Generator (Lite mode) build 49521"
  2586  03C9  1683               	bsf	status, 5	;RP0=1, select bank3
  2587  03CA  1703               	bsf	status, 6	;RP1=1, select bank3
  2588  03CB  1006               	bcf	(390)^0180h,0	;volatile
  2589                           opt subtitle "HI-TECH Software Omniscient Code Generator (Lite mode) build 49521"
  2590                           
  2591  03CC                     l4048:	
  2592                           opt subtitle "HI-TECH Software Omniscient Code Generator (Lite mode) build 49521"
  2593  03CC  1086               	bcf	(390)^0180h,1	;volatile
  2594                           opt subtitle "HI-TECH Software Omniscient Code Generator (Lite mode) build 49521"
  2595                           
  2596  03CD                     l4050:	
  2597                           opt subtitle "HI-TECH Software Omniscient Code Generator (Lite mode) build 49521"
  2598  03CD  1106               	bcf	(390)^0180h,2	;volatile
  2599                           opt subtitle "HI-TECH Software Omniscient Code Generator (Lite mode) build 49521"
  2600                           
  2601  03CE                     l4052:	
  2602                           opt subtitle "HI-TECH Software Omniscient Code Generator (Lite mode) build 49521"
  2603  03CE  1186               	bcf	(390)^0180h,3	;volatile
  2604                           opt subtitle "HI-TECH Software Omniscient Code Generator (Lite mode) build 49521"
  2605                           
  2606  03CF                     l4054:	
  2607                           opt subtitle "HI-TECH Software Omniscient Code Generator (Lite mode) build 49521"
  2608  03CF  1206               	bcf	(390)^0180h,4	;volatile
  2609                           opt subtitle "HI-TECH Software Omniscient Code Generator (Lite mode) build 49521"
  2610                           
  2611  03D0                     l4056:	
  2612                           opt subtitle "HI-TECH Software Omniscient Code Generator (Lite mode) build 49521"
  2613  03D0  1286               	bcf	(390)^0180h,5	;volatile
  2614                           opt subtitle "HI-TECH Software Omniscient Code Generator (Lite mode) build 49521"
  2615                           
  2616  03D1                     l4058:	
  2617                           opt subtitle "HI-TECH Software Omniscient Code Generator (Lite mode) build 49521"
  2618  03D1  1283               	bcf	status, 5	;RP0=0, select bank0
  2619  03D2  1303               	bcf	status, 6	;RP1=0, select bank0
  2620  03D3  1006               	bcf	(6),0	;volatile
  2621                           opt subtitle "HI-TECH Software Omniscient Code Generator (Lite mode) build 49521"
  2622                           
  2623  03D4                     l4060:	
  2624                           opt subtitle "HI-TECH Software Omniscient Code Generator (Lite mode) build 49521"
  2625  03D4  1086               	bcf	(6),1	;volatile
  2626                           opt subtitle "HI-TECH Software Omniscient Code Generator (Lite mode) build 49521"
  2627                           
  2628  03D5                     l4062:	
  2629                           opt subtitle "HI-TECH Software Omniscient Code Generator (Lite mode) build 49521"
  2630  03D5  1106               	bcf	(6),2	;volatile
  2631                           opt subtitle "HI-TECH Software Omniscient Code Generator (Lite mode) build 49521"
  2632                           
  2633  03D6                     l4064:	
  2634                           opt subtitle "HI-TECH Software Omniscient Code Generator (Lite mode) build 49521"
  2635  03D6  1186               	bcf	(6),3	;volatile
  2636                           opt subtitle "HI-TECH Software Omniscient Code Generator (Lite mode) build 49521"
  2637                           
  2638  03D7                     l4066:	
  2639                           opt subtitle "HI-TECH Software Omniscient Code Generator (Lite mode) build 49521"
  2640  03D7  1606               	bsf	(6),4	;volatile
  2641                           opt subtitle "HI-TECH Software Omniscient Code Generator (Lite mode) build 49521"
  2642                           
  2643  03D8                     l4068:	
  2644                           opt subtitle "HI-TECH Software Omniscient Code Generator (Lite mode) build 49521"
  2645  03D8  1286               	bcf	(6),5	;volatile
  2646                           opt subtitle "HI-TECH Software Omniscient Code Generator (Lite mode) build 49521"
  2647                           
  2648  03D9                     l4070:	
  2649                           opt subtitle "HI-TECH Software Omniscient Code Generator (Lite mode) build 49521"
  2650  03D9  1683               	bsf	status, 5	;RP0=1, select bank1
  2651  03DA  1303               	bcf	status, 6	;RP1=0, select bank1
  2652  03DB  1208               	bcf	(136)^080h,4	;volatile
  2653                           opt subtitle "HI-TECH Software Omniscient Code Generator (Lite mode) build 49521"
  2654                           
  2655  03DC                     l4072:	
  2656                           opt subtitle "HI-TECH Software Omniscient Code Generator (Lite mode) build 49521"
  2657  03DC  1683               	bsf	status, 5	;RP0=1, select bank3
  2658  03DD  1703               	bsf	status, 6	;RP1=1, select bank3
  2659  03DE  1208               	bcf	(392)^0180h,4	;volatile
  2660                           opt subtitle "HI-TECH Software Omniscient Code Generator (Lite mode) build 49521"
  2661                           
  2662  03DF                     l4074:	
  2663                           opt subtitle "HI-TECH Software Omniscient Code Generator (Lite mode) build 49521"
  2664  03DF  1283               	bcf	status, 5	;RP0=0, select bank0
  2665  03E0  1303               	bcf	status, 6	;RP1=0, select bank0
  2666  03E1  1208               	bcf	(8),4	;volatile
  2667                           opt subtitle "HI-TECH Software Omniscient Code Generator (Lite mode) build 49521"
  2668                           
  2669  03E2                     l4076:	
  2670                           opt subtitle "HI-TECH Software Omniscient Code Generator (Lite mode) build 49521"
  2671  03E2  1683               	bsf	status, 5	;RP0=1, select bank1
  2672  03E3  1303               	bcf	status, 6	;RP1=0, select bank1
  2673  03E4  1489               	bsf	(137)^080h,1	;volatile
  2674                           opt subtitle "HI-TECH Software Omniscient Code Generator (Lite mode) build 49521"
  2675                           
  2676  03E5                     l4078:	
  2677                           opt subtitle "HI-TECH Software Omniscient Code Generator (Lite mode) build 49521"
  2678  03E5  1683               	bsf	status, 5	;RP0=1, select bank3
  2679  03E6  1703               	bsf	status, 6	;RP1=1, select bank3
  2680  03E7  1489               	bsf	(393)^0180h,1	;volatile
  2681                           opt subtitle "HI-TECH Software Omniscient Code Generator (Lite mode) build 49521"
  2682                           
  2683  03E8                     l4080:	
  2684                           opt subtitle "HI-TECH Software Omniscient Code Generator (Lite mode) build 49521"
  2685  03E8  1283               	bcf	status, 5	;RP0=0, select bank0
  2686  03E9  1303               	bcf	status, 6	;RP1=0, select bank0
  2687  03EA  1089               	bcf	(9),1	;volatile
  2688                           opt subtitle "HI-TECH Software Omniscient Code Generator (Lite mode) build 49521"
  2689                           
  2690  03EB                     l4082:	
  2691                           opt subtitle "HI-TECH Software Omniscient Code Generator (Lite mode) build 49521"
  2692  03EB  160A  118A  24DC   	fcall	_spiInit
              120A  118A         
  2693                           opt subtitle "HI-TECH Software Omniscient Code Generator (Lite mode) build 49521"
  2694                           
  2695  03F0                     l4084:	
  2696                           opt subtitle "HI-TECH Software Omniscient Code Generator (Lite mode) build 49521"
  2697  03F0  160A  118A  24C6   	fcall	_uartInit
              120A  118A         
  2698                           opt subtitle "HI-TECH Software Omniscient Code Generator (Lite mode) build 49521"
  2699                           
  2700  03F5                     l4086:	
  2701                           opt subtitle "HI-TECH Software Omniscient Code Generator (Lite mode) build 49521"
  2702  03F5  160A  118A  247C   	fcall	_adcInit
              120A  118A         
  2703                           opt subtitle "HI-TECH Software Omniscient Code Generator (Lite mode) build 49521"
  2704                           
  2705  03FA                     l4088:	
  2706                           opt subtitle "HI-TECH Software Omniscient Code Generator (Lite mode) build 49521"
  2707  03FA  3000               	movlw	(0)
  2708  03FB  160A  118A  2564   	fcall	_rfm70setPowerdownMode
              120A  118A         
  2709                           opt subtitle "HI-TECH Software Omniscient Code Generator (Lite mode) build 49521"
  2710                           
  2711  0400                     l4090:	
  2712                           opt subtitle "HI-TECH Software Omniscient Code Generator (Lite mode) build 49521"
  2713  0400  1283               	bcf	status, 5	;RP0=0, select bank0
  2714  0401  1303               	bcf	status, 6	;RP1=0, select bank0
  2715  0402  0808               	movf	(8),w	;volatile
  2716  0403  1683               	bsf	status, 5	;RP0=1, select bank1
  2717  0404  1303               	bcf	status, 6	;RP1=0, select bank1
  2718  0405  00B0               	movwf	(??_main+0)^080h+0
  2719  0406  3006               	movlw	06h
  2720  0407                     u3985:
  2721  0407  1003               	clrc
  2722  0408  0CB0               	rrf	(??_main+0)^080h+0,f
  2723  0409  3EFF               	addlw	-1
  2724  040A  1D03               	skipz
  2725  040B  2C07               	goto	u3985
  2726  040C  0830               	movf	0+(??_main+0)^080h+0,w
  2727  040D  3903               	andlw	03h
  2728  040E  00B1               	movwf	(??_main+1)^080h+0
  2729  040F  0831               	movf	(??_main+1)^080h+0,w
  2730  0410  1283               	bcf	status, 5	;RP0=0, select bank0
  2731  0411  1303               	bcf	status, 6	;RP1=0, select bank0
  2732  0412  00D6               	movwf	(_sleep_counter)
  2733                           opt subtitle "HI-TECH Software Omniscient Code Generator (Lite mode) build 49521"
  2734                           
  2735  0413                     l4092:	
  2736                           opt subtitle "HI-TECH Software Omniscient Code Generator (Lite mode) build 49521"
  2737  0413  3026               	movlw	low(STR_2|8000h)
  2738  0414  00C2               	movwf	(?_printf)
  2739  0415  3091               	movlw	high(STR_2|8000h)
  2740  0416  00C3               	movwf	((?_printf))+1
  2741  0417  0856               	movf	(_sleep_counter),w
  2742  0418  1683               	bsf	status, 5	;RP0=1, select bank1
  2743  0419  1303               	bcf	status, 6	;RP1=0, select bank1
  2744  041A  00B0               	movwf	(??_main+0)^080h+0+0
  2745  041B  01B1               	clrf	(??_main+0)^080h+0+1
  2746  041C  0830               	movf	0+(??_main+0)^080h+0,w
  2747  041D  1283               	bcf	status, 5	;RP0=0, select bank0
  2748  041E  1303               	bcf	status, 6	;RP1=0, select bank0
  2749  041F  00C4               	movwf	0+(?_printf)+02h
  2750  0420  1683               	bsf	status, 5	;RP0=1, select bank1
  2751  0421  1303               	bcf	status, 6	;RP1=0, select bank1
  2752  0422  0831               	movf	1+(??_main+0)^080h+0,w
  2753  0423  1283               	bcf	status, 5	;RP0=0, select bank0
  2754  0424  1303               	bcf	status, 6	;RP1=0, select bank0
  2755  0425  00C5               	movwf	1+(?_printf)+02h
  2756  0426  120A  158A  2600   	fcall	_printf
              120A  118A         
  2757                           opt subtitle "HI-TECH Software Omniscient Code Generator (Lite mode) build 49521"
  2758                           
  2759  042B  0063               sleep ;# 
  2760                           opt subtitle "HI-TECH Software Omniscient Code Generator (Lite mode) build 49521"
  2761                           
  2762                           opt pagewidth 120
  2763  042C                     l4094:	
  2764                           opt subtitle "HI-TECH Software Omniscient Code Generator (Lite mode) build 49521"
  2765  042C  160A  118A  25DD   	fcall	_adcReadVcap
              120A  118A         
  2766  0431  1683               	bsf	status, 5	;RP0=1, select bank1
  2767  0432  1303               	bcf	status, 6	;RP1=0, select bank1
  2768  0433  00B0               	movwf	(??_main+0)^080h+0+0
  2769  0434  01B1               	clrf	(??_main+0)^080h+0+1
  2770  0435  0830               	movf	0+(??_main+0)^080h+0,w
  2771  0436  00E8               	movwf	(_value)^080h
  2772  0437  0831               	movf	1+(??_main+0)^080h+0,w
  2773  0438  00E9               	movwf	(_value+1)^080h
  2774                           opt subtitle "HI-TECH Software Omniscient Code Generator (Lite mode) build 49521"
  2775                           
  2776  0439  2C62               	goto	l4100
  2777                           opt subtitle "HI-TECH Software Omniscient Code Generator (Lite mode) build 49521"
  2778  043A                     l167:	
  2779                           opt subtitle "HI-TECH Software Omniscient Code Generator (Lite mode) build 49521"
  2780                           
  2781  043A  0063               sleep ;# 
  2782                           opt subtitle "HI-TECH Software Omniscient Code Generator (Lite mode) build 49521"
  2783                           
  2784                           opt pagewidth 120
  2785  043B                     l4096:	
  2786                           opt subtitle "HI-TECH Software Omniscient Code Generator (Lite mode) build 49521"
  2787  043B  160A  118A  25DD   	fcall	_adcReadVcap
              120A  118A         
  2788  0440  1683               	bsf	status, 5	;RP0=1, select bank1
  2789  0441  1303               	bcf	status, 6	;RP1=0, select bank1
  2790  0442  00B0               	movwf	(??_main+0)^080h+0+0
  2791  0443  01B1               	clrf	(??_main+0)^080h+0+1
  2792  0444  0830               	movf	0+(??_main+0)^080h+0,w
  2793  0445  00E8               	movwf	(_value)^080h
  2794  0446  0831               	movf	1+(??_main+0)^080h+0,w
  2795  0447  00E9               	movwf	(_value+1)^080h
  2796                           opt subtitle "HI-TECH Software Omniscient Code Generator (Lite mode) build 49521"
  2797                           
  2798  0448                     l4098:	
  2799                           opt subtitle "HI-TECH Software Omniscient Code Generator (Lite mode) build 49521"
  2800  0448  30FA               	movlw	low(STR_3|8000h)
  2801  0449  1283               	bcf	status, 5	;RP0=0, select bank0
  2802  044A  1303               	bcf	status, 6	;RP1=0, select bank0
  2803  044B  00C2               	movwf	(?_printf)
  2804  044C  3090               	movlw	high(STR_3|8000h)
  2805  044D  00C3               	movwf	((?_printf))+1
  2806  044E  1683               	bsf	status, 5	;RP0=1, select bank1
  2807  044F  1303               	bcf	status, 6	;RP1=0, select bank1
  2808  0450  0869               	movf	(_value+1)^080h,w
  2809  0451  1283               	bcf	status, 5	;RP0=0, select bank0
  2810  0452  1303               	bcf	status, 6	;RP1=0, select bank0
  2811  0453  01C5               	clrf	1+(?_printf)+02h
  2812  0454  07C5               	addwf	1+(?_printf)+02h
  2813  0455  1683               	bsf	status, 5	;RP0=1, select bank1
  2814  0456  1303               	bcf	status, 6	;RP1=0, select bank1
  2815  0457  0868               	movf	(_value)^080h,w
  2816  0458  1283               	bcf	status, 5	;RP0=0, select bank0
  2817  0459  1303               	bcf	status, 6	;RP1=0, select bank0
  2818  045A  01C4               	clrf	0+(?_printf)+02h
  2819  045B  07C4               	addwf	0+(?_printf)+02h
  2820                           opt subtitle "HI-TECH Software Omniscient Code Generator (Lite mode) build 49521"
  2821  045C  120A  158A  2600   	fcall	_printf
              120A  118A         
  2822  0461  2C62               	goto	l4100
  2823                           opt subtitle "HI-TECH Software Omniscient Code Generator (Lite mode) build 49521"
  2824                           
  2825  0462                     l166:	
  2826                           opt subtitle "HI-TECH Software Omniscient Code Generator (Lite mode) build 49521"
  2827                           
  2828  0462                     l4100:	
  2829  0462  3000               	movlw	high(058h)
  2830  0463  1683               	bsf	status, 5	;RP0=1, select bank1
  2831  0464  1303               	bcf	status, 6	;RP1=0, select bank1
  2832  0465  0269               	subwf	(_value+1)^080h,w
  2833  0466  3058               	movlw	low(058h)
  2834  0467  1903               	skipnz
  2835  0468  0268               	subwf	(_value)^080h,w
  2836  0469  1803               	skipnc
  2837  046A  2C6C               	goto	u3991
  2838  046B  2C6D               	goto	u3990
  2839  046C                     u3991:
  2840  046C  2C75               	goto	l4104
  2841  046D                     u3990:
  2842                           opt subtitle "HI-TECH Software Omniscient Code Generator (Lite mode) build 49521"
  2843  046D                     l4102:	
  2844  046D  1283               	bcf	status, 5	;RP0=0, select bank0
  2845  046E  1303               	bcf	status, 6	;RP1=0, select bank0
  2846  046F  1E88               	btfss	(8),5	;volatile
  2847  0470  2C72               	goto	u4001
  2848  0471  2C73               	goto	u4000
  2849  0472                     u4001:
  2850  0472  2C3A               	goto	l167
  2851  0473                     u4000:
  2852  0473  2C75               	goto	l4104
  2853                           opt subtitle "HI-TECH Software Omniscient Code Generator (Lite mode) build 49521"
  2854  0474                     l169:	
  2855  0474  2C75               	goto	l4104
  2856                           opt subtitle "HI-TECH Software Omniscient Code Generator (Lite mode) build 49521"
  2857  0475                     l170:	
  2858                           opt subtitle "HI-TECH Software Omniscient Code Generator (Lite mode) build 49521"
  2859                           
  2860  0475                     l4104:	
  2861                           opt subtitle "HI-TECH Software Omniscient Code Generator (Lite mode) build 49521"
  2862                           
  2863  0475  30A3               	movlw	low(STR_4|8000h)
  2864  0476  1283               	bcf	status, 5	;RP0=0, select bank0
  2865  0477  00C2               	movwf	(?_printf)
  2866  0478  3090               	movlw	high(STR_4|8000h)
  2867  0479  00C3               	movwf	((?_printf))+1
  2868  047A  1683               	bsf	status, 5	;RP0=1, select bank1
  2869  047B  1303               	bcf	status, 6	;RP1=0, select bank1
  2870  047C  0869               	movf	(_value+1)^080h,w
  2871  047D  1283               	bcf	status, 5	;RP0=0, select bank0
  2872  047E  1303               	bcf	status, 6	;RP1=0, select bank0
  2873  047F  01C5               	clrf	1+(?_printf)+02h
  2874  0480  07C5               	addwf	1+(?_printf)+02h
  2875  0481  1683               	bsf	status, 5	;RP0=1, select bank1
  2876  0482  1303               	bcf	status, 6	;RP1=0, select bank1
  2877  0483  0868               	movf	(_value)^080h,w
  2878  0484  1283               	bcf	status, 5	;RP0=0, select bank0
  2879  0485  1303               	bcf	status, 6	;RP1=0, select bank0
  2880  0486  01C4               	clrf	0+(?_printf)+02h
  2881  0487  07C4               	addwf	0+(?_printf)+02h
  2882                           opt subtitle "HI-TECH Software Omniscient Code Generator (Lite mode) build 49521"
  2883  0488  120A  158A  2600   	fcall	_printf
              120A  118A         
  2884                           opt subtitle "HI-TECH Software Omniscient Code Generator (Lite mode) build 49521"
  2885                           
  2886  048D                     l4106:	
  2887                           opt subtitle "HI-TECH Software Omniscient Code Generator (Lite mode) build 49521"
  2888  048D  120A  118A  2015   	fcall	_RFM70_Initialize
              120A  118A         
  2889                           opt subtitle "HI-TECH Software Omniscient Code Generator (Lite mode) build 49521"
  2890                           
  2891  0492                     l4108:	
  2892                           opt subtitle "HI-TECH Software Omniscient Code Generator (Lite mode) build 49521"
  2893  0492  3000               	movlw	(0)
  2894  0493  160A  118A  2564   	fcall	_rfm70setPowerdownMode
              120A  118A         
  2895                           opt subtitle "HI-TECH Software Omniscient Code Generator (Lite mode) build 49521"
  2896                           
  2897  0498  0063               sleep ;# 
  2898                           opt subtitle "HI-TECH Software Omniscient Code Generator (Lite mode) build 49521"
  2899                           
  2900                           opt pagewidth 120
  2901  0499                     l4110:	
  2902                           opt subtitle "HI-TECH Software Omniscient Code Generator (Lite mode) build 49521"
  2903  0499  1683               	bsf	status, 5	;RP0=1, select bank1
  2904  049A  1303               	bcf	status, 6	;RP1=0, select bank1
  2905  049B  01E6               	clrf	(_timelapse_count)^080h
  2906  049C  01E7               	clrf	(_timelapse_count+1)^080h
  2907  049D  2C9E               	goto	l4112
  2908                           opt subtitle "HI-TECH Software Omniscient Code Generator (Lite mode) build 49521"
  2909                           
  2910                           opt pagewidth 120
  2911  049E                     l171:	
  2912                           opt subtitle "HI-TECH Software Omniscient Code Generator (Lite mode) build 49521"
  2913                           
  2914  049E                     l4112:	
  2915                           opt subtitle "HI-TECH Software Omniscient Code Generator (Lite mode) build 49521"
  2916  049E  3001               	movlw	(01h)
  2917  049F  160A  118A  2564   	fcall	_rfm70setPowerdownMode
              120A  118A         
  2918                           opt subtitle "HI-TECH Software Omniscient Code Generator (Lite mode) build 49521"
  2919                           
  2920  04A4                     l4114:	
  2921                           opt subtitle "HI-TECH Software Omniscient Code Generator (Lite mode) build 49521"
  2922  04A4  3000               	movlw	0
  2923  04A5  1683               	bsf	status, 5	;RP0=1, select bank1
  2924  04A6  1303               	bcf	status, 6	;RP1=0, select bank1
  2925  04A7  00DA               	movwf	(main@i+3)^080h
  2926  04A8  3000               	movlw	0
  2927  04A9  00D9               	movwf	(main@i+2)^080h
  2928  04AA  3000               	movlw	0
  2929  04AB  00D8               	movwf	(main@i+1)^080h
  2930  04AC  3000               	movlw	0
  2931  04AD  00D7               	movwf	(main@i)^080h
  2932                           opt subtitle "HI-TECH Software Omniscient Code Generator (Lite mode) build 49521"
  2933                           
  2934  04AE                     l4116:	
  2935  04AE  085A               	movf	(main@i+3)^080h,w
  2936  04AF  3A80               	xorlw	80h
  2937  04B0  00FF               	movwf	btemp+1
  2938  04B1  3000               	movlw	0
  2939  04B2  3A80               	xorlw	80h
  2940  04B3  027F               	subwf	btemp+1,w
  2941                           opt subtitle "HI-TECH Software Omniscient Code Generator (Lite mode) build 49521"
  2942  04B4  1D03               	skipz
  2943  04B5  2CC0               	goto	u4013
  2944  04B6  3000               	movlw	0
  2945  04B7  0259               	subwf	(main@i+2)^080h,w
  2946  04B8  1D03               	skipz
  2947  04B9  2CC0               	goto	u4013
  2948  04BA  3000               	movlw	0
  2949  04BB  0258               	subwf	(main@i+1)^080h,w
  2950  04BC  1D03               	skipz
  2951  04BD  2CC0               	goto	u4013
  2952  04BE  3002               	movlw	02h
  2953  04BF  0257               	subwf	(main@i)^080h,w
  2954  04C0                     u4013:
  2955  04C0  1C03               	skipc
  2956  04C1  2CC3               	goto	u4011
  2957  04C2  2CC4               	goto	u4010
  2958  04C3                     u4011:
  2959  04C3  2CC6               	goto	l4120
  2960  04C4                     u4010:
  2961  04C4  2CF6               	goto	l4126
  2962                           opt subtitle "HI-TECH Software Omniscient Code Generator (Lite mode) build 49521"
  2963  04C5                     l4118:	
  2964  04C5  2CF6               	goto	l4126
  2965                           opt subtitle "HI-TECH Software Omniscient Code Generator (Lite mode) build 49521"
  2966  04C6                     l172:	
  2967                           opt subtitle "HI-TECH Software Omniscient Code Generator (Lite mode) build 49521"
  2968                           
  2969  04C6                     l4120:	
  2970                           opt subtitle "HI-TECH Software Omniscient Code Generator (Lite mode) build 49521"
  2971  04C6  0857               	movf	(main@i)^080h,w
  2972  04C7  3EDE               	addlw	_tx_buf&0ffh
  2973  04C8  0084               	movwf	fsr0
  2974  04C9  1383               	bcf	status, 7	;select IRP bank1
  2975  04CA  0800               	movf	indf,w
  2976  04CB  00B0               	movwf	(??_main+0)^080h+0
  2977  04CC  0857               	movf	(main@i)^080h,w
  2978  04CD  3EB4               	addlw	main@temp_tx_buf&0ffh
  2979  04CE  0084               	movwf	fsr0
  2980  04CF  0830               	movf	(??_main+0)^080h+0,w
  2981  04D0  0080               	movwf	indf
  2982                           opt subtitle "HI-TECH Software Omniscient Code Generator (Lite mode) build 49521"
  2983                           
  2984  04D1                     l4122:	
  2985  04D1  3001               	movlw	01h
  2986  04D2  07D7               	addwf	(main@i)^080h,f
  2987  04D3  3000               	movlw	0
  2988  04D4  1803               	skipnc
  2989  04D5  3001               movlw 1
  2990  04D6  07D8               	addwf	(main@i+1)^080h,f
  2991  04D7  3000               	movlw	0
  2992  04D8  1803               	skipnc
  2993  04D9  3001               movlw 1
  2994  04DA  07D9               	addwf	(main@i+2)^080h,f
  2995  04DB  3000               	movlw	0
  2996  04DC  1803               	skipnc
  2997  04DD  3001               movlw 1
  2998  04DE  07DA               	addwf	(main@i+3)^080h,f
  2999                           opt subtitle "HI-TECH Software Omniscient Code Generator (Lite mode) build 49521"
  3000  04DF                     l4124:	
  3001  04DF  085A               	movf	(main@i+3)^080h,w
  3002  04E0  3A80               	xorlw	80h
  3003  04E1  00FF               	movwf	btemp+1
  3004  04E2  3000               	movlw	0
  3005  04E3  3A80               	xorlw	80h
  3006  04E4  027F               	subwf	btemp+1,w
  3007                           opt subtitle "HI-TECH Software Omniscient Code Generator (Lite mode) build 49521"
  3008  04E5  1D03               	skipz
  3009  04E6  2CF1               	goto	u4023
  3010  04E7  3000               	movlw	0
  3011  04E8  0259               	subwf	(main@i+2)^080h,w
  3012  04E9  1D03               	skipz
  3013  04EA  2CF1               	goto	u4023
  3014  04EB  3000               	movlw	0
  3015  04EC  0258               	subwf	(main@i+1)^080h,w
  3016  04ED  1D03               	skipz
  3017  04EE  2CF1               	goto	u4023
  3018  04EF  3002               	movlw	02h
  3019  04F0  0257               	subwf	(main@i)^080h,w
  3020  04F1                     u4023:
  3021  04F1  1C03               	skipc
  3022  04F2  2CF4               	goto	u4021
  3023  04F3  2CF5               	goto	u4020
  3024  04F4                     u4021:
  3025  04F4  2CC6               	goto	l4120
  3026  04F5                     u4020:
  3027  04F5  2CF6               	goto	l4126
  3028                           opt subtitle "HI-TECH Software Omniscient Code Generator (Lite mode) build 49521"
  3029  04F6                     l173:	
  3030                           opt subtitle "HI-TECH Software Omniscient Code Generator (Lite mode) build 49521"
  3031                           
  3032  04F6                     l4126:	
  3033                           opt subtitle "HI-TECH Software Omniscient Code Generator (Lite mode) build 49521"
  3034                           
  3035  04F6  160A  118A  2608   	fcall	_adcReadTemp
              120A  118A         
  3036  04FB  1683               	bsf	status, 5	;RP0=1, select bank1
  3037  04FC  1303               	bcf	status, 6	;RP1=0, select bank1
  3038  04FD  00B0               	movwf	(??_main+0)^080h+0
  3039  04FE  0830               	movf	(??_main+0)^080h+0,w
  3040  04FF  00DE               	movwf	(_tx_buf)^080h
  3041                           opt subtitle "HI-TECH Software Omniscient Code Generator (Lite mode) build 49521"
  3042                           
  3043  0500  160A  118A  25DD   	fcall	_adcReadVcap
              120A  118A         
  3044  0505  1683               	bsf	status, 5	;RP0=1, select bank1
  3045  0506  1303               	bcf	status, 6	;RP1=0, select bank1
  3046  0507  00B0               	movwf	(??_main+0)^080h+0
  3047  0508  0830               	movf	(??_main+0)^080h+0,w
  3048  0509  00DF               	movwf	0+(_tx_buf)^080h+01h
  3049                           opt subtitle "HI-TECH Software Omniscient Code Generator (Lite mode) build 49521"
  3050                           
  3051  050A                     l4128:	
  3052                           opt subtitle "HI-TECH Software Omniscient Code Generator (Lite mode) build 49521"
  3053  050A  0866               	movf	(_timelapse_count)^080h,w
  3054  050B  00B0               	movwf	(??_main+0)^080h+0
  3055  050C  0830               	movf	(??_main+0)^080h+0,w
  3056  050D  00E0               	movwf	0+(_tx_buf)^080h+02h
  3057                           opt subtitle "HI-TECH Software Omniscient Code Generator (Lite mode) build 49521"
  3058                           
  3059  050E                     l4130:	
  3060                           opt subtitle "HI-TECH Software Omniscient Code Generator (Lite mode) build 49521"
  3061  050E  0867               	movf	(_timelapse_count+1)^080h,w
  3062  050F  00B0               	movwf	(??_main+0)^080h+0
  3063  0510  0830               	movf	(??_main+0)^080h+0,w
  3064  0511  00E1               	movwf	0+(_tx_buf)^080h+03h
  3065                           opt subtitle "HI-TECH Software Omniscient Code Generator (Lite mode) build 49521"
  3066                           
  3067  0512                     l4132:	
  3068                           opt subtitle "HI-TECH Software Omniscient Code Generator (Lite mode) build 49521"
  3069  0512  086C               	movf	(_jumper_stat)^080h,w
  3070  0513  00B0               	movwf	(??_main+0)^080h+0
  3071  0514  0830               	movf	(??_main+0)^080h+0,w
  3072  0515  00E2               	movwf	0+(_tx_buf)^080h+04h
  3073                           opt subtitle "HI-TECH Software Omniscient Code Generator (Lite mode) build 49521"
  3074                           
  3075  0516                     l4134:	
  3076                           opt subtitle "HI-TECH Software Omniscient Code Generator (Lite mode) build 49521"
  3077  0516  086B               	movf	0+(_values)^080h+01h,w
  3078  0517  00B0               	movwf	(??_main+0)^080h+0+0
  3079  0518  01B1               	clrf	(??_main+0)^080h+0+1
  3080  0519  09B0               	comf	(??_main+0)^080h+0,f
  3081  051A  09B1               	comf	(??_main+0)^080h+1,f
  3082  051B  0AB0               	incf	(??_main+0)^080h+0,f
  3083  051C  1903               	skipnz
  3084  051D  0AB1               	incf	(??_main+0)^080h+1,f
  3085  051E  086A               	movf	(_values)^080h,w
  3086  051F  0730               	addwf	0+(??_main+0)^080h+0,w
  3087  0520  1283               	bcf	status, 5	;RP0=0, select bank0
  3088  0521  1303               	bcf	status, 6	;RP1=0, select bank0
  3089  0522  00B4               	movwf	(?___wmul)
  3090  0523  1683               	bsf	status, 5	;RP0=1, select bank1
  3091  0524  1303               	bcf	status, 6	;RP1=0, select bank1
  3092  0525  0831               	movf	1+(??_main+0)^080h+0,w
  3093  0526  1803               	skipnc
  3094  0527  0A31               	incf	1+(??_main+0)^080h+0,w
  3095  0528  1283               	bcf	status, 5	;RP0=0, select bank0
  3096  0529  1303               	bcf	status, 6	;RP1=0, select bank0
  3097  052A  00B5               	movwf	((?___wmul))+1
  3098  052B  1683               	bsf	status, 5	;RP0=1, select bank1
  3099  052C  1303               	bcf	status, 6	;RP1=0, select bank1
  3100  052D  086A               	movf	(_values)^080h,w
  3101  052E  076B               	addwf	0+(_values)^080h+01h,w
  3102  052F  1283               	bcf	status, 5	;RP0=0, select bank0
  3103  0530  1303               	bcf	status, 6	;RP1=0, select bank0
  3104  0531  00B6               	movwf	0+(?___wmul)+02h
  3105  0532  01B7               	clrf	0+(?___wmul)+02h+1
  3106  0533  0DB7               	rlf	1+0+(?___wmul)+02h,f
  3107                           opt subtitle "HI-TECH Software Omniscient Code Generator (Lite mode) build 49521"
  3108  0534  120A  118A  27D0   	fcall	___wmul
              120A  118A         
  3109  0539  1283               	bcf	status, 5	;RP0=0, select bank0
  3110  053A  1303               	bcf	status, 6	;RP1=0, select bank0
  3111  053B  0834               	movf	(0+(?___wmul)),w
  3112  053C  1683               	bsf	status, 5	;RP0=1, select bank1
  3113  053D  1303               	bcf	status, 6	;RP1=0, select bank1
  3114  053E  07D5               	addwf	(main@temp)^080h,f
  3115  053F  1803               	skipnc
  3116  0540  0AD6               	incf	(main@temp+1)^080h,f
  3117  0541  1283               	bcf	status, 5	;RP0=0, select bank0
  3118  0542  1303               	bcf	status, 6	;RP1=0, select bank0
  3119  0543  0835               	movf	(1+(?___wmul)),w
  3120  0544  1683               	bsf	status, 5	;RP0=1, select bank1
  3121  0545  1303               	bcf	status, 6	;RP1=0, select bank1
  3122  0546  07D6               	addwf	(main@temp+1)^080h,f
  3123                           opt subtitle "HI-TECH Software Omniscient Code Generator (Lite mode) build 49521"
  3124                           
  3125  0547                     l4136:	
  3126                           opt subtitle "HI-TECH Software Omniscient Code Generator (Lite mode) build 49521"
  3127  0547  0855               	movf	(main@temp)^080h,w
  3128  0548  00B0               	movwf	(??_main+0)^080h+0
  3129  0549  0830               	movf	(??_main+0)^080h+0,w
  3130  054A  00E3               	movwf	0+(_tx_buf)^080h+05h
  3131                           opt subtitle "HI-TECH Software Omniscient Code Generator (Lite mode) build 49521"
  3132                           
  3133  054B                     l4138:	
  3134                           opt subtitle "HI-TECH Software Omniscient Code Generator (Lite mode) build 49521"
  3135  054B  0856               	movf	(main@temp+1)^080h,w
  3136  054C  00B0               	movwf	(??_main+0)^080h+0
  3137  054D  0830               	movf	(??_main+0)^080h+0,w
  3138  054E  00E4               	movwf	0+(_tx_buf)^080h+06h
  3139                           opt subtitle "HI-TECH Software Omniscient Code Generator (Lite mode) build 49521"
  3140                           
  3141  054F                     l4140:	
  3142                           opt subtitle "HI-TECH Software Omniscient Code Generator (Lite mode) build 49521"
  3143  054F  085B               	movf	(_charge_pulse_float)^080h,w
  3144  0550  1283               	bcf	status, 5	;RP0=0, select bank0
  3145  0551  1303               	bcf	status, 6	;RP1=0, select bank0
  3146  0552  00B4               	movwf	(?___fttol)
  3147  0553  1683               	bsf	status, 5	;RP0=1, select bank1
  3148  0554  1303               	bcf	status, 6	;RP1=0, select bank1
  3149  0555  085C               	movf	(_charge_pulse_float+1)^080h,w
  3150  0556  1283               	bcf	status, 5	;RP0=0, select bank0
  3151  0557  1303               	bcf	status, 6	;RP1=0, select bank0
  3152  0558  00B5               	movwf	(?___fttol+1)
  3153  0559  1683               	bsf	status, 5	;RP0=1, select bank1
  3154  055A  1303               	bcf	status, 6	;RP1=0, select bank1
  3155  055B  085D               	movf	(_charge_pulse_float+2)^080h,w
  3156  055C  1283               	bcf	status, 5	;RP0=0, select bank0
  3157  055D  1303               	bcf	status, 6	;RP1=0, select bank0
  3158  055E  00B6               	movwf	(?___fttol+2)
  3159  055F  120A  158A  2170   	fcall	___fttol
              120A  118A         
  3160  0564  1283               	bcf	status, 5	;RP0=0, select bank0
  3161  0565  1303               	bcf	status, 6	;RP1=0, select bank0
  3162  0566  0834               	movf	0+(((0+(?___fttol)))),w
  3163  0567  1683               	bsf	status, 5	;RP0=1, select bank1
  3164  0568  1303               	bcf	status, 6	;RP1=0, select bank1
  3165  0569  00B0               	movwf	(??_main+0)^080h+0
  3166  056A  0830               	movf	(??_main+0)^080h+0,w
  3167  056B  00E5               	movwf	0+(_tx_buf)^080h+07h
  3168                           opt subtitle "HI-TECH Software Omniscient Code Generator (Lite mode) build 49521"
  3169                           
  3170  056C                     l4142:	
  3171                           opt subtitle "HI-TECH Software Omniscient Code Generator (Lite mode) build 49521"
  3172  056C  3059               	movlw	(059h)
  3173  056D  025F               	subwf	0+(_tx_buf)^080h+01h,w
  3174  056E  1803               	skipnc
  3175  056F  2D71               	goto	u4031
  3176  0570  2D72               	goto	u4030
  3177  0571                     u4031:
  3178  0571  2D79               	goto	l4146
  3179  0572                     u4030:
  3180                           opt subtitle "HI-TECH Software Omniscient Code Generator (Lite mode) build 49521"
  3181  0572                     l4144:	
  3182  0572  1283               	bcf	status, 5	;RP0=0, select bank0
  3183  0573  1303               	bcf	status, 6	;RP1=0, select bank0
  3184  0574  1E88               	btfss	(8),5	;volatile
  3185  0575  2D77               	goto	u4041
  3186  0576  2D78               	goto	u4040
  3187  0577                     u4041:
  3188  0577  2D94               	goto	l4150
  3189  0578                     u4040:
  3190  0578  2D79               	goto	l4146
  3191                           opt subtitle "HI-TECH Software Omniscient Code Generator (Lite mode) build 49521"
  3192  0579                     l176:	
  3193                           opt subtitle "HI-TECH Software Omniscient Code Generator (Lite mode) build 49521"
  3194                           
  3195  0579                     l4146:	
  3196                           opt subtitle "HI-TECH Software Omniscient Code Generator (Lite mode) build 49521"
  3197  0579  30DE               	movlw	(_tx_buf)&0ffh
  3198  057A  1683               	bsf	status, 5	;RP0=1, select bank1
  3199  057B  1303               	bcf	status, 6	;RP1=0, select bank1
  3200  057C  00B0               	movwf	(??_main+0)^080h+0
  3201  057D  0830               	movf	(??_main+0)^080h+0,w
  3202  057E  1283               	bcf	status, 5	;RP0=0, select bank0
  3203  057F  1303               	bcf	status, 6	;RP1=0, select bank0
  3204  0580  00CB               	movwf	(?_Send_Packet)
  3205  0581  3008               	movlw	(08h)
  3206  0582  1683               	bsf	status, 5	;RP0=1, select bank1
  3207  0583  1303               	bcf	status, 6	;RP1=0, select bank1
  3208  0584  00B1               	movwf	(??_main+1)^080h+0
  3209  0585  0831               	movf	(??_main+1)^080h+0,w
  3210  0586  1283               	bcf	status, 5	;RP0=0, select bank0
  3211  0587  1303               	bcf	status, 6	;RP1=0, select bank0
  3212  0588  00CC               	movwf	0+(?_Send_Packet)+01h
  3213  0589  30B0               	movlw	(0B0h)
  3214  058A  120A  158A  22DE   	fcall	_Send_Packet
              120A  118A         
  3215                           opt subtitle "HI-TECH Software Omniscient Code Generator (Lite mode) build 49521"
  3216                           
  3217  058F                     l4148:	
  3218                           opt subtitle "HI-TECH Software Omniscient Code Generator (Lite mode) build 49521"
  3219  058F  1683               	bsf	status, 5	;RP0=1, select bank1
  3220  0590  1303               	bcf	status, 6	;RP1=0, select bank1
  3221  0591  01D5               	clrf	(main@temp)^080h
  3222  0592  01D6               	clrf	(main@temp+1)^080h
  3223                           opt subtitle "HI-TECH Software Omniscient Code Generator (Lite mode) build 49521"
  3224                           
  3225  0593  2DAE               	goto	l4152
  3226                           opt subtitle "HI-TECH Software Omniscient Code Generator (Lite mode) build 49521"
  3227                           
  3228  0594                     l174:	
  3229                           opt subtitle "HI-TECH Software Omniscient Code Generator (Lite mode) build 49521"
  3230                           
  3231  0594                     l4150:	
  3232                           opt subtitle "HI-TECH Software Omniscient Code Generator (Lite mode) build 49521"
  3233                           
  3234  0594  30C8               	movlw	low(STR_5|8000h)
  3235  0595  1283               	bcf	status, 5	;RP0=0, select bank0
  3236  0596  00C2               	movwf	(?_printf)
  3237  0597  3090               	movlw	high(STR_5|8000h)
  3238  0598  00C3               	movwf	((?_printf))+1
  3239  0599  1683               	bsf	status, 5	;RP0=1, select bank1
  3240  059A  1303               	bcf	status, 6	;RP1=0, select bank1
  3241  059B  085F               	movf	0+(_tx_buf)^080h+01h,w
  3242  059C  00B0               	movwf	(??_main+0)^080h+0+0
  3243  059D  01B1               	clrf	(??_main+0)^080h+0+1
  3244  059E  0830               	movf	0+(??_main+0)^080h+0,w
  3245  059F  1283               	bcf	status, 5	;RP0=0, select bank0
  3246  05A0  1303               	bcf	status, 6	;RP1=0, select bank0
  3247  05A1  00C4               	movwf	0+(?_printf)+02h
  3248  05A2  1683               	bsf	status, 5	;RP0=1, select bank1
  3249  05A3  1303               	bcf	status, 6	;RP1=0, select bank1
  3250  05A4  0831               	movf	1+(??_main+0)^080h+0,w
  3251  05A5  1283               	bcf	status, 5	;RP0=0, select bank0
  3252  05A6  1303               	bcf	status, 6	;RP1=0, select bank0
  3253  05A7  00C5               	movwf	1+(?_printf)+02h
  3254  05A8  120A  158A  2600   	fcall	_printf
              120A  118A         
  3255  05AD  2DAE               	goto	l4152
  3256                           opt subtitle "HI-TECH Software Omniscient Code Generator (Lite mode) build 49521"
  3257  05AE                     l177:	
  3258                           opt subtitle "HI-TECH Software Omniscient Code Generator (Lite mode) build 49521"
  3259                           
  3260  05AE                     l4152:	
  3261                           opt subtitle "HI-TECH Software Omniscient Code Generator (Lite mode) build 49521"
  3262  05AE  1283               	bcf	status, 5	;RP0=0, select bank0
  3263  05AF  1303               	bcf	status, 6	;RP1=0, select bank0
  3264  05B0  1107               	bcf	(7),2	;volatile
  3265                           opt subtitle "HI-TECH Software Omniscient Code Generator (Lite mode) build 49521"
  3266                           
  3267  05B1                     l4154:	
  3268                           opt subtitle "HI-TECH Software Omniscient Code Generator (Lite mode) build 49521"
  3269  05B1  3000               	movlw	(0)
  3270  05B2  160A  118A  2564   	fcall	_rfm70setPowerdownMode
              120A  118A         
  3271                           opt subtitle "HI-TECH Software Omniscient Code Generator (Lite mode) build 49521"
  3272                           
  3273  05B7                     l4156:	
  3274                           opt subtitle "HI-TECH Software Omniscient Code Generator (Lite mode) build 49521"
  3275  05B7  1283               	bcf	status, 5	;RP0=0, select bank0
  3276  05B8  1303               	bcf	status, 6	;RP1=0, select bank0
  3277  05B9  1010               	bcf	(16),0	;volatile
  3278                           opt subtitle "HI-TECH Software Omniscient Code Generator (Lite mode) build 49521"
  3279                           
  3280  05BA                     l4158:	
  3281                           opt subtitle "HI-TECH Software Omniscient Code Generator (Lite mode) build 49521"
  3282  05BA  3010               	movlw	(010h)
  3283  05BB  008F               	movwf	(15)	;volatile
  3284                           opt subtitle "HI-TECH Software Omniscient Code Generator (Lite mode) build 49521"
  3285                           
  3286  05BC                     l4160:	
  3287                           opt subtitle "HI-TECH Software Omniscient Code Generator (Lite mode) build 49521"
  3288  05BC  018E               	clrf	(14)	;volatile
  3289                           opt subtitle "HI-TECH Software Omniscient Code Generator (Lite mode) build 49521"
  3290                           
  3291  05BD                     l4162:	
  3292                           opt subtitle "HI-TECH Software Omniscient Code Generator (Lite mode) build 49521"
  3293  05BD  1410               	bsf	(16),0	;volatile
  3294                           opt subtitle "HI-TECH Software Omniscient Code Generator (Lite mode) build 49521"
  3295                           
  3296  05BE                     l4164:	
  3297                           opt subtitle "HI-TECH Software Omniscient Code Generator (Lite mode) build 49521"
  3298  05BE  3011               	movlw	low(STR_6|8000h)
  3299  05BF  00C2               	movwf	(?_printf)
  3300  05C0  3091               	movlw	high(STR_6|8000h)
  3301  05C1  00C3               	movwf	((?_printf))+1
  3302  05C2  0856               	movf	(_sleep_counter),w
  3303  05C3  1683               	bsf	status, 5	;RP0=1, select bank1
  3304  05C4  1303               	bcf	status, 6	;RP1=0, select bank1
  3305  05C5  00B0               	movwf	(??_main+0)^080h+0+0
  3306  05C6  01B1               	clrf	(??_main+0)^080h+0+1
  3307  05C7  0830               	movf	0+(??_main+0)^080h+0,w
  3308  05C8  1283               	bcf	status, 5	;RP0=0, select bank0
  3309  05C9  1303               	bcf	status, 6	;RP1=0, select bank0
  3310  05CA  00C4               	movwf	0+(?_printf)+02h
  3311  05CB  1683               	bsf	status, 5	;RP0=1, select bank1
  3312  05CC  1303               	bcf	status, 6	;RP1=0, select bank1
  3313  05CD  0831               	movf	1+(??_main+0)^080h+0,w
  3314  05CE  1283               	bcf	status, 5	;RP0=0, select bank0
  3315  05CF  1303               	bcf	status, 6	;RP1=0, select bank0
  3316  05D0  00C5               	movwf	1+(?_printf)+02h
  3317  05D1  120A  158A  2600   	fcall	_printf
              120A  118A         
  3318                           opt subtitle "HI-TECH Software Omniscient Code Generator (Lite mode) build 49521"
  3319                           
  3320  05D6                     l4166:	
  3321                           opt subtitle "HI-TECH Software Omniscient Code Generator (Lite mode) build 49521"
  3322  05D6  1683               	bsf	status, 5	;RP0=1, select bank1
  3323  05D7  1303               	bcf	status, 6	;RP1=0, select bank1
  3324  05D8  01D4               	clrf	(main@num_sleep)^080h
  3325                           opt subtitle "HI-TECH Software Omniscient Code Generator (Lite mode) build 49521"
  3326                           
  3327  05D9  2E09               	goto	l4172
  3328                           opt subtitle "HI-TECH Software Omniscient Code Generator (Lite mode) build 49521"
  3329  05DA                     l179:	
  3330                           opt subtitle "HI-TECH Software Omniscient Code Generator (Lite mode) build 49521"
  3331                           
  3332  05DA                     l4168:	
  3333                           opt subtitle "HI-TECH Software Omniscient Code Generator (Lite mode) build 49521"
  3334  05DA  304D               	movlw	low(STR_7|8000h)
  3335  05DB  1283               	bcf	status, 5	;RP0=0, select bank0
  3336  05DC  1303               	bcf	status, 6	;RP1=0, select bank0
  3337  05DD  00C2               	movwf	(?_printf)
  3338  05DE  3091               	movlw	high(STR_7|8000h)
  3339  05DF  00C3               	movwf	((?_printf))+1
  3340  05E0  1683               	bsf	status, 5	;RP0=1, select bank1
  3341  05E1  1303               	bcf	status, 6	;RP1=0, select bank1
  3342  05E2  0854               	movf	(main@num_sleep)^080h,w
  3343  05E3  00B0               	movwf	(??_main+0)^080h+0+0
  3344  05E4  01B1               	clrf	(??_main+0)^080h+0+1
  3345  05E5  0830               	movf	0+(??_main+0)^080h+0,w
  3346  05E6  1283               	bcf	status, 5	;RP0=0, select bank0
  3347  05E7  1303               	bcf	status, 6	;RP1=0, select bank0
  3348  05E8  00C4               	movwf	0+(?_printf)+02h
  3349  05E9  1683               	bsf	status, 5	;RP0=1, select bank1
  3350  05EA  1303               	bcf	status, 6	;RP1=0, select bank1
  3351  05EB  0831               	movf	1+(??_main+0)^080h+0,w
  3352  05EC  1283               	bcf	status, 5	;RP0=0, select bank0
  3353  05ED  1303               	bcf	status, 6	;RP1=0, select bank0
  3354  05EE  00C5               	movwf	1+(?_printf)+02h
  3355  05EF  1683               	bsf	status, 5	;RP0=1, select bank1
  3356  05F0  1303               	bcf	status, 6	;RP1=0, select bank1
  3357  05F1  086D               	movf	(_sleep_count)^080h,w
  3358  05F2  00B2               	movwf	(??_main+2)^080h+0+0
  3359  05F3  01B3               	clrf	(??_main+2)^080h+0+1
  3360  05F4  0832               	movf	0+(??_main+2)^080h+0,w
  3361  05F5  1283               	bcf	status, 5	;RP0=0, select bank0
  3362  05F6  1303               	bcf	status, 6	;RP1=0, select bank0
  3363  05F7  00C6               	movwf	0+(?_printf)+04h
  3364  05F8  1683               	bsf	status, 5	;RP0=1, select bank1
  3365  05F9  1303               	bcf	status, 6	;RP1=0, select bank1
  3366  05FA  0833               	movf	1+(??_main+2)^080h+0,w
  3367  05FB  1283               	bcf	status, 5	;RP0=0, select bank0
  3368  05FC  1303               	bcf	status, 6	;RP1=0, select bank0
  3369  05FD  00C7               	movwf	1+(?_printf)+04h
  3370  05FE  120A  158A  2600   	fcall	_printf
              120A  118A         
  3371                           opt subtitle "HI-TECH Software Omniscient Code Generator (Lite mode) build 49521"
  3372                           
  3373  0603                     l4170:	
  3374                           opt subtitle "HI-TECH Software Omniscient Code Generator (Lite mode) build 49521"
  3375  0603  120A  158A  24A0   	fcall	_sleep
              120A  118A         
  3376  0608  2E09               	goto	l4172
  3377                           opt subtitle "HI-TECH Software Omniscient Code Generator (Lite mode) build 49521"
  3378                           
  3379  0609                     l178:	
  3380                           opt subtitle "HI-TECH Software Omniscient Code Generator (Lite mode) build 49521"
  3381                           
  3382  0609                     l4172:	
  3383  0609  3001               	movlw	01h
  3384  060A  1683               	bsf	status, 5	;RP0=1, select bank1
  3385  060B  1303               	bcf	status, 6	;RP1=0, select bank1
  3386  060C  07D4               	addwf	(main@num_sleep)^080h,f
  3387  060D  30FF               	movlw	-01h
  3388  060E  0754               	addwf	(main@num_sleep)^080h,w
  3389  060F  00B0               	movwf	(??_main+0)^080h+0
  3390  0610  086D               	movf	(_sleep_count)^080h,w
  3391  0611  0230               	subwf	(??_main+0)^080h+0,w
  3392  0612  1C03               	skipc
  3393  0613  2E15               	goto	u4051
  3394  0614  2E16               	goto	u4050
  3395  0615                     u4051:
  3396  0615  2DDA               	goto	l4168
  3397  0616                     u4050:
  3398  0616  2E17               	goto	l4174
  3399                           opt subtitle "HI-TECH Software Omniscient Code Generator (Lite mode) build 49521"
  3400  0617                     l180:	
  3401                           opt subtitle "HI-TECH Software Omniscient Code Generator (Lite mode) build 49521"
  3402                           
  3403  0617                     l4174:	
  3404                           opt subtitle "HI-TECH Software Omniscient Code Generator (Lite mode) build 49521"
  3405                           
  3406  0617  3001               	movlw	low(01h)
  3407  0618  07E6               	addwf	(_timelapse_count)^080h,f
  3408  0619  1803               	skipnc
  3409  061A  0AE7               	incf	(_timelapse_count+1)^080h,f
  3410  061B  3000               	movlw	high(01h)
  3411  061C  07E7               	addwf	(_timelapse_count+1)^080h,f
  3412  061D  2C9E               	goto	l4112
  3413                           opt subtitle "HI-TECH Software Omniscient Code Generator (Lite mode) build 49521"
  3414                           
  3415  061E                     l181:	
  3416                           opt subtitle "HI-TECH Software Omniscient Code Generator (Lite mode) build 49521"
  3417  061E  2C9E               	goto	l4112
  3418                           opt subtitle "HI-TECH Software Omniscient Code Generator (Lite mode) build 49521"
  3419  061F                     l182:	
  3420                           opt subtitle "HI-TECH Software Omniscient Code Generator (Lite mode) build 49521"
  3421                           
  3422                           opt pagewidth 120
  3423                           
  3424                           	opt lm
  3425  061F                     l183:	
  3426                           opt subtitle "HI-TECH Software Omniscient Code Generator (Lite mode) build 49521"
  3427  061F  120A  118A  2812   	ljmp	start
  3428                           opt subtitle "HI-TECH Software Omniscient Code Generator (Lite mode) build 49521"
  3429                           
  3430  0622                     	__end_of_main:
  3431                           opt subtitle "HI-TECH Software Omniscient Code Generator (Lite mode) build 49521"
  3432                           
  3433                           opt pagewidth 120
  3434                           
  3435                           	opt lm
  3436                           
  3437                           	processor	16LF707
  3438                           clrc	macro
  3439                           	bcf	3,0
  3440                           	endm
  3441                           clrz	macro
  3442                           	bcf	3,2
  3443                           	endm
  3444                           setc	macro
  3445                           	bsf	3,0
  3446                           	endm
  3447                           setz	macro
  3448                           	bsf	3,2
  3449                           	endm
  3450                           skipc	macro
  3451                           	btfss	3,0
  3452                           	endm
  3453                           skipz	macro
  3454                           	btfss	3,2
  3455                           	endm
  3456                           skipnc	macro
  3457                           	btfsc	3,0
  3458                           	endm
  3459                           skipnz	macro
  3460                           	btfsc	3,2
  3461                           	endm
  3462                           indf	equ	0
  3463                           indf0	equ	0
  3464                           pc	equ	2
  3465  14DC                     __ptext1169:	;psect for function _spiInit
  3466                           opt subtitle "HI-TECH Software Omniscient Code Generator (Lite mode) build 49521"
  3467                           
  3468                           opt pagewidth 120
  3469                           
  3470  0018                     	__size_of_spiInit	equ	__end_of_spiInit-_spiInit
  3471                           opt subtitle "HI-TECH Software Omniscient Code Generator (Lite mode) build 49521"
  3472  14DC                     _spiInit:	
  3473                           opt subtitle "HI-TECH Software Omniscient Code Generator (Lite mode) build 49521"
  3474                           
  3475                           opt pagewidth 120
  3476                           
  3477  14DC                     l2890:	
  3478                           opt subtitle "HI-TECH Software Omniscient Code Generator (Lite mode) build 49521"
  3479  14DC  1283               	bcf	status, 5	;RP0=0, select bank0
  3480  14DD  1303               	bcf	status, 6	;RP1=0, select bank0
  3481  14DE  1694               	bsf	(20),5	;volatile
  3482                           opt subtitle "HI-TECH Software Omniscient Code Generator (Lite mode) build 49521"
  3483                           
  3484  14DF  1214               	bcf	(20),4	;volatile
  3485                           opt subtitle "HI-TECH Software Omniscient Code Generator (Lite mode) build 49521"
  3486                           
  3487  14E0                     l2892:	
  3488                           opt subtitle "HI-TECH Software Omniscient Code Generator (Lite mode) build 49521"
  3489  14E0  0814               	movf	(20),w	;volatile
  3490  14E1  39F0               	andlw	not (((1<<4)-1)<<0)
  3491  14E2  3802               	iorlw	(02h & ((1<<4)-1))<<0
  3492  14E3  0094               	movwf	(20)	;volatile
  3493                           opt subtitle "HI-TECH Software Omniscient Code Generator (Lite mode) build 49521"
  3494                           
  3495  14E4                     l2894:	
  3496                           opt subtitle "HI-TECH Software Omniscient Code Generator (Lite mode) build 49521"
  3497  14E4  1683               	bsf	status, 5	;RP0=1, select bank1
  3498  14E5  1303               	bcf	status, 6	;RP1=0, select bank1
  3499  14E6  1394               	bcf	(148)^080h,7	;volatile
  3500                           opt subtitle "HI-TECH Software Omniscient Code Generator (Lite mode) build 49521"
  3501                           
  3502  14E7                     l2896:	
  3503                           opt subtitle "HI-TECH Software Omniscient Code Generator (Lite mode) build 49521"
  3504  14E7  1714               	bsf	(148)^080h,6	;volatile
  3505                           opt subtitle "HI-TECH Software Omniscient Code Generator (Lite mode) build 49521"
  3506                           
  3507  14E8                     l2898:	
  3508                           opt subtitle "HI-TECH Software Omniscient Code Generator (Lite mode) build 49521"
  3509                           
  3510  14E8  3082               movlw	130
  3511  14E9  1283               	bcf	status, 5	;RP0=0, select bank0
  3512  14EA  1303               	bcf	status, 6	;RP1=0, select bank0
  3513  14EB  00B5               movwf	((??_spiInit+0)+0+1),f
  3514  14EC  30DD               	movlw	221
  3515  14ED  00B4               movwf	((??_spiInit+0)+0),f
  3516  14EE                     u4727:
  3517  14EE  0BB4               	decfsz	((??_spiInit+0)+0),f
  3518  14EF  2CEE               	goto	u4727
  3519  14F0  0BB5               	decfsz	((??_spiInit+0)+0+1),f
  3520  14F1  2CEE               	goto	u4727
  3521  14F2  2CF3               	nop2
  3522                           opt subtitle "HI-TECH Software Omniscient Code Generator (Lite mode) build 49521"
  3523                           
  3524                           opt pagewidth 120
  3525                           
  3526  14F3                     l227:	
  3527  14F3  0008               	return
  3528                           opt subtitle "HI-TECH Software Omniscient Code Generator (Lite mode) build 49521"
  3529                           
  3530  14F4                     	__end_of_spiInit:
  3531                           opt subtitle "HI-TECH Software Omniscient Code Generator (Lite mode) build 49521"
  3532                           
  3533                           opt pagewidth 120
  3534                           
  3535                           	opt lm
  3536                           
  3537                           	processor	16LF707
  3538                           clrc	macro
  3539                           	bcf	3,0
  3540                           	endm
  3541                           clrz	macro
  3542                           	bcf	3,2
  3543                           	endm
  3544                           setc	macro
  3545                           	bsf	3,0
  3546                           	endm
  3547                           setz	macro
  3548                           	bsf	3,2
  3549                           	endm
  3550                           skipc	macro
  3551                           	btfss	3,0
  3552                           	endm
  3553                           skipz	macro
  3554                           	btfss	3,2
  3555                           	endm
  3556                           skipnc	macro
  3557                           	btfsc	3,0
  3558                           	endm
  3559                           skipnz	macro
  3560                           	btfsc	3,2
  3561                           	endm
  3562                           indf	equ	0
  3563                           indf0	equ	0
  3564                           pc	equ	2
  3565  14C6                     __ptext1170:	;psect for function _uartInit
  3566                           opt subtitle "HI-TECH Software Omniscient Code Generator (Lite mode) build 49521"
  3567                           
  3568                           opt pagewidth 120
  3569                           
  3570  0016                     	__size_of_uartInit	equ	__end_of_uartInit-_uartInit
  3571                           opt subtitle "HI-TECH Software Omniscient Code Generator (Lite mode) build 49521"
  3572  14C6                     _uartInit:	
  3573                           opt subtitle "HI-TECH Software Omniscient Code Generator (Lite mode) build 49521"
  3574                           
  3575                           opt pagewidth 120
  3576                           
  3577  14C6                     l2900:	
  3578                           opt subtitle "HI-TECH Software Omniscient Code Generator (Lite mode) build 49521"
  3579  14C6  1683               	bsf	status, 5	;RP0=1, select bank1
  3580  14C7  1303               	bcf	status, 6	;RP1=0, select bank1
  3581  14C8  1787               	bsf	(135)^080h,7	;volatile
  3582                           opt subtitle "HI-TECH Software Omniscient Code Generator (Lite mode) build 49521"
  3583                           
  3584  14C9  1307               	bcf	(135)^080h,6	;volatile
  3585                           opt subtitle "HI-TECH Software Omniscient Code Generator (Lite mode) build 49521"
  3586                           
  3587  14CA                     l2902:	
  3588                           opt subtitle "HI-TECH Software Omniscient Code Generator (Lite mode) build 49521"
  3589  14CA  3002               	movlw	(02h)
  3590  14CB  0098               	movwf	(152)^080h	;volatile
  3591                           opt subtitle "HI-TECH Software Omniscient Code Generator (Lite mode) build 49521"
  3592                           
  3593  14CC                     l2904:	
  3594                           opt subtitle "HI-TECH Software Omniscient Code Generator (Lite mode) build 49521"
  3595  14CC  1283               	bcf	status, 5	;RP0=0, select bank0
  3596  14CD  1303               	bcf	status, 6	;RP1=0, select bank0
  3597  14CE  0198               	clrf	(24)	;volatile
  3598                           opt subtitle "HI-TECH Software Omniscient Code Generator (Lite mode) build 49521"
  3599                           
  3600  14CF                     l2906:	
  3601                           opt subtitle "HI-TECH Software Omniscient Code Generator (Lite mode) build 49521"
  3602  14CF  1683               	bsf	status, 5	;RP0=1, select bank1
  3603  14D0  1303               	bcf	status, 6	;RP1=0, select bank1
  3604  14D1  1118               	bcf	(152)^080h,2	;volatile
  3605                           opt subtitle "HI-TECH Software Omniscient Code Generator (Lite mode) build 49521"
  3606                           
  3607  14D2                     l2908:	
  3608                           opt subtitle "HI-TECH Software Omniscient Code Generator (Lite mode) build 49521"
  3609  14D2  1218               	bcf	(152)^080h,4	;volatile
  3610                           opt subtitle "HI-TECH Software Omniscient Code Generator (Lite mode) build 49521"
  3611                           
  3612  14D3                     l2910:	
  3613                           opt subtitle "HI-TECH Software Omniscient Code Generator (Lite mode) build 49521"
  3614  14D3  300C               	movlw	(0Ch)
  3615  14D4  0099               	movwf	(153)^080h	;volatile
  3616                           opt subtitle "HI-TECH Software Omniscient Code Generator (Lite mode) build 49521"
  3617                           
  3618  14D5                     l2912:	
  3619                           opt subtitle "HI-TECH Software Omniscient Code Generator (Lite mode) build 49521"
  3620  14D5  1283               	bcf	status, 5	;RP0=0, select bank0
  3621  14D6  1303               	bcf	status, 6	;RP1=0, select bank0
  3622  14D7  1798               	bsf	(24),7	;volatile
  3623                           opt subtitle "HI-TECH Software Omniscient Code Generator (Lite mode) build 49521"
  3624                           
  3625  14D8                     l2914:	
  3626                           opt subtitle "HI-TECH Software Omniscient Code Generator (Lite mode) build 49521"
  3627  14D8  1683               	bsf	status, 5	;RP0=1, select bank1
  3628  14D9  1303               	bcf	status, 6	;RP1=0, select bank1
  3629  14DA  1698               	bsf	(152)^080h,5	;volatile
  3630                           opt subtitle "HI-TECH Software Omniscient Code Generator (Lite mode) build 49521"
  3631                           
  3632  14DB                     l224:	
  3633  14DB  0008               	return
  3634                           opt subtitle "HI-TECH Software Omniscient Code Generator (Lite mode) build 49521"
  3635                           
  3636  14DC                     	__end_of_uartInit:
  3637                           opt subtitle "HI-TECH Software Omniscient Code Generator (Lite mode) build 49521"
  3638                           
  3639                           opt pagewidth 120
  3640                           
  3641                           	opt lm
  3642                           
  3643                           	processor	16LF707
  3644                           clrc	macro
  3645                           	bcf	3,0
  3646                           	endm
  3647                           clrz	macro
  3648                           	bcf	3,2
  3649                           	endm
  3650                           setc	macro
  3651                           	bsf	3,0
  3652                           	endm
  3653                           setz	macro
  3654                           	bsf	3,2
  3655                           	endm
  3656                           skipc	macro
  3657                           	btfss	3,0
  3658                           	endm
  3659                           skipz	macro
  3660                           	btfss	3,2
  3661                           	endm
  3662                           skipnc	macro
  3663                           	btfsc	3,0
  3664                           	endm
  3665                           skipnz	macro
  3666                           	btfsc	3,2
  3667                           	endm
  3668                           indf	equ	0
  3669                           indf0	equ	0
  3670                           pc	equ	2
  3671  147C                     __ptext1171:	;psect for function _adcInit
  3672                           opt subtitle "HI-TECH Software Omniscient Code Generator (Lite mode) build 49521"
  3673                           
  3674                           opt pagewidth 120
  3675                           
  3676  000A                     	__size_of_adcInit	equ	__end_of_adcInit-_adcInit
  3677                           opt subtitle "HI-TECH Software Omniscient Code Generator (Lite mode) build 49521"
  3678  147C                     _adcInit:	
  3679                           opt subtitle "HI-TECH Software Omniscient Code Generator (Lite mode) build 49521"
  3680                           
  3681                           opt pagewidth 120
  3682                           
  3683  147C                     l2916:	
  3684                           opt subtitle "HI-TECH Software Omniscient Code Generator (Lite mode) build 49521"
  3685  147C  1683               	bsf	status, 5	;RP0=1, select bank1
  3686  147D  1303               	bcf	status, 6	;RP1=0, select bank1
  3687  147E  081F               	movf	(159)^080h,w	;volatile
  3688  147F  398F               	andlw	not (((1<<3)-1)<<4)
  3689  1480  3810               	iorlw	(01h & ((1<<3)-1))<<4
  3690  1481  009F               	movwf	(159)^080h	;volatile
  3691                           opt subtitle "HI-TECH Software Omniscient Code Generator (Lite mode) build 49521"
  3692                           
  3693  1482  3003               	movlw	(03h & ((1<<2)-1))<<0
  3694  1483  049F               	iorwf	(159)^080h,f	;volatile
  3695                           opt subtitle "HI-TECH Software Omniscient Code Generator (Lite mode) build 49521"
  3696                           
  3697  1484                     l2918:	
  3698                           opt subtitle "HI-TECH Software Omniscient Code Generator (Lite mode) build 49521"
  3699  1484  171D               	bsf	(157)^080h,6	;volatile
  3700                           opt subtitle "HI-TECH Software Omniscient Code Generator (Lite mode) build 49521"
  3701                           
  3702  1485                     l230:	
  3703  1485  0008               	return
  3704                           opt subtitle "HI-TECH Software Omniscient Code Generator (Lite mode) build 49521"
  3705                           
  3706  1486                     	__end_of_adcInit:
  3707                           opt subtitle "HI-TECH Software Omniscient Code Generator (Lite mode) build 49521"
  3708                           
  3709                           opt pagewidth 120
  3710                           
  3711                           	opt lm
  3712                           
  3713                           	processor	16LF707
  3714                           clrc	macro
  3715                           	bcf	3,0
  3716                           	endm
  3717                           clrz	macro
  3718                           	bcf	3,2
  3719                           	endm
  3720                           setc	macro
  3721                           	bsf	3,0
  3722                           	endm
  3723                           setz	macro
  3724                           	bsf	3,2
  3725                           	endm
  3726                           skipc	macro
  3727                           	btfss	3,0
  3728                           	endm
  3729                           skipz	macro
  3730                           	btfss	3,2
  3731                           	endm
  3732                           skipnc	macro
  3733                           	btfsc	3,0
  3734                           	endm
  3735                           skipnz	macro
  3736                           	btfsc	3,2
  3737                           	endm
  3738                           indf	equ	0
  3739                           indf0	equ	0
  3740                           pc	equ	2
  3741                           pcl	equ	2
  3742                           status	equ	3
  3743  1564                     __ptext1172:	;psect for function _rfm70setPowerdownMode
  3744                           opt subtitle "HI-TECH Software Omniscient Code Generator (Lite mode) build 49521"
  3745                           
  3746                           opt pagewidth 120
  3747                           
  3748  0025                     	__size_of_rfm70setPowerdownMode	equ	__end_of_rfm70setPowerdownMode-_rfm70setPowerdownMo
                                 de
  3749                           opt subtitle "HI-TECH Software Omniscient Code Generator (Lite mode) build 49521"
  3750  1564                     _rfm70setPowerdownMode:	
  3751                           opt subtitle "HI-TECH Software Omniscient Code Generator (Lite mode) build 49521"
  3752                           
  3753                           opt pagewidth 120
  3754                           
  3755  1564  1283               	bcf	status, 5	;RP0=0, select bank0
  3756  1565  1303               	bcf	status, 6	;RP1=0, select bank0
  3757  1566  00BB               	movwf	(rfm70setPowerdownMode@value)
  3758                           opt subtitle "HI-TECH Software Omniscient Code Generator (Lite mode) build 49521"
  3759  1567                     l4176:	
  3760                           opt subtitle "HI-TECH Software Omniscient Code Generator (Lite mode) build 49521"
  3761                           
  3762  1567  3000               	movlw	(0)
  3763  1568  160A  118A  250D   	fcall	_SPI_Read_Reg
              160A  118A         
  3764  156D  1283               	bcf	status, 5	;RP0=0, select bank0
  3765  156E  1303               	bcf	status, 6	;RP1=0, select bank0
  3766  156F  00BA               	movwf	(??_rfm70setPowerdownMode+0)+0
  3767  1570  083A               	movf	(??_rfm70setPowerdownMode+0)+0,w
  3768  1571  00BC               	movwf	(rfm70setPowerdownMode@reg)
  3769                           opt subtitle "HI-TECH Software Omniscient Code Generator (Lite mode) build 49521"
  3770                           
  3771  1572                     l4178:	
  3772                           opt subtitle "HI-TECH Software Omniscient Code Generator (Lite mode) build 49521"
  3773  1572  08BB               	movf	(rfm70setPowerdownMode@value),f
  3774  1573  1D03               	skipz
  3775  1574  2D76               	goto	u4061
  3776  1575  2D77               	goto	u4060
  3777  1576                     u4061:
  3778  1576  2D7C               	goto	l384
  3779  1577                     u4060:
  3780                           opt subtitle "HI-TECH Software Omniscient Code Generator (Lite mode) build 49521"
  3781                           
  3782  1577                     l4180:	
  3783                           opt subtitle "HI-TECH Software Omniscient Code Generator (Lite mode) build 49521"
  3784  1577  30FD               	movlw	(0FDh)
  3785  1578  00BA               	movwf	(??_rfm70setPowerdownMode+0)+0
  3786  1579  083A               	movf	(??_rfm70setPowerdownMode+0)+0,w
  3787  157A  05BC               	andwf	(rfm70setPowerdownMode@reg),f
  3788                           opt subtitle "HI-TECH Software Omniscient Code Generator (Lite mode) build 49521"
  3789                           
  3790  157B  2D7E               	goto	l4182
  3791                           opt subtitle "HI-TECH Software Omniscient Code Generator (Lite mode) build 49521"
  3792                           
  3793  157C                     l384:	
  3794                           opt subtitle "HI-TECH Software Omniscient Code Generator (Lite mode) build 49521"
  3795                           
  3796                           opt pagewidth 120
  3797  157C  14BC               	bsf	(rfm70setPowerdownMode@reg)+(1/8),(1)&7
  3798  157D  2D7E               	goto	l4182
  3799                           opt subtitle "HI-TECH Software Omniscient Code Generator (Lite mode) build 49521"
  3800                           
  3801  157E                     l385:	
  3802                           opt subtitle "HI-TECH Software Omniscient Code Generator (Lite mode) build 49521"
  3803                           
  3804  157E                     l4182:	
  3805                           opt subtitle "HI-TECH Software Omniscient Code Generator (Lite mode) build 49521"
  3806                           
  3807  157E  083C               	movf	(rfm70setPowerdownMode@reg),w
  3808  157F  00BA               	movwf	(??_rfm70setPowerdownMode+0)+0
  3809  1580  083A               	movf	(??_rfm70setPowerdownMode+0)+0,w
  3810  1581  00B7               	movwf	(?_SPI_Write_Reg)
  3811  1582  3020               	movlw	(020h)
  3812  1583  160A  118A  24B0   	fcall	_SPI_Write_Reg
              160A  118A         
  3813                           opt subtitle "HI-TECH Software Omniscient Code Generator (Lite mode) build 49521"
  3814                           
  3815  1588                     l386:	
  3816  1588  0008               	return
  3817                           opt subtitle "HI-TECH Software Omniscient Code Generator (Lite mode) build 49521"
  3818                           
  3819  1589                     	__end_of_rfm70setPowerdownMode:
  3820                           opt subtitle "HI-TECH Software Omniscient Code Generator (Lite mode) build 49521"
  3821                           
  3822                           opt pagewidth 120
  3823                           
  3824                           	opt lm
  3825                           
  3826                           	processor	16LF707
  3827                           clrc	macro
  3828                           	bcf	3,0
  3829                           	endm
  3830                           clrz	macro
  3831                           	bcf	3,2
  3832                           	endm
  3833                           setc	macro
  3834                           	bsf	3,0
  3835                           	endm
  3836                           setz	macro
  3837                           	bsf	3,2
  3838                           	endm
  3839                           skipc	macro
  3840                           	btfss	3,0
  3841                           	endm
  3842                           skipz	macro
  3843                           	btfss	3,2
  3844                           	endm
  3845                           skipnc	macro
  3846                           	btfsc	3,0
  3847                           	endm
  3848                           skipnz	macro
  3849                           	btfsc	3,2
  3850                           	endm
  3851                           indf	equ	0
  3852                           indf0	equ	0
  3853                           pc	equ	2
  3854                           pcl	equ	2
  3855                           status	equ	3
  3856                           fsr	equ	4
  3857                           fsr0	equ	4
  3858                           c	equ	1
  3859  0015                     __ptext1173:	;psect for function _RFM70_Initialize
  3860                           opt subtitle "HI-TECH Software Omniscient Code Generator (Lite mode) build 49521"
  3861                           
  3862                           opt pagewidth 120
  3863                           
  3864  0310                     	__size_of_RFM70_Initialize	equ	__end_of_RFM70_Initialize-_RFM70_Initialize
  3865                           opt subtitle "HI-TECH Software Omniscient Code Generator (Lite mode) build 49521"
  3866  0015                     _RFM70_Initialize:	
  3867                           opt subtitle "HI-TECH Software Omniscient Code Generator (Lite mode) build 49521"
  3868                           
  3869                           opt pagewidth 120
  3870                           
  3871  0015                     l4184:	
  3872                           opt subtitle "HI-TECH Software Omniscient Code Generator (Lite mode) build 49521"
  3873                           
  3874                           opt pagewidth 120
  3875                           
  3876  0015  3003               movlw  3
  3877  0016  1283               	bcf	status, 5	;RP0=0, select bank0
  3878  0017  1303               	bcf	status, 6	;RP1=0, select bank0
  3879  0018  00BF               movwf	((??_RFM70_Initialize+0)+0+2),f
  3880  0019  3008               movlw	8
  3881  001A  00BE               movwf	((??_RFM70_Initialize+0)+0+1),f
  3882  001B  3078               	movlw	120
  3883  001C  00BD               movwf	((??_RFM70_Initialize+0)+0),f
  3884  001D                     u4737:
  3885  001D  0BBD               	decfsz	((??_RFM70_Initialize+0)+0),f
  3886  001E  281D               	goto	u4737
  3887  001F  0BBE               	decfsz	((??_RFM70_Initialize+0)+0+1),f
  3888  0020  281D               	goto	u4737
  3889  0021  0BBF               	decfsz	((??_RFM70_Initialize+0)+0+2),f
  3890  0022  281D               	goto	u4737
  3891                           opt subtitle "HI-TECH Software Omniscient Code Generator (Lite mode) build 49521"
  3892                           
  3893                           opt pagewidth 120
  3894                           
  3895  0023                     l4186:	
  3896                           opt subtitle "HI-TECH Software Omniscient Code Generator (Lite mode) build 49521"
  3897  0023  3000               	movlw	(0)
  3898  0024  160A  118A  2633   	fcall	_SwitchCFG
              120A  118A         
  3899                           opt subtitle "HI-TECH Software Omniscient Code Generator (Lite mode) build 49521"
  3900                           
  3901  0029                     l4188:	
  3902                           opt subtitle "HI-TECH Software Omniscient Code Generator (Lite mode) build 49521"
  3903  0029  1283               	bcf	status, 5	;RP0=0, select bank0
  3904  002A  1303               	bcf	status, 6	;RP1=0, select bank0
  3905  002B  01D0               	clrf	(RFM70_Initialize@i)
  3906                           opt subtitle "HI-TECH Software Omniscient Code Generator (Lite mode) build 49521"
  3907  002C                     l4190:	
  3908  002C  3014               	movlw	(014h)
  3909  002D  0250               	subwf	(RFM70_Initialize@i),w
  3910  002E  1C03               	skipc
  3911  002F  2831               	goto	u4071
  3912  0030  2832               	goto	u4070
  3913  0031                     u4071:
  3914  0031  2834               	goto	l4194
  3915  0032                     u4070:
  3916  0032  2864               	goto	l339
  3917                           opt subtitle "HI-TECH Software Omniscient Code Generator (Lite mode) build 49521"
  3918  0033                     l4192:	
  3919  0033  2864               	goto	l339
  3920                           opt subtitle "HI-TECH Software Omniscient Code Generator (Lite mode) build 49521"
  3921                           
  3922  0034                     l338:	
  3923                           opt subtitle "HI-TECH Software Omniscient Code Generator (Lite mode) build 49521"
  3924                           
  3925  0034                     l4194:	
  3926                           opt subtitle "HI-TECH Software Omniscient Code Generator (Lite mode) build 49521"
  3927                           
  3928  0034  1403               	setc
  3929  0035  0D50               	rlf	(RFM70_Initialize@i),w
  3930  0036  3E4A               	addlw	low(_Bank0_Reg|8000h)
  3931  0037  0084               	movwf	fsr0
  3932  0038  3090               	movlw	high(_Bank0_Reg|8000h)
  3933  0039  1803               	skipnc
  3934  003A  3E01               	addlw	1
  3935  003B  00FF               	movwf	btemp+1
  3936  003C  160A  118A  2000   	fcall	stringtab
              120A  118A         
  3937  0041  00BD               	movwf	(??_RFM70_Initialize+0)+0
  3938  0042  083D               	movf	(??_RFM70_Initialize+0)+0,w
  3939  0043  00B7               	movwf	(?_SPI_Write_Reg)
  3940  0044  0850               	movf	(RFM70_Initialize@i),w
  3941  0045  00BE               	movwf	(??_RFM70_Initialize+1)+0
  3942  0046  073E               	addwf	(??_RFM70_Initialize+1)+0,w
  3943  0047  3E4A               	addlw	low(_Bank0_Reg|8000h)
  3944  0048  0084               	movwf	fsr0
  3945  0049  3090               	movlw	high(_Bank0_Reg|8000h)
  3946  004A  1803               	skipnc
  3947  004B  3E01               	addlw	1
  3948  004C  00FF               	movwf	btemp+1
  3949  004D  160A  118A  2000   	fcall	stringtab
              120A  118A         
  3950  0052  3820               	iorlw	020h
  3951  0053  160A  118A  24B0   	fcall	_SPI_Write_Reg
              120A  118A         
  3952                           opt subtitle "HI-TECH Software Omniscient Code Generator (Lite mode) build 49521"
  3953                           
  3954  0058                     l4196:	
  3955  0058  3001               	movlw	(01h)
  3956  0059  1283               	bcf	status, 5	;RP0=0, select bank0
  3957  005A  1303               	bcf	status, 6	;RP1=0, select bank0
  3958  005B  00BD               	movwf	(??_RFM70_Initialize+0)+0
  3959  005C  083D               	movf	(??_RFM70_Initialize+0)+0,w
  3960  005D  07D0               	addwf	(RFM70_Initialize@i),f
  3961                           opt subtitle "HI-TECH Software Omniscient Code Generator (Lite mode) build 49521"
  3962  005E                     l4198:	
  3963  005E  3014               	movlw	(014h)
  3964  005F  0250               	subwf	(RFM70_Initialize@i),w
  3965  0060  1C03               	skipc
  3966  0061  2863               	goto	u4081
  3967  0062  2864               	goto	u4080
  3968  0063                     u4081:
  3969  0063  2834               	goto	l4194
  3970  0064                     u4080:
  3971                           opt subtitle "HI-TECH Software Omniscient Code Generator (Lite mode) build 49521"
  3972  0064                     l339:	
  3973                           opt subtitle "HI-TECH Software Omniscient Code Generator (Lite mode) build 49521"
  3974                           
  3975                           opt pagewidth 120
  3976  0064  01D1               	clrf	(RFM70_Initialize@j)
  3977                           opt subtitle "HI-TECH Software Omniscient Code Generator (Lite mode) build 49521"
  3978  0065                     l4200:	
  3979  0065  3005               	movlw	(05h)
  3980  0066  0251               	subwf	(RFM70_Initialize@j),w
  3981  0067  1C03               	skipc
  3982  0068  286A               	goto	u4091
  3983  0069  286B               	goto	u4090
  3984  006A                     u4091:
  3985  006A  286D               	goto	l4204
  3986  006B                     u4090:
  3987  006B  288B               	goto	l4210
  3988                           opt subtitle "HI-TECH Software Omniscient Code Generator (Lite mode) build 49521"
  3989  006C                     l4202:	
  3990  006C  288B               	goto	l4210
  3991                           opt subtitle "HI-TECH Software Omniscient Code Generator (Lite mode) build 49521"
  3992                           
  3993  006D                     l340:	
  3994                           opt subtitle "HI-TECH Software Omniscient Code Generator (Lite mode) build 49521"
  3995                           
  3996  006D                     l4204:	
  3997                           opt subtitle "HI-TECH Software Omniscient Code Generator (Lite mode) build 49521"
  3998                           
  3999  006D  0851               	movf	(RFM70_Initialize@j),w
  4000  006E  3E95               	addlw	low(_RX0_Address|8000h)
  4001  006F  0084               	movwf	fsr0
  4002  0070  3090               	movlw	high(_RX0_Address|8000h)
  4003  0071  1803               	skipnc
  4004  0072  3E01               	addlw	1
  4005  0073  00FF               	movwf	btemp+1
  4006  0074  160A  118A  2000   	fcall	stringtab
              120A  118A         
  4007  0079  00BD               	movwf	(??_RFM70_Initialize+0)+0
  4008  007A  0851               	movf	(RFM70_Initialize@j),w
  4009  007B  3E44               	addlw	RFM70_Initialize@WriteArr&0ffh
  4010  007C  0084               	movwf	fsr0
  4011  007D  083D               	movf	(??_RFM70_Initialize+0)+0,w
  4012  007E  1383               	bcf	status, 7	;select IRP bank0
  4013  007F  0080               	movwf	indf
  4014                           opt subtitle "HI-TECH Software Omniscient Code Generator (Lite mode) build 49521"
  4015                           
  4016  0080                     l4206:	
  4017  0080  3001               	movlw	(01h)
  4018  0081  00BD               	movwf	(??_RFM70_Initialize+0)+0
  4019  0082  083D               	movf	(??_RFM70_Initialize+0)+0,w
  4020  0083  07D1               	addwf	(RFM70_Initialize@j),f
  4021                           opt subtitle "HI-TECH Software Omniscient Code Generator (Lite mode) build 49521"
  4022  0084                     l4208:	
  4023  0084  3005               	movlw	(05h)
  4024  0085  0251               	subwf	(RFM70_Initialize@j),w
  4025  0086  1C03               	skipc
  4026  0087  2889               	goto	u4101
  4027  0088  288A               	goto	u4100
  4028  0089                     u4101:
  4029  0089  286D               	goto	l4204
  4030  008A                     u4100:
  4031  008A  288B               	goto	l4210
  4032                           opt subtitle "HI-TECH Software Omniscient Code Generator (Lite mode) build 49521"
  4033  008B                     l341:	
  4034                           opt subtitle "HI-TECH Software Omniscient Code Generator (Lite mode) build 49521"
  4035                           
  4036  008B                     l4210:	
  4037                           opt subtitle "HI-TECH Software Omniscient Code Generator (Lite mode) build 49521"
  4038                           
  4039  008B  3044               	movlw	(RFM70_Initialize@WriteArr)&0ffh
  4040  008C  00BD               	movwf	(??_RFM70_Initialize+0)+0
  4041  008D  083D               	movf	(??_RFM70_Initialize+0)+0,w
  4042  008E  00B7               	movwf	(?_SPI_Write_Buf)
  4043  008F  3005               	movlw	(05h)
  4044  0090  00BE               	movwf	(??_RFM70_Initialize+1)+0
  4045  0091  083E               	movf	(??_RFM70_Initialize+1)+0,w
  4046  0092  00B8               	movwf	0+(?_SPI_Write_Buf)+01h
  4047  0093  302A               	movlw	(02Ah)
  4048  0094  160A  118A  25B3   	fcall	_SPI_Write_Buf
              120A  118A         
  4049                           opt subtitle "HI-TECH Software Omniscient Code Generator (Lite mode) build 49521"
  4050                           
  4051  0099                     l4212:	
  4052                           opt subtitle "HI-TECH Software Omniscient Code Generator (Lite mode) build 49521"
  4053  0099  1283               	bcf	status, 5	;RP0=0, select bank0
  4054  009A  1303               	bcf	status, 6	;RP1=0, select bank0
  4055  009B  01D1               	clrf	(RFM70_Initialize@j)
  4056                           opt subtitle "HI-TECH Software Omniscient Code Generator (Lite mode) build 49521"
  4057  009C                     l4214:	
  4058  009C  3005               	movlw	(05h)
  4059  009D  0251               	subwf	(RFM70_Initialize@j),w
  4060  009E  1C03               	skipc
  4061  009F  28A1               	goto	u4111
  4062  00A0  28A2               	goto	u4110
  4063  00A1                     u4111:
  4064  00A1  28A4               	goto	l4218
  4065  00A2                     u4110:
  4066  00A2  28C2               	goto	l4224
  4067                           opt subtitle "HI-TECH Software Omniscient Code Generator (Lite mode) build 49521"
  4068  00A3                     l4216:	
  4069  00A3  28C2               	goto	l4224
  4070                           opt subtitle "HI-TECH Software Omniscient Code Generator (Lite mode) build 49521"
  4071                           
  4072  00A4                     l342:	
  4073                           opt subtitle "HI-TECH Software Omniscient Code Generator (Lite mode) build 49521"
  4074                           
  4075  00A4                     l4218:	
  4076                           opt subtitle "HI-TECH Software Omniscient Code Generator (Lite mode) build 49521"
  4077                           
  4078  00A4  0851               	movf	(RFM70_Initialize@j),w
  4079  00A5  3E9A               	addlw	low(_RX1_Address|8000h)
  4080  00A6  0084               	movwf	fsr0
  4081  00A7  3090               	movlw	high(_RX1_Address|8000h)
  4082  00A8  1803               	skipnc
  4083  00A9  3E01               	addlw	1
  4084  00AA  00FF               	movwf	btemp+1
  4085  00AB  160A  118A  2000   	fcall	stringtab
              120A  118A         
  4086  00B0  00BD               	movwf	(??_RFM70_Initialize+0)+0
  4087  00B1  0851               	movf	(RFM70_Initialize@j),w
  4088  00B2  3E44               	addlw	RFM70_Initialize@WriteArr&0ffh
  4089  00B3  0084               	movwf	fsr0
  4090  00B4  083D               	movf	(??_RFM70_Initialize+0)+0,w
  4091  00B5  1383               	bcf	status, 7	;select IRP bank0
  4092  00B6  0080               	movwf	indf
  4093                           opt subtitle "HI-TECH Software Omniscient Code Generator (Lite mode) build 49521"
  4094                           
  4095  00B7                     l4220:	
  4096  00B7  3001               	movlw	(01h)
  4097  00B8  00BD               	movwf	(??_RFM70_Initialize+0)+0
  4098  00B9  083D               	movf	(??_RFM70_Initialize+0)+0,w
  4099  00BA  07D1               	addwf	(RFM70_Initialize@j),f
  4100                           opt subtitle "HI-TECH Software Omniscient Code Generator (Lite mode) build 49521"
  4101  00BB                     l4222:	
  4102  00BB  3005               	movlw	(05h)
  4103  00BC  0251               	subwf	(RFM70_Initialize@j),w
  4104  00BD  1C03               	skipc
  4105  00BE  28C0               	goto	u4121
  4106  00BF  28C1               	goto	u4120
  4107  00C0                     u4121:
  4108  00C0  28A4               	goto	l4218
  4109  00C1                     u4120:
  4110  00C1  28C2               	goto	l4224
  4111                           opt subtitle "HI-TECH Software Omniscient Code Generator (Lite mode) build 49521"
  4112  00C2                     l343:	
  4113                           opt subtitle "HI-TECH Software Omniscient Code Generator (Lite mode) build 49521"
  4114                           
  4115  00C2                     l4224:	
  4116                           opt subtitle "HI-TECH Software Omniscient Code Generator (Lite mode) build 49521"
  4117                           
  4118  00C2  3044               	movlw	(RFM70_Initialize@WriteArr)&0ffh
  4119  00C3  00BD               	movwf	(??_RFM70_Initialize+0)+0
  4120  00C4  083D               	movf	(??_RFM70_Initialize+0)+0,w
  4121  00C5  00B7               	movwf	(?_SPI_Write_Buf)
  4122  00C6  3005               	movlw	(05h)
  4123  00C7  00BE               	movwf	(??_RFM70_Initialize+1)+0
  4124  00C8  083E               	movf	(??_RFM70_Initialize+1)+0,w
  4125  00C9  00B8               	movwf	0+(?_SPI_Write_Buf)+01h
  4126  00CA  302B               	movlw	(02Bh)
  4127  00CB  160A  118A  25B3   	fcall	_SPI_Write_Buf
              120A  118A         
  4128                           opt subtitle "HI-TECH Software Omniscient Code Generator (Lite mode) build 49521"
  4129                           
  4130  00D0                     l4226:	
  4131                           opt subtitle "HI-TECH Software Omniscient Code Generator (Lite mode) build 49521"
  4132  00D0  1283               	bcf	status, 5	;RP0=0, select bank0
  4133  00D1  1303               	bcf	status, 6	;RP1=0, select bank0
  4134  00D2  01D1               	clrf	(RFM70_Initialize@j)
  4135                           opt subtitle "HI-TECH Software Omniscient Code Generator (Lite mode) build 49521"
  4136  00D3                     l4228:	
  4137  00D3  3005               	movlw	(05h)
  4138  00D4  0251               	subwf	(RFM70_Initialize@j),w
  4139  00D5  1C03               	skipc
  4140  00D6  28D8               	goto	u4131
  4141  00D7  28D9               	goto	u4130
  4142  00D8                     u4131:
  4143  00D8  28DB               	goto	l4232
  4144  00D9                     u4130:
  4145  00D9  28F9               	goto	l4238
  4146                           opt subtitle "HI-TECH Software Omniscient Code Generator (Lite mode) build 49521"
  4147  00DA                     l4230:	
  4148  00DA  28F9               	goto	l4238
  4149                           opt subtitle "HI-TECH Software Omniscient Code Generator (Lite mode) build 49521"
  4150                           
  4151  00DB                     l344:	
  4152                           opt subtitle "HI-TECH Software Omniscient Code Generator (Lite mode) build 49521"
  4153                           
  4154  00DB                     l4232:	
  4155                           opt subtitle "HI-TECH Software Omniscient Code Generator (Lite mode) build 49521"
  4156                           
  4157  00DB  0851               	movf	(RFM70_Initialize@j),w
  4158  00DC  3E95               	addlw	low(_RX0_Address|8000h)
  4159  00DD  0084               	movwf	fsr0
  4160  00DE  3090               	movlw	high(_RX0_Address|8000h)
  4161  00DF  1803               	skipnc
  4162  00E0  3E01               	addlw	1
  4163  00E1  00FF               	movwf	btemp+1
  4164  00E2  160A  118A  2000   	fcall	stringtab
              120A  118A         
  4165  00E7  00BD               	movwf	(??_RFM70_Initialize+0)+0
  4166  00E8  0851               	movf	(RFM70_Initialize@j),w
  4167  00E9  3E44               	addlw	RFM70_Initialize@WriteArr&0ffh
  4168  00EA  0084               	movwf	fsr0
  4169  00EB  083D               	movf	(??_RFM70_Initialize+0)+0,w
  4170  00EC  1383               	bcf	status, 7	;select IRP bank0
  4171  00ED  0080               	movwf	indf
  4172                           opt subtitle "HI-TECH Software Omniscient Code Generator (Lite mode) build 49521"
  4173                           
  4174  00EE                     l4234:	
  4175  00EE  3001               	movlw	(01h)
  4176  00EF  00BD               	movwf	(??_RFM70_Initialize+0)+0
  4177  00F0  083D               	movf	(??_RFM70_Initialize+0)+0,w
  4178  00F1  07D1               	addwf	(RFM70_Initialize@j),f
  4179                           opt subtitle "HI-TECH Software Omniscient Code Generator (Lite mode) build 49521"
  4180  00F2                     l4236:	
  4181  00F2  3005               	movlw	(05h)
  4182  00F3  0251               	subwf	(RFM70_Initialize@j),w
  4183  00F4  1C03               	skipc
  4184  00F5  28F7               	goto	u4141
  4185  00F6  28F8               	goto	u4140
  4186  00F7                     u4141:
  4187  00F7  28DB               	goto	l4232
  4188  00F8                     u4140:
  4189  00F8  28F9               	goto	l4238
  4190                           opt subtitle "HI-TECH Software Omniscient Code Generator (Lite mode) build 49521"
  4191  00F9                     l345:	
  4192                           opt subtitle "HI-TECH Software Omniscient Code Generator (Lite mode) build 49521"
  4193                           
  4194  00F9                     l4238:	
  4195                           opt subtitle "HI-TECH Software Omniscient Code Generator (Lite mode) build 49521"
  4196                           
  4197  00F9  3044               	movlw	(RFM70_Initialize@WriteArr)&0ffh
  4198  00FA  00BD               	movwf	(??_RFM70_Initialize+0)+0
  4199  00FB  083D               	movf	(??_RFM70_Initialize+0)+0,w
  4200  00FC  00B7               	movwf	(?_SPI_Write_Buf)
  4201  00FD  3005               	movlw	(05h)
  4202  00FE  00BE               	movwf	(??_RFM70_Initialize+1)+0
  4203  00FF  083E               	movf	(??_RFM70_Initialize+1)+0,w
  4204  0100  00B8               	movwf	0+(?_SPI_Write_Buf)+01h
  4205  0101  3030               	movlw	(030h)
  4206  0102  160A  118A  25B3   	fcall	_SPI_Write_Buf
              120A  118A         
  4207                           opt subtitle "HI-TECH Software Omniscient Code Generator (Lite mode) build 49521"
  4208                           
  4209  0107                     l4240:	
  4210                           opt subtitle "HI-TECH Software Omniscient Code Generator (Lite mode) build 49521"
  4211  0107  301D               	movlw	(01Dh)
  4212  0108  160A  118A  250D   	fcall	_SPI_Read_Reg
              120A  118A         
  4213  010D  1283               	bcf	status, 5	;RP0=0, select bank0
  4214  010E  1303               	bcf	status, 6	;RP1=0, select bank0
  4215  010F  00BD               	movwf	(??_RFM70_Initialize+0)+0
  4216  0110  083D               	movf	(??_RFM70_Initialize+0)+0,w
  4217  0111  00D0               	movwf	(RFM70_Initialize@i)
  4218                           opt subtitle "HI-TECH Software Omniscient Code Generator (Lite mode) build 49521"
  4219                           
  4220  0112                     l4242:	
  4221                           opt subtitle "HI-TECH Software Omniscient Code Generator (Lite mode) build 49521"
  4222  0112  08D0               	movf	(RFM70_Initialize@i),f
  4223  0113  1D03               	skipz
  4224  0114  2916               	goto	u4151
  4225  0115  2917               	goto	u4150
  4226  0116                     u4151:
  4227  0116  2922               	goto	l4246
  4228  0117                     u4150:
  4229                           opt subtitle "HI-TECH Software Omniscient Code Generator (Lite mode) build 49521"
  4230                           
  4231  0117                     l4244:	
  4232                           opt subtitle "HI-TECH Software Omniscient Code Generator (Lite mode) build 49521"
  4233  0117  3073               	movlw	(073h)
  4234  0118  00BD               	movwf	(??_RFM70_Initialize+0)+0
  4235  0119  083D               	movf	(??_RFM70_Initialize+0)+0,w
  4236  011A  00B7               	movwf	(?_SPI_Write_Reg)
  4237  011B  3050               	movlw	(050h)
  4238  011C  160A  118A  24B0   	fcall	_SPI_Write_Reg
              120A  118A         
  4239  0121  2922               	goto	l4246
  4240                           opt subtitle "HI-TECH Software Omniscient Code Generator (Lite mode) build 49521"
  4241  0122                     l346:	
  4242                           opt subtitle "HI-TECH Software Omniscient Code Generator (Lite mode) build 49521"
  4243                           
  4244  0122                     l4246:	
  4245                           opt subtitle "HI-TECH Software Omniscient Code Generator (Lite mode) build 49521"
  4246  0122  3016               	movlw	(016h)
  4247  0123  1283               	bcf	status, 5	;RP0=0, select bank0
  4248  0124  1303               	bcf	status, 6	;RP1=0, select bank0
  4249  0125  00BD               	movwf	(??_RFM70_Initialize+0)+0
  4250  0126  083D               	movf	(??_RFM70_Initialize+0)+0,w
  4251  0127  00D0               	movwf	(RFM70_Initialize@i)
  4252                           opt subtitle "HI-TECH Software Omniscient Code Generator (Lite mode) build 49521"
  4253  0128                     l4248:	
  4254  0128  3015               	movlw	(015h)
  4255  0129  0250               	subwf	(RFM70_Initialize@i),w
  4256  012A  1803               	skipnc
  4257  012B  292D               	goto	u4161
  4258  012C  292E               	goto	u4160
  4259  012D                     u4161:
  4260  012D  2930               	goto	l4252
  4261  012E                     u4160:
  4262  012E  295F               	goto	l4258
  4263                           opt subtitle "HI-TECH Software Omniscient Code Generator (Lite mode) build 49521"
  4264  012F                     l4250:	
  4265  012F  295F               	goto	l4258
  4266                           opt subtitle "HI-TECH Software Omniscient Code Generator (Lite mode) build 49521"
  4267                           
  4268  0130                     l347:	
  4269                           opt subtitle "HI-TECH Software Omniscient Code Generator (Lite mode) build 49521"
  4270                           
  4271  0130                     l4252:	
  4272                           opt subtitle "HI-TECH Software Omniscient Code Generator (Lite mode) build 49521"
  4273                           
  4274  0130  1403               	setc
  4275  0131  0D50               	rlf	(RFM70_Initialize@i),w
  4276  0132  3E4A               	addlw	low(_Bank0_Reg|8000h)
  4277  0133  0084               	movwf	fsr0
  4278  0134  3090               	movlw	high(_Bank0_Reg|8000h)
  4279  0135  1803               	skipnc
  4280  0136  3E01               	addlw	1
  4281  0137  00FF               	movwf	btemp+1
  4282  0138  160A  118A  2000   	fcall	stringtab
              120A  118A         
  4283  013D  00BD               	movwf	(??_RFM70_Initialize+0)+0
  4284  013E  083D               	movf	(??_RFM70_Initialize+0)+0,w
  4285  013F  00B7               	movwf	(?_SPI_Write_Reg)
  4286  0140  0850               	movf	(RFM70_Initialize@i),w
  4287  0141  00BE               	movwf	(??_RFM70_Initialize+1)+0
  4288  0142  073E               	addwf	(??_RFM70_Initialize+1)+0,w
  4289  0143  3E4A               	addlw	low(_Bank0_Reg|8000h)
  4290  0144  0084               	movwf	fsr0
  4291  0145  3090               	movlw	high(_Bank0_Reg|8000h)
  4292  0146  1803               	skipnc
  4293  0147  3E01               	addlw	1
  4294  0148  00FF               	movwf	btemp+1
  4295  0149  160A  118A  2000   	fcall	stringtab
              120A  118A         
  4296  014E  3820               	iorlw	020h
  4297  014F  160A  118A  24B0   	fcall	_SPI_Write_Reg
              120A  118A         
  4298                           opt subtitle "HI-TECH Software Omniscient Code Generator (Lite mode) build 49521"
  4299                           
  4300  0154                     l4254:	
  4301  0154  3001               	movlw	low(01h)
  4302  0155  1283               	bcf	status, 5	;RP0=0, select bank0
  4303  0156  1303               	bcf	status, 6	;RP1=0, select bank0
  4304  0157  02D0               	subwf	(RFM70_Initialize@i),f
  4305                           opt subtitle "HI-TECH Software Omniscient Code Generator (Lite mode) build 49521"
  4306  0158                     l4256:	
  4307  0158  3015               	movlw	(015h)
  4308  0159  0250               	subwf	(RFM70_Initialize@i),w
  4309  015A  1803               	skipnc
  4310  015B  295D               	goto	u4171
  4311  015C  295E               	goto	u4170
  4312  015D                     u4171:
  4313  015D  2930               	goto	l4252
  4314  015E                     u4170:
  4315  015E  295F               	goto	l4258
  4316                           opt subtitle "HI-TECH Software Omniscient Code Generator (Lite mode) build 49521"
  4317  015F                     l348:	
  4318                           opt subtitle "HI-TECH Software Omniscient Code Generator (Lite mode) build 49521"
  4319                           
  4320  015F                     l4258:	
  4321                           opt subtitle "HI-TECH Software Omniscient Code Generator (Lite mode) build 49521"
  4322                           
  4323  015F  3001               	movlw	(01h)
  4324  0160  160A  118A  2633   	fcall	_SwitchCFG
              120A  118A         
  4325                           opt subtitle "HI-TECH Software Omniscient Code Generator (Lite mode) build 49521"
  4326                           
  4327  0165                     l4260:	
  4328                           opt subtitle "HI-TECH Software Omniscient Code Generator (Lite mode) build 49521"
  4329  0165  1283               	bcf	status, 5	;RP0=0, select bank0
  4330  0166  1303               	bcf	status, 6	;RP1=0, select bank0
  4331  0167  01D0               	clrf	(RFM70_Initialize@i)
  4332                           opt subtitle "HI-TECH Software Omniscient Code Generator (Lite mode) build 49521"
  4333  0168                     l4262:	
  4334  0168  3009               	movlw	(09h)
  4335  0169  0250               	subwf	(RFM70_Initialize@i),w
  4336  016A  1C03               	skipc
  4337  016B  296D               	goto	u4181
  4338  016C  296E               	goto	u4180
  4339  016D                     u4181:
  4340  016D  2970               	goto	l349
  4341  016E                     u4180:
  4342  016E  29E4               	goto	l4282
  4343                           opt subtitle "HI-TECH Software Omniscient Code Generator (Lite mode) build 49521"
  4344  016F                     l4264:	
  4345  016F  29E4               	goto	l4282
  4346                           opt subtitle "HI-TECH Software Omniscient Code Generator (Lite mode) build 49521"
  4347                           
  4348  0170                     l349:	
  4349                           opt subtitle "HI-TECH Software Omniscient Code Generator (Lite mode) build 49521"
  4350                           
  4351                           opt pagewidth 120
  4352  0170  01D1               	clrf	(RFM70_Initialize@j)
  4353                           opt subtitle "HI-TECH Software Omniscient Code Generator (Lite mode) build 49521"
  4354  0171                     l4266:	
  4355  0171  3004               	movlw	(04h)
  4356  0172  0251               	subwf	(RFM70_Initialize@j),w
  4357  0173  1C03               	skipc
  4358  0174  2976               	goto	u4191
  4359  0175  2977               	goto	u4190
  4360  0176                     u4191:
  4361  0176  2979               	goto	l4270
  4362  0177                     u4190:
  4363  0177  29C8               	goto	l4276
  4364                           opt subtitle "HI-TECH Software Omniscient Code Generator (Lite mode) build 49521"
  4365  0178                     l4268:	
  4366  0178  29C8               	goto	l4276
  4367                           opt subtitle "HI-TECH Software Omniscient Code Generator (Lite mode) build 49521"
  4368                           
  4369  0179                     l351:	
  4370                           opt subtitle "HI-TECH Software Omniscient Code Generator (Lite mode) build 49521"
  4371  0179                     l4270:	
  4372                           opt subtitle "HI-TECH Software Omniscient Code Generator (Lite mode) build 49521"
  4373  0179  0850               	movf	(RFM70_Initialize@i),w
  4374  017A  00BD               	movwf	(??_RFM70_Initialize+0)+0
  4375  017B  3001               	movlw	(02h)-1
  4376  017C                     u4205:
  4377  017C  1003               	clrc
  4378  017D  0DBD               	rlf	(??_RFM70_Initialize+0)+0,f
  4379  017E  3EFF               	addlw	-1
  4380  017F  1D03               	skipz
  4381  0180  297C               	goto	u4205
  4382  0181  1003               	clrc
  4383  0182  0D3D               	rlf	(??_RFM70_Initialize+0)+0,w
  4384  0183  3E12               	addlw	low(_Bank1_Reg0_13|8000h)
  4385  0184  0084               	movwf	fsr0
  4386  0185  3090               	movlw	high(_Bank1_Reg0_13|8000h)
  4387  0186  1803               	skipnc
  4388  0187  3E01               	addlw	1
  4389  0188  00FF               	movwf	btemp+1
  4390  0189  160A  118A  2000   	fcall	stringtab
              120A  118A         
  4391  018E  00BE               	movwf	((??_RFM70_Initialize+1)+0)
  4392  018F  160A  118A  2000   	fcall	stringtab
              120A  118A         
  4393  0194  00BF               	movwf	((??_RFM70_Initialize+1)+0+1)
  4394  0195  160A  118A  2000   	fcall	stringtab
              120A  118A         
  4395  019A  00C0               	movwf	((??_RFM70_Initialize+1)+0+2)
  4396  019B  160A  118A  2000   	fcall	stringtab
              120A  118A         
  4397  01A0  00C1               	movwf	((??_RFM70_Initialize+1)+0+3)
  4398  01A1  0851               	movf	(RFM70_Initialize@j),w
  4399  01A2  00C2               	movwf	(??_RFM70_Initialize+5)+0
  4400  01A3  3002               	movlw	(03h)-1
  4401  01A4                     u4215:
  4402  01A4  1003               	clrc
  4403  01A5  0DC2               	rlf	(??_RFM70_Initialize+5)+0,f
  4404  01A6  3EFF               	addlw	-1
  4405  01A7  1D03               	skipz
  4406  01A8  29A4               	goto	u4215
  4407  01A9  1003               	clrc
  4408  01AA  0D42               	rlf	(??_RFM70_Initialize+5)+0,w
  4409  01AB  3E01               	addlw	1
  4410  01AC  29B2               	goto	u4220
  4411  01AD                     u4225:
  4412  01AD  1003               	clrc
  4413  01AE  0CC1               	rrf	(??_RFM70_Initialize+1)+3,f
  4414  01AF  0CC0               	rrf	(??_RFM70_Initialize+1)+2,f
  4415  01B0  0CBF               	rrf	(??_RFM70_Initialize+1)+1,f
  4416  01B1  0CBE               	rrf	(??_RFM70_Initialize+1)+0,f
  4417  01B2                     u4220:
  4418  01B2  3EFF               	addlw	-1
  4419  01B3  1D03               	skipz
  4420  01B4  29AD               	goto	u4225
  4421  01B5  083E               	movf	0+(??_RFM70_Initialize+1)+0,w
  4422  01B6  00C3               	movwf	(??_RFM70_Initialize+6)+0
  4423  01B7  0851               	movf	(RFM70_Initialize@j),w
  4424  01B8  3E44               	addlw	RFM70_Initialize@WriteArr&0ffh
  4425  01B9  0084               	movwf	fsr0
  4426  01BA  0843               	movf	(??_RFM70_Initialize+6)+0,w
  4427  01BB  1383               	bcf	status, 7	;select IRP bank0
  4428  01BC  0080               	movwf	indf
  4429                           opt subtitle "HI-TECH Software Omniscient Code Generator (Lite mode) build 49521"
  4430                           
  4431  01BD                     l4272:	
  4432  01BD  3001               	movlw	(01h)
  4433  01BE  00BD               	movwf	(??_RFM70_Initialize+0)+0
  4434  01BF  083D               	movf	(??_RFM70_Initialize+0)+0,w
  4435  01C0  07D1               	addwf	(RFM70_Initialize@j),f
  4436                           opt subtitle "HI-TECH Software Omniscient Code Generator (Lite mode) build 49521"
  4437  01C1                     l4274:	
  4438  01C1  3004               	movlw	(04h)
  4439  01C2  0251               	subwf	(RFM70_Initialize@j),w
  4440  01C3  1C03               	skipc
  4441  01C4  29C6               	goto	u4231
  4442  01C5  29C7               	goto	u4230
  4443  01C6                     u4231:
  4444  01C6  2979               	goto	l4270
  4445  01C7                     u4230:
  4446  01C7  29C8               	goto	l4276
  4447                           opt subtitle "HI-TECH Software Omniscient Code Generator (Lite mode) build 49521"
  4448  01C8                     l352:	
  4449                           opt subtitle "HI-TECH Software Omniscient Code Generator (Lite mode) build 49521"
  4450                           
  4451  01C8                     l4276:	
  4452                           opt subtitle "HI-TECH Software Omniscient Code Generator (Lite mode) build 49521"
  4453  01C8  3044               	movlw	(RFM70_Initialize@WriteArr)&0ffh
  4454  01C9  00BD               	movwf	(??_RFM70_Initialize+0)+0
  4455  01CA  083D               	movf	(??_RFM70_Initialize+0)+0,w
  4456  01CB  00B7               	movwf	(?_SPI_Write_Buf)
  4457  01CC  3004               	movlw	(04h)
  4458  01CD  00BE               	movwf	(??_RFM70_Initialize+1)+0
  4459  01CE  083E               	movf	(??_RFM70_Initialize+1)+0,w
  4460  01CF  00B8               	movwf	0+(?_SPI_Write_Buf)+01h
  4461  01D0  0850               	movf	(RFM70_Initialize@i),w
  4462  01D1  3820               	iorlw	020h
  4463  01D2  160A  118A  25B3   	fcall	_SPI_Write_Buf
              120A  118A         
  4464                           opt subtitle "HI-TECH Software Omniscient Code Generator (Lite mode) build 49521"
  4465                           
  4466  01D7                     l4278:	
  4467  01D7  3001               	movlw	(01h)
  4468  01D8  1283               	bcf	status, 5	;RP0=0, select bank0
  4469  01D9  1303               	bcf	status, 6	;RP1=0, select bank0
  4470  01DA  00BD               	movwf	(??_RFM70_Initialize+0)+0
  4471  01DB  083D               	movf	(??_RFM70_Initialize+0)+0,w
  4472  01DC  07D0               	addwf	(RFM70_Initialize@i),f
  4473                           opt subtitle "HI-TECH Software Omniscient Code Generator (Lite mode) build 49521"
  4474  01DD                     l4280:	
  4475  01DD  3009               	movlw	(09h)
  4476  01DE  0250               	subwf	(RFM70_Initialize@i),w
  4477  01DF  1C03               	skipc
  4478  01E0  29E2               	goto	u4241
  4479  01E1  29E3               	goto	u4240
  4480  01E2                     u4241:
  4481  01E2  2970               	goto	l349
  4482  01E3                     u4240:
  4483  01E3  29E4               	goto	l4282
  4484                           opt subtitle "HI-TECH Software Omniscient Code Generator (Lite mode) build 49521"
  4485  01E4                     l350:	
  4486                           opt subtitle "HI-TECH Software Omniscient Code Generator (Lite mode) build 49521"
  4487                           
  4488  01E4                     l4282:	
  4489                           opt subtitle "HI-TECH Software Omniscient Code Generator (Lite mode) build 49521"
  4490                           
  4491  01E4  3009               	movlw	(09h)
  4492  01E5  00BD               	movwf	(??_RFM70_Initialize+0)+0
  4493  01E6  083D               	movf	(??_RFM70_Initialize+0)+0,w
  4494  01E7  00D0               	movwf	(RFM70_Initialize@i)
  4495  01E8  300E               	movlw	(0Eh)
  4496  01E9  0250               	subwf	(RFM70_Initialize@i),w
  4497  01EA  1C03               	skipc
  4498  01EB  29ED               	goto	u4251
  4499  01EC  29EE               	goto	u4250
  4500  01ED                     u4251:
  4501  01ED  29F0               	goto	l353
  4502  01EE                     u4250:
  4503  01EE  2A65               	goto	l354
  4504                           opt subtitle "HI-TECH Software Omniscient Code Generator (Lite mode) build 49521"
  4505  01EF                     l4284:	
  4506  01EF  2A65               	goto	l354
  4507                           opt subtitle "HI-TECH Software Omniscient Code Generator (Lite mode) build 49521"
  4508                           
  4509  01F0                     l353:	
  4510                           opt subtitle "HI-TECH Software Omniscient Code Generator (Lite mode) build 49521"
  4511                           
  4512                           opt pagewidth 120
  4513  01F0  01D1               	clrf	(RFM70_Initialize@j)
  4514                           opt subtitle "HI-TECH Software Omniscient Code Generator (Lite mode) build 49521"
  4515  01F1                     l4286:	
  4516  01F1  3004               	movlw	(04h)
  4517  01F2  0251               	subwf	(RFM70_Initialize@j),w
  4518  01F3  1C03               	skipc
  4519  01F4  29F6               	goto	u4261
  4520  01F5  29F7               	goto	u4260
  4521  01F6                     u4261:
  4522  01F6  29F9               	goto	l4290
  4523  01F7                     u4260:
  4524  01F7  2A4A               	goto	l4296
  4525                           opt subtitle "HI-TECH Software Omniscient Code Generator (Lite mode) build 49521"
  4526  01F8                     l4288:	
  4527  01F8  2A4A               	goto	l4296
  4528                           opt subtitle "HI-TECH Software Omniscient Code Generator (Lite mode) build 49521"
  4529                           
  4530  01F9                     l355:	
  4531                           opt subtitle "HI-TECH Software Omniscient Code Generator (Lite mode) build 49521"
  4532  01F9                     l4290:	
  4533                           opt subtitle "HI-TECH Software Omniscient Code Generator (Lite mode) build 49521"
  4534  01F9  0850               	movf	(RFM70_Initialize@i),w
  4535  01FA  00BD               	movwf	(??_RFM70_Initialize+0)+0
  4536  01FB  3001               	movlw	(02h)-1
  4537  01FC                     u4275:
  4538  01FC  1003               	clrc
  4539  01FD  0DBD               	rlf	(??_RFM70_Initialize+0)+0,f
  4540  01FE  3EFF               	addlw	-1
  4541  01FF  1D03               	skipz
  4542  0200  29FC               	goto	u4275
  4543  0201  1003               	clrc
  4544  0202  0D3D               	rlf	(??_RFM70_Initialize+0)+0,w
  4545  0203  3E12               	addlw	low(_Bank1_Reg0_13|8000h)
  4546  0204  0084               	movwf	fsr0
  4547  0205  3090               	movlw	high(_Bank1_Reg0_13|8000h)
  4548  0206  1803               	skipnc
  4549  0207  3E01               	addlw	1
  4550  0208  00FF               	movwf	btemp+1
  4551  0209  160A  118A  2000   	fcall	stringtab
              120A  118A         
  4552  020E  00BE               	movwf	((??_RFM70_Initialize+1)+0)
  4553  020F  160A  118A  2000   	fcall	stringtab
              120A  118A         
  4554  0214  00BF               	movwf	((??_RFM70_Initialize+1)+0+1)
  4555  0215  160A  118A  2000   	fcall	stringtab
              120A  118A         
  4556  021A  00C0               	movwf	((??_RFM70_Initialize+1)+0+2)
  4557  021B  160A  118A  2000   	fcall	stringtab
              120A  118A         
  4558  0220  00C1               	movwf	((??_RFM70_Initialize+1)+0+3)
  4559  0221  0351               	decf	(RFM70_Initialize@j),w
  4560  0222  3AFF               	xorlw	0ffh
  4561  0223  00C2               	movwf	(??_RFM70_Initialize+5)+0
  4562  0224  3002               	movlw	(03h)-1
  4563  0225                     u4285:
  4564  0225  1003               	clrc
  4565  0226  0DC2               	rlf	(??_RFM70_Initialize+5)+0,f
  4566  0227  3EFF               	addlw	-1
  4567  0228  1D03               	skipz
  4568  0229  2A25               	goto	u4285
  4569  022A  1003               	clrc
  4570  022B  0D42               	rlf	(??_RFM70_Initialize+5)+0,w
  4571  022C  3E18               	addlw	018h
  4572  022D  3E01               	addlw	1
  4573  022E  2A34               	goto	u4290
  4574  022F                     u4295:
  4575  022F  1003               	clrc
  4576  0230  0CC1               	rrf	(??_RFM70_Initialize+1)+3,f
  4577  0231  0CC0               	rrf	(??_RFM70_Initialize+1)+2,f
  4578  0232  0CBF               	rrf	(??_RFM70_Initialize+1)+1,f
  4579  0233  0CBE               	rrf	(??_RFM70_Initialize+1)+0,f
  4580  0234                     u4290:
  4581  0234  3EFF               	addlw	-1
  4582  0235  1D03               	skipz
  4583  0236  2A2F               	goto	u4295
  4584  0237  083E               	movf	0+(??_RFM70_Initialize+1)+0,w
  4585  0238  00C3               	movwf	(??_RFM70_Initialize+6)+0
  4586  0239  0851               	movf	(RFM70_Initialize@j),w
  4587  023A  3E44               	addlw	RFM70_Initialize@WriteArr&0ffh
  4588  023B  0084               	movwf	fsr0
  4589  023C  0843               	movf	(??_RFM70_Initialize+6)+0,w
  4590  023D  1383               	bcf	status, 7	;select IRP bank0
  4591  023E  0080               	movwf	indf
  4592                           opt subtitle "HI-TECH Software Omniscient Code Generator (Lite mode) build 49521"
  4593                           
  4594  023F                     l4292:	
  4595  023F  3001               	movlw	(01h)
  4596  0240  00BD               	movwf	(??_RFM70_Initialize+0)+0
  4597  0241  083D               	movf	(??_RFM70_Initialize+0)+0,w
  4598  0242  07D1               	addwf	(RFM70_Initialize@j),f
  4599                           opt subtitle "HI-TECH Software Omniscient Code Generator (Lite mode) build 49521"
  4600  0243                     l4294:	
  4601  0243  3004               	movlw	(04h)
  4602  0244  0251               	subwf	(RFM70_Initialize@j),w
  4603  0245  1C03               	skipc
  4604  0246  2A48               	goto	u4301
  4605  0247  2A49               	goto	u4300
  4606  0248                     u4301:
  4607  0248  29F9               	goto	l4290
  4608  0249                     u4300:
  4609  0249  2A4A               	goto	l4296
  4610                           opt subtitle "HI-TECH Software Omniscient Code Generator (Lite mode) build 49521"
  4611  024A                     l356:	
  4612                           opt subtitle "HI-TECH Software Omniscient Code Generator (Lite mode) build 49521"
  4613                           
  4614  024A                     l4296:	
  4615                           opt subtitle "HI-TECH Software Omniscient Code Generator (Lite mode) build 49521"
  4616  024A  3044               	movlw	(RFM70_Initialize@WriteArr)&0ffh
  4617  024B  00BD               	movwf	(??_RFM70_Initialize+0)+0
  4618  024C  083D               	movf	(??_RFM70_Initialize+0)+0,w
  4619  024D  00B7               	movwf	(?_SPI_Write_Buf)
  4620  024E  3004               	movlw	(04h)
  4621  024F  00BE               	movwf	(??_RFM70_Initialize+1)+0
  4622  0250  083E               	movf	(??_RFM70_Initialize+1)+0,w
  4623  0251  00B8               	movwf	0+(?_SPI_Write_Buf)+01h
  4624  0252  0850               	movf	(RFM70_Initialize@i),w
  4625  0253  3820               	iorlw	020h
  4626  0254  160A  118A  25B3   	fcall	_SPI_Write_Buf
              120A  118A         
  4627                           opt subtitle "HI-TECH Software Omniscient Code Generator (Lite mode) build 49521"
  4628                           
  4629  0259                     l4298:	
  4630  0259  3001               	movlw	(01h)
  4631  025A  1283               	bcf	status, 5	;RP0=0, select bank0
  4632  025B  1303               	bcf	status, 6	;RP1=0, select bank0
  4633  025C  00BD               	movwf	(??_RFM70_Initialize+0)+0
  4634  025D  083D               	movf	(??_RFM70_Initialize+0)+0,w
  4635  025E  07D0               	addwf	(RFM70_Initialize@i),f
  4636                           opt subtitle "HI-TECH Software Omniscient Code Generator (Lite mode) build 49521"
  4637  025F                     l4300:	
  4638  025F  300E               	movlw	(0Eh)
  4639  0260  0250               	subwf	(RFM70_Initialize@i),w
  4640  0261  1C03               	skipc
  4641  0262  2A64               	goto	u4311
  4642  0263  2A65               	goto	u4310
  4643  0264                     u4311:
  4644  0264  29F0               	goto	l353
  4645  0265                     u4310:
  4646                           opt subtitle "HI-TECH Software Omniscient Code Generator (Lite mode) build 49521"
  4647  0265                     l354:	
  4648                           opt subtitle "HI-TECH Software Omniscient Code Generator (Lite mode) build 49521"
  4649                           
  4650                           opt pagewidth 120
  4651  0265  01D1               	clrf	(RFM70_Initialize@j)
  4652                           opt subtitle "HI-TECH Software Omniscient Code Generator (Lite mode) build 49521"
  4653  0266                     l4302:	
  4654  0266  300B               	movlw	(0Bh)
  4655  0267  0251               	subwf	(RFM70_Initialize@j),w
  4656  0268  1C03               	skipc
  4657  0269  2A6B               	goto	u4321
  4658  026A  2A6C               	goto	u4320
  4659  026B                     u4321:
  4660  026B  2A6E               	goto	l4306
  4661  026C                     u4320:
  4662  026C  2A8C               	goto	l4312
  4663                           opt subtitle "HI-TECH Software Omniscient Code Generator (Lite mode) build 49521"
  4664  026D                     l4304:	
  4665  026D  2A8C               	goto	l4312
  4666                           opt subtitle "HI-TECH Software Omniscient Code Generator (Lite mode) build 49521"
  4667                           
  4668  026E                     l357:	
  4669                           opt subtitle "HI-TECH Software Omniscient Code Generator (Lite mode) build 49521"
  4670                           
  4671  026E                     l4306:	
  4672                           opt subtitle "HI-TECH Software Omniscient Code Generator (Lite mode) build 49521"
  4673                           
  4674  026E  0851               	movf	(RFM70_Initialize@j),w
  4675  026F  3E78               	addlw	low(_Bank1_Reg14|8000h)
  4676  0270  0084               	movwf	fsr0
  4677  0271  3090               	movlw	high(_Bank1_Reg14|8000h)
  4678  0272  1803               	skipnc
  4679  0273  3E01               	addlw	1
  4680  0274  00FF               	movwf	btemp+1
  4681  0275  160A  118A  2000   	fcall	stringtab
              120A  118A         
  4682  027A  00BD               	movwf	(??_RFM70_Initialize+0)+0
  4683  027B  0851               	movf	(RFM70_Initialize@j),w
  4684  027C  3E44               	addlw	RFM70_Initialize@WriteArr&0ffh
  4685  027D  0084               	movwf	fsr0
  4686  027E  083D               	movf	(??_RFM70_Initialize+0)+0,w
  4687  027F  1383               	bcf	status, 7	;select IRP bank0
  4688  0280  0080               	movwf	indf
  4689                           opt subtitle "HI-TECH Software Omniscient Code Generator (Lite mode) build 49521"
  4690                           
  4691  0281                     l4308:	
  4692  0281  3001               	movlw	(01h)
  4693  0282  00BD               	movwf	(??_RFM70_Initialize+0)+0
  4694  0283  083D               	movf	(??_RFM70_Initialize+0)+0,w
  4695  0284  07D1               	addwf	(RFM70_Initialize@j),f
  4696                           opt subtitle "HI-TECH Software Omniscient Code Generator (Lite mode) build 49521"
  4697  0285                     l4310:	
  4698  0285  300B               	movlw	(0Bh)
  4699  0286  0251               	subwf	(RFM70_Initialize@j),w
  4700  0287  1C03               	skipc
  4701  0288  2A8A               	goto	u4331
  4702  0289  2A8B               	goto	u4330
  4703  028A                     u4331:
  4704  028A  2A6E               	goto	l4306
  4705  028B                     u4330:
  4706  028B  2A8C               	goto	l4312
  4707                           opt subtitle "HI-TECH Software Omniscient Code Generator (Lite mode) build 49521"
  4708  028C                     l358:	
  4709                           opt subtitle "HI-TECH Software Omniscient Code Generator (Lite mode) build 49521"
  4710                           
  4711  028C                     l4312:	
  4712                           opt subtitle "HI-TECH Software Omniscient Code Generator (Lite mode) build 49521"
  4713                           
  4714  028C  3044               	movlw	(RFM70_Initialize@WriteArr)&0ffh
  4715  028D  00BD               	movwf	(??_RFM70_Initialize+0)+0
  4716  028E  083D               	movf	(??_RFM70_Initialize+0)+0,w
  4717  028F  00B7               	movwf	(?_SPI_Write_Buf)
  4718  0290  300B               	movlw	(0Bh)
  4719  0291  00BE               	movwf	(??_RFM70_Initialize+1)+0
  4720  0292  083E               	movf	(??_RFM70_Initialize+1)+0,w
  4721  0293  00B8               	movwf	0+(?_SPI_Write_Buf)+01h
  4722  0294  302E               	movlw	(02Eh)
  4723  0295  160A  118A  25B3   	fcall	_SPI_Write_Buf
              120A  118A         
  4724                           opt subtitle "HI-TECH Software Omniscient Code Generator (Lite mode) build 49521"
  4725                           
  4726  029A                     l4314:	
  4727                           opt subtitle "HI-TECH Software Omniscient Code Generator (Lite mode) build 49521"
  4728  029A  1283               	bcf	status, 5	;RP0=0, select bank0
  4729  029B  1303               	bcf	status, 6	;RP1=0, select bank0
  4730  029C  01D1               	clrf	(RFM70_Initialize@j)
  4731                           opt subtitle "HI-TECH Software Omniscient Code Generator (Lite mode) build 49521"
  4732  029D                     l4316:	
  4733  029D  3004               	movlw	(04h)
  4734  029E  0251               	subwf	(RFM70_Initialize@j),w
  4735  029F  1C03               	skipc
  4736  02A0  2AA2               	goto	u4341
  4737  02A1  2AA3               	goto	u4340
  4738  02A2                     u4341:
  4739  02A2  2AA5               	goto	l4320
  4740  02A3                     u4340:
  4741  02A3  2AE8               	goto	l4326
  4742                           opt subtitle "HI-TECH Software Omniscient Code Generator (Lite mode) build 49521"
  4743  02A4                     l4318:	
  4744  02A4  2AE8               	goto	l4326
  4745                           opt subtitle "HI-TECH Software Omniscient Code Generator (Lite mode) build 49521"
  4746                           
  4747  02A5                     l359:	
  4748                           opt subtitle "HI-TECH Software Omniscient Code Generator (Lite mode) build 49521"
  4749  02A5                     l4320:	
  4750                           opt subtitle "HI-TECH Software Omniscient Code Generator (Lite mode) build 49521"
  4751  02A5  3022               	movlw	low(_Bank1_Reg0_13|8000h+010h)
  4752  02A6  0084               	movwf	fsr0
  4753  02A7  3090               	movlw	high(_Bank1_Reg0_13|8000h+010h)
  4754  02A8  00FF               	movwf	btemp+1
  4755  02A9  160A  118A  2000   	fcall	stringtab
              120A  118A         
  4756  02AE  00BD               	movwf	((??_RFM70_Initialize+0)+0)
  4757  02AF  160A  118A  2000   	fcall	stringtab
              120A  118A         
  4758  02B4  00BE               	movwf	((??_RFM70_Initialize+0)+0+1)
  4759  02B5  160A  118A  2000   	fcall	stringtab
              120A  118A         
  4760  02BA  00BF               	movwf	((??_RFM70_Initialize+0)+0+2)
  4761  02BB  160A  118A  2000   	fcall	stringtab
              120A  118A         
  4762  02C0  00C0               	movwf	((??_RFM70_Initialize+0)+0+3)
  4763  02C1  0851               	movf	(RFM70_Initialize@j),w
  4764  02C2  00C1               	movwf	(??_RFM70_Initialize+4)+0
  4765  02C3  3002               	movlw	(03h)-1
  4766  02C4                     u4355:
  4767  02C4  1003               	clrc
  4768  02C5  0DC1               	rlf	(??_RFM70_Initialize+4)+0,f
  4769  02C6  3EFF               	addlw	-1
  4770  02C7  1D03               	skipz
  4771  02C8  2AC4               	goto	u4355
  4772  02C9  1003               	clrc
  4773  02CA  0D41               	rlf	(??_RFM70_Initialize+4)+0,w
  4774  02CB  3E01               	addlw	1
  4775  02CC  2AD2               	goto	u4360
  4776  02CD                     u4365:
  4777  02CD  1003               	clrc
  4778  02CE  0CC0               	rrf	(??_RFM70_Initialize+0)+3,f
  4779  02CF  0CBF               	rrf	(??_RFM70_Initialize+0)+2,f
  4780  02D0  0CBE               	rrf	(??_RFM70_Initialize+0)+1,f
  4781  02D1  0CBD               	rrf	(??_RFM70_Initialize+0)+0,f
  4782  02D2                     u4360:
  4783  02D2  3EFF               	addlw	-1
  4784  02D3  1D03               	skipz
  4785  02D4  2ACD               	goto	u4365
  4786  02D5  083D               	movf	0+(??_RFM70_Initialize+0)+0,w
  4787  02D6  00C2               	movwf	(??_RFM70_Initialize+5)+0
  4788  02D7  0851               	movf	(RFM70_Initialize@j),w
  4789  02D8  3E44               	addlw	RFM70_Initialize@WriteArr&0ffh
  4790  02D9  0084               	movwf	fsr0
  4791  02DA  0842               	movf	(??_RFM70_Initialize+5)+0,w
  4792  02DB  1383               	bcf	status, 7	;select IRP bank0
  4793  02DC  0080               	movwf	indf
  4794                           opt subtitle "HI-TECH Software Omniscient Code Generator (Lite mode) build 49521"
  4795                           
  4796  02DD                     l4322:	
  4797  02DD  3001               	movlw	(01h)
  4798  02DE  00BD               	movwf	(??_RFM70_Initialize+0)+0
  4799  02DF  083D               	movf	(??_RFM70_Initialize+0)+0,w
  4800  02E0  07D1               	addwf	(RFM70_Initialize@j),f
  4801                           opt subtitle "HI-TECH Software Omniscient Code Generator (Lite mode) build 49521"
  4802  02E1                     l4324:	
  4803  02E1  3004               	movlw	(04h)
  4804  02E2  0251               	subwf	(RFM70_Initialize@j),w
  4805  02E3  1C03               	skipc
  4806  02E4  2AE6               	goto	u4371
  4807  02E5  2AE7               	goto	u4370
  4808  02E6                     u4371:
  4809  02E6  2AA5               	goto	l4320
  4810  02E7                     u4370:
  4811  02E7  2AE8               	goto	l4326
  4812                           opt subtitle "HI-TECH Software Omniscient Code Generator (Lite mode) build 49521"
  4813  02E8                     l360:	
  4814                           opt subtitle "HI-TECH Software Omniscient Code Generator (Lite mode) build 49521"
  4815                           
  4816  02E8                     l4326:	
  4817                           opt subtitle "HI-TECH Software Omniscient Code Generator (Lite mode) build 49521"
  4818  02E8  0844               	movf	(RFM70_Initialize@WriteArr),w
  4819  02E9  3806               	iorlw	06h
  4820  02EA  00BD               	movwf	(??_RFM70_Initialize+0)+0
  4821  02EB  083D               	movf	(??_RFM70_Initialize+0)+0,w
  4822  02EC  00C4               	movwf	(RFM70_Initialize@WriteArr)
  4823                           opt subtitle "HI-TECH Software Omniscient Code Generator (Lite mode) build 49521"
  4824                           
  4825  02ED                     l4328:	
  4826                           opt subtitle "HI-TECH Software Omniscient Code Generator (Lite mode) build 49521"
  4827  02ED  3044               	movlw	(RFM70_Initialize@WriteArr)&0ffh
  4828  02EE  00BD               	movwf	(??_RFM70_Initialize+0)+0
  4829  02EF  083D               	movf	(??_RFM70_Initialize+0)+0,w
  4830  02F0  00B7               	movwf	(?_SPI_Write_Buf)
  4831  02F1  3004               	movlw	(04h)
  4832  02F2  00BE               	movwf	(??_RFM70_Initialize+1)+0
  4833  02F3  083E               	movf	(??_RFM70_Initialize+1)+0,w
  4834  02F4  00B8               	movwf	0+(?_SPI_Write_Buf)+01h
  4835  02F5  3024               	movlw	(024h)
  4836  02F6  160A  118A  25B3   	fcall	_SPI_Write_Buf
              120A  118A         
  4837                           opt subtitle "HI-TECH Software Omniscient Code Generator (Lite mode) build 49521"
  4838                           
  4839  02FB                     l4330:	
  4840                           opt subtitle "HI-TECH Software Omniscient Code Generator (Lite mode) build 49521"
  4841  02FB  1283               	bcf	status, 5	;RP0=0, select bank0
  4842  02FC  1303               	bcf	status, 6	;RP1=0, select bank0
  4843  02FD  0844               	movf	(RFM70_Initialize@WriteArr),w
  4844  02FE  39F9               	andlw	0F9h
  4845  02FF  00BD               	movwf	(??_RFM70_Initialize+0)+0
  4846  0300  083D               	movf	(??_RFM70_Initialize+0)+0,w
  4847  0301  00C4               	movwf	(RFM70_Initialize@WriteArr)
  4848                           opt subtitle "HI-TECH Software Omniscient Code Generator (Lite mode) build 49521"
  4849                           
  4850  0302  3044               	movlw	(RFM70_Initialize@WriteArr)&0ffh
  4851  0303  00BD               	movwf	(??_RFM70_Initialize+0)+0
  4852  0304  083D               	movf	(??_RFM70_Initialize+0)+0,w
  4853  0305  00B7               	movwf	(?_SPI_Write_Buf)
  4854  0306  3004               	movlw	(04h)
  4855  0307  00BE               	movwf	(??_RFM70_Initialize+1)+0
  4856  0308  083E               	movf	(??_RFM70_Initialize+1)+0,w
  4857  0309  00B8               	movwf	0+(?_SPI_Write_Buf)+01h
  4858  030A  3024               	movlw	(024h)
  4859  030B  160A  118A  25B3   	fcall	_SPI_Write_Buf
              120A  118A         
  4860                           opt subtitle "HI-TECH Software Omniscient Code Generator (Lite mode) build 49521"
  4861                           
  4862  0310                     l4332:	
  4863                           opt subtitle "HI-TECH Software Omniscient Code Generator (Lite mode) build 49521"
  4864                           
  4865  0310  3082               movlw	130
  4866  0311  1283               	bcf	status, 5	;RP0=0, select bank0
  4867  0312  1303               	bcf	status, 6	;RP1=0, select bank0
  4868  0313  00BE               movwf	((??_RFM70_Initialize+0)+0+1),f
  4869  0314  30DD               	movlw	221
  4870  0315  00BD               movwf	((??_RFM70_Initialize+0)+0),f
  4871  0316                     u4747:
  4872  0316  0BBD               	decfsz	((??_RFM70_Initialize+0)+0),f
  4873  0317  2B16               	goto	u4747
  4874  0318  0BBE               	decfsz	((??_RFM70_Initialize+0)+0+1),f
  4875  0319  2B16               	goto	u4747
  4876  031A  2B1B               	nop2
  4877                           opt subtitle "HI-TECH Software Omniscient Code Generator (Lite mode) build 49521"
  4878                           
  4879                           opt pagewidth 120
  4880                           
  4881  031B                     l4334:	
  4882                           opt subtitle "HI-TECH Software Omniscient Code Generator (Lite mode) build 49521"
  4883  031B  3000               	movlw	(0)
  4884  031C  160A  118A  2633   	fcall	_SwitchCFG
              120A  118A         
  4885                           opt subtitle "HI-TECH Software Omniscient Code Generator (Lite mode) build 49521"
  4886                           
  4887  0321                     l4336:	
  4888                           opt subtitle "HI-TECH Software Omniscient Code Generator (Lite mode) build 49521"
  4889  0321  1283               	bcf	status, 5	;RP0=0, select bank0
  4890  0322  1303               	bcf	status, 6	;RP1=0, select bank0
  4891  0323  1107               	bcf	(7),2	;volatile
  4892                           opt subtitle "HI-TECH Software Omniscient Code Generator (Lite mode) build 49521"
  4893                           
  4894  0324                     l361:	
  4895  0324  0008               	return
  4896                           opt subtitle "HI-TECH Software Omniscient Code Generator (Lite mode) build 49521"
  4897                           
  4898  0325                     	__end_of_RFM70_Initialize:
  4899                           opt subtitle "HI-TECH Software Omniscient Code Generator (Lite mode) build 49521"
  4900                           
  4901                           opt pagewidth 120
  4902                           
  4903                           	opt lm
  4904                           
  4905                           	processor	16LF707
  4906                           clrc	macro
  4907                           	bcf	3,0
  4908                           	endm
  4909                           clrz	macro
  4910                           	bcf	3,2
  4911                           	endm
  4912                           setc	macro
  4913                           	bsf	3,0
  4914                           	endm
  4915                           setz	macro
  4916                           	bsf	3,2
  4917                           	endm
  4918                           skipc	macro
  4919                           	btfss	3,0
  4920                           	endm
  4921                           skipz	macro
  4922                           	btfss	3,2
  4923                           	endm
  4924                           skipnc	macro
  4925                           	btfsc	3,0
  4926                           	endm
  4927                           skipnz	macro
  4928                           	btfsc	3,2
  4929                           	endm
  4930                           indf	equ	0
  4931                           indf0	equ	0
  4932                           pc	equ	2
  4933  1608                     __ptext1174:	;psect for function _adcReadTemp
  4934                           opt subtitle "HI-TECH Software Omniscient Code Generator (Lite mode) build 49521"
  4935                           
  4936                           opt pagewidth 120
  4937                           
  4938  002B                     	__size_of_adcReadTemp	equ	__end_of_adcReadTemp-_adcReadTemp
  4939                           opt subtitle "HI-TECH Software Omniscient Code Generator (Lite mode) build 49521"
  4940  1608                     _adcReadTemp:	
  4941                           opt subtitle "HI-TECH Software Omniscient Code Generator (Lite mode) build 49521"
  4942                           
  4943                           opt pagewidth 120
  4944                           
  4945  1608                     l3098:	
  4946                           opt subtitle "HI-TECH Software Omniscient Code Generator (Lite mode) build 49521"
  4947                           
  4948  1608  1283               	bcf	status, 5	;RP0=0, select bank0
  4949  1609  1303               	bcf	status, 6	;RP1=0, select bank0
  4950  160A  081F               	movf	(31),w	;volatile
  4951  160B  39C3               	andlw	not (((1<<4)-1)<<2)
  4952  160C  381C               	iorlw	(07h & ((1<<4)-1))<<2
  4953  160D  009F               	movwf	(31)	;volatile
  4954                           opt subtitle "HI-TECH Software Omniscient Code Generator (Lite mode) build 49521"
  4955                           
  4956  160E  1683               	bsf	status, 5	;RP0=1, select bank1
  4957  160F  1303               	bcf	status, 6	;RP1=0, select bank1
  4958  1610  081D               	movf	(157)^080h,w	;volatile
  4959  1611  39FC               	andlw	not (((1<<2)-1)<<0)
  4960  1612  3801               	iorlw	(01h & ((1<<2)-1))<<0
  4961  1613  009D               	movwf	(157)^080h	;volatile
  4962                           opt subtitle "HI-TECH Software Omniscient Code Generator (Lite mode) build 49521"
  4963                           
  4964  1614                     l3100:	
  4965                           opt subtitle "HI-TECH Software Omniscient Code Generator (Lite mode) build 49521"
  4966  1614  1283               	bcf	status, 5	;RP0=0, select bank0
  4967  1615  1303               	bcf	status, 6	;RP1=0, select bank0
  4968  1616  141F               	bsf	(31),0	;volatile
  4969                           opt subtitle "HI-TECH Software Omniscient Code Generator (Lite mode) build 49521"
  4970                           
  4971  1617                     l3102:	
  4972                           opt subtitle "HI-TECH Software Omniscient Code Generator (Lite mode) build 49521"
  4973  1617  1408               	bsf	(8),0	;volatile
  4974                           opt subtitle "HI-TECH Software Omniscient Code Generator (Lite mode) build 49521"
  4975                           
  4976  1618                     l3104:	
  4977                           opt subtitle "HI-TECH Software Omniscient Code Generator (Lite mode) build 49521"
  4978                           
  4979  1618  300D               movlw	13
  4980  1619  00B5               movwf	((??_adcReadTemp+0)+0+1),f
  4981  161A  30FB               	movlw	251
  4982  161B  00B4               movwf	((??_adcReadTemp+0)+0),f
  4983  161C                     u4757:
  4984  161C  0BB4               	decfsz	((??_adcReadTemp+0)+0),f
  4985  161D  2E1C               	goto	u4757
  4986  161E  0BB5               	decfsz	((??_adcReadTemp+0)+0+1),f
  4987  161F  2E1C               	goto	u4757
  4988  1620  2E21               	nop2
  4989                           opt subtitle "HI-TECH Software Omniscient Code Generator (Lite mode) build 49521"
  4990                           
  4991                           opt pagewidth 120
  4992                           
  4993  1621                     l3106:	
  4994                           opt subtitle "HI-TECH Software Omniscient Code Generator (Lite mode) build 49521"
  4995  1621  1283               	bcf	status, 5	;RP0=0, select bank0
  4996  1622  1303               	bcf	status, 6	;RP1=0, select bank0
  4997  1623  149F               	bsf	(31),1	;volatile
  4998                           opt subtitle "HI-TECH Software Omniscient Code Generator (Lite mode) build 49521"
  4999                           
  5000  1624  2E25               	goto	l195
  5001                           opt subtitle "HI-TECH Software Omniscient Code Generator (Lite mode) build 49521"
  5002  1625                     l196:	
  5003                           opt subtitle "HI-TECH Software Omniscient Code Generator (Lite mode) build 49521"
  5004  1625                     l195:	
  5005  1625  189F               	btfsc	(31),1	;volatile
  5006  1626  2E28               	goto	u2621
  5007  1627  2E29               	goto	u2620
  5008  1628                     u2621:
  5009  1628  2E25               	goto	l195
  5010  1629                     u2620:
  5011  1629  2E2A               	goto	l3108
  5012                           opt subtitle "HI-TECH Software Omniscient Code Generator (Lite mode) build 49521"
  5013  162A                     l197:	
  5014                           opt subtitle "HI-TECH Software Omniscient Code Generator (Lite mode) build 49521"
  5015                           
  5016  162A                     l3108:	
  5017                           opt subtitle "HI-TECH Software Omniscient Code Generator (Lite mode) build 49521"
  5018  162A  081E               	movf	(30),w	;volatile
  5019  162B  00B4               	movwf	(??_adcReadTemp+0)+0
  5020  162C  0834               	movf	(??_adcReadTemp+0)+0,w
  5021  162D  00B6               	movwf	(adcReadTemp@value)
  5022                           opt subtitle "HI-TECH Software Omniscient Code Generator (Lite mode) build 49521"
  5023                           
  5024  162E                     l3110:	
  5025                           opt subtitle "HI-TECH Software Omniscient Code Generator (Lite mode) build 49521"
  5026  162E  101F               	bcf	(31),0	;volatile
  5027                           opt subtitle "HI-TECH Software Omniscient Code Generator (Lite mode) build 49521"
  5028                           
  5029  162F                     l3112:	
  5030                           opt subtitle "HI-TECH Software Omniscient Code Generator (Lite mode) build 49521"
  5031  162F  1008               	bcf	(8),0	;volatile
  5032                           opt subtitle "HI-TECH Software Omniscient Code Generator (Lite mode) build 49521"
  5033                           
  5034  1630  0836               	movf	(adcReadTemp@value),w
  5035  1631  2E32               	goto	l198
  5036                           opt subtitle "HI-TECH Software Omniscient Code Generator (Lite mode) build 49521"
  5037  1632                     l3114:	
  5038                           opt subtitle "HI-TECH Software Omniscient Code Generator (Lite mode) build 49521"
  5039                           
  5040  1632                     l198:	
  5041  1632  0008               	return
  5042                           opt subtitle "HI-TECH Software Omniscient Code Generator (Lite mode) build 49521"
  5043                           
  5044  1633                     	__end_of_adcReadTemp:
  5045                           opt subtitle "HI-TECH Software Omniscient Code Generator (Lite mode) build 49521"
  5046                           
  5047                           opt pagewidth 120
  5048                           
  5049                           	opt lm
  5050                           
  5051                           	processor	16LF707
  5052                           clrc	macro
  5053                           	bcf	3,0
  5054                           	endm
  5055                           clrz	macro
  5056                           	bcf	3,2
  5057                           	endm
  5058                           setc	macro
  5059                           	bsf	3,0
  5060                           	endm
  5061                           setz	macro
  5062                           	bsf	3,2
  5063                           	endm
  5064                           skipc	macro
  5065                           	btfss	3,0
  5066                           	endm
  5067                           skipz	macro
  5068                           	btfss	3,2
  5069                           	endm
  5070                           skipnc	macro
  5071                           	btfsc	3,0
  5072                           	endm
  5073                           skipnz	macro
  5074                           	btfsc	3,2
  5075                           	endm
  5076                           indf	equ	0
  5077                           indf0	equ	0
  5078                           pc	equ	2
  5079                           pcl	equ	2
  5080                           status	equ	3
  5081                           fsr	equ	4
  5082                           fsr0	equ	4
  5083                           c	equ	1
  5084                           z	equ	0
  5085                           pclath	equ	10
  5086                           # 46 "/Applications/microchip/xc8/v1.12/include/pic16lf707.h"
  5087                           INDF equ 00h ;# 
  5088                           # 52 "/Applications/microchip/xc8/v1.12/include/pic16lf707.h"
  5089                           TMR0 equ 01h ;# 
  5090  0ADE                     __ptext1175:	;psect for function _Send_Packet
  5091                           opt subtitle "HI-TECH Software Omniscient Code Generator (Lite mode) build 49521"
  5092                           
  5093                           opt pagewidth 120
  5094                           
  5095  00D4                     	__size_of_Send_Packet	equ	__end_of_Send_Packet-_Send_Packet
  5096                           opt subtitle "HI-TECH Software Omniscient Code Generator (Lite mode) build 49521"
  5097  0ADE                     _Send_Packet:	
  5098                           opt subtitle "HI-TECH Software Omniscient Code Generator (Lite mode) build 49521"
  5099                           
  5100                           opt pagewidth 120
  5101                           
  5102  0ADE  1683               	bsf	status, 5	;RP0=1, select bank1
  5103  0ADF  1303               	bcf	status, 6	;RP1=0, select bank1
  5104  0AE0  00A9               	movwf	(Send_Packet@type)^080h
  5105                           opt subtitle "HI-TECH Software Omniscient Code Generator (Lite mode) build 49521"
  5106  0AE1                     l4338:	
  5107                           opt subtitle "HI-TECH Software Omniscient Code Generator (Lite mode) build 49521"
  5108                           
  5109  0AE1  160A  118A  2589   	fcall	_SwitchToTxMode
              120A  158A         
  5110                           opt subtitle "HI-TECH Software Omniscient Code Generator (Lite mode) build 49521"
  5111                           
  5112  0AE6                     l4340:	
  5113                           opt subtitle "HI-TECH Software Omniscient Code Generator (Lite mode) build 49521"
  5114  0AE6  3017               	movlw	(017h)
  5115  0AE7  160A  118A  250D   	fcall	_SPI_Read_Reg
              120A  158A         
  5116  0AEC  1283               	bcf	status, 5	;RP0=0, select bank0
  5117  0AED  1303               	bcf	status, 6	;RP1=0, select bank0
  5118  0AEE  00CD               	movwf	(??_Send_Packet+0)+0
  5119  0AEF  084D               	movf	(??_Send_Packet+0)+0,w
  5120  0AF0  1683               	bsf	status, 5	;RP0=1, select bank1
  5121  0AF1  1303               	bcf	status, 6	;RP1=0, select bank1
  5122  0AF2  00AA               	movwf	(Send_Packet@fifo_sta)^080h
  5123                           opt subtitle "HI-TECH Software Omniscient Code Generator (Lite mode) build 49521"
  5124                           
  5125  0AF3                     l4342:	
  5126                           opt subtitle "HI-TECH Software Omniscient Code Generator (Lite mode) build 49521"
  5127  0AF3  1AAA               	btfsc	(Send_Packet@fifo_sta)^080h,(5)&7
  5128  0AF4  2AF6               	goto	u4381
  5129  0AF5  2AF7               	goto	u4380
  5130  0AF6                     u4381:
  5131  0AF6  2BB1               	goto	l260
  5132  0AF7                     u4380:
  5133                           opt subtitle "HI-TECH Software Omniscient Code Generator (Lite mode) build 49521"
  5134                           
  5135  0AF7                     l4344:	
  5136                           opt subtitle "HI-TECH Software Omniscient Code Generator (Lite mode) build 49521"
  5137                           
  5138  0AF7  308D               	movlw	low(STR_8|8000h)
  5139  0AF8  1283               	bcf	status, 5	;RP0=0, select bank0
  5140  0AF9  1303               	bcf	status, 6	;RP1=0, select bank0
  5141  0AFA  00C2               	movwf	(?_printf)
  5142  0AFB  3091               	movlw	high(STR_8|8000h)
  5143  0AFC  00C3               	movwf	((?_printf))+1
  5144  0AFD  120A  158A  2600   	fcall	_printf
              120A  158A         
  5145                           opt subtitle "HI-TECH Software Omniscient Code Generator (Lite mode) build 49521"
  5146                           
  5147  0B02                     l4346:	
  5148                           opt subtitle "HI-TECH Software Omniscient Code Generator (Lite mode) build 49521"
  5149  0B02  1683               	bsf	status, 5	;RP0=1, select bank1
  5150  0B03  1303               	bcf	status, 6	;RP1=0, select bank1
  5151  0B04  01AB               	clrf	(Send_Packet@i)^080h
  5152  0B05  2B2B               	goto	l4352
  5153                           opt subtitle "HI-TECH Software Omniscient Code Generator (Lite mode) build 49521"
  5154  0B06                     l253:	
  5155                           opt subtitle "HI-TECH Software Omniscient Code Generator (Lite mode) build 49521"
  5156                           
  5157  0B06                     l4348:	
  5158                           opt subtitle "HI-TECH Software Omniscient Code Generator (Lite mode) build 49521"
  5159  0B06  309C               	movlw	low(STR_9|8000h)
  5160  0B07  1283               	bcf	status, 5	;RP0=0, select bank0
  5161  0B08  1303               	bcf	status, 6	;RP1=0, select bank0
  5162  0B09  00C2               	movwf	(?_printf)
  5163  0B0A  3091               	movlw	high(STR_9|8000h)
  5164  0B0B  00C3               	movwf	((?_printf))+1
  5165  0B0C  1683               	bsf	status, 5	;RP0=1, select bank1
  5166  0B0D  1303               	bcf	status, 6	;RP1=0, select bank1
  5167  0B0E  082B               	movf	(Send_Packet@i)^080h,w
  5168  0B0F  1283               	bcf	status, 5	;RP0=0, select bank0
  5169  0B10  1303               	bcf	status, 6	;RP1=0, select bank0
  5170  0B11  074B               	addwf	(Send_Packet@pbuf),w
  5171  0B12  00CD               	movwf	(??_Send_Packet+0)+0
  5172  0B13  084D               	movf	0+(??_Send_Packet+0)+0,w
  5173  0B14  0084               	movwf	fsr0
  5174  0B15  1383               	bcf	status, 7	;select IRP bank0
  5175  0B16  0800               	movf	indf,w
  5176  0B17  00CE               	movwf	(??_Send_Packet+1)+0+0
  5177  0B18  01CF               	clrf	(??_Send_Packet+1)+0+1
  5178  0B19  084E               	movf	0+(??_Send_Packet+1)+0,w
  5179  0B1A  00C4               	movwf	0+(?_printf)+02h
  5180  0B1B  084F               	movf	1+(??_Send_Packet+1)+0,w
  5181  0B1C  00C5               	movwf	1+(?_printf)+02h
  5182  0B1D  120A  158A  2600   	fcall	_printf
              120A  158A         
  5183                           opt subtitle "HI-TECH Software Omniscient Code Generator (Lite mode) build 49521"
  5184                           
  5185  0B22                     l4350:	
  5186  0B22  3001               	movlw	(01h)
  5187  0B23  1283               	bcf	status, 5	;RP0=0, select bank0
  5188  0B24  1303               	bcf	status, 6	;RP1=0, select bank0
  5189  0B25  00CD               	movwf	(??_Send_Packet+0)+0
  5190  0B26  084D               	movf	(??_Send_Packet+0)+0,w
  5191  0B27  1683               	bsf	status, 5	;RP0=1, select bank1
  5192  0B28  1303               	bcf	status, 6	;RP1=0, select bank1
  5193  0B29  07AB               	addwf	(Send_Packet@i)^080h,f
  5194  0B2A  2B2B               	goto	l4352
  5195                           opt subtitle "HI-TECH Software Omniscient Code Generator (Lite mode) build 49521"
  5196  0B2B                     l252:	
  5197                           opt subtitle "HI-TECH Software Omniscient Code Generator (Lite mode) build 49521"
  5198  0B2B                     l4352:	
  5199  0B2B  1283               	bcf	status, 5	;RP0=0, select bank0
  5200  0B2C  1303               	bcf	status, 6	;RP1=0, select bank0
  5201  0B2D  084C               	movf	(Send_Packet@len),w
  5202  0B2E  1683               	bsf	status, 5	;RP0=1, select bank1
  5203  0B2F  1303               	bcf	status, 6	;RP1=0, select bank1
  5204  0B30  022B               	subwf	(Send_Packet@i)^080h,w
  5205  0B31  1C03               	skipc
  5206  0B32  2B34               	goto	u4391
  5207  0B33  2B35               	goto	u4390
  5208  0B34                     u4391:
  5209  0B34  2B06               	goto	l4348
  5210  0B35                     u4390:
  5211  0B35  2B36               	goto	l4354
  5212                           opt subtitle "HI-TECH Software Omniscient Code Generator (Lite mode) build 49521"
  5213  0B36                     l254:	
  5214                           opt subtitle "HI-TECH Software Omniscient Code Generator (Lite mode) build 49521"
  5215                           
  5216  0B36                     l4354:	
  5217                           opt subtitle "HI-TECH Software Omniscient Code Generator (Lite mode) build 49521"
  5218                           
  5219  0B36  3099               	movlw	low(STR_10|8000h)
  5220  0B37  1283               	bcf	status, 5	;RP0=0, select bank0
  5221  0B38  1303               	bcf	status, 6	;RP1=0, select bank0
  5222  0B39  00C2               	movwf	(?_printf)
  5223  0B3A  3091               	movlw	high(STR_10|8000h)
  5224  0B3B  00C3               	movwf	((?_printf))+1
  5225  0B3C  120A  158A  2600   	fcall	_printf
              120A  158A         
  5226                           opt subtitle "HI-TECH Software Omniscient Code Generator (Lite mode) build 49521"
  5227                           
  5228  0B41                     l4356:	
  5229                           opt subtitle "HI-TECH Software Omniscient Code Generator (Lite mode) build 49521"
  5230  0B41  1283               	bcf	status, 5	;RP0=0, select bank0
  5231  0B42  1303               	bcf	status, 6	;RP1=0, select bank0
  5232  0B43  1107               	bcf	(7),2	;volatile
  5233                           opt subtitle "HI-TECH Software Omniscient Code Generator (Lite mode) build 49521"
  5234                           
  5235  0B44                     l4358:	
  5236                           opt subtitle "HI-TECH Software Omniscient Code Generator (Lite mode) build 49521"
  5237  0B44  084B               	movf	(Send_Packet@pbuf),w
  5238  0B45  00CD               	movwf	(??_Send_Packet+0)+0
  5239  0B46  084D               	movf	(??_Send_Packet+0)+0,w
  5240  0B47  00B7               	movwf	(?_SPI_Write_Buf)
  5241  0B48  084C               	movf	(Send_Packet@len),w
  5242  0B49  00CE               	movwf	(??_Send_Packet+1)+0
  5243  0B4A  084E               	movf	(??_Send_Packet+1)+0,w
  5244  0B4B  00B8               	movwf	0+(?_SPI_Write_Buf)+01h
  5245  0B4C  1683               	bsf	status, 5	;RP0=1, select bank1
  5246  0B4D  1303               	bcf	status, 6	;RP1=0, select bank1
  5247  0B4E  0829               	movf	(Send_Packet@type)^080h,w
  5248  0B4F  160A  118A  25B3   	fcall	_SPI_Write_Buf
              120A  158A         
  5249                           opt subtitle "HI-TECH Software Omniscient Code Generator (Lite mode) build 49521"
  5250                           
  5251  0B54                     l4360:	
  5252                           opt subtitle "HI-TECH Software Omniscient Code Generator (Lite mode) build 49521"
  5253  0B54  1283               	bcf	status, 5	;RP0=0, select bank0
  5254  0B55  1303               	bcf	status, 6	;RP1=0, select bank0
  5255  0B56  1507               	bsf	(7),2	;volatile
  5256                           opt subtitle "HI-TECH Software Omniscient Code Generator (Lite mode) build 49521"
  5257                           
  5258  0B57                     l4362:	
  5259                           opt subtitle "HI-TECH Software Omniscient Code Generator (Lite mode) build 49521"
  5260                           
  5261  0B57  3006               movlw	6
  5262  0B58  00CD               movwf	(??_Send_Packet+0)+0,f
  5263  0B59                     u4767:
  5264  0B59  0BCD               decfsz	(??_Send_Packet+0)+0,f
  5265  0B5A  2B59               	goto	u4767
  5266  0B5B  0000               	nop
  5267                           opt subtitle "HI-TECH Software Omniscient Code Generator (Lite mode) build 49521"
  5268                           
  5269                           opt pagewidth 120
  5270                           
  5271  0B5C                     l4364:	
  5272                           opt subtitle "HI-TECH Software Omniscient Code Generator (Lite mode) build 49521"
  5273  0B5C  1283               	bcf	status, 5	;RP0=0, select bank0
  5274  0B5D  1303               	bcf	status, 6	;RP1=0, select bank0
  5275  0B5E  1107               	bcf	(7),2	;volatile
  5276                           opt subtitle "HI-TECH Software Omniscient Code Generator (Lite mode) build 49521"
  5277                           
  5278  0B5F                     l4366:	
  5279                           opt subtitle "HI-TECH Software Omniscient Code Generator (Lite mode) build 49521"
  5280                           
  5281  0B5F  3003               movlw	3
  5282  0B60  00CE               movwf	((??_Send_Packet+0)+0+1),f
  5283  0B61  3097               	movlw	151
  5284  0B62  00CD               movwf	((??_Send_Packet+0)+0),f
  5285  0B63                     u4777:
  5286  0B63  0BCD               	decfsz	((??_Send_Packet+0)+0),f
  5287  0B64  2B63               	goto	u4777
  5288  0B65  0BCE               	decfsz	((??_Send_Packet+0)+0+1),f
  5289  0B66  2B63               	goto	u4777
  5290  0B67  2B68               	nop2
  5291                           opt subtitle "HI-TECH Software Omniscient Code Generator (Lite mode) build 49521"
  5292                           
  5293                           opt pagewidth 120
  5294                           
  5295  0B68  2BA0               	goto	l4380
  5296                           opt subtitle "HI-TECH Software Omniscient Code Generator (Lite mode) build 49521"
  5297  0B69                     l256:	
  5298                           opt subtitle "HI-TECH Software Omniscient Code Generator (Lite mode) build 49521"
  5299                           
  5300  0B69                     l4368:	
  5301                           opt subtitle "HI-TECH Software Omniscient Code Generator (Lite mode) build 49521"
  5302  0B69  160A  118A  2526   	fcall	_rfm70TxDataSentInterrupt
              120A  158A         
  5303  0B6E  3A00               	xorlw	0
  5304  0B6F  1903               	skipnz
  5305  0B70  2B72               	goto	u4401
  5306  0B71  2B73               	goto	u4400
  5307  0B72                     u4401:
  5308  0B72  2B84               	goto	l4374
  5309  0B73                     u4400:
  5310                           opt subtitle "HI-TECH Software Omniscient Code Generator (Lite mode) build 49521"
  5311                           
  5312  0B73                     l4370:	
  5313                           opt subtitle "HI-TECH Software Omniscient Code Generator (Lite mode) build 49521"
  5314  0B73  3070               	movlw	low(STR_11|8000h)
  5315  0B74  1283               	bcf	status, 5	;RP0=0, select bank0
  5316  0B75  1303               	bcf	status, 6	;RP1=0, select bank0
  5317  0B76  00C2               	movwf	(?_printf)
  5318  0B77  3091               	movlw	high(STR_11|8000h)
  5319  0B78  00C3               	movwf	((?_printf))+1
  5320  0B79  120A  158A  2600   	fcall	_printf
              120A  158A         
  5321                           opt subtitle "HI-TECH Software Omniscient Code Generator (Lite mode) build 49521"
  5322                           
  5323  0B7E                     l4372:	
  5324                           opt subtitle "HI-TECH Software Omniscient Code Generator (Lite mode) build 49521"
  5325  0B7E  160A  118A  269D   	fcall	_SwitchToRxMode
              120A  158A         
  5326  0B83  2B84               	goto	l4374
  5327                           opt subtitle "HI-TECH Software Omniscient Code Generator (Lite mode) build 49521"
  5328                           
  5329  0B84                     l257:	
  5330                           opt subtitle "HI-TECH Software Omniscient Code Generator (Lite mode) build 49521"
  5331                           
  5332  0B84                     l4374:	
  5333                           opt subtitle "HI-TECH Software Omniscient Code Generator (Lite mode) build 49521"
  5334                           
  5335  0B84  160A  118A  2545   	fcall	_rfm70TxDataSentErrorInterrupt
              120A  158A         
  5336  0B89  3A00               	xorlw	0
  5337  0B8A  1903               	skipnz
  5338  0B8B  2B8D               	goto	u4411
  5339  0B8C  2B8E               	goto	u4410
  5340  0B8D                     u4411:
  5341  0B8D  2BA0               	goto	l4380
  5342  0B8E                     u4410:
  5343                           opt subtitle "HI-TECH Software Omniscient Code Generator (Lite mode) build 49521"
  5344                           
  5345  0B8E                     l4376:	
  5346                           opt subtitle "HI-TECH Software Omniscient Code Generator (Lite mode) build 49521"
  5347  0B8E  30E2               	movlw	low(STR_12|8000h)
  5348  0B8F  1283               	bcf	status, 5	;RP0=0, select bank0
  5349  0B90  1303               	bcf	status, 6	;RP1=0, select bank0
  5350  0B91  00C2               	movwf	(?_printf)
  5351  0B92  3090               	movlw	high(STR_12|8000h)
  5352  0B93  00C3               	movwf	((?_printf))+1
  5353  0B94  120A  158A  2600   	fcall	_printf
              120A  158A         
  5354                           opt subtitle "HI-TECH Software Omniscient Code Generator (Lite mode) build 49521"
  5355                           
  5356  0B99                     l4378:	
  5357                           opt subtitle "HI-TECH Software Omniscient Code Generator (Lite mode) build 49521"
  5358  0B99  160A  118A  269D   	fcall	_SwitchToRxMode
              120A  158A         
  5359  0B9E  2BA0               	goto	l4380
  5360                           opt subtitle "HI-TECH Software Omniscient Code Generator (Lite mode) build 49521"
  5361                           
  5362  0B9F                     l258:	
  5363  0B9F  2BA0               	goto	l4380
  5364                           opt subtitle "HI-TECH Software Omniscient Code Generator (Lite mode) build 49521"
  5365                           
  5366  0BA0                     l255:	
  5367                           opt subtitle "HI-TECH Software Omniscient Code Generator (Lite mode) build 49521"
  5368                           
  5369  0BA0                     l4380:	
  5370  0BA0  1283               	bcf	status, 5	;RP0=0, select bank0
  5371  0BA1  1303               	bcf	status, 6	;RP1=0, select bank0
  5372  0BA2  1C88               	btfss	(8),1	;volatile
  5373  0BA3  2BA5               	goto	u4421
  5374  0BA4  2BA6               	goto	u4420
  5375  0BA5                     u4421:
  5376  0BA5  2B69               	goto	l4368
  5377  0BA6                     u4420:
  5378  0BA6  2BA7               	goto	l4382
  5379                           opt subtitle "HI-TECH Software Omniscient Code Generator (Lite mode) build 49521"
  5380  0BA7                     l259:	
  5381                           opt subtitle "HI-TECH Software Omniscient Code Generator (Lite mode) build 49521"
  5382                           
  5383  0BA7                     l4382:	
  5384                           opt subtitle "HI-TECH Software Omniscient Code Generator (Lite mode) build 49521"
  5385                           
  5386                           opt pagewidth 120
  5387  0BA7  3097               	movlw	low(STR_13|8000h)
  5388  0BA8  00C2               	movwf	(?_printf)
  5389  0BA9  3091               	movlw	high(STR_13|8000h)
  5390  0BAA  00C3               	movwf	((?_printf))+1
  5391  0BAB  120A  158A  2600   	fcall	_printf
              120A  158A         
  5392  0BB0  2BB1               	goto	l260
  5393                           opt subtitle "HI-TECH Software Omniscient Code Generator (Lite mode) build 49521"
  5394                           
  5395  0BB1                     l251:	
  5396                           opt subtitle "HI-TECH Software Omniscient Code Generator (Lite mode) build 49521"
  5397                           
  5398  0BB1                     l260:	
  5399  0BB1  0008               	return
  5400                           opt subtitle "HI-TECH Software Omniscient Code Generator (Lite mode) build 49521"
  5401                           
  5402  0BB2                     	__end_of_Send_Packet:
  5403                           opt subtitle "HI-TECH Software Omniscient Code Generator (Lite mode) build 49521"
  5404                           
  5405                           opt pagewidth 120
  5406                           
  5407                           	opt lm
  5408                           
  5409                           	processor	16LF707
  5410                           clrc	macro
  5411                           	bcf	3,0
  5412                           	endm
  5413                           clrz	macro
  5414                           	bcf	3,2
  5415                           	endm
  5416                           setc	macro
  5417                           	bsf	3,0
  5418                           	endm
  5419                           setz	macro
  5420                           	bsf	3,2
  5421                           	endm
  5422                           skipc	macro
  5423                           	btfss	3,0
  5424                           	endm
  5425                           skipz	macro
  5426                           	btfss	3,2
  5427                           	endm
  5428                           skipnc	macro
  5429                           	btfsc	3,0
  5430                           	endm
  5431                           skipnz	macro
  5432                           	btfsc	3,2
  5433                           	endm
  5434                           indf	equ	0
  5435                           indf0	equ	0
  5436                           pc	equ	2
  5437                           pcl	equ	2
  5438                           status	equ	3
  5439                           fsr	equ	4
  5440                           fsr0	equ	4
  5441                           c	equ	1
  5442                           z	equ	0
  5443                           pclath	equ	10
  5444                           # 46 "/Applications/microchip/xc8/v1.12/include/pic16lf707.h"
  5445                           INDF equ 00h ;# 
  5446                           # 52 "/Applications/microchip/xc8/v1.12/include/pic16lf707.h"
  5447                           TMR0 equ 01h ;# 
  5448                           # 58 "/Applications/microchip/xc8/v1.12/include/pic16lf707.h"
  5449                           PCL equ 02h ;# 
  5450                           # 64 "/Applications/microchip/xc8/v1.12/include/pic16lf707.h"
  5451  0E00                     __ptext1176:	;psect for function _printf
  5452                           opt subtitle "HI-TECH Software Omniscient Code Generator (Lite mode) build 49521"
  5453                           
  5454                           opt pagewidth 120
  5455                           
  5456  0200                     	__size_of_printf	equ	__end_of_printf-_printf
  5457                           opt subtitle "HI-TECH Software Omniscient Code Generator (Lite mode) build 49521"
  5458  0E00                     _printf:	
  5459                           opt subtitle "HI-TECH Software Omniscient Code Generator (Lite mode) build 49521"
  5460                           
  5461                           opt pagewidth 120
  5462                           
  5463  0E00                     l3814:	
  5464                           opt subtitle "HI-TECH Software Omniscient Code Generator (Lite mode) build 49521"
  5465                           
  5466                           opt pagewidth 120
  5467                           
  5468                           	opt lm
  5469                           
  5470                           	processor	16LF707
  5471                           clrc	macro
  5472                           	bcf	3,0
  5473                           	endm
  5474                           clrz	macro
  5475                           	bcf	3,2
  5476  0E00  3044               	movlw	(?_printf+02h)&0ffh
  5477  0E01  1283               	bcf	status, 5	;RP0=0, select bank0
  5478  0E02  1303               	bcf	status, 6	;RP1=0, select bank0
  5479  0E03  00C8               	movwf	(??_printf+0)+0
  5480  0E04  0848               	movf	(??_printf+0)+0,w
  5481  0E05  1683               	bsf	status, 5	;RP0=1, select bank1
  5482  0E06  1303               	bcf	status, 6	;RP1=0, select bank1
  5483  0E07  00A1               	movwf	(printf@ap)^080h
  5484                           opt subtitle "HI-TECH Software Omniscient Code Generator (Lite mode) build 49521"
  5485                           
  5486  0E08  2FE0               	goto	l3888
  5487                           opt subtitle "HI-TECH Software Omniscient Code Generator (Lite mode) build 49521"
  5488  0E09                     l400:	
  5489                           opt subtitle "HI-TECH Software Omniscient Code Generator (Lite mode) build 49521"
  5490                           
  5491  0E09                     l3816:	
  5492                           opt subtitle "HI-TECH Software Omniscient Code Generator (Lite mode) build 49521"
  5493  0E09  0828               	movf	(printf@c)^080h,w
  5494  0E0A  3A25               	xorlw	025h
  5495  0E0B  1903               	skipnz
  5496  0E0C  2E0E               	goto	u3861
  5497  0E0D  2E0F               	goto	u3860
  5498  0E0E                     u3861:
  5499  0E0E  2E16               	goto	l401
  5500  0E0F                     u3860:
  5501                           opt subtitle "HI-TECH Software Omniscient Code Generator (Lite mode) build 49521"
  5502                           
  5503  0E0F                     l3818:	
  5504                           opt subtitle "HI-TECH Software Omniscient Code Generator (Lite mode) build 49521"
  5505                           
  5506  0E0F  0828               	movf	(printf@c)^080h,w
  5507  0E10  120A  158A  2001   	fcall	_putch
              120A  158A         
  5508                           opt subtitle "HI-TECH Software Omniscient Code Generator (Lite mode) build 49521"
  5509                           
  5510  0E15  2FE0               	goto	l3888
  5511                           opt subtitle "HI-TECH Software Omniscient Code Generator (Lite mode) build 49521"
  5512                           
  5513  0E16                     l401:	
  5514                           opt subtitle "HI-TECH Software Omniscient Code Generator (Lite mode) build 49521"
  5515                           
  5516                           opt pagewidth 120
  5517  0E16  01A3               	clrf	(printf@flag)^080h
  5518                           opt subtitle "HI-TECH Software Omniscient Code Generator (Lite mode) build 49521"
  5519                           
  5520  0E17  2E25               	goto	l3824
  5521                           opt subtitle "HI-TECH Software Omniscient Code Generator (Lite mode) build 49521"
  5522                           
  5523                           opt pagewidth 120
  5524  0E18                     l403:	
  5525                           opt subtitle "HI-TECH Software Omniscient Code Generator (Lite mode) build 49521"
  5526                           
  5527  0E18  2FFF               	goto	l433
  5528                           opt subtitle "HI-TECH Software Omniscient Code Generator (Lite mode) build 49521"
  5529                           
  5530                           opt pagewidth 120
  5531  0E19                     l405:	
  5532  0E19  2E4B               	goto	l407
  5533                           opt subtitle "HI-TECH Software Omniscient Code Generator (Lite mode) build 49521"
  5534                           
  5535  0E1A                     l406:	
  5536                           opt subtitle "HI-TECH Software Omniscient Code Generator (Lite mode) build 49521"
  5537                           
  5538                           opt pagewidth 120
  5539  0E1A  2E4B               	goto	l407
  5540                           opt subtitle "HI-TECH Software Omniscient Code Generator (Lite mode) build 49521"
  5541                           
  5542                           opt pagewidth 120
  5543  0E1B                     l408:	
  5544                           opt subtitle "HI-TECH Software Omniscient Code Generator (Lite mode) build 49521"
  5545                           
  5546  0E1B                     l409:	
  5547                           opt subtitle "HI-TECH Software Omniscient Code Generator (Lite mode) build 49521"
  5548                           
  5549                           opt pagewidth 120
  5550  0E1B  17A3               	bsf	(printf@flag)^080h+(7/8),(7)&7
  5551                           opt subtitle "HI-TECH Software Omniscient Code Generator (Lite mode) build 49521"
  5552                           
  5553  0E1C  2E4B               	goto	l407
  5554                           opt subtitle "HI-TECH Software Omniscient Code Generator (Lite mode) build 49521"
  5555                           
  5556                           opt pagewidth 120
  5557  0E1D                     l410:	
  5558                           opt subtitle "HI-TECH Software Omniscient Code Generator (Lite mode) build 49521"
  5559                           
  5560  0E1D                     l3820:	
  5561                           opt subtitle "HI-TECH Software Omniscient Code Generator (Lite mode) build 49521"
  5562  0E1D  0828               	movf	(printf@c)^080h,w
  5563  0E1E  120A  158A  2001   	fcall	_putch
              120A  158A         
  5564                           opt subtitle "HI-TECH Software Omniscient Code Generator (Lite mode) build 49521"
  5565                           
  5566  0E23  2FE0               	goto	l3888
  5567                           opt subtitle "HI-TECH Software Omniscient Code Generator (Lite mode) build 49521"
  5568                           
  5569  0E24                     l3822:	
  5570                           opt subtitle "HI-TECH Software Omniscient Code Generator (Lite mode) build 49521"
  5571  0E24  2E4B               	goto	l407
  5572                           opt subtitle "HI-TECH Software Omniscient Code Generator (Lite mode) build 49521"
  5573                           
  5574  0E25                     l402:	
  5575                           opt subtitle "HI-TECH Software Omniscient Code Generator (Lite mode) build 49521"
  5576  0E25                     l3824:	
  5577  0E25  1283               	bcf	status, 5	;RP0=0, select bank0
  5578  0E26  1303               	bcf	status, 6	;RP1=0, select bank0
  5579  0E27  0843               	movf	(printf@f+1),w
  5580  0E28  00C9               	movwf	(??_printf+0)+0+1
  5581  0E29  0842               	movf	(printf@f),w
  5582  0E2A  00C8               	movwf	(??_printf+0)+0
  5583  0E2B  3001               	movlw	(01h)
  5584  0E2C  07C2               	addwf	(printf@f),f
  5585  0E2D  1803               	skipnc
  5586  0E2E  0AC3               	incf	(printf@f+1),f
  5587  0E2F  0849               	movf	1+(??_printf+0)+0,w
  5588  0E30  00FF               	movwf	btemp+1
  5589  0E31  0848               	movf	0+(??_printf+0)+0,w
  5590  0E32  0084               	movwf	fsr0
  5591  0E33  160A  118A  2000   	fcall	stringtab
              120A  158A         
  5592  0E38  1683               	bsf	status, 5	;RP0=1, select bank1
  5593  0E39  1303               	bcf	status, 6	;RP1=0, select bank1
  5594  0E3A  00A8               	movwf	(printf@c)^080h
  5595                           opt subtitle "HI-TECH Software Omniscient Code Generator (Lite mode) build 49521"
  5596                           
  5597                           opt pagewidth 120
  5598                           
  5599                           	opt lm
  5600                           
  5601                           	processor	16LF707
  5602                           clrc	macro
  5603                           	bcf	3,0
  5604                           	endm
  5605                           clrz	macro
  5606                           	bcf	3,2
  5607  0E3B  3A00               	xorlw	0^0	; case 0
  5608  0E3C  1903               	skipnz
  5609  0E3D  2FFF               	goto	l433
  5610  0E3E  3A58               	xorlw	88^0	; case 88
  5611  0E3F  1903               	skipnz
  5612  0E40  2E1B               	goto	l409
  5613  0E41  3A3C               	xorlw	100^88	; case 100
  5614  0E42  1903               	skipnz
  5615  0E43  2E4B               	goto	l407
  5616  0E44  3A0D               	xorlw	105^100	; case 105
  5617  0E45  1903               	skipnz
  5618  0E46  2E4B               	goto	l407
  5619  0E47  3A11               	xorlw	120^105	; case 120
  5620  0E48  1903               	skipnz
  5621  0E49  2E1B               	goto	l409
  5622  0E4A  2E1D               	goto	l3820
  5623                           opt subtitle "HI-TECH Software Omniscient Code Generator (Lite mode) build 49521"
  5624                           
  5625                           opt pagewidth 120
  5626                           
  5627  0E4B                     l407:	
  5628                           opt subtitle "HI-TECH Software Omniscient Code Generator (Lite mode) build 49521"
  5629                           
  5630  0E4B  1683               	bsf	status, 5	;RP0=1, select bank1
  5631  0E4C  1303               	bcf	status, 6	;RP1=0, select bank1
  5632  0E4D  1BA3               	btfsc	(printf@flag)^080h,(7)&7
  5633  0E4E  2E50               	goto	u3871
  5634  0E4F  2E51               	goto	u3870
  5635  0E50                     u3871:
  5636  0E50  2E74               	goto	l3836
  5637  0E51                     u3870:
  5638                           opt subtitle "HI-TECH Software Omniscient Code Generator (Lite mode) build 49521"
  5639                           
  5640  0E51                     l3826:	
  5641                           opt subtitle "HI-TECH Software Omniscient Code Generator (Lite mode) build 49521"
  5642                           
  5643  0E51  0821               	movf	(printf@ap)^080h,w
  5644  0E52  0084               	movwf	fsr0
  5645  0E53  1383               	bcf	status, 7	;select IRP bank0
  5646  0E54  0800               	movf	indf,w
  5647  0E55  00A4               	movwf	(printf@_val)^080h
  5648  0E56  0A84               	incf	fsr0,f
  5649  0E57  0800               	movf	indf,w
  5650  0E58  00A5               	movwf	(printf@_val+1)^080h
  5651                           opt subtitle "HI-TECH Software Omniscient Code Generator (Lite mode) build 49521"
  5652  0E59                     l3828:	
  5653  0E59  3002               	movlw	(02h)
  5654  0E5A  1283               	bcf	status, 5	;RP0=0, select bank0
  5655  0E5B  1303               	bcf	status, 6	;RP1=0, select bank0
  5656  0E5C  00C8               	movwf	(??_printf+0)+0
  5657  0E5D  0848               	movf	(??_printf+0)+0,w
  5658  0E5E  1683               	bsf	status, 5	;RP0=1, select bank1
  5659  0E5F  1303               	bcf	status, 6	;RP1=0, select bank1
  5660  0E60  07A1               	addwf	(printf@ap)^080h,f
  5661                           opt subtitle "HI-TECH Software Omniscient Code Generator (Lite mode) build 49521"
  5662                           
  5663  0E61                     l3830:	
  5664                           opt subtitle "HI-TECH Software Omniscient Code Generator (Lite mode) build 49521"
  5665  0E61  1FA5               	btfss	(printf@_val+1)^080h,7
  5666  0E62  2E64               	goto	u3881
  5667  0E63  2E65               	goto	u3880
  5668  0E64                     u3881:
  5669  0E64  2F0D               	goto	l3866
  5670  0E65                     u3880:
  5671                           opt subtitle "HI-TECH Software Omniscient Code Generator (Lite mode) build 49521"
  5672                           
  5673  0E65                     l3832:	
  5674                           opt subtitle "HI-TECH Software Omniscient Code Generator (Lite mode) build 49521"
  5675  0E65  3003               	movlw	(03h)
  5676  0E66  1283               	bcf	status, 5	;RP0=0, select bank0
  5677  0E67  1303               	bcf	status, 6	;RP1=0, select bank0
  5678  0E68  00C8               	movwf	(??_printf+0)+0
  5679  0E69  0848               	movf	(??_printf+0)+0,w
  5680  0E6A  1683               	bsf	status, 5	;RP0=1, select bank1
  5681  0E6B  1303               	bcf	status, 6	;RP1=0, select bank1
  5682  0E6C  04A3               	iorwf	(printf@flag)^080h,f
  5683                           opt subtitle "HI-TECH Software Omniscient Code Generator (Lite mode) build 49521"
  5684                           
  5685  0E6D                     l3834:	
  5686                           opt subtitle "HI-TECH Software Omniscient Code Generator (Lite mode) build 49521"
  5687  0E6D  09A4               	comf	(printf@_val)^080h,f
  5688  0E6E  09A5               	comf	(printf@_val+1)^080h,f
  5689  0E6F  0AA4               	incf	(printf@_val)^080h,f
  5690  0E70  1903               	skipnz
  5691  0E71  0AA5               	incf	(printf@_val+1)^080h,f
  5692  0E72  2F0D               	goto	l3866
  5693                           opt subtitle "HI-TECH Software Omniscient Code Generator (Lite mode) build 49521"
  5694                           
  5695  0E73                     l412:	
  5696                           opt subtitle "HI-TECH Software Omniscient Code Generator (Lite mode) build 49521"
  5697                           
  5698                           opt pagewidth 120
  5699  0E73  2F0D               	goto	l3866
  5700                           opt subtitle "HI-TECH Software Omniscient Code Generator (Lite mode) build 49521"
  5701                           
  5702  0E74                     l411:	
  5703                           opt subtitle "HI-TECH Software Omniscient Code Generator (Lite mode) build 49521"
  5704                           
  5705  0E74                     l3836:	
  5706                           opt subtitle "HI-TECH Software Omniscient Code Generator (Lite mode) build 49521"
  5707                           
  5708                           opt pagewidth 120
  5709  0E74  0821               	movf	(printf@ap)^080h,w
  5710  0E75  0084               	movwf	fsr0
  5711  0E76  1383               	bcf	status, 7	;select IRP bank0
  5712  0E77  0800               	movf	indf,w
  5713  0E78  00A4               	movwf	(printf@_val)^080h
  5714  0E79  0A84               	incf	fsr0,f
  5715  0E7A  0800               	movf	indf,w
  5716  0E7B  00A5               	movwf	(printf@_val+1)^080h
  5717                           opt subtitle "HI-TECH Software Omniscient Code Generator (Lite mode) build 49521"
  5718  0E7C                     l3838:	
  5719  0E7C  3002               	movlw	(02h)
  5720  0E7D  1283               	bcf	status, 5	;RP0=0, select bank0
  5721  0E7E  1303               	bcf	status, 6	;RP1=0, select bank0
  5722  0E7F  00C8               	movwf	(??_printf+0)+0
  5723  0E80  0848               	movf	(??_printf+0)+0,w
  5724  0E81  1683               	bsf	status, 5	;RP0=1, select bank1
  5725  0E82  1303               	bcf	status, 6	;RP1=0, select bank1
  5726  0E83  07A1               	addwf	(printf@ap)^080h,f
  5727  0E84  2F0D               	goto	l3866
  5728                           opt subtitle "HI-TECH Software Omniscient Code Generator (Lite mode) build 49521"
  5729                           
  5730  0E85                     l413:	
  5731                           opt subtitle "HI-TECH Software Omniscient Code Generator (Lite mode) build 49521"
  5732                           
  5733                           opt pagewidth 120
  5734  0E85  2F0D               	goto	l3866
  5735                           opt subtitle "HI-TECH Software Omniscient Code Generator (Lite mode) build 49521"
  5736                           
  5737                           opt pagewidth 120
  5738  0E86                     l415:	
  5739                           opt subtitle "HI-TECH Software Omniscient Code Generator (Lite mode) build 49521"
  5740                           
  5741  0E86  01A8               	clrf	(printf@c)^080h
  5742  0E87  0AA8               	incf	(printf@c)^080h,f
  5743                           opt subtitle "HI-TECH Software Omniscient Code Generator (Lite mode) build 49521"
  5744  0E88                     l3840:	
  5745  0E88  0828               	movf	(printf@c)^080h,w
  5746  0E89  3A05               	xorlw	05h
  5747  0E8A  1D03               	skipz
  5748  0E8B  2E8D               	goto	u3891
  5749  0E8C  2E8E               	goto	u3890
  5750  0E8D                     u3891:
  5751  0E8D  2E90               	goto	l3844
  5752  0E8E                     u3890:
  5753  0E8E  2F16               	goto	l3868
  5754                           opt subtitle "HI-TECH Software Omniscient Code Generator (Lite mode) build 49521"
  5755  0E8F                     l3842:	
  5756  0E8F  2F16               	goto	l3868
  5757                           opt subtitle "HI-TECH Software Omniscient Code Generator (Lite mode) build 49521"
  5758                           
  5759  0E90                     l416:	
  5760                           opt subtitle "HI-TECH Software Omniscient Code Generator (Lite mode) build 49521"
  5761  0E90                     l3844:	
  5762                           opt subtitle "HI-TECH Software Omniscient Code Generator (Lite mode) build 49521"
  5763  0E90  0828               	movf	(printf@c)^080h,w
  5764  0E91  1283               	bcf	status, 5	;RP0=0, select bank0
  5765  0E92  1303               	bcf	status, 6	;RP1=0, select bank0
  5766  0E93  00C8               	movwf	(??_printf+0)+0
  5767  0E94  0748               	addwf	(??_printf+0)+0,w
  5768  0E95  3E83               	addlw	low(_dpowers|8000h)
  5769  0E96  0084               	movwf	fsr0
  5770  0E97  3090               	movlw	high(_dpowers|8000h)
  5771  0E98  1803               	skipnc
  5772  0E99  3E01               	addlw	1
  5773  0E9A  00FF               	movwf	btemp+1
  5774  0E9B  160A  118A  2000   	fcall	stringtab
              120A  158A         
  5775  0EA0  00C9               	movwf	(??_printf+1)+0
  5776  0EA1  160A  118A  2000   	fcall	stringtab
              120A  158A         
  5777  0EA6  00CA               	movwf	(??_printf+1)+0+1
  5778  0EA7  084A               	movf	1+(??_printf+1)+0,w
  5779  0EA8  1683               	bsf	status, 5	;RP0=1, select bank1
  5780  0EA9  1303               	bcf	status, 6	;RP1=0, select bank1
  5781  0EAA  0225               	subwf	(printf@_val+1)^080h,w
  5782  0EAB  1D03               	skipz
  5783  0EAC  2EB3               	goto	u3905
  5784  0EAD  1283               	bcf	status, 5	;RP0=0, select bank0
  5785  0EAE  1303               	bcf	status, 6	;RP1=0, select bank0
  5786  0EAF  0849               	movf	0+(??_printf+1)+0,w
  5787  0EB0  1683               	bsf	status, 5	;RP0=1, select bank1
  5788  0EB1  1303               	bcf	status, 6	;RP1=0, select bank1
  5789  0EB2  0224               	subwf	(printf@_val)^080h,w
  5790  0EB3                     u3905:
  5791  0EB3  1803               	skipnc
  5792  0EB4  2EB6               	goto	u3901
  5793  0EB5  2EB7               	goto	u3900
  5794  0EB6                     u3901:
  5795  0EB6  2EB9               	goto	l3848
  5796  0EB7                     u3900:
  5797  0EB7  2F16               	goto	l3868
  5798                           opt subtitle "HI-TECH Software Omniscient Code Generator (Lite mode) build 49521"
  5799                           
  5800  0EB8                     l3846:	
  5801                           opt subtitle "HI-TECH Software Omniscient Code Generator (Lite mode) build 49521"
  5802  0EB8  2F16               	goto	l3868
  5803                           opt subtitle "HI-TECH Software Omniscient Code Generator (Lite mode) build 49521"
  5804  0EB9                     l418:	
  5805                           opt subtitle "HI-TECH Software Omniscient Code Generator (Lite mode) build 49521"
  5806                           
  5807  0EB9                     l3848:	
  5808  0EB9  3001               	movlw	(01h)
  5809  0EBA  1283               	bcf	status, 5	;RP0=0, select bank0
  5810  0EBB  1303               	bcf	status, 6	;RP1=0, select bank0
  5811  0EBC  00C8               	movwf	(??_printf+0)+0
  5812  0EBD  0848               	movf	(??_printf+0)+0,w
  5813  0EBE  1683               	bsf	status, 5	;RP0=1, select bank1
  5814  0EBF  1303               	bcf	status, 6	;RP1=0, select bank1
  5815  0EC0  07A8               	addwf	(printf@c)^080h,f
  5816                           opt subtitle "HI-TECH Software Omniscient Code Generator (Lite mode) build 49521"
  5817  0EC1                     l3850:	
  5818  0EC1  0828               	movf	(printf@c)^080h,w
  5819  0EC2  3A05               	xorlw	05h
  5820  0EC3  1D03               	skipz
  5821  0EC4  2EC6               	goto	u3911
  5822  0EC5  2EC7               	goto	u3910
  5823  0EC6                     u3911:
  5824  0EC6  2E90               	goto	l3844
  5825  0EC7                     u3910:
  5826  0EC7  2F16               	goto	l3868
  5827                           opt subtitle "HI-TECH Software Omniscient Code Generator (Lite mode) build 49521"
  5828  0EC8                     l417:	
  5829                           opt subtitle "HI-TECH Software Omniscient Code Generator (Lite mode) build 49521"
  5830                           
  5831  0EC8  2F16               	goto	l3868
  5832                           opt subtitle "HI-TECH Software Omniscient Code Generator (Lite mode) build 49521"
  5833                           
  5834                           opt pagewidth 120
  5835  0EC9                     l420:	
  5836                           opt subtitle "HI-TECH Software Omniscient Code Generator (Lite mode) build 49521"
  5837                           
  5838  0EC9  01A8               	clrf	(printf@c)^080h
  5839  0ECA  0AA8               	incf	(printf@c)^080h,f
  5840                           opt subtitle "HI-TECH Software Omniscient Code Generator (Lite mode) build 49521"
  5841  0ECB                     l3852:	
  5842  0ECB  0828               	movf	(printf@c)^080h,w
  5843  0ECC  3A04               	xorlw	04h
  5844  0ECD  1D03               	skipz
  5845  0ECE  2ED0               	goto	u3921
  5846  0ECF  2ED1               	goto	u3920
  5847  0ED0                     u3921:
  5848  0ED0  2ED3               	goto	l3856
  5849  0ED1                     u3920:
  5850  0ED1  2F16               	goto	l3868
  5851                           opt subtitle "HI-TECH Software Omniscient Code Generator (Lite mode) build 49521"
  5852  0ED2                     l3854:	
  5853  0ED2  2F16               	goto	l3868
  5854                           opt subtitle "HI-TECH Software Omniscient Code Generator (Lite mode) build 49521"
  5855                           
  5856  0ED3                     l421:	
  5857                           opt subtitle "HI-TECH Software Omniscient Code Generator (Lite mode) build 49521"
  5858  0ED3                     l3856:	
  5859                           opt subtitle "HI-TECH Software Omniscient Code Generator (Lite mode) build 49521"
  5860  0ED3  0828               	movf	(printf@c)^080h,w
  5861  0ED4  1283               	bcf	status, 5	;RP0=0, select bank0
  5862  0ED5  1303               	bcf	status, 6	;RP1=0, select bank0
  5863  0ED6  00C8               	movwf	(??_printf+0)+0
  5864  0ED7  0748               	addwf	(??_printf+0)+0,w
  5865  0ED8  3E8D               	addlw	low(_hexpowers|8000h)
  5866  0ED9  0084               	movwf	fsr0
  5867  0EDA  3090               	movlw	high(_hexpowers|8000h)
  5868  0EDB  1803               	skipnc
  5869  0EDC  3E01               	addlw	1
  5870  0EDD  00FF               	movwf	btemp+1
  5871  0EDE  160A  118A  2000   	fcall	stringtab
              120A  158A         
  5872  0EE3  00C9               	movwf	(??_printf+1)+0
  5873  0EE4  160A  118A  2000   	fcall	stringtab
              120A  158A         
  5874  0EE9  00CA               	movwf	(??_printf+1)+0+1
  5875  0EEA  084A               	movf	1+(??_printf+1)+0,w
  5876  0EEB  1683               	bsf	status, 5	;RP0=1, select bank1
  5877  0EEC  1303               	bcf	status, 6	;RP1=0, select bank1
  5878  0EED  0225               	subwf	(printf@_val+1)^080h,w
  5879  0EEE  1D03               	skipz
  5880  0EEF  2EF6               	goto	u3935
  5881  0EF0  1283               	bcf	status, 5	;RP0=0, select bank0
  5882  0EF1  1303               	bcf	status, 6	;RP1=0, select bank0
  5883  0EF2  0849               	movf	0+(??_printf+1)+0,w
  5884  0EF3  1683               	bsf	status, 5	;RP0=1, select bank1
  5885  0EF4  1303               	bcf	status, 6	;RP1=0, select bank1
  5886  0EF5  0224               	subwf	(printf@_val)^080h,w
  5887  0EF6                     u3935:
  5888  0EF6  1803               	skipnc
  5889  0EF7  2EF9               	goto	u3931
  5890  0EF8  2EFA               	goto	u3930
  5891  0EF9                     u3931:
  5892  0EF9  2EFC               	goto	l3860
  5893  0EFA                     u3930:
  5894  0EFA  2F16               	goto	l3868
  5895                           opt subtitle "HI-TECH Software Omniscient Code Generator (Lite mode) build 49521"
  5896                           
  5897  0EFB                     l3858:	
  5898                           opt subtitle "HI-TECH Software Omniscient Code Generator (Lite mode) build 49521"
  5899  0EFB  2F16               	goto	l3868
  5900                           opt subtitle "HI-TECH Software Omniscient Code Generator (Lite mode) build 49521"
  5901  0EFC                     l423:	
  5902                           opt subtitle "HI-TECH Software Omniscient Code Generator (Lite mode) build 49521"
  5903                           
  5904  0EFC                     l3860:	
  5905  0EFC  3001               	movlw	(01h)
  5906  0EFD  1283               	bcf	status, 5	;RP0=0, select bank0
  5907  0EFE  1303               	bcf	status, 6	;RP1=0, select bank0
  5908  0EFF  00C8               	movwf	(??_printf+0)+0
  5909  0F00  0848               	movf	(??_printf+0)+0,w
  5910  0F01  1683               	bsf	status, 5	;RP0=1, select bank1
  5911  0F02  1303               	bcf	status, 6	;RP1=0, select bank1
  5912  0F03  07A8               	addwf	(printf@c)^080h,f
  5913                           opt subtitle "HI-TECH Software Omniscient Code Generator (Lite mode) build 49521"
  5914  0F04                     l3862:	
  5915  0F04  0828               	movf	(printf@c)^080h,w
  5916  0F05  3A04               	xorlw	04h
  5917  0F06  1D03               	skipz
  5918  0F07  2F09               	goto	u3941
  5919  0F08  2F0A               	goto	u3940
  5920  0F09                     u3941:
  5921  0F09  2ED3               	goto	l3856
  5922  0F0A                     u3940:
  5923  0F0A  2F16               	goto	l3868
  5924                           opt subtitle "HI-TECH Software Omniscient Code Generator (Lite mode) build 49521"
  5925  0F0B                     l422:	
  5926                           opt subtitle "HI-TECH Software Omniscient Code Generator (Lite mode) build 49521"
  5927                           
  5928  0F0B  2F16               	goto	l3868
  5929                           opt subtitle "HI-TECH Software Omniscient Code Generator (Lite mode) build 49521"
  5930                           
  5931  0F0C                     l3864:	
  5932                           opt subtitle "HI-TECH Software Omniscient Code Generator (Lite mode) build 49521"
  5933  0F0C  2F16               	goto	l3868
  5934                           opt subtitle "HI-TECH Software Omniscient Code Generator (Lite mode) build 49521"
  5935                           
  5936  0F0D                     l414:	
  5937                           opt subtitle "HI-TECH Software Omniscient Code Generator (Lite mode) build 49521"
  5938  0F0D                     l3866:	
  5939  0F0D  0823               	movf	(printf@flag)^080h,w
  5940  0F0E  3980               	andlw	080h
  5941                           opt subtitle "HI-TECH Software Omniscient Code Generator (Lite mode) build 49521"
  5942                           
  5943                           opt pagewidth 120
  5944                           
  5945                           	opt lm
  5946                           
  5947                           	processor	16LF707
  5948                           clrc	macro
  5949                           	bcf	3,0
  5950                           	endm
  5951                           clrz	macro
  5952                           	bcf	3,2
  5953  0F0F  3A00               	xorlw	0^0	; case 0
  5954  0F10  1903               	skipnz
  5955  0F11  2E86               	goto	l415
  5956  0F12  3A80               	xorlw	128^0	; case 128
  5957  0F13  1903               	skipnz
  5958  0F14  2EC9               	goto	l420
  5959  0F15  2F16               	goto	l3868
  5960                           opt subtitle "HI-TECH Software Omniscient Code Generator (Lite mode) build 49521"
  5961                           
  5962                           opt pagewidth 120
  5963                           
  5964  0F16                     l419:	
  5965                           opt subtitle "HI-TECH Software Omniscient Code Generator (Lite mode) build 49521"
  5966                           
  5967  0F16                     l3868:	
  5968                           opt subtitle "HI-TECH Software Omniscient Code Generator (Lite mode) build 49521"
  5969                           
  5970  0F16  0823               	movf	(printf@flag)^080h,w
  5971  0F17  3903               	andlw	03h
  5972  0F18  1903               	btfsc	status,2
  5973  0F19  2F1B               	goto	u3951
  5974  0F1A  2F1C               	goto	u3950
  5975  0F1B                     u3951:
  5976  0F1B  2F23               	goto	l3872
  5977  0F1C                     u3950:
  5978                           opt subtitle "HI-TECH Software Omniscient Code Generator (Lite mode) build 49521"
  5979                           
  5980  0F1C                     l3870:	
  5981                           opt subtitle "HI-TECH Software Omniscient Code Generator (Lite mode) build 49521"
  5982  0F1C  302D               	movlw	(02Dh)
  5983  0F1D  120A  158A  2001   	fcall	_putch
              120A  158A         
  5984  0F22  2F23               	goto	l3872
  5985                           opt subtitle "HI-TECH Software Omniscient Code Generator (Lite mode) build 49521"
  5986  0F23                     l424:	
  5987                           opt subtitle "HI-TECH Software Omniscient Code Generator (Lite mode) build 49521"
  5988                           
  5989  0F23                     l3872:	
  5990                           opt subtitle "HI-TECH Software Omniscient Code Generator (Lite mode) build 49521"
  5991                           
  5992  0F23  1683               	bsf	status, 5	;RP0=1, select bank1
  5993  0F24  1303               	bcf	status, 6	;RP1=0, select bank1
  5994  0F25  0828               	movf	(printf@c)^080h,w
  5995  0F26  1283               	bcf	status, 5	;RP0=0, select bank0
  5996  0F27  1303               	bcf	status, 6	;RP1=0, select bank0
  5997  0F28  00C8               	movwf	(??_printf+0)+0
  5998  0F29  0848               	movf	(??_printf+0)+0,w
  5999  0F2A  1683               	bsf	status, 5	;RP0=1, select bank1
  6000  0F2B  1303               	bcf	status, 6	;RP1=0, select bank1
  6001  0F2C  00A2               	movwf	(printf@prec)^080h
  6002                           opt subtitle "HI-TECH Software Omniscient Code Generator (Lite mode) build 49521"
  6003                           
  6004  0F2D  2FD0               	goto	l3886
  6005                           opt subtitle "HI-TECH Software Omniscient Code Generator (Lite mode) build 49521"
  6006  0F2E                     l426:	
  6007                           opt subtitle "HI-TECH Software Omniscient Code Generator (Lite mode) build 49521"
  6008                           
  6009  0F2E  2FC0               	goto	l3882
  6010                           opt subtitle "HI-TECH Software Omniscient Code Generator (Lite mode) build 49521"
  6011                           
  6012                           opt pagewidth 120
  6013                           
  6014  0F2F                     l428:	
  6015                           opt subtitle "HI-TECH Software Omniscient Code Generator (Lite mode) build 49521"
  6016                           
  6017  0F2F                     l3874:	
  6018                           opt subtitle "HI-TECH Software Omniscient Code Generator (Lite mode) build 49521"
  6019  0F2F  300A               	movlw	low(0Ah)
  6020  0F30  1283               	bcf	status, 5	;RP0=0, select bank0
  6021  0F31  1303               	bcf	status, 6	;RP1=0, select bank0
  6022  0F32  00BC               	movwf	(?___lwmod)
  6023  0F33  3000               	movlw	high(0Ah)
  6024  0F34  00BD               	movwf	((?___lwmod))+1
  6025  0F35  1683               	bsf	status, 5	;RP0=1, select bank1
  6026  0F36  1303               	bcf	status, 6	;RP1=0, select bank1
  6027  0F37  0822               	movf	(printf@prec)^080h,w
  6028  0F38  1283               	bcf	status, 5	;RP0=0, select bank0
  6029  0F39  1303               	bcf	status, 6	;RP1=0, select bank0
  6030  0F3A  00C8               	movwf	(??_printf+0)+0
  6031  0F3B  0748               	addwf	(??_printf+0)+0,w
  6032  0F3C  3E83               	addlw	low(_dpowers|8000h)
  6033  0F3D  0084               	movwf	fsr0
  6034  0F3E  3090               	movlw	high(_dpowers|8000h)
  6035  0F3F  1803               	skipnc
  6036  0F40  3E01               	addlw	1
  6037  0F41  00FF               	movwf	btemp+1
  6038  0F42  160A  118A  2000   	fcall	stringtab
              120A  158A         
  6039  0F47  00B4               	movwf	(?___lwdiv)
  6040  0F48  160A  118A  2000   	fcall	stringtab
              120A  158A         
  6041  0F4D  00B5               	movwf	(?___lwdiv+1)
  6042  0F4E  1683               	bsf	status, 5	;RP0=1, select bank1
  6043  0F4F  1303               	bcf	status, 6	;RP1=0, select bank1
  6044  0F50  0825               	movf	(printf@_val+1)^080h,w
  6045  0F51  1283               	bcf	status, 5	;RP0=0, select bank0
  6046  0F52  1303               	bcf	status, 6	;RP1=0, select bank0
  6047  0F53  01B7               	clrf	1+(?___lwdiv)+02h
  6048  0F54  07B7               	addwf	1+(?___lwdiv)+02h
  6049  0F55  1683               	bsf	status, 5	;RP0=1, select bank1
  6050  0F56  1303               	bcf	status, 6	;RP1=0, select bank1
  6051  0F57  0824               	movf	(printf@_val)^080h,w
  6052  0F58  1283               	bcf	status, 5	;RP0=0, select bank0
  6053  0F59  1303               	bcf	status, 6	;RP1=0, select bank0
  6054  0F5A  01B6               	clrf	0+(?___lwdiv)+02h
  6055  0F5B  07B6               	addwf	0+(?___lwdiv)+02h
  6056                           opt subtitle "HI-TECH Software Omniscient Code Generator (Lite mode) build 49521"
  6057  0F5C  160A  118A  27B1   	fcall	___lwdiv
              120A  158A         
  6058  0F61  1283               	bcf	status, 5	;RP0=0, select bank0
  6059  0F62  1303               	bcf	status, 6	;RP1=0, select bank0
  6060  0F63  0835               	movf	(1+(?___lwdiv)),w
  6061  0F64  01BF               	clrf	1+(?___lwmod)+02h
  6062  0F65  07BF               	addwf	1+(?___lwmod)+02h
  6063  0F66  0834               	movf	(0+(?___lwdiv)),w
  6064  0F67  01BE               	clrf	0+(?___lwmod)+02h
  6065  0F68  07BE               	addwf	0+(?___lwmod)+02h
  6066                           opt subtitle "HI-TECH Software Omniscient Code Generator (Lite mode) build 49521"
  6067  0F69  160A  118A  271F   	fcall	___lwmod
              120A  158A         
  6068  0F6E  1283               	bcf	status, 5	;RP0=0, select bank0
  6069  0F6F  1303               	bcf	status, 6	;RP1=0, select bank0
  6070  0F70  083C               	movf	(0+(?___lwmod)),w
  6071  0F71  3E30               	addlw	030h
  6072  0F72  00C9               	movwf	(??_printf+1)+0
  6073  0F73  0849               	movf	(??_printf+1)+0,w
  6074  0F74  1683               	bsf	status, 5	;RP0=1, select bank1
  6075  0F75  1303               	bcf	status, 6	;RP1=0, select bank1
  6076  0F76  00A8               	movwf	(printf@c)^080h
  6077                           opt subtitle "HI-TECH Software Omniscient Code Generator (Lite mode) build 49521"
  6078                           
  6079  0F77  2FC9               	goto	l3884
  6080                           opt subtitle "HI-TECH Software Omniscient Code Generator (Lite mode) build 49521"
  6081                           
  6082                           opt pagewidth 120
  6083  0F78                     l430:	
  6084                           opt subtitle "HI-TECH Software Omniscient Code Generator (Lite mode) build 49521"
  6085                           
  6086  0F78                     l3876:	
  6087                           opt subtitle "HI-TECH Software Omniscient Code Generator (Lite mode) build 49521"
  6088                           
  6089  0F78  0822               	movf	(printf@prec)^080h,w
  6090  0F79  1283               	bcf	status, 5	;RP0=0, select bank0
  6091  0F7A  1303               	bcf	status, 6	;RP1=0, select bank0
  6092  0F7B  00C8               	movwf	(??_printf+0)+0
  6093  0F7C  0748               	addwf	(??_printf+0)+0,w
  6094  0F7D  3E8D               	addlw	low(_hexpowers|8000h)
  6095  0F7E  0084               	movwf	fsr0
  6096  0F7F  3090               	movlw	high(_hexpowers|8000h)
  6097  0F80  1803               	skipnc
  6098  0F81  3E01               	addlw	1
  6099  0F82  00FF               	movwf	btemp+1
  6100  0F83  160A  118A  2000   	fcall	stringtab
              120A  158A         
  6101  0F88  00B4               	movwf	(?___lwdiv)
  6102  0F89  160A  118A  2000   	fcall	stringtab
              120A  158A         
  6103  0F8E  00B5               	movwf	(?___lwdiv+1)
  6104  0F8F  1683               	bsf	status, 5	;RP0=1, select bank1
  6105  0F90  1303               	bcf	status, 6	;RP1=0, select bank1
  6106  0F91  0825               	movf	(printf@_val+1)^080h,w
  6107  0F92  1283               	bcf	status, 5	;RP0=0, select bank0
  6108  0F93  1303               	bcf	status, 6	;RP1=0, select bank0
  6109  0F94  01B7               	clrf	1+(?___lwdiv)+02h
  6110  0F95  07B7               	addwf	1+(?___lwdiv)+02h
  6111  0F96  1683               	bsf	status, 5	;RP0=1, select bank1
  6112  0F97  1303               	bcf	status, 6	;RP1=0, select bank1
  6113  0F98  0824               	movf	(printf@_val)^080h,w
  6114  0F99  1283               	bcf	status, 5	;RP0=0, select bank0
  6115  0F9A  1303               	bcf	status, 6	;RP1=0, select bank0
  6116  0F9B  01B6               	clrf	0+(?___lwdiv)+02h
  6117  0F9C  07B6               	addwf	0+(?___lwdiv)+02h
  6118                           opt subtitle "HI-TECH Software Omniscient Code Generator (Lite mode) build 49521"
  6119  0F9D  160A  118A  27B1   	fcall	___lwdiv
              120A  158A         
  6120  0FA2  1283               	bcf	status, 5	;RP0=0, select bank0
  6121  0FA3  1303               	bcf	status, 6	;RP1=0, select bank0
  6122  0FA4  0834               	movf	(0+(?___lwdiv)),w
  6123  0FA5  390F               	andlw	0Fh
  6124  0FA6  00C9               	movwf	(??_printf+1)+0
  6125  0FA7  0849               	movf	(??_printf+1)+0,w
  6126  0FA8  1683               	bsf	status, 5	;RP0=1, select bank1
  6127  0FA9  1303               	bcf	status, 6	;RP1=0, select bank1
  6128  0FAA  00A0               	movwf	(printf@idx)^080h
  6129                           opt subtitle "HI-TECH Software Omniscient Code Generator (Lite mode) build 49521"
  6130                           
  6131  0FAB                     l3878:	
  6132                           opt subtitle "HI-TECH Software Omniscient Code Generator (Lite mode) build 49521"
  6133  0FAB  0820               	movf	(printf@idx)^080h,w
  6134  0FAC  3E5F               	addlw	low(STR_16|8000h)
  6135  0FAD  0084               	movwf	fsr0
  6136  0FAE  3091               	movlw	high(STR_16|8000h)
  6137  0FAF  1803               	skipnc
  6138  0FB0  3E01               	addlw	1
  6139  0FB1  1283               	bcf	status, 5	;RP0=0, select bank0
  6140  0FB2  1303               	bcf	status, 6	;RP1=0, select bank0
  6141  0FB3  00FF               	movwf	btemp+1
  6142  0FB4  160A  118A  2000   	fcall	stringtab
              120A  158A         
  6143  0FB9  00C8               	movwf	(??_printf+0)+0
  6144  0FBA  0848               	movf	(??_printf+0)+0,w
  6145  0FBB  1683               	bsf	status, 5	;RP0=1, select bank1
  6146  0FBC  1303               	bcf	status, 6	;RP1=0, select bank1
  6147  0FBD  00A8               	movwf	(printf@c)^080h
  6148                           opt subtitle "HI-TECH Software Omniscient Code Generator (Lite mode) build 49521"
  6149                           
  6150                           opt pagewidth 120
  6151  0FBE  2FC9               	goto	l3884
  6152                           opt subtitle "HI-TECH Software Omniscient Code Generator (Lite mode) build 49521"
  6153                           
  6154  0FBF                     l3880:	
  6155                           opt subtitle "HI-TECH Software Omniscient Code Generator (Lite mode) build 49521"
  6156  0FBF  2FC9               	goto	l3884
  6157                           opt subtitle "HI-TECH Software Omniscient Code Generator (Lite mode) build 49521"
  6158                           
  6159  0FC0                     l427:	
  6160                           opt subtitle "HI-TECH Software Omniscient Code Generator (Lite mode) build 49521"
  6161  0FC0                     l3882:	
  6162  0FC0  0823               	movf	(printf@flag)^080h,w
  6163  0FC1  3980               	andlw	080h
  6164                           opt subtitle "HI-TECH Software Omniscient Code Generator (Lite mode) build 49521"
  6165                           
  6166                           opt pagewidth 120
  6167                           
  6168                           	opt lm
  6169                           
  6170                           	processor	16LF707
  6171                           clrc	macro
  6172                           	bcf	3,0
  6173                           	endm
  6174                           clrz	macro
  6175                           	bcf	3,2
  6176  0FC2  3A00               	xorlw	0^0	; case 0
  6177  0FC3  1903               	skipnz
  6178  0FC4  2F2F               	goto	l3874
  6179  0FC5  3A80               	xorlw	128^0	; case 128
  6180  0FC6  1903               	skipnz
  6181  0FC7  2F78               	goto	l3876
  6182  0FC8  2FC9               	goto	l3884
  6183                           opt subtitle "HI-TECH Software Omniscient Code Generator (Lite mode) build 49521"
  6184                           
  6185                           opt pagewidth 120
  6186                           
  6187  0FC9                     l429:	
  6188                           opt subtitle "HI-TECH Software Omniscient Code Generator (Lite mode) build 49521"
  6189                           
  6190  0FC9                     l3884:	
  6191                           opt subtitle "HI-TECH Software Omniscient Code Generator (Lite mode) build 49521"
  6192  0FC9  0828               	movf	(printf@c)^080h,w
  6193  0FCA  120A  158A  2001   	fcall	_putch
              120A  158A         
  6194  0FCF  2FD0               	goto	l3886
  6195                           opt subtitle "HI-TECH Software Omniscient Code Generator (Lite mode) build 49521"
  6196                           
  6197  0FD0                     l425:	
  6198                           opt subtitle "HI-TECH Software Omniscient Code Generator (Lite mode) build 49521"
  6199                           
  6200  0FD0                     l3886:	
  6201  0FD0  30FF               	movlw	(-1)
  6202  0FD1  1283               	bcf	status, 5	;RP0=0, select bank0
  6203  0FD2  1303               	bcf	status, 6	;RP1=0, select bank0
  6204  0FD3  00C8               	movwf	(??_printf+0)+0
  6205  0FD4  0848               	movf	(??_printf+0)+0,w
  6206  0FD5  1683               	bsf	status, 5	;RP0=1, select bank1
  6207  0FD6  1303               	bcf	status, 6	;RP1=0, select bank1
  6208  0FD7  07A2               	addwf	(printf@prec)^080h,f
  6209  0FD8  0822               	movf	((printf@prec)^080h),w
  6210  0FD9  3AFF               	xorlw	-1
  6211  0FDA  1D03               	skipz
  6212  0FDB  2FDD               	goto	u3961
  6213  0FDC  2FDE               	goto	u3960
  6214  0FDD                     u3961:
  6215  0FDD  2FC0               	goto	l3882
  6216  0FDE                     u3960:
  6217  0FDE  2FE0               	goto	l3888
  6218                           opt subtitle "HI-TECH Software Omniscient Code Generator (Lite mode) build 49521"
  6219  0FDF                     l431:	
  6220  0FDF  2FE0               	goto	l3888
  6221                           opt subtitle "HI-TECH Software Omniscient Code Generator (Lite mode) build 49521"
  6222                           
  6223  0FE0                     l399:	
  6224                           opt subtitle "HI-TECH Software Omniscient Code Generator (Lite mode) build 49521"
  6225                           
  6226  0FE0                     l3888:	
  6227  0FE0  1283               	bcf	status, 5	;RP0=0, select bank0
  6228  0FE1  1303               	bcf	status, 6	;RP1=0, select bank0
  6229  0FE2  0843               	movf	(printf@f+1),w
  6230  0FE3  00C9               	movwf	(??_printf+0)+0+1
  6231  0FE4  0842               	movf	(printf@f),w
  6232  0FE5  00C8               	movwf	(??_printf+0)+0
  6233  0FE6  3001               	movlw	(01h)
  6234  0FE7  07C2               	addwf	(printf@f),f
  6235  0FE8  1803               	skipnc
  6236  0FE9  0AC3               	incf	(printf@f+1),f
  6237  0FEA  0849               	movf	1+(??_printf+0)+0,w
  6238  0FEB  00FF               	movwf	btemp+1
  6239  0FEC  0848               	movf	0+(??_printf+0)+0,w
  6240  0FED  0084               	movwf	fsr0
  6241  0FEE  160A  118A  2000   	fcall	stringtab
              120A  158A         
  6242  0FF3  00CA               	movwf	(??_printf+2)+0
  6243  0FF4  084A               	movf	(??_printf+2)+0,w
  6244  0FF5  1683               	bsf	status, 5	;RP0=1, select bank1
  6245  0FF6  1303               	bcf	status, 6	;RP1=0, select bank1
  6246  0FF7  00A8               	movwf	(printf@c)^080h
  6247  0FF8  08A8               	movf	((printf@c)^080h),f
  6248  0FF9  1D03               	skipz
  6249  0FFA  2FFC               	goto	u3971
  6250  0FFB  2FFD               	goto	u3970
  6251  0FFC                     u3971:
  6252  0FFC  2E09               	goto	l3816
  6253  0FFD                     u3970:
  6254  0FFD  2FFF               	goto	l433
  6255                           opt subtitle "HI-TECH Software Omniscient Code Generator (Lite mode) build 49521"
  6256  0FFE                     l432:	
  6257  0FFE  2FFF               	goto	l433
  6258                           opt subtitle "HI-TECH Software Omniscient Code Generator (Lite mode) build 49521"
  6259                           
  6260                           opt pagewidth 120
  6261                           
  6262                           	opt lm
  6263  0FFF                     l404:	
  6264                           opt subtitle "HI-TECH Software Omniscient Code Generator (Lite mode) build 49521"
  6265                           
  6266                           opt pagewidth 120
  6267                           
  6268  0FFF                     l433:	
  6269  0FFF  0008               	return
  6270                           opt subtitle "HI-TECH Software Omniscient Code Generator (Lite mode) build 49521"
  6271                           
  6272  1000                     	__end_of_printf:
  6273                           opt subtitle "HI-TECH Software Omniscient Code Generator (Lite mode) build 49521"
  6274                           
  6275                           opt pagewidth 120
  6276                           
  6277                           	opt lm
  6278                           
  6279                           	processor	16LF707
  6280                           clrc	macro
  6281                           	bcf	3,0
  6282                           	endm
  6283                           clrz	macro
  6284                           	bcf	3,2
  6285                           	endm
  6286                           setc	macro
  6287                           	bsf	3,0
  6288                           	endm
  6289                           setz	macro
  6290                           	bsf	3,2
  6291                           	endm
  6292                           skipc	macro
  6293                           	btfss	3,0
  6294                           	endm
  6295                           skipz	macro
  6296                           	btfss	3,2
  6297                           	endm
  6298                           skipnc	macro
  6299                           	btfsc	3,0
  6300                           	endm
  6301                           skipnz	macro
  6302                           	btfsc	3,2
  6303                           	endm
  6304                           indf	equ	0
  6305                           indf0	equ	0
  6306                           pc	equ	2
  6307                           pcl	equ	2
  6308  1545                     __ptext1177:	;psect for function _rfm70TxDataSentErrorInterrupt
  6309                           opt subtitle "HI-TECH Software Omniscient Code Generator (Lite mode) build 49521"
  6310                           
  6311                           opt pagewidth 120
  6312                           
  6313  001F                     	__size_of_rfm70TxDataSentErrorInterrupt	equ	__end_of_rfm70TxDataSentErrorInterrupt-_rfm
                                 70TxDataSentErrorInterrupt
  6314                           opt subtitle "HI-TECH Software Omniscient Code Generator (Lite mode) build 49521"
  6315  1545                     _rfm70TxDataSentErrorInterrupt:	
  6316                           opt subtitle "HI-TECH Software Omniscient Code Generator (Lite mode) build 49521"
  6317                           
  6318                           opt pagewidth 120
  6319                           
  6320  1545                     l4452:	
  6321                           opt subtitle "HI-TECH Software Omniscient Code Generator (Lite mode) build 49521"
  6322  1545  3007               	movlw	(07h)
  6323  1546  160A  118A  250D   	fcall	_SPI_Read_Reg
              160A  118A         
  6324  154B  1283               	bcf	status, 5	;RP0=0, select bank0
  6325  154C  1303               	bcf	status, 6	;RP1=0, select bank0
  6326  154D  00BA               	movwf	(??_rfm70TxDataSentErrorInterrupt+0)+0
  6327  154E  1EBA               	btfss	0+(??_rfm70TxDataSentErrorInterrupt+0)+0,(5)&7
  6328  154F  2D51               	goto	u4461
  6329  1550  2D52               	goto	u4460
  6330  1551                     u4461:
  6331  1551  2D60               	goto	l4462
  6332  1552                     u4460:
  6333                           opt subtitle "HI-TECH Software Omniscient Code Generator (Lite mode) build 49521"
  6334                           
  6335  1552                     l4454:	
  6336                           opt subtitle "HI-TECH Software Omniscient Code Generator (Lite mode) build 49521"
  6337  1552  3010               	movlw	(010h)
  6338  1553  00BA               	movwf	(??_rfm70TxDataSentErrorInterrupt+0)+0
  6339  1554  083A               	movf	(??_rfm70TxDataSentErrorInterrupt+0)+0,w
  6340  1555  00B7               	movwf	(?_SPI_Write_Reg)
  6341  1556  3027               	movlw	(027h)
  6342  1557  160A  118A  24B0   	fcall	_SPI_Write_Reg
              160A  118A         
  6343                           opt subtitle "HI-TECH Software Omniscient Code Generator (Lite mode) build 49521"
  6344                           
  6345  155C                     l4456:	
  6346                           opt subtitle "HI-TECH Software Omniscient Code Generator (Lite mode) build 49521"
  6347  155C  3001               	movlw	(01h)
  6348  155D  2D63               	goto	l375
  6349                           opt subtitle "HI-TECH Software Omniscient Code Generator (Lite mode) build 49521"
  6350  155E                     l4458:	
  6351  155E  2D63               	goto	l375
  6352                           opt subtitle "HI-TECH Software Omniscient Code Generator (Lite mode) build 49521"
  6353                           
  6354  155F                     l4460:	
  6355                           opt subtitle "HI-TECH Software Omniscient Code Generator (Lite mode) build 49521"
  6356  155F  2D63               	goto	l375
  6357                           opt subtitle "HI-TECH Software Omniscient Code Generator (Lite mode) build 49521"
  6358                           
  6359  1560                     l374:	
  6360                           opt subtitle "HI-TECH Software Omniscient Code Generator (Lite mode) build 49521"
  6361                           
  6362  1560                     l4462:	
  6363                           opt subtitle "HI-TECH Software Omniscient Code Generator (Lite mode) build 49521"
  6364                           
  6365  1560  3000               	movlw	(0)
  6366  1561  2D63               	goto	l375
  6367                           opt subtitle "HI-TECH Software Omniscient Code Generator (Lite mode) build 49521"
  6368  1562                     l4464:	
  6369  1562  2D63               	goto	l375
  6370                           opt subtitle "HI-TECH Software Omniscient Code Generator (Lite mode) build 49521"
  6371  1563                     l376:	
  6372                           opt subtitle "HI-TECH Software Omniscient Code Generator (Lite mode) build 49521"
  6373                           
  6374  1563                     l375:	
  6375  1563  0008               	return
  6376                           opt subtitle "HI-TECH Software Omniscient Code Generator (Lite mode) build 49521"
  6377                           
  6378  1564                     	__end_of_rfm70TxDataSentErrorInterrupt:
  6379                           opt subtitle "HI-TECH Software Omniscient Code Generator (Lite mode) build 49521"
  6380                           
  6381                           opt pagewidth 120
  6382                           
  6383                           	opt lm
  6384                           
  6385                           	processor	16LF707
  6386                           clrc	macro
  6387                           	bcf	3,0
  6388                           	endm
  6389                           clrz	macro
  6390                           	bcf	3,2
  6391                           	endm
  6392                           setc	macro
  6393                           	bsf	3,0
  6394                           	endm
  6395                           setz	macro
  6396                           	bsf	3,2
  6397                           	endm
  6398                           skipc	macro
  6399                           	btfss	3,0
  6400                           	endm
  6401                           skipz	macro
  6402                           	btfss	3,2
  6403                           	endm
  6404                           skipnc	macro
  6405                           	btfsc	3,0
  6406                           	endm
  6407                           skipnz	macro
  6408                           	btfsc	3,2
  6409                           	endm
  6410                           indf	equ	0
  6411                           indf0	equ	0
  6412                           pc	equ	2
  6413                           pcl	equ	2
  6414                           status	equ	3
  6415  169D                     __ptext1178:	;psect for function _SwitchToRxMode
  6416                           opt subtitle "HI-TECH Software Omniscient Code Generator (Lite mode) build 49521"
  6417                           
  6418                           opt pagewidth 120
  6419                           
  6420  003F                     	__size_of_SwitchToRxMode	equ	__end_of_SwitchToRxMode-_SwitchToRxMode
  6421                           opt subtitle "HI-TECH Software Omniscient Code Generator (Lite mode) build 49521"
  6422  169D                     _SwitchToRxMode:	
  6423                           opt subtitle "HI-TECH Software Omniscient Code Generator (Lite mode) build 49521"
  6424                           
  6425                           opt pagewidth 120
  6426                           
  6427  169D                     l4442:	
  6428                           opt subtitle "HI-TECH Software Omniscient Code Generator (Lite mode) build 49521"
  6429                           
  6430  169D  1283               	bcf	status, 5	;RP0=0, select bank0
  6431  169E  1303               	bcf	status, 6	;RP1=0, select bank0
  6432  169F  01B7               	clrf	(?_SPI_Write_Reg)
  6433  16A0  30E2               	movlw	(0E2h)
  6434  16A1  160A  118A  24B0   	fcall	_SPI_Write_Reg
              160A  118A         
  6435                           opt subtitle "HI-TECH Software Omniscient Code Generator (Lite mode) build 49521"
  6436                           
  6437  16A6  3007               	movlw	(07h)
  6438  16A7  160A  118A  250D   	fcall	_SPI_Read_Reg
              160A  118A         
  6439  16AC  1283               	bcf	status, 5	;RP0=0, select bank0
  6440  16AD  1303               	bcf	status, 6	;RP1=0, select bank0
  6441  16AE  00BA               	movwf	(??_SwitchToRxMode+0)+0
  6442  16AF  083A               	movf	(??_SwitchToRxMode+0)+0,w
  6443  16B0  00BB               	movwf	(SwitchToRxMode@value)
  6444                           opt subtitle "HI-TECH Software Omniscient Code Generator (Lite mode) build 49521"
  6445                           
  6446  16B1  083B               	movf	(SwitchToRxMode@value),w
  6447  16B2  00BA               	movwf	(??_SwitchToRxMode+0)+0
  6448  16B3  083A               	movf	(??_SwitchToRxMode+0)+0,w
  6449  16B4  00B7               	movwf	(?_SPI_Write_Reg)
  6450  16B5  3027               	movlw	(027h)
  6451  16B6  160A  118A  24B0   	fcall	_SPI_Write_Reg
              160A  118A         
  6452                           opt subtitle "HI-TECH Software Omniscient Code Generator (Lite mode) build 49521"
  6453                           
  6454  16BB                     l4444:	
  6455                           opt subtitle "HI-TECH Software Omniscient Code Generator (Lite mode) build 49521"
  6456  16BB  1283               	bcf	status, 5	;RP0=0, select bank0
  6457  16BC  1303               	bcf	status, 6	;RP1=0, select bank0
  6458  16BD  1107               	bcf	(7),2	;volatile
  6459                           opt subtitle "HI-TECH Software Omniscient Code Generator (Lite mode) build 49521"
  6460                           
  6461  16BE  3000               	movlw	(0)
  6462  16BF  160A  118A  250D   	fcall	_SPI_Read_Reg
              160A  118A         
  6463  16C4  1283               	bcf	status, 5	;RP0=0, select bank0
  6464  16C5  1303               	bcf	status, 6	;RP1=0, select bank0
  6465  16C6  00BA               	movwf	(??_SwitchToRxMode+0)+0
  6466  16C7  083A               	movf	(??_SwitchToRxMode+0)+0,w
  6467  16C8  00BB               	movwf	(SwitchToRxMode@value)
  6468                           opt subtitle "HI-TECH Software Omniscient Code Generator (Lite mode) build 49521"
  6469                           
  6470  16C9                     l4446:	
  6471                           opt subtitle "HI-TECH Software Omniscient Code Generator (Lite mode) build 49521"
  6472  16C9  083B               	movf	(SwitchToRxMode@value),w
  6473  16CA  3801               	iorlw	01h
  6474  16CB  00BA               	movwf	(??_SwitchToRxMode+0)+0
  6475  16CC  083A               	movf	(??_SwitchToRxMode+0)+0,w
  6476  16CD  00BB               	movwf	(SwitchToRxMode@value)
  6477                           opt subtitle "HI-TECH Software Omniscient Code Generator (Lite mode) build 49521"
  6478                           
  6479  16CE                     l4448:	
  6480                           opt subtitle "HI-TECH Software Omniscient Code Generator (Lite mode) build 49521"
  6481  16CE  083B               	movf	(SwitchToRxMode@value),w
  6482  16CF  00BA               	movwf	(??_SwitchToRxMode+0)+0
  6483  16D0  083A               	movf	(??_SwitchToRxMode+0)+0,w
  6484  16D1  00B7               	movwf	(?_SPI_Write_Reg)
  6485  16D2  3020               	movlw	(020h)
  6486  16D3  160A  118A  24B0   	fcall	_SPI_Write_Reg
              160A  118A         
  6487                           opt subtitle "HI-TECH Software Omniscient Code Generator (Lite mode) build 49521"
  6488                           
  6489  16D8                     l4450:	
  6490                           opt subtitle "HI-TECH Software Omniscient Code Generator (Lite mode) build 49521"
  6491  16D8  1283               	bcf	status, 5	;RP0=0, select bank0
  6492  16D9  1303               	bcf	status, 6	;RP1=0, select bank0
  6493  16DA  1507               	bsf	(7),2	;volatile
  6494                           opt subtitle "HI-TECH Software Omniscient Code Generator (Lite mode) build 49521"
  6495                           
  6496  16DB                     l321:	
  6497  16DB  0008               	return
  6498                           opt subtitle "HI-TECH Software Omniscient Code Generator (Lite mode) build 49521"
  6499                           
  6500  16DC                     	__end_of_SwitchToRxMode:
  6501                           opt subtitle "HI-TECH Software Omniscient Code Generator (Lite mode) build 49521"
  6502                           
  6503                           opt pagewidth 120
  6504                           
  6505                           	opt lm
  6506                           
  6507                           	processor	16LF707
  6508                           clrc	macro
  6509                           	bcf	3,0
  6510                           	endm
  6511                           clrz	macro
  6512                           	bcf	3,2
  6513                           	endm
  6514                           setc	macro
  6515                           	bsf	3,0
  6516                           	endm
  6517                           setz	macro
  6518                           	bsf	3,2
  6519                           	endm
  6520                           skipc	macro
  6521                           	btfss	3,0
  6522                           	endm
  6523                           skipz	macro
  6524                           	btfss	3,2
  6525                           	endm
  6526                           skipnc	macro
  6527                           	btfsc	3,0
  6528                           	endm
  6529                           skipnz	macro
  6530                           	btfsc	3,2
  6531                           	endm
  6532                           indf	equ	0
  6533                           indf0	equ	0
  6534                           pc	equ	2
  6535                           pcl	equ	2
  6536  1526                     __ptext1179:	;psect for function _rfm70TxDataSentInterrupt
  6537                           opt subtitle "HI-TECH Software Omniscient Code Generator (Lite mode) build 49521"
  6538                           
  6539                           opt pagewidth 120
  6540                           
  6541  001F                     	__size_of_rfm70TxDataSentInterrupt	equ	__end_of_rfm70TxDataSentInterrupt-_rfm70TxDataSe
                                 ntInterrupt
  6542                           opt subtitle "HI-TECH Software Omniscient Code Generator (Lite mode) build 49521"
  6543  1526                     _rfm70TxDataSentInterrupt:	
  6544                           opt subtitle "HI-TECH Software Omniscient Code Generator (Lite mode) build 49521"
  6545                           
  6546                           opt pagewidth 120
  6547                           
  6548  1526                     l4428:	
  6549                           opt subtitle "HI-TECH Software Omniscient Code Generator (Lite mode) build 49521"
  6550  1526  3007               	movlw	(07h)
  6551  1527  160A  118A  250D   	fcall	_SPI_Read_Reg
              160A  118A         
  6552  152C  1283               	bcf	status, 5	;RP0=0, select bank0
  6553  152D  1303               	bcf	status, 6	;RP1=0, select bank0
  6554  152E  00BA               	movwf	(??_rfm70TxDataSentInterrupt+0)+0
  6555  152F  1EBA               	btfss	0+(??_rfm70TxDataSentInterrupt+0)+0,(5)&7
  6556  1530  2D32               	goto	u4451
  6557  1531  2D33               	goto	u4450
  6558  1532                     u4451:
  6559  1532  2D41               	goto	l4438
  6560  1533                     u4450:
  6561                           opt subtitle "HI-TECH Software Omniscient Code Generator (Lite mode) build 49521"
  6562                           
  6563  1533                     l4430:	
  6564                           opt subtitle "HI-TECH Software Omniscient Code Generator (Lite mode) build 49521"
  6565  1533  3020               	movlw	(020h)
  6566  1534  00BA               	movwf	(??_rfm70TxDataSentInterrupt+0)+0
  6567  1535  083A               	movf	(??_rfm70TxDataSentInterrupt+0)+0,w
  6568  1536  00B7               	movwf	(?_SPI_Write_Reg)
  6569  1537  3027               	movlw	(027h)
  6570  1538  160A  118A  24B0   	fcall	_SPI_Write_Reg
              160A  118A         
  6571                           opt subtitle "HI-TECH Software Omniscient Code Generator (Lite mode) build 49521"
  6572                           
  6573  153D                     l4432:	
  6574                           opt subtitle "HI-TECH Software Omniscient Code Generator (Lite mode) build 49521"
  6575  153D  3001               	movlw	(01h)
  6576  153E  2D44               	goto	l370
  6577                           opt subtitle "HI-TECH Software Omniscient Code Generator (Lite mode) build 49521"
  6578  153F                     l4434:	
  6579  153F  2D44               	goto	l370
  6580                           opt subtitle "HI-TECH Software Omniscient Code Generator (Lite mode) build 49521"
  6581                           
  6582  1540                     l4436:	
  6583                           opt subtitle "HI-TECH Software Omniscient Code Generator (Lite mode) build 49521"
  6584  1540  2D44               	goto	l370
  6585                           opt subtitle "HI-TECH Software Omniscient Code Generator (Lite mode) build 49521"
  6586                           
  6587  1541                     l369:	
  6588                           opt subtitle "HI-TECH Software Omniscient Code Generator (Lite mode) build 49521"
  6589                           
  6590  1541                     l4438:	
  6591                           opt subtitle "HI-TECH Software Omniscient Code Generator (Lite mode) build 49521"
  6592                           
  6593  1541  3000               	movlw	(0)
  6594  1542  2D44               	goto	l370
  6595                           opt subtitle "HI-TECH Software Omniscient Code Generator (Lite mode) build 49521"
  6596  1543                     l4440:	
  6597  1543  2D44               	goto	l370
  6598                           opt subtitle "HI-TECH Software Omniscient Code Generator (Lite mode) build 49521"
  6599  1544                     l371:	
  6600                           opt subtitle "HI-TECH Software Omniscient Code Generator (Lite mode) build 49521"
  6601                           
  6602  1544                     l370:	
  6603  1544  0008               	return
  6604                           opt subtitle "HI-TECH Software Omniscient Code Generator (Lite mode) build 49521"
  6605                           
  6606  1545                     	__end_of_rfm70TxDataSentInterrupt:
  6607                           opt subtitle "HI-TECH Software Omniscient Code Generator (Lite mode) build 49521"
  6608                           
  6609                           opt pagewidth 120
  6610                           
  6611                           	opt lm
  6612                           
  6613                           	processor	16LF707
  6614                           clrc	macro
  6615                           	bcf	3,0
  6616                           	endm
  6617                           clrz	macro
  6618                           	bcf	3,2
  6619                           	endm
  6620                           setc	macro
  6621                           	bsf	3,0
  6622                           	endm
  6623                           setz	macro
  6624                           	bsf	3,2
  6625                           	endm
  6626                           skipc	macro
  6627                           	btfss	3,0
  6628                           	endm
  6629                           skipz	macro
  6630                           	btfss	3,2
  6631                           	endm
  6632                           skipnc	macro
  6633                           	btfsc	3,0
  6634                           	endm
  6635                           skipnz	macro
  6636                           	btfsc	3,2
  6637                           	endm
  6638                           indf	equ	0
  6639                           indf0	equ	0
  6640                           pc	equ	2
  6641                           pcl	equ	2
  6642                           status	equ	3
  6643                           fsr	equ	4
  6644                           fsr0	equ	4
  6645                           c	equ	1
  6646  15B3                     __ptext1180:	;psect for function _SPI_Write_Buf
  6647                           opt subtitle "HI-TECH Software Omniscient Code Generator (Lite mode) build 49521"
  6648                           
  6649                           opt pagewidth 120
  6650                           
  6651  002A                     	__size_of_SPI_Write_Buf	equ	__end_of_SPI_Write_Buf-_SPI_Write_Buf
  6652                           opt subtitle "HI-TECH Software Omniscient Code Generator (Lite mode) build 49521"
  6653  15B3                     _SPI_Write_Buf:	
  6654                           opt subtitle "HI-TECH Software Omniscient Code Generator (Lite mode) build 49521"
  6655                           
  6656                           opt pagewidth 120
  6657                           
  6658  15B3  1283               	bcf	status, 5	;RP0=0, select bank0
  6659  15B4  1303               	bcf	status, 6	;RP1=0, select bank0
  6660  15B5  00BA               	movwf	(SPI_Write_Buf@reg)
  6661                           opt subtitle "HI-TECH Software Omniscient Code Generator (Lite mode) build 49521"
  6662  15B6                     l4414:	
  6663                           opt subtitle "HI-TECH Software Omniscient Code Generator (Lite mode) build 49521"
  6664                           
  6665  15B6  1108               	bcf	(8),2	;volatile
  6666                           opt subtitle "HI-TECH Software Omniscient Code Generator (Lite mode) build 49521"
  6667                           
  6668  15B7                     l4416:	
  6669                           opt subtitle "HI-TECH Software Omniscient Code Generator (Lite mode) build 49521"
  6670  15B7  083A               	movf	(SPI_Write_Buf@reg),w
  6671  15B8  160A  118A  24F4   	fcall	_SPI_RW
              160A  118A         
  6672                           opt subtitle "HI-TECH Software Omniscient Code Generator (Lite mode) build 49521"
  6673                           
  6674  15BD                     l4418:	
  6675                           opt subtitle "HI-TECH Software Omniscient Code Generator (Lite mode) build 49521"
  6676  15BD  1283               	bcf	status, 5	;RP0=0, select bank0
  6677  15BE  1303               	bcf	status, 6	;RP1=0, select bank0
  6678  15BF  01BB               	clrf	(SPI_Write_Buf@byte_ctr)
  6679  15C0  2DD5               	goto	l4426
  6680                           opt subtitle "HI-TECH Software Omniscient Code Generator (Lite mode) build 49521"
  6681                           
  6682  15C1                     l316:	
  6683                           opt subtitle "HI-TECH Software Omniscient Code Generator (Lite mode) build 49521"
  6684  15C1                     l4420:	
  6685                           opt subtitle "HI-TECH Software Omniscient Code Generator (Lite mode) build 49521"
  6686  15C1  0837               	movf	(SPI_Write_Buf@pBuf),w
  6687  15C2  0084               	movwf	fsr0
  6688  15C3  1383               	bcf	status, 7	;select IRP bank0
  6689  15C4  0800               	movf	indf,w
  6690  15C5  160A  118A  24F4   	fcall	_SPI_RW
              160A  118A         
  6691                           opt subtitle "HI-TECH Software Omniscient Code Generator (Lite mode) build 49521"
  6692  15CA                     l4422:	
  6693  15CA  3001               	movlw	(01h)
  6694  15CB  1283               	bcf	status, 5	;RP0=0, select bank0
  6695  15CC  1303               	bcf	status, 6	;RP1=0, select bank0
  6696  15CD  00B9               	movwf	(??_SPI_Write_Buf+0)+0
  6697  15CE  0839               	movf	(??_SPI_Write_Buf+0)+0,w
  6698  15CF  07B7               	addwf	(SPI_Write_Buf@pBuf),f
  6699                           opt subtitle "HI-TECH Software Omniscient Code Generator (Lite mode) build 49521"
  6700                           
  6701  15D0                     l4424:	
  6702  15D0  3001               	movlw	(01h)
  6703  15D1  00B9               	movwf	(??_SPI_Write_Buf+0)+0
  6704  15D2  0839               	movf	(??_SPI_Write_Buf+0)+0,w
  6705  15D3  07BB               	addwf	(SPI_Write_Buf@byte_ctr),f
  6706  15D4  2DD5               	goto	l4426
  6707                           opt subtitle "HI-TECH Software Omniscient Code Generator (Lite mode) build 49521"
  6708  15D5                     l315:	
  6709                           opt subtitle "HI-TECH Software Omniscient Code Generator (Lite mode) build 49521"
  6710  15D5                     l4426:	
  6711  15D5  0838               	movf	(SPI_Write_Buf@length),w
  6712  15D6  023B               	subwf	(SPI_Write_Buf@byte_ctr),w
  6713  15D7  1C03               	skipc
  6714  15D8  2DDA               	goto	u4441
  6715  15D9  2DDB               	goto	u4440
  6716  15DA                     u4441:
  6717  15DA  2DC1               	goto	l4420
  6718  15DB                     u4440:
  6719                           opt subtitle "HI-TECH Software Omniscient Code Generator (Lite mode) build 49521"
  6720  15DB                     l317:	
  6721                           opt subtitle "HI-TECH Software Omniscient Code Generator (Lite mode) build 49521"
  6722                           
  6723  15DB  1508               	bsf	(8),2	;volatile
  6724                           opt subtitle "HI-TECH Software Omniscient Code Generator (Lite mode) build 49521"
  6725                           
  6726  15DC                     l318:	
  6727  15DC  0008               	return
  6728                           opt subtitle "HI-TECH Software Omniscient Code Generator (Lite mode) build 49521"
  6729                           
  6730  15DD                     	__end_of_SPI_Write_Buf:
  6731                           opt subtitle "HI-TECH Software Omniscient Code Generator (Lite mode) build 49521"
  6732                           
  6733                           opt pagewidth 120
  6734                           
  6735                           	opt lm
  6736                           
  6737                           	processor	16LF707
  6738                           clrc	macro
  6739                           	bcf	3,0
  6740                           	endm
  6741                           clrz	macro
  6742                           	bcf	3,2
  6743                           	endm
  6744                           setc	macro
  6745                           	bsf	3,0
  6746                           	endm
  6747                           setz	macro
  6748                           	bsf	3,2
  6749                           	endm
  6750                           skipc	macro
  6751                           	btfss	3,0
  6752                           	endm
  6753                           skipz	macro
  6754                           	btfss	3,2
  6755                           	endm
  6756                           skipnc	macro
  6757                           	btfsc	3,0
  6758                           	endm
  6759                           skipnz	macro
  6760                           	btfsc	3,2
  6761                           	endm
  6762                           indf	equ	0
  6763                           indf0	equ	0
  6764                           pc	equ	2
  6765                           pcl	equ	2
  6766  1589                     __ptext1181:	;psect for function _SwitchToTxMode
  6767                           opt subtitle "HI-TECH Software Omniscient Code Generator (Lite mode) build 49521"
  6768                           
  6769                           opt pagewidth 120
  6770                           
  6771  002A                     	__size_of_SwitchToTxMode	equ	__end_of_SwitchToTxMode-_SwitchToTxMode
  6772                           opt subtitle "HI-TECH Software Omniscient Code Generator (Lite mode) build 49521"
  6773  1589                     _SwitchToTxMode:	
  6774                           opt subtitle "HI-TECH Software Omniscient Code Generator (Lite mode) build 49521"
  6775                           
  6776                           opt pagewidth 120
  6777                           
  6778  1589                     l4392:	
  6779                           opt subtitle "HI-TECH Software Omniscient Code Generator (Lite mode) build 49521"
  6780                           
  6781  1589  1283               	bcf	status, 5	;RP0=0, select bank0
  6782  158A  1303               	bcf	status, 6	;RP1=0, select bank0
  6783  158B  01B7               	clrf	(?_SPI_Write_Reg)
  6784  158C  30E1               	movlw	(0E1h)
  6785  158D  160A  118A  24B0   	fcall	_SPI_Write_Reg
              160A  118A         
  6786                           opt subtitle "HI-TECH Software Omniscient Code Generator (Lite mode) build 49521"
  6787                           
  6788  1592                     l4394:	
  6789                           opt subtitle "HI-TECH Software Omniscient Code Generator (Lite mode) build 49521"
  6790  1592  1283               	bcf	status, 5	;RP0=0, select bank0
  6791  1593  1303               	bcf	status, 6	;RP1=0, select bank0
  6792  1594  1107               	bcf	(7),2	;volatile
  6793                           opt subtitle "HI-TECH Software Omniscient Code Generator (Lite mode) build 49521"
  6794                           
  6795  1595  3000               	movlw	(0)
  6796  1596  160A  118A  250D   	fcall	_SPI_Read_Reg
              160A  118A         
  6797  159B  1283               	bcf	status, 5	;RP0=0, select bank0
  6798  159C  1303               	bcf	status, 6	;RP1=0, select bank0
  6799  159D  00BA               	movwf	(??_SwitchToTxMode+0)+0
  6800  159E  083A               	movf	(??_SwitchToTxMode+0)+0,w
  6801  159F  00BB               	movwf	(SwitchToTxMode@value)
  6802                           opt subtitle "HI-TECH Software Omniscient Code Generator (Lite mode) build 49521"
  6803                           
  6804  15A0                     l4396:	
  6805                           opt subtitle "HI-TECH Software Omniscient Code Generator (Lite mode) build 49521"
  6806  15A0  083B               	movf	(SwitchToTxMode@value),w
  6807  15A1  39FE               	andlw	0FEh
  6808  15A2  00BA               	movwf	(??_SwitchToTxMode+0)+0
  6809  15A3  083A               	movf	(??_SwitchToTxMode+0)+0,w
  6810  15A4  00BB               	movwf	(SwitchToTxMode@value)
  6811                           opt subtitle "HI-TECH Software Omniscient Code Generator (Lite mode) build 49521"
  6812                           
  6813  15A5                     l4398:	
  6814                           opt subtitle "HI-TECH Software Omniscient Code Generator (Lite mode) build 49521"
  6815  15A5  083B               	movf	(SwitchToTxMode@value),w
  6816  15A6  00BA               	movwf	(??_SwitchToTxMode+0)+0
  6817  15A7  083A               	movf	(??_SwitchToTxMode+0)+0,w
  6818  15A8  00B7               	movwf	(?_SPI_Write_Reg)
  6819  15A9  3020               	movlw	(020h)
  6820  15AA  160A  118A  24B0   	fcall	_SPI_Write_Reg
              160A  118A         
  6821                           opt subtitle "HI-TECH Software Omniscient Code Generator (Lite mode) build 49521"
  6822                           
  6823  15AF                     l4400:	
  6824                           opt subtitle "HI-TECH Software Omniscient Code Generator (Lite mode) build 49521"
  6825  15AF  1283               	bcf	status, 5	;RP0=0, select bank0
  6826  15B0  1303               	bcf	status, 6	;RP1=0, select bank0
  6827  15B1  1507               	bsf	(7),2	;volatile
  6828                           opt subtitle "HI-TECH Software Omniscient Code Generator (Lite mode) build 49521"
  6829                           
  6830  15B2                     l324:	
  6831  15B2  0008               	return
  6832                           opt subtitle "HI-TECH Software Omniscient Code Generator (Lite mode) build 49521"
  6833                           
  6834  15B3                     	__end_of_SwitchToTxMode:
  6835                           opt subtitle "HI-TECH Software Omniscient Code Generator (Lite mode) build 49521"
  6836                           
  6837                           opt pagewidth 120
  6838                           
  6839                           	opt lm
  6840                           
  6841                           	processor	16LF707
  6842                           clrc	macro
  6843                           	bcf	3,0
  6844                           	endm
  6845                           clrz	macro
  6846                           	bcf	3,2
  6847                           	endm
  6848                           setc	macro
  6849                           	bsf	3,0
  6850                           	endm
  6851                           setz	macro
  6852                           	bsf	3,2
  6853                           	endm
  6854                           skipc	macro
  6855                           	btfss	3,0
  6856                           	endm
  6857                           skipz	macro
  6858                           	btfss	3,2
  6859                           	endm
  6860                           skipnc	macro
  6861                           	btfsc	3,0
  6862                           	endm
  6863                           skipnz	macro
  6864                           	btfsc	3,2
  6865                           	endm
  6866                           indf	equ	0
  6867                           indf0	equ	0
  6868                           pc	equ	2
  6869                           pcl	equ	2
  6870  0801                     __ptext1182:	;psect for function _putch
  6871                           opt subtitle "HI-TECH Software Omniscient Code Generator (Lite mode) build 49521"
  6872                           
  6873                           opt pagewidth 120
  6874                           
  6875  000C                     	__size_of_putch	equ	__end_of_putch-_putch
  6876                           opt subtitle "HI-TECH Software Omniscient Code Generator (Lite mode) build 49521"
  6877  0801                     _putch:	
  6878                           opt subtitle "HI-TECH Software Omniscient Code Generator (Lite mode) build 49521"
  6879                           
  6880                           opt pagewidth 120
  6881  0801  1283               	bcf	status, 5	;RP0=0, select bank0
  6882  0802  1303               	bcf	status, 6	;RP1=0, select bank0
  6883  0803  00B4               	movwf	(putch@c)
  6884                           opt subtitle "HI-TECH Software Omniscient Code Generator (Lite mode) build 49521"
  6885                           
  6886  0804                     l4384:	
  6887                           opt subtitle "HI-TECH Software Omniscient Code Generator (Lite mode) build 49521"
  6888  0804  2805               	goto	l233
  6889                           opt subtitle "HI-TECH Software Omniscient Code Generator (Lite mode) build 49521"
  6890  0805                     l234:	
  6891                           opt subtitle "HI-TECH Software Omniscient Code Generator (Lite mode) build 49521"
  6892  0805                     l233:	
  6893  0805  1E0C               	btfss	(100/8),(100)&7	;volatile
  6894  0806  2808               	goto	u4431
  6895  0807  2809               	goto	u4430
  6896  0808                     u4431:
  6897  0808  2805               	goto	l233
  6898  0809                     u4430:
  6899  0809  280A               	goto	l4386
  6900                           opt subtitle "HI-TECH Software Omniscient Code Generator (Lite mode) build 49521"
  6901  080A                     l235:	
  6902                           opt subtitle "HI-TECH Software Omniscient Code Generator (Lite mode) build 49521"
  6903                           
  6904  080A                     l4386:	
  6905                           opt subtitle "HI-TECH Software Omniscient Code Generator (Lite mode) build 49521"
  6906  080A  0834               	movf	(putch@c),w
  6907  080B  0099               	movwf	(25)	;volatile
  6908                           opt subtitle "HI-TECH Software Omniscient Code Generator (Lite mode) build 49521"
  6909                           
  6910  080C                     l236:	
  6911  080C  0008               	return
  6912                           opt subtitle "HI-TECH Software Omniscient Code Generator (Lite mode) build 49521"
  6913                           
  6914  080D                     	__end_of_putch:
  6915                           opt subtitle "HI-TECH Software Omniscient Code Generator (Lite mode) build 49521"
  6916                           
  6917                           opt pagewidth 120
  6918                           
  6919                           	opt lm
  6920                           
  6921                           	processor	16LF707
  6922                           clrc	macro
  6923                           	bcf	3,0
  6924                           	endm
  6925                           clrz	macro
  6926                           	bcf	3,2
  6927                           	endm
  6928                           setc	macro
  6929                           	bsf	3,0
  6930                           	endm
  6931                           setz	macro
  6932                           	bsf	3,2
  6933                           	endm
  6934                           skipc	macro
  6935                           	btfss	3,0
  6936                           	endm
  6937                           skipz	macro
  6938                           	btfss	3,2
  6939                           	endm
  6940                           skipnc	macro
  6941                           	btfsc	3,0
  6942                           	endm
  6943                           skipnz	macro
  6944                           	btfsc	3,2
  6945                           	endm
  6946                           indf	equ	0
  6947                           indf0	equ	0
  6948                           pc	equ	2
  6949                           pcl	equ	2
  6950                           status	equ	3
  6951                           fsr	equ	4
  6952                           fsr0	equ	4
  6953  0CA0                     __ptext1183:	;psect for function _sleep
  6954                           opt subtitle "HI-TECH Software Omniscient Code Generator (Lite mode) build 49521"
  6955                           
  6956                           opt pagewidth 120
  6957                           
  6958  0160                     	__size_of_sleep	equ	__end_of_sleep-_sleep
  6959                           opt subtitle "HI-TECH Software Omniscient Code Generator (Lite mode) build 49521"
  6960  0CA0                     _sleep:	
  6961                           opt subtitle "HI-TECH Software Omniscient Code Generator (Lite mode) build 49521"
  6962                           
  6963                           opt pagewidth 120
  6964                           
  6965  0CA0                     l3160:	
  6966                           opt subtitle "HI-TECH Software Omniscient Code Generator (Lite mode) build 49521"
  6967                           
  6968  0CA0  160A  118A  25DD   	fcall	_adcReadVcap
              120A  158A         
  6969  0CA5  1283               	bcf	status, 5	;RP0=0, select bank0
  6970  0CA6  1303               	bcf	status, 6	;RP1=0, select bank0
  6971  0CA7  00CC               	movwf	(??_sleep+0)+0+0
  6972  0CA8  01CD               	clrf	(??_sleep+0)+0+1
  6973  0CA9  084C               	movf	0+(??_sleep+0)+0,w
  6974  0CAA  1683               	bsf	status, 5	;RP0=1, select bank1
  6975  0CAB  1303               	bcf	status, 6	;RP1=0, select bank1
  6976  0CAC  00E8               	movwf	(_value)^080h
  6977  0CAD  1283               	bcf	status, 5	;RP0=0, select bank0
  6978  0CAE  1303               	bcf	status, 6	;RP1=0, select bank0
  6979  0CAF  084D               	movf	1+(??_sleep+0)+0,w
  6980  0CB0  1683               	bsf	status, 5	;RP0=1, select bank1
  6981  0CB1  1303               	bcf	status, 6	;RP1=0, select bank1
  6982  0CB2  00E9               	movwf	(_value+1)^080h
  6983                           opt subtitle "HI-TECH Software Omniscient Code Generator (Lite mode) build 49521"
  6984                           
  6985  0CB3  085B               	movf	(_charge_pulse_float)^080h,w
  6986  0CB4  1283               	bcf	status, 5	;RP0=0, select bank0
  6987  0CB5  1303               	bcf	status, 6	;RP1=0, select bank0
  6988  0CB6  00B4               	movwf	(?___fttol)
  6989  0CB7  1683               	bsf	status, 5	;RP0=1, select bank1
  6990  0CB8  1303               	bcf	status, 6	;RP1=0, select bank1
  6991  0CB9  085C               	movf	(_charge_pulse_float+1)^080h,w
  6992  0CBA  1283               	bcf	status, 5	;RP0=0, select bank0
  6993  0CBB  1303               	bcf	status, 6	;RP1=0, select bank0
  6994  0CBC  00B5               	movwf	(?___fttol+1)
  6995  0CBD  1683               	bsf	status, 5	;RP0=1, select bank1
  6996  0CBE  1303               	bcf	status, 6	;RP1=0, select bank1
  6997  0CBF  085D               	movf	(_charge_pulse_float+2)^080h,w
  6998  0CC0  1283               	bcf	status, 5	;RP0=0, select bank0
  6999  0CC1  1303               	bcf	status, 6	;RP1=0, select bank0
  7000  0CC2  00B6               	movwf	(?___fttol+2)
  7001  0CC3  120A  158A  2170   	fcall	___fttol
              120A  158A         
  7002  0CC8  1283               	bcf	status, 5	;RP0=0, select bank0
  7003  0CC9  1303               	bcf	status, 6	;RP1=0, select bank0
  7004  0CCA  0835               	movf	1+(((0+(?___fttol)))),w
  7005  0CCB  01D3               	clrf	(_charge_pulse+1)
  7006  0CCC  07D3               	addwf	(_charge_pulse+1)
  7007  0CCD  0834               	movf	0+(((0+(?___fttol)))),w
  7008  0CCE  01D2               	clrf	(_charge_pulse)
  7009  0CCF  07D2               	addwf	(_charge_pulse)
  7010                           opt subtitle "HI-TECH Software Omniscient Code Generator (Lite mode) build 49521"
  7011                           
  7012                           opt pagewidth 120
  7013  0CD0                     l3162:	
  7014                           opt subtitle "HI-TECH Software Omniscient Code Generator (Lite mode) build 49521"
  7015  0CD0  3000               	movlw	high(07Ah)
  7016  0CD1  1683               	bsf	status, 5	;RP0=1, select bank1
  7017  0CD2  1303               	bcf	status, 6	;RP1=0, select bank1
  7018  0CD3  0269               	subwf	(_value+1)^080h,w
  7019  0CD4  307A               	movlw	low(07Ah)
  7020  0CD5  1903               	skipnz
  7021  0CD6  0268               	subwf	(_value)^080h,w
  7022  0CD7  1C03               	skipc
  7023  0CD8  2CDA               	goto	u2681
  7024  0CD9  2CDB               	goto	u2680
  7025  0CDA                     u2681:
  7026  0CDA  2DF3               	goto	l186
  7027  0CDB                     u2680:
  7028                           opt subtitle "HI-TECH Software Omniscient Code Generator (Lite mode) build 49521"
  7029  0CDB                     l3164:	
  7030  0CDB  1283               	bcf	status, 5	;RP0=0, select bank0
  7031  0CDC  1303               	bcf	status, 6	;RP1=0, select bank0
  7032  0CDD  0853               	movf	(_charge_pulse+1),w
  7033  0CDE  0452               	iorwf	(_charge_pulse),w
  7034  0CDF  1903               	skipnz
  7035  0CE0  2CE2               	goto	u2691
  7036  0CE1  2CE3               	goto	u2690
  7037  0CE2                     u2691:
  7038  0CE2  2DF3               	goto	l186
  7039  0CE3                     u2690:
  7040                           opt subtitle "HI-TECH Software Omniscient Code Generator (Lite mode) build 49521"
  7041  0CE3                     l3166:	
  7042  0CE3  1A88               	btfsc	(8),5	;volatile
  7043  0CE4  2CE6               	goto	u2701
  7044  0CE5  2CE7               	goto	u2700
  7045  0CE6                     u2701:
  7046  0CE6  2DF3               	goto	l186
  7047  0CE7                     u2700:
  7048                           opt subtitle "HI-TECH Software Omniscient Code Generator (Lite mode) build 49521"
  7049                           
  7050  0CE7                     l3168:	
  7051                           opt subtitle "HI-TECH Software Omniscient Code Generator (Lite mode) build 49521"
  7052  0CE7  1283               	bcf	status, 5	;RP0=0, select bank2
  7053  0CE8  1703               	bsf	status, 6	;RP1=1, select bank2
  7054  0CE9  0194               	clrf	(276)^0100h	;volatile
  7055                           opt subtitle "HI-TECH Software Omniscient Code Generator (Lite mode) build 49521"
  7056                           
  7057  0CEA                     l3170:	
  7058                           opt subtitle "HI-TECH Software Omniscient Code Generator (Lite mode) build 49521"
  7059  0CEA  30A0               	movlw	(0A0h)
  7060  0CEB  0093               	movwf	(275)^0100h	;volatile
  7061                           opt subtitle "HI-TECH Software Omniscient Code Generator (Lite mode) build 49521"
  7062                           
  7063  0CEC                     l3172:	
  7064                           opt subtitle "HI-TECH Software Omniscient Code Generator (Lite mode) build 49521"
  7065  0CEC  1283               	bcf	status, 5	;RP0=0, select bank0
  7066  0CED  1303               	bcf	status, 6	;RP1=0, select bank0
  7067  0CEE  1010               	bcf	(16),0	;volatile
  7068                           opt subtitle "HI-TECH Software Omniscient Code Generator (Lite mode) build 49521"
  7069                           
  7070  0CEF                     l3174:	
  7071                           opt subtitle "HI-TECH Software Omniscient Code Generator (Lite mode) build 49521"
  7072  0CEF  0853               	movf	(_charge_pulse+1),w
  7073  0CF0  00CD               	movwf	(??_sleep+0)+0+1
  7074  0CF1  0852               	movf	(_charge_pulse),w
  7075  0CF2  00CC               	movwf	(??_sleep+0)+0
  7076  0CF3  3002               	movlw	02h
  7077  0CF4  00FF               	movwf	btemp+1
  7078  0CF5                     u2715:
  7079  0CF5  1003               	clrc
  7080  0CF6  0DCC               	rlf	(??_sleep+0)+0,f
  7081  0CF7  0DCD               	rlf	(??_sleep+0)+1,f
  7082  0CF8  0BFF               	decfsz	btemp+1,f
  7083  0CF9  2CF5               	goto	u2715
  7084  0CFA  09CC               	comf	(??_sleep+0)+0,f
  7085  0CFB  09CD               	comf	(??_sleep+0)+1,f
  7086  0CFC  0ACC               	incf	(??_sleep+0)+0,f
  7087  0CFD  1903               	skipnz
  7088  0CFE  0ACD               	incf	(??_sleep+0)+1,f
  7089  0CFF  084C               	movf	0+(??_sleep+0)+0,w
  7090  0D00  00D4               	movwf	(_charge_time)
  7091  0D01  084D               	movf	1+(??_sleep+0)+0,w
  7092  0D02  00D5               	movwf	(_charge_time+1)
  7093                           opt subtitle "HI-TECH Software Omniscient Code Generator (Lite mode) build 49521"
  7094                           
  7095  0D03                     l3176:	
  7096                           opt subtitle "HI-TECH Software Omniscient Code Generator (Lite mode) build 49521"
  7097  0D03  0855               	movf	(_charge_time+1),w
  7098  0D04  008F               	movwf	(15)	;volatile
  7099                           opt subtitle "HI-TECH Software Omniscient Code Generator (Lite mode) build 49521"
  7100                           
  7101  0D05                     l3178:	
  7102                           opt subtitle "HI-TECH Software Omniscient Code Generator (Lite mode) build 49521"
  7103  0D05  0854               	movf	(_charge_time),w
  7104  0D06  008E               	movwf	(14)	;volatile
  7105                           opt subtitle "HI-TECH Software Omniscient Code Generator (Lite mode) build 49521"
  7106                           
  7107  0D07                     l3180:	
  7108                           opt subtitle "HI-TECH Software Omniscient Code Generator (Lite mode) build 49521"
  7109  0D07  1410               	bsf	(16),0	;volatile
  7110                           opt subtitle "HI-TECH Software Omniscient Code Generator (Lite mode) build 49521"
  7111                           
  7112  0D08  0063               sleep ;# 
  7113                           opt subtitle "HI-TECH Software Omniscient Code Generator (Lite mode) build 49521"
  7114                           
  7115                           opt pagewidth 120
  7116  0D09                     l3182:	
  7117                           opt subtitle "HI-TECH Software Omniscient Code Generator (Lite mode) build 49521"
  7118  0D09  1283               	bcf	status, 5	;RP0=0, select bank2
  7119  0D0A  1703               	bsf	status, 6	;RP1=1, select bank2
  7120  0D0B  0193               	clrf	(275)^0100h	;volatile
  7121                           opt subtitle "HI-TECH Software Omniscient Code Generator (Lite mode) build 49521"
  7122                           
  7123  0D0C                     l3184:	
  7124                           opt subtitle "HI-TECH Software Omniscient Code Generator (Lite mode) build 49521"
  7125  0D0C  1283               	bcf	status, 5	;RP0=0, select bank0
  7126  0D0D  1303               	bcf	status, 6	;RP1=0, select bank0
  7127  0D0E  1505               	bsf	(5),2	;volatile
  7128                           opt subtitle "HI-TECH Software Omniscient Code Generator (Lite mode) build 49521"
  7129                           
  7130  0D0F                     l3186:	
  7131                           opt subtitle "HI-TECH Software Omniscient Code Generator (Lite mode) build 49521"
  7132  0D0F  160A  118A  25DD   	fcall	_adcReadVcap
              120A  158A         
  7133  0D14  1283               	bcf	status, 5	;RP0=0, select bank0
  7134  0D15  1303               	bcf	status, 6	;RP1=0, select bank0
  7135  0D16  00CC               	movwf	(??_sleep+0)+0
  7136  0D17  084C               	movf	(??_sleep+0)+0,w
  7137  0D18  00CE               	movwf	(sleep@new_value)
  7138                           opt subtitle "HI-TECH Software Omniscient Code Generator (Lite mode) build 49521"
  7139                           
  7140  0D19                     l3188:	
  7141                           opt subtitle "HI-TECH Software Omniscient Code Generator (Lite mode) build 49521"
  7142  0D19  0954               	comf	(_charge_time),w
  7143  0D1A  00CC               	movwf	(??_sleep+0)+0
  7144  0D1B  0955               	comf	(_charge_time+1),w
  7145  0D1C  00CD               	movwf	((??_sleep+0)+0+1)
  7146  0D1D  0ACC               	incf	(??_sleep+0)+0,f
  7147  0D1E  1903               	skipnz
  7148  0D1F  0ACD               	incf	((??_sleep+0)+0+1),f
  7149  0D20  084C               	movf	0+(??_sleep+0)+0,w
  7150  0D21  3E00               	addlw	low(01000h)
  7151  0D22  00D4               	movwf	(_charge_time)
  7152  0D23  084D               	movf	1+(??_sleep+0)+0,w
  7153  0D24  1803               	skipnc
  7154  0D25  3E01               	addlw	1
  7155  0D26  3E10               	addlw	high(01000h)
  7156  0D27  00D5               	movwf	1+(_charge_time)
  7157                           opt subtitle "HI-TECH Software Omniscient Code Generator (Lite mode) build 49521"
  7158                           
  7159  0D28                     l3190:	
  7160                           opt subtitle "HI-TECH Software Omniscient Code Generator (Lite mode) build 49521"
  7161  0D28  1010               	bcf	(16),0	;volatile
  7162                           opt subtitle "HI-TECH Software Omniscient Code Generator (Lite mode) build 49521"
  7163                           
  7164  0D29                     l3192:	
  7165                           opt subtitle "HI-TECH Software Omniscient Code Generator (Lite mode) build 49521"
  7166  0D29  0855               	movf	(_charge_time+1),w
  7167  0D2A  008F               	movwf	(15)	;volatile
  7168                           opt subtitle "HI-TECH Software Omniscient Code Generator (Lite mode) build 49521"
  7169                           
  7170  0D2B                     l3194:	
  7171                           opt subtitle "HI-TECH Software Omniscient Code Generator (Lite mode) build 49521"
  7172  0D2B  0854               	movf	(_charge_time),w
  7173  0D2C  008E               	movwf	(14)	;volatile
  7174                           opt subtitle "HI-TECH Software Omniscient Code Generator (Lite mode) build 49521"
  7175                           
  7176  0D2D                     l3196:	
  7177                           opt subtitle "HI-TECH Software Omniscient Code Generator (Lite mode) build 49521"
  7178  0D2D  1410               	bsf	(16),0	;volatile
  7179                           opt subtitle "HI-TECH Software Omniscient Code Generator (Lite mode) build 49521"
  7180                           
  7181  0D2E  0063               sleep ;# 
  7182                           opt subtitle "HI-TECH Software Omniscient Code Generator (Lite mode) build 49521"
  7183                           
  7184                           opt pagewidth 120
  7185  0D2F                     l3198:	
  7186                           opt subtitle "HI-TECH Software Omniscient Code Generator (Lite mode) build 49521"
  7187  0D2F  1683               	bsf	status, 5	;RP0=1, select bank1
  7188  0D30  1303               	bcf	status, 6	;RP1=0, select bank1
  7189  0D31  0868               	movf	(_value)^080h,w
  7190  0D32  1283               	bcf	status, 5	;RP0=0, select bank0
  7191  0D33  1303               	bcf	status, 6	;RP1=0, select bank0
  7192  0D34  00CC               	movwf	(??_sleep+0)+0
  7193  0D35  084C               	movf	(??_sleep+0)+0,w
  7194  0D36  1683               	bsf	status, 5	;RP0=1, select bank1
  7195  0D37  1303               	bcf	status, 6	;RP1=0, select bank1
  7196  0D38  00EA               	movwf	(_values)^080h
  7197                           opt subtitle "HI-TECH Software Omniscient Code Generator (Lite mode) build 49521"
  7198                           
  7199  0D39                     l3200:	
  7200                           opt subtitle "HI-TECH Software Omniscient Code Generator (Lite mode) build 49521"
  7201  0D39  1283               	bcf	status, 5	;RP0=0, select bank0
  7202  0D3A  1303               	bcf	status, 6	;RP1=0, select bank0
  7203  0D3B  084E               	movf	(sleep@new_value),w
  7204  0D3C  00CC               	movwf	(??_sleep+0)+0
  7205  0D3D  084C               	movf	(??_sleep+0)+0,w
  7206  0D3E  1683               	bsf	status, 5	;RP0=1, select bank1
  7207  0D3F  1303               	bcf	status, 6	;RP1=0, select bank1
  7208  0D40  00EB               	movwf	0+(_values)^080h+01h
  7209                           opt subtitle "HI-TECH Software Omniscient Code Generator (Lite mode) build 49521"
  7210                           
  7211  0D41                     l3202:	
  7212                           opt subtitle "HI-TECH Software Omniscient Code Generator (Lite mode) build 49521"
  7213  0D41  3059               	movlw	(059h)
  7214  0D42  1283               	bcf	status, 5	;RP0=0, select bank0
  7215  0D43  1303               	bcf	status, 6	;RP1=0, select bank0
  7216  0D44  024E               	subwf	(sleep@new_value),w
  7217  0D45  1C03               	skipc
  7218  0D46  2D48               	goto	u2721
  7219  0D47  2D49               	goto	u2720
  7220  0D48                     u2721:
  7221  0D48  2D9D               	goto	l3208
  7222  0D49                     u2720:
  7223                           opt subtitle "HI-TECH Software Omniscient Code Generator (Lite mode) build 49521"
  7224                           
  7225  0D49                     l3204:	
  7226                           opt subtitle "HI-TECH Software Omniscient Code Generator (Lite mode) build 49521"
  7227  0D49  1683               	bsf	status, 5	;RP0=1, select bank1
  7228  0D4A  1303               	bcf	status, 6	;RP1=0, select bank1
  7229  0D4B  085B               	movf	(_charge_pulse_float)^080h,w
  7230  0D4C  1283               	bcf	status, 5	;RP0=0, select bank0
  7231  0D4D  1303               	bcf	status, 6	;RP1=0, select bank0
  7232  0D4E  00B4               	movwf	(?___ftge)
  7233  0D4F  1683               	bsf	status, 5	;RP0=1, select bank1
  7234  0D50  1303               	bcf	status, 6	;RP1=0, select bank1
  7235  0D51  085C               	movf	(_charge_pulse_float+1)^080h,w
  7236  0D52  1283               	bcf	status, 5	;RP0=0, select bank0
  7237  0D53  1303               	bcf	status, 6	;RP1=0, select bank0
  7238  0D54  00B5               	movwf	(?___ftge+1)
  7239  0D55  1683               	bsf	status, 5	;RP0=1, select bank1
  7240  0D56  1303               	bcf	status, 6	;RP1=0, select bank1
  7241  0D57  085D               	movf	(_charge_pulse_float+2)^080h,w
  7242  0D58  1283               	bcf	status, 5	;RP0=0, select bank0
  7243  0D59  1303               	bcf	status, 6	;RP1=0, select bank0
  7244  0D5A  00B6               	movwf	(?___ftge+2)
  7245  0D5B  3060               	movlw	0x60
  7246  0D5C  00B7               	movwf	0+(?___ftge)+03h
  7247  0D5D  306A               	movlw	0x6a
  7248  0D5E  00B8               	movwf	1+(?___ftge)+03h
  7249  0D5F  3046               	movlw	0x46
  7250  0D60  00B9               	movwf	2+(?___ftge)+03h
  7251  0D61  120A  158A  200D   	fcall	___ftge
              120A  158A         
  7252  0D66  1803               	btfsc	status,0
  7253  0D67  2D69               	goto	u2731
  7254  0D68  2D6A               	goto	u2730
  7255  0D69                     u2731:
  7256  0D69  2DFF               	goto	l192
  7257  0D6A                     u2730:
  7258                           opt subtitle "HI-TECH Software Omniscient Code Generator (Lite mode) build 49521"
  7259                           
  7260  0D6A                     l3206:	
  7261                           opt subtitle "HI-TECH Software Omniscient Code Generator (Lite mode) build 49521"
  7262  0D6A  3066               	movlw	0x66
  7263  0D6B  1283               	bcf	status, 5	;RP0=0, select bank0
  7264  0D6C  1303               	bcf	status, 6	;RP1=0, select bank0
  7265  0D6D  00BC               	movwf	(?___ftmul)
  7266  0D6E  3086               	movlw	0x86
  7267  0D6F  00BD               	movwf	(?___ftmul+1)
  7268  0D70  303F               	movlw	0x3f
  7269  0D71  00BE               	movwf	(?___ftmul+2)
  7270  0D72  1683               	bsf	status, 5	;RP0=1, select bank1
  7271  0D73  1303               	bcf	status, 6	;RP1=0, select bank1
  7272  0D74  085B               	movf	(_charge_pulse_float)^080h,w
  7273  0D75  1283               	bcf	status, 5	;RP0=0, select bank0
  7274  0D76  1303               	bcf	status, 6	;RP1=0, select bank0
  7275  0D77  00BF               	movwf	0+(?___ftmul)+03h
  7276  0D78  1683               	bsf	status, 5	;RP0=1, select bank1
  7277  0D79  1303               	bcf	status, 6	;RP1=0, select bank1
  7278  0D7A  085C               	movf	(_charge_pulse_float+1)^080h,w
  7279  0D7B  1283               	bcf	status, 5	;RP0=0, select bank0
  7280  0D7C  1303               	bcf	status, 6	;RP1=0, select bank0
  7281  0D7D  00C0               	movwf	1+(?___ftmul)+03h
  7282  0D7E  1683               	bsf	status, 5	;RP0=1, select bank1
  7283  0D7F  1303               	bcf	status, 6	;RP1=0, select bank1
  7284  0D80  085D               	movf	(_charge_pulse_float+2)^080h,w
  7285  0D81  1283               	bcf	status, 5	;RP0=0, select bank0
  7286  0D82  1303               	bcf	status, 6	;RP1=0, select bank0
  7287  0D83  00C1               	movwf	2+(?___ftmul)+03h
  7288  0D84  120A  158A  23B2   	fcall	___ftmul
              120A  158A         
  7289  0D89  1283               	bcf	status, 5	;RP0=0, select bank0
  7290  0D8A  1303               	bcf	status, 6	;RP1=0, select bank0
  7291  0D8B  083C               	movf	(0+(?___ftmul)),w
  7292  0D8C  1683               	bsf	status, 5	;RP0=1, select bank1
  7293  0D8D  1303               	bcf	status, 6	;RP1=0, select bank1
  7294  0D8E  00DB               	movwf	(_charge_pulse_float)^080h
  7295  0D8F  1283               	bcf	status, 5	;RP0=0, select bank0
  7296  0D90  1303               	bcf	status, 6	;RP1=0, select bank0
  7297  0D91  083D               	movf	(1+(?___ftmul)),w
  7298  0D92  1683               	bsf	status, 5	;RP0=1, select bank1
  7299  0D93  1303               	bcf	status, 6	;RP1=0, select bank1
  7300  0D94  00DC               	movwf	(_charge_pulse_float+1)^080h
  7301  0D95  1283               	bcf	status, 5	;RP0=0, select bank0
  7302  0D96  1303               	bcf	status, 6	;RP1=0, select bank0
  7303  0D97  083E               	movf	(2+(?___ftmul)),w
  7304  0D98  1683               	bsf	status, 5	;RP0=1, select bank1
  7305  0D99  1303               	bcf	status, 6	;RP1=0, select bank1
  7306  0D9A  00DD               	movwf	(_charge_pulse_float+2)^080h
  7307  0D9B  2DFF               	goto	l192
  7308                           opt subtitle "HI-TECH Software Omniscient Code Generator (Lite mode) build 49521"
  7309  0D9C                     l188:	
  7310                           opt subtitle "HI-TECH Software Omniscient Code Generator (Lite mode) build 49521"
  7311                           
  7312  0D9C  2DFF               	goto	l192
  7313                           opt subtitle "HI-TECH Software Omniscient Code Generator (Lite mode) build 49521"
  7314                           
  7315  0D9D                     l187:	
  7316                           opt subtitle "HI-TECH Software Omniscient Code Generator (Lite mode) build 49521"
  7317                           
  7318  0D9D                     l3208:	
  7319                           opt subtitle "HI-TECH Software Omniscient Code Generator (Lite mode) build 49521"
  7320                           
  7321  0D9D  3000               	movlw	0x0
  7322  0D9E  1283               	bcf	status, 5	;RP0=0, select bank0
  7323  0D9F  00B4               	movwf	(?___ftge)
  7324  0DA0  3000               	movlw	0x0
  7325  0DA1  00B5               	movwf	(?___ftge+1)
  7326  0DA2  3000               	movlw	0x0
  7327  0DA3  00B6               	movwf	(?___ftge+2)
  7328  0DA4  1683               	bsf	status, 5	;RP0=1, select bank1
  7329  0DA5  1303               	bcf	status, 6	;RP1=0, select bank1
  7330  0DA6  085B               	movf	(_charge_pulse_float)^080h,w
  7331  0DA7  1283               	bcf	status, 5	;RP0=0, select bank0
  7332  0DA8  1303               	bcf	status, 6	;RP1=0, select bank0
  7333  0DA9  00B7               	movwf	0+(?___ftge)+03h
  7334  0DAA  1683               	bsf	status, 5	;RP0=1, select bank1
  7335  0DAB  1303               	bcf	status, 6	;RP1=0, select bank1
  7336  0DAC  085C               	movf	(_charge_pulse_float+1)^080h,w
  7337  0DAD  1283               	bcf	status, 5	;RP0=0, select bank0
  7338  0DAE  1303               	bcf	status, 6	;RP1=0, select bank0
  7339  0DAF  00B8               	movwf	1+(?___ftge)+03h
  7340  0DB0  1683               	bsf	status, 5	;RP0=1, select bank1
  7341  0DB1  1303               	bcf	status, 6	;RP1=0, select bank1
  7342  0DB2  085D               	movf	(_charge_pulse_float+2)^080h,w
  7343  0DB3  1283               	bcf	status, 5	;RP0=0, select bank0
  7344  0DB4  1303               	bcf	status, 6	;RP1=0, select bank0
  7345  0DB5  00B9               	movwf	2+(?___ftge)+03h
  7346  0DB6  120A  158A  200D   	fcall	___ftge
              120A  158A         
  7347  0DBB  1803               	btfsc	status,0
  7348  0DBC  2DBE               	goto	u2741
  7349  0DBD  2DBF               	goto	u2740
  7350  0DBE                     u2741:
  7351  0DBE  2DFF               	goto	l192
  7352  0DBF                     u2740:
  7353                           opt subtitle "HI-TECH Software Omniscient Code Generator (Lite mode) build 49521"
  7354                           
  7355  0DBF                     l3210:	
  7356                           opt subtitle "HI-TECH Software Omniscient Code Generator (Lite mode) build 49521"
  7357  0DBF  3066               	movlw	0x66
  7358  0DC0  1283               	bcf	status, 5	;RP0=0, select bank0
  7359  0DC1  1303               	bcf	status, 6	;RP1=0, select bank0
  7360  0DC2  00BC               	movwf	(?___ftdiv)
  7361  0DC3  3086               	movlw	0x86
  7362  0DC4  00BD               	movwf	(?___ftdiv+1)
  7363  0DC5  303F               	movlw	0x3f
  7364  0DC6  00BE               	movwf	(?___ftdiv+2)
  7365  0DC7  1683               	bsf	status, 5	;RP0=1, select bank1
  7366  0DC8  1303               	bcf	status, 6	;RP1=0, select bank1
  7367  0DC9  085B               	movf	(_charge_pulse_float)^080h,w
  7368  0DCA  1283               	bcf	status, 5	;RP0=0, select bank0
  7369  0DCB  1303               	bcf	status, 6	;RP1=0, select bank0
  7370  0DCC  00BF               	movwf	0+(?___ftdiv)+03h
  7371  0DCD  1683               	bsf	status, 5	;RP0=1, select bank1
  7372  0DCE  1303               	bcf	status, 6	;RP1=0, select bank1
  7373  0DCF  085C               	movf	(_charge_pulse_float+1)^080h,w
  7374  0DD0  1283               	bcf	status, 5	;RP0=0, select bank0
  7375  0DD1  1303               	bcf	status, 6	;RP1=0, select bank0
  7376  0DD2  00C0               	movwf	1+(?___ftdiv)+03h
  7377  0DD3  1683               	bsf	status, 5	;RP0=1, select bank1
  7378  0DD4  1303               	bcf	status, 6	;RP1=0, select bank1
  7379  0DD5  085D               	movf	(_charge_pulse_float+2)^080h,w
  7380  0DD6  1283               	bcf	status, 5	;RP0=0, select bank0
  7381  0DD7  1303               	bcf	status, 6	;RP1=0, select bank0
  7382  0DD8  00C1               	movwf	2+(?___ftdiv)+03h
  7383  0DD9  120A  158A  2216   	fcall	___ftdiv
              120A  158A         
  7384  0DDE  1283               	bcf	status, 5	;RP0=0, select bank0
  7385  0DDF  1303               	bcf	status, 6	;RP1=0, select bank0
  7386  0DE0  083C               	movf	(0+(?___ftdiv)),w
  7387  0DE1  1683               	bsf	status, 5	;RP0=1, select bank1
  7388  0DE2  1303               	bcf	status, 6	;RP1=0, select bank1
  7389  0DE3  00DB               	movwf	(_charge_pulse_float)^080h
  7390  0DE4  1283               	bcf	status, 5	;RP0=0, select bank0
  7391  0DE5  1303               	bcf	status, 6	;RP1=0, select bank0
  7392  0DE6  083D               	movf	(1+(?___ftdiv)),w
  7393  0DE7  1683               	bsf	status, 5	;RP0=1, select bank1
  7394  0DE8  1303               	bcf	status, 6	;RP1=0, select bank1
  7395  0DE9  00DC               	movwf	(_charge_pulse_float+1)^080h
  7396  0DEA  1283               	bcf	status, 5	;RP0=0, select bank0
  7397  0DEB  1303               	bcf	status, 6	;RP1=0, select bank0
  7398  0DEC  083E               	movf	(2+(?___ftdiv)),w
  7399  0DED  1683               	bsf	status, 5	;RP0=1, select bank1
  7400  0DEE  1303               	bcf	status, 6	;RP1=0, select bank1
  7401  0DEF  00DD               	movwf	(_charge_pulse_float+2)^080h
  7402  0DF0  2DFF               	goto	l192
  7403                           opt subtitle "HI-TECH Software Omniscient Code Generator (Lite mode) build 49521"
  7404  0DF1                     l190:	
  7405  0DF1  2DFF               	goto	l192
  7406                           opt subtitle "HI-TECH Software Omniscient Code Generator (Lite mode) build 49521"
  7407                           
  7408  0DF2                     l189:	
  7409                           opt subtitle "HI-TECH Software Omniscient Code Generator (Lite mode) build 49521"
  7410                           
  7411                           opt pagewidth 120
  7412  0DF2  2DFF               	goto	l192
  7413                           opt subtitle "HI-TECH Software Omniscient Code Generator (Lite mode) build 49521"
  7414                           
  7415  0DF3                     l186:	
  7416                           opt subtitle "HI-TECH Software Omniscient Code Generator (Lite mode) build 49521"
  7417                           
  7418                           opt pagewidth 120
  7419  0DF3  1283               	bcf	status, 5	;RP0=0, select bank0
  7420  0DF4  1010               	bcf	(16),0	;volatile
  7421                           opt subtitle "HI-TECH Software Omniscient Code Generator (Lite mode) build 49521"
  7422                           
  7423  0DF5                     l3212:	
  7424                           opt subtitle "HI-TECH Software Omniscient Code Generator (Lite mode) build 49521"
  7425  0DF5  3010               	movlw	(010h)
  7426  0DF6  008F               	movwf	(15)	;volatile
  7427                           opt subtitle "HI-TECH Software Omniscient Code Generator (Lite mode) build 49521"
  7428                           
  7429  0DF7                     l3214:	
  7430                           opt subtitle "HI-TECH Software Omniscient Code Generator (Lite mode) build 49521"
  7431  0DF7  018E               	clrf	(14)	;volatile
  7432                           opt subtitle "HI-TECH Software Omniscient Code Generator (Lite mode) build 49521"
  7433                           
  7434  0DF8                     l3216:	
  7435                           opt subtitle "HI-TECH Software Omniscient Code Generator (Lite mode) build 49521"
  7436  0DF8  1410               	bsf	(16),0	;volatile
  7437                           opt subtitle "HI-TECH Software Omniscient Code Generator (Lite mode) build 49521"
  7438                           
  7439  0DF9  0063               sleep ;# 
  7440                           opt subtitle "HI-TECH Software Omniscient Code Generator (Lite mode) build 49521"
  7441                           
  7442                           opt pagewidth 120
  7443  0DFA                     l3218:	
  7444                           opt subtitle "HI-TECH Software Omniscient Code Generator (Lite mode) build 49521"
  7445  0DFA  1683               	bsf	status, 5	;RP0=1, select bank1
  7446  0DFB  1303               	bcf	status, 6	;RP1=0, select bank1
  7447  0DFC  01EA               	clrf	(_values)^080h
  7448                           opt subtitle "HI-TECH Software Omniscient Code Generator (Lite mode) build 49521"
  7449                           
  7450  0DFD                     l3220:	
  7451                           opt subtitle "HI-TECH Software Omniscient Code Generator (Lite mode) build 49521"
  7452  0DFD  01EB               	clrf	0+(_values)^080h+01h
  7453  0DFE  2DFF               	goto	l192
  7454                           opt subtitle "HI-TECH Software Omniscient Code Generator (Lite mode) build 49521"
  7455                           
  7456  0DFF                     l191:	
  7457                           opt subtitle "HI-TECH Software Omniscient Code Generator (Lite mode) build 49521"
  7458                           
  7459  0DFF                     l192:	
  7460  0DFF  0008               	return
  7461                           opt subtitle "HI-TECH Software Omniscient Code Generator (Lite mode) build 49521"
  7462                           
  7463  0E00                     	__end_of_sleep:
  7464                           opt subtitle "HI-TECH Software Omniscient Code Generator (Lite mode) build 49521"
  7465                           
  7466                           opt pagewidth 120
  7467                           
  7468                           	opt lm
  7469                           
  7470                           	processor	16LF707
  7471                           clrc	macro
  7472                           	bcf	3,0
  7473                           	endm
  7474                           clrz	macro
  7475                           	bcf	3,2
  7476                           	endm
  7477                           setc	macro
  7478                           	bsf	3,0
  7479                           	endm
  7480                           setz	macro
  7481                           	bsf	3,2
  7482                           	endm
  7483                           skipc	macro
  7484                           	btfss	3,0
  7485                           	endm
  7486                           skipz	macro
  7487                           	btfss	3,2
  7488                           	endm
  7489                           skipnc	macro
  7490                           	btfsc	3,0
  7491                           	endm
  7492                           skipnz	macro
  7493                           	btfsc	3,2
  7494                           	endm
  7495                           indf	equ	0
  7496                           indf0	equ	0
  7497                           pc	equ	2
  7498                           pcl	equ	2
  7499  15DD                     __ptext1184:	;psect for function _adcReadVcap
  7500                           opt subtitle "HI-TECH Software Omniscient Code Generator (Lite mode) build 49521"
  7501                           
  7502                           opt pagewidth 120
  7503                           
  7504  002B                     	__size_of_adcReadVcap	equ	__end_of_adcReadVcap-_adcReadVcap
  7505                           opt subtitle "HI-TECH Software Omniscient Code Generator (Lite mode) build 49521"
  7506  15DD                     _adcReadVcap:	
  7507                           opt subtitle "HI-TECH Software Omniscient Code Generator (Lite mode) build 49521"
  7508                           
  7509                           opt pagewidth 120
  7510                           
  7511  15DD                     l2928:	
  7512                           opt subtitle "HI-TECH Software Omniscient Code Generator (Lite mode) build 49521"
  7513                           
  7514  15DD  1283               	bcf	status, 5	;RP0=0, select bank0
  7515  15DE  1303               	bcf	status, 6	;RP1=0, select bank0
  7516  15DF  081F               	movf	(31),w	;volatile
  7517  15E0  39C3               	andlw	not (((1<<4)-1)<<2)
  7518  15E1  3814               	iorlw	(05h & ((1<<4)-1))<<2
  7519  15E2  009F               	movwf	(31)	;volatile
  7520                           opt subtitle "HI-TECH Software Omniscient Code Generator (Lite mode) build 49521"
  7521                           
  7522  15E3  1683               	bsf	status, 5	;RP0=1, select bank1
  7523  15E4  1303               	bcf	status, 6	;RP1=0, select bank1
  7524  15E5  081D               	movf	(157)^080h,w	;volatile
  7525  15E6  39FC               	andlw	not (((1<<2)-1)<<0)
  7526  15E7  3802               	iorlw	(02h & ((1<<2)-1))<<0
  7527  15E8  009D               	movwf	(157)^080h	;volatile
  7528                           opt subtitle "HI-TECH Software Omniscient Code Generator (Lite mode) build 49521"
  7529                           
  7530  15E9                     l2930:	
  7531                           opt subtitle "HI-TECH Software Omniscient Code Generator (Lite mode) build 49521"
  7532  15E9  1283               	bcf	status, 5	;RP0=0, select bank0
  7533  15EA  1303               	bcf	status, 6	;RP1=0, select bank0
  7534  15EB  141F               	bsf	(31),0	;volatile
  7535                           opt subtitle "HI-TECH Software Omniscient Code Generator (Lite mode) build 49521"
  7536                           
  7537  15EC                     l2932:	
  7538                           opt subtitle "HI-TECH Software Omniscient Code Generator (Lite mode) build 49521"
  7539  15EC  1588               	bsf	(8),3	;volatile
  7540                           opt subtitle "HI-TECH Software Omniscient Code Generator (Lite mode) build 49521"
  7541                           
  7542  15ED                     l2934:	
  7543                           opt subtitle "HI-TECH Software Omniscient Code Generator (Lite mode) build 49521"
  7544                           
  7545  15ED  3003               movlw	3
  7546  15EE  00B5               movwf	((??_adcReadVcap+0)+0+1),f
  7547  15EF  3097               	movlw	151
  7548  15F0  00B4               movwf	((??_adcReadVcap+0)+0),f
  7549  15F1                     u4787:
  7550  15F1  0BB4               	decfsz	((??_adcReadVcap+0)+0),f
  7551  15F2  2DF1               	goto	u4787
  7552  15F3  0BB5               	decfsz	((??_adcReadVcap+0)+0+1),f
  7553  15F4  2DF1               	goto	u4787
  7554  15F5  2DF6               	nop2
  7555                           opt subtitle "HI-TECH Software Omniscient Code Generator (Lite mode) build 49521"
  7556                           
  7557                           opt pagewidth 120
  7558                           
  7559  15F6                     l2936:	
  7560                           opt subtitle "HI-TECH Software Omniscient Code Generator (Lite mode) build 49521"
  7561  15F6  1283               	bcf	status, 5	;RP0=0, select bank0
  7562  15F7  1303               	bcf	status, 6	;RP1=0, select bank0
  7563  15F8  149F               	bsf	(31),1	;volatile
  7564                           opt subtitle "HI-TECH Software Omniscient Code Generator (Lite mode) build 49521"
  7565                           
  7566  15F9  2DFA               	goto	l201
  7567                           opt subtitle "HI-TECH Software Omniscient Code Generator (Lite mode) build 49521"
  7568  15FA                     l202:	
  7569                           opt subtitle "HI-TECH Software Omniscient Code Generator (Lite mode) build 49521"
  7570  15FA                     l201:	
  7571  15FA  189F               	btfsc	(31),1	;volatile
  7572  15FB  2DFD               	goto	u2301
  7573  15FC  2DFE               	goto	u2300
  7574  15FD                     u2301:
  7575  15FD  2DFA               	goto	l201
  7576  15FE                     u2300:
  7577  15FE  2DFF               	goto	l2938
  7578                           opt subtitle "HI-TECH Software Omniscient Code Generator (Lite mode) build 49521"
  7579  15FF                     l203:	
  7580                           opt subtitle "HI-TECH Software Omniscient Code Generator (Lite mode) build 49521"
  7581                           
  7582  15FF                     l2938:	
  7583                           opt subtitle "HI-TECH Software Omniscient Code Generator (Lite mode) build 49521"
  7584  15FF  081E               	movf	(30),w	;volatile
  7585  1600  00B4               	movwf	(??_adcReadVcap+0)+0
  7586  1601  0834               	movf	(??_adcReadVcap+0)+0,w
  7587  1602  00B6               	movwf	(adcReadVcap@value)
  7588                           opt subtitle "HI-TECH Software Omniscient Code Generator (Lite mode) build 49521"
  7589                           
  7590  1603                     l2940:	
  7591                           opt subtitle "HI-TECH Software Omniscient Code Generator (Lite mode) build 49521"
  7592  1603  101F               	bcf	(31),0	;volatile
  7593                           opt subtitle "HI-TECH Software Omniscient Code Generator (Lite mode) build 49521"
  7594                           
  7595  1604                     l2942:	
  7596                           opt subtitle "HI-TECH Software Omniscient Code Generator (Lite mode) build 49521"
  7597  1604  1188               	bcf	(8),3	;volatile
  7598                           opt subtitle "HI-TECH Software Omniscient Code Generator (Lite mode) build 49521"
  7599                           
  7600  1605  0836               	movf	(adcReadVcap@value),w
  7601  1606  2E07               	goto	l204
  7602                           opt subtitle "HI-TECH Software Omniscient Code Generator (Lite mode) build 49521"
  7603  1607                     l2944:	
  7604                           opt subtitle "HI-TECH Software Omniscient Code Generator (Lite mode) build 49521"
  7605                           
  7606  1607                     l204:	
  7607  1607  0008               	return
  7608                           opt subtitle "HI-TECH Software Omniscient Code Generator (Lite mode) build 49521"
  7609                           
  7610  1608                     	__end_of_adcReadVcap:
  7611                           opt subtitle "HI-TECH Software Omniscient Code Generator (Lite mode) build 49521"
  7612                           
  7613                           opt pagewidth 120
  7614                           
  7615                           	opt lm
  7616                           
  7617                           	processor	16LF707
  7618                           clrc	macro
  7619                           	bcf	3,0
  7620                           	endm
  7621                           clrz	macro
  7622                           	bcf	3,2
  7623                           	endm
  7624                           setc	macro
  7625                           	bsf	3,0
  7626                           	endm
  7627                           setz	macro
  7628                           	bsf	3,2
  7629                           	endm
  7630                           skipc	macro
  7631                           	btfss	3,0
  7632                           	endm
  7633                           skipz	macro
  7634                           	btfss	3,2
  7635                           	endm
  7636                           skipnc	macro
  7637                           	btfsc	3,0
  7638                           	endm
  7639                           skipnz	macro
  7640                           	btfsc	3,2
  7641                           	endm
  7642                           indf	equ	0
  7643                           indf0	equ	0
  7644                           pc	equ	2
  7645                           pcl	equ	2
  7646                           status	equ	3
  7647  1633                     __ptext1185:	;psect for function _SwitchCFG
  7648                           opt subtitle "HI-TECH Software Omniscient Code Generator (Lite mode) build 49521"
  7649                           
  7650                           opt pagewidth 120
  7651                           
  7652  0032                     	__size_of_SwitchCFG	equ	__end_of_SwitchCFG-_SwitchCFG
  7653                           opt subtitle "HI-TECH Software Omniscient Code Generator (Lite mode) build 49521"
  7654  1633                     _SwitchCFG:	
  7655                           opt subtitle "HI-TECH Software Omniscient Code Generator (Lite mode) build 49521"
  7656                           
  7657                           opt pagewidth 120
  7658                           
  7659  1633  1283               	bcf	status, 5	;RP0=0, select bank0
  7660  1634  1303               	bcf	status, 6	;RP1=0, select bank0
  7661  1635  00BB               	movwf	(SwitchCFG@_cfg)
  7662                           opt subtitle "HI-TECH Software Omniscient Code Generator (Lite mode) build 49521"
  7663  1636                     l4536:	
  7664                           opt subtitle "HI-TECH Software Omniscient Code Generator (Lite mode) build 49521"
  7665                           
  7666  1636  3007               	movlw	(07h)
  7667  1637  160A  118A  250D   	fcall	_SPI_Read_Reg
              160A  118A         
  7668  163C  1283               	bcf	status, 5	;RP0=0, select bank0
  7669  163D  1303               	bcf	status, 6	;RP1=0, select bank0
  7670  163E  00BA               	movwf	(??_SwitchCFG+0)+0
  7671  163F  083A               	movf	(??_SwitchCFG+0)+0,w
  7672  1640  00BC               	movwf	(SwitchCFG@Tmp)
  7673                           opt subtitle "HI-TECH Software Omniscient Code Generator (Lite mode) build 49521"
  7674                           
  7675  1641                     l4538:	
  7676                           opt subtitle "HI-TECH Software Omniscient Code Generator (Lite mode) build 49521"
  7677  1641  083C               	movf	(SwitchCFG@Tmp),w
  7678  1642  3980               	andlw	080h
  7679  1643  00BA               	movwf	(??_SwitchCFG+0)+0
  7680  1644  083A               	movf	(??_SwitchCFG+0)+0,w
  7681  1645  00BC               	movwf	(SwitchCFG@Tmp)
  7682                           opt subtitle "HI-TECH Software Omniscient Code Generator (Lite mode) build 49521"
  7683                           
  7684  1646                     l4540:	
  7685                           opt subtitle "HI-TECH Software Omniscient Code Generator (Lite mode) build 49521"
  7686                           
  7687  1646  083C               	movf	(SwitchCFG@Tmp),w
  7688  1647  1D03               	skipz
  7689  1648  2E4A               	goto	u4540
  7690  1649  2E4F               	goto	l4544
  7691  164A                     u4540:
  7692                           opt subtitle "HI-TECH Software Omniscient Code Generator (Lite mode) build 49521"
  7693  164A                     l4542:	
  7694  164A  083B               	movf	(SwitchCFG@_cfg),w
  7695  164B  1D03               	skipz
  7696  164C  2E4E               	goto	u4550
  7697  164D  2E59               	goto	l4548
  7698  164E                     u4550:
  7699  164E  2E4F               	goto	l4544
  7700                           opt subtitle "HI-TECH Software Omniscient Code Generator (Lite mode) build 49521"
  7701  164F                     l331:	
  7702                           opt subtitle "HI-TECH Software Omniscient Code Generator (Lite mode) build 49521"
  7703  164F                     l4544:	
  7704  164F  08BC               	movf	(SwitchCFG@Tmp),f
  7705  1650  1D03               	skipz
  7706  1651  2E53               	goto	u4561
  7707  1652  2E54               	goto	u4560
  7708  1653                     u4561:
  7709  1653  2E64               	goto	l332
  7710  1654                     u4560:
  7711                           opt subtitle "HI-TECH Software Omniscient Code Generator (Lite mode) build 49521"
  7712  1654                     l4546:	
  7713  1654  083B               	movf	(SwitchCFG@_cfg),w
  7714  1655  1D03               	skipz
  7715  1656  2E58               	goto	u4570
  7716  1657  2E64               	goto	l332
  7717  1658                     u4570:
  7718  1658  2E59               	goto	l4548
  7719                           opt subtitle "HI-TECH Software Omniscient Code Generator (Lite mode) build 49521"
  7720  1659                     l329:	
  7721                           opt subtitle "HI-TECH Software Omniscient Code Generator (Lite mode) build 49521"
  7722                           
  7723  1659                     l4548:	
  7724                           opt subtitle "HI-TECH Software Omniscient Code Generator (Lite mode) build 49521"
  7725                           
  7726  1659  3053               	movlw	(053h)
  7727  165A  00BA               	movwf	(??_SwitchCFG+0)+0
  7728  165B  083A               	movf	(??_SwitchCFG+0)+0,w
  7729  165C  00B7               	movwf	(?_SPI_Write_Reg)
  7730  165D  3050               	movlw	(050h)
  7731  165E  160A  118A  24B0   	fcall	_SPI_Write_Reg
              160A  118A         
  7732  1663  2E64               	goto	l332
  7733                           opt subtitle "HI-TECH Software Omniscient Code Generator (Lite mode) build 49521"
  7734                           
  7735  1664                     l327:	
  7736                           opt subtitle "HI-TECH Software Omniscient Code Generator (Lite mode) build 49521"
  7737                           
  7738  1664                     l332:	
  7739  1664  0008               	return
  7740                           opt subtitle "HI-TECH Software Omniscient Code Generator (Lite mode) build 49521"
  7741                           
  7742  1665                     	__end_of_SwitchCFG:
  7743                           opt subtitle "HI-TECH Software Omniscient Code Generator (Lite mode) build 49521"
  7744                           
  7745                           opt pagewidth 120
  7746                           
  7747                           	opt lm
  7748                           
  7749                           	processor	16LF707
  7750                           clrc	macro
  7751                           	bcf	3,0
  7752                           	endm
  7753                           clrz	macro
  7754                           	bcf	3,2
  7755                           	endm
  7756                           setc	macro
  7757                           	bsf	3,0
  7758                           	endm
  7759                           setz	macro
  7760                           	bsf	3,2
  7761                           	endm
  7762                           skipc	macro
  7763                           	btfss	3,0
  7764                           	endm
  7765                           skipz	macro
  7766                           	btfss	3,2
  7767                           	endm
  7768                           skipnc	macro
  7769                           	btfsc	3,0
  7770                           	endm
  7771                           skipnz	macro
  7772                           	btfsc	3,2
  7773                           	endm
  7774                           indf	equ	0
  7775                           indf0	equ	0
  7776                           pc	equ	2
  7777                           pcl	equ	2
  7778                           status	equ	3
  7779                           fsr	equ	4
  7780                           fsr0	equ	4
  7781                           c	equ	1
  7782                           z	equ	0
  7783                           pclath	equ	10
  7784                           # 46 "/Applications/microchip/xc8/v1.12/include/pic16lf707.h"
  7785                           INDF equ 00h ;# 
  7786                           # 52 "/Applications/microchip/xc8/v1.12/include/pic16lf707.h"
  7787  14B0                     __ptext1186:	;psect for function _SPI_Write_Reg
  7788                           opt subtitle "HI-TECH Software Omniscient Code Generator (Lite mode) build 49521"
  7789                           
  7790                           opt pagewidth 120
  7791                           
  7792  0016                     	__size_of_SPI_Write_Reg	equ	__end_of_SPI_Write_Reg-_SPI_Write_Reg
  7793                           opt subtitle "HI-TECH Software Omniscient Code Generator (Lite mode) build 49521"
  7794  14B0                     _SPI_Write_Reg:	
  7795                           opt subtitle "HI-TECH Software Omniscient Code Generator (Lite mode) build 49521"
  7796                           
  7797                           opt pagewidth 120
  7798  14B0  1283               	bcf	status, 5	;RP0=0, select bank0
  7799  14B1  1303               	bcf	status, 6	;RP1=0, select bank0
  7800  14B2  00B8               	movwf	(SPI_Write_Reg@reg)
  7801                           opt subtitle "HI-TECH Software Omniscient Code Generator (Lite mode) build 49521"
  7802                           
  7803  14B3                     l4524:	
  7804                           opt subtitle "HI-TECH Software Omniscient Code Generator (Lite mode) build 49521"
  7805  14B3  1108               	bcf	(8),2	;volatile
  7806                           opt subtitle "HI-TECH Software Omniscient Code Generator (Lite mode) build 49521"
  7807                           
  7808  14B4                     l4526:	
  7809                           opt subtitle "HI-TECH Software Omniscient Code Generator (Lite mode) build 49521"
  7810  14B4  0838               	movf	(SPI_Write_Reg@reg),w
  7811  14B5  160A  118A  24F4   	fcall	_SPI_RW
              160A  118A         
  7812                           opt subtitle "HI-TECH Software Omniscient Code Generator (Lite mode) build 49521"
  7813                           
  7814  14BA  1283               	bcf	status, 5	;RP0=0, select bank0
  7815  14BB  1303               	bcf	status, 6	;RP1=0, select bank0
  7816  14BC  0837               	movf	(SPI_Write_Reg@value),w
  7817  14BD  160A  118A  24F4   	fcall	_SPI_RW
              160A  118A         
  7818                           opt subtitle "HI-TECH Software Omniscient Code Generator (Lite mode) build 49521"
  7819                           
  7820  14C2                     l4528:	
  7821                           opt subtitle "HI-TECH Software Omniscient Code Generator (Lite mode) build 49521"
  7822  14C2  1283               	bcf	status, 5	;RP0=0, select bank0
  7823  14C3  1303               	bcf	status, 6	;RP1=0, select bank0
  7824  14C4  1508               	bsf	(8),2	;volatile
  7825                           opt subtitle "HI-TECH Software Omniscient Code Generator (Lite mode) build 49521"
  7826                           
  7827  14C5                     l303:	
  7828  14C5  0008               	return
  7829                           opt subtitle "HI-TECH Software Omniscient Code Generator (Lite mode) build 49521"
  7830                           
  7831  14C6                     	__end_of_SPI_Write_Reg:
  7832                           opt subtitle "HI-TECH Software Omniscient Code Generator (Lite mode) build 49521"
  7833                           
  7834                           opt pagewidth 120
  7835                           
  7836                           	opt lm
  7837                           
  7838                           	processor	16LF707
  7839                           clrc	macro
  7840                           	bcf	3,0
  7841                           	endm
  7842                           clrz	macro
  7843                           	bcf	3,2
  7844                           	endm
  7845                           setc	macro
  7846                           	bsf	3,0
  7847                           	endm
  7848                           setz	macro
  7849                           	bsf	3,2
  7850                           	endm
  7851                           skipc	macro
  7852                           	btfss	3,0
  7853                           	endm
  7854                           skipz	macro
  7855                           	btfss	3,2
  7856                           	endm
  7857                           skipnc	macro
  7858                           	btfsc	3,0
  7859                           	endm
  7860                           skipnz	macro
  7861                           	btfsc	3,2
  7862                           	endm
  7863                           indf	equ	0
  7864                           indf0	equ	0
  7865                           pc	equ	2
  7866                           pcl	equ	2
  7867                           status	equ	3
  7868                           fsr	equ	4
  7869                           fsr0	equ	4
  7870                           c	equ	1
  7871                           z	equ	0
  7872                           pclath	equ	10
  7873                           # 46 "/Applications/microchip/xc8/v1.12/include/pic16lf707.h"
  7874                           INDF equ 00h ;# 
  7875                           # 52 "/Applications/microchip/xc8/v1.12/include/pic16lf707.h"
  7876  150D                     __ptext1187:	;psect for function _SPI_Read_Reg
  7877                           opt subtitle "HI-TECH Software Omniscient Code Generator (Lite mode) build 49521"
  7878                           
  7879                           opt pagewidth 120
  7880                           
  7881  0019                     	__size_of_SPI_Read_Reg	equ	__end_of_SPI_Read_Reg-_SPI_Read_Reg
  7882                           opt subtitle "HI-TECH Software Omniscient Code Generator (Lite mode) build 49521"
  7883  150D                     _SPI_Read_Reg:	
  7884                           opt subtitle "HI-TECH Software Omniscient Code Generator (Lite mode) build 49521"
  7885                           
  7886                           opt pagewidth 120
  7887                           
  7888  150D  1283               	bcf	status, 5	;RP0=0, select bank0
  7889  150E  1303               	bcf	status, 6	;RP1=0, select bank0
  7890  150F  00B8               	movwf	(SPI_Read_Reg@reg)
  7891                           opt subtitle "HI-TECH Software Omniscient Code Generator (Lite mode) build 49521"
  7892  1510                     l4402:	
  7893                           opt subtitle "HI-TECH Software Omniscient Code Generator (Lite mode) build 49521"
  7894                           
  7895  1510  1108               	bcf	(8),2	;volatile
  7896                           opt subtitle "HI-TECH Software Omniscient Code Generator (Lite mode) build 49521"
  7897                           
  7898  1511                     l4404:	
  7899                           opt subtitle "HI-TECH Software Omniscient Code Generator (Lite mode) build 49521"
  7900  1511  0838               	movf	(SPI_Read_Reg@reg),w
  7901  1512  160A  118A  24F4   	fcall	_SPI_RW
              160A  118A         
  7902                           opt subtitle "HI-TECH Software Omniscient Code Generator (Lite mode) build 49521"
  7903                           
  7904  1517                     l4406:	
  7905                           opt subtitle "HI-TECH Software Omniscient Code Generator (Lite mode) build 49521"
  7906  1517  3000               	movlw	(0)
  7907  1518  160A  118A  24F4   	fcall	_SPI_RW
              160A  118A         
  7908  151D  1283               	bcf	status, 5	;RP0=0, select bank0
  7909  151E  1303               	bcf	status, 6	;RP1=0, select bank0
  7910  151F  00B7               	movwf	(??_SPI_Read_Reg+0)+0
  7911  1520  0837               	movf	(??_SPI_Read_Reg+0)+0,w
  7912  1521  00B9               	movwf	(SPI_Read_Reg@value)
  7913                           opt subtitle "HI-TECH Software Omniscient Code Generator (Lite mode) build 49521"
  7914                           
  7915  1522                     l4408:	
  7916                           opt subtitle "HI-TECH Software Omniscient Code Generator (Lite mode) build 49521"
  7917  1522  1508               	bsf	(8),2	;volatile
  7918                           opt subtitle "HI-TECH Software Omniscient Code Generator (Lite mode) build 49521"
  7919                           
  7920  1523                     l4410:	
  7921                           opt subtitle "HI-TECH Software Omniscient Code Generator (Lite mode) build 49521"
  7922  1523  0839               	movf	(SPI_Read_Reg@value),w
  7923  1524  2D25               	goto	l306
  7924                           opt subtitle "HI-TECH Software Omniscient Code Generator (Lite mode) build 49521"
  7925  1525                     l4412:	
  7926                           opt subtitle "HI-TECH Software Omniscient Code Generator (Lite mode) build 49521"
  7927                           
  7928  1525                     l306:	
  7929  1525  0008               	return
  7930                           opt subtitle "HI-TECH Software Omniscient Code Generator (Lite mode) build 49521"
  7931                           
  7932  1526                     	__end_of_SPI_Read_Reg:
  7933                           opt subtitle "HI-TECH Software Omniscient Code Generator (Lite mode) build 49521"
  7934                           
  7935                           opt pagewidth 120
  7936                           
  7937                           	opt lm
  7938                           
  7939                           	processor	16LF707
  7940                           clrc	macro
  7941                           	bcf	3,0
  7942                           	endm
  7943                           clrz	macro
  7944                           	bcf	3,2
  7945                           	endm
  7946                           setc	macro
  7947                           	bsf	3,0
  7948                           	endm
  7949                           setz	macro
  7950                           	bsf	3,2
  7951                           	endm
  7952                           skipc	macro
  7953                           	btfss	3,0
  7954                           	endm
  7955                           skipz	macro
  7956                           	btfss	3,2
  7957                           	endm
  7958                           skipnc	macro
  7959                           	btfsc	3,0
  7960                           	endm
  7961                           skipnz	macro
  7962                           	btfsc	3,2
  7963                           	endm
  7964                           indf	equ	0
  7965                           indf0	equ	0
  7966                           pc	equ	2
  7967                           pcl	equ	2
  7968                           status	equ	3
  7969                           fsr	equ	4
  7970  14F4                     __ptext1188:	;psect for function _SPI_RW
  7971                           opt subtitle "HI-TECH Software Omniscient Code Generator (Lite mode) build 49521"
  7972                           
  7973                           opt pagewidth 120
  7974                           
  7975  0019                     	__size_of_SPI_RW	equ	__end_of_SPI_RW-_SPI_RW
  7976                           opt subtitle "HI-TECH Software Omniscient Code Generator (Lite mode) build 49521"
  7977  14F4                     _SPI_RW:	
  7978                           opt subtitle "HI-TECH Software Omniscient Code Generator (Lite mode) build 49521"
  7979                           
  7980                           opt pagewidth 120
  7981  14F4  1283               	bcf	status, 5	;RP0=0, select bank0
  7982  14F5  1303               	bcf	status, 6	;RP1=0, select bank0
  7983  14F6  00B6               	movwf	(SPI_RW@value)
  7984                           opt subtitle "HI-TECH Software Omniscient Code Generator (Lite mode) build 49521"
  7985                           
  7986  14F7                     l4530:	
  7987                           opt subtitle "HI-TECH Software Omniscient Code Generator (Lite mode) build 49521"
  7988  14F7  0836               	movf	(SPI_RW@value),w
  7989  14F8  0093               	movwf	(19)	;volatile
  7990                           opt subtitle "HI-TECH Software Omniscient Code Generator (Lite mode) build 49521"
  7991                           
  7992                           opt pagewidth 120
  7993  14F9  3003               movlw	3
  7994  14FA  00B5               movwf	((??_SPI_RW+0)+0+1),f
  7995  14FB  3097               	movlw	151
  7996  14FC  00B4               movwf	((??_SPI_RW+0)+0),f
  7997  14FD                     u4797:
  7998  14FD  0BB4               	decfsz	((??_SPI_RW+0)+0),f
  7999  14FE  2CFD               	goto	u4797
  8000  14FF  0BB5               	decfsz	((??_SPI_RW+0)+0+1),f
  8001  1500  2CFD               	goto	u4797
  8002  1501  2D02               	nop2
  8003                           opt subtitle "HI-TECH Software Omniscient Code Generator (Lite mode) build 49521"
  8004                           
  8005                           opt pagewidth 120
  8006                           
  8007  1502  2D03               	goto	l297
  8008                           opt subtitle "HI-TECH Software Omniscient Code Generator (Lite mode) build 49521"
  8009  1503                     l298:	
  8010                           opt subtitle "HI-TECH Software Omniscient Code Generator (Lite mode) build 49521"
  8011  1503                     l297:	
  8012  1503  1283               	bcf	status, 5	;RP0=0, select bank0
  8013  1504  1303               	bcf	status, 6	;RP1=0, select bank0
  8014  1505  1D8C               	btfss	(12),3	;volatile
  8015  1506  2D08               	goto	u4531
  8016  1507  2D09               	goto	u4530
  8017  1508                     u4531:
  8018  1508  2D03               	goto	l297
  8019  1509                     u4530:
  8020  1509  2D0A               	goto	l4532
  8021                           opt subtitle "HI-TECH Software Omniscient Code Generator (Lite mode) build 49521"
  8022  150A                     l299:	
  8023                           opt subtitle "HI-TECH Software Omniscient Code Generator (Lite mode) build 49521"
  8024                           
  8025  150A                     l4532:	
  8026                           opt subtitle "HI-TECH Software Omniscient Code Generator (Lite mode) build 49521"
  8027  150A  0813               	movf	(19),w	;volatile
  8028  150B  2D0C               	goto	l300
  8029                           opt subtitle "HI-TECH Software Omniscient Code Generator (Lite mode) build 49521"
  8030  150C                     l4534:	
  8031                           opt subtitle "HI-TECH Software Omniscient Code Generator (Lite mode) build 49521"
  8032                           
  8033  150C                     l300:	
  8034  150C  0008               	return
  8035                           opt subtitle "HI-TECH Software Omniscient Code Generator (Lite mode) build 49521"
  8036                           
  8037  150D                     	__end_of_SPI_RW:
  8038                           opt subtitle "HI-TECH Software Omniscient Code Generator (Lite mode) build 49521"
  8039                           
  8040                           opt pagewidth 120
  8041                           
  8042                           	opt lm
  8043                           
  8044                           	processor	16LF707
  8045                           clrc	macro
  8046                           	bcf	3,0
  8047                           	endm
  8048                           clrz	macro
  8049                           	bcf	3,2
  8050                           	endm
  8051                           setc	macro
  8052                           	bsf	3,0
  8053                           	endm
  8054                           setz	macro
  8055                           	bsf	3,2
  8056                           	endm
  8057                           skipc	macro
  8058                           	btfss	3,0
  8059                           	endm
  8060                           skipz	macro
  8061                           	btfss	3,2
  8062                           	endm
  8063                           skipnc	macro
  8064                           	btfsc	3,0
  8065                           	endm
  8066                           skipnz	macro
  8067                           	btfsc	3,2
  8068                           	endm
  8069                           indf	equ	0
  8070                           indf0	equ	0
  8071                           pc	equ	2
  8072                           pcl	equ	2
  8073                           status	equ	3
  8074                           fsr	equ	4
  8075  0970                     __ptext1189:	;psect for function ___fttol
  8076                           opt subtitle "HI-TECH Software Omniscient Code Generator (Lite mode) build 49521"
  8077                           
  8078                           opt pagewidth 120
  8079                           
  8080  00A6                     	__size_of___fttol	equ	__end_of___fttol-___fttol
  8081                           opt subtitle "HI-TECH Software Omniscient Code Generator (Lite mode) build 49521"
  8082  0970                     ___fttol:	
  8083                           opt subtitle "HI-TECH Software Omniscient Code Generator (Lite mode) build 49521"
  8084                           
  8085                           opt pagewidth 120
  8086                           
  8087  0970                     l3586:	
  8088  0970  1283               	bcf	status, 5	;RP0=0, select bank0
  8089  0971  1303               	bcf	status, 6	;RP1=0, select bank0
  8090  0972  0834               	movf	(___fttol@f1),w
  8091  0973  00B8               	movwf	((??___fttol+0)+0)
  8092  0974  0835               	movf	(___fttol@f1+1),w
  8093  0975  00B9               	movwf	((??___fttol+0)+0+1)
  8094  0976  0836               	movf	(___fttol@f1+2),w
  8095  0977  00BA               	movwf	((??___fttol+0)+0+2)
  8096  0978  1003               	clrc
  8097  0979  0D39               	rlf	(??___fttol+0)+1,w
  8098  097A  0D3A               	rlf	(??___fttol+0)+2,w
  8099  097B  00BB               	movwf	(??___fttol+3)+0
  8100  097C  083B               	movf	(??___fttol+3)+0,w
  8101  097D  00C1               	movwf	(___fttol@exp1)
  8102  097E  08C1               	movf	((___fttol@exp1)),f
  8103  097F  1D03               	skipz
  8104  0980  2982               	goto	u3411
  8105  0981  2983               	goto	u3410
  8106  0982                     u3411:
  8107  0982  298D               	goto	l3592
  8108  0983                     u3410:
  8109                           opt subtitle "HI-TECH Software Omniscient Code Generator (Lite mode) build 49521"
  8110                           
  8111  0983                     l3588:	
  8112  0983  3000               	movlw	0
  8113  0984  00B7               	movwf	(?___fttol+3)
  8114  0985  3000               	movlw	0
  8115  0986  00B6               	movwf	(?___fttol+2)
  8116  0987  3000               	movlw	0
  8117  0988  00B5               	movwf	(?___fttol+1)
  8118  0989  3000               	movlw	0
  8119  098A  00B4               	movwf	(?___fttol)
  8120                           opt subtitle "HI-TECH Software Omniscient Code Generator (Lite mode) build 49521"
  8121  098B  2A15               	goto	l552
  8122                           opt subtitle "HI-TECH Software Omniscient Code Generator (Lite mode) build 49521"
  8123  098C                     l3590:	
  8124  098C  2A15               	goto	l552
  8125                           opt subtitle "HI-TECH Software Omniscient Code Generator (Lite mode) build 49521"
  8126  098D                     l551:	
  8127                           opt subtitle "HI-TECH Software Omniscient Code Generator (Lite mode) build 49521"
  8128                           
  8129  098D                     l3592:	
  8130  098D  0834               	movf	(___fttol@f1),w
  8131  098E  00B8               	movwf	((??___fttol+0)+0)
  8132  098F  0835               	movf	(___fttol@f1+1),w
  8133  0990  00B9               	movwf	((??___fttol+0)+0+1)
  8134  0991  0836               	movf	(___fttol@f1+2),w
  8135  0992  00BA               	movwf	((??___fttol+0)+0+2)
  8136  0993  3017               	movlw	017h
  8137  0994                     u3425:
  8138  0994  1003               	clrc
  8139  0995  0CBA               	rrf	(??___fttol+0)+2,f
  8140  0996  0CB9               	rrf	(??___fttol+0)+1,f
  8141  0997  0CB8               	rrf	(??___fttol+0)+0,f
  8142  0998                     u3420:
  8143  0998  3EFF               	addlw	-1
  8144  0999  1D03               	skipz
  8145  099A  2994               	goto	u3425
  8146  099B  0838               	movf	0+(??___fttol+0)+0,w
  8147  099C  00BB               	movwf	(??___fttol+3)+0
  8148  099D  083B               	movf	(??___fttol+3)+0,w
  8149  099E  00BC               	movwf	(___fttol@sign1)
  8150                           opt subtitle "HI-TECH Software Omniscient Code Generator (Lite mode) build 49521"
  8151                           
  8152  099F                     l3594:	
  8153  099F  17B5               	bsf	(___fttol@f1)+(15/8),(15)&7
  8154                           opt subtitle "HI-TECH Software Omniscient Code Generator (Lite mode) build 49521"
  8155                           
  8156  09A0                     l3596:	
  8157  09A0  30FF               	movlw	0FFh
  8158  09A1  05B4               	andwf	(___fttol@f1),f
  8159  09A2  30FF               	movlw	0FFh
  8160  09A3  05B5               	andwf	(___fttol@f1+1),f
  8161  09A4  3000               	movlw	0
  8162  09A5  05B6               	andwf	(___fttol@f1+2),f
  8163                           opt subtitle "HI-TECH Software Omniscient Code Generator (Lite mode) build 49521"
  8164                           
  8165  09A6                     l3598:	
  8166  09A6  0834               	movf	(___fttol@f1),w
  8167  09A7  00BD               	movwf	(___fttol@lval)
  8168  09A8  0835               	movf	(___fttol@f1+1),w
  8169  09A9  00BE               	movwf	((___fttol@lval))+1
  8170  09AA  0836               	movf	(___fttol@f1+2),w
  8171  09AB  00BF               	movwf	((___fttol@lval))+2
  8172  09AC  01C0               	clrf	((___fttol@lval))+3
  8173                           opt subtitle "HI-TECH Software Omniscient Code Generator (Lite mode) build 49521"
  8174                           
  8175  09AD                     l3600:	
  8176  09AD  308E               	movlw	low(08Eh)
  8177  09AE  02C1               	subwf	(___fttol@exp1),f
  8178                           opt subtitle "HI-TECH Software Omniscient Code Generator (Lite mode) build 49521"
  8179                           
  8180  09AF                     l3602:	
  8181  09AF  1FC1               	btfss	(___fttol@exp1),7
  8182  09B0  29B2               	goto	u3431
  8183  09B1  29B3               	goto	u3430
  8184  09B2                     u3431:
  8185  09B2  29D8               	goto	l3612
  8186  09B3                     u3430:
  8187                           opt subtitle "HI-TECH Software Omniscient Code Generator (Lite mode) build 49521"
  8188                           
  8189  09B3                     l3604:	
  8190  09B3  0841               	movf	(___fttol@exp1),w
  8191  09B4  3A80               	xorlw	80h
  8192  09B5  3E8F               	addlw	-((-15)^80h)
  8193  09B6  1803               	skipnc
  8194  09B7  29B9               	goto	u3441
  8195  09B8  29BA               	goto	u3440
  8196  09B9                     u3441:
  8197  09B9  29C5               	goto	l3610
  8198  09BA                     u3440:
  8199                           opt subtitle "HI-TECH Software Omniscient Code Generator (Lite mode) build 49521"
  8200                           
  8201  09BA                     l3606:	
  8202  09BA  3000               	movlw	0
  8203  09BB  00B7               	movwf	(?___fttol+3)
  8204  09BC  3000               	movlw	0
  8205  09BD  00B6               	movwf	(?___fttol+2)
  8206  09BE  3000               	movlw	0
  8207  09BF  00B5               	movwf	(?___fttol+1)
  8208  09C0  3000               	movlw	0
  8209  09C1  00B4               	movwf	(?___fttol)
  8210                           opt subtitle "HI-TECH Software Omniscient Code Generator (Lite mode) build 49521"
  8211  09C2  2A15               	goto	l552
  8212                           opt subtitle "HI-TECH Software Omniscient Code Generator (Lite mode) build 49521"
  8213  09C3                     l3608:	
  8214  09C3  2A15               	goto	l552
  8215                           opt subtitle "HI-TECH Software Omniscient Code Generator (Lite mode) build 49521"
  8216  09C4                     l554:	
  8217  09C4  29C5               	goto	l3610
  8218                           opt subtitle "HI-TECH Software Omniscient Code Generator (Lite mode) build 49521"
  8219                           
  8220  09C5                     l555:	
  8221                           opt subtitle "HI-TECH Software Omniscient Code Generator (Lite mode) build 49521"
  8222                           
  8223  09C5                     l3610:	
  8224  09C5  3001               	movlw	01h
  8225  09C6                     u3455:
  8226  09C6  1003               	clrc
  8227  09C7  0CC0               	rrf	(___fttol@lval+3),f
  8228  09C8  0CBF               	rrf	(___fttol@lval+2),f
  8229  09C9  0CBE               	rrf	(___fttol@lval+1),f
  8230  09CA  0CBD               	rrf	(___fttol@lval),f
  8231  09CB  3EFF               	addlw	-1
  8232  09CC  1D03               	skipz
  8233  09CD  29C6               	goto	u3455
  8234                           opt subtitle "HI-TECH Software Omniscient Code Generator (Lite mode) build 49521"
  8235                           
  8236  09CE  3001               	movlw	(01h)
  8237  09CF  00B8               	movwf	(??___fttol+0)+0
  8238  09D0  0838               	movf	(??___fttol+0)+0,w
  8239  09D1  07C1               	addwf	(___fttol@exp1),f
  8240  09D2  1D03               	btfss	status,2
  8241  09D3  29D5               	goto	u3461
  8242  09D4  29D6               	goto	u3460
  8243  09D5                     u3461:
  8244  09D5  29C5               	goto	l3610
  8245  09D6                     u3460:
  8246  09D6  29FC               	goto	l3622
  8247                           opt subtitle "HI-TECH Software Omniscient Code Generator (Lite mode) build 49521"
  8248  09D7                     l556:	
  8249                           opt subtitle "HI-TECH Software Omniscient Code Generator (Lite mode) build 49521"
  8250  09D7  29FC               	goto	l3622
  8251                           opt subtitle "HI-TECH Software Omniscient Code Generator (Lite mode) build 49521"
  8252  09D8                     l553:	
  8253                           opt subtitle "HI-TECH Software Omniscient Code Generator (Lite mode) build 49521"
  8254                           
  8255  09D8                     l3612:	
  8256  09D8  3018               	movlw	(018h)
  8257  09D9  0241               	subwf	(___fttol@exp1),w
  8258  09DA  1C03               	skipc
  8259  09DB  29DD               	goto	u3471
  8260  09DC  29DE               	goto	u3470
  8261  09DD                     u3471:
  8262  09DD  29F5               	goto	l3620
  8263  09DE                     u3470:
  8264                           opt subtitle "HI-TECH Software Omniscient Code Generator (Lite mode) build 49521"
  8265                           
  8266  09DE                     l3614:	
  8267  09DE  3000               	movlw	0
  8268  09DF  00B7               	movwf	(?___fttol+3)
  8269  09E0  3000               	movlw	0
  8270  09E1  00B6               	movwf	(?___fttol+2)
  8271  09E2  3000               	movlw	0
  8272  09E3  00B5               	movwf	(?___fttol+1)
  8273  09E4  3000               	movlw	0
  8274  09E5  00B4               	movwf	(?___fttol)
  8275                           opt subtitle "HI-TECH Software Omniscient Code Generator (Lite mode) build 49521"
  8276  09E6  2A15               	goto	l552
  8277                           opt subtitle "HI-TECH Software Omniscient Code Generator (Lite mode) build 49521"
  8278  09E7                     l3616:	
  8279  09E7  2A15               	goto	l552
  8280                           opt subtitle "HI-TECH Software Omniscient Code Generator (Lite mode) build 49521"
  8281  09E8                     l558:	
  8282                           opt subtitle "HI-TECH Software Omniscient Code Generator (Lite mode) build 49521"
  8283  09E8  29F5               	goto	l3620
  8284                           opt subtitle "HI-TECH Software Omniscient Code Generator (Lite mode) build 49521"
  8285  09E9                     l560:	
  8286                           opt subtitle "HI-TECH Software Omniscient Code Generator (Lite mode) build 49521"
  8287                           
  8288  09E9                     l3618:	
  8289  09E9  3001               	movlw	01h
  8290  09EA  00B8               	movwf	(??___fttol+0)+0
  8291  09EB                     u3485:
  8292  09EB  1003               	clrc
  8293  09EC  0DBD               	rlf	(___fttol@lval),f
  8294  09ED  0DBE               	rlf	(___fttol@lval+1),f
  8295  09EE  0DBF               	rlf	(___fttol@lval+2),f
  8296  09EF  0DC0               	rlf	(___fttol@lval+3),f
  8297  09F0  0BB8               	decfsz	(??___fttol+0)+0
  8298  09F1  29EB               	goto	u3485
  8299                           opt subtitle "HI-TECH Software Omniscient Code Generator (Lite mode) build 49521"
  8300  09F2  3001               	movlw	low(01h)
  8301  09F3  02C1               	subwf	(___fttol@exp1),f
  8302  09F4  29F5               	goto	l3620
  8303                           opt subtitle "HI-TECH Software Omniscient Code Generator (Lite mode) build 49521"
  8304                           
  8305  09F5                     l559:	
  8306                           opt subtitle "HI-TECH Software Omniscient Code Generator (Lite mode) build 49521"
  8307                           
  8308  09F5                     l3620:	
  8309  09F5  08C1               	movf	(___fttol@exp1),f
  8310  09F6  1D03               	skipz
  8311  09F7  29F9               	goto	u3491
  8312  09F8  29FA               	goto	u3490
  8313  09F9                     u3491:
  8314  09F9  29E9               	goto	l3618
  8315  09FA                     u3490:
  8316  09FA  29FC               	goto	l3622
  8317                           opt subtitle "HI-TECH Software Omniscient Code Generator (Lite mode) build 49521"
  8318  09FB                     l561:	
  8319  09FB  29FC               	goto	l3622
  8320                           opt subtitle "HI-TECH Software Omniscient Code Generator (Lite mode) build 49521"
  8321                           
  8322  09FC                     l557:	
  8323                           opt subtitle "HI-TECH Software Omniscient Code Generator (Lite mode) build 49521"
  8324                           
  8325  09FC                     l3622:	
  8326  09FC  083C               	movf	(___fttol@sign1),w
  8327  09FD  1D03               	skipz
  8328  09FE  2A00               	goto	u3500
  8329  09FF  2A0C               	goto	l3626
  8330  0A00                     u3500:
  8331                           opt subtitle "HI-TECH Software Omniscient Code Generator (Lite mode) build 49521"
  8332                           
  8333  0A00                     l3624:	
  8334  0A00  09BD               	comf	(___fttol@lval),f
  8335  0A01  09BE               	comf	(___fttol@lval+1),f
  8336  0A02  09BF               	comf	(___fttol@lval+2),f
  8337  0A03  09C0               	comf	(___fttol@lval+3),f
  8338  0A04  0ABD               	incf	(___fttol@lval),f
  8339  0A05  1903               	skipnz
  8340  0A06  0ABE               	incf	(___fttol@lval+1),f
  8341  0A07  1903               	skipnz
  8342  0A08  0ABF               	incf	(___fttol@lval+2),f
  8343  0A09  1903               	skipnz
  8344  0A0A  0AC0               	incf	(___fttol@lval+3),f
  8345  0A0B  2A0C               	goto	l3626
  8346                           opt subtitle "HI-TECH Software Omniscient Code Generator (Lite mode) build 49521"
  8347  0A0C                     l562:	
  8348                           opt subtitle "HI-TECH Software Omniscient Code Generator (Lite mode) build 49521"
  8349                           
  8350  0A0C                     l3626:	
  8351  0A0C  0840               	movf	(___fttol@lval+3),w
  8352  0A0D  00B7               	movwf	(?___fttol+3)
  8353  0A0E  083F               	movf	(___fttol@lval+2),w
  8354  0A0F  00B6               	movwf	(?___fttol+2)
  8355  0A10  083E               	movf	(___fttol@lval+1),w
  8356  0A11  00B5               	movwf	(?___fttol+1)
  8357  0A12  083D               	movf	(___fttol@lval),w
  8358  0A13  00B4               	movwf	(?___fttol)
  8359                           opt subtitle "HI-TECH Software Omniscient Code Generator (Lite mode) build 49521"
  8360  0A14  2A15               	goto	l552
  8361                           opt subtitle "HI-TECH Software Omniscient Code Generator (Lite mode) build 49521"
  8362  0A15                     l3628:	
  8363                           opt subtitle "HI-TECH Software Omniscient Code Generator (Lite mode) build 49521"
  8364                           
  8365  0A15                     l552:	
  8366  0A15  0008               	return
  8367                           opt subtitle "HI-TECH Software Omniscient Code Generator (Lite mode) build 49521"
  8368                           
  8369  0A16                     	__end_of___fttol:
  8370                           opt subtitle "HI-TECH Software Omniscient Code Generator (Lite mode) build 49521"
  8371                           
  8372                           opt pagewidth 120
  8373                           
  8374                           	opt lm
  8375                           
  8376                           	processor	16LF707
  8377                           clrc	macro
  8378                           	bcf	3,0
  8379                           	endm
  8380                           clrz	macro
  8381                           	bcf	3,2
  8382                           	endm
  8383                           setc	macro
  8384                           	bsf	3,0
  8385                           	endm
  8386                           setz	macro
  8387                           	bsf	3,2
  8388                           	endm
  8389                           skipc	macro
  8390                           	btfss	3,0
  8391                           	endm
  8392                           skipz	macro
  8393                           	btfss	3,2
  8394                           	endm
  8395                           skipnc	macro
  8396                           	btfsc	3,0
  8397                           	endm
  8398                           skipnz	macro
  8399                           	btfsc	3,2
  8400                           	endm
  8401                           indf	equ	0
  8402                           indf0	equ	0
  8403                           pc	equ	2
  8404                           pcl	equ	2
  8405                           status	equ	3
  8406                           fsr	equ	4
  8407                           fsr0	equ	4
  8408  0BB2                     __ptext1190:	;psect for function ___ftmul
  8409                           opt subtitle "HI-TECH Software Omniscient Code Generator (Lite mode) build 49521"
  8410                           
  8411                           opt pagewidth 120
  8412                           
  8413  00EE                     	__size_of___ftmul	equ	__end_of___ftmul-___ftmul
  8414                           opt subtitle "HI-TECH Software Omniscient Code Generator (Lite mode) build 49521"
  8415  0BB2                     ___ftmul:	
  8416                           opt subtitle "HI-TECH Software Omniscient Code Generator (Lite mode) build 49521"
  8417                           
  8418                           opt pagewidth 120
  8419                           
  8420  0BB2                     l3536:	
  8421  0BB2  1283               	bcf	status, 5	;RP0=0, select bank0
  8422  0BB3  1303               	bcf	status, 6	;RP1=0, select bank0
  8423  0BB4  083C               	movf	(___ftmul@f1),w
  8424  0BB5  00C2               	movwf	((??___ftmul+0)+0)
  8425  0BB6  083D               	movf	(___ftmul@f1+1),w
  8426  0BB7  00C3               	movwf	((??___ftmul+0)+0+1)
  8427  0BB8  083E               	movf	(___ftmul@f1+2),w
  8428  0BB9  00C4               	movwf	((??___ftmul+0)+0+2)
  8429  0BBA  1003               	clrc
  8430  0BBB  0D43               	rlf	(??___ftmul+0)+1,w
  8431  0BBC  0D44               	rlf	(??___ftmul+0)+2,w
  8432  0BBD  00C5               	movwf	(??___ftmul+3)+0
  8433  0BBE  0845               	movf	(??___ftmul+3)+0,w
  8434  0BBF  00C6               	movwf	(___ftmul@exp)
  8435  0BC0  08C6               	movf	((___ftmul@exp)),f
  8436  0BC1  1D03               	skipz
  8437  0BC2  2BC4               	goto	u3271
  8438  0BC3  2BC5               	goto	u3270
  8439  0BC4                     u3271:
  8440  0BC4  2BCD               	goto	l3542
  8441  0BC5                     u3270:
  8442                           opt subtitle "HI-TECH Software Omniscient Code Generator (Lite mode) build 49521"
  8443                           
  8444  0BC5                     l3538:	
  8445  0BC5  3000               	movlw	0x0
  8446  0BC6  00BC               	movwf	(?___ftmul)
  8447  0BC7  3000               	movlw	0x0
  8448  0BC8  00BD               	movwf	(?___ftmul+1)
  8449  0BC9  3000               	movlw	0x0
  8450  0BCA  00BE               	movwf	(?___ftmul+2)
  8451  0BCB  2C9F               	goto	l541
  8452                           opt subtitle "HI-TECH Software Omniscient Code Generator (Lite mode) build 49521"
  8453  0BCC                     l3540:	
  8454  0BCC  2C9F               	goto	l541
  8455                           opt subtitle "HI-TECH Software Omniscient Code Generator (Lite mode) build 49521"
  8456  0BCD                     l540:	
  8457                           opt subtitle "HI-TECH Software Omniscient Code Generator (Lite mode) build 49521"
  8458                           
  8459  0BCD                     l3542:	
  8460  0BCD  083F               	movf	(___ftmul@f2),w
  8461  0BCE  00C2               	movwf	((??___ftmul+0)+0)
  8462  0BCF  0840               	movf	(___ftmul@f2+1),w
  8463  0BD0  00C3               	movwf	((??___ftmul+0)+0+1)
  8464  0BD1  0841               	movf	(___ftmul@f2+2),w
  8465  0BD2  00C4               	movwf	((??___ftmul+0)+0+2)
  8466  0BD3  1003               	clrc
  8467  0BD4  0D43               	rlf	(??___ftmul+0)+1,w
  8468  0BD5  0D44               	rlf	(??___ftmul+0)+2,w
  8469  0BD6  00C5               	movwf	(??___ftmul+3)+0
  8470  0BD7  0845               	movf	(??___ftmul+3)+0,w
  8471  0BD8  00CB               	movwf	(___ftmul@sign)
  8472  0BD9  08CB               	movf	((___ftmul@sign)),f
  8473  0BDA  1D03               	skipz
  8474  0BDB  2BDD               	goto	u3281
  8475  0BDC  2BDE               	goto	u3280
  8476  0BDD                     u3281:
  8477  0BDD  2BE6               	goto	l3548
  8478  0BDE                     u3280:
  8479                           opt subtitle "HI-TECH Software Omniscient Code Generator (Lite mode) build 49521"
  8480                           
  8481  0BDE                     l3544:	
  8482  0BDE  3000               	movlw	0x0
  8483  0BDF  00BC               	movwf	(?___ftmul)
  8484  0BE0  3000               	movlw	0x0
  8485  0BE1  00BD               	movwf	(?___ftmul+1)
  8486  0BE2  3000               	movlw	0x0
  8487  0BE3  00BE               	movwf	(?___ftmul+2)
  8488  0BE4  2C9F               	goto	l541
  8489                           opt subtitle "HI-TECH Software Omniscient Code Generator (Lite mode) build 49521"
  8490  0BE5                     l3546:	
  8491  0BE5  2C9F               	goto	l541
  8492                           opt subtitle "HI-TECH Software Omniscient Code Generator (Lite mode) build 49521"
  8493  0BE6                     l542:	
  8494                           opt subtitle "HI-TECH Software Omniscient Code Generator (Lite mode) build 49521"
  8495                           
  8496  0BE6                     l3548:	
  8497  0BE6  084B               	movf	(___ftmul@sign),w
  8498  0BE7  3E7B               	addlw	07Bh
  8499  0BE8  00C2               	movwf	(??___ftmul+0)+0
  8500  0BE9  0842               	movf	(??___ftmul+0)+0,w
  8501  0BEA  07C6               	addwf	(___ftmul@exp),f
  8502                           opt subtitle "HI-TECH Software Omniscient Code Generator (Lite mode) build 49521"
  8503  0BEB  083C               	movf	(___ftmul@f1),w
  8504  0BEC  00C2               	movwf	((??___ftmul+0)+0)
  8505  0BED  083D               	movf	(___ftmul@f1+1),w
  8506  0BEE  00C3               	movwf	((??___ftmul+0)+0+1)
  8507  0BEF  083E               	movf	(___ftmul@f1+2),w
  8508  0BF0  00C4               	movwf	((??___ftmul+0)+0+2)
  8509  0BF1  3010               	movlw	010h
  8510  0BF2                     u3295:
  8511  0BF2  1003               	clrc
  8512  0BF3  0CC4               	rrf	(??___ftmul+0)+2,f
  8513  0BF4  0CC3               	rrf	(??___ftmul+0)+1,f
  8514  0BF5  0CC2               	rrf	(??___ftmul+0)+0,f
  8515  0BF6                     u3290:
  8516  0BF6  3EFF               	addlw	-1
  8517  0BF7  1D03               	skipz
  8518  0BF8  2BF2               	goto	u3295
  8519  0BF9  0842               	movf	0+(??___ftmul+0)+0,w
  8520  0BFA  00C5               	movwf	(??___ftmul+3)+0
  8521  0BFB  0845               	movf	(??___ftmul+3)+0,w
  8522  0BFC  00CB               	movwf	(___ftmul@sign)
  8523                           opt subtitle "HI-TECH Software Omniscient Code Generator (Lite mode) build 49521"
  8524  0BFD  083F               	movf	(___ftmul@f2),w
  8525  0BFE  00C2               	movwf	((??___ftmul+0)+0)
  8526  0BFF  0840               	movf	(___ftmul@f2+1),w
  8527  0C00  00C3               	movwf	((??___ftmul+0)+0+1)
  8528  0C01  0841               	movf	(___ftmul@f2+2),w
  8529  0C02  00C4               	movwf	((??___ftmul+0)+0+2)
  8530  0C03  3010               	movlw	010h
  8531  0C04                     u3305:
  8532  0C04  1003               	clrc
  8533  0C05  0CC4               	rrf	(??___ftmul+0)+2,f
  8534  0C06  0CC3               	rrf	(??___ftmul+0)+1,f
  8535  0C07  0CC2               	rrf	(??___ftmul+0)+0,f
  8536  0C08                     u3300:
  8537  0C08  3EFF               	addlw	-1
  8538  0C09  1D03               	skipz
  8539  0C0A  2C04               	goto	u3305
  8540  0C0B  0842               	movf	0+(??___ftmul+0)+0,w
  8541  0C0C  00C5               	movwf	(??___ftmul+3)+0
  8542  0C0D  0845               	movf	(??___ftmul+3)+0,w
  8543  0C0E  06CB               	xorwf	(___ftmul@sign),f
  8544                           opt subtitle "HI-TECH Software Omniscient Code Generator (Lite mode) build 49521"
  8545  0C0F  3080               	movlw	(080h)
  8546  0C10  00C2               	movwf	(??___ftmul+0)+0
  8547  0C11  0842               	movf	(??___ftmul+0)+0,w
  8548  0C12  05CB               	andwf	(___ftmul@sign),f
  8549                           opt subtitle "HI-TECH Software Omniscient Code Generator (Lite mode) build 49521"
  8550                           
  8551  0C13                     l3550:	
  8552  0C13  17BD               	bsf	(___ftmul@f1)+(15/8),(15)&7
  8553                           opt subtitle "HI-TECH Software Omniscient Code Generator (Lite mode) build 49521"
  8554                           
  8555  0C14                     l3552:	
  8556  0C14  17C0               	bsf	(___ftmul@f2)+(15/8),(15)&7
  8557                           opt subtitle "HI-TECH Software Omniscient Code Generator (Lite mode) build 49521"
  8558                           
  8559  0C15                     l3554:	
  8560  0C15  30FF               	movlw	0FFh
  8561  0C16  05BF               	andwf	(___ftmul@f2),f
  8562  0C17  30FF               	movlw	0FFh
  8563  0C18  05C0               	andwf	(___ftmul@f2+1),f
  8564  0C19  3000               	movlw	0
  8565  0C1A  05C1               	andwf	(___ftmul@f2+2),f
  8566                           opt subtitle "HI-TECH Software Omniscient Code Generator (Lite mode) build 49521"
  8567                           
  8568  0C1B                     l3556:	
  8569  0C1B  3000               	movlw	0
  8570  0C1C  00C7               	movwf	(___ftmul@f3_as_product)
  8571  0C1D  3000               	movlw	0
  8572  0C1E  00C8               	movwf	(___ftmul@f3_as_product+1)
  8573  0C1F  3000               	movlw	0
  8574  0C20  00C9               	movwf	(___ftmul@f3_as_product+2)
  8575                           opt subtitle "HI-TECH Software Omniscient Code Generator (Lite mode) build 49521"
  8576                           
  8577  0C21                     l3558:	
  8578  0C21  3007               	movlw	(07h)
  8579  0C22  00C2               	movwf	(??___ftmul+0)+0
  8580  0C23  0842               	movf	(??___ftmul+0)+0,w
  8581  0C24  00CA               	movwf	(___ftmul@cntr)
  8582  0C25  2C26               	goto	l3560
  8583                           opt subtitle "HI-TECH Software Omniscient Code Generator (Lite mode) build 49521"
  8584                           
  8585  0C26                     l543:	
  8586                           opt subtitle "HI-TECH Software Omniscient Code Generator (Lite mode) build 49521"
  8587                           
  8588  0C26                     l3560:	
  8589  0C26  1C3C               	btfss	(___ftmul@f1),(0)&7
  8590  0C27  2C29               	goto	u3311
  8591  0C28  2C2A               	goto	u3310
  8592  0C29                     u3311:
  8593  0C29  2C3B               	goto	l3564
  8594  0C2A                     u3310:
  8595                           opt subtitle "HI-TECH Software Omniscient Code Generator (Lite mode) build 49521"
  8596                           
  8597  0C2A                     l3562:	
  8598  0C2A  083F               	movf	(___ftmul@f2),w
  8599  0C2B  07C7               	addwf	(___ftmul@f3_as_product),f
  8600  0C2C  0840               	movf	(___ftmul@f2+1),w
  8601  0C2D  1103               	clrz
  8602  0C2E  1803               	skipnc
  8603  0C2F  0A40               	incf	(___ftmul@f2+1),w
  8604  0C30  1903               	skipnz
  8605  0C31  2C33               	goto	u3321
  8606  0C32  07C8               	addwf	(___ftmul@f3_as_product+1),f
  8607  0C33                     u3321:
  8608  0C33  0841               	movf	(___ftmul@f2+2),w
  8609  0C34  1103               	clrz
  8610  0C35  1803               	skipnc
  8611  0C36  0A41               	incf	(___ftmul@f2+2),w
  8612  0C37  1903               	skipnz
  8613  0C38  2C3A               	goto	u3322
  8614  0C39  07C9               	addwf	(___ftmul@f3_as_product+2),f
  8615  0C3A                     u3322:
  8616                           opt subtitle "HI-TECH Software Omniscient Code Generator (Lite mode) build 49521"
  8617  0C3A  2C3B               	goto	l3564
  8618                           opt subtitle "HI-TECH Software Omniscient Code Generator (Lite mode) build 49521"
  8619  0C3B                     l544:	
  8620                           opt subtitle "HI-TECH Software Omniscient Code Generator (Lite mode) build 49521"
  8621                           
  8622  0C3B                     l3564:	
  8623  0C3B  3001               	movlw	01h
  8624  0C3C                     u3335:
  8625  0C3C  1003               	clrc
  8626  0C3D  0CBE               	rrf	(___ftmul@f1+2),f
  8627  0C3E  0CBD               	rrf	(___ftmul@f1+1),f
  8628  0C3F  0CBC               	rrf	(___ftmul@f1),f
  8629  0C40  3EFF               	addlw	-1
  8630  0C41  1D03               	skipz
  8631  0C42  2C3C               	goto	u3335
  8632                           opt subtitle "HI-TECH Software Omniscient Code Generator (Lite mode) build 49521"
  8633                           
  8634                           opt pagewidth 120
  8635  0C43                     l3566:	
  8636  0C43  3001               	movlw	01h
  8637  0C44                     u3345:
  8638  0C44  1003               	clrc
  8639  0C45  0DBF               	rlf	(___ftmul@f2),f
  8640  0C46  0DC0               	rlf	(___ftmul@f2+1),f
  8641  0C47  0DC1               	rlf	(___ftmul@f2+2),f
  8642  0C48  3EFF               	addlw	-1
  8643  0C49  1D03               	skipz
  8644  0C4A  2C44               	goto	u3345
  8645                           opt subtitle "HI-TECH Software Omniscient Code Generator (Lite mode) build 49521"
  8646                           
  8647  0C4B                     l3568:	
  8648  0C4B  3001               	movlw	low(01h)
  8649  0C4C  02CA               	subwf	(___ftmul@cntr),f
  8650  0C4D  1D03               	btfss	status,2
  8651  0C4E  2C50               	goto	u3351
  8652  0C4F  2C51               	goto	u3350
  8653  0C50                     u3351:
  8654  0C50  2C26               	goto	l3560
  8655  0C51                     u3350:
  8656  0C51  2C52               	goto	l3570
  8657                           opt subtitle "HI-TECH Software Omniscient Code Generator (Lite mode) build 49521"
  8658  0C52                     l545:	
  8659                           opt subtitle "HI-TECH Software Omniscient Code Generator (Lite mode) build 49521"
  8660                           
  8661  0C52                     l3570:	
  8662  0C52  3009               	movlw	(09h)
  8663  0C53  00C2               	movwf	(??___ftmul+0)+0
  8664  0C54  0842               	movf	(??___ftmul+0)+0,w
  8665  0C55  00CA               	movwf	(___ftmul@cntr)
  8666  0C56  2C57               	goto	l3572
  8667                           opt subtitle "HI-TECH Software Omniscient Code Generator (Lite mode) build 49521"
  8668                           
  8669  0C57                     l546:	
  8670                           opt subtitle "HI-TECH Software Omniscient Code Generator (Lite mode) build 49521"
  8671                           
  8672  0C57                     l3572:	
  8673  0C57  1C3C               	btfss	(___ftmul@f1),(0)&7
  8674  0C58  2C5A               	goto	u3361
  8675  0C59  2C5B               	goto	u3360
  8676  0C5A                     u3361:
  8677  0C5A  2C6C               	goto	l3576
  8678  0C5B                     u3360:
  8679                           opt subtitle "HI-TECH Software Omniscient Code Generator (Lite mode) build 49521"
  8680                           
  8681  0C5B                     l3574:	
  8682  0C5B  083F               	movf	(___ftmul@f2),w
  8683  0C5C  07C7               	addwf	(___ftmul@f3_as_product),f
  8684  0C5D  0840               	movf	(___ftmul@f2+1),w
  8685  0C5E  1103               	clrz
  8686  0C5F  1803               	skipnc
  8687  0C60  0A40               	incf	(___ftmul@f2+1),w
  8688  0C61  1903               	skipnz
  8689  0C62  2C64               	goto	u3371
  8690  0C63  07C8               	addwf	(___ftmul@f3_as_product+1),f
  8691  0C64                     u3371:
  8692  0C64  0841               	movf	(___ftmul@f2+2),w
  8693  0C65  1103               	clrz
  8694  0C66  1803               	skipnc
  8695  0C67  0A41               	incf	(___ftmul@f2+2),w
  8696  0C68  1903               	skipnz
  8697  0C69  2C6B               	goto	u3372
  8698  0C6A  07C9               	addwf	(___ftmul@f3_as_product+2),f
  8699  0C6B                     u3372:
  8700                           opt subtitle "HI-TECH Software Omniscient Code Generator (Lite mode) build 49521"
  8701  0C6B  2C6C               	goto	l3576
  8702                           opt subtitle "HI-TECH Software Omniscient Code Generator (Lite mode) build 49521"
  8703  0C6C                     l547:	
  8704                           opt subtitle "HI-TECH Software Omniscient Code Generator (Lite mode) build 49521"
  8705                           
  8706  0C6C                     l3576:	
  8707  0C6C  3001               	movlw	01h
  8708  0C6D                     u3385:
  8709  0C6D  1003               	clrc
  8710  0C6E  0CBE               	rrf	(___ftmul@f1+2),f
  8711  0C6F  0CBD               	rrf	(___ftmul@f1+1),f
  8712  0C70  0CBC               	rrf	(___ftmul@f1),f
  8713  0C71  3EFF               	addlw	-1
  8714  0C72  1D03               	skipz
  8715  0C73  2C6D               	goto	u3385
  8716                           opt subtitle "HI-TECH Software Omniscient Code Generator (Lite mode) build 49521"
  8717                           
  8718                           opt pagewidth 120
  8719  0C74                     l3578:	
  8720  0C74  3001               	movlw	01h
  8721  0C75                     u3395:
  8722  0C75  1003               	clrc
  8723  0C76  0CC9               	rrf	(___ftmul@f3_as_product+2),f
  8724  0C77  0CC8               	rrf	(___ftmul@f3_as_product+1),f
  8725  0C78  0CC7               	rrf	(___ftmul@f3_as_product),f
  8726  0C79  3EFF               	addlw	-1
  8727  0C7A  1D03               	skipz
  8728  0C7B  2C75               	goto	u3395
  8729                           opt subtitle "HI-TECH Software Omniscient Code Generator (Lite mode) build 49521"
  8730                           
  8731                           opt pagewidth 120
  8732  0C7C                     l3580:	
  8733  0C7C  3001               	movlw	low(01h)
  8734  0C7D  02CA               	subwf	(___ftmul@cntr),f
  8735  0C7E  1D03               	btfss	status,2
  8736  0C7F  2C81               	goto	u3401
  8737  0C80  2C82               	goto	u3400
  8738  0C81                     u3401:
  8739  0C81  2C57               	goto	l3572
  8740  0C82                     u3400:
  8741  0C82  2C83               	goto	l3582
  8742                           opt subtitle "HI-TECH Software Omniscient Code Generator (Lite mode) build 49521"
  8743  0C83                     l548:	
  8744                           opt subtitle "HI-TECH Software Omniscient Code Generator (Lite mode) build 49521"
  8745                           
  8746  0C83                     l3582:	
  8747  0C83  0847               	movf	(___ftmul@f3_as_product),w
  8748  0C84  00B4               	movwf	(?___ftpack)
  8749  0C85  0848               	movf	(___ftmul@f3_as_product+1),w
  8750  0C86  00B5               	movwf	(?___ftpack+1)
  8751  0C87  0849               	movf	(___ftmul@f3_as_product+2),w
  8752  0C88  00B6               	movwf	(?___ftpack+2)
  8753  0C89  0846               	movf	(___ftmul@exp),w
  8754  0C8A  00C2               	movwf	(??___ftmul+0)+0
  8755  0C8B  0842               	movf	(??___ftmul+0)+0,w
  8756  0C8C  00B7               	movwf	0+(?___ftpack)+03h
  8757  0C8D  084B               	movf	(___ftmul@sign),w
  8758  0C8E  00C3               	movwf	(??___ftmul+1)+0
  8759  0C8F  0843               	movf	(??___ftmul+1)+0,w
  8760  0C90  00B8               	movwf	0+(?___ftpack)+04h
  8761  0C91  120A  158A  20F3   	fcall	___ftpack
              120A  158A         
  8762  0C96  1283               	bcf	status, 5	;RP0=0, select bank0
  8763  0C97  1303               	bcf	status, 6	;RP1=0, select bank0
  8764  0C98  0834               	movf	(0+(?___ftpack)),w
  8765  0C99  00BC               	movwf	(?___ftmul)
  8766  0C9A  0835               	movf	(1+(?___ftpack)),w
  8767  0C9B  00BD               	movwf	(?___ftmul+1)
  8768  0C9C  0836               	movf	(2+(?___ftpack)),w
  8769  0C9D  00BE               	movwf	(?___ftmul+2)
  8770  0C9E  2C9F               	goto	l541
  8771                           opt subtitle "HI-TECH Software Omniscient Code Generator (Lite mode) build 49521"
  8772  0C9F                     l3584:	
  8773                           opt subtitle "HI-TECH Software Omniscient Code Generator (Lite mode) build 49521"
  8774                           
  8775  0C9F                     l541:	
  8776  0C9F  0008               	return
  8777                           opt subtitle "HI-TECH Software Omniscient Code Generator (Lite mode) build 49521"
  8778                           
  8779  0CA0                     	__end_of___ftmul:
  8780                           opt subtitle "HI-TECH Software Omniscient Code Generator (Lite mode) build 49521"
  8781                           
  8782                           opt pagewidth 120
  8783                           
  8784                           	opt lm
  8785                           
  8786                           	processor	16LF707
  8787                           clrc	macro
  8788                           	bcf	3,0
  8789                           	endm
  8790                           clrz	macro
  8791                           	bcf	3,2
  8792                           	endm
  8793                           setc	macro
  8794                           	bsf	3,0
  8795                           	endm
  8796                           setz	macro
  8797                           	bsf	3,2
  8798                           	endm
  8799                           skipc	macro
  8800                           	btfss	3,0
  8801                           	endm
  8802                           skipz	macro
  8803                           	btfss	3,2
  8804                           	endm
  8805                           skipnc	macro
  8806                           	btfsc	3,0
  8807                           	endm
  8808                           skipnz	macro
  8809                           	btfsc	3,2
  8810                           	endm
  8811                           indf	equ	0
  8812                           indf0	equ	0
  8813                           pc	equ	2
  8814                           pcl	equ	2
  8815                           status	equ	3
  8816                           fsr	equ	4
  8817                           fsr0	equ	4
  8818  0A16                     __ptext1191:	;psect for function ___ftdiv
  8819                           opt subtitle "HI-TECH Software Omniscient Code Generator (Lite mode) build 49521"
  8820                           
  8821                           opt pagewidth 120
  8822                           
  8823  00C8                     	__size_of___ftdiv	equ	__end_of___ftdiv-___ftdiv
  8824                           opt subtitle "HI-TECH Software Omniscient Code Generator (Lite mode) build 49521"
  8825  0A16                     ___ftdiv:	
  8826                           opt subtitle "HI-TECH Software Omniscient Code Generator (Lite mode) build 49521"
  8827                           
  8828                           opt pagewidth 120
  8829                           
  8830  0A16                     l3494:	
  8831  0A16  1283               	bcf	status, 5	;RP0=0, select bank0
  8832  0A17  1303               	bcf	status, 6	;RP1=0, select bank0
  8833  0A18  083F               	movf	(___ftdiv@f1),w
  8834  0A19  00C2               	movwf	((??___ftdiv+0)+0)
  8835  0A1A  0840               	movf	(___ftdiv@f1+1),w
  8836  0A1B  00C3               	movwf	((??___ftdiv+0)+0+1)
  8837  0A1C  0841               	movf	(___ftdiv@f1+2),w
  8838  0A1D  00C4               	movwf	((??___ftdiv+0)+0+2)
  8839  0A1E  1003               	clrc
  8840  0A1F  0D43               	rlf	(??___ftdiv+0)+1,w
  8841  0A20  0D44               	rlf	(??___ftdiv+0)+2,w
  8842  0A21  00C5               	movwf	(??___ftdiv+3)+0
  8843  0A22  0845               	movf	(??___ftdiv+3)+0,w
  8844  0A23  00CA               	movwf	(___ftdiv@exp)
  8845  0A24  08CA               	movf	((___ftdiv@exp)),f
  8846  0A25  1D03               	skipz
  8847  0A26  2A28               	goto	u3191
  8848  0A27  2A29               	goto	u3190
  8849  0A28                     u3191:
  8850  0A28  2A31               	goto	l3500
  8851  0A29                     u3190:
  8852                           opt subtitle "HI-TECH Software Omniscient Code Generator (Lite mode) build 49521"
  8853                           
  8854  0A29                     l3496:	
  8855  0A29  3000               	movlw	0x0
  8856  0A2A  00BC               	movwf	(?___ftdiv)
  8857  0A2B  3000               	movlw	0x0
  8858  0A2C  00BD               	movwf	(?___ftdiv+1)
  8859  0A2D  3000               	movlw	0x0
  8860  0A2E  00BE               	movwf	(?___ftdiv+2)
  8861  0A2F  2ADD               	goto	l531
  8862                           opt subtitle "HI-TECH Software Omniscient Code Generator (Lite mode) build 49521"
  8863  0A30                     l3498:	
  8864  0A30  2ADD               	goto	l531
  8865                           opt subtitle "HI-TECH Software Omniscient Code Generator (Lite mode) build 49521"
  8866  0A31                     l530:	
  8867                           opt subtitle "HI-TECH Software Omniscient Code Generator (Lite mode) build 49521"
  8868                           
  8869  0A31                     l3500:	
  8870  0A31  083C               	movf	(___ftdiv@f2),w
  8871  0A32  00C2               	movwf	((??___ftdiv+0)+0)
  8872  0A33  083D               	movf	(___ftdiv@f2+1),w
  8873  0A34  00C3               	movwf	((??___ftdiv+0)+0+1)
  8874  0A35  083E               	movf	(___ftdiv@f2+2),w
  8875  0A36  00C4               	movwf	((??___ftdiv+0)+0+2)
  8876  0A37  1003               	clrc
  8877  0A38  0D43               	rlf	(??___ftdiv+0)+1,w
  8878  0A39  0D44               	rlf	(??___ftdiv+0)+2,w
  8879  0A3A  00C5               	movwf	(??___ftdiv+3)+0
  8880  0A3B  0845               	movf	(??___ftdiv+3)+0,w
  8881  0A3C  00CB               	movwf	(___ftdiv@sign)
  8882  0A3D  08CB               	movf	((___ftdiv@sign)),f
  8883  0A3E  1D03               	skipz
  8884  0A3F  2A41               	goto	u3201
  8885  0A40  2A42               	goto	u3200
  8886  0A41                     u3201:
  8887  0A41  2A4A               	goto	l3506
  8888  0A42                     u3200:
  8889                           opt subtitle "HI-TECH Software Omniscient Code Generator (Lite mode) build 49521"
  8890                           
  8891  0A42                     l3502:	
  8892  0A42  3000               	movlw	0x0
  8893  0A43  00BC               	movwf	(?___ftdiv)
  8894  0A44  3000               	movlw	0x0
  8895  0A45  00BD               	movwf	(?___ftdiv+1)
  8896  0A46  3000               	movlw	0x0
  8897  0A47  00BE               	movwf	(?___ftdiv+2)
  8898  0A48  2ADD               	goto	l531
  8899                           opt subtitle "HI-TECH Software Omniscient Code Generator (Lite mode) build 49521"
  8900  0A49                     l3504:	
  8901  0A49  2ADD               	goto	l531
  8902                           opt subtitle "HI-TECH Software Omniscient Code Generator (Lite mode) build 49521"
  8903  0A4A                     l532:	
  8904                           opt subtitle "HI-TECH Software Omniscient Code Generator (Lite mode) build 49521"
  8905                           
  8906  0A4A                     l3506:	
  8907  0A4A  3000               	movlw	0
  8908  0A4B  00C7               	movwf	(___ftdiv@f3)
  8909  0A4C  3000               	movlw	0
  8910  0A4D  00C8               	movwf	(___ftdiv@f3+1)
  8911  0A4E  3000               	movlw	0
  8912  0A4F  00C9               	movwf	(___ftdiv@f3+2)
  8913                           opt subtitle "HI-TECH Software Omniscient Code Generator (Lite mode) build 49521"
  8914                           
  8915  0A50                     l3508:	
  8916  0A50  3089               	movlw	(089h)
  8917  0A51  074B               	addwf	(___ftdiv@sign),w
  8918  0A52  00C2               	movwf	(??___ftdiv+0)+0
  8919  0A53  0842               	movf	0+(??___ftdiv+0)+0,w
  8920  0A54  02CA               	subwf	(___ftdiv@exp),f
  8921                           opt subtitle "HI-TECH Software Omniscient Code Generator (Lite mode) build 49521"
  8922                           
  8923  0A55                     l3510:	
  8924  0A55  083F               	movf	(___ftdiv@f1),w
  8925  0A56  00C2               	movwf	((??___ftdiv+0)+0)
  8926  0A57  0840               	movf	(___ftdiv@f1+1),w
  8927  0A58  00C3               	movwf	((??___ftdiv+0)+0+1)
  8928  0A59  0841               	movf	(___ftdiv@f1+2),w
  8929  0A5A  00C4               	movwf	((??___ftdiv+0)+0+2)
  8930  0A5B  3010               	movlw	010h
  8931  0A5C                     u3215:
  8932  0A5C  1003               	clrc
  8933  0A5D  0CC4               	rrf	(??___ftdiv+0)+2,f
  8934  0A5E  0CC3               	rrf	(??___ftdiv+0)+1,f
  8935  0A5F  0CC2               	rrf	(??___ftdiv+0)+0,f
  8936  0A60                     u3210:
  8937  0A60  3EFF               	addlw	-1
  8938  0A61  1D03               	skipz
  8939  0A62  2A5C               	goto	u3215
  8940  0A63  0842               	movf	0+(??___ftdiv+0)+0,w
  8941  0A64  00C5               	movwf	(??___ftdiv+3)+0
  8942  0A65  0845               	movf	(??___ftdiv+3)+0,w
  8943  0A66  00CB               	movwf	(___ftdiv@sign)
  8944                           opt subtitle "HI-TECH Software Omniscient Code Generator (Lite mode) build 49521"
  8945                           
  8946  0A67                     l3512:	
  8947  0A67  083C               	movf	(___ftdiv@f2),w
  8948  0A68  00C2               	movwf	((??___ftdiv+0)+0)
  8949  0A69  083D               	movf	(___ftdiv@f2+1),w
  8950  0A6A  00C3               	movwf	((??___ftdiv+0)+0+1)
  8951  0A6B  083E               	movf	(___ftdiv@f2+2),w
  8952  0A6C  00C4               	movwf	((??___ftdiv+0)+0+2)
  8953  0A6D  3010               	movlw	010h
  8954  0A6E                     u3225:
  8955  0A6E  1003               	clrc
  8956  0A6F  0CC4               	rrf	(??___ftdiv+0)+2,f
  8957  0A70  0CC3               	rrf	(??___ftdiv+0)+1,f
  8958  0A71  0CC2               	rrf	(??___ftdiv+0)+0,f
  8959  0A72                     u3220:
  8960  0A72  3EFF               	addlw	-1
  8961  0A73  1D03               	skipz
  8962  0A74  2A6E               	goto	u3225
  8963  0A75  0842               	movf	0+(??___ftdiv+0)+0,w
  8964  0A76  00C5               	movwf	(??___ftdiv+3)+0
  8965  0A77  0845               	movf	(??___ftdiv+3)+0,w
  8966  0A78  06CB               	xorwf	(___ftdiv@sign),f
  8967                           opt subtitle "HI-TECH Software Omniscient Code Generator (Lite mode) build 49521"
  8968                           
  8969  0A79                     l3514:	
  8970  0A79  3080               	movlw	(080h)
  8971  0A7A  00C2               	movwf	(??___ftdiv+0)+0
  8972  0A7B  0842               	movf	(??___ftdiv+0)+0,w
  8973  0A7C  05CB               	andwf	(___ftdiv@sign),f
  8974                           opt subtitle "HI-TECH Software Omniscient Code Generator (Lite mode) build 49521"
  8975                           
  8976  0A7D                     l3516:	
  8977  0A7D  17C0               	bsf	(___ftdiv@f1)+(15/8),(15)&7
  8978                           opt subtitle "HI-TECH Software Omniscient Code Generator (Lite mode) build 49521"
  8979  0A7E  30FF               	movlw	0FFh
  8980  0A7F  05BF               	andwf	(___ftdiv@f1),f
  8981  0A80  30FF               	movlw	0FFh
  8982  0A81  05C0               	andwf	(___ftdiv@f1+1),f
  8983  0A82  3000               	movlw	0
  8984  0A83  05C1               	andwf	(___ftdiv@f1+2),f
  8985                           opt subtitle "HI-TECH Software Omniscient Code Generator (Lite mode) build 49521"
  8986                           
  8987  0A84                     l3518:	
  8988  0A84  17BD               	bsf	(___ftdiv@f2)+(15/8),(15)&7
  8989                           opt subtitle "HI-TECH Software Omniscient Code Generator (Lite mode) build 49521"
  8990  0A85  30FF               	movlw	0FFh
  8991  0A86  05BC               	andwf	(___ftdiv@f2),f
  8992  0A87  30FF               	movlw	0FFh
  8993  0A88  05BD               	andwf	(___ftdiv@f2+1),f
  8994  0A89  3000               	movlw	0
  8995  0A8A  05BE               	andwf	(___ftdiv@f2+2),f
  8996                           opt subtitle "HI-TECH Software Omniscient Code Generator (Lite mode) build 49521"
  8997  0A8B  3018               	movlw	(018h)
  8998  0A8C  00C2               	movwf	(??___ftdiv+0)+0
  8999  0A8D  0842               	movf	(??___ftdiv+0)+0,w
  9000  0A8E  00C6               	movwf	(___ftdiv@cntr)
  9001  0A8F  2A90               	goto	l3520
  9002                           opt subtitle "HI-TECH Software Omniscient Code Generator (Lite mode) build 49521"
  9003                           
  9004  0A90                     l533:	
  9005                           opt subtitle "HI-TECH Software Omniscient Code Generator (Lite mode) build 49521"
  9006                           
  9007  0A90                     l3520:	
  9008  0A90  3001               	movlw	01h
  9009  0A91                     u3235:
  9010  0A91  1003               	clrc
  9011  0A92  0DC7               	rlf	(___ftdiv@f3),f
  9012  0A93  0DC8               	rlf	(___ftdiv@f3+1),f
  9013  0A94  0DC9               	rlf	(___ftdiv@f3+2),f
  9014  0A95  3EFF               	addlw	-1
  9015  0A96  1D03               	skipz
  9016  0A97  2A91               	goto	u3235
  9017                           opt subtitle "HI-TECH Software Omniscient Code Generator (Lite mode) build 49521"
  9018                           
  9019  0A98                     l3522:	
  9020  0A98  083E               	movf	(___ftdiv@f2+2),w
  9021  0A99  0241               	subwf	(___ftdiv@f1+2),w
  9022  0A9A  1D03               	skipz
  9023  0A9B  2AA2               	goto	u3245
  9024  0A9C  083D               	movf	(___ftdiv@f2+1),w
  9025  0A9D  0240               	subwf	(___ftdiv@f1+1),w
  9026  0A9E  1D03               	skipz
  9027  0A9F  2AA2               	goto	u3245
  9028  0AA0  083C               	movf	(___ftdiv@f2),w
  9029  0AA1  023F               	subwf	(___ftdiv@f1),w
  9030  0AA2                     u3245:
  9031  0AA2  1C03               	skipc
  9032  0AA3  2AA5               	goto	u3241
  9033  0AA4  2AA6               	goto	u3240
  9034  0AA5                     u3241:
  9035  0AA5  2AB2               	goto	l3528
  9036  0AA6                     u3240:
  9037                           opt subtitle "HI-TECH Software Omniscient Code Generator (Lite mode) build 49521"
  9038                           
  9039  0AA6                     l3524:	
  9040  0AA6  083C               	movf	(___ftdiv@f2),w
  9041  0AA7  02BF               	subwf	(___ftdiv@f1),f
  9042  0AA8  083D               	movf	(___ftdiv@f2+1),w
  9043  0AA9  1C03               	skipc
  9044  0AAA  0F3D               	incfsz	(___ftdiv@f2+1),w
  9045  0AAB  02C0               	subwf	(___ftdiv@f1+1),f
  9046  0AAC  083E               	movf	(___ftdiv@f2+2),w
  9047  0AAD  1C03               	skipc
  9048  0AAE  0A3E               	incf	(___ftdiv@f2+2),w
  9049  0AAF  02C1               	subwf	(___ftdiv@f1+2),f
  9050                           opt subtitle "HI-TECH Software Omniscient Code Generator (Lite mode) build 49521"
  9051                           
  9052  0AB0                     l3526:	
  9053  0AB0  1447               	bsf	(___ftdiv@f3)+(0/8),(0)&7
  9054  0AB1  2AB2               	goto	l3528
  9055                           opt subtitle "HI-TECH Software Omniscient Code Generator (Lite mode) build 49521"
  9056                           
  9057  0AB2                     l534:	
  9058                           opt subtitle "HI-TECH Software Omniscient Code Generator (Lite mode) build 49521"
  9059                           
  9060  0AB2                     l3528:	
  9061  0AB2  3001               	movlw	01h
  9062  0AB3                     u3255:
  9063  0AB3  1003               	clrc
  9064  0AB4  0DBF               	rlf	(___ftdiv@f1),f
  9065  0AB5  0DC0               	rlf	(___ftdiv@f1+1),f
  9066  0AB6  0DC1               	rlf	(___ftdiv@f1+2),f
  9067  0AB7  3EFF               	addlw	-1
  9068  0AB8  1D03               	skipz
  9069  0AB9  2AB3               	goto	u3255
  9070                           opt subtitle "HI-TECH Software Omniscient Code Generator (Lite mode) build 49521"
  9071                           
  9072  0ABA                     l3530:	
  9073  0ABA  3001               	movlw	low(01h)
  9074  0ABB  02C6               	subwf	(___ftdiv@cntr),f
  9075  0ABC  1D03               	btfss	status,2
  9076  0ABD  2ABF               	goto	u3261
  9077  0ABE  2AC0               	goto	u3260
  9078  0ABF                     u3261:
  9079  0ABF  2A90               	goto	l3520
  9080  0AC0                     u3260:
  9081  0AC0  2AC1               	goto	l3532
  9082                           opt subtitle "HI-TECH Software Omniscient Code Generator (Lite mode) build 49521"
  9083  0AC1                     l535:	
  9084                           opt subtitle "HI-TECH Software Omniscient Code Generator (Lite mode) build 49521"
  9085                           
  9086  0AC1                     l3532:	
  9087  0AC1  0847               	movf	(___ftdiv@f3),w
  9088  0AC2  00B4               	movwf	(?___ftpack)
  9089  0AC3  0848               	movf	(___ftdiv@f3+1),w
  9090  0AC4  00B5               	movwf	(?___ftpack+1)
  9091  0AC5  0849               	movf	(___ftdiv@f3+2),w
  9092  0AC6  00B6               	movwf	(?___ftpack+2)
  9093  0AC7  084A               	movf	(___ftdiv@exp),w
  9094  0AC8  00C2               	movwf	(??___ftdiv+0)+0
  9095  0AC9  0842               	movf	(??___ftdiv+0)+0,w
  9096  0ACA  00B7               	movwf	0+(?___ftpack)+03h
  9097  0ACB  084B               	movf	(___ftdiv@sign),w
  9098  0ACC  00C3               	movwf	(??___ftdiv+1)+0
  9099  0ACD  0843               	movf	(??___ftdiv+1)+0,w
  9100  0ACE  00B8               	movwf	0+(?___ftpack)+04h
  9101  0ACF  120A  158A  20F3   	fcall	___ftpack
              120A  158A         
  9102  0AD4  1283               	bcf	status, 5	;RP0=0, select bank0
  9103  0AD5  1303               	bcf	status, 6	;RP1=0, select bank0
  9104  0AD6  0834               	movf	(0+(?___ftpack)),w
  9105  0AD7  00BC               	movwf	(?___ftdiv)
  9106  0AD8  0835               	movf	(1+(?___ftpack)),w
  9107  0AD9  00BD               	movwf	(?___ftdiv+1)
  9108  0ADA  0836               	movf	(2+(?___ftpack)),w
  9109  0ADB  00BE               	movwf	(?___ftdiv+2)
  9110  0ADC  2ADD               	goto	l531
  9111                           opt subtitle "HI-TECH Software Omniscient Code Generator (Lite mode) build 49521"
  9112  0ADD                     l3534:	
  9113                           opt subtitle "HI-TECH Software Omniscient Code Generator (Lite mode) build 49521"
  9114                           
  9115  0ADD                     l531:	
  9116  0ADD  0008               	return
  9117                           opt subtitle "HI-TECH Software Omniscient Code Generator (Lite mode) build 49521"
  9118                           
  9119  0ADE                     	__end_of___ftdiv:
  9120                           opt subtitle "HI-TECH Software Omniscient Code Generator (Lite mode) build 49521"
  9121                           
  9122                           opt pagewidth 120
  9123                           
  9124                           	opt lm
  9125                           
  9126                           	processor	16LF707
  9127                           clrc	macro
  9128                           	bcf	3,0
  9129                           	endm
  9130                           clrz	macro
  9131                           	bcf	3,2
  9132                           	endm
  9133                           setc	macro
  9134                           	bsf	3,0
  9135                           	endm
  9136                           setz	macro
  9137                           	bsf	3,2
  9138                           	endm
  9139                           skipc	macro
  9140                           	btfss	3,0
  9141                           	endm
  9142                           skipz	macro
  9143                           	btfss	3,2
  9144                           	endm
  9145                           skipnc	macro
  9146                           	btfsc	3,0
  9147                           	endm
  9148                           skipnz	macro
  9149                           	btfsc	3,2
  9150                           	endm
  9151                           indf	equ	0
  9152                           indf0	equ	0
  9153                           pc	equ	2
  9154                           pcl	equ	2
  9155                           status	equ	3
  9156                           fsr	equ	4
  9157  08F3                     __ptext1192:	;psect for function ___ftpack
  9158                           opt subtitle "HI-TECH Software Omniscient Code Generator (Lite mode) build 49521"
  9159                           
  9160                           opt pagewidth 120
  9161                           
  9162  007D                     	__size_of___ftpack	equ	__end_of___ftpack-___ftpack
  9163                           opt subtitle "HI-TECH Software Omniscient Code Generator (Lite mode) build 49521"
  9164  08F3                     ___ftpack:	
  9165                           opt subtitle "HI-TECH Software Omniscient Code Generator (Lite mode) build 49521"
  9166                           
  9167                           opt pagewidth 120
  9168                           
  9169  08F3                     l3464:	
  9170  08F3  1283               	bcf	status, 5	;RP0=0, select bank0
  9171  08F4  1303               	bcf	status, 6	;RP1=0, select bank0
  9172  08F5  0837               	movf	(___ftpack@exp),w
  9173  08F6  1D03               	skipz
  9174  08F7  28F9               	goto	u3080
  9175  08F8  2901               	goto	l3468
  9176  08F9                     u3080:
  9177                           opt subtitle "HI-TECH Software Omniscient Code Generator (Lite mode) build 49521"
  9178  08F9                     l3466:	
  9179  08F9  0836               	movf	(___ftpack@arg+2),w
  9180  08FA  0435               	iorwf	(___ftpack@arg+1),w
  9181  08FB  0434               	iorwf	(___ftpack@arg),w
  9182  08FC  1D03               	skipz
  9183  08FD  28FF               	goto	u3091
  9184  08FE  2900               	goto	u3090
  9185  08FF                     u3091:
  9186  08FF  2917               	goto	l3474
  9187  0900                     u3090:
  9188  0900  2901               	goto	l3468
  9189                           opt subtitle "HI-TECH Software Omniscient Code Generator (Lite mode) build 49521"
  9190  0901                     l776:	
  9191                           opt subtitle "HI-TECH Software Omniscient Code Generator (Lite mode) build 49521"
  9192                           
  9193  0901                     l3468:	
  9194  0901  3000               	movlw	0x0
  9195  0902  00B4               	movwf	(?___ftpack)
  9196  0903  3000               	movlw	0x0
  9197  0904  00B5               	movwf	(?___ftpack+1)
  9198  0905  3000               	movlw	0x0
  9199  0906  00B6               	movwf	(?___ftpack+2)
  9200  0907  296F               	goto	l777
  9201                           opt subtitle "HI-TECH Software Omniscient Code Generator (Lite mode) build 49521"
  9202  0908                     l3470:	
  9203  0908  296F               	goto	l777
  9204                           opt subtitle "HI-TECH Software Omniscient Code Generator (Lite mode) build 49521"
  9205  0909                     l774:	
  9206                           opt subtitle "HI-TECH Software Omniscient Code Generator (Lite mode) build 49521"
  9207  0909  2917               	goto	l3474
  9208                           opt subtitle "HI-TECH Software Omniscient Code Generator (Lite mode) build 49521"
  9209  090A                     l779:	
  9210                           opt subtitle "HI-TECH Software Omniscient Code Generator (Lite mode) build 49521"
  9211                           
  9212  090A                     l3472:	
  9213  090A  3001               	movlw	(01h)
  9214  090B  00B9               	movwf	(??___ftpack+0)+0
  9215  090C  0839               	movf	(??___ftpack+0)+0,w
  9216  090D  07B7               	addwf	(___ftpack@exp),f
  9217                           opt subtitle "HI-TECH Software Omniscient Code Generator (Lite mode) build 49521"
  9218  090E  3001               	movlw	01h
  9219  090F                     u3105:
  9220  090F  1003               	clrc
  9221  0910  0CB6               	rrf	(___ftpack@arg+2),f
  9222  0911  0CB5               	rrf	(___ftpack@arg+1),f
  9223  0912  0CB4               	rrf	(___ftpack@arg),f
  9224  0913  3EFF               	addlw	-1
  9225  0914  1D03               	skipz
  9226  0915  290F               	goto	u3105
  9227                           opt subtitle "HI-TECH Software Omniscient Code Generator (Lite mode) build 49521"
  9228  0916  2917               	goto	l3474
  9229                           opt subtitle "HI-TECH Software Omniscient Code Generator (Lite mode) build 49521"
  9230                           
  9231  0917                     l778:	
  9232                           opt subtitle "HI-TECH Software Omniscient Code Generator (Lite mode) build 49521"
  9233                           
  9234  0917                     l3474:	
  9235  0917  30FE               	movlw	low highword(0FE0000h)
  9236  0918  0536               	andwf	(___ftpack@arg+2),w
  9237  0919  1D03               	btfss	status,2
  9238  091A  291C               	goto	u3111
  9239  091B  291D               	goto	u3110
  9240  091C                     u3111:
  9241  091C  290A               	goto	l3472
  9242  091D                     u3110:
  9243  091D  2935               	goto	l781
  9244                           opt subtitle "HI-TECH Software Omniscient Code Generator (Lite mode) build 49521"
  9245  091E                     l780:	
  9246                           opt subtitle "HI-TECH Software Omniscient Code Generator (Lite mode) build 49521"
  9247  091E  2935               	goto	l781
  9248                           opt subtitle "HI-TECH Software Omniscient Code Generator (Lite mode) build 49521"
  9249  091F                     l782:	
  9250                           opt subtitle "HI-TECH Software Omniscient Code Generator (Lite mode) build 49521"
  9251                           
  9252  091F                     l3476:	
  9253  091F  3001               	movlw	(01h)
  9254  0920  00B9               	movwf	(??___ftpack+0)+0
  9255  0921  0839               	movf	(??___ftpack+0)+0,w
  9256  0922  07B7               	addwf	(___ftpack@exp),f
  9257                           opt subtitle "HI-TECH Software Omniscient Code Generator (Lite mode) build 49521"
  9258                           
  9259  0923                     l3478:	
  9260  0923  3001               	movlw	01h
  9261  0924  07B4               	addwf	(___ftpack@arg),f
  9262  0925  3000               	movlw	0
  9263  0926  1803               	skipnc
  9264  0927  3001               movlw 1
  9265  0928  07B5               	addwf	(___ftpack@arg+1),f
  9266  0929  3000               	movlw	0
  9267  092A  1803               	skipnc
  9268  092B  3001               movlw 1
  9269  092C  07B6               	addwf	(___ftpack@arg+2),f
  9270                           opt subtitle "HI-TECH Software Omniscient Code Generator (Lite mode) build 49521"
  9271                           
  9272  092D                     l3480:	
  9273  092D  3001               	movlw	01h
  9274  092E                     u3125:
  9275  092E  1003               	clrc
  9276  092F  0CB6               	rrf	(___ftpack@arg+2),f
  9277  0930  0CB5               	rrf	(___ftpack@arg+1),f
  9278  0931  0CB4               	rrf	(___ftpack@arg),f
  9279  0932  3EFF               	addlw	-1
  9280  0933  1D03               	skipz
  9281  0934  292E               	goto	u3125
  9282                           opt subtitle "HI-TECH Software Omniscient Code Generator (Lite mode) build 49521"
  9283                           
  9284                           opt pagewidth 120
  9285  0935                     l781:	
  9286                           opt subtitle "HI-TECH Software Omniscient Code Generator (Lite mode) build 49521"
  9287  0935  30FF               	movlw	low highword(0FF0000h)
  9288  0936  0536               	andwf	(___ftpack@arg+2),w
  9289  0937  1D03               	btfss	status,2
  9290  0938  293A               	goto	u3131
  9291  0939  293B               	goto	u3130
  9292  093A                     u3131:
  9293  093A  291F               	goto	l3476
  9294  093B                     u3130:
  9295  093B  2948               	goto	l3484
  9296                           opt subtitle "HI-TECH Software Omniscient Code Generator (Lite mode) build 49521"
  9297  093C                     l783:	
  9298                           opt subtitle "HI-TECH Software Omniscient Code Generator (Lite mode) build 49521"
  9299  093C  2948               	goto	l3484
  9300                           opt subtitle "HI-TECH Software Omniscient Code Generator (Lite mode) build 49521"
  9301  093D                     l785:	
  9302                           opt subtitle "HI-TECH Software Omniscient Code Generator (Lite mode) build 49521"
  9303                           
  9304  093D                     l3482:	
  9305  093D  3001               	movlw	low(01h)
  9306  093E  02B7               	subwf	(___ftpack@exp),f
  9307                           opt subtitle "HI-TECH Software Omniscient Code Generator (Lite mode) build 49521"
  9308  093F  3001               	movlw	01h
  9309  0940                     u3145:
  9310  0940  1003               	clrc
  9311  0941  0DB4               	rlf	(___ftpack@arg),f
  9312  0942  0DB5               	rlf	(___ftpack@arg+1),f
  9313  0943  0DB6               	rlf	(___ftpack@arg+2),f
  9314  0944  3EFF               	addlw	-1
  9315  0945  1D03               	skipz
  9316  0946  2940               	goto	u3145
  9317  0947  2948               	goto	l3484
  9318                           opt subtitle "HI-TECH Software Omniscient Code Generator (Lite mode) build 49521"
  9319                           
  9320  0948                     l784:	
  9321                           opt subtitle "HI-TECH Software Omniscient Code Generator (Lite mode) build 49521"
  9322                           
  9323  0948                     l3484:	
  9324  0948  1FB5               	btfss	(___ftpack@arg+1),(15)&7
  9325  0949  294B               	goto	u3151
  9326  094A  294C               	goto	u3150
  9327  094B                     u3151:
  9328  094B  293D               	goto	l3482
  9329  094C                     u3150:
  9330                           opt subtitle "HI-TECH Software Omniscient Code Generator (Lite mode) build 49521"
  9331  094C                     l786:	
  9332                           opt subtitle "HI-TECH Software Omniscient Code Generator (Lite mode) build 49521"
  9333  094C  1837               	btfsc	(___ftpack@exp),(0)&7
  9334  094D  294F               	goto	u3161
  9335  094E  2950               	goto	u3160
  9336  094F                     u3161:
  9337  094F  2956               	goto	l787
  9338  0950                     u3160:
  9339                           opt subtitle "HI-TECH Software Omniscient Code Generator (Lite mode) build 49521"
  9340                           
  9341  0950                     l3486:	
  9342  0950  30FF               	movlw	0FFh
  9343  0951  05B4               	andwf	(___ftpack@arg),f
  9344  0952  307F               	movlw	07Fh
  9345  0953  05B5               	andwf	(___ftpack@arg+1),f
  9346  0954  30FF               	movlw	0FFh
  9347  0955  05B6               	andwf	(___ftpack@arg+2),f
  9348                           opt subtitle "HI-TECH Software Omniscient Code Generator (Lite mode) build 49521"
  9349  0956                     l787:	
  9350                           opt subtitle "HI-TECH Software Omniscient Code Generator (Lite mode) build 49521"
  9351  0956  1003               	clrc
  9352  0957  0CB7               	rrf	(___ftpack@exp),f
  9353                           opt subtitle "HI-TECH Software Omniscient Code Generator (Lite mode) build 49521"
  9354                           
  9355                           opt pagewidth 120
  9356  0958                     l3488:	
  9357  0958  0837               	movf	(___ftpack@exp),w
  9358  0959  00B9               	movwf	((??___ftpack+0)+0)
  9359  095A  01BA               	clrf	((??___ftpack+0)+0+1)
  9360  095B  01BB               	clrf	((??___ftpack+0)+0+2)
  9361  095C  3010               	movlw	010h
  9362  095D                     u3175:
  9363  095D  1003               	clrc
  9364  095E  0DB9               	rlf	(??___ftpack+0)+0,f
  9365  095F  0DBA               	rlf	(??___ftpack+0)+1,f
  9366  0960  0DBB               	rlf	(??___ftpack+0)+2,f
  9367  0961                     u3170:
  9368  0961  3EFF               	addlw	-1
  9369  0962  1D03               	skipz
  9370  0963  295D               	goto	u3175
  9371  0964  0839               	movf	0+(??___ftpack+0)+0,w
  9372  0965  04B4               	iorwf	(___ftpack@arg),f
  9373  0966  083A               	movf	1+(??___ftpack+0)+0,w
  9374  0967  04B5               	iorwf	(___ftpack@arg+1),f
  9375  0968  083B               	movf	2+(??___ftpack+0)+0,w
  9376  0969  04B6               	iorwf	(___ftpack@arg+2),f
  9377                           opt subtitle "HI-TECH Software Omniscient Code Generator (Lite mode) build 49521"
  9378                           
  9379  096A                     l3490:	
  9380  096A  0838               	movf	(___ftpack@sign),w
  9381  096B  1D03               	skipz
  9382  096C  296E               	goto	u3180
  9383  096D  296F               	goto	l788
  9384  096E                     u3180:
  9385                           opt subtitle "HI-TECH Software Omniscient Code Generator (Lite mode) build 49521"
  9386                           
  9387  096E                     l3492:	
  9388  096E  17B6               	bsf	(___ftpack@arg)+(23/8),(23)&7
  9389                           opt subtitle "HI-TECH Software Omniscient Code Generator (Lite mode) build 49521"
  9390  096F                     l788:	
  9391                           opt subtitle "HI-TECH Software Omniscient Code Generator (Lite mode) build 49521"
  9392                           
  9393                           opt pagewidth 120
  9394  096F                     l777:	
  9395  096F  0008               	return
  9396                           opt subtitle "HI-TECH Software Omniscient Code Generator (Lite mode) build 49521"
  9397                           
  9398  0970                     	__end_of___ftpack:
  9399                           opt subtitle "HI-TECH Software Omniscient Code Generator (Lite mode) build 49521"
  9400                           
  9401                           opt pagewidth 120
  9402                           
  9403                           	opt lm
  9404                           
  9405                           	processor	16LF707
  9406                           clrc	macro
  9407                           	bcf	3,0
  9408                           	endm
  9409                           clrz	macro
  9410                           	bcf	3,2
  9411                           	endm
  9412                           setc	macro
  9413                           	bsf	3,0
  9414                           	endm
  9415                           setz	macro
  9416                           	bsf	3,2
  9417                           	endm
  9418                           skipc	macro
  9419                           	btfss	3,0
  9420                           	endm
  9421                           skipz	macro
  9422                           	btfss	3,2
  9423                           	endm
  9424                           skipnc	macro
  9425                           	btfsc	3,0
  9426                           	endm
  9427                           skipnz	macro
  9428                           	btfsc	3,2
  9429                           	endm
  9430                           indf	equ	0
  9431                           indf0	equ	0
  9432                           pc	equ	2
  9433                           pcl	equ	2
  9434  07D0                     __ptext1193:	;psect for function ___wmul
  9435                           opt subtitle "HI-TECH Software Omniscient Code Generator (Lite mode) build 49521"
  9436                           
  9437                           opt pagewidth 120
  9438                           
  9439  002C                     	__size_of___wmul	equ	__end_of___wmul-___wmul
  9440                           opt subtitle "HI-TECH Software Omniscient Code Generator (Lite mode) build 49521"
  9441  07D0                     ___wmul:	
  9442                           opt subtitle "HI-TECH Software Omniscient Code Generator (Lite mode) build 49521"
  9443                           
  9444                           opt pagewidth 120
  9445                           
  9446  07D0                     l3404:	
  9447  07D0  1283               	bcf	status, 5	;RP0=0, select bank0
  9448  07D1  1303               	bcf	status, 6	;RP1=0, select bank0
  9449  07D2  01B8               	clrf	(___wmul@product)
  9450  07D3  01B9               	clrf	(___wmul@product+1)
  9451  07D4  2FD5               	goto	l3406
  9452                           opt subtitle "HI-TECH Software Omniscient Code Generator (Lite mode) build 49521"
  9453                           
  9454  07D5                     l442:	
  9455                           opt subtitle "HI-TECH Software Omniscient Code Generator (Lite mode) build 49521"
  9456                           
  9457  07D5                     l3406:	
  9458  07D5  1C34               	btfss	(___wmul@multiplier),(0)&7
  9459  07D6  2FD8               	goto	u2911
  9460  07D7  2FD9               	goto	u2910
  9461  07D8                     u2911:
  9462  07D8  2FDF               	goto	l443
  9463  07D9                     u2910:
  9464                           opt subtitle "HI-TECH Software Omniscient Code Generator (Lite mode) build 49521"
  9465                           
  9466  07D9                     l3408:	
  9467  07D9  0836               	movf	(___wmul@multiplicand),w
  9468  07DA  07B8               	addwf	(___wmul@product),f
  9469  07DB  1803               	skipnc
  9470  07DC  0AB9               	incf	(___wmul@product+1),f
  9471  07DD  0837               	movf	(___wmul@multiplicand+1),w
  9472  07DE  07B9               	addwf	(___wmul@product+1),f
  9473                           opt subtitle "HI-TECH Software Omniscient Code Generator (Lite mode) build 49521"
  9474  07DF                     l443:	
  9475                           opt subtitle "HI-TECH Software Omniscient Code Generator (Lite mode) build 49521"
  9476  07DF  3001               	movlw	01h
  9477                           opt subtitle "HI-TECH Software Omniscient Code Generator (Lite mode) build 49521"
  9478  07E0                     u2925:
  9479  07E0  1003               	clrc
  9480  07E1  0DB6               	rlf	(___wmul@multiplicand),f
  9481  07E2  0DB7               	rlf	(___wmul@multiplicand+1),f
  9482  07E3  3EFF               	addlw	-1
  9483  07E4  1D03               	skipz
  9484  07E5  2FE0               	goto	u2925
  9485                           opt subtitle "HI-TECH Software Omniscient Code Generator (Lite mode) build 49521"
  9486                           
  9487  07E6                     l3410:	
  9488  07E6  3001               	movlw	01h
  9489                           opt subtitle "HI-TECH Software Omniscient Code Generator (Lite mode) build 49521"
  9490  07E7                     u2935:
  9491  07E7  1003               	clrc
  9492  07E8  0CB5               	rrf	(___wmul@multiplier+1),f
  9493  07E9  0CB4               	rrf	(___wmul@multiplier),f
  9494  07EA  3EFF               	addlw	-1
  9495  07EB  1D03               	skipz
  9496  07EC  2FE7               	goto	u2935
  9497                           opt subtitle "HI-TECH Software Omniscient Code Generator (Lite mode) build 49521"
  9498  07ED  0835               	movf	((___wmul@multiplier+1)),w
  9499  07EE  0434               	iorwf	((___wmul@multiplier)),w
  9500  07EF  1D03               	skipz
  9501  07F0  2FF2               	goto	u2941
  9502  07F1  2FF3               	goto	u2940
  9503  07F2                     u2941:
  9504  07F2  2FD5               	goto	l3406
  9505  07F3                     u2940:
  9506  07F3  2FF4               	goto	l3412
  9507                           opt subtitle "HI-TECH Software Omniscient Code Generator (Lite mode) build 49521"
  9508  07F4                     l444:	
  9509                           opt subtitle "HI-TECH Software Omniscient Code Generator (Lite mode) build 49521"
  9510                           
  9511  07F4                     l3412:	
  9512  07F4  0839               	movf	(___wmul@product+1),w
  9513  07F5  01B5               	clrf	(?___wmul+1)
  9514  07F6  07B5               	addwf	(?___wmul+1)
  9515  07F7  0838               	movf	(___wmul@product),w
  9516  07F8  01B4               	clrf	(?___wmul)
  9517  07F9  07B4               	addwf	(?___wmul)
  9518                           opt subtitle "HI-TECH Software Omniscient Code Generator (Lite mode) build 49521"
  9519  07FA  2FFB               	goto	l445
  9520                           opt subtitle "HI-TECH Software Omniscient Code Generator (Lite mode) build 49521"
  9521  07FB                     l3414:	
  9522                           opt subtitle "HI-TECH Software Omniscient Code Generator (Lite mode) build 49521"
  9523                           
  9524  07FB                     l445:	
  9525  07FB  0008               	return
  9526                           opt subtitle "HI-TECH Software Omniscient Code Generator (Lite mode) build 49521"
  9527                           
  9528  07FC                     	__end_of___wmul:
  9529                           opt subtitle "HI-TECH Software Omniscient Code Generator (Lite mode) build 49521"
  9530                           
  9531                           opt pagewidth 120
  9532                           
  9533                           	opt lm
  9534                           
  9535                           	processor	16LF707
  9536                           clrc	macro
  9537                           	bcf	3,0
  9538                           	endm
  9539                           clrz	macro
  9540                           	bcf	3,2
  9541                           	endm
  9542                           setc	macro
  9543                           	bsf	3,0
  9544                           	endm
  9545                           setz	macro
  9546                           	bsf	3,2
  9547                           	endm
  9548                           skipc	macro
  9549                           	btfss	3,0
  9550                           	endm
  9551                           skipz	macro
  9552                           	btfss	3,2
  9553                           	endm
  9554                           skipnc	macro
  9555                           	btfsc	3,0
  9556                           	endm
  9557                           skipnz	macro
  9558                           	btfsc	3,2
  9559                           	endm
  9560                           indf	equ	0
  9561                           indf0	equ	0
  9562                           pc	equ	2
  9563                           pcl	equ	2
  9564                           status	equ	3
  9565  17B1                     __ptext1194:	;psect for function ___lwdiv
  9566                           opt subtitle "HI-TECH Software Omniscient Code Generator (Lite mode) build 49521"
  9567                           
  9568                           opt pagewidth 120
  9569                           
  9570  004F                     	__size_of___lwdiv	equ	__end_of___lwdiv-___lwdiv
  9571                           opt subtitle "HI-TECH Software Omniscient Code Generator (Lite mode) build 49521"
  9572  17B1                     ___lwdiv:	
  9573                           opt subtitle "HI-TECH Software Omniscient Code Generator (Lite mode) build 49521"
  9574                           
  9575                           opt pagewidth 120
  9576                           
  9577  17B1                     l4560:	
  9578  17B1  1283               	bcf	status, 5	;RP0=0, select bank0
  9579  17B2  1303               	bcf	status, 6	;RP1=0, select bank0
  9580  17B3  01BA               	clrf	(___lwdiv@quotient)
  9581  17B4  01BB               	clrf	(___lwdiv@quotient+1)
  9582                           opt subtitle "HI-TECH Software Omniscient Code Generator (Lite mode) build 49521"
  9583                           
  9584  17B5                     l4562:	
  9585  17B5  0835               	movf	(___lwdiv@divisor+1),w
  9586  17B6  0434               	iorwf	(___lwdiv@divisor),w
  9587  17B7  1903               	skipnz
  9588  17B8  2FBA               	goto	u4591
  9589  17B9  2FBB               	goto	u4590
  9590  17BA                     u4591:
  9591  17BA  2FF8               	goto	l4582
  9592  17BB                     u4590:
  9593                           opt subtitle "HI-TECH Software Omniscient Code Generator (Lite mode) build 49521"
  9594                           
  9595  17BB                     l4564:	
  9596  17BB  01B9               	clrf	(___lwdiv@counter)
  9597  17BC  0AB9               	incf	(___lwdiv@counter),f
  9598                           opt subtitle "HI-TECH Software Omniscient Code Generator (Lite mode) build 49521"
  9599  17BD  2FCA               	goto	l4570
  9600                           opt subtitle "HI-TECH Software Omniscient Code Generator (Lite mode) build 49521"
  9601  17BE                     l450:	
  9602                           opt subtitle "HI-TECH Software Omniscient Code Generator (Lite mode) build 49521"
  9603                           
  9604  17BE                     l4566:	
  9605  17BE  3001               	movlw	01h
  9606                           opt subtitle "HI-TECH Software Omniscient Code Generator (Lite mode) build 49521"
  9607  17BF                     u4605:
  9608  17BF  1003               	clrc
  9609  17C0  0DB4               	rlf	(___lwdiv@divisor),f
  9610  17C1  0DB5               	rlf	(___lwdiv@divisor+1),f
  9611  17C2  3EFF               	addlw	-1
  9612  17C3  1D03               	skipz
  9613  17C4  2FBF               	goto	u4605
  9614                           opt subtitle "HI-TECH Software Omniscient Code Generator (Lite mode) build 49521"
  9615                           
  9616  17C5                     l4568:	
  9617  17C5  3001               	movlw	(01h)
  9618  17C6  00B8               	movwf	(??___lwdiv+0)+0
  9619  17C7  0838               	movf	(??___lwdiv+0)+0,w
  9620  17C8  07B9               	addwf	(___lwdiv@counter),f
  9621  17C9  2FCA               	goto	l4570
  9622                           opt subtitle "HI-TECH Software Omniscient Code Generator (Lite mode) build 49521"
  9623                           
  9624  17CA                     l449:	
  9625                           opt subtitle "HI-TECH Software Omniscient Code Generator (Lite mode) build 49521"
  9626                           
  9627  17CA                     l4570:	
  9628  17CA  1FB5               	btfss	(___lwdiv@divisor+1),(15)&7
  9629  17CB  2FCD               	goto	u4611
  9630  17CC  2FCE               	goto	u4610
  9631  17CD                     u4611:
  9632  17CD  2FBE               	goto	l4566
  9633  17CE                     u4610:
  9634  17CE  2FD0               	goto	l4572
  9635                           opt subtitle "HI-TECH Software Omniscient Code Generator (Lite mode) build 49521"
  9636  17CF                     l451:	
  9637  17CF  2FD0               	goto	l4572
  9638                           opt subtitle "HI-TECH Software Omniscient Code Generator (Lite mode) build 49521"
  9639                           
  9640  17D0                     l452:	
  9641                           opt subtitle "HI-TECH Software Omniscient Code Generator (Lite mode) build 49521"
  9642                           
  9643  17D0                     l4572:	
  9644  17D0  3001               	movlw	01h
  9645                           opt subtitle "HI-TECH Software Omniscient Code Generator (Lite mode) build 49521"
  9646  17D1                     u4625:
  9647  17D1  1003               	clrc
  9648  17D2  0DBA               	rlf	(___lwdiv@quotient),f
  9649  17D3  0DBB               	rlf	(___lwdiv@quotient+1),f
  9650  17D4  3EFF               	addlw	-1
  9651  17D5  1D03               	skipz
  9652  17D6  2FD1               	goto	u4625
  9653                           opt subtitle "HI-TECH Software Omniscient Code Generator (Lite mode) build 49521"
  9654  17D7  0835               	movf	(___lwdiv@divisor+1),w
  9655  17D8  0237               	subwf	(___lwdiv@dividend+1),w
  9656  17D9  1D03               	skipz
  9657  17DA  2FDD               	goto	u4635
  9658  17DB  0834               	movf	(___lwdiv@divisor),w
  9659  17DC  0236               	subwf	(___lwdiv@dividend),w
  9660  17DD                     u4635:
  9661  17DD  1C03               	skipc
  9662  17DE  2FE0               	goto	u4631
  9663  17DF  2FE1               	goto	u4630
  9664  17E0                     u4631:
  9665  17E0  2FE9               	goto	l4578
  9666  17E1                     u4630:
  9667                           opt subtitle "HI-TECH Software Omniscient Code Generator (Lite mode) build 49521"
  9668                           
  9669  17E1                     l4574:	
  9670  17E1  0834               	movf	(___lwdiv@divisor),w
  9671  17E2  02B6               	subwf	(___lwdiv@dividend),f
  9672  17E3  0835               	movf	(___lwdiv@divisor+1),w
  9673  17E4  1C03               	skipc
  9674  17E5  03B7               	decf	(___lwdiv@dividend+1),f
  9675  17E6  02B7               	subwf	(___lwdiv@dividend+1),f
  9676                           opt subtitle "HI-TECH Software Omniscient Code Generator (Lite mode) build 49521"
  9677                           
  9678  17E7                     l4576:	
  9679  17E7  143A               	bsf	(___lwdiv@quotient)+(0/8),(0)&7
  9680  17E8  2FE9               	goto	l4578
  9681                           opt subtitle "HI-TECH Software Omniscient Code Generator (Lite mode) build 49521"
  9682                           
  9683  17E9                     l453:	
  9684                           opt subtitle "HI-TECH Software Omniscient Code Generator (Lite mode) build 49521"
  9685                           
  9686  17E9                     l4578:	
  9687  17E9  3001               	movlw	01h
  9688                           opt subtitle "HI-TECH Software Omniscient Code Generator (Lite mode) build 49521"
  9689  17EA                     u4645:
  9690  17EA  1003               	clrc
  9691  17EB  0CB5               	rrf	(___lwdiv@divisor+1),f
  9692  17EC  0CB4               	rrf	(___lwdiv@divisor),f
  9693  17ED  3EFF               	addlw	-1
  9694  17EE  1D03               	skipz
  9695  17EF  2FEA               	goto	u4645
  9696                           opt subtitle "HI-TECH Software Omniscient Code Generator (Lite mode) build 49521"
  9697                           
  9698  17F0                     l4580:	
  9699  17F0  3001               	movlw	low(01h)
  9700  17F1  02B9               	subwf	(___lwdiv@counter),f
  9701  17F2  1D03               	btfss	status,2
  9702  17F3  2FF5               	goto	u4651
  9703  17F4  2FF6               	goto	u4650
  9704  17F5                     u4651:
  9705  17F5  2FD0               	goto	l4572
  9706  17F6                     u4650:
  9707  17F6  2FF8               	goto	l4582
  9708                           opt subtitle "HI-TECH Software Omniscient Code Generator (Lite mode) build 49521"
  9709  17F7                     l454:	
  9710  17F7  2FF8               	goto	l4582
  9711                           opt subtitle "HI-TECH Software Omniscient Code Generator (Lite mode) build 49521"
  9712                           
  9713  17F8                     l448:	
  9714                           opt subtitle "HI-TECH Software Omniscient Code Generator (Lite mode) build 49521"
  9715                           
  9716  17F8                     l4582:	
  9717  17F8  083B               	movf	(___lwdiv@quotient+1),w
  9718  17F9  01B5               	clrf	(?___lwdiv+1)
  9719  17FA  07B5               	addwf	(?___lwdiv+1)
  9720  17FB  083A               	movf	(___lwdiv@quotient),w
  9721  17FC  01B4               	clrf	(?___lwdiv)
  9722  17FD  07B4               	addwf	(?___lwdiv)
  9723                           opt subtitle "HI-TECH Software Omniscient Code Generator (Lite mode) build 49521"
  9724  17FE  2FFF               	goto	l455
  9725                           opt subtitle "HI-TECH Software Omniscient Code Generator (Lite mode) build 49521"
  9726  17FF                     l4584:	
  9727                           opt subtitle "HI-TECH Software Omniscient Code Generator (Lite mode) build 49521"
  9728                           
  9729  17FF                     l455:	
  9730  17FF  0008               	return
  9731                           opt subtitle "HI-TECH Software Omniscient Code Generator (Lite mode) build 49521"
  9732                           
  9733  1800                     	__end_of___lwdiv:
  9734                           opt subtitle "HI-TECH Software Omniscient Code Generator (Lite mode) build 49521"
  9735                           
  9736                           opt pagewidth 120
  9737                           
  9738                           	opt lm
  9739                           
  9740                           	processor	16LF707
  9741                           clrc	macro
  9742                           	bcf	3,0
  9743                           	endm
  9744                           clrz	macro
  9745                           	bcf	3,2
  9746                           	endm
  9747                           setc	macro
  9748                           	bsf	3,0
  9749                           	endm
  9750                           setz	macro
  9751                           	bsf	3,2
  9752                           	endm
  9753                           skipc	macro
  9754                           	btfss	3,0
  9755                           	endm
  9756                           skipz	macro
  9757                           	btfss	3,2
  9758                           	endm
  9759                           skipnc	macro
  9760                           	btfsc	3,0
  9761                           	endm
  9762                           skipnz	macro
  9763                           	btfsc	3,2
  9764                           	endm
  9765                           indf	equ	0
  9766                           indf0	equ	0
  9767                           pc	equ	2
  9768                           pcl	equ	2
  9769  171F                     __ptext1195:	;psect for function ___lwmod
  9770                           opt subtitle "HI-TECH Software Omniscient Code Generator (Lite mode) build 49521"
  9771                           
  9772                           opt pagewidth 120
  9773                           
  9774  0045                     	__size_of___lwmod	equ	__end_of___lwmod-___lwmod
  9775                           opt subtitle "HI-TECH Software Omniscient Code Generator (Lite mode) build 49521"
  9776  171F                     ___lwmod:	
  9777                           opt subtitle "HI-TECH Software Omniscient Code Generator (Lite mode) build 49521"
  9778                           
  9779                           opt pagewidth 120
  9780                           
  9781  171F                     l4586:	
  9782  171F  1283               	bcf	status, 5	;RP0=0, select bank0
  9783  1720  1303               	bcf	status, 6	;RP1=0, select bank0
  9784  1721  083D               	movf	(___lwmod@divisor+1),w
  9785  1722  043C               	iorwf	(___lwmod@divisor),w
  9786  1723  1903               	skipnz
  9787  1724  2F26               	goto	u4661
  9788  1725  2F27               	goto	u4660
  9789  1726                     u4661:
  9790  1726  2F5C               	goto	l4604
  9791  1727                     u4660:
  9792                           opt subtitle "HI-TECH Software Omniscient Code Generator (Lite mode) build 49521"
  9793                           
  9794  1727                     l4588:	
  9795  1727  01C1               	clrf	(___lwmod@counter)
  9796  1728  0AC1               	incf	(___lwmod@counter),f
  9797                           opt subtitle "HI-TECH Software Omniscient Code Generator (Lite mode) build 49521"
  9798  1729  2F36               	goto	l4594
  9799                           opt subtitle "HI-TECH Software Omniscient Code Generator (Lite mode) build 49521"
  9800  172A                     l460:	
  9801                           opt subtitle "HI-TECH Software Omniscient Code Generator (Lite mode) build 49521"
  9802                           
  9803  172A                     l4590:	
  9804  172A  3001               	movlw	01h
  9805                           opt subtitle "HI-TECH Software Omniscient Code Generator (Lite mode) build 49521"
  9806  172B                     u4675:
  9807  172B  1003               	clrc
  9808  172C  0DBC               	rlf	(___lwmod@divisor),f
  9809  172D  0DBD               	rlf	(___lwmod@divisor+1),f
  9810  172E  3EFF               	addlw	-1
  9811  172F  1D03               	skipz
  9812  1730  2F2B               	goto	u4675
  9813                           opt subtitle "HI-TECH Software Omniscient Code Generator (Lite mode) build 49521"
  9814                           
  9815  1731                     l4592:	
  9816  1731  3001               	movlw	(01h)
  9817  1732  00C0               	movwf	(??___lwmod+0)+0
  9818  1733  0840               	movf	(??___lwmod+0)+0,w
  9819  1734  07C1               	addwf	(___lwmod@counter),f
  9820  1735  2F36               	goto	l4594
  9821                           opt subtitle "HI-TECH Software Omniscient Code Generator (Lite mode) build 49521"
  9822                           
  9823  1736                     l459:	
  9824                           opt subtitle "HI-TECH Software Omniscient Code Generator (Lite mode) build 49521"
  9825                           
  9826  1736                     l4594:	
  9827  1736  1FBD               	btfss	(___lwmod@divisor+1),(15)&7
  9828  1737  2F39               	goto	u4681
  9829  1738  2F3A               	goto	u4680
  9830  1739                     u4681:
  9831  1739  2F2A               	goto	l4590
  9832  173A                     u4680:
  9833  173A  2F3C               	goto	l4596
  9834                           opt subtitle "HI-TECH Software Omniscient Code Generator (Lite mode) build 49521"
  9835  173B                     l461:	
  9836  173B  2F3C               	goto	l4596
  9837                           opt subtitle "HI-TECH Software Omniscient Code Generator (Lite mode) build 49521"
  9838                           
  9839  173C                     l462:	
  9840                           opt subtitle "HI-TECH Software Omniscient Code Generator (Lite mode) build 49521"
  9841                           
  9842  173C                     l4596:	
  9843  173C  083D               	movf	(___lwmod@divisor+1),w
  9844  173D  023F               	subwf	(___lwmod@dividend+1),w
  9845  173E  1D03               	skipz
  9846  173F  2F42               	goto	u4695
  9847  1740  083C               	movf	(___lwmod@divisor),w
  9848  1741  023E               	subwf	(___lwmod@dividend),w
  9849  1742                     u4695:
  9850  1742  1C03               	skipc
  9851  1743  2F45               	goto	u4691
  9852  1744  2F46               	goto	u4690
  9853  1745                     u4691:
  9854  1745  2F4D               	goto	l4600
  9855  1746                     u4690:
  9856                           opt subtitle "HI-TECH Software Omniscient Code Generator (Lite mode) build 49521"
  9857                           
  9858  1746                     l4598:	
  9859  1746  083C               	movf	(___lwmod@divisor),w
  9860  1747  02BE               	subwf	(___lwmod@dividend),f
  9861  1748  083D               	movf	(___lwmod@divisor+1),w
  9862  1749  1C03               	skipc
  9863  174A  03BF               	decf	(___lwmod@dividend+1),f
  9864  174B  02BF               	subwf	(___lwmod@dividend+1),f
  9865  174C  2F4D               	goto	l4600
  9866                           opt subtitle "HI-TECH Software Omniscient Code Generator (Lite mode) build 49521"
  9867  174D                     l463:	
  9868                           opt subtitle "HI-TECH Software Omniscient Code Generator (Lite mode) build 49521"
  9869                           
  9870  174D                     l4600:	
  9871  174D  3001               	movlw	01h
  9872                           opt subtitle "HI-TECH Software Omniscient Code Generator (Lite mode) build 49521"
  9873  174E                     u4705:
  9874  174E  1003               	clrc
  9875  174F  0CBD               	rrf	(___lwmod@divisor+1),f
  9876  1750  0CBC               	rrf	(___lwmod@divisor),f
  9877  1751  3EFF               	addlw	-1
  9878  1752  1D03               	skipz
  9879  1753  2F4E               	goto	u4705
  9880                           opt subtitle "HI-TECH Software Omniscient Code Generator (Lite mode) build 49521"
  9881                           
  9882  1754                     l4602:	
  9883  1754  3001               	movlw	low(01h)
  9884  1755  02C1               	subwf	(___lwmod@counter),f
  9885  1756  1D03               	btfss	status,2
  9886  1757  2F59               	goto	u4711
  9887  1758  2F5A               	goto	u4710
  9888  1759                     u4711:
  9889  1759  2F3C               	goto	l4596
  9890  175A                     u4710:
  9891  175A  2F5C               	goto	l4604
  9892                           opt subtitle "HI-TECH Software Omniscient Code Generator (Lite mode) build 49521"
  9893  175B                     l464:	
  9894  175B  2F5C               	goto	l4604
  9895                           opt subtitle "HI-TECH Software Omniscient Code Generator (Lite mode) build 49521"
  9896                           
  9897  175C                     l458:	
  9898                           opt subtitle "HI-TECH Software Omniscient Code Generator (Lite mode) build 49521"
  9899                           
  9900  175C                     l4604:	
  9901  175C  083F               	movf	(___lwmod@dividend+1),w
  9902  175D  01BD               	clrf	(?___lwmod+1)
  9903  175E  07BD               	addwf	(?___lwmod+1)
  9904  175F  083E               	movf	(___lwmod@dividend),w
  9905  1760  01BC               	clrf	(?___lwmod)
  9906  1761  07BC               	addwf	(?___lwmod)
  9907                           opt subtitle "HI-TECH Software Omniscient Code Generator (Lite mode) build 49521"
  9908  1762  2F63               	goto	l465
  9909                           opt subtitle "HI-TECH Software Omniscient Code Generator (Lite mode) build 49521"
  9910  1763                     l4606:	
  9911                           opt subtitle "HI-TECH Software Omniscient Code Generator (Lite mode) build 49521"
  9912                           
  9913  1763                     l465:	
  9914  1763  0008               	return
  9915                           opt subtitle "HI-TECH Software Omniscient Code Generator (Lite mode) build 49521"
  9916                           
  9917  1764                     	__end_of___lwmod:
  9918                           opt subtitle "HI-TECH Software Omniscient Code Generator (Lite mode) build 49521"
  9919                           
  9920                           opt pagewidth 120
  9921                           
  9922                           	opt lm
  9923                           
  9924                           	processor	16LF707
  9925                           clrc	macro
  9926                           	bcf	3,0
  9927                           	endm
  9928                           clrz	macro
  9929                           	bcf	3,2
  9930                           	endm
  9931                           setc	macro
  9932                           	bsf	3,0
  9933                           	endm
  9934                           setz	macro
  9935                           	bsf	3,2
  9936                           	endm
  9937                           skipc	macro
  9938                           	btfss	3,0
  9939                           	endm
  9940                           skipz	macro
  9941                           	btfss	3,2
  9942                           	endm
  9943                           skipnc	macro
  9944                           	btfsc	3,0
  9945                           	endm
  9946                           skipnz	macro
  9947                           	btfsc	3,2
  9948                           	endm
  9949                           indf	equ	0
  9950                           indf0	equ	0
  9951                           pc	equ	2
  9952                           pcl	equ	2
  9953  080D                     __ptext1196:	;psect for function ___ftge
  9954                           opt subtitle "HI-TECH Software Omniscient Code Generator (Lite mode) build 49521"
  9955                           
  9956                           opt pagewidth 120
  9957                           
  9958  006E                     	__size_of___ftge	equ	__end_of___ftge-___ftge
  9959                           opt subtitle "HI-TECH Software Omniscient Code Generator (Lite mode) build 49521"
  9960  080D                     ___ftge:	
  9961                           opt subtitle "HI-TECH Software Omniscient Code Generator (Lite mode) build 49521"
  9962                           
  9963                           opt pagewidth 120
  9964                           
  9965  080D                     l3630:	
  9966  080D  1283               	bcf	status, 5	;RP0=0, select bank0
  9967  080E  1303               	bcf	status, 6	;RP1=0, select bank0
  9968  080F  1FB6               	btfss	(___ftge@ff1+2),(23)&7
  9969  0810  2812               	goto	u3511
  9970  0811  2813               	goto	u3510
  9971  0812                     u3511:
  9972  0812  2839               	goto	l3634
  9973  0813                     u3510:
  9974                           opt subtitle "HI-TECH Software Omniscient Code Generator (Lite mode) build 49521"
  9975                           
  9976  0813                     l3632:	
  9977  0813  3000               	movlw	0
  9978  0814  00BA               	movwf	((??___ftge+0)+0)
  9979  0815  3000               	movlw	0
  9980  0816  00BB               	movwf	((??___ftge+0)+0+1)
  9981  0817  3080               	movlw	080h
  9982  0818  00BC               	movwf	((??___ftge+0)+0+2)
  9983  0819  0934               	comf	(___ftge@ff1),w
  9984  081A  00BD               	movwf	(??___ftge+3)+0
  9985  081B  0935               	comf	(___ftge@ff1+1),w
  9986  081C  00BE               	movwf	((??___ftge+3)+0+1)
  9987  081D  0936               	comf	(___ftge@ff1+2),w
  9988  081E  00BF               	movwf	((??___ftge+3)+0+2)
  9989  081F  0ABD               	incf	(??___ftge+3)+0,f
  9990  0820  1903               	skipnz
  9991  0821  0ABE               	incf	((??___ftge+3)+0+1),f
  9992  0822  1903               	skipnz
  9993  0823  0ABF               	incf	((??___ftge+3)+0+2),f
  9994  0824  083D               	movf	0+(??___ftge+3)+0,w
  9995  0825  07BA               	addwf	(??___ftge+0)+0,f
  9996  0826  083E               	movf	1+(??___ftge+3)+0,w
  9997  0827  1803               	skipnc
  9998  0828  0F3E               	incfsz	1+(??___ftge+3)+0,w
  9999  0829  282B               	goto	u3521
 10000  082A  282C               	goto	u3522
 10001  082B                     u3521:
 10002  082B  07BB               	addwf	(??___ftge+0)+1,f
 10003                           opt subtitle "HI-TECH Software Omniscient Code Generator (Lite mode) build 49521"
 10004  082C                     u3522:
 10005  082C  083F               	movf	2+(??___ftge+3)+0,w
 10006  082D  1803               	skipnc
 10007  082E  0F3F               	incfsz	2+(??___ftge+3)+0,w
 10008  082F  2831               	goto	u3523
 10009  0830  2832               	goto	u3524
 10010  0831                     u3523:
 10011  0831  07BC               	addwf	(??___ftge+0)+2,f
 10012                           opt subtitle "HI-TECH Software Omniscient Code Generator (Lite mode) build 49521"
 10013  0832                     u3524:
 10014  0832  083A               	movf	0+(??___ftge+0)+0,w
 10015  0833  00B4               	movwf	(___ftge@ff1)
 10016  0834  083B               	movf	1+(??___ftge+0)+0,w
 10017  0835  00B5               	movwf	(___ftge@ff1+1)
 10018  0836  083C               	movf	2+(??___ftge+0)+0,w
 10019  0837  00B6               	movwf	(___ftge@ff1+2)
 10020  0838  2839               	goto	l3634
 10021                           opt subtitle "HI-TECH Software Omniscient Code Generator (Lite mode) build 49521"
 10022  0839                     l609:	
 10023                           opt subtitle "HI-TECH Software Omniscient Code Generator (Lite mode) build 49521"
 10024                           
 10025  0839                     l3634:	
 10026  0839  1FB9               	btfss	(___ftge@ff2+2),(23)&7
 10027  083A  283C               	goto	u3531
 10028  083B  283D               	goto	u3530
 10029  083C                     u3531:
 10030  083C  2863               	goto	l3638
 10031  083D                     u3530:
 10032                           opt subtitle "HI-TECH Software Omniscient Code Generator (Lite mode) build 49521"
 10033                           
 10034  083D                     l3636:	
 10035  083D  3000               	movlw	0
 10036  083E  00BA               	movwf	((??___ftge+0)+0)
 10037  083F  3000               	movlw	0
 10038  0840  00BB               	movwf	((??___ftge+0)+0+1)
 10039  0841  3080               	movlw	080h
 10040  0842  00BC               	movwf	((??___ftge+0)+0+2)
 10041  0843  0937               	comf	(___ftge@ff2),w
 10042  0844  00BD               	movwf	(??___ftge+3)+0
 10043  0845  0938               	comf	(___ftge@ff2+1),w
 10044  0846  00BE               	movwf	((??___ftge+3)+0+1)
 10045  0847  0939               	comf	(___ftge@ff2+2),w
 10046  0848  00BF               	movwf	((??___ftge+3)+0+2)
 10047  0849  0ABD               	incf	(??___ftge+3)+0,f
 10048  084A  1903               	skipnz
 10049  084B  0ABE               	incf	((??___ftge+3)+0+1),f
 10050  084C  1903               	skipnz
 10051  084D  0ABF               	incf	((??___ftge+3)+0+2),f
 10052  084E  083D               	movf	0+(??___ftge+3)+0,w
 10053  084F  07BA               	addwf	(??___ftge+0)+0,f
 10054  0850  083E               	movf	1+(??___ftge+3)+0,w
 10055  0851  1803               	skipnc
 10056  0852  0F3E               	incfsz	1+(??___ftge+3)+0,w
 10057  0853  2855               	goto	u3541
 10058  0854  2856               	goto	u3542
 10059  0855                     u3541:
 10060  0855  07BB               	addwf	(??___ftge+0)+1,f
 10061                           opt subtitle "HI-TECH Software Omniscient Code Generator (Lite mode) build 49521"
 10062  0856                     u3542:
 10063  0856  083F               	movf	2+(??___ftge+3)+0,w
 10064  0857  1803               	skipnc
 10065  0858  0F3F               	incfsz	2+(??___ftge+3)+0,w
 10066  0859  285B               	goto	u3543
 10067  085A  285C               	goto	u3544
 10068  085B                     u3543:
 10069  085B  07BC               	addwf	(??___ftge+0)+2,f
 10070                           opt subtitle "HI-TECH Software Omniscient Code Generator (Lite mode) build 49521"
 10071  085C                     u3544:
 10072  085C  083A               	movf	0+(??___ftge+0)+0,w
 10073  085D  00B7               	movwf	(___ftge@ff2)
 10074  085E  083B               	movf	1+(??___ftge+0)+0,w
 10075  085F  00B8               	movwf	(___ftge@ff2+1)
 10076  0860  083C               	movf	2+(??___ftge+0)+0,w
 10077  0861  00B9               	movwf	(___ftge@ff2+2)
 10078  0862  2863               	goto	l3638
 10079                           opt subtitle "HI-TECH Software Omniscient Code Generator (Lite mode) build 49521"
 10080  0863                     l610:	
 10081                           opt subtitle "HI-TECH Software Omniscient Code Generator (Lite mode) build 49521"
 10082                           
 10083  0863                     l3638:	
 10084  0863  3080               	movlw	080h
 10085  0864  06B6               	xorwf	(___ftge@ff1+2),f
 10086                           opt subtitle "HI-TECH Software Omniscient Code Generator (Lite mode) build 49521"
 10087                           
 10088  0865                     l3640:	
 10089  0865  3080               	movlw	080h
 10090  0866  06B9               	xorwf	(___ftge@ff2+2),f
 10091                           opt subtitle "HI-TECH Software Omniscient Code Generator (Lite mode) build 49521"
 10092                           
 10093  0867                     l3642:	
 10094  0867  0839               	movf	(___ftge@ff2+2),w
 10095  0868  0236               	subwf	(___ftge@ff1+2),w
 10096  0869  1D03               	skipz
 10097  086A  2871               	goto	u3555
 10098  086B  0838               	movf	(___ftge@ff2+1),w
 10099  086C  0235               	subwf	(___ftge@ff1+1),w
 10100  086D  1D03               	skipz
 10101  086E  2871               	goto	u3555
 10102  086F  0837               	movf	(___ftge@ff2),w
 10103  0870  0234               	subwf	(___ftge@ff1),w
 10104  0871                     u3555:
 10105  0871  1803               	skipnc
 10106  0872  2874               	goto	u3551
 10107  0873  2875               	goto	u3550
 10108  0874                     u3551:
 10109  0874  2877               	goto	l3646
 10110  0875                     u3550:
 10111                           opt subtitle "HI-TECH Software Omniscient Code Generator (Lite mode) build 49521"
 10112  0875                     l3644:	
 10113  0875  1003               	clrc
 10114                           opt subtitle "HI-TECH Software Omniscient Code Generator (Lite mode) build 49521"
 10115  0876  287A               	goto	l611
 10116                           opt subtitle "HI-TECH Software Omniscient Code Generator (Lite mode) build 49521"
 10117  0877                     l2524:	
 10118                           opt subtitle "HI-TECH Software Omniscient Code Generator (Lite mode) build 49521"
 10119  0877                     l3646:	
 10120  0877  1403               	setc
 10121                           opt subtitle "HI-TECH Software Omniscient Code Generator (Lite mode) build 49521"
 10122  0878  287A               	goto	l611
 10123                           opt subtitle "HI-TECH Software Omniscient Code Generator (Lite mode) build 49521"
 10124  0879                     l2526:	
 10125  0879  287A               	goto	l611
 10126                           opt subtitle "HI-TECH Software Omniscient Code Generator (Lite mode) build 49521"
 10127  087A                     l3648:	
 10128                           opt subtitle "HI-TECH Software Omniscient Code Generator (Lite mode) build 49521"
 10129                           
 10130  087A                     l611:	
 10131  087A  0008               	return
 10132                           opt subtitle "HI-TECH Software Omniscient Code Generator (Lite mode) build 49521"
 10133                           
 10134  087B                     	__end_of___ftge:
 10135                           opt subtitle "HI-TECH Software Omniscient Code Generator (Lite mode) build 49521"
 10136                           
 10137                           opt pagewidth 120
 10138                           
 10139                           	opt lm
 10140                           
 10141                           	processor	16LF707
 10142                           clrc	macro
 10143                           	bcf	3,0
 10144                           	endm
 10145                           clrz	macro
 10146                           	bcf	3,2
 10147                           	endm
 10148                           setc	macro
 10149                           	bsf	3,0
 10150                           	endm
 10151                           setz	macro
 10152                           	bsf	3,2
 10153                           	endm
 10154                           skipc	macro
 10155                           	btfss	3,0
 10156                           	endm
 10157                           skipz	macro
 10158                           	btfss	3,2
 10159                           	endm
 10160                           skipnc	macro
 10161                           	btfsc	3,0
 10162                           	endm
 10163                           skipnz	macro
 10164                           	btfsc	3,2
 10165                           	endm
 10166                           indf	equ	0
 10167                           indf0	equ	0
 10168                           pc	equ	2
 10169  087B                     __ptext1197:	;psect for function _ISR
 10170                           opt subtitle "HI-TECH Software Omniscient Code Generator (Lite mode) build 49521"
 10171                           
 10172                           opt pagewidth 120
 10173                           
 10174  0078                     	__size_of_ISR	equ	__end_of_ISR-_ISR
 10175                           opt subtitle "HI-TECH Software Omniscient Code Generator (Lite mode) build 49521"
 10176  087B                     _ISR:	
 10177                           opt subtitle "HI-TECH Software Omniscient Code Generator (Lite mode) build 49521"
 10178                           
 10179                           opt pagewidth 120
 10180                           
 10181  0004                     __pintentry:
 10182                           opt subtitle "HI-TECH Software Omniscient Code Generator (Lite mode) build 49521"
 10183  0004                     interrupt_function:
 10184                           opt subtitle "HI-TECH Software Omniscient Code Generator (Lite mode) build 49521"
 10185  007E                     	saved_w	set	btemp+0
 10186  0004  00FE               	movwf	saved_w
 10187  0005  0E03               	swapf	status,w
 10188  0006  1283               	bcf	status, 5	;RP0=0, select bank0
 10189  0007  1303               	bcf	status, 6	;RP1=0, select bank0
 10190  0008  00B0               	movwf	(??_ISR+2)
 10191  0009  0804               	movf	fsr0,w
 10192  000A  00B1               	movwf	(??_ISR+3)
 10193  000B  080A               	movf	pclath,w
 10194  000C  00B2               	movwf	(??_ISR+4)
 10195  000D  087F               	movf	btemp+1,w
 10196  000E  00B3               	movwf	(??_ISR+5)
 10197  000F  120A  158A  287B   	ljmp	_ISR
 10198                           opt subtitle "HI-TECH Software Omniscient Code Generator (Lite mode) build 49521"
 10199                           
 10200                           opt pagewidth 120
 10201  087B                     i1l3778:	
 10202                           opt subtitle "HI-TECH Software Omniscient Code Generator (Lite mode) build 49521"
 10203  087B  1C0C               	btfss	(96/8),(96)&7	;volatile
 10204  087C  287E               	goto	u382_21
 10205  087D  287F               	goto	u382_20
 10206  087E                     u382_21:
 10207  087E  28E8               	goto	i1l163
 10208  087F                     u382_20:
 10209                           opt subtitle "HI-TECH Software Omniscient Code Generator (Lite mode) build 49521"
 10210                           
 10211  087F                     i1l3780:	
 10212                           opt subtitle "HI-TECH Software Omniscient Code Generator (Lite mode) build 49521"
 10213                           
 10214  087F  3001               	movlw	(01h)
 10215  0880  00AE               	movwf	(??_ISR+0)+0
 10216  0881  082E               	movf	(??_ISR+0)+0,w
 10217  0882  07D7               	addwf	(_tmr1Counter),f
 10218                           opt subtitle "HI-TECH Software Omniscient Code Generator (Lite mode) build 49521"
 10219                           
 10220  0883                     i1l3782:	
 10221                           opt subtitle "HI-TECH Software Omniscient Code Generator (Lite mode) build 49521"
 10222  0883  3010               	movlw	(010h)
 10223  0884  008F               	movwf	(15)	;volatile
 10224                           opt subtitle "HI-TECH Software Omniscient Code Generator (Lite mode) build 49521"
 10225                           
 10226  0885                     i1l3784:	
 10227                           opt subtitle "HI-TECH Software Omniscient Code Generator (Lite mode) build 49521"
 10228  0885  018E               	clrf	(14)	;volatile
 10229                           opt subtitle "HI-TECH Software Omniscient Code Generator (Lite mode) build 49521"
 10230                           
 10231  0886                     i1l3786:	
 10232                           opt subtitle "HI-TECH Software Omniscient Code Generator (Lite mode) build 49521"
 10233  0886  0857               	movf	(_tmr1Counter),w
 10234  0887  065A               	xorwf	(_tmr1Target),w
 10235  0888  1D03               	skipz
 10236  0889  288B               	goto	u383_21
 10237  088A  288C               	goto	u383_20
 10238  088B                     u383_21:
 10239  088B  28E6               	goto	i1l156
 10240  088C                     u383_20:
 10241                           opt subtitle "HI-TECH Software Omniscient Code Generator (Lite mode) build 49521"
 10242                           
 10243  088C                     i1l3788:	
 10244                           opt subtitle "HI-TECH Software Omniscient Code Generator (Lite mode) build 49521"
 10245  088C  303A               	movlw	low(STR_1|8000h)
 10246  088D  00A0               	movwf	(?i1_printf)
 10247  088E  3091               	movlw	high(STR_1|8000h)
 10248  088F  00A1               	movwf	((?i1_printf))+1
 10249  0890  120A  118A  2622   	fcall	i1_printf
              120A  158A         
 10250                           opt subtitle "HI-TECH Software Omniscient Code Generator (Lite mode) build 49521"
 10251                           
 10252  0895                     i1l3790:	
 10253                           opt subtitle "HI-TECH Software Omniscient Code Generator (Lite mode) build 49521"
 10254  0895  1283               	bcf	status, 5	;RP0=0, select bank0
 10255  0896  1303               	bcf	status, 6	;RP1=0, select bank0
 10256  0897  0808               	movf	(8),w	;volatile
 10257  0898  00AE               	movwf	(??_ISR+0)+0
 10258  0899  3005               	movlw	05h
 10259  089A                     u384_25:
 10260  089A  1003               	clrc
 10261  089B  0CAE               	rrf	(??_ISR+0)+0,f
 10262  089C  3EFF               	addlw	-1
 10263  089D  1D03               	skipz
 10264  089E  289A               	goto	u384_25
 10265  089F  082E               	movf	0+(??_ISR+0)+0,w
 10266  08A0  3907               	andlw	07h
 10267  08A1  00AF               	movwf	(??_ISR+1)+0
 10268  08A2  082F               	movf	(??_ISR+1)+0,w
 10269  08A3  1683               	bsf	status, 5	;RP0=1, select bank1
 10270  08A4  1303               	bcf	status, 6	;RP1=0, select bank1
 10271  08A5  00EC               	movwf	(_jumper_stat)^080h
 10272                           opt subtitle "HI-TECH Software Omniscient Code Generator (Lite mode) build 49521"
 10273                           
 10274  08A6                     i1l3792:	
 10275                           opt subtitle "HI-TECH Software Omniscient Code Generator (Lite mode) build 49521"
 10276  08A6  1283               	bcf	status, 5	;RP0=0, select bank0
 10277  08A7  1303               	bcf	status, 6	;RP1=0, select bank0
 10278  08A8  0808               	movf	(8),w	;volatile
 10279  08A9  00AE               	movwf	(??_ISR+0)+0
 10280  08AA  3006               	movlw	06h
 10281  08AB                     u385_25:
 10282  08AB  1003               	clrc
 10283  08AC  0CAE               	rrf	(??_ISR+0)+0,f
 10284  08AD  3EFF               	addlw	-1
 10285  08AE  1D03               	skipz
 10286  08AF  28AB               	goto	u385_25
 10287  08B0  082E               	movf	0+(??_ISR+0)+0,w
 10288  08B1  3903               	andlw	03h
 10289  08B2  00AF               	movwf	(??_ISR+1)+0
 10290  08B3  082F               	movf	(??_ISR+1)+0,w
 10291  08B4  00D6               	movwf	(_sleep_counter)
 10292                           opt subtitle "HI-TECH Software Omniscient Code Generator (Lite mode) build 49521"
 10293                           
 10294  08B5  28D4               	goto	i1l3802
 10295                           opt subtitle "HI-TECH Software Omniscient Code Generator (Lite mode) build 49521"
 10296                           
 10297                           opt pagewidth 120
 10298  08B6                     i1l158:	
 10299                           opt subtitle "HI-TECH Software Omniscient Code Generator (Lite mode) build 49521"
 10300                           
 10301  08B6  1683               	bsf	status, 5	;RP0=1, select bank1
 10302  08B7  1303               	bcf	status, 6	;RP1=0, select bank1
 10303  08B8  01ED               	clrf	(_sleep_count)^080h
 10304  08B9  0AED               	incf	(_sleep_count)^080h,f
 10305                           opt subtitle "HI-TECH Software Omniscient Code Generator (Lite mode) build 49521"
 10306                           
 10307  08BA  28E3               	goto	i1l159
 10308                           opt subtitle "HI-TECH Software Omniscient Code Generator (Lite mode) build 49521"
 10309                           
 10310                           opt pagewidth 120
 10311  08BB                     i1l160:	
 10312                           opt subtitle "HI-TECH Software Omniscient Code Generator (Lite mode) build 49521"
 10313                           
 10314  08BB                     i1l3794:	
 10315                           opt subtitle "HI-TECH Software Omniscient Code Generator (Lite mode) build 49521"
 10316  08BB  3014               	movlw	(014h)
 10317  08BC  1283               	bcf	status, 5	;RP0=0, select bank0
 10318  08BD  00AE               	movwf	(??_ISR+0)+0
 10319  08BE  082E               	movf	(??_ISR+0)+0,w
 10320  08BF  1683               	bsf	status, 5	;RP0=1, select bank1
 10321  08C0  1303               	bcf	status, 6	;RP1=0, select bank1
 10322  08C1  00ED               	movwf	(_sleep_count)^080h
 10323                           opt subtitle "HI-TECH Software Omniscient Code Generator (Lite mode) build 49521"
 10324                           
 10325  08C2  28E3               	goto	i1l159
 10326                           opt subtitle "HI-TECH Software Omniscient Code Generator (Lite mode) build 49521"
 10327                           
 10328                           opt pagewidth 120
 10329  08C3                     i1l161:	
 10330                           opt subtitle "HI-TECH Software Omniscient Code Generator (Lite mode) build 49521"
 10331                           
 10332  08C3                     i1l3796:	
 10333                           opt subtitle "HI-TECH Software Omniscient Code Generator (Lite mode) build 49521"
 10334  08C3  3028               	movlw	(028h)
 10335  08C4  1283               	bcf	status, 5	;RP0=0, select bank0
 10336  08C5  00AE               	movwf	(??_ISR+0)+0
 10337  08C6  082E               	movf	(??_ISR+0)+0,w
 10338  08C7  1683               	bsf	status, 5	;RP0=1, select bank1
 10339  08C8  1303               	bcf	status, 6	;RP1=0, select bank1
 10340  08C9  00ED               	movwf	(_sleep_count)^080h
 10341                           opt subtitle "HI-TECH Software Omniscient Code Generator (Lite mode) build 49521"
 10342                           
 10343  08CA  28E3               	goto	i1l159
 10344                           opt subtitle "HI-TECH Software Omniscient Code Generator (Lite mode) build 49521"
 10345                           
 10346                           opt pagewidth 120
 10347  08CB                     i1l162:	
 10348                           opt subtitle "HI-TECH Software Omniscient Code Generator (Lite mode) build 49521"
 10349                           
 10350  08CB                     i1l3798:	
 10351                           opt subtitle "HI-TECH Software Omniscient Code Generator (Lite mode) build 49521"
 10352  08CB  3078               	movlw	(078h)
 10353  08CC  1283               	bcf	status, 5	;RP0=0, select bank0
 10354  08CD  00AE               	movwf	(??_ISR+0)+0
 10355  08CE  082E               	movf	(??_ISR+0)+0,w
 10356  08CF  1683               	bsf	status, 5	;RP0=1, select bank1
 10357  08D0  1303               	bcf	status, 6	;RP1=0, select bank1
 10358  08D1  00ED               	movwf	(_sleep_count)^080h
 10359                           opt subtitle "HI-TECH Software Omniscient Code Generator (Lite mode) build 49521"
 10360                           
 10361  08D2  28E3               	goto	i1l159
 10362                           opt subtitle "HI-TECH Software Omniscient Code Generator (Lite mode) build 49521"
 10363                           
 10364  08D3                     i1l3800:	
 10365                           opt subtitle "HI-TECH Software Omniscient Code Generator (Lite mode) build 49521"
 10366  08D3  28E3               	goto	i1l159
 10367                           opt subtitle "HI-TECH Software Omniscient Code Generator (Lite mode) build 49521"
 10368                           
 10369  08D4                     i1l157:	
 10370                           opt subtitle "HI-TECH Software Omniscient Code Generator (Lite mode) build 49521"
 10371  08D4                     i1l3802:	
 10372  08D4  1283               	bcf	status, 5	;RP0=0, select bank0
 10373  08D5  0856               	movf	(_sleep_counter),w
 10374                           opt subtitle "HI-TECH Software Omniscient Code Generator (Lite mode) build 49521"
 10375                           
 10376                           opt pagewidth 120
 10377                           
 10378                           	opt lm
 10379                           
 10380                           	processor	16LF707
 10381                           clrc	macro
 10382                           	bcf	3,0
 10383                           	endm
 10384                           clrz	macro
 10385                           	bcf	3,2
 10386                           	endm
 10387  08D6  3A00               	xorlw	0^0	; case 0
 10388  08D7  1903               	skipnz
 10389  08D8  28B6               	goto	i1l158
 10390  08D9  3A01               	xorlw	1^0	; case 1
 10391  08DA  1903               	skipnz
 10392  08DB  28BB               	goto	i1l3794
 10393  08DC  3A03               	xorlw	2^1	; case 2
 10394  08DD  1903               	skipnz
 10395  08DE  28C3               	goto	i1l3796
 10396  08DF  3A01               	xorlw	3^2	; case 3
 10397  08E0  1903               	skipnz
 10398  08E1  28CB               	goto	i1l3798
 10399  08E2  28E3               	goto	i1l159
 10400                           opt subtitle "HI-TECH Software Omniscient Code Generator (Lite mode) build 49521"
 10401                           
 10402                           opt pagewidth 120
 10403                           
 10404  08E3                     i1l159:	
 10405                           opt subtitle "HI-TECH Software Omniscient Code Generator (Lite mode) build 49521"
 10406                           
 10407  08E3  1283               	bcf	status, 5	;RP0=0, select bank0
 10408  08E4  01D7               	clrf	(_tmr1Counter)
 10409                           opt subtitle "HI-TECH Software Omniscient Code Generator (Lite mode) build 49521"
 10410                           
 10411  08E5  145B               	bsf	(_flag/8),(_flag)&7
 10412                           opt subtitle "HI-TECH Software Omniscient Code Generator (Lite mode) build 49521"
 10413                           
 10414  08E6                     i1l156:	
 10415                           opt subtitle "HI-TECH Software Omniscient Code Generator (Lite mode) build 49521"
 10416                           
 10417                           opt pagewidth 120
 10418  08E6  100C               	bcf	(96/8),(96)&7	;volatile
 10419  08E7  28E8               	goto	i1l163
 10420                           opt subtitle "HI-TECH Software Omniscient Code Generator (Lite mode) build 49521"
 10421                           
 10422  08E8                     i1l155:	
 10423                           opt subtitle "HI-TECH Software Omniscient Code Generator (Lite mode) build 49521"
 10424                           
 10425  08E8                     i1l163:	
 10426  08E8  0833               	movf	(??_ISR+5),w
 10427  08E9  00FF               	movwf	btemp+1
 10428  08EA  0832               	movf	(??_ISR+4),w
 10429  08EB  008A               	movwf	pclath
 10430  08EC  0831               	movf	(??_ISR+3),w
 10431  08ED  0084               	movwf	fsr0
 10432  08EE  0E30               	swapf	(??_ISR+2)^00h,w
 10433  08EF  0083               	movwf	status
 10434  08F0  0EFE               	swapf	saved_w,f
 10435  08F1  0E7E               	swapf	saved_w,w
 10436  08F2  0009               	retfie
 10437                           opt subtitle "HI-TECH Software Omniscient Code Generator (Lite mode) build 49521"
 10438                           
 10439  08F3                     	__end_of_ISR:
 10440                           opt subtitle "HI-TECH Software Omniscient Code Generator (Lite mode) build 49521"
 10441                           
 10442                           opt pagewidth 120
 10443                           
 10444                           	opt lm
 10445                           
 10446                           	processor	16LF707
 10447                           clrc	macro
 10448                           	bcf	3,0
 10449                           	endm
 10450                           clrz	macro
 10451                           	bcf	3,2
 10452                           	endm
 10453                           setc	macro
 10454                           	bsf	3,0
 10455                           	endm
 10456                           setz	macro
 10457                           	bsf	3,2
 10458                           	endm
 10459                           skipc	macro
 10460                           	btfss	3,0
 10461                           	endm
 10462                           skipz	macro
 10463                           	btfss	3,2
 10464                           	endm
 10465                           skipnc	macro
 10466                           	btfsc	3,0
 10467                           	endm
 10468                           skipnz	macro
 10469                           	btfsc	3,2
 10470                           	endm
 10471                           indf	equ	0
 10472                           indf0	equ	0
 10473                           pc	equ	2
 10474                           pcl	equ	2
 10475                           status	equ	3
 10476                           fsr	equ	4
 10477                           fsr0	equ	4
 10478                           c	equ	1
 10479                           z	equ	0
 10480                           pclath	equ	10
 10481                           # 46 "/Applications/microchip/xc8/v1.12/include/pic16lf707.h"
 10482                           INDF equ 00h ;# 
 10483                           # 52 "/Applications/microchip/xc8/v1.12/include/pic16lf707.h"
 10484                           TMR0 equ 01h ;# 
 10485                           # 58 "/Applications/microchip/xc8/v1.12/include/pic16lf707.h"
 10486  0622                     __ptext1198:	;psect for function i1_printf
 10487                           opt subtitle "HI-TECH Software Omniscient Code Generator (Lite mode) build 49521"
 10488                           
 10489                           opt pagewidth 120
 10490                           
 10491  01AE                     	__size_ofi1_printf	equ	__end_ofi1_printf-i1_printf
 10492                           opt subtitle "HI-TECH Software Omniscient Code Generator (Lite mode) build 49521"
 10493  0622                     i1_printf:	
 10494                           opt subtitle "HI-TECH Software Omniscient Code Generator (Lite mode) build 49521"
 10495                           
 10496                           opt pagewidth 120
 10497                           
 10498  0622                     i1l3702:	
 10499                           opt subtitle "HI-TECH Software Omniscient Code Generator (Lite mode) build 49521"
 10500                           
 10501                           opt pagewidth 120
 10502                           
 10503                           	opt lm
 10504                           
 10505                           	processor	16LF707
 10506                           clrc	macro
 10507                           	bcf	3,0
 10508                           	endm
 10509                           clrz	macro
 10510                           	bcf	3,2
 10511  0622  3022               	movlw	(?i1_printf+02h)&0ffh
 10512  0623  1283               	bcf	status, 5	;RP0=0, select bank0
 10513  0624  1303               	bcf	status, 6	;RP1=0, select bank0
 10514  0625  00A2               	movwf	(??i1_printf+0)+0
 10515  0626  0822               	movf	(??i1_printf+0)+0,w
 10516  0627  00A6               	movwf	(i1printf@ap)
 10517                           opt subtitle "HI-TECH Software Omniscient Code Generator (Lite mode) build 49521"
 10518                           
 10519  0628  2FB2               	goto	i1l3776
 10520                           opt subtitle "HI-TECH Software Omniscient Code Generator (Lite mode) build 49521"
 10521  0629                     i1l400:	
 10522                           opt subtitle "HI-TECH Software Omniscient Code Generator (Lite mode) build 49521"
 10523                           
 10524  0629                     i1l3704:	
 10525                           opt subtitle "HI-TECH Software Omniscient Code Generator (Lite mode) build 49521"
 10526  0629  082D               	movf	(i1printf@c),w
 10527  062A  3A25               	xorlw	025h
 10528  062B  1903               	skipnz
 10529  062C  2E2E               	goto	u370_21
 10530  062D  2E2F               	goto	u370_20
 10531  062E                     u370_21:
 10532  062E  2E36               	goto	i1l401
 10533  062F                     u370_20:
 10534                           opt subtitle "HI-TECH Software Omniscient Code Generator (Lite mode) build 49521"
 10535                           
 10536  062F                     i1l3706:	
 10537                           opt subtitle "HI-TECH Software Omniscient Code Generator (Lite mode) build 49521"
 10538                           
 10539  062F  082D               	movf	(i1printf@c),w
 10540  0630  160A  118A  2491   	fcall	i1_putch
              120A  118A         
 10541                           opt subtitle "HI-TECH Software Omniscient Code Generator (Lite mode) build 49521"
 10542                           
 10543  0635  2FB2               	goto	i1l3776
 10544                           opt subtitle "HI-TECH Software Omniscient Code Generator (Lite mode) build 49521"
 10545                           
 10546  0636                     i1l401:	
 10547                           opt subtitle "HI-TECH Software Omniscient Code Generator (Lite mode) build 49521"
 10548                           
 10549                           opt pagewidth 120
 10550  0636  01A8               	clrf	(i1printf@flag)
 10551                           opt subtitle "HI-TECH Software Omniscient Code Generator (Lite mode) build 49521"
 10552                           
 10553  0637  2E45               	goto	i1l3712
 10554                           opt subtitle "HI-TECH Software Omniscient Code Generator (Lite mode) build 49521"
 10555                           
 10556                           opt pagewidth 120
 10557  0638                     i1l403:	
 10558                           opt subtitle "HI-TECH Software Omniscient Code Generator (Lite mode) build 49521"
 10559                           
 10560  0638  2FCF               	goto	i1l433
 10561                           opt subtitle "HI-TECH Software Omniscient Code Generator (Lite mode) build 49521"
 10562                           
 10563                           opt pagewidth 120
 10564  0639                     i1l405:	
 10565  0639  2E69               	goto	i1l407
 10566                           opt subtitle "HI-TECH Software Omniscient Code Generator (Lite mode) build 49521"
 10567                           
 10568  063A                     i1l406:	
 10569                           opt subtitle "HI-TECH Software Omniscient Code Generator (Lite mode) build 49521"
 10570                           
 10571                           opt pagewidth 120
 10572  063A  2E69               	goto	i1l407
 10573                           opt subtitle "HI-TECH Software Omniscient Code Generator (Lite mode) build 49521"
 10574                           
 10575                           opt pagewidth 120
 10576  063B                     i1l408:	
 10577                           opt subtitle "HI-TECH Software Omniscient Code Generator (Lite mode) build 49521"
 10578                           
 10579  063B                     i1l409:	
 10580                           opt subtitle "HI-TECH Software Omniscient Code Generator (Lite mode) build 49521"
 10581                           
 10582                           opt pagewidth 120
 10583  063B  17A8               	bsf	(i1printf@flag)+(7/8),(7)&7
 10584                           opt subtitle "HI-TECH Software Omniscient Code Generator (Lite mode) build 49521"
 10585                           
 10586  063C  2E69               	goto	i1l407
 10587                           opt subtitle "HI-TECH Software Omniscient Code Generator (Lite mode) build 49521"
 10588                           
 10589                           opt pagewidth 120
 10590  063D                     i1l410:	
 10591                           opt subtitle "HI-TECH Software Omniscient Code Generator (Lite mode) build 49521"
 10592                           
 10593  063D                     i1l3708:	
 10594                           opt subtitle "HI-TECH Software Omniscient Code Generator (Lite mode) build 49521"
 10595  063D  082D               	movf	(i1printf@c),w
 10596  063E  160A  118A  2491   	fcall	i1_putch
              120A  118A         
 10597                           opt subtitle "HI-TECH Software Omniscient Code Generator (Lite mode) build 49521"
 10598                           
 10599  0643  2FB2               	goto	i1l3776
 10600                           opt subtitle "HI-TECH Software Omniscient Code Generator (Lite mode) build 49521"
 10601                           
 10602  0644                     i1l3710:	
 10603                           opt subtitle "HI-TECH Software Omniscient Code Generator (Lite mode) build 49521"
 10604  0644  2E69               	goto	i1l407
 10605                           opt subtitle "HI-TECH Software Omniscient Code Generator (Lite mode) build 49521"
 10606                           
 10607  0645                     i1l402:	
 10608                           opt subtitle "HI-TECH Software Omniscient Code Generator (Lite mode) build 49521"
 10609  0645                     i1l3712:	
 10610  0645  1283               	bcf	status, 5	;RP0=0, select bank0
 10611  0646  1303               	bcf	status, 6	;RP1=0, select bank0
 10612  0647  0821               	movf	(i1printf@f+1),w
 10613  0648  00A3               	movwf	(??i1_printf+0)+0+1
 10614  0649  0820               	movf	(i1printf@f),w
 10615  064A  00A2               	movwf	(??i1_printf+0)+0
 10616  064B  3001               	movlw	(01h)
 10617  064C  07A0               	addwf	(i1printf@f),f
 10618  064D  1803               	skipnc
 10619  064E  0AA1               	incf	(i1printf@f+1),f
 10620  064F  0823               	movf	1+(??i1_printf+0)+0,w
 10621  0650  00FF               	movwf	btemp+1
 10622  0651  0822               	movf	0+(??i1_printf+0)+0,w
 10623  0652  0084               	movwf	fsr0
 10624  0653  160A  118A  2000   	fcall	stringtab
              120A  118A         
 10625  0658  00AD               	movwf	(i1printf@c)
 10626                           opt subtitle "HI-TECH Software Omniscient Code Generator (Lite mode) build 49521"
 10627                           
 10628                           opt pagewidth 120
 10629                           
 10630                           	opt lm
 10631                           
 10632                           	processor	16LF707
 10633                           clrc	macro
 10634                           	bcf	3,0
 10635                           	endm
 10636                           clrz	macro
 10637                           	bcf	3,2
 10638  0659  3A00               	xorlw	0^0	; case 0
 10639  065A  1903               	skipnz
 10640  065B  2FCF               	goto	i1l433
 10641  065C  3A58               	xorlw	88^0	; case 88
 10642  065D  1903               	skipnz
 10643  065E  2E3B               	goto	i1l409
 10644  065F  3A3C               	xorlw	100^88	; case 100
 10645  0660  1903               	skipnz
 10646  0661  2E69               	goto	i1l407
 10647  0662  3A0D               	xorlw	105^100	; case 105
 10648  0663  1903               	skipnz
 10649  0664  2E69               	goto	i1l407
 10650  0665  3A11               	xorlw	120^105	; case 120
 10651  0666  1903               	skipnz
 10652  0667  2E3B               	goto	i1l409
 10653  0668  2E3D               	goto	i1l3708
 10654                           opt subtitle "HI-TECH Software Omniscient Code Generator (Lite mode) build 49521"
 10655                           
 10656                           opt pagewidth 120
 10657                           
 10658  0669                     i1l407:	
 10659                           opt subtitle "HI-TECH Software Omniscient Code Generator (Lite mode) build 49521"
 10660                           
 10661  0669  1283               	bcf	status, 5	;RP0=0, select bank0
 10662  066A  1303               	bcf	status, 6	;RP1=0, select bank0
 10663  066B  1BA8               	btfsc	(i1printf@flag),(7)&7
 10664  066C  2E6E               	goto	u371_21
 10665  066D  2E6F               	goto	u371_20
 10666  066E                     u371_21:
 10667  066E  2E8A               	goto	i1l3724
 10668  066F                     u371_20:
 10669                           opt subtitle "HI-TECH Software Omniscient Code Generator (Lite mode) build 49521"
 10670                           
 10671  066F                     i1l3714:	
 10672                           opt subtitle "HI-TECH Software Omniscient Code Generator (Lite mode) build 49521"
 10673                           
 10674  066F  0826               	movf	(i1printf@ap),w
 10675  0670  0084               	movwf	fsr0
 10676  0671  1383               	bcf	status, 7	;select IRP bank0
 10677  0672  0800               	movf	indf,w
 10678  0673  00A9               	movwf	(i1printf@_val)
 10679  0674  0A84               	incf	fsr0,f
 10680  0675  0800               	movf	indf,w
 10681  0676  00AA               	movwf	(i1printf@_val+1)
 10682                           opt subtitle "HI-TECH Software Omniscient Code Generator (Lite mode) build 49521"
 10683  0677                     i1l3716:	
 10684  0677  3002               	movlw	(02h)
 10685  0678  00A2               	movwf	(??i1_printf+0)+0
 10686  0679  0822               	movf	(??i1_printf+0)+0,w
 10687  067A  07A6               	addwf	(i1printf@ap),f
 10688                           opt subtitle "HI-TECH Software Omniscient Code Generator (Lite mode) build 49521"
 10689                           
 10690  067B                     i1l3718:	
 10691                           opt subtitle "HI-TECH Software Omniscient Code Generator (Lite mode) build 49521"
 10692  067B  1FAA               	btfss	(i1printf@_val+1),7
 10693  067C  2E7E               	goto	u372_21
 10694  067D  2E7F               	goto	u372_20
 10695  067E                     u372_21:
 10696  067E  2F07               	goto	i1l3754
 10697  067F                     u372_20:
 10698                           opt subtitle "HI-TECH Software Omniscient Code Generator (Lite mode) build 49521"
 10699                           
 10700  067F                     i1l3720:	
 10701                           opt subtitle "HI-TECH Software Omniscient Code Generator (Lite mode) build 49521"
 10702  067F  3003               	movlw	(03h)
 10703  0680  00A2               	movwf	(??i1_printf+0)+0
 10704  0681  0822               	movf	(??i1_printf+0)+0,w
 10705  0682  04A8               	iorwf	(i1printf@flag),f
 10706                           opt subtitle "HI-TECH Software Omniscient Code Generator (Lite mode) build 49521"
 10707                           
 10708  0683                     i1l3722:	
 10709                           opt subtitle "HI-TECH Software Omniscient Code Generator (Lite mode) build 49521"
 10710  0683  09A9               	comf	(i1printf@_val),f
 10711  0684  09AA               	comf	(i1printf@_val+1),f
 10712  0685  0AA9               	incf	(i1printf@_val),f
 10713  0686  1903               	skipnz
 10714  0687  0AAA               	incf	(i1printf@_val+1),f
 10715  0688  2F07               	goto	i1l3754
 10716                           opt subtitle "HI-TECH Software Omniscient Code Generator (Lite mode) build 49521"
 10717                           
 10718  0689                     i1l412:	
 10719                           opt subtitle "HI-TECH Software Omniscient Code Generator (Lite mode) build 49521"
 10720                           
 10721                           opt pagewidth 120
 10722  0689  2F07               	goto	i1l3754
 10723                           opt subtitle "HI-TECH Software Omniscient Code Generator (Lite mode) build 49521"
 10724                           
 10725  068A                     i1l411:	
 10726                           opt subtitle "HI-TECH Software Omniscient Code Generator (Lite mode) build 49521"
 10727                           
 10728  068A                     i1l3724:	
 10729                           opt subtitle "HI-TECH Software Omniscient Code Generator (Lite mode) build 49521"
 10730                           
 10731                           opt pagewidth 120
 10732  068A  0826               	movf	(i1printf@ap),w
 10733  068B  0084               	movwf	fsr0
 10734  068C  1383               	bcf	status, 7	;select IRP bank0
 10735  068D  0800               	movf	indf,w
 10736  068E  00A9               	movwf	(i1printf@_val)
 10737  068F  0A84               	incf	fsr0,f
 10738  0690  0800               	movf	indf,w
 10739  0691  00AA               	movwf	(i1printf@_val+1)
 10740                           opt subtitle "HI-TECH Software Omniscient Code Generator (Lite mode) build 49521"
 10741  0692                     i1l3726:	
 10742  0692  3002               	movlw	(02h)
 10743  0693  00A2               	movwf	(??i1_printf+0)+0
 10744  0694  0822               	movf	(??i1_printf+0)+0,w
 10745  0695  07A6               	addwf	(i1printf@ap),f
 10746  0696  2F07               	goto	i1l3754
 10747                           opt subtitle "HI-TECH Software Omniscient Code Generator (Lite mode) build 49521"
 10748                           
 10749  0697                     i1l413:	
 10750                           opt subtitle "HI-TECH Software Omniscient Code Generator (Lite mode) build 49521"
 10751                           
 10752                           opt pagewidth 120
 10753  0697  2F07               	goto	i1l3754
 10754                           opt subtitle "HI-TECH Software Omniscient Code Generator (Lite mode) build 49521"
 10755                           
 10756                           opt pagewidth 120
 10757  0698                     i1l415:	
 10758                           opt subtitle "HI-TECH Software Omniscient Code Generator (Lite mode) build 49521"
 10759                           
 10760  0698  01AD               	clrf	(i1printf@c)
 10761  0699  0AAD               	incf	(i1printf@c),f
 10762                           opt subtitle "HI-TECH Software Omniscient Code Generator (Lite mode) build 49521"
 10763  069A                     i1l3728:	
 10764  069A  082D               	movf	(i1printf@c),w
 10765  069B  3A05               	xorlw	05h
 10766  069C  1D03               	skipz
 10767  069D  2E9F               	goto	u373_21
 10768  069E  2EA0               	goto	u373_20
 10769  069F                     u373_21:
 10770  069F  2EA2               	goto	i1l3732
 10771  06A0                     u373_20:
 10772  06A0  2F10               	goto	i1l3756
 10773                           opt subtitle "HI-TECH Software Omniscient Code Generator (Lite mode) build 49521"
 10774  06A1                     i1l3730:	
 10775  06A1  2F10               	goto	i1l3756
 10776                           opt subtitle "HI-TECH Software Omniscient Code Generator (Lite mode) build 49521"
 10777                           
 10778  06A2                     i1l416:	
 10779                           opt subtitle "HI-TECH Software Omniscient Code Generator (Lite mode) build 49521"
 10780  06A2                     i1l3732:	
 10781                           opt subtitle "HI-TECH Software Omniscient Code Generator (Lite mode) build 49521"
 10782  06A2  082D               	movf	(i1printf@c),w
 10783  06A3  00A2               	movwf	(??i1_printf+0)+0
 10784  06A4  0722               	addwf	(??i1_printf+0)+0,w
 10785  06A5  3E83               	addlw	low(_dpowers|8000h)
 10786  06A6  0084               	movwf	fsr0
 10787  06A7  3090               	movlw	high(_dpowers|8000h)
 10788  06A8  1803               	skipnc
 10789  06A9  3E01               	addlw	1
 10790  06AA  00FF               	movwf	btemp+1
 10791  06AB  160A  118A  2000   	fcall	stringtab
              120A  118A         
 10792  06B0  00A3               	movwf	(??i1_printf+1)+0
 10793  06B1  160A  118A  2000   	fcall	stringtab
              120A  118A         
 10794  06B6  00A4               	movwf	(??i1_printf+1)+0+1
 10795  06B7  0824               	movf	1+(??i1_printf+1)+0,w
 10796  06B8  022A               	subwf	(i1printf@_val+1),w
 10797  06B9  1D03               	skipz
 10798  06BA  2EBD               	goto	u374_25
 10799  06BB  0823               	movf	0+(??i1_printf+1)+0,w
 10800  06BC  0229               	subwf	(i1printf@_val),w
 10801  06BD                     u374_25:
 10802  06BD  1803               	skipnc
 10803  06BE  2EC0               	goto	u374_21
 10804  06BF  2EC1               	goto	u374_20
 10805  06C0                     u374_21:
 10806  06C0  2EC3               	goto	i1l3736
 10807  06C1                     u374_20:
 10808  06C1  2F10               	goto	i1l3756
 10809                           opt subtitle "HI-TECH Software Omniscient Code Generator (Lite mode) build 49521"
 10810                           
 10811  06C2                     i1l3734:	
 10812                           opt subtitle "HI-TECH Software Omniscient Code Generator (Lite mode) build 49521"
 10813  06C2  2F10               	goto	i1l3756
 10814                           opt subtitle "HI-TECH Software Omniscient Code Generator (Lite mode) build 49521"
 10815  06C3                     i1l418:	
 10816                           opt subtitle "HI-TECH Software Omniscient Code Generator (Lite mode) build 49521"
 10817                           
 10818  06C3                     i1l3736:	
 10819  06C3  3001               	movlw	(01h)
 10820  06C4  00A2               	movwf	(??i1_printf+0)+0
 10821  06C5  0822               	movf	(??i1_printf+0)+0,w
 10822  06C6  07AD               	addwf	(i1printf@c),f
 10823                           opt subtitle "HI-TECH Software Omniscient Code Generator (Lite mode) build 49521"
 10824  06C7                     i1l3738:	
 10825  06C7  082D               	movf	(i1printf@c),w
 10826  06C8  3A05               	xorlw	05h
 10827  06C9  1D03               	skipz
 10828  06CA  2ECC               	goto	u375_21
 10829  06CB  2ECD               	goto	u375_20
 10830  06CC                     u375_21:
 10831  06CC  2EA2               	goto	i1l3732
 10832  06CD                     u375_20:
 10833  06CD  2F10               	goto	i1l3756
 10834                           opt subtitle "HI-TECH Software Omniscient Code Generator (Lite mode) build 49521"
 10835  06CE                     i1l417:	
 10836                           opt subtitle "HI-TECH Software Omniscient Code Generator (Lite mode) build 49521"
 10837                           
 10838  06CE  2F10               	goto	i1l3756
 10839                           opt subtitle "HI-TECH Software Omniscient Code Generator (Lite mode) build 49521"
 10840                           
 10841                           opt pagewidth 120
 10842  06CF                     i1l420:	
 10843                           opt subtitle "HI-TECH Software Omniscient Code Generator (Lite mode) build 49521"
 10844                           
 10845  06CF  01AD               	clrf	(i1printf@c)
 10846  06D0  0AAD               	incf	(i1printf@c),f
 10847                           opt subtitle "HI-TECH Software Omniscient Code Generator (Lite mode) build 49521"
 10848  06D1                     i1l3740:	
 10849  06D1  082D               	movf	(i1printf@c),w
 10850  06D2  3A04               	xorlw	04h
 10851  06D3  1D03               	skipz
 10852  06D4  2ED6               	goto	u376_21
 10853  06D5  2ED7               	goto	u376_20
 10854  06D6                     u376_21:
 10855  06D6  2ED9               	goto	i1l3744
 10856  06D7                     u376_20:
 10857  06D7  2F10               	goto	i1l3756
 10858                           opt subtitle "HI-TECH Software Omniscient Code Generator (Lite mode) build 49521"
 10859  06D8                     i1l3742:	
 10860  06D8  2F10               	goto	i1l3756
 10861                           opt subtitle "HI-TECH Software Omniscient Code Generator (Lite mode) build 49521"
 10862                           
 10863  06D9                     i1l421:	
 10864                           opt subtitle "HI-TECH Software Omniscient Code Generator (Lite mode) build 49521"
 10865  06D9                     i1l3744:	
 10866                           opt subtitle "HI-TECH Software Omniscient Code Generator (Lite mode) build 49521"
 10867  06D9  082D               	movf	(i1printf@c),w
 10868  06DA  00A2               	movwf	(??i1_printf+0)+0
 10869  06DB  0722               	addwf	(??i1_printf+0)+0,w
 10870  06DC  3E8D               	addlw	low(_hexpowers|8000h)
 10871  06DD  0084               	movwf	fsr0
 10872  06DE  3090               	movlw	high(_hexpowers|8000h)
 10873  06DF  1803               	skipnc
 10874  06E0  3E01               	addlw	1
 10875  06E1  00FF               	movwf	btemp+1
 10876  06E2  160A  118A  2000   	fcall	stringtab
              120A  118A         
 10877  06E7  00A3               	movwf	(??i1_printf+1)+0
 10878  06E8  160A  118A  2000   	fcall	stringtab
              120A  118A         
 10879  06ED  00A4               	movwf	(??i1_printf+1)+0+1
 10880  06EE  0824               	movf	1+(??i1_printf+1)+0,w
 10881  06EF  022A               	subwf	(i1printf@_val+1),w
 10882  06F0  1D03               	skipz
 10883  06F1  2EF4               	goto	u377_25
 10884  06F2  0823               	movf	0+(??i1_printf+1)+0,w
 10885  06F3  0229               	subwf	(i1printf@_val),w
 10886  06F4                     u377_25:
 10887  06F4  1803               	skipnc
 10888  06F5  2EF7               	goto	u377_21
 10889  06F6  2EF8               	goto	u377_20
 10890  06F7                     u377_21:
 10891  06F7  2EFA               	goto	i1l3748
 10892  06F8                     u377_20:
 10893  06F8  2F10               	goto	i1l3756
 10894                           opt subtitle "HI-TECH Software Omniscient Code Generator (Lite mode) build 49521"
 10895                           
 10896  06F9                     i1l3746:	
 10897                           opt subtitle "HI-TECH Software Omniscient Code Generator (Lite mode) build 49521"
 10898  06F9  2F10               	goto	i1l3756
 10899                           opt subtitle "HI-TECH Software Omniscient Code Generator (Lite mode) build 49521"
 10900  06FA                     i1l423:	
 10901                           opt subtitle "HI-TECH Software Omniscient Code Generator (Lite mode) build 49521"
 10902                           
 10903  06FA                     i1l3748:	
 10904  06FA  3001               	movlw	(01h)
 10905  06FB  00A2               	movwf	(??i1_printf+0)+0
 10906  06FC  0822               	movf	(??i1_printf+0)+0,w
 10907  06FD  07AD               	addwf	(i1printf@c),f
 10908                           opt subtitle "HI-TECH Software Omniscient Code Generator (Lite mode) build 49521"
 10909  06FE                     i1l3750:	
 10910  06FE  082D               	movf	(i1printf@c),w
 10911  06FF  3A04               	xorlw	04h
 10912  0700  1D03               	skipz
 10913  0701  2F03               	goto	u378_21
 10914  0702  2F04               	goto	u378_20
 10915  0703                     u378_21:
 10916  0703  2ED9               	goto	i1l3744
 10917  0704                     u378_20:
 10918  0704  2F10               	goto	i1l3756
 10919                           opt subtitle "HI-TECH Software Omniscient Code Generator (Lite mode) build 49521"
 10920  0705                     i1l422:	
 10921                           opt subtitle "HI-TECH Software Omniscient Code Generator (Lite mode) build 49521"
 10922                           
 10923  0705  2F10               	goto	i1l3756
 10924                           opt subtitle "HI-TECH Software Omniscient Code Generator (Lite mode) build 49521"
 10925                           
 10926  0706                     i1l3752:	
 10927                           opt subtitle "HI-TECH Software Omniscient Code Generator (Lite mode) build 49521"
 10928  0706  2F10               	goto	i1l3756
 10929                           opt subtitle "HI-TECH Software Omniscient Code Generator (Lite mode) build 49521"
 10930                           
 10931  0707                     i1l414:	
 10932                           opt subtitle "HI-TECH Software Omniscient Code Generator (Lite mode) build 49521"
 10933  0707                     i1l3754:	
 10934  0707  0828               	movf	(i1printf@flag),w
 10935  0708  3980               	andlw	080h
 10936                           opt subtitle "HI-TECH Software Omniscient Code Generator (Lite mode) build 49521"
 10937                           
 10938                           opt pagewidth 120
 10939                           
 10940                           	opt lm
 10941                           
 10942                           	processor	16LF707
 10943                           clrc	macro
 10944                           	bcf	3,0
 10945                           	endm
 10946                           clrz	macro
 10947                           	bcf	3,2
 10948  0709  3A00               	xorlw	0^0	; case 0
 10949  070A  1903               	skipnz
 10950  070B  2E98               	goto	i1l415
 10951  070C  3A80               	xorlw	128^0	; case 128
 10952  070D  1903               	skipnz
 10953  070E  2ECF               	goto	i1l420
 10954  070F  2F10               	goto	i1l3756
 10955                           opt subtitle "HI-TECH Software Omniscient Code Generator (Lite mode) build 49521"
 10956                           
 10957                           opt pagewidth 120
 10958                           
 10959  0710                     i1l419:	
 10960                           opt subtitle "HI-TECH Software Omniscient Code Generator (Lite mode) build 49521"
 10961                           
 10962  0710                     i1l3756:	
 10963                           opt subtitle "HI-TECH Software Omniscient Code Generator (Lite mode) build 49521"
 10964                           
 10965  0710  0828               	movf	(i1printf@flag),w
 10966  0711  3903               	andlw	03h
 10967  0712  1903               	btfsc	status,2
 10968  0713  2F15               	goto	u379_21
 10969  0714  2F16               	goto	u379_20
 10970  0715                     u379_21:
 10971  0715  2F1D               	goto	i1l3760
 10972  0716                     u379_20:
 10973                           opt subtitle "HI-TECH Software Omniscient Code Generator (Lite mode) build 49521"
 10974                           
 10975  0716                     i1l3758:	
 10976                           opt subtitle "HI-TECH Software Omniscient Code Generator (Lite mode) build 49521"
 10977  0716  302D               	movlw	(02Dh)
 10978  0717  160A  118A  2491   	fcall	i1_putch
              120A  118A         
 10979  071C  2F1D               	goto	i1l3760
 10980                           opt subtitle "HI-TECH Software Omniscient Code Generator (Lite mode) build 49521"
 10981  071D                     i1l424:	
 10982                           opt subtitle "HI-TECH Software Omniscient Code Generator (Lite mode) build 49521"
 10983                           
 10984  071D                     i1l3760:	
 10985                           opt subtitle "HI-TECH Software Omniscient Code Generator (Lite mode) build 49521"
 10986                           
 10987  071D  1283               	bcf	status, 5	;RP0=0, select bank0
 10988  071E  1303               	bcf	status, 6	;RP1=0, select bank0
 10989  071F  082D               	movf	(i1printf@c),w
 10990  0720  00A2               	movwf	(??i1_printf+0)+0
 10991  0721  0822               	movf	(??i1_printf+0)+0,w
 10992  0722  00A7               	movwf	(i1printf@prec)
 10993                           opt subtitle "HI-TECH Software Omniscient Code Generator (Lite mode) build 49521"
 10994                           
 10995  0723  2FA4               	goto	i1l3774
 10996                           opt subtitle "HI-TECH Software Omniscient Code Generator (Lite mode) build 49521"
 10997  0724                     i1l426:	
 10998                           opt subtitle "HI-TECH Software Omniscient Code Generator (Lite mode) build 49521"
 10999                           
 11000  0724  2F94               	goto	i1l3770
 11001                           opt subtitle "HI-TECH Software Omniscient Code Generator (Lite mode) build 49521"
 11002                           
 11003                           opt pagewidth 120
 11004                           
 11005  0725                     i1l428:	
 11006                           opt subtitle "HI-TECH Software Omniscient Code Generator (Lite mode) build 49521"
 11007                           
 11008  0725                     i1l3762:	
 11009                           opt subtitle "HI-TECH Software Omniscient Code Generator (Lite mode) build 49521"
 11010  0725  300A               	movlw	low(0Ah)
 11011  0726  00F8               	movwf	(?i1___lwmod)
 11012  0727  3000               	movlw	high(0Ah)
 11013  0728  00F9               	movwf	((?i1___lwmod))+1
 11014  0729  0827               	movf	(i1printf@prec),w
 11015  072A  00A2               	movwf	(??i1_printf+0)+0
 11016  072B  0722               	addwf	(??i1_printf+0)+0,w
 11017  072C  3E83               	addlw	low(_dpowers|8000h)
 11018  072D  0084               	movwf	fsr0
 11019  072E  3090               	movlw	high(_dpowers|8000h)
 11020  072F  1803               	skipnc
 11021  0730  3E01               	addlw	1
 11022  0731  00FF               	movwf	btemp+1
 11023  0732  160A  118A  2000   	fcall	stringtab
              120A  118A         
 11024  0737  00F0               	movwf	(?i1___lwdiv)
 11025  0738  160A  118A  2000   	fcall	stringtab
              120A  118A         
 11026  073D  00F1               	movwf	(?i1___lwdiv+1)
 11027  073E  082A               	movf	(i1printf@_val+1),w
 11028  073F  01F3               	clrf	1+(?i1___lwdiv)+02h
 11029  0740  07F3               	addwf	1+(?i1___lwdiv)+02h
 11030  0741  0829               	movf	(i1printf@_val),w
 11031  0742  01F2               	clrf	0+(?i1___lwdiv)+02h
 11032  0743  07F2               	addwf	0+(?i1___lwdiv)+02h
 11033                           opt subtitle "HI-TECH Software Omniscient Code Generator (Lite mode) build 49521"
 11034  0744  160A  118A  2764   	fcall	i1___lwdiv
              120A  118A         
 11035  0749  0871               	movf	(1+(?i1___lwdiv)),w
 11036  074A  01FB               	clrf	1+(?i1___lwmod)+02h
 11037  074B  07FB               	addwf	1+(?i1___lwmod)+02h
 11038  074C  0870               	movf	(0+(?i1___lwdiv)),w
 11039  074D  01FA               	clrf	0+(?i1___lwmod)+02h
 11040  074E  07FA               	addwf	0+(?i1___lwmod)+02h
 11041                           opt subtitle "HI-TECH Software Omniscient Code Generator (Lite mode) build 49521"
 11042  074F  160A  118A  26DC   	fcall	i1___lwmod
              120A  118A         
 11043  0754  0878               	movf	(0+(?i1___lwmod)),w
 11044  0755  3E30               	addlw	030h
 11045  0756  1283               	bcf	status, 5	;RP0=0, select bank0
 11046  0757  1303               	bcf	status, 6	;RP1=0, select bank0
 11047  0758  00A3               	movwf	(??i1_printf+1)+0
 11048  0759  0823               	movf	(??i1_printf+1)+0,w
 11049  075A  00AD               	movwf	(i1printf@c)
 11050                           opt subtitle "HI-TECH Software Omniscient Code Generator (Lite mode) build 49521"
 11051                           
 11052  075B  2F9D               	goto	i1l3772
 11053                           opt subtitle "HI-TECH Software Omniscient Code Generator (Lite mode) build 49521"
 11054                           
 11055                           opt pagewidth 120
 11056  075C                     i1l430:	
 11057                           opt subtitle "HI-TECH Software Omniscient Code Generator (Lite mode) build 49521"
 11058                           
 11059  075C                     i1l3764:	
 11060                           opt subtitle "HI-TECH Software Omniscient Code Generator (Lite mode) build 49521"
 11061                           
 11062  075C  0827               	movf	(i1printf@prec),w
 11063  075D  00A2               	movwf	(??i1_printf+0)+0
 11064  075E  0722               	addwf	(??i1_printf+0)+0,w
 11065  075F  3E8D               	addlw	low(_hexpowers|8000h)
 11066  0760  0084               	movwf	fsr0
 11067  0761  3090               	movlw	high(_hexpowers|8000h)
 11068  0762  1803               	skipnc
 11069  0763  3E01               	addlw	1
 11070  0764  00FF               	movwf	btemp+1
 11071  0765  160A  118A  2000   	fcall	stringtab
              120A  118A         
 11072  076A  00F0               	movwf	(?i1___lwdiv)
 11073  076B  160A  118A  2000   	fcall	stringtab
              120A  118A         
 11074  0770  00F1               	movwf	(?i1___lwdiv+1)
 11075  0771  082A               	movf	(i1printf@_val+1),w
 11076  0772  01F3               	clrf	1+(?i1___lwdiv)+02h
 11077  0773  07F3               	addwf	1+(?i1___lwdiv)+02h
 11078  0774  0829               	movf	(i1printf@_val),w
 11079  0775  01F2               	clrf	0+(?i1___lwdiv)+02h
 11080  0776  07F2               	addwf	0+(?i1___lwdiv)+02h
 11081                           opt subtitle "HI-TECH Software Omniscient Code Generator (Lite mode) build 49521"
 11082  0777  160A  118A  2764   	fcall	i1___lwdiv
              120A  118A         
 11083  077C  0870               	movf	(0+(?i1___lwdiv)),w
 11084  077D  390F               	andlw	0Fh
 11085  077E  1283               	bcf	status, 5	;RP0=0, select bank0
 11086  077F  1303               	bcf	status, 6	;RP1=0, select bank0
 11087  0780  00A3               	movwf	(??i1_printf+1)+0
 11088  0781  0823               	movf	(??i1_printf+1)+0,w
 11089  0782  00A5               	movwf	(i1printf@idx)
 11090                           opt subtitle "HI-TECH Software Omniscient Code Generator (Lite mode) build 49521"
 11091                           
 11092  0783                     i1l3766:	
 11093                           opt subtitle "HI-TECH Software Omniscient Code Generator (Lite mode) build 49521"
 11094  0783  0825               	movf	(i1printf@idx),w
 11095  0784  3E5F               	addlw	low(STR_16|8000h)
 11096  0785  0084               	movwf	fsr0
 11097  0786  3091               	movlw	high(STR_16|8000h)
 11098  0787  1803               	skipnc
 11099  0788  3E01               	addlw	1
 11100  0789  00FF               	movwf	btemp+1
 11101  078A  160A  118A  2000   	fcall	stringtab
              120A  118A         
 11102  078F  00A2               	movwf	(??i1_printf+0)+0
 11103  0790  0822               	movf	(??i1_printf+0)+0,w
 11104  0791  00AD               	movwf	(i1printf@c)
 11105                           opt subtitle "HI-TECH Software Omniscient Code Generator (Lite mode) build 49521"
 11106                           
 11107                           opt pagewidth 120
 11108  0792  2F9D               	goto	i1l3772
 11109                           opt subtitle "HI-TECH Software Omniscient Code Generator (Lite mode) build 49521"
 11110                           
 11111  0793                     i1l3768:	
 11112                           opt subtitle "HI-TECH Software Omniscient Code Generator (Lite mode) build 49521"
 11113  0793  2F9D               	goto	i1l3772
 11114                           opt subtitle "HI-TECH Software Omniscient Code Generator (Lite mode) build 49521"
 11115                           
 11116  0794                     i1l427:	
 11117                           opt subtitle "HI-TECH Software Omniscient Code Generator (Lite mode) build 49521"
 11118  0794                     i1l3770:	
 11119  0794  0828               	movf	(i1printf@flag),w
 11120  0795  3980               	andlw	080h
 11121                           opt subtitle "HI-TECH Software Omniscient Code Generator (Lite mode) build 49521"
 11122                           
 11123                           opt pagewidth 120
 11124                           
 11125                           	opt lm
 11126                           
 11127                           	processor	16LF707
 11128                           clrc	macro
 11129                           	bcf	3,0
 11130                           	endm
 11131                           clrz	macro
 11132                           	bcf	3,2
 11133  0796  3A00               	xorlw	0^0	; case 0
 11134  0797  1903               	skipnz
 11135  0798  2F25               	goto	i1l3762
 11136  0799  3A80               	xorlw	128^0	; case 128
 11137  079A  1903               	skipnz
 11138  079B  2F5C               	goto	i1l3764
 11139  079C  2F9D               	goto	i1l3772
 11140                           opt subtitle "HI-TECH Software Omniscient Code Generator (Lite mode) build 49521"
 11141                           
 11142                           opt pagewidth 120
 11143                           
 11144  079D                     i1l429:	
 11145                           opt subtitle "HI-TECH Software Omniscient Code Generator (Lite mode) build 49521"
 11146                           
 11147  079D                     i1l3772:	
 11148                           opt subtitle "HI-TECH Software Omniscient Code Generator (Lite mode) build 49521"
 11149  079D  082D               	movf	(i1printf@c),w
 11150  079E  160A  118A  2491   	fcall	i1_putch
              120A  118A         
 11151  07A3  2FA4               	goto	i1l3774
 11152                           opt subtitle "HI-TECH Software Omniscient Code Generator (Lite mode) build 49521"
 11153                           
 11154  07A4                     i1l425:	
 11155                           opt subtitle "HI-TECH Software Omniscient Code Generator (Lite mode) build 49521"
 11156                           
 11157  07A4                     i1l3774:	
 11158  07A4  30FF               	movlw	(-1)
 11159  07A5  1283               	bcf	status, 5	;RP0=0, select bank0
 11160  07A6  1303               	bcf	status, 6	;RP1=0, select bank0
 11161  07A7  00A2               	movwf	(??i1_printf+0)+0
 11162  07A8  0822               	movf	(??i1_printf+0)+0,w
 11163  07A9  07A7               	addwf	(i1printf@prec),f
 11164  07AA  0827               	movf	((i1printf@prec)),w
 11165  07AB  3AFF               	xorlw	-1
 11166  07AC  1D03               	skipz
 11167  07AD  2FAF               	goto	u380_21
 11168  07AE  2FB0               	goto	u380_20
 11169  07AF                     u380_21:
 11170  07AF  2F94               	goto	i1l3770
 11171  07B0                     u380_20:
 11172  07B0  2FB2               	goto	i1l3776
 11173                           opt subtitle "HI-TECH Software Omniscient Code Generator (Lite mode) build 49521"
 11174  07B1                     i1l431:	
 11175  07B1  2FB2               	goto	i1l3776
 11176                           opt subtitle "HI-TECH Software Omniscient Code Generator (Lite mode) build 49521"
 11177                           
 11178  07B2                     i1l399:	
 11179                           opt subtitle "HI-TECH Software Omniscient Code Generator (Lite mode) build 49521"
 11180                           
 11181  07B2                     i1l3776:	
 11182  07B2  1283               	bcf	status, 5	;RP0=0, select bank0
 11183  07B3  1303               	bcf	status, 6	;RP1=0, select bank0
 11184  07B4  0821               	movf	(i1printf@f+1),w
 11185  07B5  00A3               	movwf	(??i1_printf+0)+0+1
 11186  07B6  0820               	movf	(i1printf@f),w
 11187  07B7  00A2               	movwf	(??i1_printf+0)+0
 11188  07B8  3001               	movlw	(01h)
 11189  07B9  07A0               	addwf	(i1printf@f),f
 11190  07BA  1803               	skipnc
 11191  07BB  0AA1               	incf	(i1printf@f+1),f
 11192  07BC  0823               	movf	1+(??i1_printf+0)+0,w
 11193  07BD  00FF               	movwf	btemp+1
 11194  07BE  0822               	movf	0+(??i1_printf+0)+0,w
 11195  07BF  0084               	movwf	fsr0
 11196  07C0  160A  118A  2000   	fcall	stringtab
              120A  118A         
 11197  07C5  00A4               	movwf	(??i1_printf+2)+0
 11198  07C6  0824               	movf	(??i1_printf+2)+0,w
 11199  07C7  00AD               	movwf	(i1printf@c)
 11200  07C8  08AD               	movf	((i1printf@c)),f
 11201  07C9  1D03               	skipz
 11202  07CA  2FCC               	goto	u381_21
 11203  07CB  2FCD               	goto	u381_20
 11204  07CC                     u381_21:
 11205  07CC  2E29               	goto	i1l3704
 11206  07CD                     u381_20:
 11207  07CD  2FCF               	goto	i1l433
 11208                           opt subtitle "HI-TECH Software Omniscient Code Generator (Lite mode) build 49521"
 11209  07CE                     i1l432:	
 11210  07CE  2FCF               	goto	i1l433
 11211                           opt subtitle "HI-TECH Software Omniscient Code Generator (Lite mode) build 49521"
 11212                           
 11213                           opt pagewidth 120
 11214                           
 11215                           	opt lm
 11216  07CF                     i1l404:	
 11217                           opt subtitle "HI-TECH Software Omniscient Code Generator (Lite mode) build 49521"
 11218                           
 11219                           opt pagewidth 120
 11220                           
 11221  07CF                     i1l433:	
 11222  07CF  0008               	return
 11223                           opt subtitle "HI-TECH Software Omniscient Code Generator (Lite mode) build 49521"
 11224                           
 11225  07D0                     	__end_ofi1_printf:
 11226                           opt subtitle "HI-TECH Software Omniscient Code Generator (Lite mode) build 49521"
 11227                           
 11228                           opt pagewidth 120
 11229                           
 11230                           	opt lm
 11231                           
 11232                           	processor	16LF707
 11233                           clrc	macro
 11234                           	bcf	3,0
 11235                           	endm
 11236                           clrz	macro
 11237                           	bcf	3,2
 11238                           	endm
 11239                           setc	macro
 11240                           	bsf	3,0
 11241                           	endm
 11242                           setz	macro
 11243                           	bsf	3,2
 11244                           	endm
 11245                           skipc	macro
 11246                           	btfss	3,0
 11247                           	endm
 11248                           skipz	macro
 11249                           	btfss	3,2
 11250                           	endm
 11251                           skipnc	macro
 11252                           	btfsc	3,0
 11253                           	endm
 11254                           skipnz	macro
 11255                           	btfsc	3,2
 11256                           	endm
 11257                           indf	equ	0
 11258                           indf0	equ	0
 11259                           pc	equ	2
 11260  16DC                     __ptext1199:	;psect for function i1___lwmod
 11261                           opt subtitle "HI-TECH Software Omniscient Code Generator (Lite mode) build 49521"
 11262                           
 11263                           opt pagewidth 120
 11264                           
 11265  0043                     	__size_ofi1___lwmod	equ	__end_ofi1___lwmod-i1___lwmod
 11266                           opt subtitle "HI-TECH Software Omniscient Code Generator (Lite mode) build 49521"
 11267  16DC                     i1___lwmod:	
 11268                           opt subtitle "HI-TECH Software Omniscient Code Generator (Lite mode) build 49521"
 11269                           
 11270                           opt pagewidth 120
 11271                           
 11272  16DC                     i1l3680:	
 11273  16DC  0879               	movf	(i1___lwmod@divisor+1),w
 11274  16DD  0478               	iorwf	(i1___lwmod@divisor),w
 11275  16DE  1903               	skipnz
 11276  16DF  2EE1               	goto	u364_21
 11277  16E0  2EE2               	goto	u364_20
 11278  16E1                     u364_21:
 11279  16E1  2F17               	goto	i1l3698
 11280  16E2                     u364_20:
 11281                           opt subtitle "HI-TECH Software Omniscient Code Generator (Lite mode) build 49521"
 11282                           
 11283  16E2                     i1l3682:	
 11284  16E2  01FD               	clrf	(i1___lwmod@counter)
 11285  16E3  0AFD               	incf	(i1___lwmod@counter),f
 11286                           opt subtitle "HI-TECH Software Omniscient Code Generator (Lite mode) build 49521"
 11287  16E4  2EF1               	goto	i1l3688
 11288                           opt subtitle "HI-TECH Software Omniscient Code Generator (Lite mode) build 49521"
 11289  16E5                     i1l460:	
 11290                           opt subtitle "HI-TECH Software Omniscient Code Generator (Lite mode) build 49521"
 11291                           
 11292  16E5                     i1l3684:	
 11293  16E5  3001               	movlw	01h
 11294                           opt subtitle "HI-TECH Software Omniscient Code Generator (Lite mode) build 49521"
 11295  16E6                     u365_25:
 11296  16E6  1003               	clrc
 11297  16E7  0DF8               	rlf	(i1___lwmod@divisor),f
 11298  16E8  0DF9               	rlf	(i1___lwmod@divisor+1),f
 11299  16E9  3EFF               	addlw	-1
 11300  16EA  1D03               	skipz
 11301  16EB  2EE6               	goto	u365_25
 11302                           opt subtitle "HI-TECH Software Omniscient Code Generator (Lite mode) build 49521"
 11303                           
 11304  16EC                     i1l3686:	
 11305  16EC  3001               	movlw	(01h)
 11306  16ED  00FC               	movwf	(??i1___lwmod+0)+0
 11307  16EE  087C               	movf	(??i1___lwmod+0)+0,w
 11308  16EF  07FD               	addwf	(i1___lwmod@counter),f
 11309  16F0  2EF1               	goto	i1l3688
 11310                           opt subtitle "HI-TECH Software Omniscient Code Generator (Lite mode) build 49521"
 11311                           
 11312  16F1                     i1l459:	
 11313                           opt subtitle "HI-TECH Software Omniscient Code Generator (Lite mode) build 49521"
 11314                           
 11315  16F1                     i1l3688:	
 11316  16F1  1FF9               	btfss	(i1___lwmod@divisor+1),(15)&7
 11317  16F2  2EF4               	goto	u366_21
 11318  16F3  2EF5               	goto	u366_20
 11319  16F4                     u366_21:
 11320  16F4  2EE5               	goto	i1l3684
 11321  16F5                     u366_20:
 11322  16F5  2EF7               	goto	i1l3690
 11323                           opt subtitle "HI-TECH Software Omniscient Code Generator (Lite mode) build 49521"
 11324  16F6                     i1l461:	
 11325  16F6  2EF7               	goto	i1l3690
 11326                           opt subtitle "HI-TECH Software Omniscient Code Generator (Lite mode) build 49521"
 11327                           
 11328  16F7                     i1l462:	
 11329                           opt subtitle "HI-TECH Software Omniscient Code Generator (Lite mode) build 49521"
 11330                           
 11331  16F7                     i1l3690:	
 11332  16F7  0879               	movf	(i1___lwmod@divisor+1),w
 11333  16F8  027B               	subwf	(i1___lwmod@dividend+1),w
 11334  16F9  1D03               	skipz
 11335  16FA  2EFD               	goto	u367_25
 11336  16FB  0878               	movf	(i1___lwmod@divisor),w
 11337  16FC  027A               	subwf	(i1___lwmod@dividend),w
 11338  16FD                     u367_25:
 11339  16FD  1C03               	skipc
 11340  16FE  2F00               	goto	u367_21
 11341  16FF  2F01               	goto	u367_20
 11342  1700                     u367_21:
 11343  1700  2F08               	goto	i1l3694
 11344  1701                     u367_20:
 11345                           opt subtitle "HI-TECH Software Omniscient Code Generator (Lite mode) build 49521"
 11346                           
 11347  1701                     i1l3692:	
 11348  1701  0878               	movf	(i1___lwmod@divisor),w
 11349  1702  02FA               	subwf	(i1___lwmod@dividend),f
 11350  1703  0879               	movf	(i1___lwmod@divisor+1),w
 11351  1704  1C03               	skipc
 11352  1705  03FB               	decf	(i1___lwmod@dividend+1),f
 11353  1706  02FB               	subwf	(i1___lwmod@dividend+1),f
 11354  1707  2F08               	goto	i1l3694
 11355                           opt subtitle "HI-TECH Software Omniscient Code Generator (Lite mode) build 49521"
 11356  1708                     i1l463:	
 11357                           opt subtitle "HI-TECH Software Omniscient Code Generator (Lite mode) build 49521"
 11358                           
 11359  1708                     i1l3694:	
 11360  1708  3001               	movlw	01h
 11361                           opt subtitle "HI-TECH Software Omniscient Code Generator (Lite mode) build 49521"
 11362  1709                     u368_25:
 11363  1709  1003               	clrc
 11364  170A  0CF9               	rrf	(i1___lwmod@divisor+1),f
 11365  170B  0CF8               	rrf	(i1___lwmod@divisor),f
 11366  170C  3EFF               	addlw	-1
 11367  170D  1D03               	skipz
 11368  170E  2F09               	goto	u368_25
 11369                           opt subtitle "HI-TECH Software Omniscient Code Generator (Lite mode) build 49521"
 11370                           
 11371  170F                     i1l3696:	
 11372  170F  3001               	movlw	low(01h)
 11373  1710  02FD               	subwf	(i1___lwmod@counter),f
 11374  1711  1D03               	btfss	status,2
 11375  1712  2F14               	goto	u369_21
 11376  1713  2F15               	goto	u369_20
 11377  1714                     u369_21:
 11378  1714  2EF7               	goto	i1l3690
 11379  1715                     u369_20:
 11380  1715  2F17               	goto	i1l3698
 11381                           opt subtitle "HI-TECH Software Omniscient Code Generator (Lite mode) build 49521"
 11382  1716                     i1l464:	
 11383  1716  2F17               	goto	i1l3698
 11384                           opt subtitle "HI-TECH Software Omniscient Code Generator (Lite mode) build 49521"
 11385                           
 11386  1717                     i1l458:	
 11387                           opt subtitle "HI-TECH Software Omniscient Code Generator (Lite mode) build 49521"
 11388                           
 11389  1717                     i1l3698:	
 11390  1717  087B               	movf	(i1___lwmod@dividend+1),w
 11391  1718  01F9               	clrf	(?i1___lwmod+1)
 11392  1719  07F9               	addwf	(?i1___lwmod+1)
 11393  171A  087A               	movf	(i1___lwmod@dividend),w
 11394  171B  01F8               	clrf	(?i1___lwmod)
 11395  171C  07F8               	addwf	(?i1___lwmod)
 11396                           opt subtitle "HI-TECH Software Omniscient Code Generator (Lite mode) build 49521"
 11397  171D  2F1E               	goto	i1l465
 11398                           opt subtitle "HI-TECH Software Omniscient Code Generator (Lite mode) build 49521"
 11399  171E                     i1l3700:	
 11400                           opt subtitle "HI-TECH Software Omniscient Code Generator (Lite mode) build 49521"
 11401                           
 11402  171E                     i1l465:	
 11403  171E  0008               	return
 11404                           opt subtitle "HI-TECH Software Omniscient Code Generator (Lite mode) build 49521"
 11405                           
 11406  171F                     	__end_ofi1___lwmod:
 11407                           opt subtitle "HI-TECH Software Omniscient Code Generator (Lite mode) build 49521"
 11408                           
 11409                           opt pagewidth 120
 11410                           
 11411                           	opt lm
 11412                           
 11413                           	processor	16LF707
 11414                           clrc	macro
 11415                           	bcf	3,0
 11416                           	endm
 11417                           clrz	macro
 11418                           	bcf	3,2
 11419                           	endm
 11420                           setc	macro
 11421                           	bsf	3,0
 11422                           	endm
 11423                           setz	macro
 11424                           	bsf	3,2
 11425                           	endm
 11426                           skipc	macro
 11427                           	btfss	3,0
 11428                           	endm
 11429                           skipz	macro
 11430                           	btfss	3,2
 11431                           	endm
 11432                           skipnc	macro
 11433                           	btfsc	3,0
 11434                           	endm
 11435                           skipnz	macro
 11436                           	btfsc	3,2
 11437                           	endm
 11438                           indf	equ	0
 11439                           indf0	equ	0
 11440                           pc	equ	2
 11441                           pcl	equ	2
 11442  1764                     __ptext1200:	;psect for function i1___lwdiv
 11443                           opt subtitle "HI-TECH Software Omniscient Code Generator (Lite mode) build 49521"
 11444                           
 11445                           opt pagewidth 120
 11446                           
 11447  004D                     	__size_ofi1___lwdiv	equ	__end_ofi1___lwdiv-i1___lwdiv
 11448                           opt subtitle "HI-TECH Software Omniscient Code Generator (Lite mode) build 49521"
 11449  1764                     i1___lwdiv:	
 11450                           opt subtitle "HI-TECH Software Omniscient Code Generator (Lite mode) build 49521"
 11451                           
 11452                           opt pagewidth 120
 11453                           
 11454  1764                     i1l3654:	
 11455  1764  01F6               	clrf	(i1___lwdiv@quotient)
 11456  1765  01F7               	clrf	(i1___lwdiv@quotient+1)
 11457                           opt subtitle "HI-TECH Software Omniscient Code Generator (Lite mode) build 49521"
 11458                           
 11459  1766                     i1l3656:	
 11460  1766  0871               	movf	(i1___lwdiv@divisor+1),w
 11461  1767  0470               	iorwf	(i1___lwdiv@divisor),w
 11462  1768  1903               	skipnz
 11463  1769  2F6B               	goto	u357_21
 11464  176A  2F6C               	goto	u357_20
 11465  176B                     u357_21:
 11466  176B  2FA9               	goto	i1l3676
 11467  176C                     u357_20:
 11468                           opt subtitle "HI-TECH Software Omniscient Code Generator (Lite mode) build 49521"
 11469                           
 11470  176C                     i1l3658:	
 11471  176C  01F5               	clrf	(i1___lwdiv@counter)
 11472  176D  0AF5               	incf	(i1___lwdiv@counter),f
 11473                           opt subtitle "HI-TECH Software Omniscient Code Generator (Lite mode) build 49521"
 11474  176E  2F7B               	goto	i1l3664
 11475                           opt subtitle "HI-TECH Software Omniscient Code Generator (Lite mode) build 49521"
 11476  176F                     i1l450:	
 11477                           opt subtitle "HI-TECH Software Omniscient Code Generator (Lite mode) build 49521"
 11478                           
 11479  176F                     i1l3660:	
 11480  176F  3001               	movlw	01h
 11481                           opt subtitle "HI-TECH Software Omniscient Code Generator (Lite mode) build 49521"
 11482  1770                     u358_25:
 11483  1770  1003               	clrc
 11484  1771  0DF0               	rlf	(i1___lwdiv@divisor),f
 11485  1772  0DF1               	rlf	(i1___lwdiv@divisor+1),f
 11486  1773  3EFF               	addlw	-1
 11487  1774  1D03               	skipz
 11488  1775  2F70               	goto	u358_25
 11489                           opt subtitle "HI-TECH Software Omniscient Code Generator (Lite mode) build 49521"
 11490                           
 11491  1776                     i1l3662:	
 11492  1776  3001               	movlw	(01h)
 11493  1777  00F4               	movwf	(??i1___lwdiv+0)+0
 11494  1778  0874               	movf	(??i1___lwdiv+0)+0,w
 11495  1779  07F5               	addwf	(i1___lwdiv@counter),f
 11496  177A  2F7B               	goto	i1l3664
 11497                           opt subtitle "HI-TECH Software Omniscient Code Generator (Lite mode) build 49521"
 11498                           
 11499  177B                     i1l449:	
 11500                           opt subtitle "HI-TECH Software Omniscient Code Generator (Lite mode) build 49521"
 11501                           
 11502  177B                     i1l3664:	
 11503  177B  1FF1               	btfss	(i1___lwdiv@divisor+1),(15)&7
 11504  177C  2F7E               	goto	u359_21
 11505  177D  2F7F               	goto	u359_20
 11506  177E                     u359_21:
 11507  177E  2F6F               	goto	i1l3660
 11508  177F                     u359_20:
 11509  177F  2F81               	goto	i1l3666
 11510                           opt subtitle "HI-TECH Software Omniscient Code Generator (Lite mode) build 49521"
 11511  1780                     i1l451:	
 11512  1780  2F81               	goto	i1l3666
 11513                           opt subtitle "HI-TECH Software Omniscient Code Generator (Lite mode) build 49521"
 11514                           
 11515  1781                     i1l452:	
 11516                           opt subtitle "HI-TECH Software Omniscient Code Generator (Lite mode) build 49521"
 11517                           
 11518  1781                     i1l3666:	
 11519  1781  3001               	movlw	01h
 11520                           opt subtitle "HI-TECH Software Omniscient Code Generator (Lite mode) build 49521"
 11521  1782                     u360_25:
 11522  1782  1003               	clrc
 11523  1783  0DF6               	rlf	(i1___lwdiv@quotient),f
 11524  1784  0DF7               	rlf	(i1___lwdiv@quotient+1),f
 11525  1785  3EFF               	addlw	-1
 11526  1786  1D03               	skipz
 11527  1787  2F82               	goto	u360_25
 11528                           opt subtitle "HI-TECH Software Omniscient Code Generator (Lite mode) build 49521"
 11529  1788  0871               	movf	(i1___lwdiv@divisor+1),w
 11530  1789  0273               	subwf	(i1___lwdiv@dividend+1),w
 11531  178A  1D03               	skipz
 11532  178B  2F8E               	goto	u361_25
 11533  178C  0870               	movf	(i1___lwdiv@divisor),w
 11534  178D  0272               	subwf	(i1___lwdiv@dividend),w
 11535  178E                     u361_25:
 11536  178E  1C03               	skipc
 11537  178F  2F91               	goto	u361_21
 11538  1790  2F92               	goto	u361_20
 11539  1791                     u361_21:
 11540  1791  2F9A               	goto	i1l3672
 11541  1792                     u361_20:
 11542                           opt subtitle "HI-TECH Software Omniscient Code Generator (Lite mode) build 49521"
 11543                           
 11544  1792                     i1l3668:	
 11545  1792  0870               	movf	(i1___lwdiv@divisor),w
 11546  1793  02F2               	subwf	(i1___lwdiv@dividend),f
 11547  1794  0871               	movf	(i1___lwdiv@divisor+1),w
 11548  1795  1C03               	skipc
 11549  1796  03F3               	decf	(i1___lwdiv@dividend+1),f
 11550  1797  02F3               	subwf	(i1___lwdiv@dividend+1),f
 11551                           opt subtitle "HI-TECH Software Omniscient Code Generator (Lite mode) build 49521"
 11552                           
 11553  1798                     i1l3670:	
 11554  1798  1476               	bsf	(i1___lwdiv@quotient)+(0/8),(0)&7
 11555  1799  2F9A               	goto	i1l3672
 11556                           opt subtitle "HI-TECH Software Omniscient Code Generator (Lite mode) build 49521"
 11557                           
 11558  179A                     i1l453:	
 11559                           opt subtitle "HI-TECH Software Omniscient Code Generator (Lite mode) build 49521"
 11560                           
 11561  179A                     i1l3672:	
 11562  179A  3001               	movlw	01h
 11563                           opt subtitle "HI-TECH Software Omniscient Code Generator (Lite mode) build 49521"
 11564  179B                     u362_25:
 11565  179B  1003               	clrc
 11566  179C  0CF1               	rrf	(i1___lwdiv@divisor+1),f
 11567  179D  0CF0               	rrf	(i1___lwdiv@divisor),f
 11568  179E  3EFF               	addlw	-1
 11569  179F  1D03               	skipz
 11570  17A0  2F9B               	goto	u362_25
 11571                           opt subtitle "HI-TECH Software Omniscient Code Generator (Lite mode) build 49521"
 11572                           
 11573  17A1                     i1l3674:	
 11574  17A1  3001               	movlw	low(01h)
 11575  17A2  02F5               	subwf	(i1___lwdiv@counter),f
 11576  17A3  1D03               	btfss	status,2
 11577  17A4  2FA6               	goto	u363_21
 11578  17A5  2FA7               	goto	u363_20
 11579  17A6                     u363_21:
 11580  17A6  2F81               	goto	i1l3666
 11581  17A7                     u363_20:
 11582  17A7  2FA9               	goto	i1l3676
 11583                           opt subtitle "HI-TECH Software Omniscient Code Generator (Lite mode) build 49521"
 11584  17A8                     i1l454:	
 11585  17A8  2FA9               	goto	i1l3676
 11586                           opt subtitle "HI-TECH Software Omniscient Code Generator (Lite mode) build 49521"
 11587                           
 11588  17A9                     i1l448:	
 11589                           opt subtitle "HI-TECH Software Omniscient Code Generator (Lite mode) build 49521"
 11590                           
 11591  17A9                     i1l3676:	
 11592  17A9  0877               	movf	(i1___lwdiv@quotient+1),w
 11593  17AA  01F1               	clrf	(?i1___lwdiv+1)
 11594  17AB  07F1               	addwf	(?i1___lwdiv+1)
 11595  17AC  0876               	movf	(i1___lwdiv@quotient),w
 11596  17AD  01F0               	clrf	(?i1___lwdiv)
 11597  17AE  07F0               	addwf	(?i1___lwdiv)
 11598                           opt subtitle "HI-TECH Software Omniscient Code Generator (Lite mode) build 49521"
 11599  17AF  2FB0               	goto	i1l455
 11600                           opt subtitle "HI-TECH Software Omniscient Code Generator (Lite mode) build 49521"
 11601  17B0                     i1l3678:	
 11602                           opt subtitle "HI-TECH Software Omniscient Code Generator (Lite mode) build 49521"
 11603                           
 11604  17B0                     i1l455:	
 11605  17B0  0008               	return
 11606                           opt subtitle "HI-TECH Software Omniscient Code Generator (Lite mode) build 49521"
 11607                           
 11608  17B1                     	__end_ofi1___lwdiv:
 11609                           opt subtitle "HI-TECH Software Omniscient Code Generator (Lite mode) build 49521"
 11610                           
 11611                           opt pagewidth 120
 11612                           
 11613                           	opt lm
 11614                           
 11615                           	processor	16LF707
 11616                           clrc	macro
 11617                           	bcf	3,0
 11618                           	endm
 11619                           clrz	macro
 11620                           	bcf	3,2
 11621                           	endm
 11622                           setc	macro
 11623                           	bsf	3,0
 11624                           	endm
 11625                           setz	macro
 11626                           	bsf	3,2
 11627                           	endm
 11628                           skipc	macro
 11629                           	btfss	3,0
 11630                           	endm
 11631                           skipz	macro
 11632                           	btfss	3,2
 11633                           	endm
 11634                           skipnc	macro
 11635                           	btfsc	3,0
 11636                           	endm
 11637                           skipnz	macro
 11638                           	btfsc	3,2
 11639                           	endm
 11640                           indf	equ	0
 11641                           indf0	equ	0
 11642  1491                     __ptext1201:	;psect for function i1_putch
 11643                           opt subtitle "HI-TECH Software Omniscient Code Generator (Lite mode) build 49521"
 11644                           
 11645                           opt pagewidth 120
 11646                           
 11647  000C                     	__size_ofi1_putch	equ	__end_ofi1_putch-i1_putch
 11648                           opt subtitle "HI-TECH Software Omniscient Code Generator (Lite mode) build 49521"
 11649  1491                     i1_putch:	
 11650                           opt subtitle "HI-TECH Software Omniscient Code Generator (Lite mode) build 49521"
 11651                           
 11652                           opt pagewidth 120
 11653  1491  00F0               	movwf	(i1putch@c)
 11654                           opt subtitle "HI-TECH Software Omniscient Code Generator (Lite mode) build 49521"
 11655                           
 11656  1492                     i1l3650:	
 11657                           opt subtitle "HI-TECH Software Omniscient Code Generator (Lite mode) build 49521"
 11658  1492  2C93               	goto	i1l233
 11659                           opt subtitle "HI-TECH Software Omniscient Code Generator (Lite mode) build 49521"
 11660  1493                     i1l234:	
 11661                           opt subtitle "HI-TECH Software Omniscient Code Generator (Lite mode) build 49521"
 11662  1493                     i1l233:	
 11663  1493  1283               	bcf	status, 5	;RP0=0, select bank0
 11664  1494  1303               	bcf	status, 6	;RP1=0, select bank0
 11665  1495  1E0C               	btfss	(100/8),(100)&7	;volatile
 11666  1496  2C98               	goto	u356_21
 11667  1497  2C99               	goto	u356_20
 11668  1498                     u356_21:
 11669  1498  2C93               	goto	i1l233
 11670  1499                     u356_20:
 11671  1499  2C9A               	goto	i1l3652
 11672                           opt subtitle "HI-TECH Software Omniscient Code Generator (Lite mode) build 49521"
 11673  149A                     i1l235:	
 11674                           opt subtitle "HI-TECH Software Omniscient Code Generator (Lite mode) build 49521"
 11675                           
 11676  149A                     i1l3652:	
 11677                           opt subtitle "HI-TECH Software Omniscient Code Generator (Lite mode) build 49521"
 11678  149A  0870               	movf	(i1putch@c),w
 11679  149B  0099               	movwf	(25)	;volatile
 11680                           opt subtitle "HI-TECH Software Omniscient Code Generator (Lite mode) build 49521"
 11681                           
 11682  149C                     i1l236:	
 11683  149C  0008               	return
 11684                           opt subtitle "HI-TECH Software Omniscient Code Generator (Lite mode) build 49521"
 11685                           
 11686  149D                     	__end_ofi1_putch:
 11687                           opt subtitle "HI-TECH Software Omniscient Code Generator (Lite mode) build 49521"
 11688                           
 11689                           opt pagewidth 120
 11690  0000                     __ptext1202:	;psect for function i1_putch
 11691                           opt subtitle "HI-TECH Software Omniscient Code Generator (Lite mode) build 49521"
 11692  007E                     	btemp set 07Eh
 11693                           opt subtitle "HI-TECH Software Omniscient Code Generator (Lite mode) build 49521"
 11694                           
 11695                           opt pagewidth 120
 11696  007E                     	wtemp0 set btemp


Data Sizes:
    Strings     252
    Constant    145
    Data        14
    BSS         46
    Persistent  0
    Stack       0

Auto Spaces:
    Space          Size  Autos    Used
    COMMON           14     14      14
    BANK0            80     50      60
    BANK1            80     59      78
    BANK3            96      0      32
    BANK2            91      0       0

Pointer List with Targets:

    ?___ftpack	float  size(1) Largest target is 0

    ?___lwdiv	unsigned int  size(1) Largest target is 0

    ?___lwmod	unsigned int  size(1) Largest target is 0

    ?___ftdiv	float  size(1) Largest target is 0

    ?___ftmul	float  size(1) Largest target is 0

    ?___fttol	long  size(1) Largest target is 0

    ?___wmul	unsigned int  size(1) Largest target is 0

    printf@f	PTR const unsigned char  size(2) Largest target is 37
		 -> STR_15(CODE[5]), STR_14(CODE[12]), Receive_Packet@rx_buf(BANK0[32]), STR_13(CODE[5]), 
		 -> STR_12(CODE[24]), STR_11(CODE[17]), STR_10(CODE[3]), STR_9(CODE[3]), 
		 -> STR_8(CODE[10]), STR_7(CODE[18]), STR_6(CODE[21]), STR_5(CODE[26]), 
		 -> STR_4(CODE[37]), STR_3(CODE[23]), STR_2(CODE[20]), STR_1(CODE[19]), 

    ?_printf	int  size(1) Largest target is 0

    printf@ap	PTR void [1] size(1) Largest target is 2
		 -> ?_printf(BANK0[2]), 

    S1303$_cp	PTR const unsigned char  size(1) Largest target is 0

    _val._str._cp	PTR const unsigned char  size(1) Largest target is 0

    SPI_Write_Buf@pBuf	PTR unsigned char  size(1) Largest target is 12
		 -> RFM70_Initialize@WriteArr(BANK0[12]), tx_buf(BANK1[8]), 

    Send_Packet@pbuf	PTR unsigned char  size(1) Largest target is 8
		 -> tx_buf(BANK1[8]), 


Critical Paths under _main in COMMON

    None.

Critical Paths under _ISR in COMMON

    i1_printf->i1___lwmod
    i1___lwmod->i1___lwdiv

Critical Paths under _main in BANK0

    _main->_RFM70_Initialize
    _rfm70setPowerdownMode->_SPI_Read_Reg
    _RFM70_Initialize->_SwitchCFG
    _Send_Packet->_printf
    _printf->___lwmod
    _rfm70TxDataSentErrorInterrupt->_SPI_Read_Reg
    _SwitchToRxMode->_SPI_Read_Reg
    _rfm70TxDataSentInterrupt->_SPI_Read_Reg
    _SPI_Write_Buf->_SPI_RW
    _SwitchToTxMode->_SPI_Read_Reg
    _sleep->___ftmul
    _sleep->___ftdiv
    _SwitchCFG->_SPI_Read_Reg
    _SPI_Write_Reg->_SPI_RW
    _SPI_Read_Reg->_SPI_RW
    ___ftmul->___ftpack
    ___ftdiv->___ftpack
    ___lwmod->___lwdiv

Critical Paths under _ISR in BANK0

    _ISR->i1_printf

Critical Paths under _main in BANK1

    _main->_Send_Packet
    _Send_Packet->_printf

Critical Paths under _ISR in BANK1

    None.

Critical Paths under _main in BANK3

    None.

Critical Paths under _ISR in BANK3

    None.

Critical Paths under _main in BANK2

    None.

Critical Paths under _ISR in BANK2

    None.

Call Graph Tables:

 ---------------------------------------------------------------------------------
 (Depth) Function   	        Calls       Base Space   Used Autos Params    Refs
 ---------------------------------------------------------------------------------
 (0) _main                                                54    50      4    9544
                                             12 BANK1     47    43      4
                            _spiInit
                           _uartInit
                            _adcInit
              _rfm70setPowerdownMode
                             _printf
                        _adcReadVcap
                   _RFM70_Initialize
                        _adcReadTemp
                             ___wmul
                            ___fttol
                        _Send_Packet
                              _sleep
 ---------------------------------------------------------------------------------
 (1) _spiInit                                              2     2      0       0
                                             20 BANK0      2     2      0
 ---------------------------------------------------------------------------------
 (1) _uartInit                                             0     0      0       0
 ---------------------------------------------------------------------------------
 (1) _adcInit                                              0     0      0       0
 ---------------------------------------------------------------------------------
 (1) _rfm70setPowerdownMode                                3     3      0     260
                                             26 BANK0      3     3      0
                       _SPI_Read_Reg
                      _SPI_Write_Reg
 ---------------------------------------------------------------------------------
 (1) _RFM70_Initialize                                    21    21      0    2745
                                             29 BANK0     21    21      0
                          _SwitchCFG
                      _SPI_Write_Reg
                      _SPI_Write_Buf
                       _SPI_Read_Reg
 ---------------------------------------------------------------------------------
 (1) _adcReadTemp                                          3     3      0      23
                                             20 BANK0      3     3      0
 ---------------------------------------------------------------------------------
 (1) _Send_Packet                                          8     6      2    2903
                                             43 BANK0      5     3      2
                                              9 BANK1      3     3      0
                     _SwitchToTxMode
                       _SPI_Read_Reg
                             _printf
                      _SPI_Write_Buf
           _rfm70TxDataSentInterrupt
                     _SwitchToRxMode
      _rfm70TxDataSentErrorInterrupt
 ---------------------------------------------------------------------------------
 (2) _printf                                              18    12      6    1460
                                             34 BANK0      9     3      6
                                              0 BANK1      9     9      0
                              _putch
                            ___lwdiv
                            ___lwmod
 ---------------------------------------------------------------------------------
 (2) _rfm70TxDataSentErrorInterrupt                        1     1      0     189
                                             26 BANK0      1     1      0
                       _SPI_Read_Reg
                      _SPI_Write_Reg
 ---------------------------------------------------------------------------------
 (2) _SwitchToRxMode                                       2     2      0     291
                                             26 BANK0      2     2      0
                      _SPI_Write_Reg
                       _SPI_Read_Reg
 ---------------------------------------------------------------------------------
 (2) _rfm70TxDataSentInterrupt                             1     1      0     189
                                             26 BANK0      1     1      0
                       _SPI_Read_Reg
                      _SPI_Write_Reg
 ---------------------------------------------------------------------------------
 (2) _SPI_Write_Buf                                        5     3      2     164
                                             23 BANK0      5     3      2
                             _SPI_RW
 ---------------------------------------------------------------------------------
 (2) _SwitchToTxMode                                       2     2      0     257
                                             26 BANK0      2     2      0
                      _SPI_Write_Reg
                       _SPI_Read_Reg
 ---------------------------------------------------------------------------------
 (3) _putch                                                1     1      0      31
                                             20 BANK0      1     1      0
 ---------------------------------------------------------------------------------
 (1) _sleep                                                3     3      0    1480
                                             44 BANK0      3     3      0
                        _adcReadVcap
                            ___fttol
                             ___ftge
                            ___ftmul
                            ___ftdiv
 ---------------------------------------------------------------------------------
 (2) _adcReadVcap                                          3     3      0      23
                                             20 BANK0      3     3      0
 ---------------------------------------------------------------------------------
 (2) _SwitchCFG                                            3     3      0     350
                                             26 BANK0      3     3      0
                       _SPI_Read_Reg
                      _SPI_Write_Reg
 ---------------------------------------------------------------------------------
 (3) _SPI_Write_Reg                                        2     1      1      93
                                             23 BANK0      2     1      1
                             _SPI_RW
 ---------------------------------------------------------------------------------
 (3) _SPI_Read_Reg                                         3     3      0      96
                                             23 BANK0      3     3      0
                             _SPI_RW
 ---------------------------------------------------------------------------------
 (4) _SPI_RW                                               3     3      0      31
                                             20 BANK0      3     3      0
 ---------------------------------------------------------------------------------
 (2) ___fttol                                             14    10      4     252
                                             20 BANK0     14    10      4
 ---------------------------------------------------------------------------------
 (2) ___ftmul                                             16    10      6     535
                                             28 BANK0     16    10      6
                           ___ftpack
 ---------------------------------------------------------------------------------
 (2) ___ftdiv                                             16    10      6     489
                                             28 BANK0     16    10      6
                           ___ftpack
 ---------------------------------------------------------------------------------
 (3) ___ftpack                                             8     3      5     209
                                             20 BANK0      8     3      5
 ---------------------------------------------------------------------------------
 (1) ___wmul                                               6     2      4      92
                                             20 BANK0      6     2      4
 ---------------------------------------------------------------------------------
 (3) ___lwdiv                                              8     4      4     241
                                             20 BANK0      8     4      4
 ---------------------------------------------------------------------------------
 (3) ___lwmod                                              6     2      4     232
                                             28 BANK0      6     2      4
                            ___lwdiv (ARG)
 ---------------------------------------------------------------------------------
 (2) ___ftge                                              12     6      6     136
                                             20 BANK0     12     6      6
 ---------------------------------------------------------------------------------
 Estimated maximum stack depth 4
 ---------------------------------------------------------------------------------
 (Depth) Function   	        Calls       Base Space   Used Autos Params    Refs
 ---------------------------------------------------------------------------------
 (5) _ISR                                                  6     6      0    3276
                                             14 BANK0      6     6      0
                           i1_printf
 ---------------------------------------------------------------------------------
 (6) i1_printf                                            14    12      2    3276
                                              0 BANK0     14    12      2
                            i1_putch
                          i1___lwdiv
                          i1___lwmod
 ---------------------------------------------------------------------------------
 (7) i1___lwmod                                            6     2      4     521
                                              8 COMMON     6     2      4
                          i1___lwdiv (ARG)
 ---------------------------------------------------------------------------------
 (7) i1___lwdiv                                            8     4      4     527
                                              0 COMMON     8     4      4
 ---------------------------------------------------------------------------------
 (7) i1_putch                                              1     1      0      73
                                              0 COMMON     1     1      0
 ---------------------------------------------------------------------------------
 Estimated maximum stack depth 7
 ---------------------------------------------------------------------------------

 Call Graph Graphs:

 _main (ROOT)
   _spiInit
   _uartInit
   _adcInit
   _rfm70setPowerdownMode
     _SPI_Read_Reg
       _SPI_RW
     _SPI_Write_Reg
       _SPI_RW
   _printf
     _putch
     ___lwdiv
     ___lwmod
       ___lwdiv (ARG)
   _adcReadVcap
   _RFM70_Initialize
     _SwitchCFG
       _SPI_Read_Reg
         _SPI_RW
       _SPI_Write_Reg
         _SPI_RW
     _SPI_Write_Reg
       _SPI_RW
     _SPI_Write_Buf
       _SPI_RW
     _SPI_Read_Reg
       _SPI_RW
   _adcReadTemp
   ___wmul
   ___fttol
   _Send_Packet
     _SwitchToTxMode
       _SPI_Write_Reg
         _SPI_RW
       _SPI_Read_Reg
         _SPI_RW
     _SPI_Read_Reg
       _SPI_RW
     _printf
       _putch
       ___lwdiv
       ___lwmod
         ___lwdiv (ARG)
     _SPI_Write_Buf
       _SPI_RW
     _rfm70TxDataSentInterrupt
       _SPI_Read_Reg
         _SPI_RW
       _SPI_Write_Reg
         _SPI_RW
     _SwitchToRxMode
       _SPI_Write_Reg
         _SPI_RW
       _SPI_Read_Reg
         _SPI_RW
     _rfm70TxDataSentErrorInterrupt
       _SPI_Read_Reg
         _SPI_RW
       _SPI_Write_Reg
         _SPI_RW
   _sleep
     _adcReadVcap
     ___fttol
     ___ftge
     ___ftmul
       ___ftpack
     ___ftdiv
       ___ftpack

 _ISR (ROOT)
   i1_printf
     i1_putch
     i1___lwdiv
     i1___lwmod
       i1___lwdiv (ARG)

 Address spaces:
Name               Size   Autos  Total    Cost      Usage
BANK3               60      0      20      10       33.3%
BITBANK3            60      0       0       9        0.0%
SFR3                 0      0       0       4        0.0%
BITSFR3              0      0       0       4        0.0%
BANK2               5B      0       0      12        0.0%
BITBANK2            5B      0       0      11        0.0%
SFR2                 0      0       0       5        0.0%
BITSFR2              0      0       0       5        0.0%
BANK1               50     3B      4E       8       97.5%
BITBANK1            50      0       0       7        0.0%
SFR1                 0      0       0       2        0.0%
BITSFR1              0      0       0       2        0.0%
BANK0               50     32      3C       5       75.0%
BITBANK0            50      0       1       4        1.2%
SFR0                 0      0       0       1        0.0%
BITSFR0              0      0       0       1        0.0%
COMMON               E      E       E       1      100.0%
BITCOMMON            E      0       0       0        0.0%
CODE                 0      0       0       0        0.0%
DATA                 0      0      C2       6        0.0%
ABS                  0      0      B8       3        0.0%
NULL                 0      0       0       0        0.0%
STACK                0      0       A       2        0.0%


Microchip Technology PIC Macro Assembler V1.12 build 49521 
Symbol Table                                                                                   Tue May 14 15:02:16 2013

                                     pc 0002                             __CFG_CP$OFF 0000  
                           _SSPSTATbits 0094                                      fsr 0004  
                   ___wmul@multiplicand 0036          __size_of_rfm70setPowerdownMode 0025  
         __end_of_rfm70setPowerdownMode 1589               __size_of_RFM70_Initialize 0310  
               __size_of_SwitchToRxMode 003F                                     l201 15FA  
                                   l202 15FA                                     l203 15FF  
                                   l300 150C                                     l204 1607  
                                   l230 1485                                     l303 14C5  
                                   l400 0E09                                     l224 14DB  
                                   l233 0805                                     l321 16DB  
                                   l401 0E16                                     l306 1525  
                                   l234 0805                                     l402 0E25  
                                   l410 0E1D                                     l170 0475  
                                   l331 164F                                     l235 080A  
                                   l315 15D5                                     l411 0E74  
                                   l403 0E18                                     l251 0BB1  
                                   l227 14F3                                     l171 049E  
                                   l332 1664                                     l236 080C  
                                   l324 15B2                                     l316 15C1  
                                   l404 0FFF                                     l420 0EC9  
                                   l412 0E73                                     l252 0B2B  
                                   l260 0BB1                                     l340 006D  
                                   l180 0617                                     l172 04C6  
                                   l317 15DB                                     l421 0ED3  
                                   l413 0E85                                     l405 0E19  
                                   l253 0B06                                     l341 008B  
                                   l181 061E                                     l173 04F6  
                                   l190 0DF1                                     l318 15DC  
                                   l430 0F78                                     l414 0F0D  
                                   l422 0F0B                                     l406 0E1A  
                                   l254 0B36                                     l350 01E4  
                                   l342 00A4                                     l182 061F  
                                   l174 0594                                     l166 0462  
                                   l327 1664                                     l191 0DFF  
                                   l431 0FDF                                     l423 0EFC  
                                   l415 0E86                                     l407 0E4B  
                                   l255 0BA0                                     l351 0179  
                                   l343 00C2                                     l183 061F  
                                   l167 043A                                     l192 0DFF  
                                   l432 0FFE                                     l424 0F23  
                                   l416 0E90                                     l408 0E1B  
                                   l256 0B69                                     l360 02E8  
                                   l352 01C8                                     l344 00DB  
                                   l176 0579                                     l329 1659  
               __size_of_SwitchToTxMode 002A                                     l425 0FD0  
                                   l417 0EC8                                     l409 0E1B  
                                   l433 0FFF                                     l257 0B84  
                                   l361 0324                                     l353 01F0  
                                   l345 00F9                                     l177 05AE  
                                   l169 0474                                     l610 0863  
                                   l450 17BE                                     l442 07D5  
                                   l530 0A31                                     l186 0DF3  
                                   l370 1544                                     l426 0F2E  
                                   l418 0EB9                                     l258 0B9F  
                                   l354 0265                                     l346 0122  
                                   l338 0034                                     l178 0609  
                                   l611 087A                                     l451 17CF  
                                   l443 07DF                                     l531 0ADD  
                                   l187 0D9D                                     l371 1544  
                                   l427 0FC0                                     l419 0F16  
                                   l259 0BA7                                     l195 1625  
                                   l355 01F9                                     l347 0130  
                                   l339 0064                                     l179 05DA  
                                   l460 172A                                     l452 17D0  
                                   l444 07F4                                     l532 0A4A  
                                   l540 0BCD                                     l188 0D9C  
                                   l428 0F2F                                     l196 1625  
                                   l356 024A                                     l348 015F  
                                   l461 173B                                     l453 17E9  
                                   l445 07FB                                     l533 0A90  
                                   l541 0C9F                                     l189 0DF2  
                                   l429 0FC9                                     l197 162A  
                                   l357 026E                                     l349 0170  
                                   l462 173C                                     l454 17F7  
                                   l534 0AB2                                     l542 0BE6  
                                   l374 1560                                     l198 1632  
                                   l358 028C                                     l463 174D  
                                   l455 17FF                                     l535 0AC1  
                                   l543 0C26                                     l551 098D  
                                   l375 1563                                     l359 02A5  
                                   l464 175B                                     l448 17F8  
                                   l544 0C3B                                     l560 09E9  
                                   l552 0A15                                     l376 1563  
                                   l384 157C                                     l609 0839  
                                   l465 1763                                     l449 17CA  
                                   l545 0C52                                     l561 09FB  
                                   l553 09D8                                     l297 1503  
                                   l369 1541                                     l385 157E  
                                   l458 175C                                     l546 0C57  
                                   l562 0A0C                                     l554 09C4  
                                   l298 1503                                     l386 1588  
                                   l459 1736                                     l547 0C6C  
                                   l555 09C5                                     l299 150A  
                                   l548 0C83                                     l556 09D7  
                                   l557 09FC                                     l558 09E8  
                                   l559 09F5                                     l399 0FE0  
                                   l780 091E                                     l781 0935  
                                   l782 091F                                     l774 0909  
                                   l783 093C                                     l784 0948  
                                   l776 0901                                     l785 093D  
                                   l777 096F                                     l786 094C  
                                   l778 0917                                     l787 0956  
                                   l779 090A                                     l788 096F  
                                   _GIE 005F                                     _ISR 087B  
                                   fsr0 0004                                     indf 0000  
                                  ?_ISR 0070                            ___ftdiv@cntr 0046  
                          ___ftdiv@sign 004B                                    l3100 1614  
                                  l3110 162E                                    l3102 1617  
                                  l3200 0D39                                    l3112 162F  
                                  l3104 1618                                    l4000 03AC  
                                  l3210 0DBF                                    l3202 0D41  
                                  l3114 1632                                    l3106 1621  
                                  l4010 03B3                                    l4002 03AD  
                                  l3220 0DFD                                    l3212 0DF5  
                                  l3204 0D49                                    l3108 162A  
                                  l4100 0462                                    l4020 03B8  
                                  l4012 03B4                                    l4004 03AE  
                                  l3214 0DF7                                    l3206 0D6A  
                                  l4110 0499                                    l4102 046D  
                                  l4030 03BF                                    l4022 03BB  
                                  l4014 03B5                                    l4006 03AF  
                                  l3216 0DF8                                    l3208 0D9D  
                                  l3160 0CA0                                    l4200 0065  
                                  l4120 04C6                                    l4112 049E  
                                  l4104 0475                                    l4040 03C6  
                                  l4032 03C0                                    l4024 03BC  
                                  l4016 03B6                                    l4008 03B2  
                                  l3410 07E6                                    l3218 0DFA  
                                  l3170 0CEA                                    l3162 0CD0  
                                  l4202 006C                                    l4210 008B  
                                  l4130 050E                                    l4122 04D1  
                                  l4114 04A4                                    l4106 048D  
                                  l4050 03CD                                    l4042 03C7  
                                  l4034 03C1                                    l4026 03BD  
                                  l4018 03B7                                    l2524 0877  
                                  l3412 07F4                                    l3404 07D0  
                                  l3500 0A31                                    l3180 0D07  
                                  l3172 0CEC                                    l3164 0CDB  
                                  l4300 025F                                    l4220 00B7  
                                  l4212 0099                                    l4204 006D  
                                  l4140 054F                                    l4132 0512  
                                  l4124 04DF                                    l4116 04AE  
                                  l4108 0492                                    l4060 03D4  
                                  l4052 03CE                                    l4044 03C8  
                                  l4036 03C4                                    l4028 03BE  
                                  l2526 0879                                    l3414 07FB  
                                  l3406 07D5                                    l3510 0A55  
                                  l3502 0A42                                    l3190 0D28  
                                  l3182 0D09                                    l3174 0CEF  
                                  l3166 0CE3                                    l4310 0285  
                                  l4302 0266                                    l4230 00DA  
                                  l4222 00BB                                    l4214 009C  
                                  l4206 0080                                    l4150 0594  
                                  l4142 056C                                    l4134 0516  
                                  l4118 04C5                                    l4126 04F6  
                                  l4070 03D9                                    l4062 03D5  
                                  l4054 03CF                                    l4046 03C9  
                                  l4038 03C5                                    l3408 07D9  
                                  l3520 0A90                                    l3512 0A67  
                                  l3504 0A49                                    l3600 09AD  
                                  l3192 0D29                                    l3184 0D0C  
                                  l3176 0D03                                    l3168 0CE7  
                                  l4400 15AF                                    l4320 02A5  
                                  l4304 026D                                    l4312 028C  
                                  l4240 0107                                    l4232 00DB  
                                  l4216 00A3                                    l4224 00C2  
                                  l4208 0084                                    l4160 05BC  
                                  l4152 05AE                                    l4144 0572  
                                  l4136 0547                                    l4128 050A  
                                  l4080 03E8                                    l4072 03DC  
                                  l4064 03D6                                    l4056 03D0  
                                  l4048 03CC                                    l3530 0ABA  
                                  l3522 0A98                                    l3514 0A79  
                                  l3506 0A4A                                    l3610 09C5  
                                  l3602 09AF                                    l4410 1523  
                                  l4402 1510                                    l3194 0D2B  
                                  l3186 0D0F                                    l3178 0D05  
                                  l3098 1608                                    l4330 02FB  
                                  l4322 02DD                                    l4314 029A  
                                  l4306 026E                                    l4250 012F  
                                  l4242 0112                                    l4234 00EE  
                                  l4226 00D0                                    l4218 00A4  
                                  l4170 0603                                    l4162 05BD  
                                  l4154 05B1                                    l4146 0579  
                                  l4138 054B                                    l4090 0400  
                                  l4082 03EB                                    l4074 03DF  
                                  l4066 03D7                                    l4058 03D1  
                                  l3532 0AC1                                    l3524 0AA6  
                                  l3516 0A7D                                    l3508 0A50  
                                  l3540 0BCC                                    l3620 09F5  
                                  l3604 09B3                                    l3612 09D8  
                                  l4412 1525                                    l4404 1511  
                                  l3196 0D2D                                    l3188 0D19  
                                  l4420 15C1                                    l4340 0AE6  
                                  l4332 0310                                    l4324 02E1  
                                  l4316 029D                                    l4308 0281  
                                  l4260 0165                                    l4252 0130  
                                  l4244 0117                                    l4236 00F2  
                                  l4228 00D3                                    l4180 1577  
                                  l2900 14C6                                    l4172 0609  
                                  l4164 05BE                                    l4156 05B7  
                                  l4148 058F                                    l4092 0413  
                                  l4084 03F0                                    l4076 03E2  
                                  l4068 03D8                                    l3630 080D  
                                  l3470 0908                                    l3534 0ADD  
                                  l3526 0AB0                                    l3518 0A84  
                                  l3550 0C13                                    l3542 0BCD  
                                  l3614 09DE                                    l3622 09FC  
                                  l3606 09BA                                    l4406 1517  
                                  l3198 0D2F                                    l4422 15CA  
                                  l4414 15B6                                    l4430 1533  
                                  l4350 0B22                                    l4342 0AF3  
                                  l4334 031B                                    l4318 02A4  
                                  l4326 02E8                                    l4270 0179  
                                  l4262 0168                                    l4254 0154  
                                  l4246 0122                                    l4238 00F9  
                                  l4190 002C                                    l4182 157E  
                                  l2910 14D3                                    l2902 14CA  
                                  l4174 0617                                    l4166 05D6  
                                  l4158 05BA                                    l4094 042C  
                                  l4086 03F5                                    l4078 03E5  
                                  l3640 0865                                    l3632 0813  
                                  l4600 174D                                    l3480 092D  
                                  l3472 090A                                    l3464 08F3  
                                  l3528 0AB2                                    l3560 0C26  
                                  l3552 0C14                                    l3544 0BDE  
                                  l3536 0BB2                                    l3624 0A00  
                                  l3616 09E7                                    l3608 09C3  
                                  l4408 1522                                    l4424 15D0  
                                  l4416 15B7                                    l4440 1543  
                                  l4432 153D                                    l4360 0B54  
                                  l4352 0B2B                                    l4344 0AF7  
                                  l4336 0321                                    l4328 02ED  
                                  l4280 01DD                                    l4272 01BD  
                                  l4264 016F                                    l4256 0158  
                                  l4248 0128                                    l4192 0033  
                                  l4184 0015                                    l4176 1567  
                                  l2912 14D5                                    l2904 14CC  
                                  l4168 05DA                                    l4096 043B  
                                  l4088 03FA                                    l3642 0867  
                                  l3634 0839                                    l4602 1754  
                                  l3490 096A                                    l3482 093D  
                                  l3474 0917                                    l3466 08F9  
                                  l3570 0C52                                    l3562 0C2A  
                                  l3554 0C15                                    l3546 0BE5  
                                  l3538 0BC5                                    l3626 0A0C  
                                  l3618 09E9                                    l4530 14F7  
                                  l2930 15E9                                    l4426 15D5  
                                  l4418 15BD                                    l4434 153F  
                                  l4450 16D8                                    l4442 169D  
                                  l4370 0B73                                    l4362 0B57  
                                  l4354 0B36                                    l4346 0B02  
                                  l4338 0AE1                                    l4290 01F9  
                                  l4274 01C1                                    l4266 0171  
                                  l4282 01E4                                    l4258 015F  
                                  l4194 0034                                    l4186 0023  
                                  l4178 1572                                    l2914 14D8  
                                  l2906 14CF                                    l4098 0448  
                                  l3644 0875                                    l3636 083D  
                                  l4604 175C                                    l3492 096E  
                                  l3484 0948                                    l3476 091F  
                                  l3468 0901                                    l3580 0C7C  
                                  l3572 0C57                                    l3564 0C3B  
                                  l3556 0C1B                                    l3548 0BE6  
                                  l3628 0A15                                    l4532 150A  
                                  l4524 14B3                                    l4540 1646  
                                  l2940 1603                                    l2932 15EC  
                                  l4436 1540                                    l4428 1526  
                                  l4444 16BB                                    l4460 155F  
                                  l4452 1545                                    l3820 0E1D  
                                  l4372 0B7E                                    l4380 0BA0  
                                  l4364 0B5C                                    l4356 0B41  
                                  l4348 0B06                                    l4292 023F  
                                  l4284 01EF                                    l4268 0178  
                                  l4276 01C8                                    l4196 0058  
                                  l4188 0029                                    l2916 147C  
                                  l2908 14D2                                    l3900 0339  
                                  l3646 0877                                    l3638 0863  
                                  l4606 1763                                    l3486 0950  
                                  l3478 0923                                    l3494 0A16  
                                  l3582 0C83                                    l3574 0C5B  
                                  l3566 0C43                                    l3558 0C21  
                                  l3590 098C                                    l4534 150C  
                                  l4526 14B4                                    l4542 164A  
                                  l2942 1604                                    l2934 15ED  
                                  l4438 1541                                    l4446 16C9  
                                  l4454 1552                                    l4462 1560  
                                  l3830 0E61                                    l3822 0E24  
                                  l3814 0E00                                    l4382 0BA7  
                                  l4374 0B84                                    l4366 0B5F  
                                  l4358 0B44                                    l4294 0243  
                                  l4286 01F1                                    l4278 01D7  
                                  l4198 005E                                    l2918 1484  
                                  l3910 0342                                    l3902 033C  
                                  l3648 087A                                    l4560 17B1  
                                  l3488 0958                                    l3496 0A29  
                                  l3584 0C9F                                    l3576 0C6C  
                                  l3568 0C4B                                    l3592 098D  
                                  l4528 14C2                                    l4544 164F  
                                  l4536 1636                                    l2944 1607  
                                  l2936 15F6                                    l2928 15DD  
                                  l4384 0804                                    l4392 1589  
                                  l4448 16CE                                    l4464 1562  
                                  l4456 155C                                    l3840 0E88  
                                  l3832 0E65                                    l3824 0E25  
                                  l3816 0E09                                    l4376 0B8E  
                                  l4368 0B69                                    l4288 01F8  
                                  l4296 024A                                    l3920 0351  
                                  l3912 0345                                    l3904 033F  
                                  l4570 17CA                                    l4562 17B5  
                                  l3498 0A30                                    l3578 0C74  
                                  l3594 099F                                    l3586 0970  
                                  l4546 1654                                    l4538 1641  
                                  l2938 15FF                                    l4386 080A  
                                  l4394 1592                                    l4458 155E  
                                  l3850 0EC1                                    l3842 0E8F  
                                  l3834 0E6D                                    l3826 0E51  
                                  l3818 0E0F                                    l4378 0B99  
                                  l4298 0259                                    l2890 14DC  
                                  l3930 0358                                    l3922 0354  
                                  l3914 0348                                    l3906 0340  
                                  l4580 17F0                                    l4572 17D0  
                                  l4564 17BB                                    l3596 09A0  
                                  l3588 0983                                    l4548 1659  
                                  l4396 15A0                                    l3860 0EFC  
                                  l3852 0ECB                                    l3844 0E90  
                                  l3828 0E59                                    l3836 0E74  
                                  l2892 14E0                                    l3940 035F  
                                  l3932 0359                                    l3924 0355  
                                  l3916 034B                                    l3908 0341  
                                  l4590 172A                                    l4574 17E1  
                                  l4566 17BE                                    l4582 17F8  
                                  l3598 09A6                                    l4398 15A5  
                                  l3870 0F1C                                    l3862 0F04  
                                  l3854 0ED2                                    l3846 0EB8  
                                  l3838 0E7C                                    l2894 14E4  
                                  l3950 036E                                    l3942 0362  
                                  l3934 035C                                    l3926 0356  
                                  l3918 034E                                    l4592 1731  
                                  l4584 17FF                                    l4576 17E7  
                                  l4568 17C5                                    l3880 0FBF  
                                  l3872 0F23                                    l3864 0F0C  
                                  l3856 0ED3                                    l3848 0EB9  
                                  l2896 14E7                                    l3960 037D  
                                  l3952 0371                                    l3944 0365  
                                  l3936 035D                                    l3928 0357  
                                  l4594 1736                                    l4586 171F  
                                  l4578 17E9                                    l3874 0F2F  
                                  l3882 0FC0                                    l3858 0EFB  
                                  l3866 0F0D                                    l2898 14E8  
                                  l3970 038A                                    l3962 0380  
                                  l3954 0374                                    l3946 0368  
                                  l3938 035E                                    l3890 0325  
                                  l4596 173C                                    l4588 1727  
                                  l3876 0F78                                    l3884 0FC9  
                                  l3868 0F16                                    l3980 0393  
                                  l3972 038D                                    l3964 0383  
                                  l3956 0377                                    l3948 036B  
                                  l3892 032F                                    l4598 1746  
                                  l3878 0FAB                                    l3886 0FD0  
                                  l3990 03A5                                    l3982 0397  
                                  l3974 038E                                    l3966 0386  
                                  l3958 037A                                    l3894 0331  
                                  l3888 0FE0                                    l3992 03A6  
                                  l3984 039E                                    l3976 038F  
                                  l3968 0389                                    l3896 0335  
                                  l3994 03A9                                    l3986 03A1  
                                  l3978 0390                                    l3898 0338  
                                  l3996 03AA                                    l3988 03A4  
                                  l3998 03AB                                    STR_1 113A  
                                  STR_2 1126                                    STR_3 10FA  
                                  STR_4 10A3                                    STR_5 10C8  
                                  STR_6 1111                                    STR_7 114D  
                                  STR_8 118D                                    STR_9 119C  
                                  u2300 15FE                                    u2301 15FD  
                                  u3110 091D                                    u3111 091C  
                                  u3200 0A42                                    u4000 0473  
                                  u3105 090F                                    u3201 0A41  
                                  u4001 0472                                    u3130 093B  
                                  u3210 0A60                                    u4010 04C4  
                                  u3131 093A                                    u4011 04C3  
                                  u3220 0A72                                    u3300 0C08  
                                  u4100 008A                                    u4020 04F5  
                                  u3125 092E                                    u4101 0089  
                                  u4021 04F4                                    u4013 04C0  
                                  u3150 094C                                    u3310 0C2A  
                                  u4110 00A2                                    u4030 0572  
                                  u3151 094B                                    u3215 0A5C  
                                  u3311 0C29                                    u4111 00A1  
                                  u4031 0571                                    u4023 04F1  
                                  u3160 0950                                    u3080 08F9  
                                  u3240 0AA6                                    u3400 0C82  
                                  u4120 00C1                                    u4040 0578  
                                  u3161 094F                                    u3145 0940  
                                  u3241 0AA5                                    u3225 0A6E  
                                  u3401 0C81                                    u3321 0C33  
                                  u3305 0C04                                    u4121 00C0  
                                  u4041 0577                                    u3170 0961  
                                  u3090 0900                                    u3322 0C3A  
                                  u3410 0983                                    u4130 00D9  
                                  u4050 0616                                    u3091 08FF  
                                  u3235 0A91                                    u3411 0982  
                                  u4131 00D8                                    u4051 0615  
                                  u3180 096E                                    u3260 0AC0  
                                  u3500 0A00                                    u3420 0998  
                                  u2700 0CE7                                    u2620 1629  
                                  u4300 0249                                    u4220 01B2  
                                  u4140 00F8                                    u4060 1577  
                                  u3261 0ABF                                    u3245 0AA2  
                                  u2701 0CE6                                    u2621 1628  
                                  u4301 0248                                    u4205 017C  
                                  u4141 00F7                                    u4061 1576  
                                  u3510 0813                                    u3190 0A29  
                                  u3350 0C51                                    u3270 0BC5  
                                  u3430 09B3                                    u4310 0265  
                                  u4230 01C7                                    u4150 0117  
                                  u4070 0032                                    u3511 0812  
                                  u3175 095D                                    u3255 0AB3  
                                  u3191 0A28                                    u3351 0C50  
                                  u3335 0C3C                                    u3271 0BC4  
                                  u3431 09B2                                    u4311 0264  
                                  u4231 01C6                                    u4215 01A4  
                                  u4151 0116                                    u4071 0031  
                                  u3360 0C5B                                    u3280 0BDE  
                                  u3440 09BA                                    u2720 0D49  
                                  u4400 0B73                                    u4320 026C  
                                  u4240 01E3                                    u4160 012E  
                                  u4080 0064                                    u3521 082B  
                                  u3361 0C5A                                    u3345 0C44  
                                  u3281 0BDD                                    u3441 09B9  
                                  u3425 0994                                    u2721 0D48  
                                  u4401 0B72                                    u4321 026B  
                                  u4241 01E2                                    u4225 01AD  
                                  u4161 012D                                    u4081 0063  
                                  u3530 083D                                    u3522 082C  
                                  u3290 0BF6                                    u2730 0D6A  
                                  u4410 0B8E                                    u4330 028B  
                                  u4250 01EE                                    u4170 015E  
                                  u4090 006B                                    u3531 083C  
                                  u3523 0831                                    u3371 0C64  
                                  u2731 0D69                                    u2715 0CF5  
                                  u4411 0B8D                                    u4331 028A  
                                  u4251 01ED                                    u4171 015D  
                                  u4091 006A                                    u3524 0832  
                                  u3372 0C6B                                    u3460 09D6  
                                  u2740 0DBF                                    u4420 0BA6  
                                  u4340 02A3                                    u4260 01F7  
                                  u4180 016E                                    u3541 0855  
                                  u3461 09D5                                    u2741 0DBE  
                                  u4421 0BA5                                    u4341 02A2  
                                  u4261 01F6                                    u4181 016D  
                                  u3550 0875                                    u3542 0856  
                                  u2910 07D9                                    u3470 09DE  
                                  u4430 0809                                    u4190 0177  
                                  u3551 0874                                    u3543 085B  
                                  u2911 07D8                                    u3295 0BF2  
                                  u3471 09DD                                    u3455 09C6  
                                  u4431 0808                                    u4191 0176  
                                  u3544 085C                                    u2680 0CDB  
                                  u4440 15DB                                    u4360 02D2  
                                  u3385 0C6D                                    u2681 0CDA  
                                  u4441 15DA                                    u4610 17CE  
                                  u3490 09FA                                    u4530 1509  
                                  u2690 0CE3                                    u4450 1533  
                                  u4370 02E7                                    u4290 0234  
                                  u3555 0871                                    u4611 17CD  
                                  u3395 0C75                                    u3491 09F9  
                                  u4531 1508                                    u2691 0CE2  
                                  u4451 1532                                    u4371 02E6  
                                  u4355 02C4                                    u4275 01FC  
                                  _PEIE 005E                                    u2940 07F3  
                                  u4540 164A                                    u4460 1552  
                                  u3900 0EB7                                    u4380 0AF7  
                                  u4605 17BF                                    u2941 07F2  
                                  u2925 07E0                                    u3485 09EB  
                                  u4461 1551                                    u3901 0EB6  
                                  u4381 0AF6                                    u4365 02CD  
                                  u4285 0225                                    u4710 175A  
                                  u4630 17E1                                    u4550 164E  
                                  u3910 0EC7                                    u4390 0B35  
                                  u4711 1759                                    u4631 17E0  
                                  u2935 07E7                                    u3911 0EC6  
                                  u4391 0B34                                    u4295 022F  
                                  u4560 1654                                    u3920 0ED1  
                                  u4705 174E                                    u4625 17D1  
                                  u4561 1653                                    u3921 0ED0  
                                  u3905 0EB3                                    u4650 17F6  
                                  u4570 1658                                    u3930 0EFA  
                                  u4651 17F5                                    u4635 17DD  
                                  u3931 0EF9                                    u4660 1727  
                                  u3940 0F0A                                    u3860 0E0F  
                                  _RCIF 0065                                    u4661 1726  
                                  u4645 17EA                                    u3941 0F09  
                                  u3861 0E0E                                    u4590 17BB  
                                  u3950 0F1C                                    u3870 0E51  
                                  u4591 17BA                                    u3951 0F1B  
                                  u3935 0EF6                                    u3871 0E50  
                                  u4727 14EE                                    u4680 173A  
                                  u3960 0FDE                                    u3880 0E65  
                                  u4681 1739                                    u3961 0FDD  
                                  u3881 0E64                                    u4737 001D  
                                  u4690 1746                                    u3970 0FFD  
                                  u3890 0E8E                                    u4691 1745  
                                  u4675 172B                                    u3971 0FFC  
                                  u3891 0E8D                                    u4747 0316  
                                  u4757 161C                                    u3990 046D  
                                  u4695 1742                                    u4767 0B59  
                                  u3991 046C                                    u4777 0B63  
                                  u3985 0407                                    u4787 15F1  
                                  u4797 14FD                                    _TXIF 0064  
                                  _flag 02D8                                    _main 0325  
                          ___ftpack@arg 0034                            ___ftpack@exp 0037  
                                  btemp 007E                                    start 0012  
                       __end_ofi1_putch 149D                           _SPI_Write_Buf 15B3  
                       SPI_Read_Reg@reg 0038                           _SPI_Write_Reg 14B0  
                         __CFG_MCLRE$ON 0000                            ___ftmul@cntr 004A  
                          ___ftmul@sign 004B                                   ??_ISR 002E  
                          ___fttol@exp1 0041                      _charge_pulse_float 00DB  
                          ___fttol@lval 003D                           __CFG_PLLEN$ON 0000  
                                 ?_main 00AC                         __end_of_adcInit 1486  
                                 _ADRES 001E                                   STR_10 1199  
                                 STR_11 1170                                   STR_12 10E2  
                                 STR_13 1197                                   STR_14 1181  
                                 STR_16 115F                           __CFG_WDTE$OFF 0000  
                       __end_of___ftdiv 0ADE                         __end_of___ftmul 0CA0  
                       __end_of___fttol 0A16                         __end_of___lwdiv 1800  
                                 i1l400 0629                                   i1l160 08BB  
                                 i1l233 1493                                   i1l401 0636  
                                 i1l161 08C3                                   i1l234 1493  
                                 i1l402 0645                                   i1l410 063D  
                                 i1l162 08CB                                   i1l235 149A  
                                 i1l411 068A                                   i1l403 0638  
                                 i1l155 08E8                                   i1l163 08E8  
                                 i1l236 149C                                   i1l404 07CF  
                                 i1l420 06CF                                   i1l412 0689  
                                 i1l156 08E6                                   i1l421 06D9  
                                 i1l413 0697                                   i1l405 0639  
                                 i1l157 08D4                                   i1l430 075C  
                                 i1l414 0707                                   i1l422 0705  
                                 i1l406 063A                                   i1l158 08B6  
                                 i1l431 07B1                                   i1l423 06FA  
                                 i1l415 0698                                   i1l407 0669  
                                 i1l159 08E3                                   i1l432 07CE  
                                 i1l424 071D                                   i1l416 06A2  
                                 i1l408 063B                                   i1l425 07A4  
                                 i1l417 06CE                                   i1l409 063B  
                                 i1l433 07CF                         __end_of___lwmod 1764  
                                 i1l450 176F                                   i1l426 0724  
                                 i1l418 06C3                                   i1l451 1780  
                                 i1l427 0794                                   i1l419 0710  
                                 i1l452 1781                                   i1l460 16E5  
                                 i1l428 0725                                   i1l453 179A  
                                 i1l461 16F6                                   i1l429 079D  
                                 i1l454 17A8                                   i1l462 16F7  
                                 i1l455 17B0                                   i1l463 1708  
                                 i1l448 17A9                                   i1l464 1716  
                                 i1l449 177B                                   i1l465 171E  
                                 i1l458 1717                                   i1l459 16F1  
                                 i1l399 07B2                                   _RCREG 001A  
                                 _RCSTA 0018                                   _TMR1H 000F  
                                 _TMR1L 000E                                   _SPBRG 0099  
                                 _PORTD 0008                                   _TXREG 0019  
                                 _TXSTA 0098                      i1___lwmod@dividend 007A  
                       __end_of_dpowers 108D                                   _sleep 0CA0  
                         ___ftpack@sign 0038                                   _value 00E8  
                                 _putch 0801                                   main@i 00D7  
                        __CFG_BOREN$OFF 0000                                   pclath 000A  
                       __end_of_spiInit 14F4                          Send_Packet@len 004C  
                                 status 0003                                   wtemp0 007E  
                    __size_ofi1___lwdiv 004D                      __size_ofi1___lwmod 0043  
                      __end_ofi1_printf 07D0                          ?_SPI_Write_Buf 0037  
                        ?_SPI_Write_Reg 0037                              i1printf@ap 0026  
                       __initialization 1665                            __end_of_main 0622  
      __end_of_rfm70TxDataSentInterrupt 1545                           ??_Send_Packet 004D  
                                ??_main 00B0                           ___fttol@sign1 003C  
                                ?_sleep 0070                                  ?_putch 0070  
                      __end_of___ftpack 0970                                  i1l3700 171E  
                                i1l3710 0644                                  i1l3702 0622  
                                i1l3720 067F                                  i1l3712 0645  
                                i1l3704 0629                                  i1l3800 08D3  
                                i1l3650 1492                                  i1l3730 06A1  
                                i1l3722 0683                                  i1l3714 066F  
                                i1l3706 062F                                  i1l3802 08D4  
                                i1l3652 149A                                  i1l3660 176F  
                                i1l3740 06D1                                  i1l3732 06A2  
                                i1l3716 0677                                  i1l3724 068A  
                                i1l3708 063D                                  i1l3670 1798  
                                i1l3662 1776                                  i1l3654 1764  
                                i1l3750 06FE                                  i1l3742 06D8  
                                i1l3734 06C2                                  i1l3726 0692  
                                i1l3718 067B                                  i1l3672 179A  
                                i1l3664 177B                                  i1l3656 1766  
                                i1l3680 16DC                                  i1l3760 071D  
                                i1l3752 0706                                  i1l3744 06D9  
                                i1l3736 06C3                                  i1l3728 069A  
                                i1l3674 17A1                                  i1l3666 1781  
                                i1l3658 176C                                  i1l3690 16F7  
                                i1l3682 16E2                                  i1l3762 0725  
                                i1l3770 0794                                  i1l3746 06F9  
                                i1l3738 06C7                                  i1l3754 0707  
                                i1l3668 1792                                  i1l3676 17A9  
                                i1l3692 1701                                  i1l3684 16E5  
                                i1l3764 075C                                  i1l3772 079D  
                                i1l3748 06FA                                  i1l3756 0710  
                                i1l3780 087F                                  i1l3678 17B0  
                                i1l3694 1708                                  i1l3686 16EC  
                                i1l3766 0783                                  i1l3774 07A4  
                                i1l3758 0716                                  i1l3790 0895  
                                i1l3782 0883                                  i1l3696 170F  
                                i1l3688 16F1                                  i1l3768 0793  
                                i1l3776 07B2                                  i1l3792 08A6  
                                i1l3784 0885                                  i1l3698 1717  
                                i1l3794 08BB                                  i1l3786 0886  
                                i1l3778 087B                                  i1l3796 08C3  
                                i1l3788 088C                                  i1l3798 08CB  
                                u360_25 1782                                  u361_20 1792  
                                u361_21 1791                                  u361_25 178E  
                                u370_20 062F                                  u370_21 062E  
                                u362_25 179B                                  u363_20 17A7  
                                u371_20 066F                                  u363_21 17A6  
                                u371_21 066E                                  u356_20 1499  
                                u364_20 16E2                                  u380_20 07B0  
                                u372_20 067F                                  u356_21 1498  
                                u364_21 16E1                                  u380_21 07AF  
                                u372_21 067E                                  u357_20 176C  
                                u381_20 07CD                                  u373_20 06A0  
                                u357_21 176B                                  u381_21 07CC  
                                u373_21 069F                                  u365_25 16E6  
                                u366_20 16F5                                  u374_20 06C1  
                                u382_20 087F                                  u366_21 16F4  
                                u374_21 06C0                                  u382_21 087E  
                                u358_25 1770                                  u374_25 06BD  
                                u359_20 177F                                  u367_20 1701  
                                u375_20 06CD                                  u383_20 088C  
                                u359_21 177E                                  u367_21 1700  
                                u375_21 06CC                                  u383_21 088B  
                                u367_25 16FD                                  u376_20 06D7  
                                u376_21 06D6                                  u368_25 1709  
                                u384_25 089A                                  u369_20 1715  
                                u377_20 06F8                                  u369_21 1714  
                                u377_21 06F7                                  u377_25 06F4  
                                u385_25 08AB                                  u378_20 0704  
                                u378_21 0703                                  u379_20 0716  
                                u379_21 0715                               ??i1_putch 0070  
                                _TMR1IE 0460                                  _TMR1IF 0060  
                                _SSPBUF 0013                                  _SPI_RW 14F4  
                        __CFG_PWRTE$OFF 0000                            SwitchCFG@Tmp 003C  
              RFM70_Initialize@WriteArr 0044                       RFM70_Initialize@i 0050  
                     RFM70_Initialize@j 0051                                  ___ftge 080D  
                                ___wmul 07D0                               ??_adcInit 0034  
                             ??___ftdiv 0042                               ??___ftmul 0042  
                             ??___fttol 0038                        SPI_Write_Buf@reg 003A  
                             ??___lwdiv 0038                               ??___lwmod 0040  
                                _values 00EA                          _SwitchToRxMode 169D  
                                _printf 0E00                        SPI_Write_Reg@reg 0038  
                                _rx_buf 0190                        _RFM70_Initialize 0015  
                        _SwitchToTxMode 1589                       __end_of_Bank0_Reg 1078  
                                _tx_buf 00DE                                  clrloop 1475  
                 ___ftmul@f3_as_product 0047                           main@num_sleep 00D4  
                     __end_ofi1___lwdiv 17B1                       __end_ofi1___lwmod 171F  
                      __end_of_uartInit 14DC                                  saved_w 007E  
                   __end_of_Send_Packet 0BB2                         Send_Packet@pbuf 004B  
                             ??_spiInit 0034                         Send_Packet@type 00A9  
                                putch@c 0034                     SwitchToRxMode@value 003B  
                    __size_of_SwitchCFG 0032                 __end_of__initialization 1699  
                       ??_SPI_Write_Buf 0039                              ___ftge@ff1 0034  
                            ___ftge@ff2 0037                         ??_SPI_Write_Reg 0038  
                            ___ftdiv@f1 003F                              ___ftdiv@f2 003C  
                            ___ftdiv@f3 0047                             i1printf@idx 0025  
                            ___ftmul@f1 003C                              ___ftmul@f2 003F  
                     SPI_Read_Reg@value 0039                              ___fttol@f1 0034  
                        __pcstackCOMMON 0070   __end_of_rfm70TxDataSentErrorInterrupt 1564  
__size_of_rfm70TxDataSentErrorInterrupt 001F           _rfm70TxDataSentErrorInterrupt 1545  
                          __pidataBANK0 07FC                            __pidataBANK1 1486  
                __end_of_SwitchToRxMode 16DC                  __end_of_SwitchToTxMode 15B3  
                         __end_of_sleep 0E00                           __end_of_putch 080D  
                          _charge_pulse 0052                               ?i1_printf 0020  
                         ??_adcReadVcap 0034                           ??_adcReadTemp 0034  
                   SwitchToTxMode@value 003B                                 ??_sleep 004C  
                               ??_putch 0034                              __pbssBANK0 0052  
                            __pbssBANK1 00E6                              __pbssBANK3 0190  
     __size_of_rfm70TxDataSentInterrupt 001F               ?_rfm70TxDataSentInterrupt 0070  
                               ?_SPI_RW 0070                              __pmaintext 0325  
                               ?___ftge 0034                                 ?___wmul 0034  
                            __pintentry 0004                                 _DACCON0 0113  
                               _DACCON1 0114                         ?_SwitchToRxMode 0070  
                       ?_SwitchToTxMode 0070                              __ptext1200 1764  
                            __ptext1201 1491                              __ptext1202 0000  
                            __ptext1170 14C6                              __ptext1171 147C  
                            __ptext1180 15B3                              __ptext1172 1564  
                            __ptext1181 1589                              __ptext1173 0015  
                            __ptext1190 0BB2                              __ptext1182 0801  
                            __ptext1174 1608                              __ptext1191 0A16  
                            __ptext1183 0CA0                              __ptext1175 0ADE  
                            __ptext1192 08F3                              __ptext1184 15DD  
                            __ptext1176 0E00                              __ptext1193 07D0  
                            __ptext1185 1633                              __ptext1177 1545  
                            __ptext1169 14DC                              __ptext1194 17B1  
                            __ptext1186 14B0                              __ptext1178 169D  
                            __ptext1195 171F                              __ptext1187 150D  
                            __ptext1179 1526                              __ptext1196 080D  
                            __ptext1188 14F4                              __ptext1197 087B  
                            __ptext1189 0970                              __ptext1198 0622  
                            __ptext1199 16DC                             _Send_Packet 0ADE  
                             ?___ftpack 0034                       __end_of_SwitchCFG 1665  
                               ?_printf 0042                   _rfm70setPowerdownMode 1564  
            rfm70setPowerdownMode@value 003B                              ??i1_printf 0022  
                            __stringtab 1000                          sleep@new_value 004E  
                               i1_putch 1491                     __end_of_adcReadVcap 1608  
                   __end_of_adcReadTemp 1633                         __size_of_SPI_RW 0019  
                         SwitchCFG@_cfg 003B                               ?_uartInit 0070  
                       __size_of___ftge 006E                                 _adcInit 147C  
                               ___ftdiv 0A16                         __size_of___wmul 002C  
                               ___ftmul 0BB2                                 ___fttol 0970  
                               ___lwdiv 17B1                                 ___lwmod 171F  
                            ??___ftpack 0039                       SPI_Write_Buf@pBuf 0037  
        ?_rfm70TxDataSentErrorInterrupt 0070                         __size_of_printf 0200  
                          __size_of_ISR 0078                       __end_of_hexpowers 1095  
                             _T1CONbits 0010                                 _dpowers 1083  
                     i1___lwdiv@divisor 0070                       i1___lwdiv@counter 0075  
                               _spiInit 14DC                              _tmr1Target 005A  
                  end_of_initialization 1699                                 init_ram 14A1  
              __end_of_RFM70_Initialize 0325                              ??_uartInit 0034  
                             _RCSTAbits 0018                                 printf@c 00A8  
                               printf@f 0042                         _timelapse_count 00E6  
                          __pstringtext 1000                               _PORTAbits 0005  
                             _PORTBbits 0006                               _PORTCbits 0007  
                             _PORTDbits 0008                               _PORTEbits 0009  
                ?_rfm70setPowerdownMode 0070                        __CFG_FOSC$INTOSC 0000  
                             _TRISAbits 0085                               _TRISBbits 0086  
                             _Bank0_Reg 104A                               _TRISCbits 0087  
                             _TRISDbits 0088                               _TRISEbits 0089  
                             i1___lwdiv 1764                             _adcReadVcap 15DD  
                             i1___lwmod 16DC                             _adcReadTemp 1608  
                 __end_of_Bank1_Reg0_13 104A                             ___ftdiv@exp 004A  
                             _TXSTAbits 0098                            i1printf@_val 0029  
                          i1printf@flag 0028                          __end_of_SPI_RW 150D  
                          Send_Packet@i 00AB                            i1printf@prec 0027  
                         ?_SPI_Read_Reg 0070                             ___ftmul@exp 0046  
                           SPI_RW@value 0036                          __end_of___ftge 087B  
                        __end_of___wmul 07FC                        adcReadVcap@value 0036  
                     i1___lwmod@divisor 0078                           __pbitbssBANK0 02D8  
                     i1___lwmod@counter 007D                          __end_of_printf 1000  
                   start_initialization 1665                             __end_of_ISR 08F3  
                             i1printf@c 002D                               i1printf@f 0020  
                      adcReadTemp@value 0036                              ?i1___lwdiv 0070  
                            ?i1___lwmod 0078                       __size_ofi1_printf 01AE  
                              ??_SPI_RW 0034                          ??_SPI_Read_Reg 0037  
                 __end_of_SPI_Write_Buf 15DD                   __end_of_SPI_Write_Reg 14C6  
                      ??_SwitchToRxMode 003A                        ??_SwitchToTxMode 003A  
                              ??___ftge 003A                                ??___wmul 0038  
                           __pdataBANK0 0058                             __pdataBANK1 00DB  
                          ?_Send_Packet 004B                                ??_printf 0048  
                     __size_of___ftpack 007D                               _SwitchCFG 1633  
                         __pcstackBANK0 0020                           __pcstackBANK1 00A0  
                   __end_of__stringdata 119F                             _charge_time 0054  
                             _dac_value 0058                                ?i1_putch 0070  
                      ___lwdiv@dividend 0036                                ?_adcInit 0070  
                              ?___ftdiv 003C                     SPI_Write_Buf@length 0038  
                              ?___ftmul 003C                                ?___fttol 0034  
                              ?___lwdiv 0034                       __size_of_uartInit 0016  
                              ?___lwmod 003C                              ?_SwitchCFG 0070  
                   Send_Packet@fifo_sta 00AA                                ?_spiInit 0070  
                 SPI_Write_Buf@byte_ctr 003B                _rfm70TxDataSentInterrupt 1526  
                             _hexpowers 108D                        ___lwdiv@quotient 003A  
                           ??i1___lwdiv 0074                             ??i1___lwmod 007C  
                        __size_of_sleep 0160                          __size_of_putch 000C  
       ??_rfm70TxDataSentErrorInterrupt 003A                       interrupt_function 0004  
                        ___wmul@product 0038                       ?_RFM70_Initialize 0070  
                    ??_RFM70_Initialize 003D                                _PIR1bits 000C  
               ??_rfm70setPowerdownMode 003A                              _ADCON0bits 001F  
                           __stringbase 1012                              _ADCON1bits 009F  
                           __stringdata 10A3                       ___wmul@multiplier 0034  
                  __end_of_Bank0_RegAct 10A3                              printf@_val 00A4  
                            printf@flag 00A3                              printf@prec 00A2  
                  __end_of_SPI_Read_Reg 1526                                i1_printf 0622  
                         _sleep_counter 0056                            ?_adcReadVcap 0070  
                          ?_adcReadTemp 0070                                i1putch@c 0070  
                      __size_ofi1_putch 000C                               init_fetch 149D  
                      __size_of_adcInit 000A                        __size_of___ftdiv 00C8  
                   __end_of_RX0_Address 109A                        __size_of___ftmul 00EE  
                      __size_of___fttol 00A6                        __size_of___lwdiv 004F  
                      __size_of___lwmod 0045                                ___ftpack 08F3  
                   __end_of_RX1_Address 109F                      __end_of__stringtab 1012  
                            _ANSELAbits 0185                              _ANSELBbits 0186  
                            _ANSELCbits 0187                              _ANSELDbits 0188  
                            _ANSELEbits 0189                    __size_of_Send_Packet 00D4  
                           ??_SwitchCFG 003A                         ___lwdiv@divisor 0034  
                       ___lwdiv@counter 0039                              _T1GCONbits 008F  
                      __size_of_spiInit 0018                      i1___lwdiv@dividend 0072  
                         __size_of_main 02FD                                clear_ram 1474  
                              _uartInit 14C6                      SPI_Write_Reg@value 0037  
                   __end_of_Bank1_Reg14 1083                             _tmr1Counter 0057  
                             printf@idx 00A0                                main@argc 00AC  
                              main@argv 00AE                                main@temp 00D5  
                       main@temp_tx_buf 00B4                      i1___lwdiv@quotient 0076  
              rfm70setPowerdownMode@reg 003C                              _FVRCONbits 009D  
                              intlevel1 0000                        ___lwmod@dividend 003E  
                           _jumper_stat 00EC                               stringcode 100A  
                            _OSCCONbits 0090                             _RX0_Address 1095  
                           _RX1_Address 109A                                printf@ap 00A1  
                           _sleep_count 00ED              ??_rfm70TxDataSentInterrupt 003A  
                 __size_of_SPI_Read_Reg 0019                         ___lwmod@divisor 003C  
                       ___lwmod@counter 0041                                stringtab 1000  
                __size_of_SPI_Write_Buf 002A                  __size_of_SPI_Write_Reg 0016  
                         _Bank1_Reg0_13 1012                    __size_of_adcReadVcap 002B  
                  __size_of_adcReadTemp 002B                            _Bank0_RegAct 109F  
                            _SSPCONbits 0014                             _Bank1_Reg14 1078  
                          _SPI_Read_Reg 150D  
