

Microchip Technology PIC LITE Macro Assembler V1.12 build 49521 
                                                                                               Tue May 28 17:41:40 2013

HI-TECH Software Omniscient Code Generator (Lite mode) build 49521
     1  0000                     opt subtitle "HI-TECH Software Omniscient Code Generator (Lite mode) build 49521"
     2                           opt subtitle "HI-TECH Software Omniscient Code Generator (Lite mode) build 49521"
     3                           
     4                           opt pagewidth 120
     5                           
     6                           	opt lm
     7                           
     8                           	processor	16LF707
     9                           clrc	macro
    10  0000                     	endm
    11                           opt subtitle "HI-TECH Software Omniscient Code Generator (Lite mode) build 49521"
    12                           
    13  0000                     	endm
    14                           opt subtitle "HI-TECH Software Omniscient Code Generator (Lite mode) build 49521"
    15                           
    16  0000                     	endm
    17                           opt subtitle "HI-TECH Software Omniscient Code Generator (Lite mode) build 49521"
    18                           
    19  0000                     	endm
    20                           opt subtitle "HI-TECH Software Omniscient Code Generator (Lite mode) build 49521"
    21                           
    22  0000                     	endm
    23                           opt subtitle "HI-TECH Software Omniscient Code Generator (Lite mode) build 49521"
    24                           
    25  0000                     	endm
    26                           opt subtitle "HI-TECH Software Omniscient Code Generator (Lite mode) build 49521"
    27                           
    28  0000                     	endm
    29                           opt subtitle "HI-TECH Software Omniscient Code Generator (Lite mode) build 49521"
    30                           
    31  0000                     	endm
    32  0000                     indf	equ	0
    33  0000                     indf0	equ	0
    34  0002                     pc	equ	2
    35  0002                     pcl	equ	2
    36  0003                     status	equ	3
    37  0004                     fsr	equ	4
    38  0004                     fsr0	equ	4
    39  0001                     c	equ	1
    40  0000                     z	equ	0
    41  000A                     pclath	equ	10
    42                           opt subtitle "HI-TECH Software Omniscient Code Generator (Lite mode) build 49521"
    43  0000                     INDF equ 00h ;# 
    44                           opt subtitle "HI-TECH Software Omniscient Code Generator (Lite mode) build 49521"
    45  0001                     TMR0 equ 01h ;# 
    46                           opt subtitle "HI-TECH Software Omniscient Code Generator (Lite mode) build 49521"
    47  0002                     PCL equ 02h ;# 
    48                           opt subtitle "HI-TECH Software Omniscient Code Generator (Lite mode) build 49521"
    49  0003                     STATUS equ 03h ;# 
    50                           opt subtitle "HI-TECH Software Omniscient Code Generator (Lite mode) build 49521"
    51  0004                     FSR equ 04h ;# 
    52                           opt subtitle "HI-TECH Software Omniscient Code Generator (Lite mode) build 49521"
    53  0005                     PORTA equ 05h ;# 
    54                           opt subtitle "HI-TECH Software Omniscient Code Generator (Lite mode) build 49521"
    55  0006                     PORTB equ 06h ;# 
    56                           opt subtitle "HI-TECH Software Omniscient Code Generator (Lite mode) build 49521"
    57  0007                     PORTC equ 07h ;# 
    58                           opt subtitle "HI-TECH Software Omniscient Code Generator (Lite mode) build 49521"
    59  0008                     PORTD equ 08h ;# 
    60                           opt subtitle "HI-TECH Software Omniscient Code Generator (Lite mode) build 49521"
    61  0009                     PORTE equ 09h ;# 
    62                           opt subtitle "HI-TECH Software Omniscient Code Generator (Lite mode) build 49521"
    63  000A                     PCLATH equ 0Ah ;# 
    64                           opt subtitle "HI-TECH Software Omniscient Code Generator (Lite mode) build 49521"
    65  000B                     INTCON equ 0Bh ;# 
    66                           opt subtitle "HI-TECH Software Omniscient Code Generator (Lite mode) build 49521"
    67  000C                     PIR1 equ 0Ch ;# 
    68                           opt subtitle "HI-TECH Software Omniscient Code Generator (Lite mode) build 49521"
    69  000D                     PIR2 equ 0Dh ;# 
    70                           opt subtitle "HI-TECH Software Omniscient Code Generator (Lite mode) build 49521"
    71  000E                     TMR1 equ 0Eh ;# 
    72                           opt subtitle "HI-TECH Software Omniscient Code Generator (Lite mode) build 49521"
    73  000E                     TMR1L equ 0Eh ;# 
    74                           opt subtitle "HI-TECH Software Omniscient Code Generator (Lite mode) build 49521"
    75  000F                     TMR1H equ 0Fh ;# 
    76                           opt subtitle "HI-TECH Software Omniscient Code Generator (Lite mode) build 49521"
    77  0010                     T1CON equ 010h ;# 
    78                           opt subtitle "HI-TECH Software Omniscient Code Generator (Lite mode) build 49521"
    79  0011                     TMR2 equ 011h ;# 
    80                           opt subtitle "HI-TECH Software Omniscient Code Generator (Lite mode) build 49521"
    81  0012                     T2CON equ 012h ;# 
    82                           opt subtitle "HI-TECH Software Omniscient Code Generator (Lite mode) build 49521"
    83  0013                     SSPBUF equ 013h ;# 
    84                           opt subtitle "HI-TECH Software Omniscient Code Generator (Lite mode) build 49521"
    85  0014                     SSPCON equ 014h ;# 
    86                           opt subtitle "HI-TECH Software Omniscient Code Generator (Lite mode) build 49521"
    87  0015                     CCPR1 equ 015h ;# 
    88                           opt subtitle "HI-TECH Software Omniscient Code Generator (Lite mode) build 49521"
    89  0015                     CCPR1L equ 015h ;# 
    90                           opt subtitle "HI-TECH Software Omniscient Code Generator (Lite mode) build 49521"
    91  0016                     CCPR1H equ 016h ;# 
    92                           opt subtitle "HI-TECH Software Omniscient Code Generator (Lite mode) build 49521"
    93  0017                     CCP1CON equ 017h ;# 
    94                           opt subtitle "HI-TECH Software Omniscient Code Generator (Lite mode) build 49521"
    95  0018                     RCSTA equ 018h ;# 
    96                           opt subtitle "HI-TECH Software Omniscient Code Generator (Lite mode) build 49521"
    97  0019                     TXREG equ 019h ;# 
    98                           opt subtitle "HI-TECH Software Omniscient Code Generator (Lite mode) build 49521"
    99  001A                     RCREG equ 01Ah ;# 
   100                           opt subtitle "HI-TECH Software Omniscient Code Generator (Lite mode) build 49521"
   101  001B                     CCPR2 equ 01Bh ;# 
   102                           opt subtitle "HI-TECH Software Omniscient Code Generator (Lite mode) build 49521"
   103  001B                     CCPR2L equ 01Bh ;# 
   104                           opt subtitle "HI-TECH Software Omniscient Code Generator (Lite mode) build 49521"
   105  001C                     CCPR2H equ 01Ch ;# 
   106                           opt subtitle "HI-TECH Software Omniscient Code Generator (Lite mode) build 49521"
   107  001D                     CCP2CON equ 01Dh ;# 
   108                           opt subtitle "HI-TECH Software Omniscient Code Generator (Lite mode) build 49521"
   109  001E                     ADRES equ 01Eh ;# 
   110                           opt subtitle "HI-TECH Software Omniscient Code Generator (Lite mode) build 49521"
   111  001F                     ADCON0 equ 01Fh ;# 
   112                           opt subtitle "HI-TECH Software Omniscient Code Generator (Lite mode) build 49521"
   113  0081                     OPTION_REG equ 081h ;# 
   114                           opt subtitle "HI-TECH Software Omniscient Code Generator (Lite mode) build 49521"
   115  0085                     TRISA equ 085h ;# 
   116                           opt subtitle "HI-TECH Software Omniscient Code Generator (Lite mode) build 49521"
   117  0086                     TRISB equ 086h ;# 
   118                           opt subtitle "HI-TECH Software Omniscient Code Generator (Lite mode) build 49521"
   119  0087                     TRISC equ 087h ;# 
   120                           opt subtitle "HI-TECH Software Omniscient Code Generator (Lite mode) build 49521"
   121  0088                     TRISD equ 088h ;# 
   122                           opt subtitle "HI-TECH Software Omniscient Code Generator (Lite mode) build 49521"
   123  0089                     TRISE equ 089h ;# 
   124                           opt subtitle "HI-TECH Software Omniscient Code Generator (Lite mode) build 49521"
   125  008C                     PIE1 equ 08Ch ;# 
   126                           opt subtitle "HI-TECH Software Omniscient Code Generator (Lite mode) build 49521"
   127  008D                     PIE2 equ 08Dh ;# 
   128                           opt subtitle "HI-TECH Software Omniscient Code Generator (Lite mode) build 49521"
   129  008E                     PCON equ 08Eh ;# 
   130                           opt subtitle "HI-TECH Software Omniscient Code Generator (Lite mode) build 49521"
   131  008F                     T1GCON equ 08Fh ;# 
   132                           opt subtitle "HI-TECH Software Omniscient Code Generator (Lite mode) build 49521"
   133  0090                     OSCCON equ 090h ;# 
   134                           opt subtitle "HI-TECH Software Omniscient Code Generator (Lite mode) build 49521"
   135  0091                     OSCTUNE equ 091h ;# 
   136                           opt subtitle "HI-TECH Software Omniscient Code Generator (Lite mode) build 49521"
   137  0092                     PR2 equ 092h ;# 
   138                           opt subtitle "HI-TECH Software Omniscient Code Generator (Lite mode) build 49521"
   139  0093                     SSPADD equ 093h ;# 
   140                           opt subtitle "HI-TECH Software Omniscient Code Generator (Lite mode) build 49521"
   141  0093                     SSPMSK equ 093h ;# 
   142                           opt subtitle "HI-TECH Software Omniscient Code Generator (Lite mode) build 49521"
   143  0094                     SSPSTAT equ 094h ;# 
   144                           opt subtitle "HI-TECH Software Omniscient Code Generator (Lite mode) build 49521"
   145  0095                     WPUB equ 095h ;# 
   146                           opt subtitle "HI-TECH Software Omniscient Code Generator (Lite mode) build 49521"
   147  0096                     IOCB equ 096h ;# 
   148                           opt subtitle "HI-TECH Software Omniscient Code Generator (Lite mode) build 49521"
   149  0097                     T3CON equ 097h ;# 
   150                           opt subtitle "HI-TECH Software Omniscient Code Generator (Lite mode) build 49521"
   151  0098                     TXSTA equ 098h ;# 
   152                           opt subtitle "HI-TECH Software Omniscient Code Generator (Lite mode) build 49521"
   153  0099                     SPBRG equ 099h ;# 
   154                           opt subtitle "HI-TECH Software Omniscient Code Generator (Lite mode) build 49521"
   155  009A                     TMR3 equ 09Ah ;# 
   156                           opt subtitle "HI-TECH Software Omniscient Code Generator (Lite mode) build 49521"
   157  009A                     TMR3L equ 09Ah ;# 
   158                           opt subtitle "HI-TECH Software Omniscient Code Generator (Lite mode) build 49521"
   159  009B                     TMR3H equ 09Bh ;# 
   160                           opt subtitle "HI-TECH Software Omniscient Code Generator (Lite mode) build 49521"
   161  009C                     APFCON equ 09Ch ;# 
   162                           opt subtitle "HI-TECH Software Omniscient Code Generator (Lite mode) build 49521"
   163  009D                     FVRCON equ 09Dh ;# 
   164                           opt subtitle "HI-TECH Software Omniscient Code Generator (Lite mode) build 49521"
   165  009E                     T3GCON equ 09Eh ;# 
   166                           opt subtitle "HI-TECH Software Omniscient Code Generator (Lite mode) build 49521"
   167  009F                     ADCON1 equ 09Fh ;# 
   168                           opt subtitle "HI-TECH Software Omniscient Code Generator (Lite mode) build 49521"
   169  0105                     TACON equ 0105h ;# 
   170                           opt subtitle "HI-TECH Software Omniscient Code Generator (Lite mode) build 49521"
   171  0106                     CPSBCON0 equ 0106h ;# 
   172                           opt subtitle "HI-TECH Software Omniscient Code Generator (Lite mode) build 49521"
   173  0107                     CPSBCON1 equ 0107h ;# 
   174                           opt subtitle "HI-TECH Software Omniscient Code Generator (Lite mode) build 49521"
   175  0108                     CPSACON0 equ 0108h ;# 
   176                           opt subtitle "HI-TECH Software Omniscient Code Generator (Lite mode) build 49521"
   177  0109                     CPSACON1 equ 0109h ;# 
   178                           opt subtitle "HI-TECH Software Omniscient Code Generator (Lite mode) build 49521"
   179  010C                     PMDATL equ 010Ch ;# 
   180                           opt subtitle "HI-TECH Software Omniscient Code Generator (Lite mode) build 49521"
   181  010D                     PMADRL equ 010Dh ;# 
   182                           opt subtitle "HI-TECH Software Omniscient Code Generator (Lite mode) build 49521"
   183  010E                     PMDATH equ 010Eh ;# 
   184                           opt subtitle "HI-TECH Software Omniscient Code Generator (Lite mode) build 49521"
   185  010F                     PMADRH equ 010Fh ;# 
   186                           opt subtitle "HI-TECH Software Omniscient Code Generator (Lite mode) build 49521"
   187  0110                     TMRA equ 0110h ;# 
   188                           opt subtitle "HI-TECH Software Omniscient Code Generator (Lite mode) build 49521"
   189  0111                     TBCON equ 0111h ;# 
   190                           opt subtitle "HI-TECH Software Omniscient Code Generator (Lite mode) build 49521"
   191  0112                     TMRB equ 0112h ;# 
   192                           opt subtitle "HI-TECH Software Omniscient Code Generator (Lite mode) build 49521"
   193  0113                     DACCON0 equ 0113h ;# 
   194                           opt subtitle "HI-TECH Software Omniscient Code Generator (Lite mode) build 49521"
   195  0114                     DACCON1 equ 0114h ;# 
   196                           opt subtitle "HI-TECH Software Omniscient Code Generator (Lite mode) build 49521"
   197  0185                     ANSELA equ 0185h ;# 
   198                           opt subtitle "HI-TECH Software Omniscient Code Generator (Lite mode) build 49521"
   199  0186                     ANSELB equ 0186h ;# 
   200                           opt subtitle "HI-TECH Software Omniscient Code Generator (Lite mode) build 49521"
   201  0187                     ANSELC equ 0187h ;# 
   202                           opt subtitle "HI-TECH Software Omniscient Code Generator (Lite mode) build 49521"
   203  0188                     ANSELD equ 0188h ;# 
   204                           opt subtitle "HI-TECH Software Omniscient Code Generator (Lite mode) build 49521"
   205  0189                     ANSELE equ 0189h ;# 
   206                           opt subtitle "HI-TECH Software Omniscient Code Generator (Lite mode) build 49521"
   207  018C                     PMCON1 equ 018Ch ;# 
   208                           opt subtitle "HI-TECH Software Omniscient Code Generator (Lite mode) build 49521"
   209  0000                     INDF equ 00h ;# 
   210                           opt subtitle "HI-TECH Software Omniscient Code Generator (Lite mode) build 49521"
   211  0001                     TMR0 equ 01h ;# 
   212                           opt subtitle "HI-TECH Software Omniscient Code Generator (Lite mode) build 49521"
   213  0002                     PCL equ 02h ;# 
   214                           opt subtitle "HI-TECH Software Omniscient Code Generator (Lite mode) build 49521"
   215  0003                     STATUS equ 03h ;# 
   216                           opt subtitle "HI-TECH Software Omniscient Code Generator (Lite mode) build 49521"
   217  0004                     FSR equ 04h ;# 
   218                           opt subtitle "HI-TECH Software Omniscient Code Generator (Lite mode) build 49521"
   219  0005                     PORTA equ 05h ;# 
   220                           opt subtitle "HI-TECH Software Omniscient Code Generator (Lite mode) build 49521"
   221  0006                     PORTB equ 06h ;# 
   222                           opt subtitle "HI-TECH Software Omniscient Code Generator (Lite mode) build 49521"
   223  0007                     PORTC equ 07h ;# 
   224                           opt subtitle "HI-TECH Software Omniscient Code Generator (Lite mode) build 49521"
   225  0008                     PORTD equ 08h ;# 
   226                           opt subtitle "HI-TECH Software Omniscient Code Generator (Lite mode) build 49521"
   227  0009                     PORTE equ 09h ;# 
   228                           opt subtitle "HI-TECH Software Omniscient Code Generator (Lite mode) build 49521"
   229  000A                     PCLATH equ 0Ah ;# 
   230                           opt subtitle "HI-TECH Software Omniscient Code Generator (Lite mode) build 49521"
   231  000B                     INTCON equ 0Bh ;# 
   232                           opt subtitle "HI-TECH Software Omniscient Code Generator (Lite mode) build 49521"
   233  000C                     PIR1 equ 0Ch ;# 
   234                           opt subtitle "HI-TECH Software Omniscient Code Generator (Lite mode) build 49521"
   235  000D                     PIR2 equ 0Dh ;# 
   236                           opt subtitle "HI-TECH Software Omniscient Code Generator (Lite mode) build 49521"
   237  000E                     TMR1 equ 0Eh ;# 
   238                           opt subtitle "HI-TECH Software Omniscient Code Generator (Lite mode) build 49521"
   239  000E                     TMR1L equ 0Eh ;# 
   240                           opt subtitle "HI-TECH Software Omniscient Code Generator (Lite mode) build 49521"
   241  000F                     TMR1H equ 0Fh ;# 
   242                           opt subtitle "HI-TECH Software Omniscient Code Generator (Lite mode) build 49521"
   243  0010                     T1CON equ 010h ;# 
   244                           opt subtitle "HI-TECH Software Omniscient Code Generator (Lite mode) build 49521"
   245  0011                     TMR2 equ 011h ;# 
   246                           opt subtitle "HI-TECH Software Omniscient Code Generator (Lite mode) build 49521"
   247  0012                     T2CON equ 012h ;# 
   248                           opt subtitle "HI-TECH Software Omniscient Code Generator (Lite mode) build 49521"
   249  0013                     SSPBUF equ 013h ;# 
   250                           opt subtitle "HI-TECH Software Omniscient Code Generator (Lite mode) build 49521"
   251  0014                     SSPCON equ 014h ;# 
   252                           opt subtitle "HI-TECH Software Omniscient Code Generator (Lite mode) build 49521"
   253  0015                     CCPR1 equ 015h ;# 
   254                           opt subtitle "HI-TECH Software Omniscient Code Generator (Lite mode) build 49521"
   255  0015                     CCPR1L equ 015h ;# 
   256                           opt subtitle "HI-TECH Software Omniscient Code Generator (Lite mode) build 49521"
   257  0016                     CCPR1H equ 016h ;# 
   258                           opt subtitle "HI-TECH Software Omniscient Code Generator (Lite mode) build 49521"
   259  0017                     CCP1CON equ 017h ;# 
   260                           opt subtitle "HI-TECH Software Omniscient Code Generator (Lite mode) build 49521"
   261  0018                     RCSTA equ 018h ;# 
   262                           opt subtitle "HI-TECH Software Omniscient Code Generator (Lite mode) build 49521"
   263  0019                     TXREG equ 019h ;# 
   264                           opt subtitle "HI-TECH Software Omniscient Code Generator (Lite mode) build 49521"
   265  001A                     RCREG equ 01Ah ;# 
   266                           opt subtitle "HI-TECH Software Omniscient Code Generator (Lite mode) build 49521"
   267  001B                     CCPR2 equ 01Bh ;# 
   268                           opt subtitle "HI-TECH Software Omniscient Code Generator (Lite mode) build 49521"
   269  001B                     CCPR2L equ 01Bh ;# 
   270                           opt subtitle "HI-TECH Software Omniscient Code Generator (Lite mode) build 49521"
   271  001C                     CCPR2H equ 01Ch ;# 
   272                           opt subtitle "HI-TECH Software Omniscient Code Generator (Lite mode) build 49521"
   273  001D                     CCP2CON equ 01Dh ;# 
   274                           opt subtitle "HI-TECH Software Omniscient Code Generator (Lite mode) build 49521"
   275  001E                     ADRES equ 01Eh ;# 
   276                           opt subtitle "HI-TECH Software Omniscient Code Generator (Lite mode) build 49521"
   277  001F                     ADCON0 equ 01Fh ;# 
   278                           opt subtitle "HI-TECH Software Omniscient Code Generator (Lite mode) build 49521"
   279  0081                     OPTION_REG equ 081h ;# 
   280                           opt subtitle "HI-TECH Software Omniscient Code Generator (Lite mode) build 49521"
   281  0085                     TRISA equ 085h ;# 
   282                           opt subtitle "HI-TECH Software Omniscient Code Generator (Lite mode) build 49521"
   283  0086                     TRISB equ 086h ;# 
   284                           opt subtitle "HI-TECH Software Omniscient Code Generator (Lite mode) build 49521"
   285  0087                     TRISC equ 087h ;# 
   286                           opt subtitle "HI-TECH Software Omniscient Code Generator (Lite mode) build 49521"
   287  0088                     TRISD equ 088h ;# 
   288                           opt subtitle "HI-TECH Software Omniscient Code Generator (Lite mode) build 49521"
   289  0089                     TRISE equ 089h ;# 
   290                           opt subtitle "HI-TECH Software Omniscient Code Generator (Lite mode) build 49521"
   291  008C                     PIE1 equ 08Ch ;# 
   292                           opt subtitle "HI-TECH Software Omniscient Code Generator (Lite mode) build 49521"
   293  008D                     PIE2 equ 08Dh ;# 
   294                           opt subtitle "HI-TECH Software Omniscient Code Generator (Lite mode) build 49521"
   295  008E                     PCON equ 08Eh ;# 
   296                           opt subtitle "HI-TECH Software Omniscient Code Generator (Lite mode) build 49521"
   297  008F                     T1GCON equ 08Fh ;# 
   298                           opt subtitle "HI-TECH Software Omniscient Code Generator (Lite mode) build 49521"
   299  0090                     OSCCON equ 090h ;# 
   300                           opt subtitle "HI-TECH Software Omniscient Code Generator (Lite mode) build 49521"
   301  0091                     OSCTUNE equ 091h ;# 
   302                           opt subtitle "HI-TECH Software Omniscient Code Generator (Lite mode) build 49521"
   303  0092                     PR2 equ 092h ;# 
   304                           opt subtitle "HI-TECH Software Omniscient Code Generator (Lite mode) build 49521"
   305  0093                     SSPADD equ 093h ;# 
   306                           opt subtitle "HI-TECH Software Omniscient Code Generator (Lite mode) build 49521"
   307  0093                     SSPMSK equ 093h ;# 
   308                           opt subtitle "HI-TECH Software Omniscient Code Generator (Lite mode) build 49521"
   309  0094                     SSPSTAT equ 094h ;# 
   310                           opt subtitle "HI-TECH Software Omniscient Code Generator (Lite mode) build 49521"
   311  0095                     WPUB equ 095h ;# 
   312                           opt subtitle "HI-TECH Software Omniscient Code Generator (Lite mode) build 49521"
   313  0096                     IOCB equ 096h ;# 
   314                           opt subtitle "HI-TECH Software Omniscient Code Generator (Lite mode) build 49521"
   315  0097                     T3CON equ 097h ;# 
   316                           opt subtitle "HI-TECH Software Omniscient Code Generator (Lite mode) build 49521"
   317  0098                     TXSTA equ 098h ;# 
   318                           opt subtitle "HI-TECH Software Omniscient Code Generator (Lite mode) build 49521"
   319  0099                     SPBRG equ 099h ;# 
   320                           opt subtitle "HI-TECH Software Omniscient Code Generator (Lite mode) build 49521"
   321  009A                     TMR3 equ 09Ah ;# 
   322                           opt subtitle "HI-TECH Software Omniscient Code Generator (Lite mode) build 49521"
   323  009A                     TMR3L equ 09Ah ;# 
   324                           opt subtitle "HI-TECH Software Omniscient Code Generator (Lite mode) build 49521"
   325  009B                     TMR3H equ 09Bh ;# 
   326                           opt subtitle "HI-TECH Software Omniscient Code Generator (Lite mode) build 49521"
   327  009C                     APFCON equ 09Ch ;# 
   328                           opt subtitle "HI-TECH Software Omniscient Code Generator (Lite mode) build 49521"
   329  009D                     FVRCON equ 09Dh ;# 
   330                           opt subtitle "HI-TECH Software Omniscient Code Generator (Lite mode) build 49521"
   331  009E                     T3GCON equ 09Eh ;# 
   332                           opt subtitle "HI-TECH Software Omniscient Code Generator (Lite mode) build 49521"
   333  009F                     ADCON1 equ 09Fh ;# 
   334                           opt subtitle "HI-TECH Software Omniscient Code Generator (Lite mode) build 49521"
   335  0105                     TACON equ 0105h ;# 
   336                           opt subtitle "HI-TECH Software Omniscient Code Generator (Lite mode) build 49521"
   337  0106                     CPSBCON0 equ 0106h ;# 
   338                           opt subtitle "HI-TECH Software Omniscient Code Generator (Lite mode) build 49521"
   339  0107                     CPSBCON1 equ 0107h ;# 
   340                           opt subtitle "HI-TECH Software Omniscient Code Generator (Lite mode) build 49521"
   341  0108                     CPSACON0 equ 0108h ;# 
   342                           opt subtitle "HI-TECH Software Omniscient Code Generator (Lite mode) build 49521"
   343  0109                     CPSACON1 equ 0109h ;# 
   344                           opt subtitle "HI-TECH Software Omniscient Code Generator (Lite mode) build 49521"
   345  010C                     PMDATL equ 010Ch ;# 
   346                           opt subtitle "HI-TECH Software Omniscient Code Generator (Lite mode) build 49521"
   347  010D                     PMADRL equ 010Dh ;# 
   348                           opt subtitle "HI-TECH Software Omniscient Code Generator (Lite mode) build 49521"
   349  010E                     PMDATH equ 010Eh ;# 
   350                           opt subtitle "HI-TECH Software Omniscient Code Generator (Lite mode) build 49521"
   351  010F                     PMADRH equ 010Fh ;# 
   352                           opt subtitle "HI-TECH Software Omniscient Code Generator (Lite mode) build 49521"
   353  0110                     TMRA equ 0110h ;# 
   354                           opt subtitle "HI-TECH Software Omniscient Code Generator (Lite mode) build 49521"
   355  0111                     TBCON equ 0111h ;# 
   356                           opt subtitle "HI-TECH Software Omniscient Code Generator (Lite mode) build 49521"
   357  0112                     TMRB equ 0112h ;# 
   358                           opt subtitle "HI-TECH Software Omniscient Code Generator (Lite mode) build 49521"
   359  0113                     DACCON0 equ 0113h ;# 
   360                           opt subtitle "HI-TECH Software Omniscient Code Generator (Lite mode) build 49521"
   361  0114                     DACCON1 equ 0114h ;# 
   362                           opt subtitle "HI-TECH Software Omniscient Code Generator (Lite mode) build 49521"
   363  0185                     ANSELA equ 0185h ;# 
   364                           opt subtitle "HI-TECH Software Omniscient Code Generator (Lite mode) build 49521"
   365  0186                     ANSELB equ 0186h ;# 
   366                           opt subtitle "HI-TECH Software Omniscient Code Generator (Lite mode) build 49521"
   367  0187                     ANSELC equ 0187h ;# 
   368                           opt subtitle "HI-TECH Software Omniscient Code Generator (Lite mode) build 49521"
   369  0188                     ANSELD equ 0188h ;# 
   370                           opt subtitle "HI-TECH Software Omniscient Code Generator (Lite mode) build 49521"
   371  0189                     ANSELE equ 0189h ;# 
   372                           opt subtitle "HI-TECH Software Omniscient Code Generator (Lite mode) build 49521"
   373  018C                     PMCON1 equ 018Ch ;# 
   374                           opt subtitle "HI-TECH Software Omniscient Code Generator (Lite mode) build 49521"
   375                           
   376                           opt pagewidth 120
   377                           
   378                           	opt lm
   379                           
   380                           	processor	16LF707
   381                           clrc	macro
   382                           	bcf	3,0
   383                           	endm
   384                           clrz	macro
   385                           	bcf	3,2
   386                           	endm
   387                           setc	macro
   388                           	bsf	3,0
   389                           	endm
   390                           setz	macro
   391                           	bsf	3,2
   392                           	endm
   393                           skipc	macro
   394                           	btfss	3,0
   395                           	endm
   396                           skipz	macro
   397                           	btfss	3,2
   398                           	endm
   399                           skipnc	macro
   400                           	btfsc	3,0
   401                           	endm
   402                           skipnz	macro
   403                           	btfsc	3,2
   404                           	endm
   405                           indf	equ	0
   406                           indf0	equ	0
   407                           pc	equ	2
   408                           pcl	equ	2
   409                           status	equ	3
   410                           fsr	equ	4
   411                           fsr0	equ	4
   412                           c	equ	1
   413                           z	equ	0
   414                           pclath	equ	10
   415                           # 46 "/Applications/microchip/xc8/v1.12/include/pic16lf707.h"
   416                           INDF equ 00h ;# 
   417                           # 52 "/Applications/microchip/xc8/v1.12/include/pic16lf707.h"
   418                           TMR0 equ 01h ;# 
   419                           # 58 "/Applications/microchip/xc8/v1.12/include/pic16lf707.h"
   420                           PCL equ 02h ;# 
   421                           # 64 "/Applications/microchip/xc8/v1.12/include/pic16lf707.h"
   422                           STATUS equ 03h ;# 
   423                           # 151 "/Applications/microchip/xc8/v1.12/include/pic16lf707.h"
   424                           FSR equ 04h ;# 
   425                           # 157 "/Applications/microchip/xc8/v1.12/include/pic16lf707.h"
   426                           PORTA equ 05h ;# 
   427                           # 346 "/Applications/microchip/xc8/v1.12/include/pic16lf707.h"
   428                           PORTB equ 06h ;# 
   429                           # 520 "/Applications/microchip/xc8/v1.12/include/pic16lf707.h"
   430                           PORTC equ 07h ;# 
   431                           # 715 "/Applications/microchip/xc8/v1.12/include/pic16lf707.h"
   432                           PORTD equ 08h ;# 
   433                           # 834 "/Applications/microchip/xc8/v1.12/include/pic16lf707.h"
   434                           PORTE equ 09h ;# 
   435                           # 917 "/Applications/microchip/xc8/v1.12/include/pic16lf707.h"
   436                           PCLATH equ 0Ah ;# 
   437  0816                     __pidataCOMMON:
   438                           opt subtitle "HI-TECH Software Omniscient Code Generator (Lite mode) build 49521"
   439                           
   440                           opt pagewidth 120
   441                           
   442  0816  341A               	retlw	01Ah
   443  0817  3400               	retlw	0
   444                           opt subtitle "HI-TECH Software Omniscient Code Generator (Lite mode) build 49521"
   445                           
   446                           opt pagewidth 120
   447                           
   448  0818  3401               	retlw	01h
   449                           opt subtitle "HI-TECH Software Omniscient Code Generator (Lite mode) build 49521"
   450                           
   451  15CB                     __pidataBANK0:
   452                           opt subtitle "HI-TECH Software Omniscient Code Generator (Lite mode) build 49521"
   453                           
   454                           opt pagewidth 120
   455  15CB  3400               	retlw	0x0
   456  15CC  3420               	retlw	0x20
   457  15CD  3441               	retlw	0x41
   458                           opt subtitle "HI-TECH Software Omniscient Code Generator (Lite mode) build 49521"
   459                           
   460                           opt pagewidth 120
   461                           
   462  15CE  3400               	retlw	0
   463  15CF  3400               	retlw	0
   464  15D0  3400               	retlw	0
   465  15D1  3400               	retlw	0
   466  15D2  3400               	retlw	0
   467  15D3  34AA               	retlw	0AAh
   468  15D4  34AA               	retlw	0AAh
   469  15D5  34AA               	retlw	0AAh
   470  15D6  34AA               	retlw	0AAh
   471  15D7  3400               	retlw	0
   472                           opt subtitle "HI-TECH Software Omniscient Code Generator (Lite mode) build 49521"
   473                           
   474                           opt pagewidth 120
   475  0700                     __pstringtext:
   476                           opt subtitle "HI-TECH Software Omniscient Code Generator (Lite mode) build 49521"
   477  0700                     stringtab:
   478                           opt subtitle "HI-TECH Software Omniscient Code Generator (Lite mode) build 49521"
   479  0700                     __stringtab:
   480                           opt subtitle "HI-TECH Software Omniscient Code Generator (Lite mode) build 49521"
   481  0700  1BFF               	btfsc	(btemp+1),7
   482  0701  2F0A               	ljmp	stringcode
   483  0702  1383               	bcf	status,7
   484  0703  187F               	btfsc	(btemp+1),0
   485  0704  1783               	bsf	status,7
   486  0705  0800               	movf	indf,w
   487  0706  0A84               	incf fsr
   488  0707  1903               skipnz
   489  0708  0AFF               incf btemp+1
   490  0709  0008               	return
   491  070A                     stringcode:
   492  070A  087F               	movf btemp+1,w
   493  070B  397F               andlw 7Fh
   494  070C  008A               movwf	pclath
   495  070D  0804               	movf	fsr,w
   496  070E  0A84               incf fsr
   497  070F  1903               skipnz
   498  0710  0AFF               incf btemp+1
   499  0711  0082               	movwf pc
   500  0712                     __stringbase:
   501                           opt subtitle "HI-TECH Software Omniscient Code Generator (Lite mode) build 49521"
   502  0712                     __end_of__stringtab:
   503                           opt subtitle "HI-TECH Software Omniscient Code Generator (Lite mode) build 49521"
   504                           
   505  0712                     _Bank1_Reg0_13:
   506  0712  3440               	retlw	040h
   507  0713  344B               	retlw	04Bh
   508  0714  3401               	retlw	01h
   509  0715  34E2               	retlw	0E2h
   510                           opt subtitle "HI-TECH Software Omniscient Code Generator (Lite mode) build 49521"
   511  0716  34C0               	retlw	0C0h
   512  0717  344B               	retlw	04Bh
   513  0718  3400               	retlw	0
   514  0719  3400               	retlw	0
   515                           opt subtitle "HI-TECH Software Omniscient Code Generator (Lite mode) build 49521"
   516  071A  34D0               	retlw	0D0h
   517  071B  34FC               	retlw	0FCh
   518  071C  348C               	retlw	08Ch
   519  071D  3402               	retlw	02h
   520                           opt subtitle "HI-TECH Software Omniscient Code Generator (Lite mode) build 49521"
   521  071E  3499               	retlw	099h
   522  071F  3400               	retlw	0
   523  0720  3439               	retlw	039h
   524  0721  3441               	retlw	041h
   525                           opt subtitle "HI-TECH Software Omniscient Code Generator (Lite mode) build 49521"
   526  0722  34F9               	retlw	0F9h
   527  0723  349E               	retlw	09Eh
   528  0724  3486               	retlw	086h
   529  0725  340B               	retlw	0Bh
   530                           opt subtitle "HI-TECH Software Omniscient Code Generator (Lite mode) build 49521"
   531  0726  3424               	retlw	024h
   532  0727  3406               	retlw	06h
   533  0728  347F               	retlw	07Fh
   534  0729  34A6               	retlw	0A6h
   535                           opt subtitle "HI-TECH Software Omniscient Code Generator (Lite mode) build 49521"
   536  072A  3400               	retlw	0
   537  072B  3400               	retlw	0
   538  072C  3400               	retlw	0
   539  072D  3400               	retlw	0
   540                           opt subtitle "HI-TECH Software Omniscient Code Generator (Lite mode) build 49521"
   541  072E  3400               	retlw	0
   542  072F  3400               	retlw	0
   543  0730  3400               	retlw	0
   544  0731  3400               	retlw	0
   545                           opt subtitle "HI-TECH Software Omniscient Code Generator (Lite mode) build 49521"
   546  0732  3400               	retlw	0
   547  0733  3400               	retlw	0
   548  0734  3400               	retlw	0
   549  0735  3400               	retlw	0
   550                           opt subtitle "HI-TECH Software Omniscient Code Generator (Lite mode) build 49521"
   551  0736  3400               	retlw	0
   552  0737  3400               	retlw	0
   553  0738  3400               	retlw	0
   554  0739  3400               	retlw	0
   555                           opt subtitle "HI-TECH Software Omniscient Code Generator (Lite mode) build 49521"
   556  073A  3400               	retlw	0
   557  073B  3400               	retlw	0
   558  073C  3400               	retlw	0
   559  073D  3400               	retlw	0
   560                           opt subtitle "HI-TECH Software Omniscient Code Generator (Lite mode) build 49521"
   561  073E  3400               	retlw	0
   562  073F  3400               	retlw	0
   563  0740  3400               	retlw	0
   564  0741  3400               	retlw	0
   565                           opt subtitle "HI-TECH Software Omniscient Code Generator (Lite mode) build 49521"
   566  0742  3400               	retlw	0
   567  0743  3473               	retlw	073h
   568  0744  3412               	retlw	012h
   569  0745  3400               	retlw	0
   570                           opt subtitle "HI-TECH Software Omniscient Code Generator (Lite mode) build 49521"
   571  0746  3400               	retlw	0
   572  0747  3480               	retlw	080h
   573  0748  34B4               	retlw	0B4h
   574  0749  3436               	retlw	036h
   575                           opt subtitle "HI-TECH Software Omniscient Code Generator (Lite mode) build 49521"
   576                           
   577  074A                     __end_of_Bank1_Reg0_13:
   578                           opt subtitle "HI-TECH Software Omniscient Code Generator (Lite mode) build 49521"
   579                           
   580                           opt pagewidth 120
   581                           
   582  074A                     _Bank0_Reg:
   583  074A  3400               	retlw	0
   584  074B  340F               	retlw	0Fh
   585  074C  3401               	retlw	01h
   586  074D  343F               	retlw	03Fh
   587  074E  3402               	retlw	02h
   588  074F  343F               	retlw	03Fh
   589  0750  3403               	retlw	03h
   590  0751  3403               	retlw	03h
   591  0752  3404               	retlw	04h
   592  0753  34FF               	retlw	0FFh
   593  0754  3405               	retlw	05h
   594  0755  3417               	retlw	017h
   595  0756  3406               	retlw	06h
   596  0757  3401               	retlw	01h
   597  0758  3407               	retlw	07h
   598  0759  3407               	retlw	07h
   599  075A  3408               	retlw	08h
   600  075B  3400               	retlw	0
   601  075C  3409               	retlw	09h
   602  075D  3400               	retlw	0
   603  075E  340C               	retlw	0Ch
   604  075F  34C3               	retlw	0C3h
   605  0760  340D               	retlw	0Dh
   606  0761  34C4               	retlw	0C4h
   607  0762  340E               	retlw	0Eh
   608  0763  34C5               	retlw	0C5h
   609  0764  340F               	retlw	0Fh
   610  0765  34C6               	retlw	0C6h
   611  0766  3411               	retlw	011h
   612  0767  3420               	retlw	020h
   613  0768  3412               	retlw	012h
   614  0769  3420               	retlw	020h
   615  076A  3413               	retlw	013h
   616  076B  3420               	retlw	020h
   617  076C  3414               	retlw	014h
   618  076D  3420               	retlw	020h
   619  076E  3415               	retlw	015h
   620  076F  3420               	retlw	020h
   621  0770  3416               	retlw	016h
   622  0771  3420               	retlw	020h
   623  0772  3417               	retlw	017h
   624  0773  3400               	retlw	0
   625  0774  341C               	retlw	01Ch
   626  0775  343F               	retlw	03Fh
   627  0776  341D               	retlw	01Dh
   628  0777  3407               	retlw	07h
   629                           opt subtitle "HI-TECH Software Omniscient Code Generator (Lite mode) build 49521"
   630  0778                     __end_of_Bank0_Reg:
   631                           opt subtitle "HI-TECH Software Omniscient Code Generator (Lite mode) build 49521"
   632                           
   633                           opt pagewidth 120
   634                           
   635  0778                     _Bank1_Reg14:
   636  0778  3441               	retlw	041h
   637  0779  3420               	retlw	020h
   638  077A  3408               	retlw	08h
   639  077B  3404               	retlw	04h
   640  077C  3481               	retlw	081h
   641  077D  3420               	retlw	020h
   642  077E  34CF               	retlw	0CFh
   643  077F  34F7               	retlw	0F7h
   644  0780  34FE               	retlw	0FEh
   645  0781  34FF               	retlw	0FFh
   646  0782  34FF               	retlw	0FFh
   647                           opt subtitle "HI-TECH Software Omniscient Code Generator (Lite mode) build 49521"
   648  0783                     __end_of_Bank1_Reg14:
   649                           opt subtitle "HI-TECH Software Omniscient Code Generator (Lite mode) build 49521"
   650                           
   651                           opt pagewidth 120
   652                           
   653  0783                     _dpowers:
   654  0783  3401               	retlw	01h
   655  0784  3400               	retlw	0
   656                           opt subtitle "HI-TECH Software Omniscient Code Generator (Lite mode) build 49521"
   657  0785  340A               	retlw	0Ah
   658  0786  3400               	retlw	0
   659                           opt subtitle "HI-TECH Software Omniscient Code Generator (Lite mode) build 49521"
   660  0787  3464               	retlw	064h
   661  0788  3400               	retlw	0
   662                           opt subtitle "HI-TECH Software Omniscient Code Generator (Lite mode) build 49521"
   663  0789  34E8               	retlw	0E8h
   664  078A  3403               	retlw	03h
   665                           opt subtitle "HI-TECH Software Omniscient Code Generator (Lite mode) build 49521"
   666  078B  3410               	retlw	010h
   667  078C  3427               	retlw	027h
   668                           opt subtitle "HI-TECH Software Omniscient Code Generator (Lite mode) build 49521"
   669                           
   670  078D                     __end_of_dpowers:
   671                           opt subtitle "HI-TECH Software Omniscient Code Generator (Lite mode) build 49521"
   672                           
   673                           opt pagewidth 120
   674                           
   675  078D                     _hexpowers:
   676  078D  3401               	retlw	01h
   677  078E  3400               	retlw	0
   678                           opt subtitle "HI-TECH Software Omniscient Code Generator (Lite mode) build 49521"
   679  078F  3410               	retlw	010h
   680  0790  3400               	retlw	0
   681                           opt subtitle "HI-TECH Software Omniscient Code Generator (Lite mode) build 49521"
   682  0791  3400               	retlw	0
   683  0792  3401               	retlw	01h
   684                           opt subtitle "HI-TECH Software Omniscient Code Generator (Lite mode) build 49521"
   685  0793  3400               	retlw	0
   686  0794  3410               	retlw	010h
   687                           opt subtitle "HI-TECH Software Omniscient Code Generator (Lite mode) build 49521"
   688                           
   689  0795                     __end_of_hexpowers:
   690                           opt subtitle "HI-TECH Software Omniscient Code Generator (Lite mode) build 49521"
   691                           
   692                           opt pagewidth 120
   693                           
   694  0795                     _RX0_Address:
   695  0795  3434               	retlw	034h
   696  0796  3443               	retlw	043h
   697  0797  3410               	retlw	010h
   698  0798  3410               	retlw	010h
   699  0799  3401               	retlw	01h
   700                           opt subtitle "HI-TECH Software Omniscient Code Generator (Lite mode) build 49521"
   701  079A                     __end_of_RX0_Address:
   702                           opt subtitle "HI-TECH Software Omniscient Code Generator (Lite mode) build 49521"
   703                           
   704                           opt pagewidth 120
   705                           
   706  079A                     _RX1_Address:
   707  079A  3439               	retlw	039h
   708  079B  3438               	retlw	038h
   709  079C  3437               	retlw	037h
   710  079D  3436               	retlw	036h
   711  079E  34C2               	retlw	0C2h
   712                           opt subtitle "HI-TECH Software Omniscient Code Generator (Lite mode) build 49521"
   713  079F                     __end_of_RX1_Address:
   714                           opt subtitle "HI-TECH Software Omniscient Code Generator (Lite mode) build 49521"
   715                           
   716                           opt pagewidth 120
   717  079F                     _Bank0_RegAct:
   718  079F  341C               	retlw	01Ch
   719  07A0  343F               	retlw	03Fh
   720  07A1  341D               	retlw	01Dh
   721  07A2  3407               	retlw	07h
   722                           opt subtitle "HI-TECH Software Omniscient Code Generator (Lite mode) build 49521"
   723  07A3                     __end_of_Bank0_RegAct:
   724                           opt subtitle "HI-TECH Software Omniscient Code Generator (Lite mode) build 49521"
   725                           
   726                           opt pagewidth 120
   727                           
   728                           	opt lm
   729                           
   730                           	processor	16LF707
   731                           clrc	macro
   732                           	bcf	3,0
   733                           	endm
   734                           clrz	macro
   735                           	bcf	3,2
   736                           	endm
   737                           setc	macro
   738                           	bsf	3,0
   739                           	endm
   740                           setz	macro
   741                           	bsf	3,2
   742                           	endm
   743  001F                     _ADCON0bits	set	0x1F
   744                           opt subtitle "HI-TECH Software Omniscient Code Generator (Lite mode) build 49521"
   745  001E                     _ADRES	set	0x1E
   746                           opt subtitle "HI-TECH Software Omniscient Code Generator (Lite mode) build 49521"
   747  000C                     _PIR1bits	set	0xC
   748                           opt subtitle "HI-TECH Software Omniscient Code Generator (Lite mode) build 49521"
   749  0005                     _PORTAbits	set	0x5
   750                           opt subtitle "HI-TECH Software Omniscient Code Generator (Lite mode) build 49521"
   751  0006                     _PORTBbits	set	0x6
   752                           opt subtitle "HI-TECH Software Omniscient Code Generator (Lite mode) build 49521"
   753  0007                     _PORTCbits	set	0x7
   754                           opt subtitle "HI-TECH Software Omniscient Code Generator (Lite mode) build 49521"
   755  0008                     _PORTD	set	0x8
   756                           opt subtitle "HI-TECH Software Omniscient Code Generator (Lite mode) build 49521"
   757  0008                     _PORTDbits	set	0x8
   758                           opt subtitle "HI-TECH Software Omniscient Code Generator (Lite mode) build 49521"
   759  0009                     _PORTEbits	set	0x9
   760                           opt subtitle "HI-TECH Software Omniscient Code Generator (Lite mode) build 49521"
   761  001A                     _RCREG	set	0x1A
   762                           opt subtitle "HI-TECH Software Omniscient Code Generator (Lite mode) build 49521"
   763  0018                     _RCSTA	set	0x18
   764                           opt subtitle "HI-TECH Software Omniscient Code Generator (Lite mode) build 49521"
   765  0018                     _RCSTAbits	set	0x18
   766                           opt subtitle "HI-TECH Software Omniscient Code Generator (Lite mode) build 49521"
   767  0013                     _SSPBUF	set	0x13
   768                           opt subtitle "HI-TECH Software Omniscient Code Generator (Lite mode) build 49521"
   769  0014                     _SSPCONbits	set	0x14
   770                           opt subtitle "HI-TECH Software Omniscient Code Generator (Lite mode) build 49521"
   771  0010                     _T1CONbits	set	0x10
   772                           opt subtitle "HI-TECH Software Omniscient Code Generator (Lite mode) build 49521"
   773  000F                     _TMR1H	set	0xF
   774                           opt subtitle "HI-TECH Software Omniscient Code Generator (Lite mode) build 49521"
   775  000E                     _TMR1L	set	0xE
   776                           opt subtitle "HI-TECH Software Omniscient Code Generator (Lite mode) build 49521"
   777  0019                     _TXREG	set	0x19
   778                           opt subtitle "HI-TECH Software Omniscient Code Generator (Lite mode) build 49521"
   779  005F                     _GIE	set	0x5F
   780                           opt subtitle "HI-TECH Software Omniscient Code Generator (Lite mode) build 49521"
   781  005E                     _PEIE	set	0x5E
   782                           opt subtitle "HI-TECH Software Omniscient Code Generator (Lite mode) build 49521"
   783  0065                     _RCIF	set	0x65
   784                           opt subtitle "HI-TECH Software Omniscient Code Generator (Lite mode) build 49521"
   785  0060                     _TMR1IF	set	0x60
   786                           opt subtitle "HI-TECH Software Omniscient Code Generator (Lite mode) build 49521"
   787  0064                     _TXIF	set	0x64
   788                           opt subtitle "HI-TECH Software Omniscient Code Generator (Lite mode) build 49521"
   789  009F                     _ADCON1bits	set	0x9F
   790                           opt subtitle "HI-TECH Software Omniscient Code Generator (Lite mode) build 49521"
   791  009D                     _FVRCONbits	set	0x9D
   792                           opt subtitle "HI-TECH Software Omniscient Code Generator (Lite mode) build 49521"
   793  0090                     _OSCCONbits	set	0x90
   794                           opt subtitle "HI-TECH Software Omniscient Code Generator (Lite mode) build 49521"
   795  0099                     _SPBRG	set	0x99
   796                           opt subtitle "HI-TECH Software Omniscient Code Generator (Lite mode) build 49521"
   797  0094                     _SSPSTATbits	set	0x94
   798                           opt subtitle "HI-TECH Software Omniscient Code Generator (Lite mode) build 49521"
   799  008F                     _T1GCONbits	set	0x8F
   800                           opt subtitle "HI-TECH Software Omniscient Code Generator (Lite mode) build 49521"
   801  0085                     _TRISAbits	set	0x85
   802                           opt subtitle "HI-TECH Software Omniscient Code Generator (Lite mode) build 49521"
   803  0086                     _TRISBbits	set	0x86
   804                           opt subtitle "HI-TECH Software Omniscient Code Generator (Lite mode) build 49521"
   805  0087                     _TRISCbits	set	0x87
   806                           opt subtitle "HI-TECH Software Omniscient Code Generator (Lite mode) build 49521"
   807  0088                     _TRISDbits	set	0x88
   808                           opt subtitle "HI-TECH Software Omniscient Code Generator (Lite mode) build 49521"
   809  0089                     _TRISEbits	set	0x89
   810                           opt subtitle "HI-TECH Software Omniscient Code Generator (Lite mode) build 49521"
   811  0098                     _TXSTA	set	0x98
   812                           opt subtitle "HI-TECH Software Omniscient Code Generator (Lite mode) build 49521"
   813  0098                     _TXSTAbits	set	0x98
   814                           opt subtitle "HI-TECH Software Omniscient Code Generator (Lite mode) build 49521"
   815  0460                     _TMR1IE	set	0x460
   816                           opt subtitle "HI-TECH Software Omniscient Code Generator (Lite mode) build 49521"
   817  0113                     _DACCON0	set	0x113
   818                           opt subtitle "HI-TECH Software Omniscient Code Generator (Lite mode) build 49521"
   819  0114                     _DACCON1	set	0x114
   820                           opt subtitle "HI-TECH Software Omniscient Code Generator (Lite mode) build 49521"
   821  0185                     _ANSELAbits	set	0x185
   822                           opt subtitle "HI-TECH Software Omniscient Code Generator (Lite mode) build 49521"
   823  0186                     _ANSELBbits	set	0x186
   824                           opt subtitle "HI-TECH Software Omniscient Code Generator (Lite mode) build 49521"
   825  0187                     _ANSELCbits	set	0x187
   826                           opt subtitle "HI-TECH Software Omniscient Code Generator (Lite mode) build 49521"
   827  0188                     _ANSELDbits	set	0x188
   828                           opt subtitle "HI-TECH Software Omniscient Code Generator (Lite mode) build 49521"
   829  0189                     _ANSELEbits	set	0x189
   830                           opt subtitle "HI-TECH Software Omniscient Code Generator (Lite mode) build 49521"
   831  07A3                     __stringdata:
   832                           opt subtitle "HI-TECH Software Omniscient Code Generator (Lite mode) build 49521"
   833  07A3                     STR_1:	
   834  07A3  3456               	retlw	86	;'V'
   835  07A4  3453               	retlw	83	;'S'
   836  07A5  3474               	retlw	116	;'t'
   837  07A6  346F               	retlw	111	;'o'
   838  07A7  3472               	retlw	114	;'r'
   839  07A8  3461               	retlw	97	;'a'
   840  07A9  3467               	retlw	103	;'g'
   841  07AA  3465               	retlw	101	;'e'
   842  07AB  343A               	retlw	58	;':'
   843  07AC  3420               	retlw	32	;' '
   844  07AD  3425               	retlw	37	;'%'
   845  07AE  3464               	retlw	100	;'d'
   846  07AF  3420               	retlw	32	;' '
   847  07B0  3420               	retlw	32	;' '
   848  07B1  343D               	retlw	61	;'='
   849  07B2  343E               	retlw	62	;'>'
   850  07B3  3420               	retlw	32	;' '
   851  07B4  346E               	retlw	110	;'n'
   852  07B5  346F               	retlw	111	;'o'
   853  07B6  3474               	retlw	116	;'t'
   854  07B7  3420               	retlw	32	;' '
   855  07B8  344F               	retlw	79	;'O'
   856  07B9  344B               	retlw	75	;'K'
   857  07BA  340D               	retlw	13
   858  07BB  340A               	retlw	10
   859  07BC  3400               	retlw	0
   860                           opt subtitle "HI-TECH Software Omniscient Code Generator (Lite mode) build 49521"
   861                           
   862  07BD                     STR_6:	
   863  07BD  344E               	retlw	78	;'N'
   864  07BE  346F               	retlw	111	;'o'
   865  07BF  3420               	retlw	32	;' '
   866  07C0  3464               	retlw	100	;'d'
   867  07C1  3461               	retlw	97	;'a'
   868  07C2  3474               	retlw	116	;'t'
   869  07C3  3461               	retlw	97	;'a'
   870  07C4  3420               	retlw	32	;' '
   871  07C5  3473               	retlw	115	;'s'
   872  07C6  3465               	retlw	101	;'e'
   873  07C7  346E               	retlw	110	;'n'
   874  07C8  3474               	retlw	116	;'t'
   875  07C9  343A               	retlw	58	;':'
   876  07CA  3420               	retlw	32	;' '
   877  07CB  3445               	retlw	69	;'E'
   878  07CC  3452               	retlw	82	;'R'
   879  07CD  3452               	retlw	82	;'R'
   880  07CE  344F               	retlw	79	;'O'
   881  07CF  3452               	retlw	82	;'R'
   882  07D0  3420               	retlw	32	;' '
   883  07D1  340D               	retlw	13
   884  07D2  340A               	retlw	10
   885  07D3  3420               	retlw	32	;' '
   886  07D4  3400               	retlw	0
   887                           opt subtitle "HI-TECH Software Omniscient Code Generator (Lite mode) build 49521"
   888                           
   889  07D5                     STR_10:	
   890  07D5  3430               	retlw	48	;'0'
   891  07D6  3431               	retlw	49	;'1'
   892  07D7  3432               	retlw	50	;'2'
   893  07D8  3433               	retlw	51	;'3'
   894  07D9  3434               	retlw	52	;'4'
   895  07DA  3435               	retlw	53	;'5'
   896  07DB  3436               	retlw	54	;'6'
   897  07DC  3437               	retlw	55	;'7'
   898  07DD  3438               	retlw	56	;'8'
   899  07DE  3439               	retlw	57	;'9'
   900  07DF  3441               	retlw	65	;'A'
   901  07E0  3442               	retlw	66	;'B'
   902  07E1  3443               	retlw	67	;'C'
   903  07E2  3444               	retlw	68	;'D'
   904  07E3  3445               	retlw	69	;'E'
   905  07E4  3446               	retlw	70	;'F'
   906  07E5  3400               	retlw	0
   907                           opt subtitle "HI-TECH Software Omniscient Code Generator (Lite mode) build 49521"
   908                           
   909  07E6                     STR_5:	
   910  07E6  3444               	retlw	68	;'D'
   911  07E7  3461               	retlw	97	;'a'
   912  07E8  3474               	retlw	116	;'t'
   913  07E9  3461               	retlw	97	;'a'
   914  07EA  3420               	retlw	32	;' '
   915  07EB  3473               	retlw	115	;'s'
   916  07EC  3465               	retlw	101	;'e'
   917  07ED  346E               	retlw	110	;'n'
   918  07EE  3474               	retlw	116	;'t'
   919  07EF  343A               	retlw	58	;':'
   920  07F0  3420               	retlw	32	;' '
   921  07F1  344F               	retlw	79	;'O'
   922  07F2  344B               	retlw	75	;'K'
   923  07F3  3420               	retlw	32	;' '
   924  07F4  340D               	retlw	13
   925  07F5  340A               	retlw	10
   926  07F6  3400               	retlw	0
   927                           opt subtitle "HI-TECH Software Omniscient Code Generator (Lite mode) build 49521"
   928                           
   929  07F7                     STR_8:	
   930  07F7  3452               	retlw	82	;'R'
   931  07F8  3465               	retlw	101	;'e'
   932  07F9  3463               	retlw	99	;'c'
   933  07FA  3465               	retlw	101	;'e'
   934  07FB  3469               	retlw	105	;'i'
   935  07FC  3476               	retlw	118	;'v'
   936  07FD  3469               	retlw	105	;'i'
   937  07FE  346E               	retlw	110	;'n'
   938  07FF  3467               	retlw	103	;'g'
   939  0800  343A               	retlw	58	;':'
   940  0801  3420               	retlw	32	;' '
   941  0802  3400               	retlw	0
   942                           opt subtitle "HI-TECH Software Omniscient Code Generator (Lite mode) build 49521"
   943                           
   944  0803                     STR_2:	
   945  0803  3453               	retlw	83	;'S'
   946  0804  3465               	retlw	101	;'e'
   947  0805  346E               	retlw	110	;'n'
   948  0806  3464               	retlw	100	;'d'
   949  0807  3469               	retlw	105	;'i'
   950  0808  346E               	retlw	110	;'n'
   951  0809  3467               	retlw	103	;'g'
   952  080A  343A               	retlw	58	;':'
   953  080B  3420               	retlw	32	;' '
   954  080C  3400               	retlw	0
   955                           opt subtitle "HI-TECH Software Omniscient Code Generator (Lite mode) build 49521"
   956                           
   957  080D                     STR_7:	
   958  080D  340A               	retlw	10
   959  080E  340D               	retlw	13
   960  080F  340A               	retlw	10
   961  0810  340D               	retlw	13
   962  0811  3400               	retlw	0
   963                           opt subtitle "HI-TECH Software Omniscient Code Generator (Lite mode) build 49521"
   964                           
   965  0812                     STR_3:	
   966  0812  3425               	retlw	37	;'%'
   967  0813  3458               	retlw	88	;'X'
   968  0814  3400               	retlw	0
   969                           opt subtitle "HI-TECH Software Omniscient Code Generator (Lite mode) build 49521"
   970  080D                     STR_9	equ	STR_7+0
   971  080F                     STR_4	equ	STR_7+2
   972                           opt subtitle "HI-TECH Software Omniscient Code Generator (Lite mode) build 49521"
   973  0815                     __end_of__stringdata:
   974                           opt subtitle "HI-TECH Software Omniscient Code Generator (Lite mode) build 49521"
   975                           
   976  0000                     __CFG_BOREN$OFF equ 0x0
   977                           opt subtitle "HI-TECH Software Omniscient Code Generator (Lite mode) build 49521"
   978  0000                     __CFG_PLLEN$ON equ 0x0
   979                           opt subtitle "HI-TECH Software Omniscient Code Generator (Lite mode) build 49521"
   980  0000                     __CFG_FOSC$INTOSC equ 0x0
   981                           opt subtitle "HI-TECH Software Omniscient Code Generator (Lite mode) build 49521"
   982  0000                     __CFG_MCLRE$ON equ 0x0
   983                           opt subtitle "HI-TECH Software Omniscient Code Generator (Lite mode) build 49521"
   984  0000                     __CFG_WDTE$OFF equ 0x0
   985                           opt subtitle "HI-TECH Software Omniscient Code Generator (Lite mode) build 49521"
   986  0000                     __CFG_CP$OFF equ 0x0
   987                           opt subtitle "HI-TECH Software Omniscient Code Generator (Lite mode) build 49521"
   988  0000                     __CFG_PWRTE$OFF equ 0x0
   989                           opt subtitle "HI-TECH Software Omniscient Code Generator (Lite mode) build 49521"
   990                           
   991                           opt pagewidth 120
   992                           
   993  17CA                     start_initialization:
   994                           opt subtitle "HI-TECH Software Omniscient Code Generator (Lite mode) build 49521"
   995                           
   996  17CA                     __initialization:
   997                           opt subtitle "HI-TECH Software Omniscient Code Generator (Lite mode) build 49521"
   998                           
   999  03D8                     __pbitbssCOMMON:
  1000  03D8                     _flag:
  1001  03D8                            ds      1
  1002                           opt subtitle "HI-TECH Software Omniscient Code Generator (Lite mode) build 49521"
  1003  03D9                     _scap_on:
  1004  03D9                            ds      1
  1005                           opt subtitle "HI-TECH Software Omniscient Code Generator (Lite mode) build 49521"
  1006                           
  1007                           opt pagewidth 120
  1008  007C                     __pbssCOMMON:
  1009  007C                     _tmr1Counter:
  1010  007C                            ds      1
  1011                           opt subtitle "HI-TECH Software Omniscient Code Generator (Lite mode) build 49521"
  1012                           
  1013                           opt pagewidth 120
  1014  0078                     __pdataCOMMON:
  1015                           opt subtitle "HI-TECH Software Omniscient Code Generator (Lite mode) build 49521"
  1016                           
  1017  0078                     _dac_value:
  1018  0078                            ds      2
  1019                           opt subtitle "HI-TECH Software Omniscient Code Generator (Lite mode) build 49521"
  1020                           
  1021                           opt pagewidth 120
  1022                           
  1023  007A                     _tmr1Target:
  1024  007A                            ds      1
  1025                           opt subtitle "HI-TECH Software Omniscient Code Generator (Lite mode) build 49521"
  1026                           
  1027                           opt pagewidth 120
  1028  0053                     __pbssBANK0:
  1029  0053                     _charge_pulse:
  1030  0053                            ds      2
  1031                           opt subtitle "HI-TECH Software Omniscient Code Generator (Lite mode) build 49521"
  1032  0055                     _charge_time:
  1033  0055                            ds      2
  1034                           opt subtitle "HI-TECH Software Omniscient Code Generator (Lite mode) build 49521"
  1035  0057                     _energy:
  1036  0057                            ds      2
  1037                           opt subtitle "HI-TECH Software Omniscient Code Generator (Lite mode) build 49521"
  1038  0059                     _timelapse_count:
  1039  0059                            ds      2
  1040                           opt subtitle "HI-TECH Software Omniscient Code Generator (Lite mode) build 49521"
  1041  005B                     _values:
  1042  005B                            ds      2
  1043                           opt subtitle "HI-TECH Software Omniscient Code Generator (Lite mode) build 49521"
  1044  005D                     _jumper_stat:
  1045  005D                            ds      1
  1046                           opt subtitle "HI-TECH Software Omniscient Code Generator (Lite mode) build 49521"
  1047  005E                     _sleep_count:
  1048  005E                            ds      1
  1049                           opt subtitle "HI-TECH Software Omniscient Code Generator (Lite mode) build 49521"
  1050  005F                     _sleep_counter:
  1051  005F                            ds      1
  1052                           opt subtitle "HI-TECH Software Omniscient Code Generator (Lite mode) build 49521"
  1053  0060                     _value:
  1054  0060                            ds      1
  1055                           opt subtitle "HI-TECH Software Omniscient Code Generator (Lite mode) build 49521"
  1056                           
  1057                           opt pagewidth 120
  1058  0061                     __pdataBANK0:
  1059                           opt subtitle "HI-TECH Software Omniscient Code Generator (Lite mode) build 49521"
  1060                           
  1061  0061                     _charge_pulse_float:
  1062  0061                            ds      3
  1063                           opt subtitle "HI-TECH Software Omniscient Code Generator (Lite mode) build 49521"
  1064                           
  1065                           opt pagewidth 120
  1066                           
  1067  0064                     _tx_buf:
  1068  0064                            ds      10
  1069                           opt subtitle "HI-TECH Software Omniscient Code Generator (Lite mode) build 49521"
  1070                           
  1071                           opt pagewidth 120
  1072  00A0                     __pbssBANK1:
  1073  00A0                     _rx_buf:
  1074  00A0                            ds      32
  1075                           opt subtitle "HI-TECH Software Omniscient Code Generator (Lite mode) build 49521"
  1076                           
  1077                           opt pagewidth 120
  1078                           
  1079                           	opt lm
  1080  15AE                     clear_ram:
  1081  15AE  0064               	clrwdt			;clear the watchdog before getting into this loop
  1082  15AF                     clrloop:
  1083  15AF  0180               	clrf	indf		;clear RAM location pointed to by FSR
  1084  15B0  0A84               	incf	fsr,f		;increment pointer
  1085  15B1  0604               	xorwf	fsr,w		;XOR with final address
  1086  15B2  1903               	btfsc	status,2	;have we reached the end yet?
  1087  15B3  3400               	retlw	0		;all done for this memory range, return
  1088  15B4  0604               	xorwf	fsr,w		;XOR again to restore value
  1089  15B5  2DAF               	goto	clrloop		;do the next byte
  1090                           opt subtitle "HI-TECH Software Omniscient Code Generator (Lite mode) build 49521"
  1091                           
  1092                           opt pagewidth 120
  1093  17CA  01FB               	clrf	((__pbitbssCOMMON/8)+0)&07Fh
  1094                           opt subtitle "HI-TECH Software Omniscient Code Generator (Lite mode) build 49521"
  1095                           
  1096  17CB  01FC               	clrf	((__pbssCOMMON)+0)&07Fh
  1097                           opt subtitle "HI-TECH Software Omniscient Code Generator (Lite mode) build 49521"
  1098                           
  1099  17CC  1383               	bcf	status, 7	;select IRP bank0
  1100  17CD  3053               	movlw	low(__pbssBANK0)
  1101  17CE  0084               	movwf	fsr
  1102  17CF  3061               	movlw	low((__pbssBANK0)+0Eh)
  1103  17D0  160A  118A  25AE   	fcall	clear_ram
              160A  118A         
  1104                           opt subtitle "HI-TECH Software Omniscient Code Generator (Lite mode) build 49521"
  1105                           
  1106  17D5  30A0               	movlw	low(__pbssBANK1)
  1107  17D6  0084               	movwf	fsr
  1108  17D7  30C0               	movlw	low((__pbssBANK1)+020h)
  1109  17D8  160A  118A  25AE   	fcall	clear_ram
              160A  118A         
  1110                           opt subtitle "HI-TECH Software Omniscient Code Generator (Lite mode) build 49521"
  1111                           
  1112                           opt pagewidth 120
  1113                           
  1114  15D8                     init_fetch:
  1115  15D8  087E               	movf btemp,w
  1116  15D9  008A               	movwf pclath
  1117  15DA  087F               	movf btemp+1,w
  1118  15DB  0082               	movwf pc
  1119                           opt subtitle "HI-TECH Software Omniscient Code Generator (Lite mode) build 49521"
  1120                           
  1121                           opt pagewidth 120
  1122                           
  1123                           	opt lm
  1124                           
  1125  15DC                     init_ram:
  1126  15DC  160A  118A  25D8   	fcall init_fetch
              160A  118A         
  1127  15E1  0080               	movwf indf,f
  1128  15E2  0A84               	incf fsr,f
  1129  15E3  0804               	movf fsr,w
  1130  15E4  067D               	xorwf btemp-1,w
  1131  15E5  1903               	btfsc status,2
  1132  15E6  3400               	retlw 0
  1133  15E7  0AFF               	incf btemp+1,f
  1134  15E8  1903               	btfsc status,2
  1135  15E9  0AFE               	incf btemp,f
  1136  15EA  2DDC               	goto init_ram
  1137                           opt subtitle "HI-TECH Software Omniscient Code Generator (Lite mode) build 49521"
  1138                           
  1139                           opt pagewidth 120
  1140  17DD  306E               	movlw low(__pdataBANK0+13)
  1141  17DE  00FD               	movwf btemp-1,f
  1142  17DF  3015               	movlw high(__pidataBANK0)
  1143  17E0  00FE               	movwf btemp,f
  1144  17E1  30CB               	movlw low(__pidataBANK0)
  1145  17E2  00FF               	movwf btemp+1,f
  1146  17E3  3061               	movlw low(__pdataBANK0)
  1147  17E4  0084               	movwf fsr,f
  1148  17E5  160A  118A  25DC   	fcall init_ram
              160A  118A         
  1149                           opt subtitle "HI-TECH Software Omniscient Code Generator (Lite mode) build 49521"
  1150                           
  1151                           opt pagewidth 120
  1152  17EA  120A  158A  2016   	fcall	__pidataCOMMON+0		;fetch initializer
              160A  118A         
  1153  17EF  00F8               	movwf	__pdataCOMMON+0&07fh		
  1154  17F0  120A  158A  2017   	fcall	__pidataCOMMON+1		;fetch initializer
              160A  118A         
  1155  17F5  00F9               	movwf	__pdataCOMMON+1&07fh		
  1156  17F6  120A  158A  2018   	fcall	__pidataCOMMON+2		;fetch initializer
              160A  118A         
  1157  17FB  00FA               	movwf	__pdataCOMMON+2&07fh		
  1158                           opt subtitle "HI-TECH Software Omniscient Code Generator (Lite mode) build 49521"
  1159                           
  1160                           opt pagewidth 120
  1161                           
  1162                           	opt lm
  1163  17FC                     end_of_initialization:
  1164  17FC                     __end_of__initialization:clrf status
      + 17FC  0183               	clrf	3
  1165  17FD  120A  118A  2B25   ljmp _main	;jump to C main() function
  1166                           opt subtitle "HI-TECH Software Omniscient Code Generator (Lite mode) build 49521"
  1167                           
  1168  0070                     __pcstackCOMMON:
  1169  0070                     ?_boardInit:	; 0 bytes @ 0x0
  1170  0070                     ?_spiInit:	; 0 bytes @ 0x0
  1171  0070                     ?_uartInit:	; 0 bytes @ 0x0
  1172  0070                     ?_adcInit:	; 0 bytes @ 0x0
  1173  0070                     ?_rfm70setPowerdownMode:	; 0 bytes @ 0x0
  1174  0070                     ?_RFM70_Initialize:	; 0 bytes @ 0x0
  1175  0070                     ?_sleep:	; 0 bytes @ 0x0
  1176  0070                     ?_SwitchToTxMode:	; 0 bytes @ 0x0
  1177  0070                     ?_SwitchToRxMode:	; 0 bytes @ 0x0
  1178  0070                     ?_ISR:	; 0 bytes @ 0x0
  1179  0070                     ??_ISR:	; 0 bytes @ 0x0
  1180  0070                     ?_putch:	; 0 bytes @ 0x0
  1181  0070                     ?_SwitchCFG:	; 0 bytes @ 0x0
  1182  0070                     ?_adcReadVcap:	; 1 bytes @ 0x0
  1183  0070                     ?_adcReadVsupercap:	; 1 bytes @ 0x0
  1184  0070                     ?_adcReadTemp:	; 1 bytes @ 0x0
  1185  0070                     ?_SPI_Read_Reg:	; 1 bytes @ 0x0
  1186  0070                     ?_rfm70TxDataSentInterrupt:	; 1 bytes @ 0x0
  1187  0070                     ?_rfm70TxDataSentErrorInterrupt:	; 1 bytes @ 0x0
  1188  0070                     ?_SPI_RW:	; 1 bytes @ 0x0
  1189  0070                     	ds	8
  1190                           opt subtitle "HI-TECH Software Omniscient Code Generator (Lite mode) build 49521"
  1191                           
  1192  0020                     __pcstackBANK0:
  1193  0020                     ??_boardInit:	; 0 bytes @ 0x0
  1194  0020                     ??_spiInit:	; 0 bytes @ 0x0
  1195  0020                     ??_uartInit:	; 0 bytes @ 0x0
  1196  0020                     ??_adcInit:	; 0 bytes @ 0x0
  1197  0020                     ??_adcReadVcap:	; 0 bytes @ 0x0
  1198  0020                     ??_adcReadVsupercap:	; 0 bytes @ 0x0
  1199  0020                     ??_adcReadTemp:	; 0 bytes @ 0x0
  1200  0020                     ??_putch:	; 0 bytes @ 0x0
  1201  0020                     ??_SPI_RW:	; 0 bytes @ 0x0
  1202                           opt subtitle "HI-TECH Software Omniscient Code Generator (Lite mode) build 49521"
  1203  0020                     ?___wmul:	; 2 bytes @ 0x0
  1204                           opt subtitle "HI-TECH Software Omniscient Code Generator (Lite mode) build 49521"
  1205  0020                     ?___lwdiv:	; 2 bytes @ 0x0
  1206                           opt subtitle "HI-TECH Software Omniscient Code Generator (Lite mode) build 49521"
  1207  0020                     ?___ftpack:	; 3 bytes @ 0x0
  1208                           opt subtitle "HI-TECH Software Omniscient Code Generator (Lite mode) build 49521"
  1209  0020                     ?___fttol:	; 4 bytes @ 0x0
  1210                           opt subtitle "HI-TECH Software Omniscient Code Generator (Lite mode) build 49521"
  1211  0020                     putch@c:	; 1 bytes @ 0x0
  1212                           opt subtitle "HI-TECH Software Omniscient Code Generator (Lite mode) build 49521"
  1213  0020                     ___wmul@multiplier:	; 2 bytes @ 0x0
  1214                           opt subtitle "HI-TECH Software Omniscient Code Generator (Lite mode) build 49521"
  1215  0020                     ___lwdiv@divisor:	; 2 bytes @ 0x0
  1216                           opt subtitle "HI-TECH Software Omniscient Code Generator (Lite mode) build 49521"
  1217  0020                     ___fttol@f1:	; 3 bytes @ 0x0
  1218                           opt subtitle "HI-TECH Software Omniscient Code Generator (Lite mode) build 49521"
  1219  0020                     ___ftpack@arg:	; 3 bytes @ 0x0
  1220  0020                     	ds	2
  1221                           opt subtitle "HI-TECH Software Omniscient Code Generator (Lite mode) build 49521"
  1222  0022                     adcReadTemp@value:	; 1 bytes @ 0x2
  1223                           opt subtitle "HI-TECH Software Omniscient Code Generator (Lite mode) build 49521"
  1224  0022                     adcReadVcap@value:	; 1 bytes @ 0x2
  1225                           opt subtitle "HI-TECH Software Omniscient Code Generator (Lite mode) build 49521"
  1226  0022                     adcReadVsupercap@value:	; 1 bytes @ 0x2
  1227                           opt subtitle "HI-TECH Software Omniscient Code Generator (Lite mode) build 49521"
  1228  0022                     SPI_RW@value:	; 1 bytes @ 0x2
  1229                           opt subtitle "HI-TECH Software Omniscient Code Generator (Lite mode) build 49521"
  1230  0022                     ___wmul@multiplicand:	; 2 bytes @ 0x2
  1231                           opt subtitle "HI-TECH Software Omniscient Code Generator (Lite mode) build 49521"
  1232  0022                     ___lwdiv@dividend:	; 2 bytes @ 0x2
  1233  0022                     	ds	1
  1234  0023                     ??_SPI_Read_Reg:	; 0 bytes @ 0x3
  1235                           opt subtitle "HI-TECH Software Omniscient Code Generator (Lite mode) build 49521"
  1236  0023                     ?_SPI_Write_Buf:	; 0 bytes @ 0x3
  1237                           opt subtitle "HI-TECH Software Omniscient Code Generator (Lite mode) build 49521"
  1238  0023                     ?_SPI_Write_Reg:	; 0 bytes @ 0x3
  1239                           opt subtitle "HI-TECH Software Omniscient Code Generator (Lite mode) build 49521"
  1240  0023                     SPI_Write_Reg@value:	; 1 bytes @ 0x3
  1241                           opt subtitle "HI-TECH Software Omniscient Code Generator (Lite mode) build 49521"
  1242  0023                     SPI_Write_Buf@pBuf:	; 1 bytes @ 0x3
  1243                           opt subtitle "HI-TECH Software Omniscient Code Generator (Lite mode) build 49521"
  1244  0023                     ___ftpack@exp:	; 1 bytes @ 0x3
  1245  0023                     	ds	1
  1246  0024                     ??_SPI_Write_Reg:	; 0 bytes @ 0x4
  1247  0024                     ??___wmul:	; 0 bytes @ 0x4
  1248  0024                     ??___lwdiv:	; 0 bytes @ 0x4
  1249  0024                     ??___fttol:	; 0 bytes @ 0x4
  1250                           opt subtitle "HI-TECH Software Omniscient Code Generator (Lite mode) build 49521"
  1251  0024                     SPI_Write_Reg@reg:	; 1 bytes @ 0x4
  1252                           opt subtitle "HI-TECH Software Omniscient Code Generator (Lite mode) build 49521"
  1253  0024                     SPI_Read_Reg@reg:	; 1 bytes @ 0x4
  1254                           opt subtitle "HI-TECH Software Omniscient Code Generator (Lite mode) build 49521"
  1255  0024                     SPI_Write_Buf@length:	; 1 bytes @ 0x4
  1256                           opt subtitle "HI-TECH Software Omniscient Code Generator (Lite mode) build 49521"
  1257  0024                     ___ftpack@sign:	; 1 bytes @ 0x4
  1258                           opt subtitle "HI-TECH Software Omniscient Code Generator (Lite mode) build 49521"
  1259  0024                     ___wmul@product:	; 2 bytes @ 0x4
  1260  0024                     	ds	1
  1261  0025                     ??_SPI_Write_Buf:	; 0 bytes @ 0x5
  1262  0025                     ??___ftpack:	; 0 bytes @ 0x5
  1263                           opt subtitle "HI-TECH Software Omniscient Code Generator (Lite mode) build 49521"
  1264  0025                     SPI_Read_Reg@value:	; 1 bytes @ 0x5
  1265                           opt subtitle "HI-TECH Software Omniscient Code Generator (Lite mode) build 49521"
  1266  0025                     ___lwdiv@quotient:	; 2 bytes @ 0x5
  1267  0025                     	ds	1
  1268  0026                     ??_rfm70setPowerdownMode:	; 0 bytes @ 0x6
  1269  0026                     ??_SwitchToTxMode:	; 0 bytes @ 0x6
  1270  0026                     ??_rfm70TxDataSentInterrupt:	; 0 bytes @ 0x6
  1271  0026                     ??_SwitchToRxMode:	; 0 bytes @ 0x6
  1272  0026                     ??_rfm70TxDataSentErrorInterrupt:	; 0 bytes @ 0x6
  1273  0026                     ??_SwitchCFG:	; 0 bytes @ 0x6
  1274                           opt subtitle "HI-TECH Software Omniscient Code Generator (Lite mode) build 49521"
  1275  0026                     ?___awdiv:	; 2 bytes @ 0x6
  1276                           opt subtitle "HI-TECH Software Omniscient Code Generator (Lite mode) build 49521"
  1277  0026                     SPI_Write_Buf@reg:	; 1 bytes @ 0x6
  1278                           opt subtitle "HI-TECH Software Omniscient Code Generator (Lite mode) build 49521"
  1279  0026                     ___awdiv@divisor:	; 2 bytes @ 0x6
  1280  0026                     	ds	1
  1281                           opt subtitle "HI-TECH Software Omniscient Code Generator (Lite mode) build 49521"
  1282  0027                     SPI_Write_Buf@byte_ctr:	; 1 bytes @ 0x7
  1283                           opt subtitle "HI-TECH Software Omniscient Code Generator (Lite mode) build 49521"
  1284  0027                     SwitchToRxMode@value:	; 1 bytes @ 0x7
  1285                           opt subtitle "HI-TECH Software Omniscient Code Generator (Lite mode) build 49521"
  1286  0027                     SwitchToTxMode@value:	; 1 bytes @ 0x7
  1287                           opt subtitle "HI-TECH Software Omniscient Code Generator (Lite mode) build 49521"
  1288  0027                     SwitchCFG@_cfg:	; 1 bytes @ 0x7
  1289                           opt subtitle "HI-TECH Software Omniscient Code Generator (Lite mode) build 49521"
  1290  0027                     rfm70setPowerdownMode@value:	; 1 bytes @ 0x7
  1291                           opt subtitle "HI-TECH Software Omniscient Code Generator (Lite mode) build 49521"
  1292  0027                     ___lwdiv@counter:	; 1 bytes @ 0x7
  1293  0027                     	ds	1
  1294                           opt subtitle "HI-TECH Software Omniscient Code Generator (Lite mode) build 49521"
  1295  0028                     ?___lwmod:	; 2 bytes @ 0x8
  1296                           opt subtitle "HI-TECH Software Omniscient Code Generator (Lite mode) build 49521"
  1297  0028                     ?___ftdiv:	; 3 bytes @ 0x8
  1298                           opt subtitle "HI-TECH Software Omniscient Code Generator (Lite mode) build 49521"
  1299  0028                     ?___ftmul:	; 3 bytes @ 0x8
  1300                           opt subtitle "HI-TECH Software Omniscient Code Generator (Lite mode) build 49521"
  1301  0028                     ?___lbtoft:	; 3 bytes @ 0x8
  1302                           opt subtitle "HI-TECH Software Omniscient Code Generator (Lite mode) build 49521"
  1303  0028                     SwitchCFG@Tmp:	; 1 bytes @ 0x8
  1304                           opt subtitle "HI-TECH Software Omniscient Code Generator (Lite mode) build 49521"
  1305  0028                     rfm70setPowerdownMode@reg:	; 1 bytes @ 0x8
  1306                           opt subtitle "HI-TECH Software Omniscient Code Generator (Lite mode) build 49521"
  1307  0028                     ___fttol@sign1:	; 1 bytes @ 0x8
  1308                           opt subtitle "HI-TECH Software Omniscient Code Generator (Lite mode) build 49521"
  1309  0028                     ___lwmod@divisor:	; 2 bytes @ 0x8
  1310                           opt subtitle "HI-TECH Software Omniscient Code Generator (Lite mode) build 49521"
  1311  0028                     ___awdiv@dividend:	; 2 bytes @ 0x8
  1312                           opt subtitle "HI-TECH Software Omniscient Code Generator (Lite mode) build 49521"
  1313  0028                     ___ftdiv@f2:	; 3 bytes @ 0x8
  1314                           opt subtitle "HI-TECH Software Omniscient Code Generator (Lite mode) build 49521"
  1315  0028                     ___ftmul@f1:	; 3 bytes @ 0x8
  1316  0028                     	ds	1
  1317  0029                     ??_RFM70_Initialize:	; 0 bytes @ 0x9
  1318                           opt subtitle "HI-TECH Software Omniscient Code Generator (Lite mode) build 49521"
  1319  0029                     ___fttol@lval:	; 4 bytes @ 0x9
  1320  0029                     	ds	1
  1321  002A                     ??___awdiv:	; 0 bytes @ 0xA
  1322                           opt subtitle "HI-TECH Software Omniscient Code Generator (Lite mode) build 49521"
  1323  002A                     ___lwmod@dividend:	; 2 bytes @ 0xA
  1324  002A                     	ds	1
  1325  002B                     ??___lbtoft:	; 0 bytes @ 0xB
  1326                           opt subtitle "HI-TECH Software Omniscient Code Generator (Lite mode) build 49521"
  1327  002B                     ___awdiv@counter:	; 1 bytes @ 0xB
  1328                           opt subtitle "HI-TECH Software Omniscient Code Generator (Lite mode) build 49521"
  1329  002B                     ___ftdiv@f1:	; 3 bytes @ 0xB
  1330                           opt subtitle "HI-TECH Software Omniscient Code Generator (Lite mode) build 49521"
  1331  002B                     ___ftmul@f2:	; 3 bytes @ 0xB
  1332  002B                     	ds	1
  1333  002C                     ??___lwmod:	; 0 bytes @ 0xC
  1334                           opt subtitle "HI-TECH Software Omniscient Code Generator (Lite mode) build 49521"
  1335  002C                     ___awdiv@sign:	; 1 bytes @ 0xC
  1336  002C                     	ds	1
  1337                           opt subtitle "HI-TECH Software Omniscient Code Generator (Lite mode) build 49521"
  1338  002D                     ___lwmod@counter:	; 1 bytes @ 0xD
  1339                           opt subtitle "HI-TECH Software Omniscient Code Generator (Lite mode) build 49521"
  1340  002D                     ___fttol@exp1:	; 1 bytes @ 0xD
  1341                           opt subtitle "HI-TECH Software Omniscient Code Generator (Lite mode) build 49521"
  1342  002D                     ___awdiv@quotient:	; 2 bytes @ 0xD
  1343  002D                     	ds	1
  1344  002E                     ??___ftdiv:	; 0 bytes @ 0xE
  1345  002E                     ??___ftmul:	; 0 bytes @ 0xE
  1346                           opt subtitle "HI-TECH Software Omniscient Code Generator (Lite mode) build 49521"
  1347  002E                     ?_printf:	; 2 bytes @ 0xE
  1348                           opt subtitle "HI-TECH Software Omniscient Code Generator (Lite mode) build 49521"
  1349  002E                     printf@f:	; 2 bytes @ 0xE
  1350  002E                     	ds	1
  1351                           opt subtitle "HI-TECH Software Omniscient Code Generator (Lite mode) build 49521"
  1352  002F                     ___lbtoft@c:	; 1 bytes @ 0xF
  1353  002F                     	ds	1
  1354                           opt subtitle "HI-TECH Software Omniscient Code Generator (Lite mode) build 49521"
  1355  0030                     ?___ftge:	; 1 bit 
  1356                           opt subtitle "HI-TECH Software Omniscient Code Generator (Lite mode) build 49521"
  1357  0030                     ___ftge@ff1:	; 3 bytes @ 0x10
  1358                           opt subtitle "HI-TECH Software Omniscient Code Generator (Lite mode) build 49521"
  1359  0030                     RFM70_Initialize@WriteArr:	; 12 bytes @ 0x10
  1360  0030                     	ds	2
  1361  0032                     ??_printf:	; 0 bytes @ 0x12
  1362                           opt subtitle "HI-TECH Software Omniscient Code Generator (Lite mode) build 49521"
  1363  0032                     ___ftdiv@cntr:	; 1 bytes @ 0x12
  1364                           opt subtitle "HI-TECH Software Omniscient Code Generator (Lite mode) build 49521"
  1365  0032                     ___ftmul@exp:	; 1 bytes @ 0x12
  1366  0032                     	ds	1
  1367                           opt subtitle "HI-TECH Software Omniscient Code Generator (Lite mode) build 49521"
  1368  0033                     ___ftdiv@f3:	; 3 bytes @ 0x13
  1369                           opt subtitle "HI-TECH Software Omniscient Code Generator (Lite mode) build 49521"
  1370  0033                     ___ftmul@f3_as_product:	; 3 bytes @ 0x13
  1371                           opt subtitle "HI-TECH Software Omniscient Code Generator (Lite mode) build 49521"
  1372  0033                     ___ftge@ff2:	; 3 bytes @ 0x13
  1373  0033                     	ds	2
  1374                           opt subtitle "HI-TECH Software Omniscient Code Generator (Lite mode) build 49521"
  1375  0035                     printf@idx:	; 1 bytes @ 0x15
  1376  0035                     	ds	1
  1377  0036                     ??___ftge:	; 0 bytes @ 0x16
  1378                           opt subtitle "HI-TECH Software Omniscient Code Generator (Lite mode) build 49521"
  1379  0036                     printf@ap:	; 1 bytes @ 0x16
  1380                           opt subtitle "HI-TECH Software Omniscient Code Generator (Lite mode) build 49521"
  1381  0036                     ___ftdiv@exp:	; 1 bytes @ 0x16
  1382                           opt subtitle "HI-TECH Software Omniscient Code Generator (Lite mode) build 49521"
  1383  0036                     ___ftmul@cntr:	; 1 bytes @ 0x16
  1384  0036                     	ds	1
  1385                           opt subtitle "HI-TECH Software Omniscient Code Generator (Lite mode) build 49521"
  1386  0037                     printf@prec:	; 1 bytes @ 0x17
  1387                           opt subtitle "HI-TECH Software Omniscient Code Generator (Lite mode) build 49521"
  1388  0037                     ___ftdiv@sign:	; 1 bytes @ 0x17
  1389                           opt subtitle "HI-TECH Software Omniscient Code Generator (Lite mode) build 49521"
  1390  0037                     ___ftmul@sign:	; 1 bytes @ 0x17
  1391  0037                     	ds	1
  1392                           opt subtitle "HI-TECH Software Omniscient Code Generator (Lite mode) build 49521"
  1393  0038                     printf@flag:	; 1 bytes @ 0x18
  1394  0038                     	ds	1
  1395                           opt subtitle "HI-TECH Software Omniscient Code Generator (Lite mode) build 49521"
  1396  0039                     printf@_val:	; 4 bytes @ 0x19
  1397  0039                     	ds	3
  1398  003C                     ??_sleep:	; 0 bytes @ 0x1C
  1399                           opt subtitle "HI-TECH Software Omniscient Code Generator (Lite mode) build 49521"
  1400  003C                     RFM70_Initialize@i:	; 1 bytes @ 0x1C
  1401  003C                     	ds	1
  1402                           opt subtitle "HI-TECH Software Omniscient Code Generator (Lite mode) build 49521"
  1403  003D                     RFM70_Initialize@j:	; 1 bytes @ 0x1D
  1404                           opt subtitle "HI-TECH Software Omniscient Code Generator (Lite mode) build 49521"
  1405  003D                     printf@c:	; 1 bytes @ 0x1D
  1406  003D                     	ds	1
  1407                           opt subtitle "HI-TECH Software Omniscient Code Generator (Lite mode) build 49521"
  1408  003E                     ?_Send_Packet:	; 0 bytes @ 0x1E
  1409                           opt subtitle "HI-TECH Software Omniscient Code Generator (Lite mode) build 49521"
  1410  003E                     sleep@new_value:	; 1 bytes @ 0x1E
  1411                           opt subtitle "HI-TECH Software Omniscient Code Generator (Lite mode) build 49521"
  1412  003E                     Send_Packet@pbuf:	; 1 bytes @ 0x1E
  1413  003E                     	ds	1
  1414                           opt subtitle "HI-TECH Software Omniscient Code Generator (Lite mode) build 49521"
  1415  003F                     Send_Packet@len:	; 1 bytes @ 0x1F
  1416  003F                     	ds	1
  1417  0040                     ??_Send_Packet:	; 0 bytes @ 0x20
  1418  0040                     	ds	3
  1419                           opt subtitle "HI-TECH Software Omniscient Code Generator (Lite mode) build 49521"
  1420  0043                     Send_Packet@type:	; 1 bytes @ 0x23
  1421  0043                     	ds	1
  1422                           opt subtitle "HI-TECH Software Omniscient Code Generator (Lite mode) build 49521"
  1423  0044                     Send_Packet@fifo_sta:	; 1 bytes @ 0x24
  1424  0044                     	ds	1
  1425                           opt subtitle "HI-TECH Software Omniscient Code Generator (Lite mode) build 49521"
  1426  0045                     Send_Packet@i:	; 1 bytes @ 0x25
  1427  0045                     	ds	1
  1428  0046                     ?_main:	; 2 bytes @ 0x26
  1429  0046                     main@argc:	; 2 bytes @ 0x26
  1430  0046                     	ds	2
  1431  0048                     main@argv:	; 2 bytes @ 0x28
  1432  0048                     	ds	2
  1433  004A                     ??_main:	; 0 bytes @ 0x2A
  1434  004A                     	ds	4
  1435                           opt subtitle "HI-TECH Software Omniscient Code Generator (Lite mode) build 49521"
  1436  004E                     main@i:	; 4 bytes @ 0x2E
  1437  004E                     	ds	4
  1438                           opt subtitle "HI-TECH Software Omniscient Code Generator (Lite mode) build 49521"
  1439  0052                     main@num_sleep:	; 1 bytes @ 0x32
  1440  0052                     	ds	1
  1441                           opt subtitle "HI-TECH Software Omniscient Code Generator (Lite mode) build 49521"
  1442                           
  1443                           opt pagewidth 120
  1444                           
  1445                           	opt lm
  1446                           
  1447                           	processor	16LF707
  1448                           clrc	macro
  1449                           	bcf	3,0
  1450                           	endm
  1451                           clrz	macro
  1452                           	bcf	3,2
  1453                           	endm
  1454                           setc	macro
  1455                           	bsf	3,0
  1456                           	endm
  1457                           setz	macro
  1458                           	bsf	3,2
  1459                           	endm
  1460                           skipc	macro
  1461                           	btfss	3,0
  1462                           	endm
  1463                           skipz	macro
  1464                           	btfss	3,2
  1465                           	endm
  1466                           skipnc	macro
  1467                           	btfsc	3,0
  1468                           	endm
  1469                           skipnz	macro
  1470                           	btfsc	3,2
  1471                           	endm
  1472                           indf	equ	0
  1473                           indf0	equ	0
  1474                           pc	equ	2
  1475                           pcl	equ	2
  1476                           status	equ	3
  1477                           fsr	equ	4
  1478                           fsr0	equ	4
  1479                           c	equ	1
  1480                           z	equ	0
  1481                           pclath	equ	10
  1482                           # 46 "/Applications/microchip/xc8/v1.12/include/pic16lf707.h"
  1483                           INDF equ 00h ;# 
  1484                           # 52 "/Applications/microchip/xc8/v1.12/include/pic16lf707.h"
  1485                           TMR0 equ 01h ;# 
  1486                           # 58 "/Applications/microchip/xc8/v1.12/include/pic16lf707.h"
  1487                           PCL equ 02h ;# 
  1488                           # 64 "/Applications/microchip/xc8/v1.12/include/pic16lf707.h"
  1489                           STATUS equ 03h ;# 
  1490                           # 151 "/Applications/microchip/xc8/v1.12/include/pic16lf707.h"
  1491                           FSR equ 04h ;# 
  1492                           # 157 "/Applications/microchip/xc8/v1.12/include/pic16lf707.h"
  1493                           PORTA equ 05h ;# 
  1494                           # 346 "/Applications/microchip/xc8/v1.12/include/pic16lf707.h"
  1495                           PORTB equ 06h ;# 
  1496                           # 520 "/Applications/microchip/xc8/v1.12/include/pic16lf707.h"
  1497                           PORTC equ 07h ;# 
  1498                           # 715 "/Applications/microchip/xc8/v1.12/include/pic16lf707.h"
  1499                           PORTD equ 08h ;# 
  1500                           # 834 "/Applications/microchip/xc8/v1.12/include/pic16lf707.h"
  1501                           PORTE equ 09h ;# 
  1502                           # 917 "/Applications/microchip/xc8/v1.12/include/pic16lf707.h"
  1503                           PCLATH equ 0Ah ;# 
  1504                           # 936 "/Applications/microchip/xc8/v1.12/include/pic16lf707.h"
  1505                           INTCON equ 0Bh ;# 
  1506                           # 1013 "/Applications/microchip/xc8/v1.12/include/pic16lf707.h"
  1507                           PIR1 equ 0Ch ;# 
  1508                           # 1074 "/Applications/microchip/xc8/v1.12/include/pic16lf707.h"
  1509                           PIR2 equ 0Dh ;# 
  1510                           # 1118 "/Applications/microchip/xc8/v1.12/include/pic16lf707.h"
  1511                           TMR1 equ 0Eh ;# 
  1512                           # 1124 "/Applications/microchip/xc8/v1.12/include/pic16lf707.h"
  1513                           TMR1L equ 0Eh ;# 
  1514                           # 1130 "/Applications/microchip/xc8/v1.12/include/pic16lf707.h"
  1515                           TMR1H equ 0Fh ;# 
  1516                           # 1136 "/Applications/microchip/xc8/v1.12/include/pic16lf707.h"
  1517                           T1CON equ 010h ;# 
  1518                           # 1214 "/Applications/microchip/xc8/v1.12/include/pic16lf707.h"
  1519                           TMR2 equ 011h ;# 
  1520                           # 1220 "/Applications/microchip/xc8/v1.12/include/pic16lf707.h"
  1521                           T2CON equ 012h ;# 
  1522                           # 1290 "/Applications/microchip/xc8/v1.12/include/pic16lf707.h"
  1523                           SSPBUF equ 013h ;# 
  1524                           # 1296 "/Applications/microchip/xc8/v1.12/include/pic16lf707.h"
  1525                           SSPCON equ 014h ;# 
  1526                           # 1365 "/Applications/microchip/xc8/v1.12/include/pic16lf707.h"
  1527                           CCPR1 equ 015h ;# 
  1528                           # 1371 "/Applications/microchip/xc8/v1.12/include/pic16lf707.h"
  1529                           CCPR1L equ 015h ;# 
  1530                           # 1377 "/Applications/microchip/xc8/v1.12/include/pic16lf707.h"
  1531                           CCPR1H equ 016h ;# 
  1532                           # 1383 "/Applications/microchip/xc8/v1.12/include/pic16lf707.h"
  1533                           CCP1CON equ 017h ;# 
  1534                           # 1446 "/Applications/microchip/xc8/v1.12/include/pic16lf707.h"
  1535                           RCSTA equ 018h ;# 
  1536                           # 1507 "/Applications/microchip/xc8/v1.12/include/pic16lf707.h"
  1537                           TXREG equ 019h ;# 
  1538                           # 1513 "/Applications/microchip/xc8/v1.12/include/pic16lf707.h"
  1539                           RCREG equ 01Ah ;# 
  1540                           # 1519 "/Applications/microchip/xc8/v1.12/include/pic16lf707.h"
  1541                           CCPR2 equ 01Bh ;# 
  1542                           # 1525 "/Applications/microchip/xc8/v1.12/include/pic16lf707.h"
  1543                           CCPR2L equ 01Bh ;# 
  1544                           # 1531 "/Applications/microchip/xc8/v1.12/include/pic16lf707.h"
  1545                           CCPR2H equ 01Ch ;# 
  1546                           # 1537 "/Applications/microchip/xc8/v1.12/include/pic16lf707.h"
  1547                           CCP2CON equ 01Dh ;# 
  1548                           # 1600 "/Applications/microchip/xc8/v1.12/include/pic16lf707.h"
  1549                           ADRES equ 01Eh ;# 
  1550                           # 1606 "/Applications/microchip/xc8/v1.12/include/pic16lf707.h"
  1551                           ADCON0 equ 01Fh ;# 
  1552                           # 1664 "/Applications/microchip/xc8/v1.12/include/pic16lf707.h"
  1553                           OPTION_REG equ 081h ;# 
  1554                           # 1746 "/Applications/microchip/xc8/v1.12/include/pic16lf707.h"
  1555                           TRISA equ 085h ;# 
  1556                           # 1807 "/Applications/microchip/xc8/v1.12/include/pic16lf707.h"
  1557                           TRISB equ 086h ;# 
  1558                           # 1868 "/Applications/microchip/xc8/v1.12/include/pic16lf707.h"
  1559                           TRISC equ 087h ;# 
  1560                           # 1929 "/Applications/microchip/xc8/v1.12/include/pic16lf707.h"
  1561                           TRISD equ 088h ;# 
  1562                           # 1990 "/Applications/microchip/xc8/v1.12/include/pic16lf707.h"
  1563                           TRISE equ 089h ;# 
  1564                           # 2027 "/Applications/microchip/xc8/v1.12/include/pic16lf707.h"
  1565                           PIE1 equ 08Ch ;# 
  1566                           # 2088 "/Applications/microchip/xc8/v1.12/include/pic16lf707.h"
  1567                           PIE2 equ 08Dh ;# 
  1568                           # 2132 "/Applications/microchip/xc8/v1.12/include/pic16lf707.h"
  1569                           PCON equ 08Eh ;# 
  1570                           # 2157 "/Applications/microchip/xc8/v1.12/include/pic16lf707.h"
  1571                           T1GCON equ 08Fh ;# 
  1572                           # 2226 "/Applications/microchip/xc8/v1.12/include/pic16lf707.h"
  1573                           OSCCON equ 090h ;# 
  1574                           # 2273 "/Applications/microchip/xc8/v1.12/include/pic16lf707.h"
  1575                           OSCTUNE equ 091h ;# 
  1576                           # 2292 "/Applications/microchip/xc8/v1.12/include/pic16lf707.h"
  1577                           PR2 equ 092h ;# 
  1578                           # 2298 "/Applications/microchip/xc8/v1.12/include/pic16lf707.h"
  1579                           SSPADD equ 093h ;# 
  1580                           # 2317 "/Applications/microchip/xc8/v1.12/include/pic16lf707.h"
  1581                           SSPMSK equ 093h ;# 
  1582                           # 2336 "/Applications/microchip/xc8/v1.12/include/pic16lf707.h"
  1583                           SSPSTAT equ 094h ;# 
  1584                           # 2397 "/Applications/microchip/xc8/v1.12/include/pic16lf707.h"
  1585                           WPUB equ 095h ;# 
  1586                           # 2458 "/Applications/microchip/xc8/v1.12/include/pic16lf707.h"
  1587                           IOCB equ 096h ;# 
  1588                           # 2519 "/Applications/microchip/xc8/v1.12/include/pic16lf707.h"
  1589                           T3CON equ 097h ;# 
  1590                           # 2585 "/Applications/microchip/xc8/v1.12/include/pic16lf707.h"
  1591                           TXSTA equ 098h ;# 
  1592                           # 2641 "/Applications/microchip/xc8/v1.12/include/pic16lf707.h"
  1593                           SPBRG equ 099h ;# 
  1594                           # 2647 "/Applications/microchip/xc8/v1.12/include/pic16lf707.h"
  1595                           TMR3 equ 09Ah ;# 
  1596                           # 2653 "/Applications/microchip/xc8/v1.12/include/pic16lf707.h"
  1597                           TMR3L equ 09Ah ;# 
  1598                           # 2659 "/Applications/microchip/xc8/v1.12/include/pic16lf707.h"
  1599                           TMR3H equ 09Bh ;# 
  1600                           # 2665 "/Applications/microchip/xc8/v1.12/include/pic16lf707.h"
  1601                           APFCON equ 09Ch ;# 
  1602                           # 2690 "/Applications/microchip/xc8/v1.12/include/pic16lf707.h"
  1603                           FVRCON equ 09Dh ;# 
  1604                           # 2755 "/Applications/microchip/xc8/v1.12/include/pic16lf707.h"
  1605                           T3GCON equ 09Eh ;# 
  1606                           # 2824 "/Applications/microchip/xc8/v1.12/include/pic16lf707.h"
  1607                           ADCON1 equ 09Fh ;# 
  1608                           # 2883 "/Applications/microchip/xc8/v1.12/include/pic16lf707.h"
  1609                           TACON equ 0105h ;# 
  1610                           # 2993 "/Applications/microchip/xc8/v1.12/include/pic16lf707.h"
  1611                           CPSBCON0 equ 0106h ;# 
  1612                           # 3052 "/Applications/microchip/xc8/v1.12/include/pic16lf707.h"
  1613                           CPSBCON1 equ 0107h ;# 
  1614                           # 3097 "/Applications/microchip/xc8/v1.12/include/pic16lf707.h"
  1615                           CPSACON0 equ 0108h ;# 
  1616                           # 3156 "/Applications/microchip/xc8/v1.12/include/pic16lf707.h"
  1617                           CPSACON1 equ 0109h ;# 
  1618                           # 3201 "/Applications/microchip/xc8/v1.12/include/pic16lf707.h"
  1619                           PMDATL equ 010Ch ;# 
  1620                           # 3207 "/Applications/microchip/xc8/v1.12/include/pic16lf707.h"
  1621                           PMADRL equ 010Dh ;# 
  1622                           # 3213 "/Applications/microchip/xc8/v1.12/include/pic16lf707.h"
  1623                           PMDATH equ 010Eh ;# 
  1624                           # 3219 "/Applications/microchip/xc8/v1.12/include/pic16lf707.h"
  1625                           PMADRH equ 010Fh ;# 
  1626                           # 3225 "/Applications/microchip/xc8/v1.12/include/pic16lf707.h"
  1627                           TMRA equ 0110h ;# 
  1628                           # 3231 "/Applications/microchip/xc8/v1.12/include/pic16lf707.h"
  1629                           TBCON equ 0111h ;# 
  1630                           # 3341 "/Applications/microchip/xc8/v1.12/include/pic16lf707.h"
  1631                           TMRB equ 0112h ;# 
  1632                           # 3347 "/Applications/microchip/xc8/v1.12/include/pic16lf707.h"
  1633                           DACCON0 equ 0113h ;# 
  1634                           # 3401 "/Applications/microchip/xc8/v1.12/include/pic16lf707.h"
  1635                           DACCON1 equ 0114h ;# 
  1636                           # 3452 "/Applications/microchip/xc8/v1.12/include/pic16lf707.h"
  1637                           ANSELA equ 0185h ;# 
  1638                           # 3521 "/Applications/microchip/xc8/v1.12/include/pic16lf707.h"
  1639                           ANSELB equ 0186h ;# 
  1640                           # 3590 "/Applications/microchip/xc8/v1.12/include/pic16lf707.h"
  1641                           ANSELC equ 0187h ;# 
  1642                           # 3648 "/Applications/microchip/xc8/v1.12/include/pic16lf707.h"
  1643                           ANSELD equ 0188h ;# 
  1644                           # 3717 "/Applications/microchip/xc8/v1.12/include/pic16lf707.h"
  1645                           ANSELE equ 0189h ;# 
  1646                           # 3756 "/Applications/microchip/xc8/v1.12/include/pic16lf707.h"
  1647                           PMCON1 equ 018Ch ;# 
  1648                           # 46 "/Applications/microchip/xc8/v1.12/include/pic16lf707.h"
  1649                           INDF equ 00h ;# 
  1650                           # 52 "/Applications/microchip/xc8/v1.12/include/pic16lf707.h"
  1651                           TMR0 equ 01h ;# 
  1652                           # 58 "/Applications/microchip/xc8/v1.12/include/pic16lf707.h"
  1653                           PCL equ 02h ;# 
  1654                           # 64 "/Applications/microchip/xc8/v1.12/include/pic16lf707.h"
  1655                           STATUS equ 03h ;# 
  1656                           # 151 "/Applications/microchip/xc8/v1.12/include/pic16lf707.h"
  1657                           FSR equ 04h ;# 
  1658                           # 157 "/Applications/microchip/xc8/v1.12/include/pic16lf707.h"
  1659                           PORTA equ 05h ;# 
  1660                           # 346 "/Applications/microchip/xc8/v1.12/include/pic16lf707.h"
  1661                           PORTB equ 06h ;# 
  1662                           # 520 "/Applications/microchip/xc8/v1.12/include/pic16lf707.h"
  1663                           PORTC equ 07h ;# 
  1664                           # 715 "/Applications/microchip/xc8/v1.12/include/pic16lf707.h"
  1665                           PORTD equ 08h ;# 
  1666                           # 834 "/Applications/microchip/xc8/v1.12/include/pic16lf707.h"
  1667                           PORTE equ 09h ;# 
  1668                           # 917 "/Applications/microchip/xc8/v1.12/include/pic16lf707.h"
  1669                           PCLATH equ 0Ah ;# 
  1670                           # 936 "/Applications/microchip/xc8/v1.12/include/pic16lf707.h"
  1671                           INTCON equ 0Bh ;# 
  1672                           # 1013 "/Applications/microchip/xc8/v1.12/include/pic16lf707.h"
  1673                           PIR1 equ 0Ch ;# 
  1674                           # 1074 "/Applications/microchip/xc8/v1.12/include/pic16lf707.h"
  1675                           PIR2 equ 0Dh ;# 
  1676                           # 1118 "/Applications/microchip/xc8/v1.12/include/pic16lf707.h"
  1677                           TMR1 equ 0Eh ;# 
  1678                           # 1124 "/Applications/microchip/xc8/v1.12/include/pic16lf707.h"
  1679                           TMR1L equ 0Eh ;# 
  1680                           # 1130 "/Applications/microchip/xc8/v1.12/include/pic16lf707.h"
  1681                           TMR1H equ 0Fh ;# 
  1682                           # 1136 "/Applications/microchip/xc8/v1.12/include/pic16lf707.h"
  1683                           T1CON equ 010h ;# 
  1684                           # 1214 "/Applications/microchip/xc8/v1.12/include/pic16lf707.h"
  1685                           TMR2 equ 011h ;# 
  1686                           # 1220 "/Applications/microchip/xc8/v1.12/include/pic16lf707.h"
  1687                           T2CON equ 012h ;# 
  1688                           # 1290 "/Applications/microchip/xc8/v1.12/include/pic16lf707.h"
  1689                           SSPBUF equ 013h ;# 
  1690                           # 1296 "/Applications/microchip/xc8/v1.12/include/pic16lf707.h"
  1691                           SSPCON equ 014h ;# 
  1692                           # 1365 "/Applications/microchip/xc8/v1.12/include/pic16lf707.h"
  1693                           CCPR1 equ 015h ;# 
  1694                           # 1371 "/Applications/microchip/xc8/v1.12/include/pic16lf707.h"
  1695                           CCPR1L equ 015h ;# 
  1696                           # 1377 "/Applications/microchip/xc8/v1.12/include/pic16lf707.h"
  1697                           CCPR1H equ 016h ;# 
  1698                           # 1383 "/Applications/microchip/xc8/v1.12/include/pic16lf707.h"
  1699                           CCP1CON equ 017h ;# 
  1700                           # 1446 "/Applications/microchip/xc8/v1.12/include/pic16lf707.h"
  1701                           RCSTA equ 018h ;# 
  1702                           # 1507 "/Applications/microchip/xc8/v1.12/include/pic16lf707.h"
  1703                           TXREG equ 019h ;# 
  1704                           # 1513 "/Applications/microchip/xc8/v1.12/include/pic16lf707.h"
  1705                           RCREG equ 01Ah ;# 
  1706                           # 1519 "/Applications/microchip/xc8/v1.12/include/pic16lf707.h"
  1707                           CCPR2 equ 01Bh ;# 
  1708                           # 1525 "/Applications/microchip/xc8/v1.12/include/pic16lf707.h"
  1709                           CCPR2L equ 01Bh ;# 
  1710                           # 1531 "/Applications/microchip/xc8/v1.12/include/pic16lf707.h"
  1711                           CCPR2H equ 01Ch ;# 
  1712                           # 1537 "/Applications/microchip/xc8/v1.12/include/pic16lf707.h"
  1713                           CCP2CON equ 01Dh ;# 
  1714                           # 1600 "/Applications/microchip/xc8/v1.12/include/pic16lf707.h"
  1715                           ADRES equ 01Eh ;# 
  1716                           # 1606 "/Applications/microchip/xc8/v1.12/include/pic16lf707.h"
  1717                           ADCON0 equ 01Fh ;# 
  1718                           # 1664 "/Applications/microchip/xc8/v1.12/include/pic16lf707.h"
  1719                           OPTION_REG equ 081h ;# 
  1720                           # 1746 "/Applications/microchip/xc8/v1.12/include/pic16lf707.h"
  1721                           TRISA equ 085h ;# 
  1722                           # 1807 "/Applications/microchip/xc8/v1.12/include/pic16lf707.h"
  1723                           TRISB equ 086h ;# 
  1724                           # 1868 "/Applications/microchip/xc8/v1.12/include/pic16lf707.h"
  1725                           TRISC equ 087h ;# 
  1726                           # 1929 "/Applications/microchip/xc8/v1.12/include/pic16lf707.h"
  1727                           TRISD equ 088h ;# 
  1728                           # 1990 "/Applications/microchip/xc8/v1.12/include/pic16lf707.h"
  1729                           TRISE equ 089h ;# 
  1730                           # 2027 "/Applications/microchip/xc8/v1.12/include/pic16lf707.h"
  1731                           PIE1 equ 08Ch ;# 
  1732                           # 2088 "/Applications/microchip/xc8/v1.12/include/pic16lf707.h"
  1733                           PIE2 equ 08Dh ;# 
  1734                           # 2132 "/Applications/microchip/xc8/v1.12/include/pic16lf707.h"
  1735                           PCON equ 08Eh ;# 
  1736                           # 2157 "/Applications/microchip/xc8/v1.12/include/pic16lf707.h"
  1737                           T1GCON equ 08Fh ;# 
  1738                           # 2226 "/Applications/microchip/xc8/v1.12/include/pic16lf707.h"
  1739                           OSCCON equ 090h ;# 
  1740                           # 2273 "/Applications/microchip/xc8/v1.12/include/pic16lf707.h"
  1741                           OSCTUNE equ 091h ;# 
  1742                           # 2292 "/Applications/microchip/xc8/v1.12/include/pic16lf707.h"
  1743                           PR2 equ 092h ;# 
  1744                           # 2298 "/Applications/microchip/xc8/v1.12/include/pic16lf707.h"
  1745                           SSPADD equ 093h ;# 
  1746                           # 2317 "/Applications/microchip/xc8/v1.12/include/pic16lf707.h"
  1747                           SSPMSK equ 093h ;# 
  1748                           # 2336 "/Applications/microchip/xc8/v1.12/include/pic16lf707.h"
  1749                           SSPSTAT equ 094h ;# 
  1750                           # 2397 "/Applications/microchip/xc8/v1.12/include/pic16lf707.h"
  1751                           WPUB equ 095h ;# 
  1752                           # 2458 "/Applications/microchip/xc8/v1.12/include/pic16lf707.h"
  1753                           IOCB equ 096h ;# 
  1754                           # 2519 "/Applications/microchip/xc8/v1.12/include/pic16lf707.h"
  1755                           T3CON equ 097h ;# 
  1756                           # 2585 "/Applications/microchip/xc8/v1.12/include/pic16lf707.h"
  1757                           TXSTA equ 098h ;# 
  1758                           # 2641 "/Applications/microchip/xc8/v1.12/include/pic16lf707.h"
  1759                           SPBRG equ 099h ;# 
  1760                           # 2647 "/Applications/microchip/xc8/v1.12/include/pic16lf707.h"
  1761                           TMR3 equ 09Ah ;# 
  1762                           # 2653 "/Applications/microchip/xc8/v1.12/include/pic16lf707.h"
  1763                           TMR3L equ 09Ah ;# 
  1764                           # 2659 "/Applications/microchip/xc8/v1.12/include/pic16lf707.h"
  1765                           TMR3H equ 09Bh ;# 
  1766                           # 2665 "/Applications/microchip/xc8/v1.12/include/pic16lf707.h"
  1767                           APFCON equ 09Ch ;# 
  1768                           # 2690 "/Applications/microchip/xc8/v1.12/include/pic16lf707.h"
  1769                           FVRCON equ 09Dh ;# 
  1770                           # 2755 "/Applications/microchip/xc8/v1.12/include/pic16lf707.h"
  1771                           T3GCON equ 09Eh ;# 
  1772                           # 2824 "/Applications/microchip/xc8/v1.12/include/pic16lf707.h"
  1773                           ADCON1 equ 09Fh ;# 
  1774                           # 2883 "/Applications/microchip/xc8/v1.12/include/pic16lf707.h"
  1775                           TACON equ 0105h ;# 
  1776                           # 2993 "/Applications/microchip/xc8/v1.12/include/pic16lf707.h"
  1777                           CPSBCON0 equ 0106h ;# 
  1778                           # 3052 "/Applications/microchip/xc8/v1.12/include/pic16lf707.h"
  1779                           CPSBCON1 equ 0107h ;# 
  1780                           # 3097 "/Applications/microchip/xc8/v1.12/include/pic16lf707.h"
  1781                           CPSACON0 equ 0108h ;# 
  1782                           # 3156 "/Applications/microchip/xc8/v1.12/include/pic16lf707.h"
  1783                           CPSACON1 equ 0109h ;# 
  1784                           # 3201 "/Applications/microchip/xc8/v1.12/include/pic16lf707.h"
  1785                           PMDATL equ 010Ch ;# 
  1786                           # 3207 "/Applications/microchip/xc8/v1.12/include/pic16lf707.h"
  1787                           PMADRL equ 010Dh ;# 
  1788                           # 3213 "/Applications/microchip/xc8/v1.12/include/pic16lf707.h"
  1789                           PMDATH equ 010Eh ;# 
  1790                           # 3219 "/Applications/microchip/xc8/v1.12/include/pic16lf707.h"
  1791                           PMADRH equ 010Fh ;# 
  1792                           # 3225 "/Applications/microchip/xc8/v1.12/include/pic16lf707.h"
  1793                           TMRA equ 0110h ;# 
  1794                           # 3231 "/Applications/microchip/xc8/v1.12/include/pic16lf707.h"
  1795                           TBCON equ 0111h ;# 
  1796                           # 3341 "/Applications/microchip/xc8/v1.12/include/pic16lf707.h"
  1797                           TMRB equ 0112h ;# 
  1798                           # 3347 "/Applications/microchip/xc8/v1.12/include/pic16lf707.h"
  1799                           DACCON0 equ 0113h ;# 
  1800                           # 3401 "/Applications/microchip/xc8/v1.12/include/pic16lf707.h"
  1801                           DACCON1 equ 0114h ;# 
  1802                           # 3452 "/Applications/microchip/xc8/v1.12/include/pic16lf707.h"
  1803                           ANSELA equ 0185h ;# 
  1804                           # 3521 "/Applications/microchip/xc8/v1.12/include/pic16lf707.h"
  1805                           ANSELB equ 0186h ;# 
  1806                           # 3590 "/Applications/microchip/xc8/v1.12/include/pic16lf707.h"
  1807                           ANSELC equ 0187h ;# 
  1808                           # 3648 "/Applications/microchip/xc8/v1.12/include/pic16lf707.h"
  1809                           ANSELD equ 0188h ;# 
  1810                           # 3717 "/Applications/microchip/xc8/v1.12/include/pic16lf707.h"
  1811                           ANSELE equ 0189h ;# 
  1812                           # 3756 "/Applications/microchip/xc8/v1.12/include/pic16lf707.h"
  1813                           PMCON1 equ 018Ch ;# 
  1814                           	FNCALL	_main,_boardInit
  1815                           	FNCALL	_main,_spiInit
  1816                           	FNCALL	_main,_uartInit
  1817                           	FNCALL	_main,_adcInit
  1818                           	FNCALL	_main,_rfm70setPowerdownMode
  1819                           	FNCALL	_main,_adcReadVcap
  1820                           	FNCALL	_main,_adcReadVsupercap
  1821                           	FNCALL	_main,___lbtoft
  1822                           	FNCALL	_main,___ftge
  1823                           	FNCALL	_main,_RFM70_Initialize
  1824                           	FNCALL	_main,___fttol
  1825                           	FNCALL	_main,_adcReadTemp
  1826                           	FNCALL	_main,_Send_Packet
  1827                           	FNCALL	_main,_printf
  1828                           	FNCALL	_main,_sleep
  1829                           	FNCALL	_main,___wmul
  1830                           	FNCALL	_main,___awdiv
  1831                           	FNCALL	_RFM70_Initialize,_SwitchCFG
  1832                           	FNCALL	_RFM70_Initialize,_SPI_Write_Reg
  1833                           	FNCALL	_RFM70_Initialize,_SPI_Write_Buf
  1834                           	FNCALL	_RFM70_Initialize,_SPI_Read_Reg
  1835                           	FNCALL	_rfm70setPowerdownMode,_SPI_Read_Reg
  1836                           	FNCALL	_rfm70setPowerdownMode,_SPI_Write_Reg
  1837                           	FNCALL	_Send_Packet,_SwitchToTxMode
  1838                           	FNCALL	_Send_Packet,_SPI_Read_Reg
  1839                           	FNCALL	_Send_Packet,_printf
  1840                           	FNCALL	_Send_Packet,_SPI_Write_Buf
  1841                           	FNCALL	_Send_Packet,_rfm70TxDataSentInterrupt
  1842                           	FNCALL	_Send_Packet,_SwitchToRxMode
  1843                           	FNCALL	_Send_Packet,_rfm70TxDataSentErrorInterrupt
  1844                           	FNCALL	_rfm70TxDataSentErrorInterrupt,_SPI_Read_Reg
  1845                           	FNCALL	_rfm70TxDataSentErrorInterrupt,_SPI_Write_Reg
  1846                           	FNCALL	_SwitchToRxMode,_SPI_Write_Reg
  1847                           	FNCALL	_SwitchToRxMode,_SPI_Read_Reg
  1848                           	FNCALL	_rfm70TxDataSentInterrupt,_SPI_Read_Reg
  1849                           	FNCALL	_rfm70TxDataSentInterrupt,_SPI_Write_Reg
  1850                           	FNCALL	_SPI_Write_Buf,_SPI_RW
  1851                           	FNCALL	_printf,_putch
  1852                           	FNCALL	_printf,___lwdiv
  1853                           	FNCALL	_printf,___lwmod
  1854                           	FNCALL	_sleep,_adcReadVcap
  1855                           	FNCALL	_sleep,___fttol
  1856                           	FNCALL	_sleep,___ftge
  1857                           	FNCALL	_sleep,___ftmul
  1858                           	FNCALL	_sleep,___ftdiv
  1859                           	FNCALL	_SwitchToTxMode,_SPI_Write_Reg
  1860                           	FNCALL	_SwitchToTxMode,_SPI_Read_Reg
  1861                           	FNCALL	_SwitchCFG,_SPI_Read_Reg
  1862                           	FNCALL	_SwitchCFG,_SPI_Write_Reg
  1863                           	FNCALL	_SPI_Write_Reg,_SPI_RW
  1864                           	FNCALL	_SPI_Read_Reg,_SPI_RW
  1865                           	FNCALL	___ftmul,___ftpack
  1866                           	FNCALL	___ftdiv,___ftpack
  1867                           	FNCALL	___lbtoft,___ftpack
  1868                           	FNROOT	_main
  1869                           	FNCALL	intlevel1,_ISR
  1870                           	global	intlevel1
  1871                           	FNROOT	intlevel1
  1872                           	global	_tmr1Target
  1873                           	global	_charge_pulse_float
  1874                           	global	_tx_buf
  1875                           psect	idataCOMMON,class=CODE,space=0,delta=2
  1876                           global __pidataCOMMON
  1877                           __pidataCOMMON:
  1878                           	file	"main.c"
  1879                           	line	105
  1880                           
  1881                           ;initializer for _dac_value
  1882                           	retlw	01Ah
  1883                           	retlw	0
  1884                           
  1885                           	line	91
  1886                           
  1887                           ;initializer for _tmr1Target
  1888                           	retlw	01h
  1889                           psect	idataBANK0,class=CODE,space=0,delta=2
  1890                           global __pidataBANK0
  1891                           __pidataBANK0:
  1892                           	line	103
  1893                           
  1894                           ;initializer for _charge_pulse_float
  1895                           	retlw	0x0
  1896                           	retlw	0x20
  1897                           	retlw	0x41
  1898                           
  1899  0325                     __pmaintext:	;psect for function _main
  1900                           opt subtitle "HI-TECH Software Omniscient Code Generator (Lite mode) build 49521"
  1901                           
  1902                           opt pagewidth 120
  1903                           
  1904  022B                     	__size_of_main	equ	__end_of_main-_main
  1905                           opt subtitle "HI-TECH Software Omniscient Code Generator (Lite mode) build 49521"
  1906  0325                     _main:	
  1907                           opt subtitle "HI-TECH Software Omniscient Code Generator (Lite mode) build 49521"
  1908                           
  1909                           opt pagewidth 120
  1910                           
  1911  0325                     l2488:	
  1912                           opt subtitle "HI-TECH Software Omniscient Code Generator (Lite mode) build 49521"
  1913  0325  3000               	movlw	0
  1914  0326  1283               	bcf	status, 5	;RP0=0, select bank0
  1915  0327  1303               	bcf	status, 6	;RP1=0, select bank0
  1916  0328  00D1               	movwf	(main@i+3)
  1917  0329  3000               	movlw	0
  1918  032A  00D0               	movwf	(main@i+2)
  1919  032B  3000               	movlw	0
  1920  032C  00CF               	movwf	(main@i+1)
  1921  032D  3000               	movlw	0
  1922  032E  00CE               	movwf	(main@i)
  1923                           opt subtitle "HI-TECH Software Omniscient Code Generator (Lite mode) build 49521"
  1924                           
  1925                           opt pagewidth 120
  1926  032F                     l2490:	
  1927                           opt subtitle "HI-TECH Software Omniscient Code Generator (Lite mode) build 49521"
  1928                           
  1929  032F  120A  158A  248A   	fcall	_boardInit
              120A  118A         
  1930                           opt subtitle "HI-TECH Software Omniscient Code Generator (Lite mode) build 49521"
  1931                           
  1932  0334                     l2492:	
  1933                           opt subtitle "HI-TECH Software Omniscient Code Generator (Lite mode) build 49521"
  1934  0334  160A  118A  2617   	fcall	_spiInit
              120A  118A         
  1935                           opt subtitle "HI-TECH Software Omniscient Code Generator (Lite mode) build 49521"
  1936                           
  1937  0339                     l2494:	
  1938                           opt subtitle "HI-TECH Software Omniscient Code Generator (Lite mode) build 49521"
  1939  0339  160A  118A  2601   	fcall	_uartInit
              120A  118A         
  1940                           opt subtitle "HI-TECH Software Omniscient Code Generator (Lite mode) build 49521"
  1941                           
  1942  033E                     l2496:	
  1943                           opt subtitle "HI-TECH Software Omniscient Code Generator (Lite mode) build 49521"
  1944  033E  160A  118A  25B6   	fcall	_adcInit
              120A  118A         
  1945                           opt subtitle "HI-TECH Software Omniscient Code Generator (Lite mode) build 49521"
  1946                           
  1947  0343                     l2498:	
  1948                           opt subtitle "HI-TECH Software Omniscient Code Generator (Lite mode) build 49521"
  1949  0343  3000               	movlw	(0)
  1950  0344  160A  118A  26C0   	fcall	_rfm70setPowerdownMode
              120A  118A         
  1951                           opt subtitle "HI-TECH Software Omniscient Code Generator (Lite mode) build 49521"
  1952                           
  1953  0349                     l2500:	
  1954                           opt subtitle "HI-TECH Software Omniscient Code Generator (Lite mode) build 49521"
  1955  0349  1283               	bcf	status, 5	;RP0=0, select bank0
  1956  034A  1303               	bcf	status, 6	;RP1=0, select bank0
  1957  034B  0808               	movf	(8),w	;volatile
  1958  034C  00CA               	movwf	(??_main+0)+0
  1959  034D  3006               	movlw	06h
  1960  034E                     u1815:
  1961  034E  1003               	clrc
  1962  034F  0CCA               	rrf	(??_main+0)+0,f
  1963  0350  3EFF               	addlw	-1
  1964  0351  1D03               	skipz
  1965  0352  2B4E               	goto	u1815
  1966  0353  084A               	movf	0+(??_main+0)+0,w
  1967  0354  3903               	andlw	03h
  1968  0355  00CB               	movwf	(??_main+1)+0
  1969  0356  084B               	movf	(??_main+1)+0,w
  1970  0357  00DF               	movwf	(_sleep_counter)
  1971                           opt subtitle "HI-TECH Software Omniscient Code Generator (Lite mode) build 49521"
  1972                           
  1973  0358  0063               sleep ;# 
  1974                           opt subtitle "HI-TECH Software Omniscient Code Generator (Lite mode) build 49521"
  1975                           
  1976                           opt pagewidth 120
  1977  0359  2B5C               	goto	l2502
  1978                           opt subtitle "HI-TECH Software Omniscient Code Generator (Lite mode) build 49521"
  1979  035A                     l175:	
  1980                           opt subtitle "HI-TECH Software Omniscient Code Generator (Lite mode) build 49521"
  1981                           
  1982  035A  0063               sleep ;# 
  1983                           opt subtitle "HI-TECH Software Omniscient Code Generator (Lite mode) build 49521"
  1984  035B  2B5C               	goto	l2502
  1985                           opt subtitle "HI-TECH Software Omniscient Code Generator (Lite mode) build 49521"
  1986                           
  1987  035C                     l174:	
  1988                           opt subtitle "HI-TECH Software Omniscient Code Generator (Lite mode) build 49521"
  1989                           
  1990  035C                     l2502:	
  1991  035C  160A  118A  2797   	fcall	_adcReadVcap
              120A  118A         
  1992  0361  1283               	bcf	status, 5	;RP0=0, select bank0
  1993  0362  1303               	bcf	status, 6	;RP1=0, select bank0
  1994  0363  00CA               	movwf	(??_main+0)+0
  1995  0364  3058               	movlw	(058h)
  1996  0365  024A               	subwf	0+(??_main+0)+0,w
  1997  0366  1803               	skipnc
  1998  0367  2B69               	goto	u1821
  1999  0368  2B6A               	goto	u1820
  2000  0369                     u1821:
  2001  0369  2B91               	goto	l2508
  2002  036A                     u1820:
  2003                           opt subtitle "HI-TECH Software Omniscient Code Generator (Lite mode) build 49521"
  2004  036A                     l2504:	
  2005  036A  1A88               	btfsc	(8),5	;volatile
  2006  036B  2B6D               	goto	u1831
  2007  036C  2B6E               	goto	u1830
  2008  036D                     u1831:
  2009  036D  2B91               	goto	l2508
  2010  036E                     u1830:
  2011                           opt subtitle "HI-TECH Software Omniscient Code Generator (Lite mode) build 49521"
  2012  036E                     l2506:	
  2013  036E  120A  158A  2051   	fcall	_adcReadVsupercap
              120A  118A         
  2014  0373  160A  118A  269F   	fcall	___lbtoft
              120A  118A         
  2015  0378  1283               	bcf	status, 5	;RP0=0, select bank0
  2016  0379  1303               	bcf	status, 6	;RP1=0, select bank0
  2017  037A  0828               	movf	(0+(?___lbtoft)),w
  2018  037B  00B0               	movwf	(?___ftge)
  2019  037C  0829               	movf	(1+(?___lbtoft)),w
  2020  037D  00B1               	movwf	(?___ftge+1)
  2021  037E  082A               	movf	(2+(?___lbtoft)),w
  2022  037F  00B2               	movwf	(?___ftge+2)
  2023  0380  3000               	movlw	0x0
  2024  0381  00B3               	movwf	0+(?___ftge)+03h
  2025  0382  3000               	movlw	0x0
  2026  0383  00B4               	movwf	1+(?___ftge)+03h
  2027  0384  3000               	movlw	0x0
  2028  0385  00B5               	movwf	2+(?___ftge)+03h
  2029  0386  120A  158A  21C6   	fcall	___ftge
              120A  118A         
  2030  038B  1C03               	btfss	status,0
  2031  038C  2B8E               	goto	u1841
  2032  038D  2B8F               	goto	u1840
  2033  038E                     u1841:
  2034  038E  2B5A               	goto	l175
  2035  038F                     u1840:
  2036  038F  2B91               	goto	l2508
  2037                           opt subtitle "HI-TECH Software Omniscient Code Generator (Lite mode) build 49521"
  2038  0390                     l177:	
  2039  0390  2B91               	goto	l2508
  2040                           opt subtitle "HI-TECH Software Omniscient Code Generator (Lite mode) build 49521"
  2041  0391                     l178:	
  2042                           opt subtitle "HI-TECH Software Omniscient Code Generator (Lite mode) build 49521"
  2043                           
  2044  0391                     l2508:	
  2045                           opt subtitle "HI-TECH Software Omniscient Code Generator (Lite mode) build 49521"
  2046                           
  2047  0391  120A  118A  2015   	fcall	_RFM70_Initialize
              120A  118A         
  2048                           opt subtitle "HI-TECH Software Omniscient Code Generator (Lite mode) build 49521"
  2049                           
  2050  0396  3000               	movlw	(0)
  2051  0397  160A  118A  26C0   	fcall	_rfm70setPowerdownMode
              120A  118A         
  2052                           opt subtitle "HI-TECH Software Omniscient Code Generator (Lite mode) build 49521"
  2053                           
  2054  039C  0063               sleep ;# 
  2055                           opt subtitle "HI-TECH Software Omniscient Code Generator (Lite mode) build 49521"
  2056                           
  2057                           opt pagewidth 120
  2058  039D                     l2510:	
  2059                           opt subtitle "HI-TECH Software Omniscient Code Generator (Lite mode) build 49521"
  2060  039D  1283               	bcf	status, 5	;RP0=0, select bank0
  2061  039E  1303               	bcf	status, 6	;RP1=0, select bank0
  2062  039F  01D9               	clrf	(_timelapse_count)
  2063  03A0  01DA               	clrf	(_timelapse_count+1)
  2064  03A1  2BA2               	goto	l2512
  2065                           opt subtitle "HI-TECH Software Omniscient Code Generator (Lite mode) build 49521"
  2066                           
  2067                           opt pagewidth 120
  2068  03A2                     l179:	
  2069                           opt subtitle "HI-TECH Software Omniscient Code Generator (Lite mode) build 49521"
  2070                           
  2071  03A2                     l2512:	
  2072                           opt subtitle "HI-TECH Software Omniscient Code Generator (Lite mode) build 49521"
  2073  03A2  3001               	movlw	(01h)
  2074  03A3  160A  118A  26C0   	fcall	_rfm70setPowerdownMode
              120A  118A         
  2075                           opt subtitle "HI-TECH Software Omniscient Code Generator (Lite mode) build 49521"
  2076                           
  2077  03A8                     l2514:	
  2078                           opt subtitle "HI-TECH Software Omniscient Code Generator (Lite mode) build 49521"
  2079  03A8  160A  118A  2797   	fcall	_adcReadVcap
              120A  118A         
  2080  03AD  1283               	bcf	status, 5	;RP0=0, select bank0
  2081  03AE  1303               	bcf	status, 6	;RP1=0, select bank0
  2082  03AF  00CA               	movwf	(??_main+0)+0
  2083  03B0  084A               	movf	(??_main+0)+0,w
  2084  03B1  00E5               	movwf	0+(_tx_buf)+01h
  2085                           opt subtitle "HI-TECH Software Omniscient Code Generator (Lite mode) build 49521"
  2086                           
  2087  03B2                     l2516:	
  2088                           opt subtitle "HI-TECH Software Omniscient Code Generator (Lite mode) build 49521"
  2089  03B2  0859               	movf	(_timelapse_count),w
  2090  03B3  00CA               	movwf	(??_main+0)+0
  2091  03B4  084A               	movf	(??_main+0)+0,w
  2092  03B5  00E6               	movwf	0+(_tx_buf)+02h
  2093                           opt subtitle "HI-TECH Software Omniscient Code Generator (Lite mode) build 49521"
  2094                           
  2095  03B6                     l2518:	
  2096                           opt subtitle "HI-TECH Software Omniscient Code Generator (Lite mode) build 49521"
  2097  03B6  085A               	movf	(_timelapse_count+1),w
  2098  03B7  00CA               	movwf	(??_main+0)+0
  2099  03B8  084A               	movf	(??_main+0)+0,w
  2100  03B9  00E7               	movwf	0+(_tx_buf)+03h
  2101                           opt subtitle "HI-TECH Software Omniscient Code Generator (Lite mode) build 49521"
  2102                           
  2103  03BA                     l2520:	
  2104                           opt subtitle "HI-TECH Software Omniscient Code Generator (Lite mode) build 49521"
  2105  03BA  085D               	movf	(_jumper_stat),w
  2106  03BB  00CA               	movwf	(??_main+0)+0
  2107  03BC  084A               	movf	(??_main+0)+0,w
  2108  03BD  00E8               	movwf	0+(_tx_buf)+04h
  2109                           opt subtitle "HI-TECH Software Omniscient Code Generator (Lite mode) build 49521"
  2110                           
  2111  03BE                     l2522:	
  2112                           opt subtitle "HI-TECH Software Omniscient Code Generator (Lite mode) build 49521"
  2113  03BE  0857               	movf	(_energy),w
  2114  03BF  00CA               	movwf	(??_main+0)+0
  2115  03C0  084A               	movf	(??_main+0)+0,w
  2116  03C1  00E9               	movwf	0+(_tx_buf)+05h
  2117                           opt subtitle "HI-TECH Software Omniscient Code Generator (Lite mode) build 49521"
  2118                           
  2119  03C2                     l2524:	
  2120                           opt subtitle "HI-TECH Software Omniscient Code Generator (Lite mode) build 49521"
  2121  03C2  0858               	movf	(_energy+1),w
  2122  03C3  00CA               	movwf	(??_main+0)+0
  2123  03C4  084A               	movf	(??_main+0)+0,w
  2124  03C5  00EA               	movwf	0+(_tx_buf)+06h
  2125                           opt subtitle "HI-TECH Software Omniscient Code Generator (Lite mode) build 49521"
  2126                           
  2127  03C6                     l2526:	
  2128                           opt subtitle "HI-TECH Software Omniscient Code Generator (Lite mode) build 49521"
  2129  03C6  120A  158A  2051   	fcall	_adcReadVsupercap
              120A  118A         
  2130  03CB  1283               	bcf	status, 5	;RP0=0, select bank0
  2131  03CC  1303               	bcf	status, 6	;RP1=0, select bank0
  2132  03CD  00CA               	movwf	(??_main+0)+0
  2133  03CE  084A               	movf	(??_main+0)+0,w
  2134  03CF  00EB               	movwf	0+(_tx_buf)+07h
  2135                           opt subtitle "HI-TECH Software Omniscient Code Generator (Lite mode) build 49521"
  2136                           
  2137  03D0                     l2528:	
  2138                           opt subtitle "HI-TECH Software Omniscient Code Generator (Lite mode) build 49521"
  2139  03D0  0861               	movf	(_charge_pulse_float),w
  2140  03D1  00A0               	movwf	(?___fttol)
  2141  03D2  0862               	movf	(_charge_pulse_float+1),w
  2142  03D3  00A1               	movwf	(?___fttol+1)
  2143  03D4  0863               	movf	(_charge_pulse_float+2),w
  2144  03D5  00A2               	movwf	(?___fttol+2)
  2145  03D6  120A  158A  2325   	fcall	___fttol
              120A  118A         
  2146  03DB  1283               	bcf	status, 5	;RP0=0, select bank0
  2147  03DC  1303               	bcf	status, 6	;RP1=0, select bank0
  2148  03DD  0820               	movf	0+(((0+(?___fttol)))),w
  2149  03DE  00CA               	movwf	(??_main+0)+0
  2150  03DF  084A               	movf	(??_main+0)+0,w
  2151  03E0  00EC               	movwf	0+(_tx_buf)+08h
  2152                           opt subtitle "HI-TECH Software Omniscient Code Generator (Lite mode) build 49521"
  2153                           
  2154  03E1                     l2530:	
  2155                           opt subtitle "HI-TECH Software Omniscient Code Generator (Lite mode) build 49521"
  2156  03E1  0861               	movf	(_charge_pulse_float),w
  2157  03E2  00A0               	movwf	(?___fttol)
  2158  03E3  0862               	movf	(_charge_pulse_float+1),w
  2159  03E4  00A1               	movwf	(?___fttol+1)
  2160  03E5  0863               	movf	(_charge_pulse_float+2),w
  2161  03E6  00A2               	movwf	(?___fttol+2)
  2162  03E7  120A  158A  2325   	fcall	___fttol
              120A  118A         
  2163  03EC  1283               	bcf	status, 5	;RP0=0, select bank0
  2164  03ED  1303               	bcf	status, 6	;RP1=0, select bank0
  2165  03EE  0821               	movf	1+(((0+(?___fttol)))),w
  2166  03EF  00CA               	movwf	(??_main+0)+0
  2167  03F0  084A               	movf	(??_main+0)+0,w
  2168  03F1  00ED               	movwf	0+(_tx_buf)+09h
  2169                           opt subtitle "HI-TECH Software Omniscient Code Generator (Lite mode) build 49521"
  2170                           
  2171  03F2                     l2532:	
  2172                           opt subtitle "HI-TECH Software Omniscient Code Generator (Lite mode) build 49521"
  2173  03F2  3059               	movlw	(059h)
  2174  03F3  0265               	subwf	0+(_tx_buf)+01h,w
  2175  03F4  1803               	skipnc
  2176  03F5  2BF7               	goto	u1851
  2177  03F6  2BF8               	goto	u1850
  2178  03F7                     u1851:
  2179  03F7  2BFD               	goto	l2536
  2180  03F8                     u1850:
  2181                           opt subtitle "HI-TECH Software Omniscient Code Generator (Lite mode) build 49521"
  2182  03F8                     l2534:	
  2183  03F8  1E88               	btfss	(8),5	;volatile
  2184  03F9  2BFB               	goto	u1861
  2185  03FA  2BFC               	goto	u1860
  2186  03FB                     u1861:
  2187  03FB  2C1F               	goto	l2546
  2188  03FC                     u1860:
  2189  03FC  2BFD               	goto	l2536
  2190                           opt subtitle "HI-TECH Software Omniscient Code Generator (Lite mode) build 49521"
  2191  03FD                     l182:	
  2192                           opt subtitle "HI-TECH Software Omniscient Code Generator (Lite mode) build 49521"
  2193                           
  2194  03FD                     l2536:	
  2195                           opt subtitle "HI-TECH Software Omniscient Code Generator (Lite mode) build 49521"
  2196  03FD  120A  158A  2019   	fcall	_adcReadTemp
              120A  118A         
  2197  0402  1283               	bcf	status, 5	;RP0=0, select bank0
  2198  0403  1303               	bcf	status, 6	;RP1=0, select bank0
  2199  0404  00CA               	movwf	(??_main+0)+0
  2200  0405  084A               	movf	(??_main+0)+0,w
  2201  0406  00E4               	movwf	(_tx_buf)
  2202                           opt subtitle "HI-TECH Software Omniscient Code Generator (Lite mode) build 49521"
  2203                           
  2204  0407                     l2538:	
  2205                           opt subtitle "HI-TECH Software Omniscient Code Generator (Lite mode) build 49521"
  2206  0407  17DD               	bsf	(_jumper_stat)+(7/8),(7)&7
  2207                           opt subtitle "HI-TECH Software Omniscient Code Generator (Lite mode) build 49521"
  2208                           
  2209  0408                     l2540:	
  2210                           opt subtitle "HI-TECH Software Omniscient Code Generator (Lite mode) build 49521"
  2211  0408  085D               	movf	(_jumper_stat),w
  2212  0409  00CA               	movwf	(??_main+0)+0
  2213  040A  084A               	movf	(??_main+0)+0,w
  2214  040B  00E8               	movwf	0+(_tx_buf)+04h
  2215                           opt subtitle "HI-TECH Software Omniscient Code Generator (Lite mode) build 49521"
  2216                           
  2217  040C                     l2542:	
  2218                           opt subtitle "HI-TECH Software Omniscient Code Generator (Lite mode) build 49521"
  2219  040C  3064               	movlw	(_tx_buf)&0ffh
  2220  040D  00CA               	movwf	(??_main+0)+0
  2221  040E  084A               	movf	(??_main+0)+0,w
  2222  040F  00BE               	movwf	(?_Send_Packet)
  2223  0410  300A               	movlw	(0Ah)
  2224  0411  00CB               	movwf	(??_main+1)+0
  2225  0412  084B               	movf	(??_main+1)+0,w
  2226  0413  00BF               	movwf	0+(?_Send_Packet)+01h
  2227  0414  30B0               	movlw	(0B0h)
  2228  0415  120A  158A  23CB   	fcall	_Send_Packet
              120A  118A         
  2229                           opt subtitle "HI-TECH Software Omniscient Code Generator (Lite mode) build 49521"
  2230                           
  2231  041A                     l2544:	
  2232                           opt subtitle "HI-TECH Software Omniscient Code Generator (Lite mode) build 49521"
  2233  041A  1283               	bcf	status, 5	;RP0=0, select bank0
  2234  041B  1303               	bcf	status, 6	;RP1=0, select bank0
  2235  041C  01D7               	clrf	(_energy)
  2236  041D  01D8               	clrf	(_energy+1)
  2237                           opt subtitle "HI-TECH Software Omniscient Code Generator (Lite mode) build 49521"
  2238                           
  2239  041E  2CE0               	goto	l2586
  2240                           opt subtitle "HI-TECH Software Omniscient Code Generator (Lite mode) build 49521"
  2241                           
  2242  041F                     l180:	
  2243                           opt subtitle "HI-TECH Software Omniscient Code Generator (Lite mode) build 49521"
  2244                           
  2245  041F                     l2546:	
  2246                           opt subtitle "HI-TECH Software Omniscient Code Generator (Lite mode) build 49521"
  2247                           
  2248  041F  3000               	movlw	0x0
  2249  0420  00B0               	movwf	(?___ftge)
  2250  0421  3000               	movlw	0x0
  2251  0422  00B1               	movwf	(?___ftge+1)
  2252  0423  3000               	movlw	0x0
  2253  0424  00B2               	movwf	(?___ftge+2)
  2254  0425  086B               	movf	0+(_tx_buf)+07h,w
  2255  0426  160A  118A  269F   	fcall	___lbtoft
              120A  118A         
  2256  042B  1283               	bcf	status, 5	;RP0=0, select bank0
  2257  042C  1303               	bcf	status, 6	;RP1=0, select bank0
  2258  042D  0828               	movf	(0+(?___lbtoft)),w
  2259  042E  00B3               	movwf	0+(?___ftge)+03h
  2260  042F  0829               	movf	(1+(?___lbtoft)),w
  2261  0430  00B4               	movwf	1+(?___ftge)+03h
  2262  0431  082A               	movf	(2+(?___lbtoft)),w
  2263  0432  00B5               	movwf	2+(?___ftge)+03h
  2264  0433  120A  158A  21C6   	fcall	___ftge
              120A  118A         
  2265  0438  1803               	btfsc	status,0
  2266  0439  2C3B               	goto	u1871
  2267  043A  2C3C               	goto	u1870
  2268  043B                     u1871:
  2269  043B  2C7F               	goto	l2568
  2270  043C                     u1870:
  2271                           opt subtitle "HI-TECH Software Omniscient Code Generator (Lite mode) build 49521"
  2272  043C                     l2548:	
  2273  043C  1283               	bcf	status, 5	;RP0=0, select bank0
  2274  043D  1303               	bcf	status, 6	;RP1=0, select bank0
  2275  043E  0865               	movf	0+(_tx_buf)+01h,w
  2276  043F  0260               	subwf	(_value),w
  2277  0440  1C03               	skipc
  2278  0441  2C43               	goto	u1881
  2279  0442  2C44               	goto	u1880
  2280  0443                     u1881:
  2281  0443  2C7F               	goto	l2568
  2282  0444                     u1880:
  2283                           opt subtitle "HI-TECH Software Omniscient Code Generator (Lite mode) build 49521"
  2284  0444                     l2550:	
  2285  0444  1806               	btfsc	(6),0	;volatile
  2286  0445  2C47               	goto	u1891
  2287  0446  2C48               	goto	u1890
  2288  0447                     u1891:
  2289  0447  2C7F               	goto	l2568
  2290  0448                     u1890:
  2291                           opt subtitle "HI-TECH Software Omniscient Code Generator (Lite mode) build 49521"
  2292                           
  2293  0448                     l2552:	
  2294                           opt subtitle "HI-TECH Software Omniscient Code Generator (Lite mode) build 49521"
  2295  0448  1105               	bcf	(5),2	;volatile
  2296                           opt subtitle "HI-TECH Software Omniscient Code Generator (Lite mode) build 49521"
  2297                           
  2298  0449                     l2554:	
  2299                           opt subtitle "HI-TECH Software Omniscient Code Generator (Lite mode) build 49521"
  2300  0449  120A  158A  2019   	fcall	_adcReadTemp
              120A  118A         
  2301  044E  1283               	bcf	status, 5	;RP0=0, select bank0
  2302  044F  1303               	bcf	status, 6	;RP1=0, select bank0
  2303  0450  00CA               	movwf	(??_main+0)+0
  2304  0451  084A               	movf	(??_main+0)+0,w
  2305  0452  00E4               	movwf	(_tx_buf)
  2306                           opt subtitle "HI-TECH Software Omniscient Code Generator (Lite mode) build 49521"
  2307                           
  2308  0453  120A  158A  2051   	fcall	_adcReadVsupercap
              120A  118A         
  2309  0458  1283               	bcf	status, 5	;RP0=0, select bank0
  2310  0459  1303               	bcf	status, 6	;RP1=0, select bank0
  2311  045A  00CA               	movwf	(??_main+0)+0
  2312  045B  084A               	movf	(??_main+0)+0,w
  2313  045C  00EB               	movwf	0+(_tx_buf)+07h
  2314                           opt subtitle "HI-TECH Software Omniscient Code Generator (Lite mode) build 49521"
  2315                           
  2316  045D                     l2556:	
  2317                           opt subtitle "HI-TECH Software Omniscient Code Generator (Lite mode) build 49521"
  2318  045D  307F               	movlw	(07Fh)
  2319  045E  00CA               	movwf	(??_main+0)+0
  2320  045F  084A               	movf	(??_main+0)+0,w
  2321  0460  05DD               	andwf	(_jumper_stat),f
  2322                           opt subtitle "HI-TECH Software Omniscient Code Generator (Lite mode) build 49521"
  2323                           
  2324  0461                     l2558:	
  2325                           opt subtitle "HI-TECH Software Omniscient Code Generator (Lite mode) build 49521"
  2326  0461  085D               	movf	(_jumper_stat),w
  2327  0462  00CA               	movwf	(??_main+0)+0
  2328  0463  084A               	movf	(??_main+0)+0,w
  2329  0464  00E8               	movwf	0+(_tx_buf)+04h
  2330                           opt subtitle "HI-TECH Software Omniscient Code Generator (Lite mode) build 49521"
  2331                           
  2332  0465                     l2560:	
  2333                           opt subtitle "HI-TECH Software Omniscient Code Generator (Lite mode) build 49521"
  2334  0465  3064               	movlw	(_tx_buf)&0ffh
  2335  0466  00CA               	movwf	(??_main+0)+0
  2336  0467  084A               	movf	(??_main+0)+0,w
  2337  0468  00BE               	movwf	(?_Send_Packet)
  2338  0469  300A               	movlw	(0Ah)
  2339  046A  00CB               	movwf	(??_main+1)+0
  2340  046B  084B               	movf	(??_main+1)+0,w
  2341  046C  00BF               	movwf	0+(?_Send_Packet)+01h
  2342  046D  30B0               	movlw	(0B0h)
  2343  046E  120A  158A  23CB   	fcall	_Send_Packet
              120A  118A         
  2344                           opt subtitle "HI-TECH Software Omniscient Code Generator (Lite mode) build 49521"
  2345                           
  2346  0473                     l2562:	
  2347                           opt subtitle "HI-TECH Software Omniscient Code Generator (Lite mode) build 49521"
  2348  0473  1283               	bcf	status, 5	;RP0=0, select bank0
  2349  0474  1303               	bcf	status, 6	;RP1=0, select bank0
  2350  0475  1505               	bsf	(5),2	;volatile
  2351                           opt subtitle "HI-TECH Software Omniscient Code Generator (Lite mode) build 49521"
  2352                           
  2353  0476                     l2564:	
  2354                           opt subtitle "HI-TECH Software Omniscient Code Generator (Lite mode) build 49521"
  2355  0476  3000               	movlw	0x0
  2356  0477  00E1               	movwf	(_charge_pulse_float)
  2357  0478  3020               	movlw	0x20
  2358  0479  00E2               	movwf	(_charge_pulse_float+1)
  2359  047A  3041               	movlw	0x41
  2360  047B  00E3               	movwf	(_charge_pulse_float+2)
  2361                           opt subtitle "HI-TECH Software Omniscient Code Generator (Lite mode) build 49521"
  2362                           
  2363  047C                     l2566:	
  2364                           opt subtitle "HI-TECH Software Omniscient Code Generator (Lite mode) build 49521"
  2365  047C  01D7               	clrf	(_energy)
  2366  047D  01D8               	clrf	(_energy+1)
  2367                           opt subtitle "HI-TECH Software Omniscient Code Generator (Lite mode) build 49521"
  2368                           
  2369  047E  2CE0               	goto	l2586
  2370                           opt subtitle "HI-TECH Software Omniscient Code Generator (Lite mode) build 49521"
  2371                           
  2372  047F                     l184:	
  2373                           opt subtitle "HI-TECH Software Omniscient Code Generator (Lite mode) build 49521"
  2374  047F                     l2568:	
  2375                           opt subtitle "HI-TECH Software Omniscient Code Generator (Lite mode) build 49521"
  2376  047F  3000               	movlw	0x0
  2377  0480  1283               	bcf	status, 5	;RP0=0, select bank0
  2378  0481  1303               	bcf	status, 6	;RP1=0, select bank0
  2379  0482  00B0               	movwf	(?___ftge)
  2380  0483  3000               	movlw	0x0
  2381  0484  00B1               	movwf	(?___ftge+1)
  2382  0485  3000               	movlw	0x0
  2383  0486  00B2               	movwf	(?___ftge+2)
  2384  0487  086B               	movf	0+(_tx_buf)+07h,w
  2385  0488  160A  118A  269F   	fcall	___lbtoft
              120A  118A         
  2386  048D  1283               	bcf	status, 5	;RP0=0, select bank0
  2387  048E  1303               	bcf	status, 6	;RP1=0, select bank0
  2388  048F  0828               	movf	(0+(?___lbtoft)),w
  2389  0490  00B3               	movwf	0+(?___ftge)+03h
  2390  0491  0829               	movf	(1+(?___lbtoft)),w
  2391  0492  00B4               	movwf	1+(?___ftge)+03h
  2392  0493  082A               	movf	(2+(?___lbtoft)),w
  2393  0494  00B5               	movwf	2+(?___ftge)+03h
  2394  0495  120A  158A  21C6   	fcall	___ftge
              120A  118A         
  2395  049A  1803               	btfsc	status,0
  2396  049B  2C9D               	goto	u1901
  2397  049C  2C9E               	goto	u1900
  2398  049D                     u1901:
  2399  049D  2CCB               	goto	l2584
  2400  049E                     u1900:
  2401                           opt subtitle "HI-TECH Software Omniscient Code Generator (Lite mode) build 49521"
  2402  049E                     l2570:	
  2403  049E  1283               	bcf	status, 5	;RP0=0, select bank0
  2404  049F  1303               	bcf	status, 6	;RP1=0, select bank0
  2405  04A0  0865               	movf	0+(_tx_buf)+01h,w
  2406  04A1  0260               	subwf	(_value),w
  2407  04A2  1C03               	skipc
  2408  04A3  2CA5               	goto	u1911
  2409  04A4  2CA6               	goto	u1910
  2410  04A5                     u1911:
  2411  04A5  2CCB               	goto	l2584
  2412  04A6                     u1910:
  2413                           opt subtitle "HI-TECH Software Omniscient Code Generator (Lite mode) build 49521"
  2414  04A6                     l2572:	
  2415  04A6  1C06               	btfss	(6),0	;volatile
  2416  04A7  2CA9               	goto	u1921
  2417  04A8  2CAA               	goto	u1920
  2418  04A9                     u1921:
  2419  04A9  2CCB               	goto	l2584
  2420  04AA                     u1920:
  2421                           opt subtitle "HI-TECH Software Omniscient Code Generator (Lite mode) build 49521"
  2422                           
  2423  04AA                     l2574:	
  2424                           opt subtitle "HI-TECH Software Omniscient Code Generator (Lite mode) build 49521"
  2425  04AA  307F               	movlw	(07Fh)
  2426  04AB  00CA               	movwf	(??_main+0)+0
  2427  04AC  084A               	movf	(??_main+0)+0,w
  2428  04AD  05DD               	andwf	(_jumper_stat),f
  2429                           opt subtitle "HI-TECH Software Omniscient Code Generator (Lite mode) build 49521"
  2430                           
  2431  04AE                     l2576:	
  2432                           opt subtitle "HI-TECH Software Omniscient Code Generator (Lite mode) build 49521"
  2433  04AE  085D               	movf	(_jumper_stat),w
  2434  04AF  00CA               	movwf	(??_main+0)+0
  2435  04B0  084A               	movf	(??_main+0)+0,w
  2436  04B1  00E8               	movwf	0+(_tx_buf)+04h
  2437                           opt subtitle "HI-TECH Software Omniscient Code Generator (Lite mode) build 49521"
  2438                           
  2439  04B2                     l2578:	
  2440                           opt subtitle "HI-TECH Software Omniscient Code Generator (Lite mode) build 49521"
  2441  04B2  3064               	movlw	(_tx_buf)&0ffh
  2442  04B3  00CA               	movwf	(??_main+0)+0
  2443  04B4  084A               	movf	(??_main+0)+0,w
  2444  04B5  00BE               	movwf	(?_Send_Packet)
  2445  04B6  300A               	movlw	(0Ah)
  2446  04B7  00CB               	movwf	(??_main+1)+0
  2447  04B8  084B               	movf	(??_main+1)+0,w
  2448  04B9  00BF               	movwf	0+(?_Send_Packet)+01h
  2449  04BA  30B0               	movlw	(0B0h)
  2450  04BB  120A  158A  23CB   	fcall	_Send_Packet
              120A  118A         
  2451                           opt subtitle "HI-TECH Software Omniscient Code Generator (Lite mode) build 49521"
  2452                           
  2453  04C0                     l2580:	
  2454                           opt subtitle "HI-TECH Software Omniscient Code Generator (Lite mode) build 49521"
  2455  04C0  3000               	movlw	0x0
  2456  04C1  1283               	bcf	status, 5	;RP0=0, select bank0
  2457  04C2  1303               	bcf	status, 6	;RP1=0, select bank0
  2458  04C3  00E1               	movwf	(_charge_pulse_float)
  2459  04C4  3020               	movlw	0x20
  2460  04C5  00E2               	movwf	(_charge_pulse_float+1)
  2461  04C6  3041               	movlw	0x41
  2462  04C7  00E3               	movwf	(_charge_pulse_float+2)
  2463                           opt subtitle "HI-TECH Software Omniscient Code Generator (Lite mode) build 49521"
  2464                           
  2465  04C8                     l2582:	
  2466                           opt subtitle "HI-TECH Software Omniscient Code Generator (Lite mode) build 49521"
  2467  04C8  01D7               	clrf	(_energy)
  2468  04C9  01D8               	clrf	(_energy+1)
  2469                           opt subtitle "HI-TECH Software Omniscient Code Generator (Lite mode) build 49521"
  2470                           
  2471  04CA  2CE0               	goto	l2586
  2472                           opt subtitle "HI-TECH Software Omniscient Code Generator (Lite mode) build 49521"
  2473                           
  2474  04CB                     l186:	
  2475                           opt subtitle "HI-TECH Software Omniscient Code Generator (Lite mode) build 49521"
  2476                           
  2477  04CB                     l2584:	
  2478                           opt subtitle "HI-TECH Software Omniscient Code Generator (Lite mode) build 49521"
  2479                           
  2480  04CB  30A3               	movlw	low(STR_1|8000h)
  2481  04CC  1283               	bcf	status, 5	;RP0=0, select bank0
  2482  04CD  1303               	bcf	status, 6	;RP1=0, select bank0
  2483  04CE  00AE               	movwf	(?_printf)
  2484  04CF  3087               	movlw	high(STR_1|8000h)
  2485  04D0  00AF               	movwf	((?_printf))+1
  2486  04D1  0865               	movf	0+(_tx_buf)+01h,w
  2487  04D2  00CA               	movwf	(??_main+0)+0+0
  2488  04D3  01CB               	clrf	(??_main+0)+0+1
  2489  04D4  084A               	movf	0+(??_main+0)+0,w
  2490  04D5  00B0               	movwf	0+(?_printf)+02h
  2491  04D6  084B               	movf	1+(??_main+0)+0,w
  2492  04D7  00B1               	movwf	1+(?_printf)+02h
  2493  04D8  120A  118A  2550   	fcall	_printf
              120A  118A         
  2494  04DD  2CE0               	goto	l2586
  2495                           opt subtitle "HI-TECH Software Omniscient Code Generator (Lite mode) build 49521"
  2496                           
  2497  04DE                     l187:	
  2498  04DE  2CE0               	goto	l2586
  2499                           opt subtitle "HI-TECH Software Omniscient Code Generator (Lite mode) build 49521"
  2500  04DF                     l185:	
  2501  04DF  2CE0               	goto	l2586
  2502                           opt subtitle "HI-TECH Software Omniscient Code Generator (Lite mode) build 49521"
  2503                           
  2504  04E0                     l183:	
  2505                           opt subtitle "HI-TECH Software Omniscient Code Generator (Lite mode) build 49521"
  2506                           
  2507  04E0                     l2586:	
  2508                           opt subtitle "HI-TECH Software Omniscient Code Generator (Lite mode) build 49521"
  2509                           
  2510                           opt pagewidth 120
  2511  04E0  1283               	bcf	status, 5	;RP0=0, select bank0
  2512  04E1  1303               	bcf	status, 6	;RP1=0, select bank0
  2513  04E2  1107               	bcf	(7),2	;volatile
  2514                           opt subtitle "HI-TECH Software Omniscient Code Generator (Lite mode) build 49521"
  2515                           
  2516  04E3  3000               	movlw	(0)
  2517  04E4  160A  118A  26C0   	fcall	_rfm70setPowerdownMode
              120A  118A         
  2518                           opt subtitle "HI-TECH Software Omniscient Code Generator (Lite mode) build 49521"
  2519                           
  2520  04E9                     l2588:	
  2521                           opt subtitle "HI-TECH Software Omniscient Code Generator (Lite mode) build 49521"
  2522  04E9  1283               	bcf	status, 5	;RP0=0, select bank0
  2523  04EA  1303               	bcf	status, 6	;RP1=0, select bank0
  2524  04EB  1010               	bcf	(16),0	;volatile
  2525                           opt subtitle "HI-TECH Software Omniscient Code Generator (Lite mode) build 49521"
  2526                           
  2527  04EC                     l2590:	
  2528                           opt subtitle "HI-TECH Software Omniscient Code Generator (Lite mode) build 49521"
  2529  04EC  3010               	movlw	(010h)
  2530  04ED  008F               	movwf	(15)	;volatile
  2531                           opt subtitle "HI-TECH Software Omniscient Code Generator (Lite mode) build 49521"
  2532                           
  2533  04EE                     l2592:	
  2534                           opt subtitle "HI-TECH Software Omniscient Code Generator (Lite mode) build 49521"
  2535  04EE  018E               	clrf	(14)	;volatile
  2536                           opt subtitle "HI-TECH Software Omniscient Code Generator (Lite mode) build 49521"
  2537                           
  2538  04EF                     l2594:	
  2539                           opt subtitle "HI-TECH Software Omniscient Code Generator (Lite mode) build 49521"
  2540  04EF  1410               	bsf	(16),0	;volatile
  2541                           opt subtitle "HI-TECH Software Omniscient Code Generator (Lite mode) build 49521"
  2542                           
  2543  04F0                     l2596:	
  2544                           opt subtitle "HI-TECH Software Omniscient Code Generator (Lite mode) build 49521"
  2545  04F0  160A  118A  2797   	fcall	_adcReadVcap
              120A  118A         
  2546  04F5  1283               	bcf	status, 5	;RP0=0, select bank0
  2547  04F6  1303               	bcf	status, 6	;RP1=0, select bank0
  2548  04F7  00CA               	movwf	(??_main+0)+0
  2549  04F8  084A               	movf	(??_main+0)+0,w
  2550  04F9  00E0               	movwf	(_value)
  2551                           opt subtitle "HI-TECH Software Omniscient Code Generator (Lite mode) build 49521"
  2552                           
  2553  04FA                     l2598:	
  2554                           opt subtitle "HI-TECH Software Omniscient Code Generator (Lite mode) build 49521"
  2555  04FA  01D2               	clrf	(main@num_sleep)
  2556                           opt subtitle "HI-TECH Software Omniscient Code Generator (Lite mode) build 49521"
  2557                           
  2558  04FB  2D39               	goto	l2604
  2559                           opt subtitle "HI-TECH Software Omniscient Code Generator (Lite mode) build 49521"
  2560  04FC                     l189:	
  2561                           opt subtitle "HI-TECH Software Omniscient Code Generator (Lite mode) build 49521"
  2562                           
  2563  04FC                     l2600:	
  2564                           opt subtitle "HI-TECH Software Omniscient Code Generator (Lite mode) build 49521"
  2565  04FC  120A  158A  2700   	fcall	_sleep
              120A  118A         
  2566                           opt subtitle "HI-TECH Software Omniscient Code Generator (Lite mode) build 49521"
  2567                           
  2568  0501                     l2602:	
  2569                           opt subtitle "HI-TECH Software Omniscient Code Generator (Lite mode) build 49521"
  2570  0501  1283               	bcf	status, 5	;RP0=0, select bank0
  2571  0502  1303               	bcf	status, 6	;RP1=0, select bank0
  2572  0503  085E               	movf	(_sleep_count),w
  2573  0504  00CA               	movwf	(??_main+0)+0+0
  2574  0505  01CB               	clrf	(??_main+0)+0+1
  2575  0506  084A               	movf	0+(??_main+0)+0,w
  2576  0507  00A6               	movwf	(?___awdiv)
  2577  0508  084B               	movf	1+(??_main+0)+0,w
  2578  0509  00A7               	movwf	(?___awdiv+1)
  2579  050A  085C               	movf	0+(_values)+01h,w
  2580  050B  00CC               	movwf	(??_main+2)+0+0
  2581  050C  01CD               	clrf	(??_main+2)+0+1
  2582  050D  09CC               	comf	(??_main+2)+0,f
  2583  050E  09CD               	comf	(??_main+2)+1,f
  2584  050F  0ACC               	incf	(??_main+2)+0,f
  2585  0510  1903               	skipnz
  2586  0511  0ACD               	incf	(??_main+2)+1,f
  2587  0512  085B               	movf	(_values),w
  2588  0513  074C               	addwf	0+(??_main+2)+0,w
  2589  0514  00A0               	movwf	(?___wmul)
  2590  0515  084D               	movf	1+(??_main+2)+0,w
  2591  0516  1803               	skipnc
  2592  0517  0A4D               	incf	1+(??_main+2)+0,w
  2593  0518  00A1               	movwf	((?___wmul))+1
  2594  0519  085B               	movf	(_values),w
  2595  051A  075C               	addwf	0+(_values)+01h,w
  2596  051B  00A2               	movwf	0+(?___wmul)+02h
  2597  051C  01A3               	clrf	0+(?___wmul)+02h+1
  2598  051D  0DA3               	rlf	1+0+(?___wmul)+02h,f
  2599                           opt subtitle "HI-TECH Software Omniscient Code Generator (Lite mode) build 49521"
  2600  051E  160A  118A  2739   	fcall	___wmul
              120A  118A         
  2601  0523  1283               	bcf	status, 5	;RP0=0, select bank0
  2602  0524  1303               	bcf	status, 6	;RP1=0, select bank0
  2603  0525  0821               	movf	(1+(?___wmul)),w
  2604  0526  01A9               	clrf	1+(?___awdiv)+02h
  2605  0527  07A9               	addwf	1+(?___awdiv)+02h
  2606  0528  0820               	movf	(0+(?___wmul)),w
  2607  0529  01A8               	clrf	0+(?___awdiv)+02h
  2608  052A  07A8               	addwf	0+(?___awdiv)+02h
  2609                           opt subtitle "HI-TECH Software Omniscient Code Generator (Lite mode) build 49521"
  2610  052B  120A  158A  2234   	fcall	___awdiv
              120A  118A         
  2611  0530  1283               	bcf	status, 5	;RP0=0, select bank0
  2612  0531  1303               	bcf	status, 6	;RP1=0, select bank0
  2613  0532  0826               	movf	(0+(?___awdiv)),w
  2614  0533  07D7               	addwf	(_energy),f
  2615  0534  1803               	skipnc
  2616  0535  0AD8               	incf	(_energy+1),f
  2617  0536  0827               	movf	(1+(?___awdiv)),w
  2618  0537  07D8               	addwf	(_energy+1),f
  2619  0538  2D39               	goto	l2604
  2620                           opt subtitle "HI-TECH Software Omniscient Code Generator (Lite mode) build 49521"
  2621                           
  2622  0539                     l188:	
  2623                           opt subtitle "HI-TECH Software Omniscient Code Generator (Lite mode) build 49521"
  2624                           
  2625  0539                     l2604:	
  2626  0539  3001               	movlw	01h
  2627  053A  07D2               	addwf	(main@num_sleep),f
  2628  053B  30FF               	movlw	-01h
  2629  053C  0752               	addwf	(main@num_sleep),w
  2630  053D  00CA               	movwf	(??_main+0)+0
  2631  053E  085E               	movf	(_sleep_count),w
  2632  053F  024A               	subwf	(??_main+0)+0,w
  2633  0540  1C03               	skipc
  2634  0541  2D43               	goto	u1931
  2635  0542  2D44               	goto	u1930
  2636  0543                     u1931:
  2637  0543  2CFC               	goto	l2600
  2638  0544                     u1930:
  2639  0544  2D45               	goto	l2606
  2640                           opt subtitle "HI-TECH Software Omniscient Code Generator (Lite mode) build 49521"
  2641  0545                     l190:	
  2642                           opt subtitle "HI-TECH Software Omniscient Code Generator (Lite mode) build 49521"
  2643                           
  2644  0545                     l2606:	
  2645                           opt subtitle "HI-TECH Software Omniscient Code Generator (Lite mode) build 49521"
  2646                           
  2647  0545  3001               	movlw	low(01h)
  2648  0546  07D9               	addwf	(_timelapse_count),f
  2649  0547  1803               	skipnc
  2650  0548  0ADA               	incf	(_timelapse_count+1),f
  2651  0549  3000               	movlw	high(01h)
  2652  054A  07DA               	addwf	(_timelapse_count+1),f
  2653  054B  2BA2               	goto	l2512
  2654                           opt subtitle "HI-TECH Software Omniscient Code Generator (Lite mode) build 49521"
  2655                           
  2656  054C                     l191:	
  2657                           opt subtitle "HI-TECH Software Omniscient Code Generator (Lite mode) build 49521"
  2658  054C  2BA2               	goto	l2512
  2659                           opt subtitle "HI-TECH Software Omniscient Code Generator (Lite mode) build 49521"
  2660  054D                     l192:	
  2661                           opt subtitle "HI-TECH Software Omniscient Code Generator (Lite mode) build 49521"
  2662                           
  2663                           opt pagewidth 120
  2664                           
  2665                           	opt lm
  2666  054D                     l193:	
  2667                           opt subtitle "HI-TECH Software Omniscient Code Generator (Lite mode) build 49521"
  2668  054D  120A  118A  2812   	ljmp	start
  2669                           opt subtitle "HI-TECH Software Omniscient Code Generator (Lite mode) build 49521"
  2670                           
  2671  0550                     	__end_of_main:
  2672                           opt subtitle "HI-TECH Software Omniscient Code Generator (Lite mode) build 49521"
  2673                           
  2674                           opt pagewidth 120
  2675                           
  2676                           	opt lm
  2677                           
  2678                           	processor	16LF707
  2679                           clrc	macro
  2680                           	bcf	3,0
  2681                           	endm
  2682                           clrz	macro
  2683                           	bcf	3,2
  2684                           	endm
  2685                           setc	macro
  2686                           	bsf	3,0
  2687                           	endm
  2688                           setz	macro
  2689                           	bsf	3,2
  2690                           	endm
  2691                           skipc	macro
  2692                           	btfss	3,0
  2693                           	endm
  2694                           skipz	macro
  2695                           	btfss	3,2
  2696                           	endm
  2697                           skipnc	macro
  2698                           	btfsc	3,0
  2699                           	endm
  2700                           skipnz	macro
  2701                           	btfsc	3,2
  2702                           	endm
  2703                           indf	equ	0
  2704                           indf0	equ	0
  2705                           pc	equ	2
  2706                           pcl	equ	2
  2707                           status	equ	3
  2708                           fsr	equ	4
  2709                           fsr0	equ	4
  2710                           c	equ	1
  2711  0015                     __ptext754:	;psect for function _RFM70_Initialize
  2712                           opt subtitle "HI-TECH Software Omniscient Code Generator (Lite mode) build 49521"
  2713                           
  2714                           opt pagewidth 120
  2715                           
  2716  0310                     	__size_of_RFM70_Initialize	equ	__end_of_RFM70_Initialize-_RFM70_Initialize
  2717                           opt subtitle "HI-TECH Software Omniscient Code Generator (Lite mode) build 49521"
  2718  0015                     _RFM70_Initialize:	
  2719                           opt subtitle "HI-TECH Software Omniscient Code Generator (Lite mode) build 49521"
  2720                           
  2721                           opt pagewidth 120
  2722                           
  2723  0015                     l2874:	
  2724                           opt subtitle "HI-TECH Software Omniscient Code Generator (Lite mode) build 49521"
  2725                           
  2726                           opt pagewidth 120
  2727                           
  2728  0015  3003               movlw  3
  2729  0016  1283               	bcf	status, 5	;RP0=0, select bank0
  2730  0017  1303               	bcf	status, 6	;RP1=0, select bank0
  2731  0018  00AB               movwf	((??_RFM70_Initialize+0)+0+2),f
  2732  0019  3008               movlw	8
  2733  001A  00AA               movwf	((??_RFM70_Initialize+0)+0+1),f
  2734  001B  3078               	movlw	120
  2735  001C  00A9               movwf	((??_RFM70_Initialize+0)+0),f
  2736  001D                     u3477:
  2737  001D  0BA9               	decfsz	((??_RFM70_Initialize+0)+0),f
  2738  001E  281D               	goto	u3477
  2739  001F  0BAA               	decfsz	((??_RFM70_Initialize+0)+0+1),f
  2740  0020  281D               	goto	u3477
  2741  0021  0BAB               	decfsz	((??_RFM70_Initialize+0)+0+2),f
  2742  0022  281D               	goto	u3477
  2743                           opt subtitle "HI-TECH Software Omniscient Code Generator (Lite mode) build 49521"
  2744                           
  2745                           opt pagewidth 120
  2746                           
  2747  0023                     l2876:	
  2748                           opt subtitle "HI-TECH Software Omniscient Code Generator (Lite mode) build 49521"
  2749  0023  3000               	movlw	(0)
  2750  0024  160A  118A  2765   	fcall	_SwitchCFG
              120A  118A         
  2751                           opt subtitle "HI-TECH Software Omniscient Code Generator (Lite mode) build 49521"
  2752                           
  2753  0029                     l2878:	
  2754                           opt subtitle "HI-TECH Software Omniscient Code Generator (Lite mode) build 49521"
  2755  0029  1283               	bcf	status, 5	;RP0=0, select bank0
  2756  002A  1303               	bcf	status, 6	;RP1=0, select bank0
  2757  002B  01BC               	clrf	(RFM70_Initialize@i)
  2758                           opt subtitle "HI-TECH Software Omniscient Code Generator (Lite mode) build 49521"
  2759  002C                     l2880:	
  2760  002C  3014               	movlw	(014h)
  2761  002D  023C               	subwf	(RFM70_Initialize@i),w
  2762  002E  1C03               	skipc
  2763  002F  2831               	goto	u1981
  2764  0030  2832               	goto	u1980
  2765  0031                     u1981:
  2766  0031  2834               	goto	l2884
  2767  0032                     u1980:
  2768  0032  2864               	goto	l359
  2769                           opt subtitle "HI-TECH Software Omniscient Code Generator (Lite mode) build 49521"
  2770  0033                     l2882:	
  2771  0033  2864               	goto	l359
  2772                           opt subtitle "HI-TECH Software Omniscient Code Generator (Lite mode) build 49521"
  2773                           
  2774  0034                     l358:	
  2775                           opt subtitle "HI-TECH Software Omniscient Code Generator (Lite mode) build 49521"
  2776                           
  2777  0034                     l2884:	
  2778                           opt subtitle "HI-TECH Software Omniscient Code Generator (Lite mode) build 49521"
  2779                           
  2780  0034  1403               	setc
  2781  0035  0D3C               	rlf	(RFM70_Initialize@i),w
  2782  0036  3E4A               	addlw	low(_Bank0_Reg|8000h)
  2783  0037  0084               	movwf	fsr0
  2784  0038  3087               	movlw	high(_Bank0_Reg|8000h)
  2785  0039  1803               	skipnc
  2786  003A  3E01               	addlw	1
  2787  003B  00FF               	movwf	btemp+1
  2788  003C  120A  118A  2700   	fcall	stringtab
              120A  118A         
  2789  0041  00A9               	movwf	(??_RFM70_Initialize+0)+0
  2790  0042  0829               	movf	(??_RFM70_Initialize+0)+0,w
  2791  0043  00A3               	movwf	(?_SPI_Write_Reg)
  2792  0044  083C               	movf	(RFM70_Initialize@i),w
  2793  0045  00AA               	movwf	(??_RFM70_Initialize+1)+0
  2794  0046  072A               	addwf	(??_RFM70_Initialize+1)+0,w
  2795  0047  3E4A               	addlw	low(_Bank0_Reg|8000h)
  2796  0048  0084               	movwf	fsr0
  2797  0049  3087               	movlw	high(_Bank0_Reg|8000h)
  2798  004A  1803               	skipnc
  2799  004B  3E01               	addlw	1
  2800  004C  00FF               	movwf	btemp+1
  2801  004D  120A  118A  2700   	fcall	stringtab
              120A  118A         
  2802  0052  3820               	iorlw	020h
  2803  0053  160A  118A  25EB   	fcall	_SPI_Write_Reg
              120A  118A         
  2804                           opt subtitle "HI-TECH Software Omniscient Code Generator (Lite mode) build 49521"
  2805                           
  2806  0058                     l2886:	
  2807  0058  3001               	movlw	(01h)
  2808  0059  1283               	bcf	status, 5	;RP0=0, select bank0
  2809  005A  1303               	bcf	status, 6	;RP1=0, select bank0
  2810  005B  00A9               	movwf	(??_RFM70_Initialize+0)+0
  2811  005C  0829               	movf	(??_RFM70_Initialize+0)+0,w
  2812  005D  07BC               	addwf	(RFM70_Initialize@i),f
  2813                           opt subtitle "HI-TECH Software Omniscient Code Generator (Lite mode) build 49521"
  2814  005E                     l2888:	
  2815  005E  3014               	movlw	(014h)
  2816  005F  023C               	subwf	(RFM70_Initialize@i),w
  2817  0060  1C03               	skipc
  2818  0061  2863               	goto	u1991
  2819  0062  2864               	goto	u1990
  2820  0063                     u1991:
  2821  0063  2834               	goto	l2884
  2822  0064                     u1990:
  2823                           opt subtitle "HI-TECH Software Omniscient Code Generator (Lite mode) build 49521"
  2824  0064                     l359:	
  2825                           opt subtitle "HI-TECH Software Omniscient Code Generator (Lite mode) build 49521"
  2826                           
  2827                           opt pagewidth 120
  2828  0064  01BD               	clrf	(RFM70_Initialize@j)
  2829                           opt subtitle "HI-TECH Software Omniscient Code Generator (Lite mode) build 49521"
  2830  0065                     l2890:	
  2831  0065  3005               	movlw	(05h)
  2832  0066  023D               	subwf	(RFM70_Initialize@j),w
  2833  0067  1C03               	skipc
  2834  0068  286A               	goto	u2001
  2835  0069  286B               	goto	u2000
  2836  006A                     u2001:
  2837  006A  286D               	goto	l2894
  2838  006B                     u2000:
  2839  006B  288B               	goto	l2900
  2840                           opt subtitle "HI-TECH Software Omniscient Code Generator (Lite mode) build 49521"
  2841  006C                     l2892:	
  2842  006C  288B               	goto	l2900
  2843                           opt subtitle "HI-TECH Software Omniscient Code Generator (Lite mode) build 49521"
  2844                           
  2845  006D                     l360:	
  2846                           opt subtitle "HI-TECH Software Omniscient Code Generator (Lite mode) build 49521"
  2847                           
  2848  006D                     l2894:	
  2849                           opt subtitle "HI-TECH Software Omniscient Code Generator (Lite mode) build 49521"
  2850                           
  2851  006D  083D               	movf	(RFM70_Initialize@j),w
  2852  006E  3E95               	addlw	low(_RX0_Address|8000h)
  2853  006F  0084               	movwf	fsr0
  2854  0070  3087               	movlw	high(_RX0_Address|8000h)
  2855  0071  1803               	skipnc
  2856  0072  3E01               	addlw	1
  2857  0073  00FF               	movwf	btemp+1
  2858  0074  120A  118A  2700   	fcall	stringtab
              120A  118A         
  2859  0079  00A9               	movwf	(??_RFM70_Initialize+0)+0
  2860  007A  083D               	movf	(RFM70_Initialize@j),w
  2861  007B  3E30               	addlw	RFM70_Initialize@WriteArr&0ffh
  2862  007C  0084               	movwf	fsr0
  2863  007D  0829               	movf	(??_RFM70_Initialize+0)+0,w
  2864  007E  1383               	bcf	status, 7	;select IRP bank0
  2865  007F  0080               	movwf	indf
  2866                           opt subtitle "HI-TECH Software Omniscient Code Generator (Lite mode) build 49521"
  2867                           
  2868  0080                     l2896:	
  2869  0080  3001               	movlw	(01h)
  2870  0081  00A9               	movwf	(??_RFM70_Initialize+0)+0
  2871  0082  0829               	movf	(??_RFM70_Initialize+0)+0,w
  2872  0083  07BD               	addwf	(RFM70_Initialize@j),f
  2873                           opt subtitle "HI-TECH Software Omniscient Code Generator (Lite mode) build 49521"
  2874  0084                     l2898:	
  2875  0084  3005               	movlw	(05h)
  2876  0085  023D               	subwf	(RFM70_Initialize@j),w
  2877  0086  1C03               	skipc
  2878  0087  2889               	goto	u2011
  2879  0088  288A               	goto	u2010
  2880  0089                     u2011:
  2881  0089  286D               	goto	l2894
  2882  008A                     u2010:
  2883  008A  288B               	goto	l2900
  2884                           opt subtitle "HI-TECH Software Omniscient Code Generator (Lite mode) build 49521"
  2885  008B                     l361:	
  2886                           opt subtitle "HI-TECH Software Omniscient Code Generator (Lite mode) build 49521"
  2887                           
  2888  008B                     l2900:	
  2889                           opt subtitle "HI-TECH Software Omniscient Code Generator (Lite mode) build 49521"
  2890                           
  2891  008B  3030               	movlw	(RFM70_Initialize@WriteArr)&0ffh
  2892  008C  00A9               	movwf	(??_RFM70_Initialize+0)+0
  2893  008D  0829               	movf	(??_RFM70_Initialize+0)+0,w
  2894  008E  00A3               	movwf	(?_SPI_Write_Buf)
  2895  008F  3005               	movlw	(05h)
  2896  0090  00AA               	movwf	(??_RFM70_Initialize+1)+0
  2897  0091  082A               	movf	(??_RFM70_Initialize+1)+0,w
  2898  0092  00A4               	movwf	0+(?_SPI_Write_Buf)+01h
  2899  0093  302A               	movlw	(02Ah)
  2900  0094  160A  118A  270F   	fcall	_SPI_Write_Buf
              120A  118A         
  2901                           opt subtitle "HI-TECH Software Omniscient Code Generator (Lite mode) build 49521"
  2902                           
  2903  0099                     l2902:	
  2904                           opt subtitle "HI-TECH Software Omniscient Code Generator (Lite mode) build 49521"
  2905  0099  1283               	bcf	status, 5	;RP0=0, select bank0
  2906  009A  1303               	bcf	status, 6	;RP1=0, select bank0
  2907  009B  01BD               	clrf	(RFM70_Initialize@j)
  2908                           opt subtitle "HI-TECH Software Omniscient Code Generator (Lite mode) build 49521"
  2909  009C                     l2904:	
  2910  009C  3005               	movlw	(05h)
  2911  009D  023D               	subwf	(RFM70_Initialize@j),w
  2912  009E  1C03               	skipc
  2913  009F  28A1               	goto	u2021
  2914  00A0  28A2               	goto	u2020
  2915  00A1                     u2021:
  2916  00A1  28A4               	goto	l2908
  2917  00A2                     u2020:
  2918  00A2  28C2               	goto	l2914
  2919                           opt subtitle "HI-TECH Software Omniscient Code Generator (Lite mode) build 49521"
  2920  00A3                     l2906:	
  2921  00A3  28C2               	goto	l2914
  2922                           opt subtitle "HI-TECH Software Omniscient Code Generator (Lite mode) build 49521"
  2923                           
  2924  00A4                     l362:	
  2925                           opt subtitle "HI-TECH Software Omniscient Code Generator (Lite mode) build 49521"
  2926                           
  2927  00A4                     l2908:	
  2928                           opt subtitle "HI-TECH Software Omniscient Code Generator (Lite mode) build 49521"
  2929                           
  2930  00A4  083D               	movf	(RFM70_Initialize@j),w
  2931  00A5  3E9A               	addlw	low(_RX1_Address|8000h)
  2932  00A6  0084               	movwf	fsr0
  2933  00A7  3087               	movlw	high(_RX1_Address|8000h)
  2934  00A8  1803               	skipnc
  2935  00A9  3E01               	addlw	1
  2936  00AA  00FF               	movwf	btemp+1
  2937  00AB  120A  118A  2700   	fcall	stringtab
              120A  118A         
  2938  00B0  00A9               	movwf	(??_RFM70_Initialize+0)+0
  2939  00B1  083D               	movf	(RFM70_Initialize@j),w
  2940  00B2  3E30               	addlw	RFM70_Initialize@WriteArr&0ffh
  2941  00B3  0084               	movwf	fsr0
  2942  00B4  0829               	movf	(??_RFM70_Initialize+0)+0,w
  2943  00B5  1383               	bcf	status, 7	;select IRP bank0
  2944  00B6  0080               	movwf	indf
  2945                           opt subtitle "HI-TECH Software Omniscient Code Generator (Lite mode) build 49521"
  2946                           
  2947  00B7                     l2910:	
  2948  00B7  3001               	movlw	(01h)
  2949  00B8  00A9               	movwf	(??_RFM70_Initialize+0)+0
  2950  00B9  0829               	movf	(??_RFM70_Initialize+0)+0,w
  2951  00BA  07BD               	addwf	(RFM70_Initialize@j),f
  2952                           opt subtitle "HI-TECH Software Omniscient Code Generator (Lite mode) build 49521"
  2953  00BB                     l2912:	
  2954  00BB  3005               	movlw	(05h)
  2955  00BC  023D               	subwf	(RFM70_Initialize@j),w
  2956  00BD  1C03               	skipc
  2957  00BE  28C0               	goto	u2031
  2958  00BF  28C1               	goto	u2030
  2959  00C0                     u2031:
  2960  00C0  28A4               	goto	l2908
  2961  00C1                     u2030:
  2962  00C1  28C2               	goto	l2914
  2963                           opt subtitle "HI-TECH Software Omniscient Code Generator (Lite mode) build 49521"
  2964  00C2                     l363:	
  2965                           opt subtitle "HI-TECH Software Omniscient Code Generator (Lite mode) build 49521"
  2966                           
  2967  00C2                     l2914:	
  2968                           opt subtitle "HI-TECH Software Omniscient Code Generator (Lite mode) build 49521"
  2969                           
  2970  00C2  3030               	movlw	(RFM70_Initialize@WriteArr)&0ffh
  2971  00C3  00A9               	movwf	(??_RFM70_Initialize+0)+0
  2972  00C4  0829               	movf	(??_RFM70_Initialize+0)+0,w
  2973  00C5  00A3               	movwf	(?_SPI_Write_Buf)
  2974  00C6  3005               	movlw	(05h)
  2975  00C7  00AA               	movwf	(??_RFM70_Initialize+1)+0
  2976  00C8  082A               	movf	(??_RFM70_Initialize+1)+0,w
  2977  00C9  00A4               	movwf	0+(?_SPI_Write_Buf)+01h
  2978  00CA  302B               	movlw	(02Bh)
  2979  00CB  160A  118A  270F   	fcall	_SPI_Write_Buf
              120A  118A         
  2980                           opt subtitle "HI-TECH Software Omniscient Code Generator (Lite mode) build 49521"
  2981                           
  2982  00D0                     l2916:	
  2983                           opt subtitle "HI-TECH Software Omniscient Code Generator (Lite mode) build 49521"
  2984  00D0  1283               	bcf	status, 5	;RP0=0, select bank0
  2985  00D1  1303               	bcf	status, 6	;RP1=0, select bank0
  2986  00D2  01BD               	clrf	(RFM70_Initialize@j)
  2987                           opt subtitle "HI-TECH Software Omniscient Code Generator (Lite mode) build 49521"
  2988  00D3                     l2918:	
  2989  00D3  3005               	movlw	(05h)
  2990  00D4  023D               	subwf	(RFM70_Initialize@j),w
  2991  00D5  1C03               	skipc
  2992  00D6  28D8               	goto	u2041
  2993  00D7  28D9               	goto	u2040
  2994  00D8                     u2041:
  2995  00D8  28DB               	goto	l2922
  2996  00D9                     u2040:
  2997  00D9  28F9               	goto	l2928
  2998                           opt subtitle "HI-TECH Software Omniscient Code Generator (Lite mode) build 49521"
  2999  00DA                     l2920:	
  3000  00DA  28F9               	goto	l2928
  3001                           opt subtitle "HI-TECH Software Omniscient Code Generator (Lite mode) build 49521"
  3002                           
  3003  00DB                     l364:	
  3004                           opt subtitle "HI-TECH Software Omniscient Code Generator (Lite mode) build 49521"
  3005                           
  3006  00DB                     l2922:	
  3007                           opt subtitle "HI-TECH Software Omniscient Code Generator (Lite mode) build 49521"
  3008                           
  3009  00DB  083D               	movf	(RFM70_Initialize@j),w
  3010  00DC  3E95               	addlw	low(_RX0_Address|8000h)
  3011  00DD  0084               	movwf	fsr0
  3012  00DE  3087               	movlw	high(_RX0_Address|8000h)
  3013  00DF  1803               	skipnc
  3014  00E0  3E01               	addlw	1
  3015  00E1  00FF               	movwf	btemp+1
  3016  00E2  120A  118A  2700   	fcall	stringtab
              120A  118A         
  3017  00E7  00A9               	movwf	(??_RFM70_Initialize+0)+0
  3018  00E8  083D               	movf	(RFM70_Initialize@j),w
  3019  00E9  3E30               	addlw	RFM70_Initialize@WriteArr&0ffh
  3020  00EA  0084               	movwf	fsr0
  3021  00EB  0829               	movf	(??_RFM70_Initialize+0)+0,w
  3022  00EC  1383               	bcf	status, 7	;select IRP bank0
  3023  00ED  0080               	movwf	indf
  3024                           opt subtitle "HI-TECH Software Omniscient Code Generator (Lite mode) build 49521"
  3025                           
  3026  00EE                     l2924:	
  3027  00EE  3001               	movlw	(01h)
  3028  00EF  00A9               	movwf	(??_RFM70_Initialize+0)+0
  3029  00F0  0829               	movf	(??_RFM70_Initialize+0)+0,w
  3030  00F1  07BD               	addwf	(RFM70_Initialize@j),f
  3031                           opt subtitle "HI-TECH Software Omniscient Code Generator (Lite mode) build 49521"
  3032  00F2                     l2926:	
  3033  00F2  3005               	movlw	(05h)
  3034  00F3  023D               	subwf	(RFM70_Initialize@j),w
  3035  00F4  1C03               	skipc
  3036  00F5  28F7               	goto	u2051
  3037  00F6  28F8               	goto	u2050
  3038  00F7                     u2051:
  3039  00F7  28DB               	goto	l2922
  3040  00F8                     u2050:
  3041  00F8  28F9               	goto	l2928
  3042                           opt subtitle "HI-TECH Software Omniscient Code Generator (Lite mode) build 49521"
  3043  00F9                     l365:	
  3044                           opt subtitle "HI-TECH Software Omniscient Code Generator (Lite mode) build 49521"
  3045                           
  3046  00F9                     l2928:	
  3047                           opt subtitle "HI-TECH Software Omniscient Code Generator (Lite mode) build 49521"
  3048                           
  3049  00F9  3030               	movlw	(RFM70_Initialize@WriteArr)&0ffh
  3050  00FA  00A9               	movwf	(??_RFM70_Initialize+0)+0
  3051  00FB  0829               	movf	(??_RFM70_Initialize+0)+0,w
  3052  00FC  00A3               	movwf	(?_SPI_Write_Buf)
  3053  00FD  3005               	movlw	(05h)
  3054  00FE  00AA               	movwf	(??_RFM70_Initialize+1)+0
  3055  00FF  082A               	movf	(??_RFM70_Initialize+1)+0,w
  3056  0100  00A4               	movwf	0+(?_SPI_Write_Buf)+01h
  3057  0101  3030               	movlw	(030h)
  3058  0102  160A  118A  270F   	fcall	_SPI_Write_Buf
              120A  118A         
  3059                           opt subtitle "HI-TECH Software Omniscient Code Generator (Lite mode) build 49521"
  3060                           
  3061  0107  301D               	movlw	(01Dh)
  3062  0108  160A  118A  2648   	fcall	_SPI_Read_Reg
              120A  118A         
  3063  010D  1283               	bcf	status, 5	;RP0=0, select bank0
  3064  010E  1303               	bcf	status, 6	;RP1=0, select bank0
  3065  010F  00A9               	movwf	(??_RFM70_Initialize+0)+0
  3066  0110  0829               	movf	(??_RFM70_Initialize+0)+0,w
  3067  0111  00BC               	movwf	(RFM70_Initialize@i)
  3068                           opt subtitle "HI-TECH Software Omniscient Code Generator (Lite mode) build 49521"
  3069                           
  3070  0112                     l2930:	
  3071                           opt subtitle "HI-TECH Software Omniscient Code Generator (Lite mode) build 49521"
  3072  0112  08BC               	movf	(RFM70_Initialize@i),f
  3073  0113  1D03               	skipz
  3074  0114  2916               	goto	u2061
  3075  0115  2917               	goto	u2060
  3076  0116                     u2061:
  3077  0116  2922               	goto	l2934
  3078  0117                     u2060:
  3079                           opt subtitle "HI-TECH Software Omniscient Code Generator (Lite mode) build 49521"
  3080                           
  3081  0117                     l2932:	
  3082                           opt subtitle "HI-TECH Software Omniscient Code Generator (Lite mode) build 49521"
  3083  0117  3073               	movlw	(073h)
  3084  0118  00A9               	movwf	(??_RFM70_Initialize+0)+0
  3085  0119  0829               	movf	(??_RFM70_Initialize+0)+0,w
  3086  011A  00A3               	movwf	(?_SPI_Write_Reg)
  3087  011B  3050               	movlw	(050h)
  3088  011C  160A  118A  25EB   	fcall	_SPI_Write_Reg
              120A  118A         
  3089  0121  2922               	goto	l2934
  3090                           opt subtitle "HI-TECH Software Omniscient Code Generator (Lite mode) build 49521"
  3091  0122                     l366:	
  3092                           opt subtitle "HI-TECH Software Omniscient Code Generator (Lite mode) build 49521"
  3093                           
  3094  0122                     l2934:	
  3095                           opt subtitle "HI-TECH Software Omniscient Code Generator (Lite mode) build 49521"
  3096  0122  3016               	movlw	(016h)
  3097  0123  1283               	bcf	status, 5	;RP0=0, select bank0
  3098  0124  1303               	bcf	status, 6	;RP1=0, select bank0
  3099  0125  00A9               	movwf	(??_RFM70_Initialize+0)+0
  3100  0126  0829               	movf	(??_RFM70_Initialize+0)+0,w
  3101  0127  00BC               	movwf	(RFM70_Initialize@i)
  3102                           opt subtitle "HI-TECH Software Omniscient Code Generator (Lite mode) build 49521"
  3103  0128                     l2936:	
  3104  0128  3015               	movlw	(015h)
  3105  0129  023C               	subwf	(RFM70_Initialize@i),w
  3106  012A  1803               	skipnc
  3107  012B  292D               	goto	u2071
  3108  012C  292E               	goto	u2070
  3109  012D                     u2071:
  3110  012D  2930               	goto	l2940
  3111  012E                     u2070:
  3112  012E  295F               	goto	l2946
  3113                           opt subtitle "HI-TECH Software Omniscient Code Generator (Lite mode) build 49521"
  3114  012F                     l2938:	
  3115  012F  295F               	goto	l2946
  3116                           opt subtitle "HI-TECH Software Omniscient Code Generator (Lite mode) build 49521"
  3117                           
  3118  0130                     l367:	
  3119                           opt subtitle "HI-TECH Software Omniscient Code Generator (Lite mode) build 49521"
  3120                           
  3121  0130                     l2940:	
  3122                           opt subtitle "HI-TECH Software Omniscient Code Generator (Lite mode) build 49521"
  3123                           
  3124  0130  1403               	setc
  3125  0131  0D3C               	rlf	(RFM70_Initialize@i),w
  3126  0132  3E4A               	addlw	low(_Bank0_Reg|8000h)
  3127  0133  0084               	movwf	fsr0
  3128  0134  3087               	movlw	high(_Bank0_Reg|8000h)
  3129  0135  1803               	skipnc
  3130  0136  3E01               	addlw	1
  3131  0137  00FF               	movwf	btemp+1
  3132  0138  120A  118A  2700   	fcall	stringtab
              120A  118A         
  3133  013D  00A9               	movwf	(??_RFM70_Initialize+0)+0
  3134  013E  0829               	movf	(??_RFM70_Initialize+0)+0,w
  3135  013F  00A3               	movwf	(?_SPI_Write_Reg)
  3136  0140  083C               	movf	(RFM70_Initialize@i),w
  3137  0141  00AA               	movwf	(??_RFM70_Initialize+1)+0
  3138  0142  072A               	addwf	(??_RFM70_Initialize+1)+0,w
  3139  0143  3E4A               	addlw	low(_Bank0_Reg|8000h)
  3140  0144  0084               	movwf	fsr0
  3141  0145  3087               	movlw	high(_Bank0_Reg|8000h)
  3142  0146  1803               	skipnc
  3143  0147  3E01               	addlw	1
  3144  0148  00FF               	movwf	btemp+1
  3145  0149  120A  118A  2700   	fcall	stringtab
              120A  118A         
  3146  014E  3820               	iorlw	020h
  3147  014F  160A  118A  25EB   	fcall	_SPI_Write_Reg
              120A  118A         
  3148                           opt subtitle "HI-TECH Software Omniscient Code Generator (Lite mode) build 49521"
  3149                           
  3150  0154                     l2942:	
  3151  0154  3001               	movlw	low(01h)
  3152  0155  1283               	bcf	status, 5	;RP0=0, select bank0
  3153  0156  1303               	bcf	status, 6	;RP1=0, select bank0
  3154  0157  02BC               	subwf	(RFM70_Initialize@i),f
  3155                           opt subtitle "HI-TECH Software Omniscient Code Generator (Lite mode) build 49521"
  3156  0158                     l2944:	
  3157  0158  3015               	movlw	(015h)
  3158  0159  023C               	subwf	(RFM70_Initialize@i),w
  3159  015A  1803               	skipnc
  3160  015B  295D               	goto	u2081
  3161  015C  295E               	goto	u2080
  3162  015D                     u2081:
  3163  015D  2930               	goto	l2940
  3164  015E                     u2080:
  3165  015E  295F               	goto	l2946
  3166                           opt subtitle "HI-TECH Software Omniscient Code Generator (Lite mode) build 49521"
  3167  015F                     l368:	
  3168                           opt subtitle "HI-TECH Software Omniscient Code Generator (Lite mode) build 49521"
  3169                           
  3170  015F                     l2946:	
  3171                           opt subtitle "HI-TECH Software Omniscient Code Generator (Lite mode) build 49521"
  3172                           
  3173  015F  3001               	movlw	(01h)
  3174  0160  160A  118A  2765   	fcall	_SwitchCFG
              120A  118A         
  3175                           opt subtitle "HI-TECH Software Omniscient Code Generator (Lite mode) build 49521"
  3176                           
  3177  0165                     l2948:	
  3178                           opt subtitle "HI-TECH Software Omniscient Code Generator (Lite mode) build 49521"
  3179  0165  1283               	bcf	status, 5	;RP0=0, select bank0
  3180  0166  1303               	bcf	status, 6	;RP1=0, select bank0
  3181  0167  01BC               	clrf	(RFM70_Initialize@i)
  3182                           opt subtitle "HI-TECH Software Omniscient Code Generator (Lite mode) build 49521"
  3183  0168                     l2950:	
  3184  0168  3009               	movlw	(09h)
  3185  0169  023C               	subwf	(RFM70_Initialize@i),w
  3186  016A  1C03               	skipc
  3187  016B  296D               	goto	u2091
  3188  016C  296E               	goto	u2090
  3189  016D                     u2091:
  3190  016D  2970               	goto	l369
  3191  016E                     u2090:
  3192  016E  29E4               	goto	l2970
  3193                           opt subtitle "HI-TECH Software Omniscient Code Generator (Lite mode) build 49521"
  3194  016F                     l2952:	
  3195  016F  29E4               	goto	l2970
  3196                           opt subtitle "HI-TECH Software Omniscient Code Generator (Lite mode) build 49521"
  3197                           
  3198  0170                     l369:	
  3199                           opt subtitle "HI-TECH Software Omniscient Code Generator (Lite mode) build 49521"
  3200                           
  3201                           opt pagewidth 120
  3202  0170  01BD               	clrf	(RFM70_Initialize@j)
  3203                           opt subtitle "HI-TECH Software Omniscient Code Generator (Lite mode) build 49521"
  3204  0171                     l2954:	
  3205  0171  3004               	movlw	(04h)
  3206  0172  023D               	subwf	(RFM70_Initialize@j),w
  3207  0173  1C03               	skipc
  3208  0174  2976               	goto	u2101
  3209  0175  2977               	goto	u2100
  3210  0176                     u2101:
  3211  0176  2979               	goto	l2958
  3212  0177                     u2100:
  3213  0177  29C8               	goto	l2964
  3214                           opt subtitle "HI-TECH Software Omniscient Code Generator (Lite mode) build 49521"
  3215  0178                     l2956:	
  3216  0178  29C8               	goto	l2964
  3217                           opt subtitle "HI-TECH Software Omniscient Code Generator (Lite mode) build 49521"
  3218                           
  3219  0179                     l371:	
  3220                           opt subtitle "HI-TECH Software Omniscient Code Generator (Lite mode) build 49521"
  3221  0179                     l2958:	
  3222                           opt subtitle "HI-TECH Software Omniscient Code Generator (Lite mode) build 49521"
  3223  0179  083C               	movf	(RFM70_Initialize@i),w
  3224  017A  00A9               	movwf	(??_RFM70_Initialize+0)+0
  3225  017B  3001               	movlw	(02h)-1
  3226  017C                     u2115:
  3227  017C  1003               	clrc
  3228  017D  0DA9               	rlf	(??_RFM70_Initialize+0)+0,f
  3229  017E  3EFF               	addlw	-1
  3230  017F  1D03               	skipz
  3231  0180  297C               	goto	u2115
  3232  0181  1003               	clrc
  3233  0182  0D29               	rlf	(??_RFM70_Initialize+0)+0,w
  3234  0183  3E12               	addlw	low(_Bank1_Reg0_13|8000h)
  3235  0184  0084               	movwf	fsr0
  3236  0185  3087               	movlw	high(_Bank1_Reg0_13|8000h)
  3237  0186  1803               	skipnc
  3238  0187  3E01               	addlw	1
  3239  0188  00FF               	movwf	btemp+1
  3240  0189  120A  118A  2700   	fcall	stringtab
              120A  118A         
  3241  018E  00AA               	movwf	((??_RFM70_Initialize+1)+0)
  3242  018F  120A  118A  2700   	fcall	stringtab
              120A  118A         
  3243  0194  00AB               	movwf	((??_RFM70_Initialize+1)+0+1)
  3244  0195  120A  118A  2700   	fcall	stringtab
              120A  118A         
  3245  019A  00AC               	movwf	((??_RFM70_Initialize+1)+0+2)
  3246  019B  120A  118A  2700   	fcall	stringtab
              120A  118A         
  3247  01A0  00AD               	movwf	((??_RFM70_Initialize+1)+0+3)
  3248  01A1  083D               	movf	(RFM70_Initialize@j),w
  3249  01A2  00AE               	movwf	(??_RFM70_Initialize+5)+0
  3250  01A3  3002               	movlw	(03h)-1
  3251  01A4                     u2125:
  3252  01A4  1003               	clrc
  3253  01A5  0DAE               	rlf	(??_RFM70_Initialize+5)+0,f
  3254  01A6  3EFF               	addlw	-1
  3255  01A7  1D03               	skipz
  3256  01A8  29A4               	goto	u2125
  3257  01A9  1003               	clrc
  3258  01AA  0D2E               	rlf	(??_RFM70_Initialize+5)+0,w
  3259  01AB  3E01               	addlw	1
  3260  01AC  29B2               	goto	u2130
  3261  01AD                     u2135:
  3262  01AD  1003               	clrc
  3263  01AE  0CAD               	rrf	(??_RFM70_Initialize+1)+3,f
  3264  01AF  0CAC               	rrf	(??_RFM70_Initialize+1)+2,f
  3265  01B0  0CAB               	rrf	(??_RFM70_Initialize+1)+1,f
  3266  01B1  0CAA               	rrf	(??_RFM70_Initialize+1)+0,f
  3267  01B2                     u2130:
  3268  01B2  3EFF               	addlw	-1
  3269  01B3  1D03               	skipz
  3270  01B4  29AD               	goto	u2135
  3271  01B5  082A               	movf	0+(??_RFM70_Initialize+1)+0,w
  3272  01B6  00AF               	movwf	(??_RFM70_Initialize+6)+0
  3273  01B7  083D               	movf	(RFM70_Initialize@j),w
  3274  01B8  3E30               	addlw	RFM70_Initialize@WriteArr&0ffh
  3275  01B9  0084               	movwf	fsr0
  3276  01BA  082F               	movf	(??_RFM70_Initialize+6)+0,w
  3277  01BB  1383               	bcf	status, 7	;select IRP bank0
  3278  01BC  0080               	movwf	indf
  3279                           opt subtitle "HI-TECH Software Omniscient Code Generator (Lite mode) build 49521"
  3280                           
  3281  01BD                     l2960:	
  3282  01BD  3001               	movlw	(01h)
  3283  01BE  00A9               	movwf	(??_RFM70_Initialize+0)+0
  3284  01BF  0829               	movf	(??_RFM70_Initialize+0)+0,w
  3285  01C0  07BD               	addwf	(RFM70_Initialize@j),f
  3286                           opt subtitle "HI-TECH Software Omniscient Code Generator (Lite mode) build 49521"
  3287  01C1                     l2962:	
  3288  01C1  3004               	movlw	(04h)
  3289  01C2  023D               	subwf	(RFM70_Initialize@j),w
  3290  01C3  1C03               	skipc
  3291  01C4  29C6               	goto	u2141
  3292  01C5  29C7               	goto	u2140
  3293  01C6                     u2141:
  3294  01C6  2979               	goto	l2958
  3295  01C7                     u2140:
  3296  01C7  29C8               	goto	l2964
  3297                           opt subtitle "HI-TECH Software Omniscient Code Generator (Lite mode) build 49521"
  3298  01C8                     l372:	
  3299                           opt subtitle "HI-TECH Software Omniscient Code Generator (Lite mode) build 49521"
  3300                           
  3301  01C8                     l2964:	
  3302                           opt subtitle "HI-TECH Software Omniscient Code Generator (Lite mode) build 49521"
  3303  01C8  3030               	movlw	(RFM70_Initialize@WriteArr)&0ffh
  3304  01C9  00A9               	movwf	(??_RFM70_Initialize+0)+0
  3305  01CA  0829               	movf	(??_RFM70_Initialize+0)+0,w
  3306  01CB  00A3               	movwf	(?_SPI_Write_Buf)
  3307  01CC  3004               	movlw	(04h)
  3308  01CD  00AA               	movwf	(??_RFM70_Initialize+1)+0
  3309  01CE  082A               	movf	(??_RFM70_Initialize+1)+0,w
  3310  01CF  00A4               	movwf	0+(?_SPI_Write_Buf)+01h
  3311  01D0  083C               	movf	(RFM70_Initialize@i),w
  3312  01D1  3820               	iorlw	020h
  3313  01D2  160A  118A  270F   	fcall	_SPI_Write_Buf
              120A  118A         
  3314                           opt subtitle "HI-TECH Software Omniscient Code Generator (Lite mode) build 49521"
  3315                           
  3316  01D7                     l2966:	
  3317  01D7  3001               	movlw	(01h)
  3318  01D8  1283               	bcf	status, 5	;RP0=0, select bank0
  3319  01D9  1303               	bcf	status, 6	;RP1=0, select bank0
  3320  01DA  00A9               	movwf	(??_RFM70_Initialize+0)+0
  3321  01DB  0829               	movf	(??_RFM70_Initialize+0)+0,w
  3322  01DC  07BC               	addwf	(RFM70_Initialize@i),f
  3323                           opt subtitle "HI-TECH Software Omniscient Code Generator (Lite mode) build 49521"
  3324  01DD                     l2968:	
  3325  01DD  3009               	movlw	(09h)
  3326  01DE  023C               	subwf	(RFM70_Initialize@i),w
  3327  01DF  1C03               	skipc
  3328  01E0  29E2               	goto	u2151
  3329  01E1  29E3               	goto	u2150
  3330  01E2                     u2151:
  3331  01E2  2970               	goto	l369
  3332  01E3                     u2150:
  3333  01E3  29E4               	goto	l2970
  3334                           opt subtitle "HI-TECH Software Omniscient Code Generator (Lite mode) build 49521"
  3335  01E4                     l370:	
  3336                           opt subtitle "HI-TECH Software Omniscient Code Generator (Lite mode) build 49521"
  3337                           
  3338  01E4                     l2970:	
  3339                           opt subtitle "HI-TECH Software Omniscient Code Generator (Lite mode) build 49521"
  3340                           
  3341  01E4  3009               	movlw	(09h)
  3342  01E5  00A9               	movwf	(??_RFM70_Initialize+0)+0
  3343  01E6  0829               	movf	(??_RFM70_Initialize+0)+0,w
  3344  01E7  00BC               	movwf	(RFM70_Initialize@i)
  3345  01E8  300E               	movlw	(0Eh)
  3346  01E9  023C               	subwf	(RFM70_Initialize@i),w
  3347  01EA  1C03               	skipc
  3348  01EB  29ED               	goto	u2161
  3349  01EC  29EE               	goto	u2160
  3350  01ED                     u2161:
  3351  01ED  29F0               	goto	l373
  3352  01EE                     u2160:
  3353  01EE  2A65               	goto	l374
  3354                           opt subtitle "HI-TECH Software Omniscient Code Generator (Lite mode) build 49521"
  3355  01EF                     l2972:	
  3356  01EF  2A65               	goto	l374
  3357                           opt subtitle "HI-TECH Software Omniscient Code Generator (Lite mode) build 49521"
  3358                           
  3359  01F0                     l373:	
  3360                           opt subtitle "HI-TECH Software Omniscient Code Generator (Lite mode) build 49521"
  3361                           
  3362                           opt pagewidth 120
  3363  01F0  01BD               	clrf	(RFM70_Initialize@j)
  3364                           opt subtitle "HI-TECH Software Omniscient Code Generator (Lite mode) build 49521"
  3365  01F1                     l2974:	
  3366  01F1  3004               	movlw	(04h)
  3367  01F2  023D               	subwf	(RFM70_Initialize@j),w
  3368  01F3  1C03               	skipc
  3369  01F4  29F6               	goto	u2171
  3370  01F5  29F7               	goto	u2170
  3371  01F6                     u2171:
  3372  01F6  29F9               	goto	l2978
  3373  01F7                     u2170:
  3374  01F7  2A4A               	goto	l2984
  3375                           opt subtitle "HI-TECH Software Omniscient Code Generator (Lite mode) build 49521"
  3376  01F8                     l2976:	
  3377  01F8  2A4A               	goto	l2984
  3378                           opt subtitle "HI-TECH Software Omniscient Code Generator (Lite mode) build 49521"
  3379                           
  3380  01F9                     l375:	
  3381                           opt subtitle "HI-TECH Software Omniscient Code Generator (Lite mode) build 49521"
  3382  01F9                     l2978:	
  3383                           opt subtitle "HI-TECH Software Omniscient Code Generator (Lite mode) build 49521"
  3384  01F9  083C               	movf	(RFM70_Initialize@i),w
  3385  01FA  00A9               	movwf	(??_RFM70_Initialize+0)+0
  3386  01FB  3001               	movlw	(02h)-1
  3387  01FC                     u2185:
  3388  01FC  1003               	clrc
  3389  01FD  0DA9               	rlf	(??_RFM70_Initialize+0)+0,f
  3390  01FE  3EFF               	addlw	-1
  3391  01FF  1D03               	skipz
  3392  0200  29FC               	goto	u2185
  3393  0201  1003               	clrc
  3394  0202  0D29               	rlf	(??_RFM70_Initialize+0)+0,w
  3395  0203  3E12               	addlw	low(_Bank1_Reg0_13|8000h)
  3396  0204  0084               	movwf	fsr0
  3397  0205  3087               	movlw	high(_Bank1_Reg0_13|8000h)
  3398  0206  1803               	skipnc
  3399  0207  3E01               	addlw	1
  3400  0208  00FF               	movwf	btemp+1
  3401  0209  120A  118A  2700   	fcall	stringtab
              120A  118A         
  3402  020E  00AA               	movwf	((??_RFM70_Initialize+1)+0)
  3403  020F  120A  118A  2700   	fcall	stringtab
              120A  118A         
  3404  0214  00AB               	movwf	((??_RFM70_Initialize+1)+0+1)
  3405  0215  120A  118A  2700   	fcall	stringtab
              120A  118A         
  3406  021A  00AC               	movwf	((??_RFM70_Initialize+1)+0+2)
  3407  021B  120A  118A  2700   	fcall	stringtab
              120A  118A         
  3408  0220  00AD               	movwf	((??_RFM70_Initialize+1)+0+3)
  3409  0221  033D               	decf	(RFM70_Initialize@j),w
  3410  0222  3AFF               	xorlw	0ffh
  3411  0223  00AE               	movwf	(??_RFM70_Initialize+5)+0
  3412  0224  3002               	movlw	(03h)-1
  3413  0225                     u2195:
  3414  0225  1003               	clrc
  3415  0226  0DAE               	rlf	(??_RFM70_Initialize+5)+0,f
  3416  0227  3EFF               	addlw	-1
  3417  0228  1D03               	skipz
  3418  0229  2A25               	goto	u2195
  3419  022A  1003               	clrc
  3420  022B  0D2E               	rlf	(??_RFM70_Initialize+5)+0,w
  3421  022C  3E18               	addlw	018h
  3422  022D  3E01               	addlw	1
  3423  022E  2A34               	goto	u2200
  3424  022F                     u2205:
  3425  022F  1003               	clrc
  3426  0230  0CAD               	rrf	(??_RFM70_Initialize+1)+3,f
  3427  0231  0CAC               	rrf	(??_RFM70_Initialize+1)+2,f
  3428  0232  0CAB               	rrf	(??_RFM70_Initialize+1)+1,f
  3429  0233  0CAA               	rrf	(??_RFM70_Initialize+1)+0,f
  3430  0234                     u2200:
  3431  0234  3EFF               	addlw	-1
  3432  0235  1D03               	skipz
  3433  0236  2A2F               	goto	u2205
  3434  0237  082A               	movf	0+(??_RFM70_Initialize+1)+0,w
  3435  0238  00AF               	movwf	(??_RFM70_Initialize+6)+0
  3436  0239  083D               	movf	(RFM70_Initialize@j),w
  3437  023A  3E30               	addlw	RFM70_Initialize@WriteArr&0ffh
  3438  023B  0084               	movwf	fsr0
  3439  023C  082F               	movf	(??_RFM70_Initialize+6)+0,w
  3440  023D  1383               	bcf	status, 7	;select IRP bank0
  3441  023E  0080               	movwf	indf
  3442                           opt subtitle "HI-TECH Software Omniscient Code Generator (Lite mode) build 49521"
  3443                           
  3444  023F                     l2980:	
  3445  023F  3001               	movlw	(01h)
  3446  0240  00A9               	movwf	(??_RFM70_Initialize+0)+0
  3447  0241  0829               	movf	(??_RFM70_Initialize+0)+0,w
  3448  0242  07BD               	addwf	(RFM70_Initialize@j),f
  3449                           opt subtitle "HI-TECH Software Omniscient Code Generator (Lite mode) build 49521"
  3450  0243                     l2982:	
  3451  0243  3004               	movlw	(04h)
  3452  0244  023D               	subwf	(RFM70_Initialize@j),w
  3453  0245  1C03               	skipc
  3454  0246  2A48               	goto	u2211
  3455  0247  2A49               	goto	u2210
  3456  0248                     u2211:
  3457  0248  29F9               	goto	l2978
  3458  0249                     u2210:
  3459  0249  2A4A               	goto	l2984
  3460                           opt subtitle "HI-TECH Software Omniscient Code Generator (Lite mode) build 49521"
  3461  024A                     l376:	
  3462                           opt subtitle "HI-TECH Software Omniscient Code Generator (Lite mode) build 49521"
  3463                           
  3464  024A                     l2984:	
  3465                           opt subtitle "HI-TECH Software Omniscient Code Generator (Lite mode) build 49521"
  3466  024A  3030               	movlw	(RFM70_Initialize@WriteArr)&0ffh
  3467  024B  00A9               	movwf	(??_RFM70_Initialize+0)+0
  3468  024C  0829               	movf	(??_RFM70_Initialize+0)+0,w
  3469  024D  00A3               	movwf	(?_SPI_Write_Buf)
  3470  024E  3004               	movlw	(04h)
  3471  024F  00AA               	movwf	(??_RFM70_Initialize+1)+0
  3472  0250  082A               	movf	(??_RFM70_Initialize+1)+0,w
  3473  0251  00A4               	movwf	0+(?_SPI_Write_Buf)+01h
  3474  0252  083C               	movf	(RFM70_Initialize@i),w
  3475  0253  3820               	iorlw	020h
  3476  0254  160A  118A  270F   	fcall	_SPI_Write_Buf
              120A  118A         
  3477                           opt subtitle "HI-TECH Software Omniscient Code Generator (Lite mode) build 49521"
  3478                           
  3479  0259                     l2986:	
  3480  0259  3001               	movlw	(01h)
  3481  025A  1283               	bcf	status, 5	;RP0=0, select bank0
  3482  025B  1303               	bcf	status, 6	;RP1=0, select bank0
  3483  025C  00A9               	movwf	(??_RFM70_Initialize+0)+0
  3484  025D  0829               	movf	(??_RFM70_Initialize+0)+0,w
  3485  025E  07BC               	addwf	(RFM70_Initialize@i),f
  3486                           opt subtitle "HI-TECH Software Omniscient Code Generator (Lite mode) build 49521"
  3487  025F                     l2988:	
  3488  025F  300E               	movlw	(0Eh)
  3489  0260  023C               	subwf	(RFM70_Initialize@i),w
  3490  0261  1C03               	skipc
  3491  0262  2A64               	goto	u2221
  3492  0263  2A65               	goto	u2220
  3493  0264                     u2221:
  3494  0264  29F0               	goto	l373
  3495  0265                     u2220:
  3496                           opt subtitle "HI-TECH Software Omniscient Code Generator (Lite mode) build 49521"
  3497  0265                     l374:	
  3498                           opt subtitle "HI-TECH Software Omniscient Code Generator (Lite mode) build 49521"
  3499                           
  3500                           opt pagewidth 120
  3501  0265  01BD               	clrf	(RFM70_Initialize@j)
  3502                           opt subtitle "HI-TECH Software Omniscient Code Generator (Lite mode) build 49521"
  3503  0266                     l2990:	
  3504  0266  300B               	movlw	(0Bh)
  3505  0267  023D               	subwf	(RFM70_Initialize@j),w
  3506  0268  1C03               	skipc
  3507  0269  2A6B               	goto	u2231
  3508  026A  2A6C               	goto	u2230
  3509  026B                     u2231:
  3510  026B  2A6E               	goto	l2994
  3511  026C                     u2230:
  3512  026C  2A8C               	goto	l3000
  3513                           opt subtitle "HI-TECH Software Omniscient Code Generator (Lite mode) build 49521"
  3514  026D                     l2992:	
  3515  026D  2A8C               	goto	l3000
  3516                           opt subtitle "HI-TECH Software Omniscient Code Generator (Lite mode) build 49521"
  3517                           
  3518  026E                     l377:	
  3519                           opt subtitle "HI-TECH Software Omniscient Code Generator (Lite mode) build 49521"
  3520                           
  3521  026E                     l2994:	
  3522                           opt subtitle "HI-TECH Software Omniscient Code Generator (Lite mode) build 49521"
  3523                           
  3524  026E  083D               	movf	(RFM70_Initialize@j),w
  3525  026F  3E78               	addlw	low(_Bank1_Reg14|8000h)
  3526  0270  0084               	movwf	fsr0
  3527  0271  3087               	movlw	high(_Bank1_Reg14|8000h)
  3528  0272  1803               	skipnc
  3529  0273  3E01               	addlw	1
  3530  0274  00FF               	movwf	btemp+1
  3531  0275  120A  118A  2700   	fcall	stringtab
              120A  118A         
  3532  027A  00A9               	movwf	(??_RFM70_Initialize+0)+0
  3533  027B  083D               	movf	(RFM70_Initialize@j),w
  3534  027C  3E30               	addlw	RFM70_Initialize@WriteArr&0ffh
  3535  027D  0084               	movwf	fsr0
  3536  027E  0829               	movf	(??_RFM70_Initialize+0)+0,w
  3537  027F  1383               	bcf	status, 7	;select IRP bank0
  3538  0280  0080               	movwf	indf
  3539                           opt subtitle "HI-TECH Software Omniscient Code Generator (Lite mode) build 49521"
  3540                           
  3541  0281                     l2996:	
  3542  0281  3001               	movlw	(01h)
  3543  0282  00A9               	movwf	(??_RFM70_Initialize+0)+0
  3544  0283  0829               	movf	(??_RFM70_Initialize+0)+0,w
  3545  0284  07BD               	addwf	(RFM70_Initialize@j),f
  3546                           opt subtitle "HI-TECH Software Omniscient Code Generator (Lite mode) build 49521"
  3547  0285                     l2998:	
  3548  0285  300B               	movlw	(0Bh)
  3549  0286  023D               	subwf	(RFM70_Initialize@j),w
  3550  0287  1C03               	skipc
  3551  0288  2A8A               	goto	u2241
  3552  0289  2A8B               	goto	u2240
  3553  028A                     u2241:
  3554  028A  2A6E               	goto	l2994
  3555  028B                     u2240:
  3556  028B  2A8C               	goto	l3000
  3557                           opt subtitle "HI-TECH Software Omniscient Code Generator (Lite mode) build 49521"
  3558  028C                     l378:	
  3559                           opt subtitle "HI-TECH Software Omniscient Code Generator (Lite mode) build 49521"
  3560                           
  3561  028C                     l3000:	
  3562                           opt subtitle "HI-TECH Software Omniscient Code Generator (Lite mode) build 49521"
  3563                           
  3564  028C  3030               	movlw	(RFM70_Initialize@WriteArr)&0ffh
  3565  028D  00A9               	movwf	(??_RFM70_Initialize+0)+0
  3566  028E  0829               	movf	(??_RFM70_Initialize+0)+0,w
  3567  028F  00A3               	movwf	(?_SPI_Write_Buf)
  3568  0290  300B               	movlw	(0Bh)
  3569  0291  00AA               	movwf	(??_RFM70_Initialize+1)+0
  3570  0292  082A               	movf	(??_RFM70_Initialize+1)+0,w
  3571  0293  00A4               	movwf	0+(?_SPI_Write_Buf)+01h
  3572  0294  302E               	movlw	(02Eh)
  3573  0295  160A  118A  270F   	fcall	_SPI_Write_Buf
              120A  118A         
  3574                           opt subtitle "HI-TECH Software Omniscient Code Generator (Lite mode) build 49521"
  3575                           
  3576  029A                     l3002:	
  3577                           opt subtitle "HI-TECH Software Omniscient Code Generator (Lite mode) build 49521"
  3578  029A  1283               	bcf	status, 5	;RP0=0, select bank0
  3579  029B  1303               	bcf	status, 6	;RP1=0, select bank0
  3580  029C  01BD               	clrf	(RFM70_Initialize@j)
  3581                           opt subtitle "HI-TECH Software Omniscient Code Generator (Lite mode) build 49521"
  3582  029D                     l3004:	
  3583  029D  3004               	movlw	(04h)
  3584  029E  023D               	subwf	(RFM70_Initialize@j),w
  3585  029F  1C03               	skipc
  3586  02A0  2AA2               	goto	u2251
  3587  02A1  2AA3               	goto	u2250
  3588  02A2                     u2251:
  3589  02A2  2AA5               	goto	l3008
  3590  02A3                     u2250:
  3591  02A3  2AE8               	goto	l3014
  3592                           opt subtitle "HI-TECH Software Omniscient Code Generator (Lite mode) build 49521"
  3593  02A4                     l3006:	
  3594  02A4  2AE8               	goto	l3014
  3595                           opt subtitle "HI-TECH Software Omniscient Code Generator (Lite mode) build 49521"
  3596                           
  3597  02A5                     l379:	
  3598                           opt subtitle "HI-TECH Software Omniscient Code Generator (Lite mode) build 49521"
  3599  02A5                     l3008:	
  3600                           opt subtitle "HI-TECH Software Omniscient Code Generator (Lite mode) build 49521"
  3601  02A5  3022               	movlw	low(_Bank1_Reg0_13|8000h+010h)
  3602  02A6  0084               	movwf	fsr0
  3603  02A7  3087               	movlw	high(_Bank1_Reg0_13|8000h+010h)
  3604  02A8  00FF               	movwf	btemp+1
  3605  02A9  120A  118A  2700   	fcall	stringtab
              120A  118A         
  3606  02AE  00A9               	movwf	((??_RFM70_Initialize+0)+0)
  3607  02AF  120A  118A  2700   	fcall	stringtab
              120A  118A         
  3608  02B4  00AA               	movwf	((??_RFM70_Initialize+0)+0+1)
  3609  02B5  120A  118A  2700   	fcall	stringtab
              120A  118A         
  3610  02BA  00AB               	movwf	((??_RFM70_Initialize+0)+0+2)
  3611  02BB  120A  118A  2700   	fcall	stringtab
              120A  118A         
  3612  02C0  00AC               	movwf	((??_RFM70_Initialize+0)+0+3)
  3613  02C1  083D               	movf	(RFM70_Initialize@j),w
  3614  02C2  00AD               	movwf	(??_RFM70_Initialize+4)+0
  3615  02C3  3002               	movlw	(03h)-1
  3616  02C4                     u2265:
  3617  02C4  1003               	clrc
  3618  02C5  0DAD               	rlf	(??_RFM70_Initialize+4)+0,f
  3619  02C6  3EFF               	addlw	-1
  3620  02C7  1D03               	skipz
  3621  02C8  2AC4               	goto	u2265
  3622  02C9  1003               	clrc
  3623  02CA  0D2D               	rlf	(??_RFM70_Initialize+4)+0,w
  3624  02CB  3E01               	addlw	1
  3625  02CC  2AD2               	goto	u2270
  3626  02CD                     u2275:
  3627  02CD  1003               	clrc
  3628  02CE  0CAC               	rrf	(??_RFM70_Initialize+0)+3,f
  3629  02CF  0CAB               	rrf	(??_RFM70_Initialize+0)+2,f
  3630  02D0  0CAA               	rrf	(??_RFM70_Initialize+0)+1,f
  3631  02D1  0CA9               	rrf	(??_RFM70_Initialize+0)+0,f
  3632  02D2                     u2270:
  3633  02D2  3EFF               	addlw	-1
  3634  02D3  1D03               	skipz
  3635  02D4  2ACD               	goto	u2275
  3636  02D5  0829               	movf	0+(??_RFM70_Initialize+0)+0,w
  3637  02D6  00AE               	movwf	(??_RFM70_Initialize+5)+0
  3638  02D7  083D               	movf	(RFM70_Initialize@j),w
  3639  02D8  3E30               	addlw	RFM70_Initialize@WriteArr&0ffh
  3640  02D9  0084               	movwf	fsr0
  3641  02DA  082E               	movf	(??_RFM70_Initialize+5)+0,w
  3642  02DB  1383               	bcf	status, 7	;select IRP bank0
  3643  02DC  0080               	movwf	indf
  3644                           opt subtitle "HI-TECH Software Omniscient Code Generator (Lite mode) build 49521"
  3645                           
  3646  02DD                     l3010:	
  3647  02DD  3001               	movlw	(01h)
  3648  02DE  00A9               	movwf	(??_RFM70_Initialize+0)+0
  3649  02DF  0829               	movf	(??_RFM70_Initialize+0)+0,w
  3650  02E0  07BD               	addwf	(RFM70_Initialize@j),f
  3651                           opt subtitle "HI-TECH Software Omniscient Code Generator (Lite mode) build 49521"
  3652  02E1                     l3012:	
  3653  02E1  3004               	movlw	(04h)
  3654  02E2  023D               	subwf	(RFM70_Initialize@j),w
  3655  02E3  1C03               	skipc
  3656  02E4  2AE6               	goto	u2281
  3657  02E5  2AE7               	goto	u2280
  3658  02E6                     u2281:
  3659  02E6  2AA5               	goto	l3008
  3660  02E7                     u2280:
  3661  02E7  2AE8               	goto	l3014
  3662                           opt subtitle "HI-TECH Software Omniscient Code Generator (Lite mode) build 49521"
  3663  02E8                     l380:	
  3664                           opt subtitle "HI-TECH Software Omniscient Code Generator (Lite mode) build 49521"
  3665                           
  3666  02E8                     l3014:	
  3667                           opt subtitle "HI-TECH Software Omniscient Code Generator (Lite mode) build 49521"
  3668  02E8  0830               	movf	(RFM70_Initialize@WriteArr),w
  3669  02E9  3806               	iorlw	06h
  3670  02EA  00A9               	movwf	(??_RFM70_Initialize+0)+0
  3671  02EB  0829               	movf	(??_RFM70_Initialize+0)+0,w
  3672  02EC  00B0               	movwf	(RFM70_Initialize@WriteArr)
  3673                           opt subtitle "HI-TECH Software Omniscient Code Generator (Lite mode) build 49521"
  3674                           
  3675  02ED                     l3016:	
  3676                           opt subtitle "HI-TECH Software Omniscient Code Generator (Lite mode) build 49521"
  3677  02ED  3030               	movlw	(RFM70_Initialize@WriteArr)&0ffh
  3678  02EE  00A9               	movwf	(??_RFM70_Initialize+0)+0
  3679  02EF  0829               	movf	(??_RFM70_Initialize+0)+0,w
  3680  02F0  00A3               	movwf	(?_SPI_Write_Buf)
  3681  02F1  3004               	movlw	(04h)
  3682  02F2  00AA               	movwf	(??_RFM70_Initialize+1)+0
  3683  02F3  082A               	movf	(??_RFM70_Initialize+1)+0,w
  3684  02F4  00A4               	movwf	0+(?_SPI_Write_Buf)+01h
  3685  02F5  3024               	movlw	(024h)
  3686  02F6  160A  118A  270F   	fcall	_SPI_Write_Buf
              120A  118A         
  3687                           opt subtitle "HI-TECH Software Omniscient Code Generator (Lite mode) build 49521"
  3688                           
  3689  02FB                     l3018:	
  3690                           opt subtitle "HI-TECH Software Omniscient Code Generator (Lite mode) build 49521"
  3691  02FB  1283               	bcf	status, 5	;RP0=0, select bank0
  3692  02FC  1303               	bcf	status, 6	;RP1=0, select bank0
  3693  02FD  0830               	movf	(RFM70_Initialize@WriteArr),w
  3694  02FE  39F9               	andlw	0F9h
  3695  02FF  00A9               	movwf	(??_RFM70_Initialize+0)+0
  3696  0300  0829               	movf	(??_RFM70_Initialize+0)+0,w
  3697  0301  00B0               	movwf	(RFM70_Initialize@WriteArr)
  3698                           opt subtitle "HI-TECH Software Omniscient Code Generator (Lite mode) build 49521"
  3699                           
  3700  0302  3030               	movlw	(RFM70_Initialize@WriteArr)&0ffh
  3701  0303  00A9               	movwf	(??_RFM70_Initialize+0)+0
  3702  0304  0829               	movf	(??_RFM70_Initialize+0)+0,w
  3703  0305  00A3               	movwf	(?_SPI_Write_Buf)
  3704  0306  3004               	movlw	(04h)
  3705  0307  00AA               	movwf	(??_RFM70_Initialize+1)+0
  3706  0308  082A               	movf	(??_RFM70_Initialize+1)+0,w
  3707  0309  00A4               	movwf	0+(?_SPI_Write_Buf)+01h
  3708  030A  3024               	movlw	(024h)
  3709  030B  160A  118A  270F   	fcall	_SPI_Write_Buf
              120A  118A         
  3710                           opt subtitle "HI-TECH Software Omniscient Code Generator (Lite mode) build 49521"
  3711                           
  3712  0310                     l3020:	
  3713                           opt subtitle "HI-TECH Software Omniscient Code Generator (Lite mode) build 49521"
  3714                           
  3715  0310  3082               movlw	130
  3716  0311  1283               	bcf	status, 5	;RP0=0, select bank0
  3717  0312  1303               	bcf	status, 6	;RP1=0, select bank0
  3718  0313  00AA               movwf	((??_RFM70_Initialize+0)+0+1),f
  3719  0314  30DD               	movlw	221
  3720  0315  00A9               movwf	((??_RFM70_Initialize+0)+0),f
  3721  0316                     u3487:
  3722  0316  0BA9               	decfsz	((??_RFM70_Initialize+0)+0),f
  3723  0317  2B16               	goto	u3487
  3724  0318  0BAA               	decfsz	((??_RFM70_Initialize+0)+0+1),f
  3725  0319  2B16               	goto	u3487
  3726  031A  2B1B               	nop2
  3727                           opt subtitle "HI-TECH Software Omniscient Code Generator (Lite mode) build 49521"
  3728                           
  3729                           opt pagewidth 120
  3730                           
  3731  031B                     l3022:	
  3732                           opt subtitle "HI-TECH Software Omniscient Code Generator (Lite mode) build 49521"
  3733  031B  3000               	movlw	(0)
  3734  031C  160A  118A  2765   	fcall	_SwitchCFG
              120A  118A         
  3735                           opt subtitle "HI-TECH Software Omniscient Code Generator (Lite mode) build 49521"
  3736                           
  3737  0321                     l3024:	
  3738                           opt subtitle "HI-TECH Software Omniscient Code Generator (Lite mode) build 49521"
  3739  0321  1283               	bcf	status, 5	;RP0=0, select bank0
  3740  0322  1303               	bcf	status, 6	;RP1=0, select bank0
  3741  0323  1107               	bcf	(7),2	;volatile
  3742                           opt subtitle "HI-TECH Software Omniscient Code Generator (Lite mode) build 49521"
  3743                           
  3744  0324                     l381:	
  3745  0324  0008               	return
  3746                           opt subtitle "HI-TECH Software Omniscient Code Generator (Lite mode) build 49521"
  3747                           
  3748  0325                     	__end_of_RFM70_Initialize:
  3749                           opt subtitle "HI-TECH Software Omniscient Code Generator (Lite mode) build 49521"
  3750                           
  3751                           opt pagewidth 120
  3752                           
  3753                           	opt lm
  3754                           
  3755                           	processor	16LF707
  3756                           clrc	macro
  3757                           	bcf	3,0
  3758                           	endm
  3759                           clrz	macro
  3760                           	bcf	3,2
  3761                           	endm
  3762                           setc	macro
  3763                           	bsf	3,0
  3764                           	endm
  3765                           setz	macro
  3766                           	bsf	3,2
  3767                           	endm
  3768                           skipc	macro
  3769                           	btfss	3,0
  3770                           	endm
  3771                           skipz	macro
  3772                           	btfss	3,2
  3773                           	endm
  3774                           skipnc	macro
  3775                           	btfsc	3,0
  3776                           	endm
  3777                           skipnz	macro
  3778                           	btfsc	3,2
  3779                           	endm
  3780                           indf	equ	0
  3781                           indf0	equ	0
  3782                           pc	equ	2
  3783  0851                     __ptext755:	;psect for function _adcReadVsupercap
  3784                           opt subtitle "HI-TECH Software Omniscient Code Generator (Lite mode) build 49521"
  3785                           
  3786                           opt pagewidth 120
  3787                           
  3788  0038                     	__size_of_adcReadVsupercap	equ	__end_of_adcReadVsupercap-_adcReadVsupercap
  3789                           opt subtitle "HI-TECH Software Omniscient Code Generator (Lite mode) build 49521"
  3790  0851                     _adcReadVsupercap:	
  3791                           opt subtitle "HI-TECH Software Omniscient Code Generator (Lite mode) build 49521"
  3792                           
  3793                           opt pagewidth 120
  3794                           
  3795  0851                     l2856:	
  3796                           opt subtitle "HI-TECH Software Omniscient Code Generator (Lite mode) build 49521"
  3797                           
  3798  0851  1683               	bsf	status, 5	;RP0=1, select bank1
  3799  0852  1303               	bcf	status, 6	;RP1=0, select bank1
  3800  0853  171D               	bsf	(157)^080h,6	;volatile
  3801                           opt subtitle "HI-TECH Software Omniscient Code Generator (Lite mode) build 49521"
  3802                           
  3803  0854                     l2858:	
  3804                           opt subtitle "HI-TECH Software Omniscient Code Generator (Lite mode) build 49521"
  3805  0854  1283               	bcf	status, 5	;RP0=0, select bank0
  3806  0855  1303               	bcf	status, 6	;RP1=0, select bank0
  3807  0856  081F               	movf	(31),w	;volatile
  3808  0857  39C3               	andlw	not (((1<<4)-1)<<2)
  3809  0858  3818               	iorlw	(06h & ((1<<4)-1))<<2
  3810  0859  009F               	movwf	(31)	;volatile
  3811                           opt subtitle "HI-TECH Software Omniscient Code Generator (Lite mode) build 49521"
  3812                           
  3813  085A  1683               	bsf	status, 5	;RP0=1, select bank1
  3814  085B  1303               	bcf	status, 6	;RP1=0, select bank1
  3815  085C  081D               	movf	(157)^080h,w	;volatile
  3816  085D  39FC               	andlw	not (((1<<2)-1)<<0)
  3817  085E  3801               	iorlw	(01h & ((1<<2)-1))<<0
  3818  085F  009D               	movwf	(157)^080h	;volatile
  3819                           opt subtitle "HI-TECH Software Omniscient Code Generator (Lite mode) build 49521"
  3820                           
  3821  0860  2861               	goto	l221
  3822                           opt subtitle "HI-TECH Software Omniscient Code Generator (Lite mode) build 49521"
  3823  0861                     l222:	
  3824                           opt subtitle "HI-TECH Software Omniscient Code Generator (Lite mode) build 49521"
  3825  0861                     l221:	
  3826  0861  1F9D               	btfss	(157)^080h,7	;volatile
  3827  0862  2864               	goto	u1961
  3828  0863  2865               	goto	u1960
  3829  0864                     u1961:
  3830  0864  2861               	goto	l221
  3831  0865                     u1960:
  3832                           opt subtitle "HI-TECH Software Omniscient Code Generator (Lite mode) build 49521"
  3833  0865                     l223:	
  3834                           opt subtitle "HI-TECH Software Omniscient Code Generator (Lite mode) build 49521"
  3835                           
  3836  0865  1283               	bcf	status, 5	;RP0=0, select bank0
  3837  0866  1303               	bcf	status, 6	;RP1=0, select bank0
  3838  0867  141F               	bsf	(31),0	;volatile
  3839                           opt subtitle "HI-TECH Software Omniscient Code Generator (Lite mode) build 49521"
  3840                           
  3841  0868  1608               	bsf	(8),4	;volatile
  3842                           opt subtitle "HI-TECH Software Omniscient Code Generator (Lite mode) build 49521"
  3843                           
  3844  0869                     l2860:	
  3845                           opt subtitle "HI-TECH Software Omniscient Code Generator (Lite mode) build 49521"
  3846                           
  3847  0869  3003               movlw	3
  3848  086A  00A1               movwf	((??_adcReadVsupercap+0)+0+1),f
  3849  086B  3097               	movlw	151
  3850  086C  00A0               movwf	((??_adcReadVsupercap+0)+0),f
  3851  086D                     u3497:
  3852  086D  0BA0               	decfsz	((??_adcReadVsupercap+0)+0),f
  3853  086E  286D               	goto	u3497
  3854  086F  0BA1               	decfsz	((??_adcReadVsupercap+0)+0+1),f
  3855  0870  286D               	goto	u3497
  3856  0871  2872               	nop2
  3857                           opt subtitle "HI-TECH Software Omniscient Code Generator (Lite mode) build 49521"
  3858                           
  3859                           opt pagewidth 120
  3860                           
  3861  0872                     l2862:	
  3862                           opt subtitle "HI-TECH Software Omniscient Code Generator (Lite mode) build 49521"
  3863  0872  1283               	bcf	status, 5	;RP0=0, select bank0
  3864  0873  1303               	bcf	status, 6	;RP1=0, select bank0
  3865  0874  149F               	bsf	(31),1	;volatile
  3866                           opt subtitle "HI-TECH Software Omniscient Code Generator (Lite mode) build 49521"
  3867                           
  3868  0875  2876               	goto	l224
  3869                           opt subtitle "HI-TECH Software Omniscient Code Generator (Lite mode) build 49521"
  3870  0876                     l225:	
  3871                           opt subtitle "HI-TECH Software Omniscient Code Generator (Lite mode) build 49521"
  3872  0876                     l224:	
  3873  0876  189F               	btfsc	(31),1	;volatile
  3874  0877  2879               	goto	u1971
  3875  0878  287A               	goto	u1970
  3876  0879                     u1971:
  3877  0879  2876               	goto	l224
  3878  087A                     u1970:
  3879  087A  287B               	goto	l2864
  3880                           opt subtitle "HI-TECH Software Omniscient Code Generator (Lite mode) build 49521"
  3881  087B                     l226:	
  3882                           opt subtitle "HI-TECH Software Omniscient Code Generator (Lite mode) build 49521"
  3883                           
  3884  087B                     l2864:	
  3885                           opt subtitle "HI-TECH Software Omniscient Code Generator (Lite mode) build 49521"
  3886  087B  081E               	movf	(30),w	;volatile
  3887  087C  00A0               	movwf	(??_adcReadVsupercap+0)+0
  3888  087D  0820               	movf	(??_adcReadVsupercap+0)+0,w
  3889  087E  00A2               	movwf	(adcReadVsupercap@value)
  3890                           opt subtitle "HI-TECH Software Omniscient Code Generator (Lite mode) build 49521"
  3891                           
  3892  087F                     l2866:	
  3893                           opt subtitle "HI-TECH Software Omniscient Code Generator (Lite mode) build 49521"
  3894  087F  101F               	bcf	(31),0	;volatile
  3895                           opt subtitle "HI-TECH Software Omniscient Code Generator (Lite mode) build 49521"
  3896                           
  3897  0880                     l2868:	
  3898                           opt subtitle "HI-TECH Software Omniscient Code Generator (Lite mode) build 49521"
  3899  0880  1208               	bcf	(8),4	;volatile
  3900                           opt subtitle "HI-TECH Software Omniscient Code Generator (Lite mode) build 49521"
  3901                           
  3902  0881                     l2870:	
  3903                           opt subtitle "HI-TECH Software Omniscient Code Generator (Lite mode) build 49521"
  3904  0881  1683               	bsf	status, 5	;RP0=1, select bank1
  3905  0882  1303               	bcf	status, 6	;RP1=0, select bank1
  3906  0883  131D               	bcf	(157)^080h,6	;volatile
  3907                           opt subtitle "HI-TECH Software Omniscient Code Generator (Lite mode) build 49521"
  3908                           
  3909  0884  1283               	bcf	status, 5	;RP0=0, select bank0
  3910  0885  1303               	bcf	status, 6	;RP1=0, select bank0
  3911  0886  0822               	movf	(adcReadVsupercap@value),w
  3912  0887  2888               	goto	l227
  3913                           opt subtitle "HI-TECH Software Omniscient Code Generator (Lite mode) build 49521"
  3914  0888                     l2872:	
  3915                           opt subtitle "HI-TECH Software Omniscient Code Generator (Lite mode) build 49521"
  3916                           
  3917  0888                     l227:	
  3918  0888  0008               	return
  3919                           opt subtitle "HI-TECH Software Omniscient Code Generator (Lite mode) build 49521"
  3920                           
  3921  0889                     	__end_of_adcReadVsupercap:
  3922                           opt subtitle "HI-TECH Software Omniscient Code Generator (Lite mode) build 49521"
  3923                           
  3924                           opt pagewidth 120
  3925                           
  3926                           	opt lm
  3927                           
  3928                           	processor	16LF707
  3929                           clrc	macro
  3930                           	bcf	3,0
  3931                           	endm
  3932                           clrz	macro
  3933                           	bcf	3,2
  3934                           	endm
  3935                           setc	macro
  3936                           	bsf	3,0
  3937                           	endm
  3938                           setz	macro
  3939                           	bsf	3,2
  3940                           	endm
  3941                           skipc	macro
  3942                           	btfss	3,0
  3943                           	endm
  3944                           skipz	macro
  3945                           	btfss	3,2
  3946                           	endm
  3947                           skipnc	macro
  3948                           	btfsc	3,0
  3949                           	endm
  3950                           skipnz	macro
  3951                           	btfsc	3,2
  3952                           	endm
  3953                           indf	equ	0
  3954                           indf0	equ	0
  3955                           pc	equ	2
  3956                           pcl	equ	2
  3957                           status	equ	3
  3958  16C0                     __ptext756:	;psect for function _rfm70setPowerdownMode
  3959                           opt subtitle "HI-TECH Software Omniscient Code Generator (Lite mode) build 49521"
  3960                           
  3961                           opt pagewidth 120
  3962                           
  3963  0025                     	__size_of_rfm70setPowerdownMode	equ	__end_of_rfm70setPowerdownMode-_rfm70setPowerdownMo
                                 de
  3964                           opt subtitle "HI-TECH Software Omniscient Code Generator (Lite mode) build 49521"
  3965  16C0                     _rfm70setPowerdownMode:	
  3966                           opt subtitle "HI-TECH Software Omniscient Code Generator (Lite mode) build 49521"
  3967                           
  3968                           opt pagewidth 120
  3969                           
  3970  16C0  1283               	bcf	status, 5	;RP0=0, select bank0
  3971  16C1  1303               	bcf	status, 6	;RP1=0, select bank0
  3972  16C2  00A7               	movwf	(rfm70setPowerdownMode@value)
  3973                           opt subtitle "HI-TECH Software Omniscient Code Generator (Lite mode) build 49521"
  3974  16C3                     l2826:	
  3975                           opt subtitle "HI-TECH Software Omniscient Code Generator (Lite mode) build 49521"
  3976                           
  3977  16C3  3000               	movlw	(0)
  3978  16C4  160A  118A  2648   	fcall	_SPI_Read_Reg
              160A  118A         
  3979  16C9  1283               	bcf	status, 5	;RP0=0, select bank0
  3980  16CA  1303               	bcf	status, 6	;RP1=0, select bank0
  3981  16CB  00A6               	movwf	(??_rfm70setPowerdownMode+0)+0
  3982  16CC  0826               	movf	(??_rfm70setPowerdownMode+0)+0,w
  3983  16CD  00A8               	movwf	(rfm70setPowerdownMode@reg)
  3984                           opt subtitle "HI-TECH Software Omniscient Code Generator (Lite mode) build 49521"
  3985                           
  3986  16CE                     l2828:	
  3987                           opt subtitle "HI-TECH Software Omniscient Code Generator (Lite mode) build 49521"
  3988  16CE  08A7               	movf	(rfm70setPowerdownMode@value),f
  3989  16CF  1D03               	skipz
  3990  16D0  2ED2               	goto	u1941
  3991  16D1  2ED3               	goto	u1940
  3992  16D2                     u1941:
  3993  16D2  2ED8               	goto	l404
  3994  16D3                     u1940:
  3995                           opt subtitle "HI-TECH Software Omniscient Code Generator (Lite mode) build 49521"
  3996                           
  3997  16D3                     l2830:	
  3998                           opt subtitle "HI-TECH Software Omniscient Code Generator (Lite mode) build 49521"
  3999  16D3  30FD               	movlw	(0FDh)
  4000  16D4  00A6               	movwf	(??_rfm70setPowerdownMode+0)+0
  4001  16D5  0826               	movf	(??_rfm70setPowerdownMode+0)+0,w
  4002  16D6  05A8               	andwf	(rfm70setPowerdownMode@reg),f
  4003                           opt subtitle "HI-TECH Software Omniscient Code Generator (Lite mode) build 49521"
  4004                           
  4005  16D7  2EDA               	goto	l2832
  4006                           opt subtitle "HI-TECH Software Omniscient Code Generator (Lite mode) build 49521"
  4007                           
  4008  16D8                     l404:	
  4009                           opt subtitle "HI-TECH Software Omniscient Code Generator (Lite mode) build 49521"
  4010                           
  4011                           opt pagewidth 120
  4012  16D8  14A8               	bsf	(rfm70setPowerdownMode@reg)+(1/8),(1)&7
  4013  16D9  2EDA               	goto	l2832
  4014                           opt subtitle "HI-TECH Software Omniscient Code Generator (Lite mode) build 49521"
  4015                           
  4016  16DA                     l405:	
  4017                           opt subtitle "HI-TECH Software Omniscient Code Generator (Lite mode) build 49521"
  4018                           
  4019  16DA                     l2832:	
  4020                           opt subtitle "HI-TECH Software Omniscient Code Generator (Lite mode) build 49521"
  4021                           
  4022  16DA  0828               	movf	(rfm70setPowerdownMode@reg),w
  4023  16DB  00A6               	movwf	(??_rfm70setPowerdownMode+0)+0
  4024  16DC  0826               	movf	(??_rfm70setPowerdownMode+0)+0,w
  4025  16DD  00A3               	movwf	(?_SPI_Write_Reg)
  4026  16DE  3020               	movlw	(020h)
  4027  16DF  160A  118A  25EB   	fcall	_SPI_Write_Reg
              160A  118A         
  4028                           opt subtitle "HI-TECH Software Omniscient Code Generator (Lite mode) build 49521"
  4029                           
  4030  16E4                     l406:	
  4031  16E4  0008               	return
  4032                           opt subtitle "HI-TECH Software Omniscient Code Generator (Lite mode) build 49521"
  4033                           
  4034  16E5                     	__end_of_rfm70setPowerdownMode:
  4035                           opt subtitle "HI-TECH Software Omniscient Code Generator (Lite mode) build 49521"
  4036                           
  4037                           opt pagewidth 120
  4038                           
  4039                           	opt lm
  4040                           
  4041                           	processor	16LF707
  4042                           clrc	macro
  4043                           	bcf	3,0
  4044                           	endm
  4045                           clrz	macro
  4046                           	bcf	3,2
  4047                           	endm
  4048                           setc	macro
  4049                           	bsf	3,0
  4050                           	endm
  4051                           setz	macro
  4052                           	bsf	3,2
  4053                           	endm
  4054                           skipc	macro
  4055                           	btfss	3,0
  4056                           	endm
  4057                           skipz	macro
  4058                           	btfss	3,2
  4059                           	endm
  4060                           skipnc	macro
  4061                           	btfsc	3,0
  4062                           	endm
  4063                           skipnz	macro
  4064                           	btfsc	3,2
  4065                           	endm
  4066                           indf	equ	0
  4067                           indf0	equ	0
  4068                           pc	equ	2
  4069  15B6                     __ptext757:	;psect for function _adcInit
  4070                           opt subtitle "HI-TECH Software Omniscient Code Generator (Lite mode) build 49521"
  4071                           
  4072                           opt pagewidth 120
  4073                           
  4074  0009                     	__size_of_adcInit	equ	__end_of_adcInit-_adcInit
  4075                           opt subtitle "HI-TECH Software Omniscient Code Generator (Lite mode) build 49521"
  4076  15B6                     _adcInit:	
  4077                           opt subtitle "HI-TECH Software Omniscient Code Generator (Lite mode) build 49521"
  4078                           
  4079                           opt pagewidth 120
  4080                           
  4081  15B6                     l2824:	
  4082                           opt subtitle "HI-TECH Software Omniscient Code Generator (Lite mode) build 49521"
  4083  15B6  1683               	bsf	status, 5	;RP0=1, select bank1
  4084  15B7  1303               	bcf	status, 6	;RP1=0, select bank1
  4085  15B8  081F               	movf	(159)^080h,w	;volatile
  4086  15B9  398F               	andlw	not (((1<<3)-1)<<4)
  4087  15BA  3810               	iorlw	(01h & ((1<<3)-1))<<4
  4088  15BB  009F               	movwf	(159)^080h	;volatile
  4089                           opt subtitle "HI-TECH Software Omniscient Code Generator (Lite mode) build 49521"
  4090                           
  4091  15BC  3003               	movlw	(03h & ((1<<2)-1))<<0
  4092  15BD  049F               	iorwf	(159)^080h,f	;volatile
  4093                           opt subtitle "HI-TECH Software Omniscient Code Generator (Lite mode) build 49521"
  4094                           
  4095  15BE                     l247:	
  4096  15BE  0008               	return
  4097                           opt subtitle "HI-TECH Software Omniscient Code Generator (Lite mode) build 49521"
  4098                           
  4099  15BF                     	__end_of_adcInit:
  4100                           opt subtitle "HI-TECH Software Omniscient Code Generator (Lite mode) build 49521"
  4101                           
  4102                           opt pagewidth 120
  4103                           
  4104                           	opt lm
  4105                           
  4106                           	processor	16LF707
  4107                           clrc	macro
  4108                           	bcf	3,0
  4109                           	endm
  4110                           clrz	macro
  4111                           	bcf	3,2
  4112                           	endm
  4113                           setc	macro
  4114                           	bsf	3,0
  4115                           	endm
  4116                           setz	macro
  4117                           	bsf	3,2
  4118                           	endm
  4119                           skipc	macro
  4120                           	btfss	3,0
  4121                           	endm
  4122                           skipz	macro
  4123                           	btfss	3,2
  4124                           	endm
  4125                           skipnc	macro
  4126                           	btfsc	3,0
  4127                           	endm
  4128                           skipnz	macro
  4129                           	btfsc	3,2
  4130                           	endm
  4131                           indf	equ	0
  4132                           indf0	equ	0
  4133                           pc	equ	2
  4134  1601                     __ptext758:	;psect for function _uartInit
  4135                           opt subtitle "HI-TECH Software Omniscient Code Generator (Lite mode) build 49521"
  4136                           
  4137                           opt pagewidth 120
  4138                           
  4139  0016                     	__size_of_uartInit	equ	__end_of_uartInit-_uartInit
  4140                           opt subtitle "HI-TECH Software Omniscient Code Generator (Lite mode) build 49521"
  4141  1601                     _uartInit:	
  4142                           opt subtitle "HI-TECH Software Omniscient Code Generator (Lite mode) build 49521"
  4143                           
  4144                           opt pagewidth 120
  4145                           
  4146  1601                     l2808:	
  4147                           opt subtitle "HI-TECH Software Omniscient Code Generator (Lite mode) build 49521"
  4148  1601  1683               	bsf	status, 5	;RP0=1, select bank1
  4149  1602  1303               	bcf	status, 6	;RP1=0, select bank1
  4150  1603  1787               	bsf	(135)^080h,7	;volatile
  4151                           opt subtitle "HI-TECH Software Omniscient Code Generator (Lite mode) build 49521"
  4152                           
  4153  1604  1307               	bcf	(135)^080h,6	;volatile
  4154                           opt subtitle "HI-TECH Software Omniscient Code Generator (Lite mode) build 49521"
  4155                           
  4156  1605                     l2810:	
  4157                           opt subtitle "HI-TECH Software Omniscient Code Generator (Lite mode) build 49521"
  4158  1605  3002               	movlw	(02h)
  4159  1606  0098               	movwf	(152)^080h	;volatile
  4160                           opt subtitle "HI-TECH Software Omniscient Code Generator (Lite mode) build 49521"
  4161                           
  4162  1607                     l2812:	
  4163                           opt subtitle "HI-TECH Software Omniscient Code Generator (Lite mode) build 49521"
  4164  1607  1283               	bcf	status, 5	;RP0=0, select bank0
  4165  1608  1303               	bcf	status, 6	;RP1=0, select bank0
  4166  1609  0198               	clrf	(24)	;volatile
  4167                           opt subtitle "HI-TECH Software Omniscient Code Generator (Lite mode) build 49521"
  4168                           
  4169  160A                     l2814:	
  4170                           opt subtitle "HI-TECH Software Omniscient Code Generator (Lite mode) build 49521"
  4171  160A  1683               	bsf	status, 5	;RP0=1, select bank1
  4172  160B  1303               	bcf	status, 6	;RP1=0, select bank1
  4173  160C  1118               	bcf	(152)^080h,2	;volatile
  4174                           opt subtitle "HI-TECH Software Omniscient Code Generator (Lite mode) build 49521"
  4175                           
  4176  160D                     l2816:	
  4177                           opt subtitle "HI-TECH Software Omniscient Code Generator (Lite mode) build 49521"
  4178  160D  1218               	bcf	(152)^080h,4	;volatile
  4179                           opt subtitle "HI-TECH Software Omniscient Code Generator (Lite mode) build 49521"
  4180                           
  4181  160E                     l2818:	
  4182                           opt subtitle "HI-TECH Software Omniscient Code Generator (Lite mode) build 49521"
  4183  160E  300C               	movlw	(0Ch)
  4184  160F  0099               	movwf	(153)^080h	;volatile
  4185                           opt subtitle "HI-TECH Software Omniscient Code Generator (Lite mode) build 49521"
  4186                           
  4187  1610                     l2820:	
  4188                           opt subtitle "HI-TECH Software Omniscient Code Generator (Lite mode) build 49521"
  4189  1610  1283               	bcf	status, 5	;RP0=0, select bank0
  4190  1611  1303               	bcf	status, 6	;RP1=0, select bank0
  4191  1612  1798               	bsf	(24),7	;volatile
  4192                           opt subtitle "HI-TECH Software Omniscient Code Generator (Lite mode) build 49521"
  4193                           
  4194  1613                     l2822:	
  4195                           opt subtitle "HI-TECH Software Omniscient Code Generator (Lite mode) build 49521"
  4196  1613  1683               	bsf	status, 5	;RP0=1, select bank1
  4197  1614  1303               	bcf	status, 6	;RP1=0, select bank1
  4198  1615  1698               	bsf	(152)^080h,5	;volatile
  4199                           opt subtitle "HI-TECH Software Omniscient Code Generator (Lite mode) build 49521"
  4200                           
  4201  1616                     l241:	
  4202  1616  0008               	return
  4203                           opt subtitle "HI-TECH Software Omniscient Code Generator (Lite mode) build 49521"
  4204                           
  4205  1617                     	__end_of_uartInit:
  4206                           opt subtitle "HI-TECH Software Omniscient Code Generator (Lite mode) build 49521"
  4207                           
  4208                           opt pagewidth 120
  4209                           
  4210                           	opt lm
  4211                           
  4212                           	processor	16LF707
  4213                           clrc	macro
  4214                           	bcf	3,0
  4215                           	endm
  4216                           clrz	macro
  4217                           	bcf	3,2
  4218                           	endm
  4219                           setc	macro
  4220                           	bsf	3,0
  4221                           	endm
  4222                           setz	macro
  4223                           	bsf	3,2
  4224                           	endm
  4225                           skipc	macro
  4226                           	btfss	3,0
  4227                           	endm
  4228                           skipz	macro
  4229                           	btfss	3,2
  4230                           	endm
  4231                           skipnc	macro
  4232                           	btfsc	3,0
  4233                           	endm
  4234                           skipnz	macro
  4235                           	btfsc	3,2
  4236                           	endm
  4237                           indf	equ	0
  4238                           indf0	equ	0
  4239                           pc	equ	2
  4240  1617                     __ptext759:	;psect for function _spiInit
  4241                           opt subtitle "HI-TECH Software Omniscient Code Generator (Lite mode) build 49521"
  4242                           
  4243                           opt pagewidth 120
  4244                           
  4245  0018                     	__size_of_spiInit	equ	__end_of_spiInit-_spiInit
  4246                           opt subtitle "HI-TECH Software Omniscient Code Generator (Lite mode) build 49521"
  4247  1617                     _spiInit:	
  4248                           opt subtitle "HI-TECH Software Omniscient Code Generator (Lite mode) build 49521"
  4249                           
  4250                           opt pagewidth 120
  4251                           
  4252  1617                     l2798:	
  4253                           opt subtitle "HI-TECH Software Omniscient Code Generator (Lite mode) build 49521"
  4254  1617  1283               	bcf	status, 5	;RP0=0, select bank0
  4255  1618  1303               	bcf	status, 6	;RP1=0, select bank0
  4256  1619  1694               	bsf	(20),5	;volatile
  4257                           opt subtitle "HI-TECH Software Omniscient Code Generator (Lite mode) build 49521"
  4258                           
  4259  161A  1214               	bcf	(20),4	;volatile
  4260                           opt subtitle "HI-TECH Software Omniscient Code Generator (Lite mode) build 49521"
  4261                           
  4262  161B                     l2800:	
  4263                           opt subtitle "HI-TECH Software Omniscient Code Generator (Lite mode) build 49521"
  4264  161B  0814               	movf	(20),w	;volatile
  4265  161C  39F0               	andlw	not (((1<<4)-1)<<0)
  4266  161D  3802               	iorlw	(02h & ((1<<4)-1))<<0
  4267  161E  0094               	movwf	(20)	;volatile
  4268                           opt subtitle "HI-TECH Software Omniscient Code Generator (Lite mode) build 49521"
  4269                           
  4270  161F                     l2802:	
  4271                           opt subtitle "HI-TECH Software Omniscient Code Generator (Lite mode) build 49521"
  4272  161F  1683               	bsf	status, 5	;RP0=1, select bank1
  4273  1620  1303               	bcf	status, 6	;RP1=0, select bank1
  4274  1621  1394               	bcf	(148)^080h,7	;volatile
  4275                           opt subtitle "HI-TECH Software Omniscient Code Generator (Lite mode) build 49521"
  4276                           
  4277  1622                     l2804:	
  4278                           opt subtitle "HI-TECH Software Omniscient Code Generator (Lite mode) build 49521"
  4279  1622  1714               	bsf	(148)^080h,6	;volatile
  4280                           opt subtitle "HI-TECH Software Omniscient Code Generator (Lite mode) build 49521"
  4281                           
  4282  1623                     l2806:	
  4283                           opt subtitle "HI-TECH Software Omniscient Code Generator (Lite mode) build 49521"
  4284                           
  4285  1623  3082               movlw	130
  4286  1624  1283               	bcf	status, 5	;RP0=0, select bank0
  4287  1625  1303               	bcf	status, 6	;RP1=0, select bank0
  4288  1626  00A1               movwf	((??_spiInit+0)+0+1),f
  4289  1627  30DD               	movlw	221
  4290  1628  00A0               movwf	((??_spiInit+0)+0),f
  4291  1629                     u3507:
  4292  1629  0BA0               	decfsz	((??_spiInit+0)+0),f
  4293  162A  2E29               	goto	u3507
  4294  162B  0BA1               	decfsz	((??_spiInit+0)+0+1),f
  4295  162C  2E29               	goto	u3507
  4296  162D  2E2E               	nop2
  4297                           opt subtitle "HI-TECH Software Omniscient Code Generator (Lite mode) build 49521"
  4298                           
  4299                           opt pagewidth 120
  4300                           
  4301  162E                     l244:	
  4302  162E  0008               	return
  4303                           opt subtitle "HI-TECH Software Omniscient Code Generator (Lite mode) build 49521"
  4304                           
  4305  162F                     	__end_of_spiInit:
  4306                           opt subtitle "HI-TECH Software Omniscient Code Generator (Lite mode) build 49521"
  4307                           
  4308                           opt pagewidth 120
  4309                           
  4310                           	opt lm
  4311                           
  4312                           	processor	16LF707
  4313                           clrc	macro
  4314                           	bcf	3,0
  4315                           	endm
  4316                           clrz	macro
  4317                           	bcf	3,2
  4318                           	endm
  4319                           setc	macro
  4320                           	bsf	3,0
  4321                           	endm
  4322                           setz	macro
  4323                           	bsf	3,2
  4324                           	endm
  4325                           skipc	macro
  4326                           	btfss	3,0
  4327                           	endm
  4328                           skipz	macro
  4329                           	btfss	3,2
  4330                           	endm
  4331                           skipnc	macro
  4332                           	btfsc	3,0
  4333                           	endm
  4334                           skipnz	macro
  4335                           	btfsc	3,2
  4336                           	endm
  4337                           indf	equ	0
  4338                           indf0	equ	0
  4339                           pc	equ	2
  4340  0C8A                     __ptext760:	;psect for function _boardInit
  4341                           opt subtitle "HI-TECH Software Omniscient Code Generator (Lite mode) build 49521"
  4342                           
  4343                           opt pagewidth 120
  4344                           
  4345  00C0                     	__size_of_boardInit	equ	__end_of_boardInit-_boardInit
  4346                           opt subtitle "HI-TECH Software Omniscient Code Generator (Lite mode) build 49521"
  4347  0C8A                     _boardInit:	
  4348                           opt subtitle "HI-TECH Software Omniscient Code Generator (Lite mode) build 49521"
  4349                           
  4350                           opt pagewidth 120
  4351                           
  4352  0C8A                     l2608:	
  4353                           opt subtitle "HI-TECH Software Omniscient Code Generator (Lite mode) build 49521"
  4354  0C8A  1683               	bsf	status, 5	;RP0=1, select bank1
  4355  0C8B  1303               	bcf	status, 6	;RP1=0, select bank1
  4356  0C8C  0810               	movf	(144)^080h,w	;volatile
  4357  0C8D  39CF               	andlw	not (((1<<2)-1)<<4)
  4358  0C8E  3820               	iorlw	(02h & ((1<<2)-1))<<4
  4359  0C8F  0090               	movwf	(144)^080h	;volatile
  4360                           opt subtitle "HI-TECH Software Omniscient Code Generator (Lite mode) build 49521"
  4361                           
  4362  0C90                     l2610:	
  4363                           opt subtitle "HI-TECH Software Omniscient Code Generator (Lite mode) build 49521"
  4364  0C90  1683               	bsf	status, 5	;RP0=1, select bank3
  4365  0C91  1703               	bsf	status, 6	;RP1=1, select bank3
  4366  0C92  1307               	bcf	(391)^0180h,6	;volatile
  4367                           opt subtitle "HI-TECH Software Omniscient Code Generator (Lite mode) build 49521"
  4368                           
  4369  0C93                     l2612:	
  4370                           opt subtitle "HI-TECH Software Omniscient Code Generator (Lite mode) build 49521"
  4371  0C93  1387               	bcf	(391)^0180h,7	;volatile
  4372                           opt subtitle "HI-TECH Software Omniscient Code Generator (Lite mode) build 49521"
  4373                           
  4374  0C94                     l2614:	
  4375                           opt subtitle "HI-TECH Software Omniscient Code Generator (Lite mode) build 49521"
  4376  0C94  1683               	bsf	status, 5	;RP0=1, select bank1
  4377  0C95  1303               	bcf	status, 6	;RP1=0, select bank1
  4378  0C96  1307               	bcf	(135)^080h,6	;volatile
  4379                           opt subtitle "HI-TECH Software Omniscient Code Generator (Lite mode) build 49521"
  4380                           
  4381  0C97                     l2616:	
  4382                           opt subtitle "HI-TECH Software Omniscient Code Generator (Lite mode) build 49521"
  4383  0C97  1683               	bsf	status, 5	;RP0=1, select bank3
  4384  0C98  1703               	bsf	status, 6	;RP1=1, select bank3
  4385  0C99  1107               	bcf	(391)^0180h,2	;volatile
  4386                           opt subtitle "HI-TECH Software Omniscient Code Generator (Lite mode) build 49521"
  4387                           
  4388  0C9A                     l2618:	
  4389                           opt subtitle "HI-TECH Software Omniscient Code Generator (Lite mode) build 49521"
  4390  0C9A  1108               	bcf	(392)^0180h,2	;volatile
  4391                           opt subtitle "HI-TECH Software Omniscient Code Generator (Lite mode) build 49521"
  4392                           
  4393  0C9B                     l2620:	
  4394                           opt subtitle "HI-TECH Software Omniscient Code Generator (Lite mode) build 49521"
  4395  0C9B  1287               	bcf	(391)^0180h,5	;volatile
  4396                           opt subtitle "HI-TECH Software Omniscient Code Generator (Lite mode) build 49521"
  4397                           
  4398  0C9C                     l2622:	
  4399                           opt subtitle "HI-TECH Software Omniscient Code Generator (Lite mode) build 49521"
  4400  0C9C  1088               	bcf	(392)^0180h,1	;volatile
  4401                           opt subtitle "HI-TECH Software Omniscient Code Generator (Lite mode) build 49521"
  4402                           
  4403  0C9D                     l2624:	
  4404                           opt subtitle "HI-TECH Software Omniscient Code Generator (Lite mode) build 49521"
  4405  0C9D  1683               	bsf	status, 5	;RP0=1, select bank1
  4406  0C9E  1303               	bcf	status, 6	;RP1=0, select bank1
  4407  0C9F  1509               	bsf	(137)^080h,2	;volatile
  4408                           opt subtitle "HI-TECH Software Omniscient Code Generator (Lite mode) build 49521"
  4409                           
  4410  0CA0                     l2626:	
  4411                           opt subtitle "HI-TECH Software Omniscient Code Generator (Lite mode) build 49521"
  4412  0CA0  1683               	bsf	status, 5	;RP0=1, select bank3
  4413  0CA1  1703               	bsf	status, 6	;RP1=1, select bank3
  4414  0CA2  1509               	bsf	(393)^0180h,2	;volatile
  4415                           opt subtitle "HI-TECH Software Omniscient Code Generator (Lite mode) build 49521"
  4416                           
  4417  0CA3                     l2628:	
  4418                           opt subtitle "HI-TECH Software Omniscient Code Generator (Lite mode) build 49521"
  4419  0CA3  1683               	bsf	status, 5	;RP0=1, select bank1
  4420  0CA4  1303               	bcf	status, 6	;RP1=0, select bank1
  4421  0CA5  1208               	bcf	(136)^080h,4	;volatile
  4422                           opt subtitle "HI-TECH Software Omniscient Code Generator (Lite mode) build 49521"
  4423                           
  4424  0CA6                     l2630:	
  4425                           opt subtitle "HI-TECH Software Omniscient Code Generator (Lite mode) build 49521"
  4426  0CA6  1683               	bsf	status, 5	;RP0=1, select bank3
  4427  0CA7  1703               	bsf	status, 6	;RP1=1, select bank3
  4428  0CA8  1208               	bcf	(392)^0180h,4	;volatile
  4429                           opt subtitle "HI-TECH Software Omniscient Code Generator (Lite mode) build 49521"
  4430                           
  4431  0CA9                     l2632:	
  4432                           opt subtitle "HI-TECH Software Omniscient Code Generator (Lite mode) build 49521"
  4433  0CA9  1283               	bcf	status, 5	;RP0=0, select bank0
  4434  0CAA  1303               	bcf	status, 6	;RP1=0, select bank0
  4435  0CAB  1208               	bcf	(8),4	;volatile
  4436                           opt subtitle "HI-TECH Software Omniscient Code Generator (Lite mode) build 49521"
  4437                           
  4438  0CAC                     l2634:	
  4439                           opt subtitle "HI-TECH Software Omniscient Code Generator (Lite mode) build 49521"
  4440  0CAC  1683               	bsf	status, 5	;RP0=1, select bank1
  4441  0CAD  1303               	bcf	status, 6	;RP1=0, select bank1
  4442  0CAE  1105               	bcf	(133)^080h,2	;volatile
  4443                           opt subtitle "HI-TECH Software Omniscient Code Generator (Lite mode) build 49521"
  4444                           
  4445  0CAF                     l2636:	
  4446                           opt subtitle "HI-TECH Software Omniscient Code Generator (Lite mode) build 49521"
  4447  0CAF  1683               	bsf	status, 5	;RP0=1, select bank3
  4448  0CB0  1703               	bsf	status, 6	;RP1=1, select bank3
  4449  0CB1  1105               	bcf	(389)^0180h,2	;volatile
  4450                           opt subtitle "HI-TECH Software Omniscient Code Generator (Lite mode) build 49521"
  4451                           
  4452  0CB2                     l2638:	
  4453                           opt subtitle "HI-TECH Software Omniscient Code Generator (Lite mode) build 49521"
  4454  0CB2  1283               	bcf	status, 5	;RP0=0, select bank0
  4455  0CB3  1303               	bcf	status, 6	;RP1=0, select bank0
  4456  0CB4  1505               	bsf	(5),2	;volatile
  4457                           opt subtitle "HI-TECH Software Omniscient Code Generator (Lite mode) build 49521"
  4458                           
  4459  0CB5                     l2640:	
  4460                           opt subtitle "HI-TECH Software Omniscient Code Generator (Lite mode) build 49521"
  4461  0CB5  1683               	bsf	status, 5	;RP0=1, select bank1
  4462  0CB6  1303               	bcf	status, 6	;RP1=0, select bank1
  4463  0CB7  1107               	bcf	(135)^080h,2	;volatile
  4464                           opt subtitle "HI-TECH Software Omniscient Code Generator (Lite mode) build 49521"
  4465                           
  4466  0CB8                     l2642:	
  4467                           opt subtitle "HI-TECH Software Omniscient Code Generator (Lite mode) build 49521"
  4468  0CB8  1108               	bcf	(136)^080h,2	;volatile
  4469                           opt subtitle "HI-TECH Software Omniscient Code Generator (Lite mode) build 49521"
  4470                           
  4471  0CB9                     l2644:	
  4472                           opt subtitle "HI-TECH Software Omniscient Code Generator (Lite mode) build 49521"
  4473  0CB9  1187               	bcf	(135)^080h,3	;volatile
  4474                           opt subtitle "HI-TECH Software Omniscient Code Generator (Lite mode) build 49521"
  4475                           
  4476  0CBA                     l2646:	
  4477                           opt subtitle "HI-TECH Software Omniscient Code Generator (Lite mode) build 49521"
  4478  0CBA  1287               	bcf	(135)^080h,5	;volatile
  4479                           opt subtitle "HI-TECH Software Omniscient Code Generator (Lite mode) build 49521"
  4480                           
  4481  0CBB                     l2648:	
  4482                           opt subtitle "HI-TECH Software Omniscient Code Generator (Lite mode) build 49521"
  4483  0CBB  1607               	bsf	(135)^080h,4	;volatile
  4484                           opt subtitle "HI-TECH Software Omniscient Code Generator (Lite mode) build 49521"
  4485                           
  4486  0CBC                     l2650:	
  4487                           opt subtitle "HI-TECH Software Omniscient Code Generator (Lite mode) build 49521"
  4488  0CBC  1488               	bsf	(136)^080h,1	;volatile
  4489                           opt subtitle "HI-TECH Software Omniscient Code Generator (Lite mode) build 49521"
  4490                           
  4491  0CBD                     l2652:	
  4492                           opt subtitle "HI-TECH Software Omniscient Code Generator (Lite mode) build 49521"
  4493  0CBD  1283               	bcf	status, 5	;RP0=0, select bank0
  4494  0CBE  1303               	bcf	status, 6	;RP1=0, select bank0
  4495  0CBF  1107               	bcf	(7),2	;volatile
  4496                           opt subtitle "HI-TECH Software Omniscient Code Generator (Lite mode) build 49521"
  4497                           
  4498  0CC0                     l2654:	
  4499                           opt subtitle "HI-TECH Software Omniscient Code Generator (Lite mode) build 49521"
  4500  0CC0  1508               	bsf	(8),2	;volatile
  4501                           opt subtitle "HI-TECH Software Omniscient Code Generator (Lite mode) build 49521"
  4502                           
  4503  0CC1                     l2656:	
  4504                           opt subtitle "HI-TECH Software Omniscient Code Generator (Lite mode) build 49521"
  4505  0CC1  1187               	bcf	(7),3	;volatile
  4506                           opt subtitle "HI-TECH Software Omniscient Code Generator (Lite mode) build 49521"
  4507                           
  4508  0CC2                     l2658:	
  4509                           opt subtitle "HI-TECH Software Omniscient Code Generator (Lite mode) build 49521"
  4510  0CC2  1287               	bcf	(7),5	;volatile
  4511                           opt subtitle "HI-TECH Software Omniscient Code Generator (Lite mode) build 49521"
  4512                           
  4513  0CC3                     l2660:	
  4514                           opt subtitle "HI-TECH Software Omniscient Code Generator (Lite mode) build 49521"
  4515  0CC3  1683               	bsf	status, 5	;RP0=1, select bank1
  4516  0CC4  1303               	bcf	status, 6	;RP1=0, select bank1
  4517  0CC5  1008               	bcf	(136)^080h,0	;volatile
  4518                           opt subtitle "HI-TECH Software Omniscient Code Generator (Lite mode) build 49521"
  4519                           
  4520  0CC6                     l2662:	
  4521                           opt subtitle "HI-TECH Software Omniscient Code Generator (Lite mode) build 49521"
  4522  0CC6  1683               	bsf	status, 5	;RP0=1, select bank3
  4523  0CC7  1703               	bsf	status, 6	;RP1=1, select bank3
  4524  0CC8  1008               	bcf	(392)^0180h,0	;volatile
  4525                           opt subtitle "HI-TECH Software Omniscient Code Generator (Lite mode) build 49521"
  4526                           
  4527  0CC9                     l2664:	
  4528                           opt subtitle "HI-TECH Software Omniscient Code Generator (Lite mode) build 49521"
  4529  0CC9  1683               	bsf	status, 5	;RP0=1, select bank1
  4530  0CCA  1303               	bcf	status, 6	;RP1=0, select bank1
  4531  0CCB  1509               	bsf	(137)^080h,2	;volatile
  4532                           opt subtitle "HI-TECH Software Omniscient Code Generator (Lite mode) build 49521"
  4533                           
  4534  0CCC                     l2666:	
  4535                           opt subtitle "HI-TECH Software Omniscient Code Generator (Lite mode) build 49521"
  4536  0CCC  1683               	bsf	status, 5	;RP0=1, select bank3
  4537  0CCD  1703               	bsf	status, 6	;RP1=1, select bank3
  4538  0CCE  1509               	bsf	(393)^0180h,2	;volatile
  4539                           opt subtitle "HI-TECH Software Omniscient Code Generator (Lite mode) build 49521"
  4540                           
  4541  0CCF                     l2668:	
  4542                           opt subtitle "HI-TECH Software Omniscient Code Generator (Lite mode) build 49521"
  4543  0CCF  1683               	bsf	status, 5	;RP0=1, select bank1
  4544  0CD0  1303               	bcf	status, 6	;RP1=0, select bank1
  4545  0CD1  1409               	bsf	(137)^080h,0	;volatile
  4546                           opt subtitle "HI-TECH Software Omniscient Code Generator (Lite mode) build 49521"
  4547                           
  4548  0CD2                     l2670:	
  4549                           opt subtitle "HI-TECH Software Omniscient Code Generator (Lite mode) build 49521"
  4550  0CD2  1683               	bsf	status, 5	;RP0=1, select bank3
  4551  0CD3  1703               	bsf	status, 6	;RP1=1, select bank3
  4552  0CD4  1009               	bcf	(393)^0180h,0	;volatile
  4553                           opt subtitle "HI-TECH Software Omniscient Code Generator (Lite mode) build 49521"
  4554                           
  4555  0CD5                     l2672:	
  4556                           opt subtitle "HI-TECH Software Omniscient Code Generator (Lite mode) build 49521"
  4557  0CD5  1283               	bcf	status, 5	;RP0=0, select bank0
  4558  0CD6  1303               	bcf	status, 6	;RP1=0, select bank0
  4559  0CD7  1008               	bcf	(8),0	;volatile
  4560                           opt subtitle "HI-TECH Software Omniscient Code Generator (Lite mode) build 49521"
  4561                           
  4562  0CD8                     l2674:	
  4563                           opt subtitle "HI-TECH Software Omniscient Code Generator (Lite mode) build 49521"
  4564  0CD8  1683               	bsf	status, 5	;RP0=1, select bank1
  4565  0CD9  1303               	bcf	status, 6	;RP1=0, select bank1
  4566  0CDA  1409               	bsf	(137)^080h,0	;volatile
  4567                           opt subtitle "HI-TECH Software Omniscient Code Generator (Lite mode) build 49521"
  4568                           
  4569  0CDB                     l2676:	
  4570                           opt subtitle "HI-TECH Software Omniscient Code Generator (Lite mode) build 49521"
  4571  0CDB  1683               	bsf	status, 5	;RP0=1, select bank3
  4572  0CDC  1703               	bsf	status, 6	;RP1=1, select bank3
  4573  0CDD  1409               	bsf	(393)^0180h,0	;volatile
  4574                           opt subtitle "HI-TECH Software Omniscient Code Generator (Lite mode) build 49521"
  4575                           
  4576  0CDE                     l2678:	
  4577                           opt subtitle "HI-TECH Software Omniscient Code Generator (Lite mode) build 49521"
  4578  0CDE  1683               	bsf	status, 5	;RP0=1, select bank1
  4579  0CDF  1303               	bcf	status, 6	;RP1=0, select bank1
  4580  0CE0  1188               	bcf	(136)^080h,3	;volatile
  4581                           opt subtitle "HI-TECH Software Omniscient Code Generator (Lite mode) build 49521"
  4582                           
  4583  0CE1                     l2680:	
  4584                           opt subtitle "HI-TECH Software Omniscient Code Generator (Lite mode) build 49521"
  4585  0CE1  1283               	bcf	status, 5	;RP0=0, select bank0
  4586  0CE2  1303               	bcf	status, 6	;RP1=0, select bank0
  4587  0CE3  1188               	bcf	(8),3	;volatile
  4588                           opt subtitle "HI-TECH Software Omniscient Code Generator (Lite mode) build 49521"
  4589                           
  4590  0CE4                     l2682:	
  4591                           opt subtitle "HI-TECH Software Omniscient Code Generator (Lite mode) build 49521"
  4592  0CE4  1683               	bsf	status, 5	;RP0=1, select bank1
  4593  0CE5  1303               	bcf	status, 6	;RP1=0, select bank1
  4594  0CE6  1688               	bsf	(136)^080h,5	;volatile
  4595                           opt subtitle "HI-TECH Software Omniscient Code Generator (Lite mode) build 49521"
  4596                           
  4597  0CE7                     l2684:	
  4598                           opt subtitle "HI-TECH Software Omniscient Code Generator (Lite mode) build 49521"
  4599  0CE7  1683               	bsf	status, 5	;RP0=1, select bank3
  4600  0CE8  1703               	bsf	status, 6	;RP1=1, select bank3
  4601  0CE9  1288               	bcf	(392)^0180h,5	;volatile
  4602                           opt subtitle "HI-TECH Software Omniscient Code Generator (Lite mode) build 49521"
  4603                           
  4604  0CEA                     l2686:	
  4605                           opt subtitle "HI-TECH Software Omniscient Code Generator (Lite mode) build 49521"
  4606  0CEA  1683               	bsf	status, 5	;RP0=1, select bank1
  4607  0CEB  1303               	bcf	status, 6	;RP1=0, select bank1
  4608  0CEC  1708               	bsf	(136)^080h,6	;volatile
  4609                           opt subtitle "HI-TECH Software Omniscient Code Generator (Lite mode) build 49521"
  4610                           
  4611  0CED                     l2688:	
  4612                           opt subtitle "HI-TECH Software Omniscient Code Generator (Lite mode) build 49521"
  4613  0CED  1788               	bsf	(136)^080h,7	;volatile
  4614                           opt subtitle "HI-TECH Software Omniscient Code Generator (Lite mode) build 49521"
  4615                           
  4616  0CEE                     l2690:	
  4617                           opt subtitle "HI-TECH Software Omniscient Code Generator (Lite mode) build 49521"
  4618  0CEE  1683               	bsf	status, 5	;RP0=1, select bank3
  4619  0CEF  1703               	bsf	status, 6	;RP1=1, select bank3
  4620  0CF0  1308               	bcf	(392)^0180h,6	;volatile
  4621                           opt subtitle "HI-TECH Software Omniscient Code Generator (Lite mode) build 49521"
  4622                           
  4623  0CF1                     l2692:	
  4624                           opt subtitle "HI-TECH Software Omniscient Code Generator (Lite mode) build 49521"
  4625  0CF1  1388               	bcf	(392)^0180h,7	;volatile
  4626                           opt subtitle "HI-TECH Software Omniscient Code Generator (Lite mode) build 49521"
  4627                           
  4628  0CF2                     l2694:	
  4629                           opt subtitle "HI-TECH Software Omniscient Code Generator (Lite mode) build 49521"
  4630  0CF2  178B               	bsf	(95/8),(95)&7	;volatile
  4631                           opt subtitle "HI-TECH Software Omniscient Code Generator (Lite mode) build 49521"
  4632                           
  4633  0CF3                     l2696:	
  4634                           opt subtitle "HI-TECH Software Omniscient Code Generator (Lite mode) build 49521"
  4635  0CF3  170B               	bsf	(94/8),(94)&7	;volatile
  4636                           opt subtitle "HI-TECH Software Omniscient Code Generator (Lite mode) build 49521"
  4637                           
  4638  0CF4                     l2698:	
  4639                           opt subtitle "HI-TECH Software Omniscient Code Generator (Lite mode) build 49521"
  4640  0CF4  1683               	bsf	status, 5	;RP0=1, select bank1
  4641  0CF5  1303               	bcf	status, 6	;RP1=0, select bank1
  4642  0CF6  140C               	bsf	(1120/8)^080h,(1120)&7	;volatile
  4643                           opt subtitle "HI-TECH Software Omniscient Code Generator (Lite mode) build 49521"
  4644                           
  4645  0CF7                     l2700:	
  4646                           opt subtitle "HI-TECH Software Omniscient Code Generator (Lite mode) build 49521"
  4647  0CF7  3010               	movlw	(010h)
  4648  0CF8  1283               	bcf	status, 5	;RP0=0, select bank0
  4649  0CF9  1303               	bcf	status, 6	;RP1=0, select bank0
  4650  0CFA  008F               	movwf	(15)	;volatile
  4651                           opt subtitle "HI-TECH Software Omniscient Code Generator (Lite mode) build 49521"
  4652                           
  4653  0CFB                     l2702:	
  4654                           opt subtitle "HI-TECH Software Omniscient Code Generator (Lite mode) build 49521"
  4655  0CFB  018E               	clrf	(14)	;volatile
  4656                           opt subtitle "HI-TECH Software Omniscient Code Generator (Lite mode) build 49521"
  4657                           
  4658  0CFC                     l2704:	
  4659                           opt subtitle "HI-TECH Software Omniscient Code Generator (Lite mode) build 49521"
  4660  0CFC  0810               	movf	(16),w	;volatile
  4661  0CFD  393F               	andlw	not (((1<<2)-1)<<6)
  4662  0CFE  3880               	iorlw	(02h & ((1<<2)-1))<<6
  4663  0CFF  0090               	movwf	(16)	;volatile
  4664                           opt subtitle "HI-TECH Software Omniscient Code Generator (Lite mode) build 49521"
  4665                           
  4666  0D00                     l2706:	
  4667                           opt subtitle "HI-TECH Software Omniscient Code Generator (Lite mode) build 49521"
  4668  0D00  3030               	movlw	(03h & ((1<<2)-1))<<4
  4669  0D01  0490               	iorwf	(16),f	;volatile
  4670                           opt subtitle "HI-TECH Software Omniscient Code Generator (Lite mode) build 49521"
  4671                           
  4672  0D02                     l2708:	
  4673                           opt subtitle "HI-TECH Software Omniscient Code Generator (Lite mode) build 49521"
  4674  0D02  1683               	bsf	status, 5	;RP0=1, select bank1
  4675  0D03  1303               	bcf	status, 6	;RP1=0, select bank1
  4676  0D04  178F               	bsf	(143)^080h,7	;volatile
  4677                           opt subtitle "HI-TECH Software Omniscient Code Generator (Lite mode) build 49521"
  4678                           
  4679  0D05                     l2710:	
  4680                           opt subtitle "HI-TECH Software Omniscient Code Generator (Lite mode) build 49521"
  4681  0D05  1283               	bcf	status, 5	;RP0=0, select bank0
  4682  0D06  1303               	bcf	status, 6	;RP1=0, select bank0
  4683  0D07  1510               	bsf	(16),2	;volatile
  4684                           opt subtitle "HI-TECH Software Omniscient Code Generator (Lite mode) build 49521"
  4685                           
  4686  0D08                     l2712:	
  4687                           opt subtitle "HI-TECH Software Omniscient Code Generator (Lite mode) build 49521"
  4688  0D08  1590               	bsf	(16),3	;volatile
  4689                           opt subtitle "HI-TECH Software Omniscient Code Generator (Lite mode) build 49521"
  4690                           
  4691  0D09                     l2714:	
  4692                           opt subtitle "HI-TECH Software Omniscient Code Generator (Lite mode) build 49521"
  4693  0D09  1410               	bsf	(16),0	;volatile
  4694                           opt subtitle "HI-TECH Software Omniscient Code Generator (Lite mode) build 49521"
  4695                           
  4696  0D0A                     l2716:	
  4697                           opt subtitle "HI-TECH Software Omniscient Code Generator (Lite mode) build 49521"
  4698  0D0A  1683               	bsf	status, 5	;RP0=1, select bank1
  4699  0D0B  1303               	bcf	status, 6	;RP1=0, select bank1
  4700  0D0C  1406               	bsf	(134)^080h,0	;volatile
  4701                           opt subtitle "HI-TECH Software Omniscient Code Generator (Lite mode) build 49521"
  4702                           
  4703  0D0D                     l2718:	
  4704                           opt subtitle "HI-TECH Software Omniscient Code Generator (Lite mode) build 49521"
  4705  0D0D  1683               	bsf	status, 5	;RP0=1, select bank3
  4706  0D0E  1703               	bsf	status, 6	;RP1=1, select bank3
  4707  0D0F  1006               	bcf	(390)^0180h,0	;volatile
  4708                           opt subtitle "HI-TECH Software Omniscient Code Generator (Lite mode) build 49521"
  4709                           
  4710  0D10                     l2720:	
  4711                           opt subtitle "HI-TECH Software Omniscient Code Generator (Lite mode) build 49521"
  4712  0D10  1683               	bsf	status, 5	;RP0=1, select bank1
  4713  0D11  1303               	bcf	status, 6	;RP1=0, select bank1
  4714  0D12  1005               	bcf	(133)^080h,0	;volatile
  4715                           opt subtitle "HI-TECH Software Omniscient Code Generator (Lite mode) build 49521"
  4716                           
  4717  0D13                     l2722:	
  4718                           opt subtitle "HI-TECH Software Omniscient Code Generator (Lite mode) build 49521"
  4719  0D13  1085               	bcf	(133)^080h,1	;volatile
  4720                           opt subtitle "HI-TECH Software Omniscient Code Generator (Lite mode) build 49521"
  4721                           
  4722  0D14                     l2724:	
  4723                           opt subtitle "HI-TECH Software Omniscient Code Generator (Lite mode) build 49521"
  4724  0D14  1185               	bcf	(133)^080h,3	;volatile
  4725                           opt subtitle "HI-TECH Software Omniscient Code Generator (Lite mode) build 49521"
  4726                           
  4727  0D15                     l2726:	
  4728                           opt subtitle "HI-TECH Software Omniscient Code Generator (Lite mode) build 49521"
  4729  0D15  1205               	bcf	(133)^080h,4	;volatile
  4730                           opt subtitle "HI-TECH Software Omniscient Code Generator (Lite mode) build 49521"
  4731                           
  4732  0D16                     l2728:	
  4733                           opt subtitle "HI-TECH Software Omniscient Code Generator (Lite mode) build 49521"
  4734  0D16  1285               	bcf	(133)^080h,5	;volatile
  4735                           opt subtitle "HI-TECH Software Omniscient Code Generator (Lite mode) build 49521"
  4736                           
  4737  0D17                     l2730:	
  4738                           opt subtitle "HI-TECH Software Omniscient Code Generator (Lite mode) build 49521"
  4739  0D17  1305               	bcf	(133)^080h,6	;volatile
  4740                           opt subtitle "HI-TECH Software Omniscient Code Generator (Lite mode) build 49521"
  4741                           
  4742  0D18                     l2732:	
  4743                           opt subtitle "HI-TECH Software Omniscient Code Generator (Lite mode) build 49521"
  4744  0D18  1385               	bcf	(133)^080h,7	;volatile
  4745                           opt subtitle "HI-TECH Software Omniscient Code Generator (Lite mode) build 49521"
  4746                           
  4747  0D19                     l2734:	
  4748                           opt subtitle "HI-TECH Software Omniscient Code Generator (Lite mode) build 49521"
  4749  0D19  1683               	bsf	status, 5	;RP0=1, select bank3
  4750  0D1A  1703               	bsf	status, 6	;RP1=1, select bank3
  4751  0D1B  1005               	bcf	(389)^0180h,0	;volatile
  4752                           opt subtitle "HI-TECH Software Omniscient Code Generator (Lite mode) build 49521"
  4753                           
  4754  0D1C                     l2736:	
  4755                           opt subtitle "HI-TECH Software Omniscient Code Generator (Lite mode) build 49521"
  4756  0D1C  1085               	bcf	(389)^0180h,1	;volatile
  4757                           opt subtitle "HI-TECH Software Omniscient Code Generator (Lite mode) build 49521"
  4758                           
  4759  0D1D                     l2738:	
  4760                           opt subtitle "HI-TECH Software Omniscient Code Generator (Lite mode) build 49521"
  4761  0D1D  1185               	bcf	(389)^0180h,3	;volatile
  4762                           opt subtitle "HI-TECH Software Omniscient Code Generator (Lite mode) build 49521"
  4763                           
  4764  0D1E                     l2740:	
  4765                           opt subtitle "HI-TECH Software Omniscient Code Generator (Lite mode) build 49521"
  4766  0D1E  1205               	bcf	(389)^0180h,4	;volatile
  4767                           opt subtitle "HI-TECH Software Omniscient Code Generator (Lite mode) build 49521"
  4768                           
  4769  0D1F                     l2742:	
  4770                           opt subtitle "HI-TECH Software Omniscient Code Generator (Lite mode) build 49521"
  4771  0D1F  1285               	bcf	(389)^0180h,5	;volatile
  4772                           opt subtitle "HI-TECH Software Omniscient Code Generator (Lite mode) build 49521"
  4773                           
  4774  0D20                     l2744:	
  4775                           opt subtitle "HI-TECH Software Omniscient Code Generator (Lite mode) build 49521"
  4776  0D20  1305               	bcf	(389)^0180h,6	;volatile
  4777                           opt subtitle "HI-TECH Software Omniscient Code Generator (Lite mode) build 49521"
  4778                           
  4779  0D21                     l2746:	
  4780                           opt subtitle "HI-TECH Software Omniscient Code Generator (Lite mode) build 49521"
  4781  0D21  1385               	bcf	(389)^0180h,7	;volatile
  4782                           opt subtitle "HI-TECH Software Omniscient Code Generator (Lite mode) build 49521"
  4783                           
  4784  0D22                     l2748:	
  4785                           opt subtitle "HI-TECH Software Omniscient Code Generator (Lite mode) build 49521"
  4786  0D22  1283               	bcf	status, 5	;RP0=0, select bank0
  4787  0D23  1303               	bcf	status, 6	;RP1=0, select bank0
  4788  0D24  1005               	bcf	(5),0	;volatile
  4789                           opt subtitle "HI-TECH Software Omniscient Code Generator (Lite mode) build 49521"
  4790                           
  4791  0D25                     l2750:	
  4792                           opt subtitle "HI-TECH Software Omniscient Code Generator (Lite mode) build 49521"
  4793  0D25  1085               	bcf	(5),1	;volatile
  4794                           opt subtitle "HI-TECH Software Omniscient Code Generator (Lite mode) build 49521"
  4795                           
  4796  0D26                     l2752:	
  4797                           opt subtitle "HI-TECH Software Omniscient Code Generator (Lite mode) build 49521"
  4798  0D26  1185               	bcf	(5),3	;volatile
  4799                           opt subtitle "HI-TECH Software Omniscient Code Generator (Lite mode) build 49521"
  4800                           
  4801  0D27                     l2754:	
  4802                           opt subtitle "HI-TECH Software Omniscient Code Generator (Lite mode) build 49521"
  4803  0D27  1205               	bcf	(5),4	;volatile
  4804                           opt subtitle "HI-TECH Software Omniscient Code Generator (Lite mode) build 49521"
  4805                           
  4806  0D28                     l2756:	
  4807                           opt subtitle "HI-TECH Software Omniscient Code Generator (Lite mode) build 49521"
  4808  0D28  1285               	bcf	(5),5	;volatile
  4809                           opt subtitle "HI-TECH Software Omniscient Code Generator (Lite mode) build 49521"
  4810                           
  4811  0D29                     l2758:	
  4812                           opt subtitle "HI-TECH Software Omniscient Code Generator (Lite mode) build 49521"
  4813  0D29  1305               	bcf	(5),6	;volatile
  4814                           opt subtitle "HI-TECH Software Omniscient Code Generator (Lite mode) build 49521"
  4815                           
  4816  0D2A                     l2760:	
  4817                           opt subtitle "HI-TECH Software Omniscient Code Generator (Lite mode) build 49521"
  4818  0D2A  1385               	bcf	(5),7	;volatile
  4819                           opt subtitle "HI-TECH Software Omniscient Code Generator (Lite mode) build 49521"
  4820                           
  4821  0D2B                     l2762:	
  4822                           opt subtitle "HI-TECH Software Omniscient Code Generator (Lite mode) build 49521"
  4823  0D2B  1683               	bsf	status, 5	;RP0=1, select bank1
  4824  0D2C  1303               	bcf	status, 6	;RP1=0, select bank1
  4825  0D2D  1086               	bcf	(134)^080h,1	;volatile
  4826                           opt subtitle "HI-TECH Software Omniscient Code Generator (Lite mode) build 49521"
  4827                           
  4828  0D2E                     l2764:	
  4829                           opt subtitle "HI-TECH Software Omniscient Code Generator (Lite mode) build 49521"
  4830  0D2E  1106               	bcf	(134)^080h,2	;volatile
  4831                           opt subtitle "HI-TECH Software Omniscient Code Generator (Lite mode) build 49521"
  4832                           
  4833  0D2F                     l2766:	
  4834                           opt subtitle "HI-TECH Software Omniscient Code Generator (Lite mode) build 49521"
  4835  0D2F  1186               	bcf	(134)^080h,3	;volatile
  4836                           opt subtitle "HI-TECH Software Omniscient Code Generator (Lite mode) build 49521"
  4837                           
  4838  0D30                     l2768:	
  4839                           opt subtitle "HI-TECH Software Omniscient Code Generator (Lite mode) build 49521"
  4840  0D30  1206               	bcf	(134)^080h,4	;volatile
  4841                           opt subtitle "HI-TECH Software Omniscient Code Generator (Lite mode) build 49521"
  4842                           
  4843  0D31                     l2770:	
  4844                           opt subtitle "HI-TECH Software Omniscient Code Generator (Lite mode) build 49521"
  4845  0D31  1286               	bcf	(134)^080h,5	;volatile
  4846                           opt subtitle "HI-TECH Software Omniscient Code Generator (Lite mode) build 49521"
  4847                           
  4848  0D32                     l2772:	
  4849                           opt subtitle "HI-TECH Software Omniscient Code Generator (Lite mode) build 49521"
  4850  0D32  1683               	bsf	status, 5	;RP0=1, select bank3
  4851  0D33  1703               	bsf	status, 6	;RP1=1, select bank3
  4852  0D34  1086               	bcf	(390)^0180h,1	;volatile
  4853                           opt subtitle "HI-TECH Software Omniscient Code Generator (Lite mode) build 49521"
  4854                           
  4855  0D35                     l2774:	
  4856                           opt subtitle "HI-TECH Software Omniscient Code Generator (Lite mode) build 49521"
  4857  0D35  1106               	bcf	(390)^0180h,2	;volatile
  4858                           opt subtitle "HI-TECH Software Omniscient Code Generator (Lite mode) build 49521"
  4859                           
  4860  0D36                     l2776:	
  4861                           opt subtitle "HI-TECH Software Omniscient Code Generator (Lite mode) build 49521"
  4862  0D36  1186               	bcf	(390)^0180h,3	;volatile
  4863                           opt subtitle "HI-TECH Software Omniscient Code Generator (Lite mode) build 49521"
  4864                           
  4865  0D37                     l2778:	
  4866                           opt subtitle "HI-TECH Software Omniscient Code Generator (Lite mode) build 49521"
  4867  0D37  1206               	bcf	(390)^0180h,4	;volatile
  4868                           opt subtitle "HI-TECH Software Omniscient Code Generator (Lite mode) build 49521"
  4869                           
  4870  0D38                     l2780:	
  4871                           opt subtitle "HI-TECH Software Omniscient Code Generator (Lite mode) build 49521"
  4872  0D38  1286               	bcf	(390)^0180h,5	;volatile
  4873                           opt subtitle "HI-TECH Software Omniscient Code Generator (Lite mode) build 49521"
  4874                           
  4875  0D39                     l2782:	
  4876                           opt subtitle "HI-TECH Software Omniscient Code Generator (Lite mode) build 49521"
  4877  0D39  1283               	bcf	status, 5	;RP0=0, select bank0
  4878  0D3A  1303               	bcf	status, 6	;RP1=0, select bank0
  4879  0D3B  1086               	bcf	(6),1	;volatile
  4880                           opt subtitle "HI-TECH Software Omniscient Code Generator (Lite mode) build 49521"
  4881                           
  4882  0D3C                     l2784:	
  4883                           opt subtitle "HI-TECH Software Omniscient Code Generator (Lite mode) build 49521"
  4884  0D3C  1106               	bcf	(6),2	;volatile
  4885                           opt subtitle "HI-TECH Software Omniscient Code Generator (Lite mode) build 49521"
  4886                           
  4887  0D3D                     l2786:	
  4888                           opt subtitle "HI-TECH Software Omniscient Code Generator (Lite mode) build 49521"
  4889  0D3D  1186               	bcf	(6),3	;volatile
  4890                           opt subtitle "HI-TECH Software Omniscient Code Generator (Lite mode) build 49521"
  4891                           
  4892  0D3E                     l2788:	
  4893                           opt subtitle "HI-TECH Software Omniscient Code Generator (Lite mode) build 49521"
  4894  0D3E  1606               	bsf	(6),4	;volatile
  4895                           opt subtitle "HI-TECH Software Omniscient Code Generator (Lite mode) build 49521"
  4896                           
  4897  0D3F                     l2790:	
  4898                           opt subtitle "HI-TECH Software Omniscient Code Generator (Lite mode) build 49521"
  4899  0D3F  1286               	bcf	(6),5	;volatile
  4900                           opt subtitle "HI-TECH Software Omniscient Code Generator (Lite mode) build 49521"
  4901                           
  4902  0D40                     l2792:	
  4903                           opt subtitle "HI-TECH Software Omniscient Code Generator (Lite mode) build 49521"
  4904  0D40  1683               	bsf	status, 5	;RP0=1, select bank1
  4905  0D41  1303               	bcf	status, 6	;RP1=0, select bank1
  4906  0D42  1489               	bsf	(137)^080h,1	;volatile
  4907                           opt subtitle "HI-TECH Software Omniscient Code Generator (Lite mode) build 49521"
  4908                           
  4909  0D43                     l2794:	
  4910                           opt subtitle "HI-TECH Software Omniscient Code Generator (Lite mode) build 49521"
  4911  0D43  1683               	bsf	status, 5	;RP0=1, select bank3
  4912  0D44  1703               	bsf	status, 6	;RP1=1, select bank3
  4913  0D45  1489               	bsf	(393)^0180h,1	;volatile
  4914                           opt subtitle "HI-TECH Software Omniscient Code Generator (Lite mode) build 49521"
  4915                           
  4916  0D46                     l2796:	
  4917                           opt subtitle "HI-TECH Software Omniscient Code Generator (Lite mode) build 49521"
  4918  0D46  1283               	bcf	status, 5	;RP0=0, select bank0
  4919  0D47  1303               	bcf	status, 6	;RP1=0, select bank0
  4920  0D48  1089               	bcf	(9),1	;volatile
  4921                           opt subtitle "HI-TECH Software Omniscient Code Generator (Lite mode) build 49521"
  4922                           
  4923  0D49                     l292:	
  4924  0D49  0008               	return
  4925                           opt subtitle "HI-TECH Software Omniscient Code Generator (Lite mode) build 49521"
  4926                           
  4927  0D4A                     	__end_of_boardInit:
  4928                           opt subtitle "HI-TECH Software Omniscient Code Generator (Lite mode) build 49521"
  4929                           
  4930                           opt pagewidth 120
  4931                           
  4932                           	opt lm
  4933                           
  4934                           	processor	16LF707
  4935                           clrc	macro
  4936                           	bcf	3,0
  4937                           	endm
  4938                           clrz	macro
  4939                           	bcf	3,2
  4940                           	endm
  4941                           setc	macro
  4942                           	bsf	3,0
  4943                           	endm
  4944                           setz	macro
  4945                           	bsf	3,2
  4946                           	endm
  4947                           skipc	macro
  4948                           	btfss	3,0
  4949                           	endm
  4950                           skipz	macro
  4951                           	btfss	3,2
  4952                           	endm
  4953                           skipnc	macro
  4954                           	btfsc	3,0
  4955                           	endm
  4956                           skipnz	macro
  4957                           	btfsc	3,2
  4958                           	endm
  4959                           indf	equ	0
  4960                           indf0	equ	0
  4961                           pc	equ	2
  4962  0819                     __ptext761:	;psect for function _adcReadTemp
  4963                           opt subtitle "HI-TECH Software Omniscient Code Generator (Lite mode) build 49521"
  4964                           
  4965                           opt pagewidth 120
  4966                           
  4967  0038                     	__size_of_adcReadTemp	equ	__end_of_adcReadTemp-_adcReadTemp
  4968                           opt subtitle "HI-TECH Software Omniscient Code Generator (Lite mode) build 49521"
  4969  0819                     _adcReadTemp:	
  4970                           opt subtitle "HI-TECH Software Omniscient Code Generator (Lite mode) build 49521"
  4971                           
  4972                           opt pagewidth 120
  4973                           
  4974  0819                     l3026:	
  4975                           opt subtitle "HI-TECH Software Omniscient Code Generator (Lite mode) build 49521"
  4976                           
  4977  0819  1683               	bsf	status, 5	;RP0=1, select bank1
  4978  081A  1303               	bcf	status, 6	;RP1=0, select bank1
  4979  081B  171D               	bsf	(157)^080h,6	;volatile
  4980                           opt subtitle "HI-TECH Software Omniscient Code Generator (Lite mode) build 49521"
  4981                           
  4982  081C                     l3028:	
  4983                           opt subtitle "HI-TECH Software Omniscient Code Generator (Lite mode) build 49521"
  4984  081C  1283               	bcf	status, 5	;RP0=0, select bank0
  4985  081D  1303               	bcf	status, 6	;RP1=0, select bank0
  4986  081E  081F               	movf	(31),w	;volatile
  4987  081F  39C3               	andlw	not (((1<<4)-1)<<2)
  4988  0820  381C               	iorlw	(07h & ((1<<4)-1))<<2
  4989  0821  009F               	movwf	(31)	;volatile
  4990                           opt subtitle "HI-TECH Software Omniscient Code Generator (Lite mode) build 49521"
  4991                           
  4992  0822  1683               	bsf	status, 5	;RP0=1, select bank1
  4993  0823  1303               	bcf	status, 6	;RP1=0, select bank1
  4994  0824  081D               	movf	(157)^080h,w	;volatile
  4995  0825  39FC               	andlw	not (((1<<2)-1)<<0)
  4996  0826  3801               	iorlw	(01h & ((1<<2)-1))<<0
  4997  0827  009D               	movwf	(157)^080h	;volatile
  4998                           opt subtitle "HI-TECH Software Omniscient Code Generator (Lite mode) build 49521"
  4999                           
  5000  0828  2829               	goto	l206
  5001                           opt subtitle "HI-TECH Software Omniscient Code Generator (Lite mode) build 49521"
  5002  0829                     l207:	
  5003                           opt subtitle "HI-TECH Software Omniscient Code Generator (Lite mode) build 49521"
  5004  0829                     l206:	
  5005  0829  1F9D               	btfss	(157)^080h,7	;volatile
  5006  082A  282C               	goto	u2291
  5007  082B  282D               	goto	u2290
  5008  082C                     u2291:
  5009  082C  2829               	goto	l206
  5010  082D                     u2290:
  5011                           opt subtitle "HI-TECH Software Omniscient Code Generator (Lite mode) build 49521"
  5012  082D                     l208:	
  5013                           opt subtitle "HI-TECH Software Omniscient Code Generator (Lite mode) build 49521"
  5014                           
  5015  082D  1283               	bcf	status, 5	;RP0=0, select bank0
  5016  082E  1303               	bcf	status, 6	;RP1=0, select bank0
  5017  082F  141F               	bsf	(31),0	;volatile
  5018                           opt subtitle "HI-TECH Software Omniscient Code Generator (Lite mode) build 49521"
  5019                           
  5020  0830  1408               	bsf	(8),0	;volatile
  5021                           opt subtitle "HI-TECH Software Omniscient Code Generator (Lite mode) build 49521"
  5022                           
  5023  0831                     l3030:	
  5024                           opt subtitle "HI-TECH Software Omniscient Code Generator (Lite mode) build 49521"
  5025                           
  5026  0831  3003               movlw	3
  5027  0832  00A1               movwf	((??_adcReadTemp+0)+0+1),f
  5028  0833  3097               	movlw	151
  5029  0834  00A0               movwf	((??_adcReadTemp+0)+0),f
  5030  0835                     u3517:
  5031  0835  0BA0               	decfsz	((??_adcReadTemp+0)+0),f
  5032  0836  2835               	goto	u3517
  5033  0837  0BA1               	decfsz	((??_adcReadTemp+0)+0+1),f
  5034  0838  2835               	goto	u3517
  5035  0839  283A               	nop2
  5036                           opt subtitle "HI-TECH Software Omniscient Code Generator (Lite mode) build 49521"
  5037                           
  5038                           opt pagewidth 120
  5039                           
  5040  083A                     l3032:	
  5041                           opt subtitle "HI-TECH Software Omniscient Code Generator (Lite mode) build 49521"
  5042  083A  1283               	bcf	status, 5	;RP0=0, select bank0
  5043  083B  1303               	bcf	status, 6	;RP1=0, select bank0
  5044  083C  149F               	bsf	(31),1	;volatile
  5045                           opt subtitle "HI-TECH Software Omniscient Code Generator (Lite mode) build 49521"
  5046                           
  5047  083D  283E               	goto	l209
  5048                           opt subtitle "HI-TECH Software Omniscient Code Generator (Lite mode) build 49521"
  5049  083E                     l210:	
  5050                           opt subtitle "HI-TECH Software Omniscient Code Generator (Lite mode) build 49521"
  5051  083E                     l209:	
  5052  083E  189F               	btfsc	(31),1	;volatile
  5053  083F  2841               	goto	u2301
  5054  0840  2842               	goto	u2300
  5055  0841                     u2301:
  5056  0841  283E               	goto	l209
  5057  0842                     u2300:
  5058  0842  2843               	goto	l3034
  5059                           opt subtitle "HI-TECH Software Omniscient Code Generator (Lite mode) build 49521"
  5060  0843                     l211:	
  5061                           opt subtitle "HI-TECH Software Omniscient Code Generator (Lite mode) build 49521"
  5062                           
  5063  0843                     l3034:	
  5064                           opt subtitle "HI-TECH Software Omniscient Code Generator (Lite mode) build 49521"
  5065  0843  081E               	movf	(30),w	;volatile
  5066  0844  00A0               	movwf	(??_adcReadTemp+0)+0
  5067  0845  0820               	movf	(??_adcReadTemp+0)+0,w
  5068  0846  00A2               	movwf	(adcReadTemp@value)
  5069                           opt subtitle "HI-TECH Software Omniscient Code Generator (Lite mode) build 49521"
  5070                           
  5071  0847                     l3036:	
  5072                           opt subtitle "HI-TECH Software Omniscient Code Generator (Lite mode) build 49521"
  5073  0847  101F               	bcf	(31),0	;volatile
  5074                           opt subtitle "HI-TECH Software Omniscient Code Generator (Lite mode) build 49521"
  5075                           
  5076  0848                     l3038:	
  5077                           opt subtitle "HI-TECH Software Omniscient Code Generator (Lite mode) build 49521"
  5078  0848  1008               	bcf	(8),0	;volatile
  5079                           opt subtitle "HI-TECH Software Omniscient Code Generator (Lite mode) build 49521"
  5080                           
  5081  0849                     l3040:	
  5082                           opt subtitle "HI-TECH Software Omniscient Code Generator (Lite mode) build 49521"
  5083  0849  1683               	bsf	status, 5	;RP0=1, select bank1
  5084  084A  1303               	bcf	status, 6	;RP1=0, select bank1
  5085  084B  131D               	bcf	(157)^080h,6	;volatile
  5086                           opt subtitle "HI-TECH Software Omniscient Code Generator (Lite mode) build 49521"
  5087                           
  5088  084C  1283               	bcf	status, 5	;RP0=0, select bank0
  5089  084D  1303               	bcf	status, 6	;RP1=0, select bank0
  5090  084E  0822               	movf	(adcReadTemp@value),w
  5091  084F  2850               	goto	l212
  5092                           opt subtitle "HI-TECH Software Omniscient Code Generator (Lite mode) build 49521"
  5093  0850                     l3042:	
  5094                           opt subtitle "HI-TECH Software Omniscient Code Generator (Lite mode) build 49521"
  5095                           
  5096  0850                     l212:	
  5097  0850  0008               	return
  5098                           opt subtitle "HI-TECH Software Omniscient Code Generator (Lite mode) build 49521"
  5099                           
  5100  0851                     	__end_of_adcReadTemp:
  5101                           opt subtitle "HI-TECH Software Omniscient Code Generator (Lite mode) build 49521"
  5102                           
  5103                           opt pagewidth 120
  5104                           
  5105                           	opt lm
  5106                           
  5107                           	processor	16LF707
  5108                           clrc	macro
  5109                           	bcf	3,0
  5110                           	endm
  5111                           clrz	macro
  5112                           	bcf	3,2
  5113                           	endm
  5114                           setc	macro
  5115                           	bsf	3,0
  5116                           	endm
  5117                           setz	macro
  5118                           	bsf	3,2
  5119                           	endm
  5120                           skipc	macro
  5121                           	btfss	3,0
  5122                           	endm
  5123                           skipz	macro
  5124                           	btfss	3,2
  5125                           	endm
  5126                           skipnc	macro
  5127                           	btfsc	3,0
  5128                           	endm
  5129                           skipnz	macro
  5130                           	btfsc	3,2
  5131                           	endm
  5132                           indf	equ	0
  5133                           indf0	equ	0
  5134                           pc	equ	2
  5135                           pcl	equ	2
  5136                           status	equ	3
  5137                           fsr	equ	4
  5138                           fsr0	equ	4
  5139                           c	equ	1
  5140                           z	equ	0
  5141                           pclath	equ	10
  5142                           # 46 "/Applications/microchip/xc8/v1.12/include/pic16lf707.h"
  5143                           INDF equ 00h ;# 
  5144                           # 52 "/Applications/microchip/xc8/v1.12/include/pic16lf707.h"
  5145                           TMR0 equ 01h ;# 
  5146  0BCB                     __ptext762:	;psect for function _Send_Packet
  5147                           opt subtitle "HI-TECH Software Omniscient Code Generator (Lite mode) build 49521"
  5148                           
  5149                           opt pagewidth 120
  5150                           
  5151  00BF                     	__size_of_Send_Packet	equ	__end_of_Send_Packet-_Send_Packet
  5152                           opt subtitle "HI-TECH Software Omniscient Code Generator (Lite mode) build 49521"
  5153  0BCB                     _Send_Packet:	
  5154                           opt subtitle "HI-TECH Software Omniscient Code Generator (Lite mode) build 49521"
  5155                           
  5156                           opt pagewidth 120
  5157                           
  5158  0BCB  1283               	bcf	status, 5	;RP0=0, select bank0
  5159  0BCC  1303               	bcf	status, 6	;RP1=0, select bank0
  5160  0BCD  00C3               	movwf	(Send_Packet@type)
  5161                           opt subtitle "HI-TECH Software Omniscient Code Generator (Lite mode) build 49521"
  5162  0BCE                     l3044:	
  5163                           opt subtitle "HI-TECH Software Omniscient Code Generator (Lite mode) build 49521"
  5164                           
  5165  0BCE  160A  118A  26E5   	fcall	_SwitchToTxMode
              120A  158A         
  5166                           opt subtitle "HI-TECH Software Omniscient Code Generator (Lite mode) build 49521"
  5167                           
  5168  0BD3  3017               	movlw	(017h)
  5169  0BD4  160A  118A  2648   	fcall	_SPI_Read_Reg
              120A  158A         
  5170  0BD9  1283               	bcf	status, 5	;RP0=0, select bank0
  5171  0BDA  1303               	bcf	status, 6	;RP1=0, select bank0
  5172  0BDB  00C0               	movwf	(??_Send_Packet+0)+0
  5173  0BDC  0840               	movf	(??_Send_Packet+0)+0,w
  5174  0BDD  00C4               	movwf	(Send_Packet@fifo_sta)
  5175                           opt subtitle "HI-TECH Software Omniscient Code Generator (Lite mode) build 49521"
  5176                           
  5177  0BDE                     l3046:	
  5178                           opt subtitle "HI-TECH Software Omniscient Code Generator (Lite mode) build 49521"
  5179  0BDE  1AC4               	btfsc	(Send_Packet@fifo_sta),(5)&7
  5180  0BDF  2BE1               	goto	u2311
  5181  0BE0  2BE2               	goto	u2310
  5182  0BE1                     u2311:
  5183  0BE1  2C89               	goto	l277
  5184  0BE2                     u2310:
  5185                           opt subtitle "HI-TECH Software Omniscient Code Generator (Lite mode) build 49521"
  5186                           
  5187  0BE2                     l3048:	
  5188                           opt subtitle "HI-TECH Software Omniscient Code Generator (Lite mode) build 49521"
  5189                           
  5190  0BE2  3003               	movlw	low(STR_2|8000h)
  5191  0BE3  00AE               	movwf	(?_printf)
  5192  0BE4  3088               	movlw	high(STR_2|8000h)
  5193  0BE5  00AF               	movwf	((?_printf))+1
  5194  0BE6  120A  118A  2550   	fcall	_printf
              120A  158A         
  5195                           opt subtitle "HI-TECH Software Omniscient Code Generator (Lite mode) build 49521"
  5196                           
  5197  0BEB                     l3050:	
  5198                           opt subtitle "HI-TECH Software Omniscient Code Generator (Lite mode) build 49521"
  5199  0BEB  1283               	bcf	status, 5	;RP0=0, select bank0
  5200  0BEC  1303               	bcf	status, 6	;RP1=0, select bank0
  5201  0BED  01C5               	clrf	(Send_Packet@i)
  5202  0BEE  2C0C               	goto	l3056
  5203                           opt subtitle "HI-TECH Software Omniscient Code Generator (Lite mode) build 49521"
  5204  0BEF                     l270:	
  5205                           opt subtitle "HI-TECH Software Omniscient Code Generator (Lite mode) build 49521"
  5206                           
  5207  0BEF                     l3052:	
  5208                           opt subtitle "HI-TECH Software Omniscient Code Generator (Lite mode) build 49521"
  5209  0BEF  3012               	movlw	low(STR_3|8000h)
  5210  0BF0  00AE               	movwf	(?_printf)
  5211  0BF1  3088               	movlw	high(STR_3|8000h)
  5212  0BF2  00AF               	movwf	((?_printf))+1
  5213  0BF3  0845               	movf	(Send_Packet@i),w
  5214  0BF4  073E               	addwf	(Send_Packet@pbuf),w
  5215  0BF5  00C0               	movwf	(??_Send_Packet+0)+0
  5216  0BF6  0840               	movf	0+(??_Send_Packet+0)+0,w
  5217  0BF7  0084               	movwf	fsr0
  5218  0BF8  1383               	bcf	status, 7	;select IRP bank0
  5219  0BF9  0800               	movf	indf,w
  5220  0BFA  00C1               	movwf	(??_Send_Packet+1)+0+0
  5221  0BFB  01C2               	clrf	(??_Send_Packet+1)+0+1
  5222  0BFC  0841               	movf	0+(??_Send_Packet+1)+0,w
  5223  0BFD  00B0               	movwf	0+(?_printf)+02h
  5224  0BFE  0842               	movf	1+(??_Send_Packet+1)+0,w
  5225  0BFF  00B1               	movwf	1+(?_printf)+02h
  5226  0C00  120A  118A  2550   	fcall	_printf
              120A  158A         
  5227                           opt subtitle "HI-TECH Software Omniscient Code Generator (Lite mode) build 49521"
  5228                           
  5229  0C05                     l3054:	
  5230  0C05  3001               	movlw	(01h)
  5231  0C06  1283               	bcf	status, 5	;RP0=0, select bank0
  5232  0C07  1303               	bcf	status, 6	;RP1=0, select bank0
  5233  0C08  00C0               	movwf	(??_Send_Packet+0)+0
  5234  0C09  0840               	movf	(??_Send_Packet+0)+0,w
  5235  0C0A  07C5               	addwf	(Send_Packet@i),f
  5236  0C0B  2C0C               	goto	l3056
  5237                           opt subtitle "HI-TECH Software Omniscient Code Generator (Lite mode) build 49521"
  5238  0C0C                     l269:	
  5239                           opt subtitle "HI-TECH Software Omniscient Code Generator (Lite mode) build 49521"
  5240  0C0C                     l3056:	
  5241  0C0C  083F               	movf	(Send_Packet@len),w
  5242  0C0D  0245               	subwf	(Send_Packet@i),w
  5243  0C0E  1C03               	skipc
  5244  0C0F  2C11               	goto	u2321
  5245  0C10  2C12               	goto	u2320
  5246  0C11                     u2321:
  5247  0C11  2BEF               	goto	l3052
  5248  0C12                     u2320:
  5249  0C12  2C13               	goto	l3058
  5250                           opt subtitle "HI-TECH Software Omniscient Code Generator (Lite mode) build 49521"
  5251  0C13                     l271:	
  5252                           opt subtitle "HI-TECH Software Omniscient Code Generator (Lite mode) build 49521"
  5253                           
  5254  0C13                     l3058:	
  5255                           opt subtitle "HI-TECH Software Omniscient Code Generator (Lite mode) build 49521"
  5256                           
  5257  0C13  300F               	movlw	low(STR_4|8000h)
  5258  0C14  00AE               	movwf	(?_printf)
  5259  0C15  3088               	movlw	high(STR_4|8000h)
  5260  0C16  00AF               	movwf	((?_printf))+1
  5261  0C17  120A  118A  2550   	fcall	_printf
              120A  158A         
  5262                           opt subtitle "HI-TECH Software Omniscient Code Generator (Lite mode) build 49521"
  5263                           
  5264  0C1C                     l3060:	
  5265                           opt subtitle "HI-TECH Software Omniscient Code Generator (Lite mode) build 49521"
  5266  0C1C  1283               	bcf	status, 5	;RP0=0, select bank0
  5267  0C1D  1303               	bcf	status, 6	;RP1=0, select bank0
  5268  0C1E  1107               	bcf	(7),2	;volatile
  5269                           opt subtitle "HI-TECH Software Omniscient Code Generator (Lite mode) build 49521"
  5270                           
  5271  0C1F  083E               	movf	(Send_Packet@pbuf),w
  5272  0C20  00C0               	movwf	(??_Send_Packet+0)+0
  5273  0C21  0840               	movf	(??_Send_Packet+0)+0,w
  5274  0C22  00A3               	movwf	(?_SPI_Write_Buf)
  5275  0C23  083F               	movf	(Send_Packet@len),w
  5276  0C24  00C1               	movwf	(??_Send_Packet+1)+0
  5277  0C25  0841               	movf	(??_Send_Packet+1)+0,w
  5278  0C26  00A4               	movwf	0+(?_SPI_Write_Buf)+01h
  5279  0C27  0843               	movf	(Send_Packet@type),w
  5280  0C28  160A  118A  270F   	fcall	_SPI_Write_Buf
              120A  158A         
  5281                           opt subtitle "HI-TECH Software Omniscient Code Generator (Lite mode) build 49521"
  5282                           
  5283  0C2D                     l3062:	
  5284                           opt subtitle "HI-TECH Software Omniscient Code Generator (Lite mode) build 49521"
  5285  0C2D  1283               	bcf	status, 5	;RP0=0, select bank0
  5286  0C2E  1303               	bcf	status, 6	;RP1=0, select bank0
  5287  0C2F  1507               	bsf	(7),2	;volatile
  5288                           opt subtitle "HI-TECH Software Omniscient Code Generator (Lite mode) build 49521"
  5289                           
  5290  0C30                     l3064:	
  5291                           opt subtitle "HI-TECH Software Omniscient Code Generator (Lite mode) build 49521"
  5292                           
  5293  0C30  3006               movlw	6
  5294  0C31  00C0               movwf	(??_Send_Packet+0)+0,f
  5295  0C32                     u3527:
  5296  0C32  0BC0               decfsz	(??_Send_Packet+0)+0,f
  5297  0C33  2C32               	goto	u3527
  5298  0C34  0000               	nop
  5299                           opt subtitle "HI-TECH Software Omniscient Code Generator (Lite mode) build 49521"
  5300                           
  5301                           opt pagewidth 120
  5302                           
  5303  0C35                     l3066:	
  5304                           opt subtitle "HI-TECH Software Omniscient Code Generator (Lite mode) build 49521"
  5305  0C35  1283               	bcf	status, 5	;RP0=0, select bank0
  5306  0C36  1303               	bcf	status, 6	;RP1=0, select bank0
  5307  0C37  1107               	bcf	(7),2	;volatile
  5308                           opt subtitle "HI-TECH Software Omniscient Code Generator (Lite mode) build 49521"
  5309                           
  5310  0C38                     l3068:	
  5311                           opt subtitle "HI-TECH Software Omniscient Code Generator (Lite mode) build 49521"
  5312                           
  5313  0C38  3003               movlw	3
  5314  0C39  00C1               movwf	((??_Send_Packet+0)+0+1),f
  5315  0C3A  3097               	movlw	151
  5316  0C3B  00C0               movwf	((??_Send_Packet+0)+0),f
  5317  0C3C                     u3537:
  5318  0C3C  0BC0               	decfsz	((??_Send_Packet+0)+0),f
  5319  0C3D  2C3C               	goto	u3537
  5320  0C3E  0BC1               	decfsz	((??_Send_Packet+0)+0+1),f
  5321  0C3F  2C3C               	goto	u3537
  5322  0C40  2C41               	nop2
  5323                           opt subtitle "HI-TECH Software Omniscient Code Generator (Lite mode) build 49521"
  5324                           
  5325                           opt pagewidth 120
  5326                           
  5327  0C41  2C78               	goto	l3076
  5328                           opt subtitle "HI-TECH Software Omniscient Code Generator (Lite mode) build 49521"
  5329  0C42                     l273:	
  5330                           opt subtitle "HI-TECH Software Omniscient Code Generator (Lite mode) build 49521"
  5331                           
  5332  0C42                     l3070:	
  5333                           opt subtitle "HI-TECH Software Omniscient Code Generator (Lite mode) build 49521"
  5334  0C42  160A  118A  2661   	fcall	_rfm70TxDataSentInterrupt
              120A  158A         
  5335  0C47  3A00               	xorlw	0
  5336  0C48  1903               	skipnz
  5337  0C49  2C4B               	goto	u2331
  5338  0C4A  2C4C               	goto	u2330
  5339  0C4B                     u2331:
  5340  0C4B  2C5C               	goto	l274
  5341  0C4C                     u2330:
  5342                           opt subtitle "HI-TECH Software Omniscient Code Generator (Lite mode) build 49521"
  5343                           
  5344  0C4C                     l3072:	
  5345                           opt subtitle "HI-TECH Software Omniscient Code Generator (Lite mode) build 49521"
  5346  0C4C  30E6               	movlw	low(STR_5|8000h)
  5347  0C4D  1283               	bcf	status, 5	;RP0=0, select bank0
  5348  0C4E  1303               	bcf	status, 6	;RP1=0, select bank0
  5349  0C4F  00AE               	movwf	(?_printf)
  5350  0C50  3087               	movlw	high(STR_5|8000h)
  5351  0C51  00AF               	movwf	((?_printf))+1
  5352  0C52  120A  118A  2550   	fcall	_printf
              120A  158A         
  5353                           opt subtitle "HI-TECH Software Omniscient Code Generator (Lite mode) build 49521"
  5354                           
  5355  0C57  120A  158A  2089   	fcall	_SwitchToRxMode
              120A  158A         
  5356                           opt subtitle "HI-TECH Software Omniscient Code Generator (Lite mode) build 49521"
  5357                           
  5358  0C5C                     l274:	
  5359                           opt subtitle "HI-TECH Software Omniscient Code Generator (Lite mode) build 49521"
  5360                           
  5361                           opt pagewidth 120
  5362  0C5C  160A  118A  2680   	fcall	_rfm70TxDataSentErrorInterrupt
              120A  158A         
  5363  0C61  3A00               	xorlw	0
  5364  0C62  1903               	skipnz
  5365  0C63  2C65               	goto	u2341
  5366  0C64  2C66               	goto	u2340
  5367  0C65                     u2341:
  5368  0C65  2C78               	goto	l3076
  5369  0C66                     u2340:
  5370                           opt subtitle "HI-TECH Software Omniscient Code Generator (Lite mode) build 49521"
  5371                           
  5372  0C66                     l3074:	
  5373                           opt subtitle "HI-TECH Software Omniscient Code Generator (Lite mode) build 49521"
  5374  0C66  30BD               	movlw	low(STR_6|8000h)
  5375  0C67  1283               	bcf	status, 5	;RP0=0, select bank0
  5376  0C68  1303               	bcf	status, 6	;RP1=0, select bank0
  5377  0C69  00AE               	movwf	(?_printf)
  5378  0C6A  3087               	movlw	high(STR_6|8000h)
  5379  0C6B  00AF               	movwf	((?_printf))+1
  5380  0C6C  120A  118A  2550   	fcall	_printf
              120A  158A         
  5381                           opt subtitle "HI-TECH Software Omniscient Code Generator (Lite mode) build 49521"
  5382                           
  5383  0C71  120A  158A  2089   	fcall	_SwitchToRxMode
              120A  158A         
  5384  0C76  2C78               	goto	l3076
  5385                           opt subtitle "HI-TECH Software Omniscient Code Generator (Lite mode) build 49521"
  5386                           
  5387  0C77                     l275:	
  5388  0C77  2C78               	goto	l3076
  5389                           opt subtitle "HI-TECH Software Omniscient Code Generator (Lite mode) build 49521"
  5390                           
  5391  0C78                     l272:	
  5392                           opt subtitle "HI-TECH Software Omniscient Code Generator (Lite mode) build 49521"
  5393                           
  5394  0C78                     l3076:	
  5395  0C78  1283               	bcf	status, 5	;RP0=0, select bank0
  5396  0C79  1303               	bcf	status, 6	;RP1=0, select bank0
  5397  0C7A  1C88               	btfss	(8),1	;volatile
  5398  0C7B  2C7D               	goto	u2351
  5399  0C7C  2C7E               	goto	u2350
  5400  0C7D                     u2351:
  5401  0C7D  2C42               	goto	l3070
  5402  0C7E                     u2350:
  5403  0C7E  2C7F               	goto	l3078
  5404                           opt subtitle "HI-TECH Software Omniscient Code Generator (Lite mode) build 49521"
  5405  0C7F                     l276:	
  5406                           opt subtitle "HI-TECH Software Omniscient Code Generator (Lite mode) build 49521"
  5407                           
  5408  0C7F                     l3078:	
  5409                           opt subtitle "HI-TECH Software Omniscient Code Generator (Lite mode) build 49521"
  5410                           
  5411                           opt pagewidth 120
  5412  0C7F  300D               	movlw	low(STR_7|8000h)
  5413  0C80  00AE               	movwf	(?_printf)
  5414  0C81  3088               	movlw	high(STR_7|8000h)
  5415  0C82  00AF               	movwf	((?_printf))+1
  5416  0C83  120A  118A  2550   	fcall	_printf
              120A  158A         
  5417  0C88  2C89               	goto	l277
  5418                           opt subtitle "HI-TECH Software Omniscient Code Generator (Lite mode) build 49521"
  5419                           
  5420  0C89                     l268:	
  5421                           opt subtitle "HI-TECH Software Omniscient Code Generator (Lite mode) build 49521"
  5422                           
  5423  0C89                     l277:	
  5424  0C89  0008               	return
  5425                           opt subtitle "HI-TECH Software Omniscient Code Generator (Lite mode) build 49521"
  5426                           
  5427  0C8A                     	__end_of_Send_Packet:
  5428                           opt subtitle "HI-TECH Software Omniscient Code Generator (Lite mode) build 49521"
  5429                           
  5430                           opt pagewidth 120
  5431                           
  5432                           	opt lm
  5433                           
  5434                           	processor	16LF707
  5435                           clrc	macro
  5436                           	bcf	3,0
  5437                           	endm
  5438                           clrz	macro
  5439                           	bcf	3,2
  5440                           	endm
  5441                           setc	macro
  5442                           	bsf	3,0
  5443                           	endm
  5444                           setz	macro
  5445                           	bsf	3,2
  5446                           	endm
  5447                           skipc	macro
  5448                           	btfss	3,0
  5449                           	endm
  5450                           skipz	macro
  5451                           	btfss	3,2
  5452                           	endm
  5453                           skipnc	macro
  5454                           	btfsc	3,0
  5455                           	endm
  5456                           skipnz	macro
  5457                           	btfsc	3,2
  5458                           	endm
  5459                           indf	equ	0
  5460                           indf0	equ	0
  5461                           pc	equ	2
  5462                           pcl	equ	2
  5463  1680                     __ptext763:	;psect for function _rfm70TxDataSentErrorInterrupt
  5464                           opt subtitle "HI-TECH Software Omniscient Code Generator (Lite mode) build 49521"
  5465                           
  5466                           opt pagewidth 120
  5467                           
  5468  001F                     	__size_of_rfm70TxDataSentErrorInterrupt	equ	__end_of_rfm70TxDataSentErrorInterrupt-_rfm
                                 70TxDataSentErrorInterrupt
  5469                           opt subtitle "HI-TECH Software Omniscient Code Generator (Lite mode) build 49521"
  5470  1680                     _rfm70TxDataSentErrorInterrupt:	
  5471                           opt subtitle "HI-TECH Software Omniscient Code Generator (Lite mode) build 49521"
  5472                           
  5473                           opt pagewidth 120
  5474                           
  5475  1680                     l3288:	
  5476                           opt subtitle "HI-TECH Software Omniscient Code Generator (Lite mode) build 49521"
  5477  1680  3007               	movlw	(07h)
  5478  1681  160A  118A  2648   	fcall	_SPI_Read_Reg
              160A  118A         
  5479  1686  1283               	bcf	status, 5	;RP0=0, select bank0
  5480  1687  1303               	bcf	status, 6	;RP1=0, select bank0
  5481  1688  00A6               	movwf	(??_rfm70TxDataSentErrorInterrupt+0)+0
  5482  1689  1EA6               	btfss	0+(??_rfm70TxDataSentErrorInterrupt+0)+0,(5)&7
  5483  168A  2E8C               	goto	u2591
  5484  168B  2E8D               	goto	u2590
  5485  168C                     u2591:
  5486  168C  2E9B               	goto	l3298
  5487  168D                     u2590:
  5488                           opt subtitle "HI-TECH Software Omniscient Code Generator (Lite mode) build 49521"
  5489                           
  5490  168D                     l3290:	
  5491                           opt subtitle "HI-TECH Software Omniscient Code Generator (Lite mode) build 49521"
  5492  168D  3010               	movlw	(010h)
  5493  168E  00A6               	movwf	(??_rfm70TxDataSentErrorInterrupt+0)+0
  5494  168F  0826               	movf	(??_rfm70TxDataSentErrorInterrupt+0)+0,w
  5495  1690  00A3               	movwf	(?_SPI_Write_Reg)
  5496  1691  3027               	movlw	(027h)
  5497  1692  160A  118A  25EB   	fcall	_SPI_Write_Reg
              160A  118A         
  5498                           opt subtitle "HI-TECH Software Omniscient Code Generator (Lite mode) build 49521"
  5499                           
  5500  1697                     l3292:	
  5501                           opt subtitle "HI-TECH Software Omniscient Code Generator (Lite mode) build 49521"
  5502  1697  3001               	movlw	(01h)
  5503  1698  2E9E               	goto	l395
  5504                           opt subtitle "HI-TECH Software Omniscient Code Generator (Lite mode) build 49521"
  5505  1699                     l3294:	
  5506  1699  2E9E               	goto	l395
  5507                           opt subtitle "HI-TECH Software Omniscient Code Generator (Lite mode) build 49521"
  5508                           
  5509  169A                     l3296:	
  5510                           opt subtitle "HI-TECH Software Omniscient Code Generator (Lite mode) build 49521"
  5511  169A  2E9E               	goto	l395
  5512                           opt subtitle "HI-TECH Software Omniscient Code Generator (Lite mode) build 49521"
  5513                           
  5514  169B                     l394:	
  5515                           opt subtitle "HI-TECH Software Omniscient Code Generator (Lite mode) build 49521"
  5516                           
  5517  169B                     l3298:	
  5518                           opt subtitle "HI-TECH Software Omniscient Code Generator (Lite mode) build 49521"
  5519                           
  5520  169B  3000               	movlw	(0)
  5521  169C  2E9E               	goto	l395
  5522                           opt subtitle "HI-TECH Software Omniscient Code Generator (Lite mode) build 49521"
  5523  169D                     l3300:	
  5524  169D  2E9E               	goto	l395
  5525                           opt subtitle "HI-TECH Software Omniscient Code Generator (Lite mode) build 49521"
  5526  169E                     l396:	
  5527                           opt subtitle "HI-TECH Software Omniscient Code Generator (Lite mode) build 49521"
  5528                           
  5529  169E                     l395:	
  5530  169E  0008               	return
  5531                           opt subtitle "HI-TECH Software Omniscient Code Generator (Lite mode) build 49521"
  5532                           
  5533  169F                     	__end_of_rfm70TxDataSentErrorInterrupt:
  5534                           opt subtitle "HI-TECH Software Omniscient Code Generator (Lite mode) build 49521"
  5535                           
  5536                           opt pagewidth 120
  5537                           
  5538                           	opt lm
  5539                           
  5540                           	processor	16LF707
  5541                           clrc	macro
  5542                           	bcf	3,0
  5543                           	endm
  5544                           clrz	macro
  5545                           	bcf	3,2
  5546                           	endm
  5547                           setc	macro
  5548                           	bsf	3,0
  5549                           	endm
  5550                           setz	macro
  5551                           	bsf	3,2
  5552                           	endm
  5553                           skipc	macro
  5554                           	btfss	3,0
  5555                           	endm
  5556                           skipz	macro
  5557                           	btfss	3,2
  5558                           	endm
  5559                           skipnc	macro
  5560                           	btfsc	3,0
  5561                           	endm
  5562                           skipnz	macro
  5563                           	btfsc	3,2
  5564                           	endm
  5565                           indf	equ	0
  5566                           indf0	equ	0
  5567                           pc	equ	2
  5568                           pcl	equ	2
  5569                           status	equ	3
  5570  0889                     __ptext764:	;psect for function _SwitchToRxMode
  5571                           opt subtitle "HI-TECH Software Omniscient Code Generator (Lite mode) build 49521"
  5572                           
  5573                           opt pagewidth 120
  5574                           
  5575  003F                     	__size_of_SwitchToRxMode	equ	__end_of_SwitchToRxMode-_SwitchToRxMode
  5576                           opt subtitle "HI-TECH Software Omniscient Code Generator (Lite mode) build 49521"
  5577  0889                     _SwitchToRxMode:	
  5578                           opt subtitle "HI-TECH Software Omniscient Code Generator (Lite mode) build 49521"
  5579                           
  5580                           opt pagewidth 120
  5581                           
  5582  0889                     l3274:	
  5583                           opt subtitle "HI-TECH Software Omniscient Code Generator (Lite mode) build 49521"
  5584                           
  5585  0889  1283               	bcf	status, 5	;RP0=0, select bank0
  5586  088A  1303               	bcf	status, 6	;RP1=0, select bank0
  5587  088B  01A3               	clrf	(?_SPI_Write_Reg)
  5588  088C  30E2               	movlw	(0E2h)
  5589  088D  160A  118A  25EB   	fcall	_SPI_Write_Reg
              120A  158A         
  5590                           opt subtitle "HI-TECH Software Omniscient Code Generator (Lite mode) build 49521"
  5591                           
  5592  0892                     l3276:	
  5593                           opt subtitle "HI-TECH Software Omniscient Code Generator (Lite mode) build 49521"
  5594  0892  3007               	movlw	(07h)
  5595  0893  160A  118A  2648   	fcall	_SPI_Read_Reg
              120A  158A         
  5596  0898  1283               	bcf	status, 5	;RP0=0, select bank0
  5597  0899  1303               	bcf	status, 6	;RP1=0, select bank0
  5598  089A  00A6               	movwf	(??_SwitchToRxMode+0)+0
  5599  089B  0826               	movf	(??_SwitchToRxMode+0)+0,w
  5600  089C  00A7               	movwf	(SwitchToRxMode@value)
  5601                           opt subtitle "HI-TECH Software Omniscient Code Generator (Lite mode) build 49521"
  5602                           
  5603  089D                     l3278:	
  5604                           opt subtitle "HI-TECH Software Omniscient Code Generator (Lite mode) build 49521"
  5605  089D  0827               	movf	(SwitchToRxMode@value),w
  5606  089E  00A6               	movwf	(??_SwitchToRxMode+0)+0
  5607  089F  0826               	movf	(??_SwitchToRxMode+0)+0,w
  5608  08A0  00A3               	movwf	(?_SPI_Write_Reg)
  5609  08A1  3027               	movlw	(027h)
  5610  08A2  160A  118A  25EB   	fcall	_SPI_Write_Reg
              120A  158A         
  5611                           opt subtitle "HI-TECH Software Omniscient Code Generator (Lite mode) build 49521"
  5612                           
  5613  08A7                     l3280:	
  5614                           opt subtitle "HI-TECH Software Omniscient Code Generator (Lite mode) build 49521"
  5615  08A7  1283               	bcf	status, 5	;RP0=0, select bank0
  5616  08A8  1303               	bcf	status, 6	;RP1=0, select bank0
  5617  08A9  1107               	bcf	(7),2	;volatile
  5618                           opt subtitle "HI-TECH Software Omniscient Code Generator (Lite mode) build 49521"
  5619                           
  5620  08AA  3000               	movlw	(0)
  5621  08AB  160A  118A  2648   	fcall	_SPI_Read_Reg
              120A  158A         
  5622  08B0  1283               	bcf	status, 5	;RP0=0, select bank0
  5623  08B1  1303               	bcf	status, 6	;RP1=0, select bank0
  5624  08B2  00A6               	movwf	(??_SwitchToRxMode+0)+0
  5625  08B3  0826               	movf	(??_SwitchToRxMode+0)+0,w
  5626  08B4  00A7               	movwf	(SwitchToRxMode@value)
  5627                           opt subtitle "HI-TECH Software Omniscient Code Generator (Lite mode) build 49521"
  5628                           
  5629  08B5                     l3282:	
  5630                           opt subtitle "HI-TECH Software Omniscient Code Generator (Lite mode) build 49521"
  5631  08B5  0827               	movf	(SwitchToRxMode@value),w
  5632  08B6  3801               	iorlw	01h
  5633  08B7  00A6               	movwf	(??_SwitchToRxMode+0)+0
  5634  08B8  0826               	movf	(??_SwitchToRxMode+0)+0,w
  5635  08B9  00A7               	movwf	(SwitchToRxMode@value)
  5636                           opt subtitle "HI-TECH Software Omniscient Code Generator (Lite mode) build 49521"
  5637                           
  5638  08BA                     l3284:	
  5639                           opt subtitle "HI-TECH Software Omniscient Code Generator (Lite mode) build 49521"
  5640  08BA  0827               	movf	(SwitchToRxMode@value),w
  5641  08BB  00A6               	movwf	(??_SwitchToRxMode+0)+0
  5642  08BC  0826               	movf	(??_SwitchToRxMode+0)+0,w
  5643  08BD  00A3               	movwf	(?_SPI_Write_Reg)
  5644  08BE  3020               	movlw	(020h)
  5645  08BF  160A  118A  25EB   	fcall	_SPI_Write_Reg
              120A  158A         
  5646                           opt subtitle "HI-TECH Software Omniscient Code Generator (Lite mode) build 49521"
  5647                           
  5648  08C4                     l3286:	
  5649                           opt subtitle "HI-TECH Software Omniscient Code Generator (Lite mode) build 49521"
  5650  08C4  1283               	bcf	status, 5	;RP0=0, select bank0
  5651  08C5  1303               	bcf	status, 6	;RP1=0, select bank0
  5652  08C6  1507               	bsf	(7),2	;volatile
  5653                           opt subtitle "HI-TECH Software Omniscient Code Generator (Lite mode) build 49521"
  5654                           
  5655  08C7                     l341:	
  5656  08C7  0008               	return
  5657                           opt subtitle "HI-TECH Software Omniscient Code Generator (Lite mode) build 49521"
  5658                           
  5659  08C8                     	__end_of_SwitchToRxMode:
  5660                           opt subtitle "HI-TECH Software Omniscient Code Generator (Lite mode) build 49521"
  5661                           
  5662                           opt pagewidth 120
  5663                           
  5664                           	opt lm
  5665                           
  5666                           	processor	16LF707
  5667                           clrc	macro
  5668                           	bcf	3,0
  5669                           	endm
  5670                           clrz	macro
  5671                           	bcf	3,2
  5672                           	endm
  5673                           setc	macro
  5674                           	bsf	3,0
  5675                           	endm
  5676                           setz	macro
  5677                           	bsf	3,2
  5678                           	endm
  5679                           skipc	macro
  5680                           	btfss	3,0
  5681                           	endm
  5682                           skipz	macro
  5683                           	btfss	3,2
  5684                           	endm
  5685                           skipnc	macro
  5686                           	btfsc	3,0
  5687                           	endm
  5688                           skipnz	macro
  5689                           	btfsc	3,2
  5690                           	endm
  5691                           indf	equ	0
  5692                           indf0	equ	0
  5693                           pc	equ	2
  5694                           pcl	equ	2
  5695  1661                     __ptext765:	;psect for function _rfm70TxDataSentInterrupt
  5696                           opt subtitle "HI-TECH Software Omniscient Code Generator (Lite mode) build 49521"
  5697                           
  5698                           opt pagewidth 120
  5699                           
  5700  001F                     	__size_of_rfm70TxDataSentInterrupt	equ	__end_of_rfm70TxDataSentInterrupt-_rfm70TxDataSe
                                 ntInterrupt
  5701                           opt subtitle "HI-TECH Software Omniscient Code Generator (Lite mode) build 49521"
  5702  1661                     _rfm70TxDataSentInterrupt:	
  5703                           opt subtitle "HI-TECH Software Omniscient Code Generator (Lite mode) build 49521"
  5704                           
  5705                           opt pagewidth 120
  5706                           
  5707  1661                     l3260:	
  5708                           opt subtitle "HI-TECH Software Omniscient Code Generator (Lite mode) build 49521"
  5709  1661  3007               	movlw	(07h)
  5710  1662  160A  118A  2648   	fcall	_SPI_Read_Reg
              160A  118A         
  5711  1667  1283               	bcf	status, 5	;RP0=0, select bank0
  5712  1668  1303               	bcf	status, 6	;RP1=0, select bank0
  5713  1669  00A6               	movwf	(??_rfm70TxDataSentInterrupt+0)+0
  5714  166A  1EA6               	btfss	0+(??_rfm70TxDataSentInterrupt+0)+0,(5)&7
  5715  166B  2E6D               	goto	u2581
  5716  166C  2E6E               	goto	u2580
  5717  166D                     u2581:
  5718  166D  2E7C               	goto	l3270
  5719  166E                     u2580:
  5720                           opt subtitle "HI-TECH Software Omniscient Code Generator (Lite mode) build 49521"
  5721                           
  5722  166E                     l3262:	
  5723                           opt subtitle "HI-TECH Software Omniscient Code Generator (Lite mode) build 49521"
  5724  166E  3020               	movlw	(020h)
  5725  166F  00A6               	movwf	(??_rfm70TxDataSentInterrupt+0)+0
  5726  1670  0826               	movf	(??_rfm70TxDataSentInterrupt+0)+0,w
  5727  1671  00A3               	movwf	(?_SPI_Write_Reg)
  5728  1672  3027               	movlw	(027h)
  5729  1673  160A  118A  25EB   	fcall	_SPI_Write_Reg
              160A  118A         
  5730                           opt subtitle "HI-TECH Software Omniscient Code Generator (Lite mode) build 49521"
  5731                           
  5732  1678                     l3264:	
  5733                           opt subtitle "HI-TECH Software Omniscient Code Generator (Lite mode) build 49521"
  5734  1678  3001               	movlw	(01h)
  5735  1679  2E7F               	goto	l390
  5736                           opt subtitle "HI-TECH Software Omniscient Code Generator (Lite mode) build 49521"
  5737  167A                     l3266:	
  5738  167A  2E7F               	goto	l390
  5739                           opt subtitle "HI-TECH Software Omniscient Code Generator (Lite mode) build 49521"
  5740                           
  5741  167B                     l3268:	
  5742                           opt subtitle "HI-TECH Software Omniscient Code Generator (Lite mode) build 49521"
  5743  167B  2E7F               	goto	l390
  5744                           opt subtitle "HI-TECH Software Omniscient Code Generator (Lite mode) build 49521"
  5745                           
  5746  167C                     l389:	
  5747                           opt subtitle "HI-TECH Software Omniscient Code Generator (Lite mode) build 49521"
  5748                           
  5749  167C                     l3270:	
  5750                           opt subtitle "HI-TECH Software Omniscient Code Generator (Lite mode) build 49521"
  5751                           
  5752  167C  3000               	movlw	(0)
  5753  167D  2E7F               	goto	l390
  5754                           opt subtitle "HI-TECH Software Omniscient Code Generator (Lite mode) build 49521"
  5755  167E                     l3272:	
  5756  167E  2E7F               	goto	l390
  5757                           opt subtitle "HI-TECH Software Omniscient Code Generator (Lite mode) build 49521"
  5758  167F                     l391:	
  5759                           opt subtitle "HI-TECH Software Omniscient Code Generator (Lite mode) build 49521"
  5760                           
  5761  167F                     l390:	
  5762  167F  0008               	return
  5763                           opt subtitle "HI-TECH Software Omniscient Code Generator (Lite mode) build 49521"
  5764                           
  5765  1680                     	__end_of_rfm70TxDataSentInterrupt:
  5766                           opt subtitle "HI-TECH Software Omniscient Code Generator (Lite mode) build 49521"
  5767                           
  5768                           opt pagewidth 120
  5769                           
  5770                           	opt lm
  5771                           
  5772                           	processor	16LF707
  5773                           clrc	macro
  5774                           	bcf	3,0
  5775                           	endm
  5776                           clrz	macro
  5777                           	bcf	3,2
  5778                           	endm
  5779                           setc	macro
  5780                           	bsf	3,0
  5781                           	endm
  5782                           setz	macro
  5783                           	bsf	3,2
  5784                           	endm
  5785                           skipc	macro
  5786                           	btfss	3,0
  5787                           	endm
  5788                           skipz	macro
  5789                           	btfss	3,2
  5790                           	endm
  5791                           skipnc	macro
  5792                           	btfsc	3,0
  5793                           	endm
  5794                           skipnz	macro
  5795                           	btfsc	3,2
  5796                           	endm
  5797                           indf	equ	0
  5798                           indf0	equ	0
  5799                           pc	equ	2
  5800                           pcl	equ	2
  5801                           status	equ	3
  5802                           fsr	equ	4
  5803                           fsr0	equ	4
  5804                           c	equ	1
  5805  170F                     __ptext766:	;psect for function _SPI_Write_Buf
  5806                           opt subtitle "HI-TECH Software Omniscient Code Generator (Lite mode) build 49521"
  5807                           
  5808                           opt pagewidth 120
  5809                           
  5810  002A                     	__size_of_SPI_Write_Buf	equ	__end_of_SPI_Write_Buf-_SPI_Write_Buf
  5811                           opt subtitle "HI-TECH Software Omniscient Code Generator (Lite mode) build 49521"
  5812  170F                     _SPI_Write_Buf:	
  5813                           opt subtitle "HI-TECH Software Omniscient Code Generator (Lite mode) build 49521"
  5814                           
  5815                           opt pagewidth 120
  5816                           
  5817  170F  1283               	bcf	status, 5	;RP0=0, select bank0
  5818  1710  1303               	bcf	status, 6	;RP1=0, select bank0
  5819  1711  00A6               	movwf	(SPI_Write_Buf@reg)
  5820                           opt subtitle "HI-TECH Software Omniscient Code Generator (Lite mode) build 49521"
  5821  1712                     l3246:	
  5822                           opt subtitle "HI-TECH Software Omniscient Code Generator (Lite mode) build 49521"
  5823                           
  5824  1712  1108               	bcf	(8),2	;volatile
  5825                           opt subtitle "HI-TECH Software Omniscient Code Generator (Lite mode) build 49521"
  5826                           
  5827  1713                     l3248:	
  5828                           opt subtitle "HI-TECH Software Omniscient Code Generator (Lite mode) build 49521"
  5829  1713  0826               	movf	(SPI_Write_Buf@reg),w
  5830  1714  160A  118A  262F   	fcall	_SPI_RW
              160A  118A         
  5831                           opt subtitle "HI-TECH Software Omniscient Code Generator (Lite mode) build 49521"
  5832                           
  5833  1719                     l3250:	
  5834                           opt subtitle "HI-TECH Software Omniscient Code Generator (Lite mode) build 49521"
  5835  1719  1283               	bcf	status, 5	;RP0=0, select bank0
  5836  171A  1303               	bcf	status, 6	;RP1=0, select bank0
  5837  171B  01A7               	clrf	(SPI_Write_Buf@byte_ctr)
  5838  171C  2F31               	goto	l3258
  5839                           opt subtitle "HI-TECH Software Omniscient Code Generator (Lite mode) build 49521"
  5840                           
  5841  171D                     l336:	
  5842                           opt subtitle "HI-TECH Software Omniscient Code Generator (Lite mode) build 49521"
  5843  171D                     l3252:	
  5844                           opt subtitle "HI-TECH Software Omniscient Code Generator (Lite mode) build 49521"
  5845  171D  0823               	movf	(SPI_Write_Buf@pBuf),w
  5846  171E  0084               	movwf	fsr0
  5847  171F  1383               	bcf	status, 7	;select IRP bank0
  5848  1720  0800               	movf	indf,w
  5849  1721  160A  118A  262F   	fcall	_SPI_RW
              160A  118A         
  5850                           opt subtitle "HI-TECH Software Omniscient Code Generator (Lite mode) build 49521"
  5851  1726                     l3254:	
  5852  1726  3001               	movlw	(01h)
  5853  1727  1283               	bcf	status, 5	;RP0=0, select bank0
  5854  1728  1303               	bcf	status, 6	;RP1=0, select bank0
  5855  1729  00A5               	movwf	(??_SPI_Write_Buf+0)+0
  5856  172A  0825               	movf	(??_SPI_Write_Buf+0)+0,w
  5857  172B  07A3               	addwf	(SPI_Write_Buf@pBuf),f
  5858                           opt subtitle "HI-TECH Software Omniscient Code Generator (Lite mode) build 49521"
  5859                           
  5860  172C                     l3256:	
  5861  172C  3001               	movlw	(01h)
  5862  172D  00A5               	movwf	(??_SPI_Write_Buf+0)+0
  5863  172E  0825               	movf	(??_SPI_Write_Buf+0)+0,w
  5864  172F  07A7               	addwf	(SPI_Write_Buf@byte_ctr),f
  5865  1730  2F31               	goto	l3258
  5866                           opt subtitle "HI-TECH Software Omniscient Code Generator (Lite mode) build 49521"
  5867  1731                     l335:	
  5868                           opt subtitle "HI-TECH Software Omniscient Code Generator (Lite mode) build 49521"
  5869  1731                     l3258:	
  5870  1731  0824               	movf	(SPI_Write_Buf@length),w
  5871  1732  0227               	subwf	(SPI_Write_Buf@byte_ctr),w
  5872  1733  1C03               	skipc
  5873  1734  2F36               	goto	u2571
  5874  1735  2F37               	goto	u2570
  5875  1736                     u2571:
  5876  1736  2F1D               	goto	l3252
  5877  1737                     u2570:
  5878                           opt subtitle "HI-TECH Software Omniscient Code Generator (Lite mode) build 49521"
  5879  1737                     l337:	
  5880                           opt subtitle "HI-TECH Software Omniscient Code Generator (Lite mode) build 49521"
  5881                           
  5882  1737  1508               	bsf	(8),2	;volatile
  5883                           opt subtitle "HI-TECH Software Omniscient Code Generator (Lite mode) build 49521"
  5884                           
  5885  1738                     l338:	
  5886  1738  0008               	return
  5887                           opt subtitle "HI-TECH Software Omniscient Code Generator (Lite mode) build 49521"
  5888                           
  5889  1739                     	__end_of_SPI_Write_Buf:
  5890                           opt subtitle "HI-TECH Software Omniscient Code Generator (Lite mode) build 49521"
  5891                           
  5892                           opt pagewidth 120
  5893                           
  5894                           	opt lm
  5895                           
  5896                           	processor	16LF707
  5897                           clrc	macro
  5898                           	bcf	3,0
  5899                           	endm
  5900                           clrz	macro
  5901                           	bcf	3,2
  5902                           	endm
  5903                           setc	macro
  5904                           	bsf	3,0
  5905                           	endm
  5906                           setz	macro
  5907                           	bsf	3,2
  5908                           	endm
  5909                           skipc	macro
  5910                           	btfss	3,0
  5911                           	endm
  5912                           skipz	macro
  5913                           	btfss	3,2
  5914                           	endm
  5915                           skipnc	macro
  5916                           	btfsc	3,0
  5917                           	endm
  5918                           skipnz	macro
  5919                           	btfsc	3,2
  5920                           	endm
  5921                           indf	equ	0
  5922                           indf0	equ	0
  5923                           pc	equ	2
  5924                           pcl	equ	2
  5925                           status	equ	3
  5926                           fsr	equ	4
  5927                           fsr0	equ	4
  5928                           c	equ	1
  5929                           z	equ	0
  5930                           pclath	equ	10
  5931                           # 46 "/Applications/microchip/xc8/v1.12/include/pic16lf707.h"
  5932                           INDF equ 00h ;# 
  5933                           # 52 "/Applications/microchip/xc8/v1.12/include/pic16lf707.h"
  5934                           TMR0 equ 01h ;# 
  5935                           # 58 "/Applications/microchip/xc8/v1.12/include/pic16lf707.h"
  5936                           PCL equ 02h ;# 
  5937  0550                     __ptext767:	;psect for function _printf
  5938                           opt subtitle "HI-TECH Software Omniscient Code Generator (Lite mode) build 49521"
  5939                           
  5940                           opt pagewidth 120
  5941                           
  5942  01B0                     	__size_of_printf	equ	__end_of_printf-_printf
  5943                           opt subtitle "HI-TECH Software Omniscient Code Generator (Lite mode) build 49521"
  5944  0550                     _printf:	
  5945                           opt subtitle "HI-TECH Software Omniscient Code Generator (Lite mode) build 49521"
  5946                           
  5947                           opt pagewidth 120
  5948                           
  5949  0550                     l3080:	
  5950                           opt subtitle "HI-TECH Software Omniscient Code Generator (Lite mode) build 49521"
  5951                           
  5952                           opt pagewidth 120
  5953                           
  5954                           	opt lm
  5955                           
  5956                           	processor	16LF707
  5957                           clrc	macro
  5958                           	bcf	3,0
  5959                           	endm
  5960                           clrz	macro
  5961                           	bcf	3,2
  5962  0550  3030               	movlw	(?_printf+02h)&0ffh
  5963  0551  1283               	bcf	status, 5	;RP0=0, select bank0
  5964  0552  1303               	bcf	status, 6	;RP1=0, select bank0
  5965  0553  00B2               	movwf	(??_printf+0)+0
  5966  0554  0832               	movf	(??_printf+0)+0,w
  5967  0555  00B6               	movwf	(printf@ap)
  5968                           opt subtitle "HI-TECH Software Omniscient Code Generator (Lite mode) build 49521"
  5969                           
  5970  0556  2EE2               	goto	l3154
  5971                           opt subtitle "HI-TECH Software Omniscient Code Generator (Lite mode) build 49521"
  5972  0557                     l420:	
  5973                           opt subtitle "HI-TECH Software Omniscient Code Generator (Lite mode) build 49521"
  5974                           
  5975  0557                     l3082:	
  5976                           opt subtitle "HI-TECH Software Omniscient Code Generator (Lite mode) build 49521"
  5977  0557  083D               	movf	(printf@c),w
  5978  0558  3A25               	xorlw	025h
  5979  0559  1903               	skipnz
  5980  055A  2D5C               	goto	u2361
  5981  055B  2D5D               	goto	u2360
  5982  055C                     u2361:
  5983  055C  2D64               	goto	l421
  5984  055D                     u2360:
  5985                           opt subtitle "HI-TECH Software Omniscient Code Generator (Lite mode) build 49521"
  5986                           
  5987  055D                     l3084:	
  5988                           opt subtitle "HI-TECH Software Omniscient Code Generator (Lite mode) build 49521"
  5989                           
  5990  055D  083D               	movf	(printf@c),w
  5991  055E  160A  118A  25BF   	fcall	_putch
              120A  118A         
  5992                           opt subtitle "HI-TECH Software Omniscient Code Generator (Lite mode) build 49521"
  5993                           
  5994  0563  2EE2               	goto	l3154
  5995                           opt subtitle "HI-TECH Software Omniscient Code Generator (Lite mode) build 49521"
  5996                           
  5997  0564                     l421:	
  5998                           opt subtitle "HI-TECH Software Omniscient Code Generator (Lite mode) build 49521"
  5999                           
  6000                           opt pagewidth 120
  6001  0564  01B8               	clrf	(printf@flag)
  6002                           opt subtitle "HI-TECH Software Omniscient Code Generator (Lite mode) build 49521"
  6003                           
  6004  0565  2D73               	goto	l3090
  6005                           opt subtitle "HI-TECH Software Omniscient Code Generator (Lite mode) build 49521"
  6006                           
  6007                           opt pagewidth 120
  6008  0566                     l423:	
  6009                           opt subtitle "HI-TECH Software Omniscient Code Generator (Lite mode) build 49521"
  6010                           
  6011  0566  2EFF               	goto	l453
  6012                           opt subtitle "HI-TECH Software Omniscient Code Generator (Lite mode) build 49521"
  6013                           
  6014                           opt pagewidth 120
  6015  0567                     l425:	
  6016  0567  2D97               	goto	l427
  6017                           opt subtitle "HI-TECH Software Omniscient Code Generator (Lite mode) build 49521"
  6018                           
  6019  0568                     l426:	
  6020                           opt subtitle "HI-TECH Software Omniscient Code Generator (Lite mode) build 49521"
  6021                           
  6022                           opt pagewidth 120
  6023  0568  2D97               	goto	l427
  6024                           opt subtitle "HI-TECH Software Omniscient Code Generator (Lite mode) build 49521"
  6025                           
  6026                           opt pagewidth 120
  6027  0569                     l428:	
  6028                           opt subtitle "HI-TECH Software Omniscient Code Generator (Lite mode) build 49521"
  6029                           
  6030  0569                     l429:	
  6031                           opt subtitle "HI-TECH Software Omniscient Code Generator (Lite mode) build 49521"
  6032                           
  6033                           opt pagewidth 120
  6034  0569  17B8               	bsf	(printf@flag)+(7/8),(7)&7
  6035                           opt subtitle "HI-TECH Software Omniscient Code Generator (Lite mode) build 49521"
  6036                           
  6037  056A  2D97               	goto	l427
  6038                           opt subtitle "HI-TECH Software Omniscient Code Generator (Lite mode) build 49521"
  6039                           
  6040                           opt pagewidth 120
  6041  056B                     l430:	
  6042                           opt subtitle "HI-TECH Software Omniscient Code Generator (Lite mode) build 49521"
  6043                           
  6044  056B                     l3086:	
  6045                           opt subtitle "HI-TECH Software Omniscient Code Generator (Lite mode) build 49521"
  6046  056B  083D               	movf	(printf@c),w
  6047  056C  160A  118A  25BF   	fcall	_putch
              120A  118A         
  6048                           opt subtitle "HI-TECH Software Omniscient Code Generator (Lite mode) build 49521"
  6049                           
  6050  0571  2EE2               	goto	l3154
  6051                           opt subtitle "HI-TECH Software Omniscient Code Generator (Lite mode) build 49521"
  6052                           
  6053  0572                     l3088:	
  6054                           opt subtitle "HI-TECH Software Omniscient Code Generator (Lite mode) build 49521"
  6055  0572  2D97               	goto	l427
  6056                           opt subtitle "HI-TECH Software Omniscient Code Generator (Lite mode) build 49521"
  6057                           
  6058  0573                     l422:	
  6059                           opt subtitle "HI-TECH Software Omniscient Code Generator (Lite mode) build 49521"
  6060  0573                     l3090:	
  6061  0573  1283               	bcf	status, 5	;RP0=0, select bank0
  6062  0574  1303               	bcf	status, 6	;RP1=0, select bank0
  6063  0575  082F               	movf	(printf@f+1),w
  6064  0576  00B3               	movwf	(??_printf+0)+0+1
  6065  0577  082E               	movf	(printf@f),w
  6066  0578  00B2               	movwf	(??_printf+0)+0
  6067  0579  3001               	movlw	(01h)
  6068  057A  07AE               	addwf	(printf@f),f
  6069  057B  1803               	skipnc
  6070  057C  0AAF               	incf	(printf@f+1),f
  6071  057D  0833               	movf	1+(??_printf+0)+0,w
  6072  057E  00FF               	movwf	btemp+1
  6073  057F  0832               	movf	0+(??_printf+0)+0,w
  6074  0580  0084               	movwf	fsr0
  6075  0581  120A  118A  2700   	fcall	stringtab
              120A  118A         
  6076  0586  00BD               	movwf	(printf@c)
  6077                           opt subtitle "HI-TECH Software Omniscient Code Generator (Lite mode) build 49521"
  6078                           
  6079                           opt pagewidth 120
  6080                           
  6081                           	opt lm
  6082                           
  6083                           	processor	16LF707
  6084                           clrc	macro
  6085                           	bcf	3,0
  6086                           	endm
  6087                           clrz	macro
  6088                           	bcf	3,2
  6089  0587  3A00               	xorlw	0^0	; case 0
  6090  0588  1903               	skipnz
  6091  0589  2EFF               	goto	l453
  6092  058A  3A58               	xorlw	88^0	; case 88
  6093  058B  1903               	skipnz
  6094  058C  2D69               	goto	l429
  6095  058D  3A3C               	xorlw	100^88	; case 100
  6096  058E  1903               	skipnz
  6097  058F  2D97               	goto	l427
  6098  0590  3A0D               	xorlw	105^100	; case 105
  6099  0591  1903               	skipnz
  6100  0592  2D97               	goto	l427
  6101  0593  3A11               	xorlw	120^105	; case 120
  6102  0594  1903               	skipnz
  6103  0595  2D69               	goto	l429
  6104  0596  2D6B               	goto	l3086
  6105                           opt subtitle "HI-TECH Software Omniscient Code Generator (Lite mode) build 49521"
  6106                           
  6107                           opt pagewidth 120
  6108                           
  6109  0597                     l427:	
  6110                           opt subtitle "HI-TECH Software Omniscient Code Generator (Lite mode) build 49521"
  6111                           
  6112  0597  1283               	bcf	status, 5	;RP0=0, select bank0
  6113  0598  1303               	bcf	status, 6	;RP1=0, select bank0
  6114  0599  1BB8               	btfsc	(printf@flag),(7)&7
  6115  059A  2D9C               	goto	u2371
  6116  059B  2D9D               	goto	u2370
  6117  059C                     u2371:
  6118  059C  2DB8               	goto	l3102
  6119  059D                     u2370:
  6120                           opt subtitle "HI-TECH Software Omniscient Code Generator (Lite mode) build 49521"
  6121                           
  6122  059D                     l3092:	
  6123                           opt subtitle "HI-TECH Software Omniscient Code Generator (Lite mode) build 49521"
  6124                           
  6125  059D  0836               	movf	(printf@ap),w
  6126  059E  0084               	movwf	fsr0
  6127  059F  1383               	bcf	status, 7	;select IRP bank0
  6128  05A0  0800               	movf	indf,w
  6129  05A1  00B9               	movwf	(printf@_val)
  6130  05A2  0A84               	incf	fsr0,f
  6131  05A3  0800               	movf	indf,w
  6132  05A4  00BA               	movwf	(printf@_val+1)
  6133                           opt subtitle "HI-TECH Software Omniscient Code Generator (Lite mode) build 49521"
  6134  05A5                     l3094:	
  6135  05A5  3002               	movlw	(02h)
  6136  05A6  00B2               	movwf	(??_printf+0)+0
  6137  05A7  0832               	movf	(??_printf+0)+0,w
  6138  05A8  07B6               	addwf	(printf@ap),f
  6139                           opt subtitle "HI-TECH Software Omniscient Code Generator (Lite mode) build 49521"
  6140                           
  6141  05A9                     l3096:	
  6142                           opt subtitle "HI-TECH Software Omniscient Code Generator (Lite mode) build 49521"
  6143  05A9  1FBA               	btfss	(printf@_val+1),7
  6144  05AA  2DAC               	goto	u2381
  6145  05AB  2DAD               	goto	u2380
  6146  05AC                     u2381:
  6147  05AC  2E35               	goto	l3132
  6148  05AD                     u2380:
  6149                           opt subtitle "HI-TECH Software Omniscient Code Generator (Lite mode) build 49521"
  6150                           
  6151  05AD                     l3098:	
  6152                           opt subtitle "HI-TECH Software Omniscient Code Generator (Lite mode) build 49521"
  6153  05AD  3003               	movlw	(03h)
  6154  05AE  00B2               	movwf	(??_printf+0)+0
  6155  05AF  0832               	movf	(??_printf+0)+0,w
  6156  05B0  04B8               	iorwf	(printf@flag),f
  6157                           opt subtitle "HI-TECH Software Omniscient Code Generator (Lite mode) build 49521"
  6158                           
  6159  05B1                     l3100:	
  6160                           opt subtitle "HI-TECH Software Omniscient Code Generator (Lite mode) build 49521"
  6161  05B1  09B9               	comf	(printf@_val),f
  6162  05B2  09BA               	comf	(printf@_val+1),f
  6163  05B3  0AB9               	incf	(printf@_val),f
  6164  05B4  1903               	skipnz
  6165  05B5  0ABA               	incf	(printf@_val+1),f
  6166  05B6  2E35               	goto	l3132
  6167                           opt subtitle "HI-TECH Software Omniscient Code Generator (Lite mode) build 49521"
  6168                           
  6169  05B7                     l432:	
  6170                           opt subtitle "HI-TECH Software Omniscient Code Generator (Lite mode) build 49521"
  6171                           
  6172                           opt pagewidth 120
  6173  05B7  2E35               	goto	l3132
  6174                           opt subtitle "HI-TECH Software Omniscient Code Generator (Lite mode) build 49521"
  6175                           
  6176  05B8                     l431:	
  6177                           opt subtitle "HI-TECH Software Omniscient Code Generator (Lite mode) build 49521"
  6178                           
  6179  05B8                     l3102:	
  6180                           opt subtitle "HI-TECH Software Omniscient Code Generator (Lite mode) build 49521"
  6181                           
  6182                           opt pagewidth 120
  6183  05B8  0836               	movf	(printf@ap),w
  6184  05B9  0084               	movwf	fsr0
  6185  05BA  1383               	bcf	status, 7	;select IRP bank0
  6186  05BB  0800               	movf	indf,w
  6187  05BC  00B9               	movwf	(printf@_val)
  6188  05BD  0A84               	incf	fsr0,f
  6189  05BE  0800               	movf	indf,w
  6190  05BF  00BA               	movwf	(printf@_val+1)
  6191                           opt subtitle "HI-TECH Software Omniscient Code Generator (Lite mode) build 49521"
  6192  05C0                     l3104:	
  6193  05C0  3002               	movlw	(02h)
  6194  05C1  00B2               	movwf	(??_printf+0)+0
  6195  05C2  0832               	movf	(??_printf+0)+0,w
  6196  05C3  07B6               	addwf	(printf@ap),f
  6197  05C4  2E35               	goto	l3132
  6198                           opt subtitle "HI-TECH Software Omniscient Code Generator (Lite mode) build 49521"
  6199                           
  6200  05C5                     l433:	
  6201                           opt subtitle "HI-TECH Software Omniscient Code Generator (Lite mode) build 49521"
  6202                           
  6203                           opt pagewidth 120
  6204  05C5  2E35               	goto	l3132
  6205                           opt subtitle "HI-TECH Software Omniscient Code Generator (Lite mode) build 49521"
  6206                           
  6207                           opt pagewidth 120
  6208  05C6                     l435:	
  6209                           opt subtitle "HI-TECH Software Omniscient Code Generator (Lite mode) build 49521"
  6210                           
  6211  05C6  01BD               	clrf	(printf@c)
  6212  05C7  0ABD               	incf	(printf@c),f
  6213                           opt subtitle "HI-TECH Software Omniscient Code Generator (Lite mode) build 49521"
  6214  05C8                     l3106:	
  6215  05C8  083D               	movf	(printf@c),w
  6216  05C9  3A05               	xorlw	05h
  6217  05CA  1D03               	skipz
  6218  05CB  2DCD               	goto	u2391
  6219  05CC  2DCE               	goto	u2390
  6220  05CD                     u2391:
  6221  05CD  2DD0               	goto	l3110
  6222  05CE                     u2390:
  6223  05CE  2E3E               	goto	l3134
  6224                           opt subtitle "HI-TECH Software Omniscient Code Generator (Lite mode) build 49521"
  6225  05CF                     l3108:	
  6226  05CF  2E3E               	goto	l3134
  6227                           opt subtitle "HI-TECH Software Omniscient Code Generator (Lite mode) build 49521"
  6228                           
  6229  05D0                     l436:	
  6230                           opt subtitle "HI-TECH Software Omniscient Code Generator (Lite mode) build 49521"
  6231  05D0                     l3110:	
  6232                           opt subtitle "HI-TECH Software Omniscient Code Generator (Lite mode) build 49521"
  6233  05D0  083D               	movf	(printf@c),w
  6234  05D1  00B2               	movwf	(??_printf+0)+0
  6235  05D2  0732               	addwf	(??_printf+0)+0,w
  6236  05D3  3E83               	addlw	low(_dpowers|8000h)
  6237  05D4  0084               	movwf	fsr0
  6238  05D5  3087               	movlw	high(_dpowers|8000h)
  6239  05D6  1803               	skipnc
  6240  05D7  3E01               	addlw	1
  6241  05D8  00FF               	movwf	btemp+1
  6242  05D9  120A  118A  2700   	fcall	stringtab
              120A  118A         
  6243  05DE  00B3               	movwf	(??_printf+1)+0
  6244  05DF  120A  118A  2700   	fcall	stringtab
              120A  118A         
  6245  05E4  00B4               	movwf	(??_printf+1)+0+1
  6246  05E5  0834               	movf	1+(??_printf+1)+0,w
  6247  05E6  023A               	subwf	(printf@_val+1),w
  6248  05E7  1D03               	skipz
  6249  05E8  2DEB               	goto	u2405
  6250  05E9  0833               	movf	0+(??_printf+1)+0,w
  6251  05EA  0239               	subwf	(printf@_val),w
  6252  05EB                     u2405:
  6253  05EB  1803               	skipnc
  6254  05EC  2DEE               	goto	u2401
  6255  05ED  2DEF               	goto	u2400
  6256  05EE                     u2401:
  6257  05EE  2DF1               	goto	l3114
  6258  05EF                     u2400:
  6259  05EF  2E3E               	goto	l3134
  6260                           opt subtitle "HI-TECH Software Omniscient Code Generator (Lite mode) build 49521"
  6261                           
  6262  05F0                     l3112:	
  6263                           opt subtitle "HI-TECH Software Omniscient Code Generator (Lite mode) build 49521"
  6264  05F0  2E3E               	goto	l3134
  6265                           opt subtitle "HI-TECH Software Omniscient Code Generator (Lite mode) build 49521"
  6266  05F1                     l438:	
  6267                           opt subtitle "HI-TECH Software Omniscient Code Generator (Lite mode) build 49521"
  6268                           
  6269  05F1                     l3114:	
  6270  05F1  3001               	movlw	(01h)
  6271  05F2  00B2               	movwf	(??_printf+0)+0
  6272  05F3  0832               	movf	(??_printf+0)+0,w
  6273  05F4  07BD               	addwf	(printf@c),f
  6274                           opt subtitle "HI-TECH Software Omniscient Code Generator (Lite mode) build 49521"
  6275  05F5                     l3116:	
  6276  05F5  083D               	movf	(printf@c),w
  6277  05F6  3A05               	xorlw	05h
  6278  05F7  1D03               	skipz
  6279  05F8  2DFA               	goto	u2411
  6280  05F9  2DFB               	goto	u2410
  6281  05FA                     u2411:
  6282  05FA  2DD0               	goto	l3110
  6283  05FB                     u2410:
  6284  05FB  2E3E               	goto	l3134
  6285                           opt subtitle "HI-TECH Software Omniscient Code Generator (Lite mode) build 49521"
  6286  05FC                     l437:	
  6287                           opt subtitle "HI-TECH Software Omniscient Code Generator (Lite mode) build 49521"
  6288                           
  6289  05FC  2E3E               	goto	l3134
  6290                           opt subtitle "HI-TECH Software Omniscient Code Generator (Lite mode) build 49521"
  6291                           
  6292                           opt pagewidth 120
  6293  05FD                     l440:	
  6294                           opt subtitle "HI-TECH Software Omniscient Code Generator (Lite mode) build 49521"
  6295                           
  6296  05FD  01BD               	clrf	(printf@c)
  6297  05FE  0ABD               	incf	(printf@c),f
  6298                           opt subtitle "HI-TECH Software Omniscient Code Generator (Lite mode) build 49521"
  6299  05FF                     l3118:	
  6300  05FF  083D               	movf	(printf@c),w
  6301  0600  3A04               	xorlw	04h
  6302  0601  1D03               	skipz
  6303  0602  2E04               	goto	u2421
  6304  0603  2E05               	goto	u2420
  6305  0604                     u2421:
  6306  0604  2E07               	goto	l3122
  6307  0605                     u2420:
  6308  0605  2E3E               	goto	l3134
  6309                           opt subtitle "HI-TECH Software Omniscient Code Generator (Lite mode) build 49521"
  6310  0606                     l3120:	
  6311  0606  2E3E               	goto	l3134
  6312                           opt subtitle "HI-TECH Software Omniscient Code Generator (Lite mode) build 49521"
  6313                           
  6314  0607                     l441:	
  6315                           opt subtitle "HI-TECH Software Omniscient Code Generator (Lite mode) build 49521"
  6316  0607                     l3122:	
  6317                           opt subtitle "HI-TECH Software Omniscient Code Generator (Lite mode) build 49521"
  6318  0607  083D               	movf	(printf@c),w
  6319  0608  00B2               	movwf	(??_printf+0)+0
  6320  0609  0732               	addwf	(??_printf+0)+0,w
  6321  060A  3E8D               	addlw	low(_hexpowers|8000h)
  6322  060B  0084               	movwf	fsr0
  6323  060C  3087               	movlw	high(_hexpowers|8000h)
  6324  060D  1803               	skipnc
  6325  060E  3E01               	addlw	1
  6326  060F  00FF               	movwf	btemp+1
  6327  0610  120A  118A  2700   	fcall	stringtab
              120A  118A         
  6328  0615  00B3               	movwf	(??_printf+1)+0
  6329  0616  120A  118A  2700   	fcall	stringtab
              120A  118A         
  6330  061B  00B4               	movwf	(??_printf+1)+0+1
  6331  061C  0834               	movf	1+(??_printf+1)+0,w
  6332  061D  023A               	subwf	(printf@_val+1),w
  6333  061E  1D03               	skipz
  6334  061F  2E22               	goto	u2435
  6335  0620  0833               	movf	0+(??_printf+1)+0,w
  6336  0621  0239               	subwf	(printf@_val),w
  6337  0622                     u2435:
  6338  0622  1803               	skipnc
  6339  0623  2E25               	goto	u2431
  6340  0624  2E26               	goto	u2430
  6341  0625                     u2431:
  6342  0625  2E28               	goto	l3126
  6343  0626                     u2430:
  6344  0626  2E3E               	goto	l3134
  6345                           opt subtitle "HI-TECH Software Omniscient Code Generator (Lite mode) build 49521"
  6346                           
  6347  0627                     l3124:	
  6348                           opt subtitle "HI-TECH Software Omniscient Code Generator (Lite mode) build 49521"
  6349  0627  2E3E               	goto	l3134
  6350                           opt subtitle "HI-TECH Software Omniscient Code Generator (Lite mode) build 49521"
  6351  0628                     l443:	
  6352                           opt subtitle "HI-TECH Software Omniscient Code Generator (Lite mode) build 49521"
  6353                           
  6354  0628                     l3126:	
  6355  0628  3001               	movlw	(01h)
  6356  0629  00B2               	movwf	(??_printf+0)+0
  6357  062A  0832               	movf	(??_printf+0)+0,w
  6358  062B  07BD               	addwf	(printf@c),f
  6359                           opt subtitle "HI-TECH Software Omniscient Code Generator (Lite mode) build 49521"
  6360  062C                     l3128:	
  6361  062C  083D               	movf	(printf@c),w
  6362  062D  3A04               	xorlw	04h
  6363  062E  1D03               	skipz
  6364  062F  2E31               	goto	u2441
  6365  0630  2E32               	goto	u2440
  6366  0631                     u2441:
  6367  0631  2E07               	goto	l3122
  6368  0632                     u2440:
  6369  0632  2E3E               	goto	l3134
  6370                           opt subtitle "HI-TECH Software Omniscient Code Generator (Lite mode) build 49521"
  6371  0633                     l442:	
  6372                           opt subtitle "HI-TECH Software Omniscient Code Generator (Lite mode) build 49521"
  6373                           
  6374  0633  2E3E               	goto	l3134
  6375                           opt subtitle "HI-TECH Software Omniscient Code Generator (Lite mode) build 49521"
  6376                           
  6377  0634                     l3130:	
  6378                           opt subtitle "HI-TECH Software Omniscient Code Generator (Lite mode) build 49521"
  6379  0634  2E3E               	goto	l3134
  6380                           opt subtitle "HI-TECH Software Omniscient Code Generator (Lite mode) build 49521"
  6381                           
  6382  0635                     l434:	
  6383                           opt subtitle "HI-TECH Software Omniscient Code Generator (Lite mode) build 49521"
  6384  0635                     l3132:	
  6385  0635  0838               	movf	(printf@flag),w
  6386  0636  3980               	andlw	080h
  6387                           opt subtitle "HI-TECH Software Omniscient Code Generator (Lite mode) build 49521"
  6388                           
  6389                           opt pagewidth 120
  6390                           
  6391                           	opt lm
  6392                           
  6393                           	processor	16LF707
  6394                           clrc	macro
  6395                           	bcf	3,0
  6396                           	endm
  6397                           clrz	macro
  6398                           	bcf	3,2
  6399  0637  3A00               	xorlw	0^0	; case 0
  6400  0638  1903               	skipnz
  6401  0639  2DC6               	goto	l435
  6402  063A  3A80               	xorlw	128^0	; case 128
  6403  063B  1903               	skipnz
  6404  063C  2DFD               	goto	l440
  6405  063D  2E3E               	goto	l3134
  6406                           opt subtitle "HI-TECH Software Omniscient Code Generator (Lite mode) build 49521"
  6407                           
  6408                           opt pagewidth 120
  6409                           
  6410  063E                     l439:	
  6411                           opt subtitle "HI-TECH Software Omniscient Code Generator (Lite mode) build 49521"
  6412                           
  6413  063E                     l3134:	
  6414                           opt subtitle "HI-TECH Software Omniscient Code Generator (Lite mode) build 49521"
  6415                           
  6416  063E  0838               	movf	(printf@flag),w
  6417  063F  3903               	andlw	03h
  6418  0640  1903               	btfsc	status,2
  6419  0641  2E43               	goto	u2451
  6420  0642  2E44               	goto	u2450
  6421  0643                     u2451:
  6422  0643  2E4B               	goto	l3138
  6423  0644                     u2450:
  6424                           opt subtitle "HI-TECH Software Omniscient Code Generator (Lite mode) build 49521"
  6425                           
  6426  0644                     l3136:	
  6427                           opt subtitle "HI-TECH Software Omniscient Code Generator (Lite mode) build 49521"
  6428  0644  302D               	movlw	(02Dh)
  6429  0645  160A  118A  25BF   	fcall	_putch
              120A  118A         
  6430  064A  2E4B               	goto	l3138
  6431                           opt subtitle "HI-TECH Software Omniscient Code Generator (Lite mode) build 49521"
  6432  064B                     l444:	
  6433                           opt subtitle "HI-TECH Software Omniscient Code Generator (Lite mode) build 49521"
  6434                           
  6435  064B                     l3138:	
  6436                           opt subtitle "HI-TECH Software Omniscient Code Generator (Lite mode) build 49521"
  6437                           
  6438  064B  1283               	bcf	status, 5	;RP0=0, select bank0
  6439  064C  1303               	bcf	status, 6	;RP1=0, select bank0
  6440  064D  083D               	movf	(printf@c),w
  6441  064E  00B2               	movwf	(??_printf+0)+0
  6442  064F  0832               	movf	(??_printf+0)+0,w
  6443  0650  00B7               	movwf	(printf@prec)
  6444                           opt subtitle "HI-TECH Software Omniscient Code Generator (Lite mode) build 49521"
  6445                           
  6446  0651  2ED4               	goto	l3152
  6447                           opt subtitle "HI-TECH Software Omniscient Code Generator (Lite mode) build 49521"
  6448  0652                     l446:	
  6449                           opt subtitle "HI-TECH Software Omniscient Code Generator (Lite mode) build 49521"
  6450                           
  6451  0652  2EC4               	goto	l3148
  6452                           opt subtitle "HI-TECH Software Omniscient Code Generator (Lite mode) build 49521"
  6453                           
  6454                           opt pagewidth 120
  6455                           
  6456  0653                     l448:	
  6457                           opt subtitle "HI-TECH Software Omniscient Code Generator (Lite mode) build 49521"
  6458                           
  6459  0653                     l3140:	
  6460                           opt subtitle "HI-TECH Software Omniscient Code Generator (Lite mode) build 49521"
  6461  0653  300A               	movlw	low(0Ah)
  6462  0654  00A8               	movwf	(?___lwmod)
  6463  0655  3000               	movlw	high(0Ah)
  6464  0656  00A9               	movwf	((?___lwmod))+1
  6465  0657  0837               	movf	(printf@prec),w
  6466  0658  00B2               	movwf	(??_printf+0)+0
  6467  0659  0732               	addwf	(??_printf+0)+0,w
  6468  065A  3E83               	addlw	low(_dpowers|8000h)
  6469  065B  0084               	movwf	fsr0
  6470  065C  3087               	movlw	high(_dpowers|8000h)
  6471  065D  1803               	skipnc
  6472  065E  3E01               	addlw	1
  6473  065F  00FF               	movwf	btemp+1
  6474  0660  120A  118A  2700   	fcall	stringtab
              120A  118A         
  6475  0665  00A0               	movwf	(?___lwdiv)
  6476  0666  120A  118A  2700   	fcall	stringtab
              120A  118A         
  6477  066B  00A1               	movwf	(?___lwdiv+1)
  6478  066C  083A               	movf	(printf@_val+1),w
  6479  066D  01A3               	clrf	1+(?___lwdiv)+02h
  6480  066E  07A3               	addwf	1+(?___lwdiv)+02h
  6481  066F  0839               	movf	(printf@_val),w
  6482  0670  01A2               	clrf	0+(?___lwdiv)+02h
  6483  0671  07A2               	addwf	0+(?___lwdiv)+02h
  6484                           opt subtitle "HI-TECH Software Omniscient Code Generator (Lite mode) build 49521"
  6485  0672  120A  158A  210D   	fcall	___lwdiv
              120A  118A         
  6486  0677  1283               	bcf	status, 5	;RP0=0, select bank0
  6487  0678  1303               	bcf	status, 6	;RP1=0, select bank0
  6488  0679  0821               	movf	(1+(?___lwdiv)),w
  6489  067A  01AB               	clrf	1+(?___lwmod)+02h
  6490  067B  07AB               	addwf	1+(?___lwmod)+02h
  6491  067C  0820               	movf	(0+(?___lwdiv)),w
  6492  067D  01AA               	clrf	0+(?___lwmod)+02h
  6493  067E  07AA               	addwf	0+(?___lwmod)+02h
  6494                           opt subtitle "HI-TECH Software Omniscient Code Generator (Lite mode) build 49521"
  6495  067F  120A  158A  20C8   	fcall	___lwmod
              120A  118A         
  6496  0684  1283               	bcf	status, 5	;RP0=0, select bank0
  6497  0685  1303               	bcf	status, 6	;RP1=0, select bank0
  6498  0686  0828               	movf	(0+(?___lwmod)),w
  6499  0687  3E30               	addlw	030h
  6500  0688  00B3               	movwf	(??_printf+1)+0
  6501  0689  0833               	movf	(??_printf+1)+0,w
  6502  068A  00BD               	movwf	(printf@c)
  6503                           opt subtitle "HI-TECH Software Omniscient Code Generator (Lite mode) build 49521"
  6504                           
  6505  068B  2ECD               	goto	l3150
  6506                           opt subtitle "HI-TECH Software Omniscient Code Generator (Lite mode) build 49521"
  6507                           
  6508                           opt pagewidth 120
  6509  068C                     l450:	
  6510                           opt subtitle "HI-TECH Software Omniscient Code Generator (Lite mode) build 49521"
  6511                           
  6512  068C                     l3142:	
  6513                           opt subtitle "HI-TECH Software Omniscient Code Generator (Lite mode) build 49521"
  6514                           
  6515  068C  0837               	movf	(printf@prec),w
  6516  068D  00B2               	movwf	(??_printf+0)+0
  6517  068E  0732               	addwf	(??_printf+0)+0,w
  6518  068F  3E8D               	addlw	low(_hexpowers|8000h)
  6519  0690  0084               	movwf	fsr0
  6520  0691  3087               	movlw	high(_hexpowers|8000h)
  6521  0692  1803               	skipnc
  6522  0693  3E01               	addlw	1
  6523  0694  00FF               	movwf	btemp+1
  6524  0695  120A  118A  2700   	fcall	stringtab
              120A  118A         
  6525  069A  00A0               	movwf	(?___lwdiv)
  6526  069B  120A  118A  2700   	fcall	stringtab
              120A  118A         
  6527  06A0  00A1               	movwf	(?___lwdiv+1)
  6528  06A1  083A               	movf	(printf@_val+1),w
  6529  06A2  01A3               	clrf	1+(?___lwdiv)+02h
  6530  06A3  07A3               	addwf	1+(?___lwdiv)+02h
  6531  06A4  0839               	movf	(printf@_val),w
  6532  06A5  01A2               	clrf	0+(?___lwdiv)+02h
  6533  06A6  07A2               	addwf	0+(?___lwdiv)+02h
  6534                           opt subtitle "HI-TECH Software Omniscient Code Generator (Lite mode) build 49521"
  6535  06A7  120A  158A  210D   	fcall	___lwdiv
              120A  118A         
  6536  06AC  1283               	bcf	status, 5	;RP0=0, select bank0
  6537  06AD  1303               	bcf	status, 6	;RP1=0, select bank0
  6538  06AE  0820               	movf	(0+(?___lwdiv)),w
  6539  06AF  390F               	andlw	0Fh
  6540  06B0  00B3               	movwf	(??_printf+1)+0
  6541  06B1  0833               	movf	(??_printf+1)+0,w
  6542  06B2  00B5               	movwf	(printf@idx)
  6543                           opt subtitle "HI-TECH Software Omniscient Code Generator (Lite mode) build 49521"
  6544                           
  6545  06B3                     l3144:	
  6546                           opt subtitle "HI-TECH Software Omniscient Code Generator (Lite mode) build 49521"
  6547  06B3  0835               	movf	(printf@idx),w
  6548  06B4  3ED5               	addlw	low(STR_10|8000h)
  6549  06B5  0084               	movwf	fsr0
  6550  06B6  3087               	movlw	high(STR_10|8000h)
  6551  06B7  1803               	skipnc
  6552  06B8  3E01               	addlw	1
  6553  06B9  00FF               	movwf	btemp+1
  6554  06BA  120A  118A  2700   	fcall	stringtab
              120A  118A         
  6555  06BF  00B2               	movwf	(??_printf+0)+0
  6556  06C0  0832               	movf	(??_printf+0)+0,w
  6557  06C1  00BD               	movwf	(printf@c)
  6558                           opt subtitle "HI-TECH Software Omniscient Code Generator (Lite mode) build 49521"
  6559                           
  6560                           opt pagewidth 120
  6561  06C2  2ECD               	goto	l3150
  6562                           opt subtitle "HI-TECH Software Omniscient Code Generator (Lite mode) build 49521"
  6563                           
  6564  06C3                     l3146:	
  6565                           opt subtitle "HI-TECH Software Omniscient Code Generator (Lite mode) build 49521"
  6566  06C3  2ECD               	goto	l3150
  6567                           opt subtitle "HI-TECH Software Omniscient Code Generator (Lite mode) build 49521"
  6568                           
  6569  06C4                     l447:	
  6570                           opt subtitle "HI-TECH Software Omniscient Code Generator (Lite mode) build 49521"
  6571  06C4                     l3148:	
  6572  06C4  0838               	movf	(printf@flag),w
  6573  06C5  3980               	andlw	080h
  6574                           opt subtitle "HI-TECH Software Omniscient Code Generator (Lite mode) build 49521"
  6575                           
  6576                           opt pagewidth 120
  6577                           
  6578                           	opt lm
  6579                           
  6580                           	processor	16LF707
  6581                           clrc	macro
  6582                           	bcf	3,0
  6583                           	endm
  6584                           clrz	macro
  6585                           	bcf	3,2
  6586  06C6  3A00               	xorlw	0^0	; case 0
  6587  06C7  1903               	skipnz
  6588  06C8  2E53               	goto	l3140
  6589  06C9  3A80               	xorlw	128^0	; case 128
  6590  06CA  1903               	skipnz
  6591  06CB  2E8C               	goto	l3142
  6592  06CC  2ECD               	goto	l3150
  6593                           opt subtitle "HI-TECH Software Omniscient Code Generator (Lite mode) build 49521"
  6594                           
  6595                           opt pagewidth 120
  6596                           
  6597  06CD                     l449:	
  6598                           opt subtitle "HI-TECH Software Omniscient Code Generator (Lite mode) build 49521"
  6599                           
  6600  06CD                     l3150:	
  6601                           opt subtitle "HI-TECH Software Omniscient Code Generator (Lite mode) build 49521"
  6602  06CD  083D               	movf	(printf@c),w
  6603  06CE  160A  118A  25BF   	fcall	_putch
              120A  118A         
  6604  06D3  2ED4               	goto	l3152
  6605                           opt subtitle "HI-TECH Software Omniscient Code Generator (Lite mode) build 49521"
  6606                           
  6607  06D4                     l445:	
  6608                           opt subtitle "HI-TECH Software Omniscient Code Generator (Lite mode) build 49521"
  6609                           
  6610  06D4                     l3152:	
  6611  06D4  30FF               	movlw	(-1)
  6612  06D5  1283               	bcf	status, 5	;RP0=0, select bank0
  6613  06D6  1303               	bcf	status, 6	;RP1=0, select bank0
  6614  06D7  00B2               	movwf	(??_printf+0)+0
  6615  06D8  0832               	movf	(??_printf+0)+0,w
  6616  06D9  07B7               	addwf	(printf@prec),f
  6617  06DA  0837               	movf	((printf@prec)),w
  6618  06DB  3AFF               	xorlw	-1
  6619  06DC  1D03               	skipz
  6620  06DD  2EDF               	goto	u2461
  6621  06DE  2EE0               	goto	u2460
  6622  06DF                     u2461:
  6623  06DF  2EC4               	goto	l3148
  6624  06E0                     u2460:
  6625  06E0  2EE2               	goto	l3154
  6626                           opt subtitle "HI-TECH Software Omniscient Code Generator (Lite mode) build 49521"
  6627  06E1                     l451:	
  6628  06E1  2EE2               	goto	l3154
  6629                           opt subtitle "HI-TECH Software Omniscient Code Generator (Lite mode) build 49521"
  6630                           
  6631  06E2                     l419:	
  6632                           opt subtitle "HI-TECH Software Omniscient Code Generator (Lite mode) build 49521"
  6633                           
  6634  06E2                     l3154:	
  6635  06E2  1283               	bcf	status, 5	;RP0=0, select bank0
  6636  06E3  1303               	bcf	status, 6	;RP1=0, select bank0
  6637  06E4  082F               	movf	(printf@f+1),w
  6638  06E5  00B3               	movwf	(??_printf+0)+0+1
  6639  06E6  082E               	movf	(printf@f),w
  6640  06E7  00B2               	movwf	(??_printf+0)+0
  6641  06E8  3001               	movlw	(01h)
  6642  06E9  07AE               	addwf	(printf@f),f
  6643  06EA  1803               	skipnc
  6644  06EB  0AAF               	incf	(printf@f+1),f
  6645  06EC  0833               	movf	1+(??_printf+0)+0,w
  6646  06ED  00FF               	movwf	btemp+1
  6647  06EE  0832               	movf	0+(??_printf+0)+0,w
  6648  06EF  0084               	movwf	fsr0
  6649  06F0  120A  118A  2700   	fcall	stringtab
              120A  118A         
  6650  06F5  00B4               	movwf	(??_printf+2)+0
  6651  06F6  0834               	movf	(??_printf+2)+0,w
  6652  06F7  00BD               	movwf	(printf@c)
  6653  06F8  08BD               	movf	((printf@c)),f
  6654  06F9  1D03               	skipz
  6655  06FA  2EFC               	goto	u2471
  6656  06FB  2EFD               	goto	u2470
  6657  06FC                     u2471:
  6658  06FC  2D57               	goto	l3082
  6659  06FD                     u2470:
  6660  06FD  2EFF               	goto	l453
  6661                           opt subtitle "HI-TECH Software Omniscient Code Generator (Lite mode) build 49521"
  6662  06FE                     l452:	
  6663  06FE  2EFF               	goto	l453
  6664                           opt subtitle "HI-TECH Software Omniscient Code Generator (Lite mode) build 49521"
  6665                           
  6666                           opt pagewidth 120
  6667                           
  6668                           	opt lm
  6669  06FF                     l424:	
  6670                           opt subtitle "HI-TECH Software Omniscient Code Generator (Lite mode) build 49521"
  6671                           
  6672                           opt pagewidth 120
  6673                           
  6674  06FF                     l453:	
  6675  06FF  0008               	return
  6676                           opt subtitle "HI-TECH Software Omniscient Code Generator (Lite mode) build 49521"
  6677                           
  6678  0700                     	__end_of_printf:
  6679                           opt subtitle "HI-TECH Software Omniscient Code Generator (Lite mode) build 49521"
  6680                           
  6681                           opt pagewidth 120
  6682                           
  6683                           	opt lm
  6684                           
  6685                           	processor	16LF707
  6686                           clrc	macro
  6687                           	bcf	3,0
  6688                           	endm
  6689                           clrz	macro
  6690                           	bcf	3,2
  6691                           	endm
  6692                           setc	macro
  6693                           	bsf	3,0
  6694                           	endm
  6695                           setz	macro
  6696                           	bsf	3,2
  6697                           	endm
  6698                           skipc	macro
  6699                           	btfss	3,0
  6700                           	endm
  6701                           skipz	macro
  6702                           	btfss	3,2
  6703                           	endm
  6704                           skipnc	macro
  6705                           	btfsc	3,0
  6706                           	endm
  6707                           skipnz	macro
  6708                           	btfsc	3,2
  6709                           	endm
  6710                           indf	equ	0
  6711                           indf0	equ	0
  6712                           pc	equ	2
  6713                           pcl	equ	2
  6714                           status	equ	3
  6715                           fsr	equ	4
  6716                           fsr0	equ	4
  6717  0F00                     __ptext768:	;psect for function _sleep
  6718                           opt subtitle "HI-TECH Software Omniscient Code Generator (Lite mode) build 49521"
  6719                           
  6720                           opt pagewidth 120
  6721                           
  6722  0100                     	__size_of_sleep	equ	__end_of_sleep-_sleep
  6723                           opt subtitle "HI-TECH Software Omniscient Code Generator (Lite mode) build 49521"
  6724  0F00                     _sleep:	
  6725                           opt subtitle "HI-TECH Software Omniscient Code Generator (Lite mode) build 49521"
  6726                           
  6727                           opt pagewidth 120
  6728                           
  6729  0F00                     l3156:	
  6730                           opt subtitle "HI-TECH Software Omniscient Code Generator (Lite mode) build 49521"
  6731                           
  6732  0F00  160A  118A  2797   	fcall	_adcReadVcap
              120A  158A         
  6733  0F05  1283               	bcf	status, 5	;RP0=0, select bank0
  6734  0F06  1303               	bcf	status, 6	;RP1=0, select bank0
  6735  0F07  00BC               	movwf	(??_sleep+0)+0
  6736  0F08  083C               	movf	(??_sleep+0)+0,w
  6737  0F09  00E0               	movwf	(_value)
  6738                           opt subtitle "HI-TECH Software Omniscient Code Generator (Lite mode) build 49521"
  6739                           
  6740  0F0A  0861               	movf	(_charge_pulse_float),w
  6741  0F0B  00A0               	movwf	(?___fttol)
  6742  0F0C  0862               	movf	(_charge_pulse_float+1),w
  6743  0F0D  00A1               	movwf	(?___fttol+1)
  6744  0F0E  0863               	movf	(_charge_pulse_float+2),w
  6745  0F0F  00A2               	movwf	(?___fttol+2)
  6746  0F10  120A  158A  2325   	fcall	___fttol
              120A  158A         
  6747  0F15  1283               	bcf	status, 5	;RP0=0, select bank0
  6748  0F16  1303               	bcf	status, 6	;RP1=0, select bank0
  6749  0F17  0821               	movf	1+(((0+(?___fttol)))),w
  6750  0F18  01D4               	clrf	(_charge_pulse+1)
  6751  0F19  07D4               	addwf	(_charge_pulse+1)
  6752  0F1A  0820               	movf	0+(((0+(?___fttol)))),w
  6753  0F1B  01D3               	clrf	(_charge_pulse)
  6754  0F1C  07D3               	addwf	(_charge_pulse)
  6755                           opt subtitle "HI-TECH Software Omniscient Code Generator (Lite mode) build 49521"
  6756                           
  6757                           opt pagewidth 120
  6758  0F1D                     l3158:	
  6759                           opt subtitle "HI-TECH Software Omniscient Code Generator (Lite mode) build 49521"
  6760  0F1D  307A               	movlw	(07Ah)
  6761  0F1E  0260               	subwf	(_value),w
  6762  0F1F  1C03               	skipc
  6763  0F20  2F22               	goto	u2481
  6764  0F21  2F23               	goto	u2480
  6765  0F22                     u2481:
  6766  0F22  2FF4               	goto	l196
  6767  0F23                     u2480:
  6768                           opt subtitle "HI-TECH Software Omniscient Code Generator (Lite mode) build 49521"
  6769  0F23                     l3160:	
  6770  0F23  0854               	movf	(_charge_pulse+1),w
  6771  0F24  0453               	iorwf	(_charge_pulse),w
  6772  0F25  1903               	skipnz
  6773  0F26  2F28               	goto	u2491
  6774  0F27  2F29               	goto	u2490
  6775  0F28                     u2491:
  6776  0F28  2FF4               	goto	l196
  6777  0F29                     u2490:
  6778                           opt subtitle "HI-TECH Software Omniscient Code Generator (Lite mode) build 49521"
  6779  0F29                     l3162:	
  6780  0F29  1A88               	btfsc	(8),5	;volatile
  6781  0F2A  2F2C               	goto	u2501
  6782  0F2B  2F2D               	goto	u2500
  6783  0F2C                     u2501:
  6784  0F2C  2FF4               	goto	l196
  6785  0F2D                     u2500:
  6786                           opt subtitle "HI-TECH Software Omniscient Code Generator (Lite mode) build 49521"
  6787                           
  6788  0F2D                     l3164:	
  6789                           opt subtitle "HI-TECH Software Omniscient Code Generator (Lite mode) build 49521"
  6790  0F2D  1283               	bcf	status, 5	;RP0=0, select bank2
  6791  0F2E  1703               	bsf	status, 6	;RP1=1, select bank2
  6792  0F2F  0194               	clrf	(276)^0100h	;volatile
  6793                           opt subtitle "HI-TECH Software Omniscient Code Generator (Lite mode) build 49521"
  6794                           
  6795  0F30                     l3166:	
  6796                           opt subtitle "HI-TECH Software Omniscient Code Generator (Lite mode) build 49521"
  6797  0F30  30A0               	movlw	(0A0h)
  6798  0F31  0093               	movwf	(275)^0100h	;volatile
  6799                           opt subtitle "HI-TECH Software Omniscient Code Generator (Lite mode) build 49521"
  6800                           
  6801  0F32                     l3168:	
  6802                           opt subtitle "HI-TECH Software Omniscient Code Generator (Lite mode) build 49521"
  6803  0F32  1283               	bcf	status, 5	;RP0=0, select bank0
  6804  0F33  1303               	bcf	status, 6	;RP1=0, select bank0
  6805  0F34  1010               	bcf	(16),0	;volatile
  6806                           opt subtitle "HI-TECH Software Omniscient Code Generator (Lite mode) build 49521"
  6807                           
  6808  0F35                     l3170:	
  6809                           opt subtitle "HI-TECH Software Omniscient Code Generator (Lite mode) build 49521"
  6810  0F35  0854               	movf	(_charge_pulse+1),w
  6811  0F36  00BD               	movwf	(??_sleep+0)+0+1
  6812  0F37  0853               	movf	(_charge_pulse),w
  6813  0F38  00BC               	movwf	(??_sleep+0)+0
  6814  0F39  3002               	movlw	02h
  6815  0F3A  00FF               	movwf	btemp+1
  6816  0F3B                     u2515:
  6817  0F3B  1003               	clrc
  6818  0F3C  0DBC               	rlf	(??_sleep+0)+0,f
  6819  0F3D  0DBD               	rlf	(??_sleep+0)+1,f
  6820  0F3E  0BFF               	decfsz	btemp+1,f
  6821  0F3F  2F3B               	goto	u2515
  6822  0F40  09BC               	comf	(??_sleep+0)+0,f
  6823  0F41  09BD               	comf	(??_sleep+0)+1,f
  6824  0F42  0ABC               	incf	(??_sleep+0)+0,f
  6825  0F43  1903               	skipnz
  6826  0F44  0ABD               	incf	(??_sleep+0)+1,f
  6827  0F45  083C               	movf	0+(??_sleep+0)+0,w
  6828  0F46  00D5               	movwf	(_charge_time)
  6829  0F47  083D               	movf	1+(??_sleep+0)+0,w
  6830  0F48  00D6               	movwf	(_charge_time+1)
  6831                           opt subtitle "HI-TECH Software Omniscient Code Generator (Lite mode) build 49521"
  6832                           
  6833  0F49                     l3172:	
  6834                           opt subtitle "HI-TECH Software Omniscient Code Generator (Lite mode) build 49521"
  6835  0F49  0856               	movf	(_charge_time+1),w
  6836  0F4A  008F               	movwf	(15)	;volatile
  6837                           opt subtitle "HI-TECH Software Omniscient Code Generator (Lite mode) build 49521"
  6838                           
  6839  0F4B                     l3174:	
  6840                           opt subtitle "HI-TECH Software Omniscient Code Generator (Lite mode) build 49521"
  6841  0F4B  0855               	movf	(_charge_time),w
  6842  0F4C  008E               	movwf	(14)	;volatile
  6843                           opt subtitle "HI-TECH Software Omniscient Code Generator (Lite mode) build 49521"
  6844                           
  6845  0F4D                     l3176:	
  6846                           opt subtitle "HI-TECH Software Omniscient Code Generator (Lite mode) build 49521"
  6847  0F4D  1410               	bsf	(16),0	;volatile
  6848                           opt subtitle "HI-TECH Software Omniscient Code Generator (Lite mode) build 49521"
  6849                           
  6850  0F4E  0063               sleep ;# 
  6851                           opt subtitle "HI-TECH Software Omniscient Code Generator (Lite mode) build 49521"
  6852                           
  6853                           opt pagewidth 120
  6854  0F4F                     l3178:	
  6855                           opt subtitle "HI-TECH Software Omniscient Code Generator (Lite mode) build 49521"
  6856  0F4F  1283               	bcf	status, 5	;RP0=0, select bank2
  6857  0F50  1703               	bsf	status, 6	;RP1=1, select bank2
  6858  0F51  0193               	clrf	(275)^0100h	;volatile
  6859                           opt subtitle "HI-TECH Software Omniscient Code Generator (Lite mode) build 49521"
  6860                           
  6861  0F52                     l3180:	
  6862                           opt subtitle "HI-TECH Software Omniscient Code Generator (Lite mode) build 49521"
  6863  0F52  1283               	bcf	status, 5	;RP0=0, select bank0
  6864  0F53  1303               	bcf	status, 6	;RP1=0, select bank0
  6865  0F54  1505               	bsf	(5),2	;volatile
  6866                           opt subtitle "HI-TECH Software Omniscient Code Generator (Lite mode) build 49521"
  6867                           
  6868  0F55                     l3182:	
  6869                           opt subtitle "HI-TECH Software Omniscient Code Generator (Lite mode) build 49521"
  6870  0F55  160A  118A  2797   	fcall	_adcReadVcap
              120A  158A         
  6871  0F5A  1283               	bcf	status, 5	;RP0=0, select bank0
  6872  0F5B  1303               	bcf	status, 6	;RP1=0, select bank0
  6873  0F5C  00BC               	movwf	(??_sleep+0)+0
  6874  0F5D  083C               	movf	(??_sleep+0)+0,w
  6875  0F5E  00BE               	movwf	(sleep@new_value)
  6876                           opt subtitle "HI-TECH Software Omniscient Code Generator (Lite mode) build 49521"
  6877                           
  6878  0F5F                     l3184:	
  6879                           opt subtitle "HI-TECH Software Omniscient Code Generator (Lite mode) build 49521"
  6880  0F5F  0955               	comf	(_charge_time),w
  6881  0F60  00BC               	movwf	(??_sleep+0)+0
  6882  0F61  0956               	comf	(_charge_time+1),w
  6883  0F62  00BD               	movwf	((??_sleep+0)+0+1)
  6884  0F63  0ABC               	incf	(??_sleep+0)+0,f
  6885  0F64  1903               	skipnz
  6886  0F65  0ABD               	incf	((??_sleep+0)+0+1),f
  6887  0F66  083C               	movf	0+(??_sleep+0)+0,w
  6888  0F67  3E00               	addlw	low(01000h)
  6889  0F68  00D5               	movwf	(_charge_time)
  6890  0F69  083D               	movf	1+(??_sleep+0)+0,w
  6891  0F6A  1803               	skipnc
  6892  0F6B  3E01               	addlw	1
  6893  0F6C  3E10               	addlw	high(01000h)
  6894  0F6D  00D6               	movwf	1+(_charge_time)
  6895                           opt subtitle "HI-TECH Software Omniscient Code Generator (Lite mode) build 49521"
  6896                           
  6897  0F6E                     l3186:	
  6898                           opt subtitle "HI-TECH Software Omniscient Code Generator (Lite mode) build 49521"
  6899  0F6E  1010               	bcf	(16),0	;volatile
  6900                           opt subtitle "HI-TECH Software Omniscient Code Generator (Lite mode) build 49521"
  6901                           
  6902  0F6F                     l3188:	
  6903                           opt subtitle "HI-TECH Software Omniscient Code Generator (Lite mode) build 49521"
  6904  0F6F  0856               	movf	(_charge_time+1),w
  6905  0F70  008F               	movwf	(15)	;volatile
  6906                           opt subtitle "HI-TECH Software Omniscient Code Generator (Lite mode) build 49521"
  6907                           
  6908  0F71                     l3190:	
  6909                           opt subtitle "HI-TECH Software Omniscient Code Generator (Lite mode) build 49521"
  6910  0F71  0855               	movf	(_charge_time),w
  6911  0F72  008E               	movwf	(14)	;volatile
  6912                           opt subtitle "HI-TECH Software Omniscient Code Generator (Lite mode) build 49521"
  6913                           
  6914  0F73                     l3192:	
  6915                           opt subtitle "HI-TECH Software Omniscient Code Generator (Lite mode) build 49521"
  6916  0F73  1410               	bsf	(16),0	;volatile
  6917                           opt subtitle "HI-TECH Software Omniscient Code Generator (Lite mode) build 49521"
  6918                           
  6919  0F74  0063               sleep ;# 
  6920                           opt subtitle "HI-TECH Software Omniscient Code Generator (Lite mode) build 49521"
  6921                           
  6922                           opt pagewidth 120
  6923  0F75                     l3194:	
  6924                           opt subtitle "HI-TECH Software Omniscient Code Generator (Lite mode) build 49521"
  6925  0F75  1283               	bcf	status, 5	;RP0=0, select bank0
  6926  0F76  1303               	bcf	status, 6	;RP1=0, select bank0
  6927  0F77  083E               	movf	(sleep@new_value),w
  6928  0F78  0260               	subwf	(_value),w
  6929  0F79  1803               	skipnc
  6930  0F7A  2F7C               	goto	u2521
  6931  0F7B  2F7D               	goto	u2520
  6932  0F7C                     u2521:
  6933  0F7C  2F81               	goto	l197
  6934  0F7D                     u2520:
  6935                           opt subtitle "HI-TECH Software Omniscient Code Generator (Lite mode) build 49521"
  6936                           
  6937  0F7D                     l3196:	
  6938                           opt subtitle "HI-TECH Software Omniscient Code Generator (Lite mode) build 49521"
  6939  0F7D  0860               	movf	(_value),w
  6940  0F7E  00BC               	movwf	(??_sleep+0)+0
  6941  0F7F  083C               	movf	(??_sleep+0)+0,w
  6942  0F80  00BE               	movwf	(sleep@new_value)
  6943                           opt subtitle "HI-TECH Software Omniscient Code Generator (Lite mode) build 49521"
  6944  0F81                     l197:	
  6945                           opt subtitle "HI-TECH Software Omniscient Code Generator (Lite mode) build 49521"
  6946                           
  6947  0F81  0860               	movf	(_value),w
  6948  0F82  00BC               	movwf	(??_sleep+0)+0
  6949  0F83  083C               	movf	(??_sleep+0)+0,w
  6950  0F84  00DB               	movwf	(_values)
  6951                           opt subtitle "HI-TECH Software Omniscient Code Generator (Lite mode) build 49521"
  6952                           
  6953  0F85  083E               	movf	(sleep@new_value),w
  6954  0F86  00BC               	movwf	(??_sleep+0)+0
  6955  0F87  083C               	movf	(??_sleep+0)+0,w
  6956  0F88  00DC               	movwf	0+(_values)+01h
  6957                           opt subtitle "HI-TECH Software Omniscient Code Generator (Lite mode) build 49521"
  6958                           
  6959  0F89  3059               	movlw	(059h)
  6960  0F8A  023E               	subwf	(sleep@new_value),w
  6961  0F8B  1C03               	skipc
  6962  0F8C  2F8E               	goto	u2531
  6963  0F8D  2F8F               	goto	u2530
  6964  0F8E                     u2531:
  6965  0F8E  2FC1               	goto	l3202
  6966  0F8F                     u2530:
  6967                           opt subtitle "HI-TECH Software Omniscient Code Generator (Lite mode) build 49521"
  6968                           
  6969  0F8F                     l3198:	
  6970                           opt subtitle "HI-TECH Software Omniscient Code Generator (Lite mode) build 49521"
  6971  0F8F  0861               	movf	(_charge_pulse_float),w
  6972  0F90  00B0               	movwf	(?___ftge)
  6973  0F91  0862               	movf	(_charge_pulse_float+1),w
  6974  0F92  00B1               	movwf	(?___ftge+1)
  6975  0F93  0863               	movf	(_charge_pulse_float+2),w
  6976  0F94  00B2               	movwf	(?___ftge+2)
  6977  0F95  3040               	movlw	0x40
  6978  0F96  00B3               	movwf	0+(?___ftge)+03h
  6979  0F97  301C               	movlw	0x1c
  6980  0F98  00B4               	movwf	1+(?___ftge)+03h
  6981  0F99  3046               	movlw	0x46
  6982  0F9A  00B5               	movwf	2+(?___ftge)+03h
  6983  0F9B  120A  158A  21C6   	fcall	___ftge
              120A  158A         
  6984  0FA0  1803               	btfsc	status,0
  6985  0FA1  2FA3               	goto	u2541
  6986  0FA2  2FA4               	goto	u2540
  6987  0FA3                     u2541:
  6988  0FA3  2FFF               	goto	l203
  6989  0FA4                     u2540:
  6990                           opt subtitle "HI-TECH Software Omniscient Code Generator (Lite mode) build 49521"
  6991                           
  6992  0FA4                     l3200:	
  6993                           opt subtitle "HI-TECH Software Omniscient Code Generator (Lite mode) build 49521"
  6994  0FA4  3066               	movlw	0x66
  6995  0FA5  1283               	bcf	status, 5	;RP0=0, select bank0
  6996  0FA6  1303               	bcf	status, 6	;RP1=0, select bank0
  6997  0FA7  00A8               	movwf	(?___ftmul)
  6998  0FA8  3086               	movlw	0x86
  6999  0FA9  00A9               	movwf	(?___ftmul+1)
  7000  0FAA  303F               	movlw	0x3f
  7001  0FAB  00AA               	movwf	(?___ftmul+2)
  7002  0FAC  0861               	movf	(_charge_pulse_float),w
  7003  0FAD  00AB               	movwf	0+(?___ftmul)+03h
  7004  0FAE  0862               	movf	(_charge_pulse_float+1),w
  7005  0FAF  00AC               	movwf	1+(?___ftmul)+03h
  7006  0FB0  0863               	movf	(_charge_pulse_float+2),w
  7007  0FB1  00AD               	movwf	2+(?___ftmul)+03h
  7008  0FB2  120A  158A  2612   	fcall	___ftmul
              120A  158A         
  7009  0FB7  1283               	bcf	status, 5	;RP0=0, select bank0
  7010  0FB8  1303               	bcf	status, 6	;RP1=0, select bank0
  7011  0FB9  0828               	movf	(0+(?___ftmul)),w
  7012  0FBA  00E1               	movwf	(_charge_pulse_float)
  7013  0FBB  0829               	movf	(1+(?___ftmul)),w
  7014  0FBC  00E2               	movwf	(_charge_pulse_float+1)
  7015  0FBD  082A               	movf	(2+(?___ftmul)),w
  7016  0FBE  00E3               	movwf	(_charge_pulse_float+2)
  7017  0FBF  2FFF               	goto	l203
  7018                           opt subtitle "HI-TECH Software Omniscient Code Generator (Lite mode) build 49521"
  7019  0FC0                     l199:	
  7020                           opt subtitle "HI-TECH Software Omniscient Code Generator (Lite mode) build 49521"
  7021                           
  7022  0FC0  2FFF               	goto	l203
  7023                           opt subtitle "HI-TECH Software Omniscient Code Generator (Lite mode) build 49521"
  7024                           
  7025  0FC1                     l198:	
  7026                           opt subtitle "HI-TECH Software Omniscient Code Generator (Lite mode) build 49521"
  7027                           
  7028  0FC1                     l3202:	
  7029                           opt subtitle "HI-TECH Software Omniscient Code Generator (Lite mode) build 49521"
  7030                           
  7031  0FC1  3000               	movlw	0x0
  7032  0FC2  00B0               	movwf	(?___ftge)
  7033  0FC3  3000               	movlw	0x0
  7034  0FC4  00B1               	movwf	(?___ftge+1)
  7035  0FC5  3000               	movlw	0x0
  7036  0FC6  00B2               	movwf	(?___ftge+2)
  7037  0FC7  0861               	movf	(_charge_pulse_float),w
  7038  0FC8  00B3               	movwf	0+(?___ftge)+03h
  7039  0FC9  0862               	movf	(_charge_pulse_float+1),w
  7040  0FCA  00B4               	movwf	1+(?___ftge)+03h
  7041  0FCB  0863               	movf	(_charge_pulse_float+2),w
  7042  0FCC  00B5               	movwf	2+(?___ftge)+03h
  7043  0FCD  120A  158A  21C6   	fcall	___ftge
              120A  158A         
  7044  0FD2  1803               	btfsc	status,0
  7045  0FD3  2FD5               	goto	u2551
  7046  0FD4  2FD6               	goto	u2550
  7047  0FD5                     u2551:
  7048  0FD5  2FFF               	goto	l203
  7049  0FD6                     u2550:
  7050                           opt subtitle "HI-TECH Software Omniscient Code Generator (Lite mode) build 49521"
  7051                           
  7052  0FD6                     l3204:	
  7053                           opt subtitle "HI-TECH Software Omniscient Code Generator (Lite mode) build 49521"
  7054  0FD6  3066               	movlw	0x66
  7055  0FD7  1283               	bcf	status, 5	;RP0=0, select bank0
  7056  0FD8  1303               	bcf	status, 6	;RP1=0, select bank0
  7057  0FD9  00A8               	movwf	(?___ftdiv)
  7058  0FDA  3086               	movlw	0x86
  7059  0FDB  00A9               	movwf	(?___ftdiv+1)
  7060  0FDC  303F               	movlw	0x3f
  7061  0FDD  00AA               	movwf	(?___ftdiv+2)
  7062  0FDE  0861               	movf	(_charge_pulse_float),w
  7063  0FDF  00AB               	movwf	0+(?___ftdiv)+03h
  7064  0FE0  0862               	movf	(_charge_pulse_float+1),w
  7065  0FE1  00AC               	movwf	1+(?___ftdiv)+03h
  7066  0FE2  0863               	movf	(_charge_pulse_float+2),w
  7067  0FE3  00AD               	movwf	2+(?___ftdiv)+03h
  7068  0FE4  120A  158A  254A   	fcall	___ftdiv
              120A  158A         
  7069  0FE9  1283               	bcf	status, 5	;RP0=0, select bank0
  7070  0FEA  1303               	bcf	status, 6	;RP1=0, select bank0
  7071  0FEB  0828               	movf	(0+(?___ftdiv)),w
  7072  0FEC  00E1               	movwf	(_charge_pulse_float)
  7073  0FED  0829               	movf	(1+(?___ftdiv)),w
  7074  0FEE  00E2               	movwf	(_charge_pulse_float+1)
  7075  0FEF  082A               	movf	(2+(?___ftdiv)),w
  7076  0FF0  00E3               	movwf	(_charge_pulse_float+2)
  7077  0FF1  2FFF               	goto	l203
  7078                           opt subtitle "HI-TECH Software Omniscient Code Generator (Lite mode) build 49521"
  7079  0FF2                     l201:	
  7080  0FF2  2FFF               	goto	l203
  7081                           opt subtitle "HI-TECH Software Omniscient Code Generator (Lite mode) build 49521"
  7082                           
  7083  0FF3                     l200:	
  7084                           opt subtitle "HI-TECH Software Omniscient Code Generator (Lite mode) build 49521"
  7085                           
  7086                           opt pagewidth 120
  7087  0FF3  2FFF               	goto	l203
  7088                           opt subtitle "HI-TECH Software Omniscient Code Generator (Lite mode) build 49521"
  7089                           
  7090  0FF4                     l196:	
  7091                           opt subtitle "HI-TECH Software Omniscient Code Generator (Lite mode) build 49521"
  7092                           
  7093                           opt pagewidth 120
  7094  0FF4  1010               	bcf	(16),0	;volatile
  7095                           opt subtitle "HI-TECH Software Omniscient Code Generator (Lite mode) build 49521"
  7096                           
  7097  0FF5                     l3206:	
  7098                           opt subtitle "HI-TECH Software Omniscient Code Generator (Lite mode) build 49521"
  7099  0FF5  3010               	movlw	(010h)
  7100  0FF6  008F               	movwf	(15)	;volatile
  7101                           opt subtitle "HI-TECH Software Omniscient Code Generator (Lite mode) build 49521"
  7102                           
  7103  0FF7                     l3208:	
  7104                           opt subtitle "HI-TECH Software Omniscient Code Generator (Lite mode) build 49521"
  7105  0FF7  018E               	clrf	(14)	;volatile
  7106                           opt subtitle "HI-TECH Software Omniscient Code Generator (Lite mode) build 49521"
  7107                           
  7108  0FF8                     l3210:	
  7109                           opt subtitle "HI-TECH Software Omniscient Code Generator (Lite mode) build 49521"
  7110  0FF8  1410               	bsf	(16),0	;volatile
  7111                           opt subtitle "HI-TECH Software Omniscient Code Generator (Lite mode) build 49521"
  7112                           
  7113  0FF9  0063               sleep ;# 
  7114                           opt subtitle "HI-TECH Software Omniscient Code Generator (Lite mode) build 49521"
  7115                           
  7116                           opt pagewidth 120
  7117  0FFA                     l3212:	
  7118                           opt subtitle "HI-TECH Software Omniscient Code Generator (Lite mode) build 49521"
  7119  0FFA  1283               	bcf	status, 5	;RP0=0, select bank0
  7120  0FFB  1303               	bcf	status, 6	;RP1=0, select bank0
  7121  0FFC  01DB               	clrf	(_values)
  7122                           opt subtitle "HI-TECH Software Omniscient Code Generator (Lite mode) build 49521"
  7123                           
  7124  0FFD                     l3214:	
  7125                           opt subtitle "HI-TECH Software Omniscient Code Generator (Lite mode) build 49521"
  7126  0FFD  01DC               	clrf	0+(_values)+01h
  7127  0FFE  2FFF               	goto	l203
  7128                           opt subtitle "HI-TECH Software Omniscient Code Generator (Lite mode) build 49521"
  7129                           
  7130  0FFF                     l202:	
  7131                           opt subtitle "HI-TECH Software Omniscient Code Generator (Lite mode) build 49521"
  7132                           
  7133  0FFF                     l203:	
  7134  0FFF  0008               	return
  7135                           opt subtitle "HI-TECH Software Omniscient Code Generator (Lite mode) build 49521"
  7136                           
  7137  1000                     	__end_of_sleep:
  7138                           opt subtitle "HI-TECH Software Omniscient Code Generator (Lite mode) build 49521"
  7139                           
  7140                           opt pagewidth 120
  7141                           
  7142                           	opt lm
  7143                           
  7144                           	processor	16LF707
  7145                           clrc	macro
  7146                           	bcf	3,0
  7147                           	endm
  7148                           clrz	macro
  7149                           	bcf	3,2
  7150                           	endm
  7151                           setc	macro
  7152                           	bsf	3,0
  7153                           	endm
  7154                           setz	macro
  7155                           	bsf	3,2
  7156                           	endm
  7157                           skipc	macro
  7158                           	btfss	3,0
  7159                           	endm
  7160                           skipz	macro
  7161                           	btfss	3,2
  7162                           	endm
  7163                           skipnc	macro
  7164                           	btfsc	3,0
  7165                           	endm
  7166                           skipnz	macro
  7167                           	btfsc	3,2
  7168                           	endm
  7169                           indf	equ	0
  7170                           indf0	equ	0
  7171                           pc	equ	2
  7172                           pcl	equ	2
  7173  1797                     __ptext769:	;psect for function _adcReadVcap
  7174                           opt subtitle "HI-TECH Software Omniscient Code Generator (Lite mode) build 49521"
  7175                           
  7176                           opt pagewidth 120
  7177                           
  7178  0033                     	__size_of_adcReadVcap	equ	__end_of_adcReadVcap-_adcReadVcap
  7179                           opt subtitle "HI-TECH Software Omniscient Code Generator (Lite mode) build 49521"
  7180  1797                     _adcReadVcap:	
  7181                           opt subtitle "HI-TECH Software Omniscient Code Generator (Lite mode) build 49521"
  7182                           
  7183                           opt pagewidth 120
  7184                           
  7185  1797                     l2834:	
  7186                           opt subtitle "HI-TECH Software Omniscient Code Generator (Lite mode) build 49521"
  7187                           
  7188  1797  1683               	bsf	status, 5	;RP0=1, select bank1
  7189  1798  1303               	bcf	status, 6	;RP1=0, select bank1
  7190  1799  171D               	bsf	(157)^080h,6	;volatile
  7191                           opt subtitle "HI-TECH Software Omniscient Code Generator (Lite mode) build 49521"
  7192                           
  7193  179A                     l2836:	
  7194                           opt subtitle "HI-TECH Software Omniscient Code Generator (Lite mode) build 49521"
  7195  179A  1283               	bcf	status, 5	;RP0=0, select bank0
  7196  179B  1303               	bcf	status, 6	;RP1=0, select bank0
  7197  179C  081F               	movf	(31),w	;volatile
  7198  179D  39C3               	andlw	not (((1<<4)-1)<<2)
  7199  179E  3814               	iorlw	(05h & ((1<<4)-1))<<2
  7200  179F  009F               	movwf	(31)	;volatile
  7201                           opt subtitle "HI-TECH Software Omniscient Code Generator (Lite mode) build 49521"
  7202                           
  7203  17A0  1683               	bsf	status, 5	;RP0=1, select bank1
  7204  17A1  1303               	bcf	status, 6	;RP1=0, select bank1
  7205  17A2  081D               	movf	(157)^080h,w	;volatile
  7206  17A3  39FC               	andlw	not (((1<<2)-1)<<0)
  7207  17A4  3802               	iorlw	(02h & ((1<<2)-1))<<0
  7208  17A5  009D               	movwf	(157)^080h	;volatile
  7209                           opt subtitle "HI-TECH Software Omniscient Code Generator (Lite mode) build 49521"
  7210                           
  7211  17A6                     l2838:	
  7212                           opt subtitle "HI-TECH Software Omniscient Code Generator (Lite mode) build 49521"
  7213  17A6  1283               	bcf	status, 5	;RP0=0, select bank0
  7214  17A7  1303               	bcf	status, 6	;RP1=0, select bank0
  7215  17A8  141F               	bsf	(31),0	;volatile
  7216                           opt subtitle "HI-TECH Software Omniscient Code Generator (Lite mode) build 49521"
  7217                           
  7218  17A9                     l2840:	
  7219                           opt subtitle "HI-TECH Software Omniscient Code Generator (Lite mode) build 49521"
  7220  17A9  1588               	bsf	(8),3	;volatile
  7221                           opt subtitle "HI-TECH Software Omniscient Code Generator (Lite mode) build 49521"
  7222                           
  7223  17AA                     l2842:	
  7224                           opt subtitle "HI-TECH Software Omniscient Code Generator (Lite mode) build 49521"
  7225                           
  7226  17AA  3003               movlw	3
  7227  17AB  00A1               movwf	((??_adcReadVcap+0)+0+1),f
  7228  17AC  3097               	movlw	151
  7229  17AD  00A0               movwf	((??_adcReadVcap+0)+0),f
  7230  17AE                     u3547:
  7231  17AE  0BA0               	decfsz	((??_adcReadVcap+0)+0),f
  7232  17AF  2FAE               	goto	u3547
  7233  17B0  0BA1               	decfsz	((??_adcReadVcap+0)+0+1),f
  7234  17B1  2FAE               	goto	u3547
  7235  17B2  2FB3               	nop2
  7236                           opt subtitle "HI-TECH Software Omniscient Code Generator (Lite mode) build 49521"
  7237                           
  7238                           opt pagewidth 120
  7239                           
  7240  17B3                     l2844:	
  7241                           opt subtitle "HI-TECH Software Omniscient Code Generator (Lite mode) build 49521"
  7242  17B3  1283               	bcf	status, 5	;RP0=0, select bank0
  7243  17B4  1303               	bcf	status, 6	;RP1=0, select bank0
  7244  17B5  149F               	bsf	(31),1	;volatile
  7245                           opt subtitle "HI-TECH Software Omniscient Code Generator (Lite mode) build 49521"
  7246                           
  7247  17B6  2FB7               	goto	l215
  7248                           opt subtitle "HI-TECH Software Omniscient Code Generator (Lite mode) build 49521"
  7249  17B7                     l216:	
  7250                           opt subtitle "HI-TECH Software Omniscient Code Generator (Lite mode) build 49521"
  7251  17B7                     l215:	
  7252  17B7  189F               	btfsc	(31),1	;volatile
  7253  17B8  2FBA               	goto	u1951
  7254  17B9  2FBB               	goto	u1950
  7255  17BA                     u1951:
  7256  17BA  2FB7               	goto	l215
  7257  17BB                     u1950:
  7258  17BB  2FBC               	goto	l2846
  7259                           opt subtitle "HI-TECH Software Omniscient Code Generator (Lite mode) build 49521"
  7260  17BC                     l217:	
  7261                           opt subtitle "HI-TECH Software Omniscient Code Generator (Lite mode) build 49521"
  7262                           
  7263  17BC                     l2846:	
  7264                           opt subtitle "HI-TECH Software Omniscient Code Generator (Lite mode) build 49521"
  7265  17BC  081E               	movf	(30),w	;volatile
  7266  17BD  00A0               	movwf	(??_adcReadVcap+0)+0
  7267  17BE  0820               	movf	(??_adcReadVcap+0)+0,w
  7268  17BF  00A2               	movwf	(adcReadVcap@value)
  7269                           opt subtitle "HI-TECH Software Omniscient Code Generator (Lite mode) build 49521"
  7270                           
  7271  17C0                     l2848:	
  7272                           opt subtitle "HI-TECH Software Omniscient Code Generator (Lite mode) build 49521"
  7273  17C0  101F               	bcf	(31),0	;volatile
  7274                           opt subtitle "HI-TECH Software Omniscient Code Generator (Lite mode) build 49521"
  7275                           
  7276  17C1                     l2850:	
  7277                           opt subtitle "HI-TECH Software Omniscient Code Generator (Lite mode) build 49521"
  7278  17C1  1188               	bcf	(8),3	;volatile
  7279                           opt subtitle "HI-TECH Software Omniscient Code Generator (Lite mode) build 49521"
  7280                           
  7281  17C2                     l2852:	
  7282                           opt subtitle "HI-TECH Software Omniscient Code Generator (Lite mode) build 49521"
  7283  17C2  1683               	bsf	status, 5	;RP0=1, select bank1
  7284  17C3  1303               	bcf	status, 6	;RP1=0, select bank1
  7285  17C4  131D               	bcf	(157)^080h,6	;volatile
  7286                           opt subtitle "HI-TECH Software Omniscient Code Generator (Lite mode) build 49521"
  7287                           
  7288  17C5  1283               	bcf	status, 5	;RP0=0, select bank0
  7289  17C6  1303               	bcf	status, 6	;RP1=0, select bank0
  7290  17C7  0822               	movf	(adcReadVcap@value),w
  7291  17C8  2FC9               	goto	l218
  7292                           opt subtitle "HI-TECH Software Omniscient Code Generator (Lite mode) build 49521"
  7293  17C9                     l2854:	
  7294                           opt subtitle "HI-TECH Software Omniscient Code Generator (Lite mode) build 49521"
  7295                           
  7296  17C9                     l218:	
  7297  17C9  0008               	return
  7298                           opt subtitle "HI-TECH Software Omniscient Code Generator (Lite mode) build 49521"
  7299                           
  7300  17CA                     	__end_of_adcReadVcap:
  7301                           opt subtitle "HI-TECH Software Omniscient Code Generator (Lite mode) build 49521"
  7302                           
  7303                           opt pagewidth 120
  7304                           
  7305                           	opt lm
  7306                           
  7307                           	processor	16LF707
  7308                           clrc	macro
  7309                           	bcf	3,0
  7310                           	endm
  7311                           clrz	macro
  7312                           	bcf	3,2
  7313                           	endm
  7314                           setc	macro
  7315                           	bsf	3,0
  7316                           	endm
  7317                           setz	macro
  7318                           	bsf	3,2
  7319                           	endm
  7320                           skipc	macro
  7321                           	btfss	3,0
  7322                           	endm
  7323                           skipz	macro
  7324                           	btfss	3,2
  7325                           	endm
  7326                           skipnc	macro
  7327                           	btfsc	3,0
  7328                           	endm
  7329                           skipnz	macro
  7330                           	btfsc	3,2
  7331                           	endm
  7332                           indf	equ	0
  7333                           indf0	equ	0
  7334                           pc	equ	2
  7335                           pcl	equ	2
  7336  15BF                     __ptext770:	;psect for function _putch
  7337                           opt subtitle "HI-TECH Software Omniscient Code Generator (Lite mode) build 49521"
  7338                           
  7339                           opt pagewidth 120
  7340                           
  7341  000C                     	__size_of_putch	equ	__end_of_putch-_putch
  7342                           opt subtitle "HI-TECH Software Omniscient Code Generator (Lite mode) build 49521"
  7343  15BF                     _putch:	
  7344                           opt subtitle "HI-TECH Software Omniscient Code Generator (Lite mode) build 49521"
  7345                           
  7346                           opt pagewidth 120
  7347  15BF  1283               	bcf	status, 5	;RP0=0, select bank0
  7348  15C0  1303               	bcf	status, 6	;RP1=0, select bank0
  7349  15C1  00A0               	movwf	(putch@c)
  7350                           opt subtitle "HI-TECH Software Omniscient Code Generator (Lite mode) build 49521"
  7351                           
  7352  15C2                     l3216:	
  7353                           opt subtitle "HI-TECH Software Omniscient Code Generator (Lite mode) build 49521"
  7354  15C2  2DC3               	goto	l250
  7355                           opt subtitle "HI-TECH Software Omniscient Code Generator (Lite mode) build 49521"
  7356  15C3                     l251:	
  7357                           opt subtitle "HI-TECH Software Omniscient Code Generator (Lite mode) build 49521"
  7358  15C3                     l250:	
  7359  15C3  1E0C               	btfss	(100/8),(100)&7	;volatile
  7360  15C4  2DC6               	goto	u2561
  7361  15C5  2DC7               	goto	u2560
  7362  15C6                     u2561:
  7363  15C6  2DC3               	goto	l250
  7364  15C7                     u2560:
  7365  15C7  2DC8               	goto	l3218
  7366                           opt subtitle "HI-TECH Software Omniscient Code Generator (Lite mode) build 49521"
  7367  15C8                     l252:	
  7368                           opt subtitle "HI-TECH Software Omniscient Code Generator (Lite mode) build 49521"
  7369                           
  7370  15C8                     l3218:	
  7371                           opt subtitle "HI-TECH Software Omniscient Code Generator (Lite mode) build 49521"
  7372  15C8  0820               	movf	(putch@c),w
  7373  15C9  0099               	movwf	(25)	;volatile
  7374                           opt subtitle "HI-TECH Software Omniscient Code Generator (Lite mode) build 49521"
  7375                           
  7376  15CA                     l253:	
  7377  15CA  0008               	return
  7378                           opt subtitle "HI-TECH Software Omniscient Code Generator (Lite mode) build 49521"
  7379                           
  7380  15CB                     	__end_of_putch:
  7381                           opt subtitle "HI-TECH Software Omniscient Code Generator (Lite mode) build 49521"
  7382                           
  7383                           opt pagewidth 120
  7384                           
  7385                           	opt lm
  7386                           
  7387                           	processor	16LF707
  7388                           clrc	macro
  7389                           	bcf	3,0
  7390                           	endm
  7391                           clrz	macro
  7392                           	bcf	3,2
  7393                           	endm
  7394                           setc	macro
  7395                           	bsf	3,0
  7396                           	endm
  7397                           setz	macro
  7398                           	bsf	3,2
  7399                           	endm
  7400                           skipc	macro
  7401                           	btfss	3,0
  7402                           	endm
  7403                           skipz	macro
  7404                           	btfss	3,2
  7405                           	endm
  7406                           skipnc	macro
  7407                           	btfsc	3,0
  7408                           	endm
  7409                           skipnz	macro
  7410                           	btfsc	3,2
  7411                           	endm
  7412                           indf	equ	0
  7413                           indf0	equ	0
  7414                           pc	equ	2
  7415                           pcl	equ	2
  7416  16E5                     __ptext771:	;psect for function _SwitchToTxMode
  7417                           opt subtitle "HI-TECH Software Omniscient Code Generator (Lite mode) build 49521"
  7418                           
  7419                           opt pagewidth 120
  7420                           
  7421  002A                     	__size_of_SwitchToTxMode	equ	__end_of_SwitchToTxMode-_SwitchToTxMode
  7422                           opt subtitle "HI-TECH Software Omniscient Code Generator (Lite mode) build 49521"
  7423  16E5                     _SwitchToTxMode:	
  7424                           opt subtitle "HI-TECH Software Omniscient Code Generator (Lite mode) build 49521"
  7425                           
  7426                           opt pagewidth 120
  7427                           
  7428  16E5                     l3224:	
  7429                           opt subtitle "HI-TECH Software Omniscient Code Generator (Lite mode) build 49521"
  7430                           
  7431  16E5  1283               	bcf	status, 5	;RP0=0, select bank0
  7432  16E6  1303               	bcf	status, 6	;RP1=0, select bank0
  7433  16E7  01A3               	clrf	(?_SPI_Write_Reg)
  7434  16E8  30E1               	movlw	(0E1h)
  7435  16E9  160A  118A  25EB   	fcall	_SPI_Write_Reg
              160A  118A         
  7436                           opt subtitle "HI-TECH Software Omniscient Code Generator (Lite mode) build 49521"
  7437                           
  7438  16EE                     l3226:	
  7439                           opt subtitle "HI-TECH Software Omniscient Code Generator (Lite mode) build 49521"
  7440  16EE  1283               	bcf	status, 5	;RP0=0, select bank0
  7441  16EF  1303               	bcf	status, 6	;RP1=0, select bank0
  7442  16F0  1107               	bcf	(7),2	;volatile
  7443                           opt subtitle "HI-TECH Software Omniscient Code Generator (Lite mode) build 49521"
  7444                           
  7445  16F1  3000               	movlw	(0)
  7446  16F2  160A  118A  2648   	fcall	_SPI_Read_Reg
              160A  118A         
  7447  16F7  1283               	bcf	status, 5	;RP0=0, select bank0
  7448  16F8  1303               	bcf	status, 6	;RP1=0, select bank0
  7449  16F9  00A6               	movwf	(??_SwitchToTxMode+0)+0
  7450  16FA  0826               	movf	(??_SwitchToTxMode+0)+0,w
  7451  16FB  00A7               	movwf	(SwitchToTxMode@value)
  7452                           opt subtitle "HI-TECH Software Omniscient Code Generator (Lite mode) build 49521"
  7453                           
  7454  16FC                     l3228:	
  7455                           opt subtitle "HI-TECH Software Omniscient Code Generator (Lite mode) build 49521"
  7456  16FC  0827               	movf	(SwitchToTxMode@value),w
  7457  16FD  39FE               	andlw	0FEh
  7458  16FE  00A6               	movwf	(??_SwitchToTxMode+0)+0
  7459  16FF  0826               	movf	(??_SwitchToTxMode+0)+0,w
  7460  1700  00A7               	movwf	(SwitchToTxMode@value)
  7461                           opt subtitle "HI-TECH Software Omniscient Code Generator (Lite mode) build 49521"
  7462                           
  7463  1701                     l3230:	
  7464                           opt subtitle "HI-TECH Software Omniscient Code Generator (Lite mode) build 49521"
  7465  1701  0827               	movf	(SwitchToTxMode@value),w
  7466  1702  00A6               	movwf	(??_SwitchToTxMode+0)+0
  7467  1703  0826               	movf	(??_SwitchToTxMode+0)+0,w
  7468  1704  00A3               	movwf	(?_SPI_Write_Reg)
  7469  1705  3020               	movlw	(020h)
  7470  1706  160A  118A  25EB   	fcall	_SPI_Write_Reg
              160A  118A         
  7471                           opt subtitle "HI-TECH Software Omniscient Code Generator (Lite mode) build 49521"
  7472                           
  7473  170B                     l3232:	
  7474                           opt subtitle "HI-TECH Software Omniscient Code Generator (Lite mode) build 49521"
  7475  170B  1283               	bcf	status, 5	;RP0=0, select bank0
  7476  170C  1303               	bcf	status, 6	;RP1=0, select bank0
  7477  170D  1507               	bsf	(7),2	;volatile
  7478                           opt subtitle "HI-TECH Software Omniscient Code Generator (Lite mode) build 49521"
  7479                           
  7480  170E                     l344:	
  7481  170E  0008               	return
  7482                           opt subtitle "HI-TECH Software Omniscient Code Generator (Lite mode) build 49521"
  7483                           
  7484  170F                     	__end_of_SwitchToTxMode:
  7485                           opt subtitle "HI-TECH Software Omniscient Code Generator (Lite mode) build 49521"
  7486                           
  7487                           opt pagewidth 120
  7488                           
  7489                           	opt lm
  7490                           
  7491                           	processor	16LF707
  7492                           clrc	macro
  7493                           	bcf	3,0
  7494                           	endm
  7495                           clrz	macro
  7496                           	bcf	3,2
  7497                           	endm
  7498                           setc	macro
  7499                           	bsf	3,0
  7500                           	endm
  7501                           setz	macro
  7502                           	bsf	3,2
  7503                           	endm
  7504                           skipc	macro
  7505                           	btfss	3,0
  7506                           	endm
  7507                           skipz	macro
  7508                           	btfss	3,2
  7509                           	endm
  7510                           skipnc	macro
  7511                           	btfsc	3,0
  7512                           	endm
  7513                           skipnz	macro
  7514                           	btfsc	3,2
  7515                           	endm
  7516                           indf	equ	0
  7517                           indf0	equ	0
  7518                           pc	equ	2
  7519                           pcl	equ	2
  7520                           status	equ	3
  7521  1765                     __ptext772:	;psect for function _SwitchCFG
  7522                           opt subtitle "HI-TECH Software Omniscient Code Generator (Lite mode) build 49521"
  7523                           
  7524                           opt pagewidth 120
  7525                           
  7526  0032                     	__size_of_SwitchCFG	equ	__end_of_SwitchCFG-_SwitchCFG
  7527                           opt subtitle "HI-TECH Software Omniscient Code Generator (Lite mode) build 49521"
  7528  1765                     _SwitchCFG:	
  7529                           opt subtitle "HI-TECH Software Omniscient Code Generator (Lite mode) build 49521"
  7530                           
  7531                           opt pagewidth 120
  7532                           
  7533  1765  1283               	bcf	status, 5	;RP0=0, select bank0
  7534  1766  1303               	bcf	status, 6	;RP1=0, select bank0
  7535  1767  00A7               	movwf	(SwitchCFG@_cfg)
  7536                           opt subtitle "HI-TECH Software Omniscient Code Generator (Lite mode) build 49521"
  7537  1768                     l3374:	
  7538                           opt subtitle "HI-TECH Software Omniscient Code Generator (Lite mode) build 49521"
  7539                           
  7540  1768  3007               	movlw	(07h)
  7541  1769  160A  118A  2648   	fcall	_SPI_Read_Reg
              160A  118A         
  7542  176E  1283               	bcf	status, 5	;RP0=0, select bank0
  7543  176F  1303               	bcf	status, 6	;RP1=0, select bank0
  7544  1770  00A6               	movwf	(??_SwitchCFG+0)+0
  7545  1771  0826               	movf	(??_SwitchCFG+0)+0,w
  7546  1772  00A8               	movwf	(SwitchCFG@Tmp)
  7547                           opt subtitle "HI-TECH Software Omniscient Code Generator (Lite mode) build 49521"
  7548                           
  7549  1773                     l3376:	
  7550                           opt subtitle "HI-TECH Software Omniscient Code Generator (Lite mode) build 49521"
  7551  1773  0828               	movf	(SwitchCFG@Tmp),w
  7552  1774  3980               	andlw	080h
  7553  1775  00A6               	movwf	(??_SwitchCFG+0)+0
  7554  1776  0826               	movf	(??_SwitchCFG+0)+0,w
  7555  1777  00A8               	movwf	(SwitchCFG@Tmp)
  7556                           opt subtitle "HI-TECH Software Omniscient Code Generator (Lite mode) build 49521"
  7557                           
  7558  1778                     l3378:	
  7559                           opt subtitle "HI-TECH Software Omniscient Code Generator (Lite mode) build 49521"
  7560                           
  7561  1778  0828               	movf	(SwitchCFG@Tmp),w
  7562  1779  1D03               	skipz
  7563  177A  2F7C               	goto	u2670
  7564  177B  2F81               	goto	l3382
  7565  177C                     u2670:
  7566                           opt subtitle "HI-TECH Software Omniscient Code Generator (Lite mode) build 49521"
  7567  177C                     l3380:	
  7568  177C  0827               	movf	(SwitchCFG@_cfg),w
  7569  177D  1D03               	skipz
  7570  177E  2F80               	goto	u2680
  7571  177F  2F8B               	goto	l3386
  7572  1780                     u2680:
  7573  1780  2F81               	goto	l3382
  7574                           opt subtitle "HI-TECH Software Omniscient Code Generator (Lite mode) build 49521"
  7575  1781                     l351:	
  7576                           opt subtitle "HI-TECH Software Omniscient Code Generator (Lite mode) build 49521"
  7577  1781                     l3382:	
  7578  1781  08A8               	movf	(SwitchCFG@Tmp),f
  7579  1782  1D03               	skipz
  7580  1783  2F85               	goto	u2691
  7581  1784  2F86               	goto	u2690
  7582  1785                     u2691:
  7583  1785  2F96               	goto	l352
  7584  1786                     u2690:
  7585                           opt subtitle "HI-TECH Software Omniscient Code Generator (Lite mode) build 49521"
  7586  1786                     l3384:	
  7587  1786  0827               	movf	(SwitchCFG@_cfg),w
  7588  1787  1D03               	skipz
  7589  1788  2F8A               	goto	u2700
  7590  1789  2F96               	goto	l352
  7591  178A                     u2700:
  7592  178A  2F8B               	goto	l3386
  7593                           opt subtitle "HI-TECH Software Omniscient Code Generator (Lite mode) build 49521"
  7594  178B                     l349:	
  7595                           opt subtitle "HI-TECH Software Omniscient Code Generator (Lite mode) build 49521"
  7596                           
  7597  178B                     l3386:	
  7598                           opt subtitle "HI-TECH Software Omniscient Code Generator (Lite mode) build 49521"
  7599                           
  7600  178B  3053               	movlw	(053h)
  7601  178C  00A6               	movwf	(??_SwitchCFG+0)+0
  7602  178D  0826               	movf	(??_SwitchCFG+0)+0,w
  7603  178E  00A3               	movwf	(?_SPI_Write_Reg)
  7604  178F  3050               	movlw	(050h)
  7605  1790  160A  118A  25EB   	fcall	_SPI_Write_Reg
              160A  118A         
  7606  1795  2F96               	goto	l352
  7607                           opt subtitle "HI-TECH Software Omniscient Code Generator (Lite mode) build 49521"
  7608                           
  7609  1796                     l347:	
  7610                           opt subtitle "HI-TECH Software Omniscient Code Generator (Lite mode) build 49521"
  7611                           
  7612  1796                     l352:	
  7613  1796  0008               	return
  7614                           opt subtitle "HI-TECH Software Omniscient Code Generator (Lite mode) build 49521"
  7615                           
  7616  1797                     	__end_of_SwitchCFG:
  7617                           opt subtitle "HI-TECH Software Omniscient Code Generator (Lite mode) build 49521"
  7618                           
  7619                           opt pagewidth 120
  7620                           
  7621                           	opt lm
  7622                           
  7623                           	processor	16LF707
  7624                           clrc	macro
  7625                           	bcf	3,0
  7626                           	endm
  7627                           clrz	macro
  7628                           	bcf	3,2
  7629                           	endm
  7630                           setc	macro
  7631                           	bsf	3,0
  7632                           	endm
  7633                           setz	macro
  7634                           	bsf	3,2
  7635                           	endm
  7636                           skipc	macro
  7637                           	btfss	3,0
  7638                           	endm
  7639                           skipz	macro
  7640                           	btfss	3,2
  7641                           	endm
  7642                           skipnc	macro
  7643                           	btfsc	3,0
  7644                           	endm
  7645                           skipnz	macro
  7646                           	btfsc	3,2
  7647                           	endm
  7648                           indf	equ	0
  7649                           indf0	equ	0
  7650                           pc	equ	2
  7651                           pcl	equ	2
  7652                           status	equ	3
  7653                           fsr	equ	4
  7654                           fsr0	equ	4
  7655                           c	equ	1
  7656                           z	equ	0
  7657                           pclath	equ	10
  7658                           # 46 "/Applications/microchip/xc8/v1.12/include/pic16lf707.h"
  7659                           INDF equ 00h ;# 
  7660                           # 52 "/Applications/microchip/xc8/v1.12/include/pic16lf707.h"
  7661  15EB                     __ptext773:	;psect for function _SPI_Write_Reg
  7662                           opt subtitle "HI-TECH Software Omniscient Code Generator (Lite mode) build 49521"
  7663                           
  7664                           opt pagewidth 120
  7665                           
  7666  0016                     	__size_of_SPI_Write_Reg	equ	__end_of_SPI_Write_Reg-_SPI_Write_Reg
  7667                           opt subtitle "HI-TECH Software Omniscient Code Generator (Lite mode) build 49521"
  7668  15EB                     _SPI_Write_Reg:	
  7669                           opt subtitle "HI-TECH Software Omniscient Code Generator (Lite mode) build 49521"
  7670                           
  7671                           opt pagewidth 120
  7672  15EB  1283               	bcf	status, 5	;RP0=0, select bank0
  7673  15EC  1303               	bcf	status, 6	;RP1=0, select bank0
  7674  15ED  00A4               	movwf	(SPI_Write_Reg@reg)
  7675                           opt subtitle "HI-TECH Software Omniscient Code Generator (Lite mode) build 49521"
  7676                           
  7677  15EE                     l3362:	
  7678                           opt subtitle "HI-TECH Software Omniscient Code Generator (Lite mode) build 49521"
  7679  15EE  1108               	bcf	(8),2	;volatile
  7680                           opt subtitle "HI-TECH Software Omniscient Code Generator (Lite mode) build 49521"
  7681                           
  7682  15EF                     l3364:	
  7683                           opt subtitle "HI-TECH Software Omniscient Code Generator (Lite mode) build 49521"
  7684  15EF  0824               	movf	(SPI_Write_Reg@reg),w
  7685  15F0  160A  118A  262F   	fcall	_SPI_RW
              160A  118A         
  7686                           opt subtitle "HI-TECH Software Omniscient Code Generator (Lite mode) build 49521"
  7687                           
  7688  15F5  1283               	bcf	status, 5	;RP0=0, select bank0
  7689  15F6  1303               	bcf	status, 6	;RP1=0, select bank0
  7690  15F7  0823               	movf	(SPI_Write_Reg@value),w
  7691  15F8  160A  118A  262F   	fcall	_SPI_RW
              160A  118A         
  7692                           opt subtitle "HI-TECH Software Omniscient Code Generator (Lite mode) build 49521"
  7693                           
  7694  15FD                     l3366:	
  7695                           opt subtitle "HI-TECH Software Omniscient Code Generator (Lite mode) build 49521"
  7696  15FD  1283               	bcf	status, 5	;RP0=0, select bank0
  7697  15FE  1303               	bcf	status, 6	;RP1=0, select bank0
  7698  15FF  1508               	bsf	(8),2	;volatile
  7699                           opt subtitle "HI-TECH Software Omniscient Code Generator (Lite mode) build 49521"
  7700                           
  7701  1600                     l323:	
  7702  1600  0008               	return
  7703                           opt subtitle "HI-TECH Software Omniscient Code Generator (Lite mode) build 49521"
  7704                           
  7705  1601                     	__end_of_SPI_Write_Reg:
  7706                           opt subtitle "HI-TECH Software Omniscient Code Generator (Lite mode) build 49521"
  7707                           
  7708                           opt pagewidth 120
  7709                           
  7710                           	opt lm
  7711                           
  7712                           	processor	16LF707
  7713                           clrc	macro
  7714                           	bcf	3,0
  7715                           	endm
  7716                           clrz	macro
  7717                           	bcf	3,2
  7718                           	endm
  7719                           setc	macro
  7720                           	bsf	3,0
  7721                           	endm
  7722                           setz	macro
  7723                           	bsf	3,2
  7724                           	endm
  7725                           skipc	macro
  7726                           	btfss	3,0
  7727                           	endm
  7728                           skipz	macro
  7729                           	btfss	3,2
  7730                           	endm
  7731                           skipnc	macro
  7732                           	btfsc	3,0
  7733                           	endm
  7734                           skipnz	macro
  7735                           	btfsc	3,2
  7736                           	endm
  7737                           indf	equ	0
  7738                           indf0	equ	0
  7739                           pc	equ	2
  7740                           pcl	equ	2
  7741                           status	equ	3
  7742                           fsr	equ	4
  7743                           fsr0	equ	4
  7744                           c	equ	1
  7745                           z	equ	0
  7746                           pclath	equ	10
  7747                           # 46 "/Applications/microchip/xc8/v1.12/include/pic16lf707.h"
  7748                           INDF equ 00h ;# 
  7749                           # 52 "/Applications/microchip/xc8/v1.12/include/pic16lf707.h"
  7750  1648                     __ptext774:	;psect for function _SPI_Read_Reg
  7751                           opt subtitle "HI-TECH Software Omniscient Code Generator (Lite mode) build 49521"
  7752                           
  7753                           opt pagewidth 120
  7754                           
  7755  0019                     	__size_of_SPI_Read_Reg	equ	__end_of_SPI_Read_Reg-_SPI_Read_Reg
  7756                           opt subtitle "HI-TECH Software Omniscient Code Generator (Lite mode) build 49521"
  7757  1648                     _SPI_Read_Reg:	
  7758                           opt subtitle "HI-TECH Software Omniscient Code Generator (Lite mode) build 49521"
  7759                           
  7760                           opt pagewidth 120
  7761                           
  7762  1648  1283               	bcf	status, 5	;RP0=0, select bank0
  7763  1649  1303               	bcf	status, 6	;RP1=0, select bank0
  7764  164A  00A4               	movwf	(SPI_Read_Reg@reg)
  7765                           opt subtitle "HI-TECH Software Omniscient Code Generator (Lite mode) build 49521"
  7766  164B                     l3234:	
  7767                           opt subtitle "HI-TECH Software Omniscient Code Generator (Lite mode) build 49521"
  7768                           
  7769  164B  1108               	bcf	(8),2	;volatile
  7770                           opt subtitle "HI-TECH Software Omniscient Code Generator (Lite mode) build 49521"
  7771                           
  7772  164C                     l3236:	
  7773                           opt subtitle "HI-TECH Software Omniscient Code Generator (Lite mode) build 49521"
  7774  164C  0824               	movf	(SPI_Read_Reg@reg),w
  7775  164D  160A  118A  262F   	fcall	_SPI_RW
              160A  118A         
  7776                           opt subtitle "HI-TECH Software Omniscient Code Generator (Lite mode) build 49521"
  7777                           
  7778  1652                     l3238:	
  7779                           opt subtitle "HI-TECH Software Omniscient Code Generator (Lite mode) build 49521"
  7780  1652  3000               	movlw	(0)
  7781  1653  160A  118A  262F   	fcall	_SPI_RW
              160A  118A         
  7782  1658  1283               	bcf	status, 5	;RP0=0, select bank0
  7783  1659  1303               	bcf	status, 6	;RP1=0, select bank0
  7784  165A  00A3               	movwf	(??_SPI_Read_Reg+0)+0
  7785  165B  0823               	movf	(??_SPI_Read_Reg+0)+0,w
  7786  165C  00A5               	movwf	(SPI_Read_Reg@value)
  7787                           opt subtitle "HI-TECH Software Omniscient Code Generator (Lite mode) build 49521"
  7788                           
  7789  165D                     l3240:	
  7790                           opt subtitle "HI-TECH Software Omniscient Code Generator (Lite mode) build 49521"
  7791  165D  1508               	bsf	(8),2	;volatile
  7792                           opt subtitle "HI-TECH Software Omniscient Code Generator (Lite mode) build 49521"
  7793                           
  7794  165E                     l3242:	
  7795                           opt subtitle "HI-TECH Software Omniscient Code Generator (Lite mode) build 49521"
  7796  165E  0825               	movf	(SPI_Read_Reg@value),w
  7797  165F  2E60               	goto	l326
  7798                           opt subtitle "HI-TECH Software Omniscient Code Generator (Lite mode) build 49521"
  7799  1660                     l3244:	
  7800                           opt subtitle "HI-TECH Software Omniscient Code Generator (Lite mode) build 49521"
  7801                           
  7802  1660                     l326:	
  7803  1660  0008               	return
  7804                           opt subtitle "HI-TECH Software Omniscient Code Generator (Lite mode) build 49521"
  7805                           
  7806  1661                     	__end_of_SPI_Read_Reg:
  7807                           opt subtitle "HI-TECH Software Omniscient Code Generator (Lite mode) build 49521"
  7808                           
  7809                           opt pagewidth 120
  7810                           
  7811                           	opt lm
  7812                           
  7813                           	processor	16LF707
  7814                           clrc	macro
  7815                           	bcf	3,0
  7816                           	endm
  7817                           clrz	macro
  7818                           	bcf	3,2
  7819                           	endm
  7820                           setc	macro
  7821                           	bsf	3,0
  7822                           	endm
  7823                           setz	macro
  7824                           	bsf	3,2
  7825                           	endm
  7826                           skipc	macro
  7827                           	btfss	3,0
  7828                           	endm
  7829                           skipz	macro
  7830                           	btfss	3,2
  7831                           	endm
  7832                           skipnc	macro
  7833                           	btfsc	3,0
  7834                           	endm
  7835                           skipnz	macro
  7836                           	btfsc	3,2
  7837                           	endm
  7838                           indf	equ	0
  7839                           indf0	equ	0
  7840                           pc	equ	2
  7841                           pcl	equ	2
  7842                           status	equ	3
  7843                           fsr	equ	4
  7844  162F                     __ptext775:	;psect for function _SPI_RW
  7845                           opt subtitle "HI-TECH Software Omniscient Code Generator (Lite mode) build 49521"
  7846                           
  7847                           opt pagewidth 120
  7848                           
  7849  0019                     	__size_of_SPI_RW	equ	__end_of_SPI_RW-_SPI_RW
  7850                           opt subtitle "HI-TECH Software Omniscient Code Generator (Lite mode) build 49521"
  7851  162F                     _SPI_RW:	
  7852                           opt subtitle "HI-TECH Software Omniscient Code Generator (Lite mode) build 49521"
  7853                           
  7854                           opt pagewidth 120
  7855  162F  1283               	bcf	status, 5	;RP0=0, select bank0
  7856  1630  1303               	bcf	status, 6	;RP1=0, select bank0
  7857  1631  00A2               	movwf	(SPI_RW@value)
  7858                           opt subtitle "HI-TECH Software Omniscient Code Generator (Lite mode) build 49521"
  7859                           
  7860  1632                     l3368:	
  7861                           opt subtitle "HI-TECH Software Omniscient Code Generator (Lite mode) build 49521"
  7862  1632  0822               	movf	(SPI_RW@value),w
  7863  1633  0093               	movwf	(19)	;volatile
  7864                           opt subtitle "HI-TECH Software Omniscient Code Generator (Lite mode) build 49521"
  7865                           
  7866                           opt pagewidth 120
  7867  1634  3003               movlw	3
  7868  1635  00A1               movwf	((??_SPI_RW+0)+0+1),f
  7869  1636  3097               	movlw	151
  7870  1637  00A0               movwf	((??_SPI_RW+0)+0),f
  7871  1638                     u3557:
  7872  1638  0BA0               	decfsz	((??_SPI_RW+0)+0),f
  7873  1639  2E38               	goto	u3557
  7874  163A  0BA1               	decfsz	((??_SPI_RW+0)+0+1),f
  7875  163B  2E38               	goto	u3557
  7876  163C  2E3D               	nop2
  7877                           opt subtitle "HI-TECH Software Omniscient Code Generator (Lite mode) build 49521"
  7878                           
  7879                           opt pagewidth 120
  7880                           
  7881  163D  2E3E               	goto	l317
  7882                           opt subtitle "HI-TECH Software Omniscient Code Generator (Lite mode) build 49521"
  7883  163E                     l318:	
  7884                           opt subtitle "HI-TECH Software Omniscient Code Generator (Lite mode) build 49521"
  7885  163E                     l317:	
  7886  163E  1283               	bcf	status, 5	;RP0=0, select bank0
  7887  163F  1303               	bcf	status, 6	;RP1=0, select bank0
  7888  1640  1D8C               	btfss	(12),3	;volatile
  7889  1641  2E43               	goto	u2661
  7890  1642  2E44               	goto	u2660
  7891  1643                     u2661:
  7892  1643  2E3E               	goto	l317
  7893  1644                     u2660:
  7894  1644  2E45               	goto	l3370
  7895                           opt subtitle "HI-TECH Software Omniscient Code Generator (Lite mode) build 49521"
  7896  1645                     l319:	
  7897                           opt subtitle "HI-TECH Software Omniscient Code Generator (Lite mode) build 49521"
  7898                           
  7899  1645                     l3370:	
  7900                           opt subtitle "HI-TECH Software Omniscient Code Generator (Lite mode) build 49521"
  7901  1645  0813               	movf	(19),w	;volatile
  7902  1646  2E47               	goto	l320
  7903                           opt subtitle "HI-TECH Software Omniscient Code Generator (Lite mode) build 49521"
  7904  1647                     l3372:	
  7905                           opt subtitle "HI-TECH Software Omniscient Code Generator (Lite mode) build 49521"
  7906                           
  7907  1647                     l320:	
  7908  1647  0008               	return
  7909                           opt subtitle "HI-TECH Software Omniscient Code Generator (Lite mode) build 49521"
  7910                           
  7911  1648                     	__end_of_SPI_RW:
  7912                           opt subtitle "HI-TECH Software Omniscient Code Generator (Lite mode) build 49521"
  7913                           
  7914                           opt pagewidth 120
  7915                           
  7916                           	opt lm
  7917                           
  7918                           	processor	16LF707
  7919                           clrc	macro
  7920                           	bcf	3,0
  7921                           	endm
  7922                           clrz	macro
  7923                           	bcf	3,2
  7924                           	endm
  7925                           setc	macro
  7926                           	bsf	3,0
  7927                           	endm
  7928                           setz	macro
  7929                           	bsf	3,2
  7930                           	endm
  7931                           skipc	macro
  7932                           	btfss	3,0
  7933                           	endm
  7934                           skipz	macro
  7935                           	btfss	3,2
  7936                           	endm
  7937                           skipnc	macro
  7938                           	btfsc	3,0
  7939                           	endm
  7940                           skipnz	macro
  7941                           	btfsc	3,2
  7942                           	endm
  7943                           indf	equ	0
  7944                           indf0	equ	0
  7945                           pc	equ	2
  7946                           pcl	equ	2
  7947                           status	equ	3
  7948                           fsr	equ	4
  7949                           fsr0	equ	4
  7950  0E12                     __ptext776:	;psect for function ___ftmul
  7951                           opt subtitle "HI-TECH Software Omniscient Code Generator (Lite mode) build 49521"
  7952                           
  7953                           opt pagewidth 120
  7954                           
  7955  00EE                     	__size_of___ftmul	equ	__end_of___ftmul-___ftmul
  7956                           opt subtitle "HI-TECH Software Omniscient Code Generator (Lite mode) build 49521"
  7957  0E12                     ___ftmul:	
  7958                           opt subtitle "HI-TECH Software Omniscient Code Generator (Lite mode) build 49521"
  7959                           
  7960                           opt pagewidth 120
  7961                           
  7962  0E12                     l3530:	
  7963  0E12  1283               	bcf	status, 5	;RP0=0, select bank0
  7964  0E13  1303               	bcf	status, 6	;RP1=0, select bank0
  7965  0E14  0828               	movf	(___ftmul@f1),w
  7966  0E15  00AE               	movwf	((??___ftmul+0)+0)
  7967  0E16  0829               	movf	(___ftmul@f1+1),w
  7968  0E17  00AF               	movwf	((??___ftmul+0)+0+1)
  7969  0E18  082A               	movf	(___ftmul@f1+2),w
  7970  0E19  00B0               	movwf	((??___ftmul+0)+0+2)
  7971  0E1A  1003               	clrc
  7972  0E1B  0D2F               	rlf	(??___ftmul+0)+1,w
  7973  0E1C  0D30               	rlf	(??___ftmul+0)+2,w
  7974  0E1D  00B1               	movwf	(??___ftmul+3)+0
  7975  0E1E  0831               	movf	(??___ftmul+3)+0,w
  7976  0E1F  00B2               	movwf	(___ftmul@exp)
  7977  0E20  08B2               	movf	((___ftmul@exp)),f
  7978  0E21  1D03               	skipz
  7979  0E22  2E24               	goto	u3081
  7980  0E23  2E25               	goto	u3080
  7981  0E24                     u3081:
  7982  0E24  2E2D               	goto	l3536
  7983  0E25                     u3080:
  7984                           opt subtitle "HI-TECH Software Omniscient Code Generator (Lite mode) build 49521"
  7985                           
  7986  0E25                     l3532:	
  7987  0E25  3000               	movlw	0x0
  7988  0E26  00A8               	movwf	(?___ftmul)
  7989  0E27  3000               	movlw	0x0
  7990  0E28  00A9               	movwf	(?___ftmul+1)
  7991  0E29  3000               	movlw	0x0
  7992  0E2A  00AA               	movwf	(?___ftmul+2)
  7993  0E2B  2EFF               	goto	l561
  7994                           opt subtitle "HI-TECH Software Omniscient Code Generator (Lite mode) build 49521"
  7995  0E2C                     l3534:	
  7996  0E2C  2EFF               	goto	l561
  7997                           opt subtitle "HI-TECH Software Omniscient Code Generator (Lite mode) build 49521"
  7998  0E2D                     l560:	
  7999                           opt subtitle "HI-TECH Software Omniscient Code Generator (Lite mode) build 49521"
  8000                           
  8001  0E2D                     l3536:	
  8002  0E2D  082B               	movf	(___ftmul@f2),w
  8003  0E2E  00AE               	movwf	((??___ftmul+0)+0)
  8004  0E2F  082C               	movf	(___ftmul@f2+1),w
  8005  0E30  00AF               	movwf	((??___ftmul+0)+0+1)
  8006  0E31  082D               	movf	(___ftmul@f2+2),w
  8007  0E32  00B0               	movwf	((??___ftmul+0)+0+2)
  8008  0E33  1003               	clrc
  8009  0E34  0D2F               	rlf	(??___ftmul+0)+1,w
  8010  0E35  0D30               	rlf	(??___ftmul+0)+2,w
  8011  0E36  00B1               	movwf	(??___ftmul+3)+0
  8012  0E37  0831               	movf	(??___ftmul+3)+0,w
  8013  0E38  00B7               	movwf	(___ftmul@sign)
  8014  0E39  08B7               	movf	((___ftmul@sign)),f
  8015  0E3A  1D03               	skipz
  8016  0E3B  2E3D               	goto	u3091
  8017  0E3C  2E3E               	goto	u3090
  8018  0E3D                     u3091:
  8019  0E3D  2E46               	goto	l3542
  8020  0E3E                     u3090:
  8021                           opt subtitle "HI-TECH Software Omniscient Code Generator (Lite mode) build 49521"
  8022                           
  8023  0E3E                     l3538:	
  8024  0E3E  3000               	movlw	0x0
  8025  0E3F  00A8               	movwf	(?___ftmul)
  8026  0E40  3000               	movlw	0x0
  8027  0E41  00A9               	movwf	(?___ftmul+1)
  8028  0E42  3000               	movlw	0x0
  8029  0E43  00AA               	movwf	(?___ftmul+2)
  8030  0E44  2EFF               	goto	l561
  8031                           opt subtitle "HI-TECH Software Omniscient Code Generator (Lite mode) build 49521"
  8032  0E45                     l3540:	
  8033  0E45  2EFF               	goto	l561
  8034                           opt subtitle "HI-TECH Software Omniscient Code Generator (Lite mode) build 49521"
  8035  0E46                     l562:	
  8036                           opt subtitle "HI-TECH Software Omniscient Code Generator (Lite mode) build 49521"
  8037                           
  8038  0E46                     l3542:	
  8039  0E46  0837               	movf	(___ftmul@sign),w
  8040  0E47  3E7B               	addlw	07Bh
  8041  0E48  00AE               	movwf	(??___ftmul+0)+0
  8042  0E49  082E               	movf	(??___ftmul+0)+0,w
  8043  0E4A  07B2               	addwf	(___ftmul@exp),f
  8044                           opt subtitle "HI-TECH Software Omniscient Code Generator (Lite mode) build 49521"
  8045  0E4B  0828               	movf	(___ftmul@f1),w
  8046  0E4C  00AE               	movwf	((??___ftmul+0)+0)
  8047  0E4D  0829               	movf	(___ftmul@f1+1),w
  8048  0E4E  00AF               	movwf	((??___ftmul+0)+0+1)
  8049  0E4F  082A               	movf	(___ftmul@f1+2),w
  8050  0E50  00B0               	movwf	((??___ftmul+0)+0+2)
  8051  0E51  3010               	movlw	010h
  8052  0E52                     u3105:
  8053  0E52  1003               	clrc
  8054  0E53  0CB0               	rrf	(??___ftmul+0)+2,f
  8055  0E54  0CAF               	rrf	(??___ftmul+0)+1,f
  8056  0E55  0CAE               	rrf	(??___ftmul+0)+0,f
  8057  0E56                     u3100:
  8058  0E56  3EFF               	addlw	-1
  8059  0E57  1D03               	skipz
  8060  0E58  2E52               	goto	u3105
  8061  0E59  082E               	movf	0+(??___ftmul+0)+0,w
  8062  0E5A  00B1               	movwf	(??___ftmul+3)+0
  8063  0E5B  0831               	movf	(??___ftmul+3)+0,w
  8064  0E5C  00B7               	movwf	(___ftmul@sign)
  8065                           opt subtitle "HI-TECH Software Omniscient Code Generator (Lite mode) build 49521"
  8066  0E5D  082B               	movf	(___ftmul@f2),w
  8067  0E5E  00AE               	movwf	((??___ftmul+0)+0)
  8068  0E5F  082C               	movf	(___ftmul@f2+1),w
  8069  0E60  00AF               	movwf	((??___ftmul+0)+0+1)
  8070  0E61  082D               	movf	(___ftmul@f2+2),w
  8071  0E62  00B0               	movwf	((??___ftmul+0)+0+2)
  8072  0E63  3010               	movlw	010h
  8073  0E64                     u3115:
  8074  0E64  1003               	clrc
  8075  0E65  0CB0               	rrf	(??___ftmul+0)+2,f
  8076  0E66  0CAF               	rrf	(??___ftmul+0)+1,f
  8077  0E67  0CAE               	rrf	(??___ftmul+0)+0,f
  8078  0E68                     u3110:
  8079  0E68  3EFF               	addlw	-1
  8080  0E69  1D03               	skipz
  8081  0E6A  2E64               	goto	u3115
  8082  0E6B  082E               	movf	0+(??___ftmul+0)+0,w
  8083  0E6C  00B1               	movwf	(??___ftmul+3)+0
  8084  0E6D  0831               	movf	(??___ftmul+3)+0,w
  8085  0E6E  06B7               	xorwf	(___ftmul@sign),f
  8086                           opt subtitle "HI-TECH Software Omniscient Code Generator (Lite mode) build 49521"
  8087  0E6F  3080               	movlw	(080h)
  8088  0E70  00AE               	movwf	(??___ftmul+0)+0
  8089  0E71  082E               	movf	(??___ftmul+0)+0,w
  8090  0E72  05B7               	andwf	(___ftmul@sign),f
  8091                           opt subtitle "HI-TECH Software Omniscient Code Generator (Lite mode) build 49521"
  8092                           
  8093  0E73                     l3544:	
  8094  0E73  17A9               	bsf	(___ftmul@f1)+(15/8),(15)&7
  8095                           opt subtitle "HI-TECH Software Omniscient Code Generator (Lite mode) build 49521"
  8096                           
  8097  0E74                     l3546:	
  8098  0E74  17AC               	bsf	(___ftmul@f2)+(15/8),(15)&7
  8099                           opt subtitle "HI-TECH Software Omniscient Code Generator (Lite mode) build 49521"
  8100                           
  8101  0E75                     l3548:	
  8102  0E75  30FF               	movlw	0FFh
  8103  0E76  05AB               	andwf	(___ftmul@f2),f
  8104  0E77  30FF               	movlw	0FFh
  8105  0E78  05AC               	andwf	(___ftmul@f2+1),f
  8106  0E79  3000               	movlw	0
  8107  0E7A  05AD               	andwf	(___ftmul@f2+2),f
  8108                           opt subtitle "HI-TECH Software Omniscient Code Generator (Lite mode) build 49521"
  8109                           
  8110  0E7B                     l3550:	
  8111  0E7B  3000               	movlw	0
  8112  0E7C  00B3               	movwf	(___ftmul@f3_as_product)
  8113  0E7D  3000               	movlw	0
  8114  0E7E  00B4               	movwf	(___ftmul@f3_as_product+1)
  8115  0E7F  3000               	movlw	0
  8116  0E80  00B5               	movwf	(___ftmul@f3_as_product+2)
  8117                           opt subtitle "HI-TECH Software Omniscient Code Generator (Lite mode) build 49521"
  8118                           
  8119  0E81                     l3552:	
  8120  0E81  3007               	movlw	(07h)
  8121  0E82  00AE               	movwf	(??___ftmul+0)+0
  8122  0E83  082E               	movf	(??___ftmul+0)+0,w
  8123  0E84  00B6               	movwf	(___ftmul@cntr)
  8124  0E85  2E86               	goto	l3554
  8125                           opt subtitle "HI-TECH Software Omniscient Code Generator (Lite mode) build 49521"
  8126                           
  8127  0E86                     l563:	
  8128                           opt subtitle "HI-TECH Software Omniscient Code Generator (Lite mode) build 49521"
  8129                           
  8130  0E86                     l3554:	
  8131  0E86  1C28               	btfss	(___ftmul@f1),(0)&7
  8132  0E87  2E89               	goto	u3121
  8133  0E88  2E8A               	goto	u3120
  8134  0E89                     u3121:
  8135  0E89  2E9B               	goto	l3558
  8136  0E8A                     u3120:
  8137                           opt subtitle "HI-TECH Software Omniscient Code Generator (Lite mode) build 49521"
  8138                           
  8139  0E8A                     l3556:	
  8140  0E8A  082B               	movf	(___ftmul@f2),w
  8141  0E8B  07B3               	addwf	(___ftmul@f3_as_product),f
  8142  0E8C  082C               	movf	(___ftmul@f2+1),w
  8143  0E8D  1103               	clrz
  8144  0E8E  1803               	skipnc
  8145  0E8F  0A2C               	incf	(___ftmul@f2+1),w
  8146  0E90  1903               	skipnz
  8147  0E91  2E93               	goto	u3131
  8148  0E92  07B4               	addwf	(___ftmul@f3_as_product+1),f
  8149  0E93                     u3131:
  8150  0E93  082D               	movf	(___ftmul@f2+2),w
  8151  0E94  1103               	clrz
  8152  0E95  1803               	skipnc
  8153  0E96  0A2D               	incf	(___ftmul@f2+2),w
  8154  0E97  1903               	skipnz
  8155  0E98  2E9A               	goto	u3132
  8156  0E99  07B5               	addwf	(___ftmul@f3_as_product+2),f
  8157  0E9A                     u3132:
  8158                           opt subtitle "HI-TECH Software Omniscient Code Generator (Lite mode) build 49521"
  8159  0E9A  2E9B               	goto	l3558
  8160                           opt subtitle "HI-TECH Software Omniscient Code Generator (Lite mode) build 49521"
  8161  0E9B                     l564:	
  8162                           opt subtitle "HI-TECH Software Omniscient Code Generator (Lite mode) build 49521"
  8163                           
  8164  0E9B                     l3558:	
  8165  0E9B  3001               	movlw	01h
  8166  0E9C                     u3145:
  8167  0E9C  1003               	clrc
  8168  0E9D  0CAA               	rrf	(___ftmul@f1+2),f
  8169  0E9E  0CA9               	rrf	(___ftmul@f1+1),f
  8170  0E9F  0CA8               	rrf	(___ftmul@f1),f
  8171  0EA0  3EFF               	addlw	-1
  8172  0EA1  1D03               	skipz
  8173  0EA2  2E9C               	goto	u3145
  8174                           opt subtitle "HI-TECH Software Omniscient Code Generator (Lite mode) build 49521"
  8175                           
  8176                           opt pagewidth 120
  8177  0EA3                     l3560:	
  8178  0EA3  3001               	movlw	01h
  8179  0EA4                     u3155:
  8180  0EA4  1003               	clrc
  8181  0EA5  0DAB               	rlf	(___ftmul@f2),f
  8182  0EA6  0DAC               	rlf	(___ftmul@f2+1),f
  8183  0EA7  0DAD               	rlf	(___ftmul@f2+2),f
  8184  0EA8  3EFF               	addlw	-1
  8185  0EA9  1D03               	skipz
  8186  0EAA  2EA4               	goto	u3155
  8187                           opt subtitle "HI-TECH Software Omniscient Code Generator (Lite mode) build 49521"
  8188                           
  8189  0EAB                     l3562:	
  8190  0EAB  3001               	movlw	low(01h)
  8191  0EAC  02B6               	subwf	(___ftmul@cntr),f
  8192  0EAD  1D03               	btfss	status,2
  8193  0EAE  2EB0               	goto	u3161
  8194  0EAF  2EB1               	goto	u3160
  8195  0EB0                     u3161:
  8196  0EB0  2E86               	goto	l3554
  8197  0EB1                     u3160:
  8198  0EB1  2EB2               	goto	l3564
  8199                           opt subtitle "HI-TECH Software Omniscient Code Generator (Lite mode) build 49521"
  8200  0EB2                     l565:	
  8201                           opt subtitle "HI-TECH Software Omniscient Code Generator (Lite mode) build 49521"
  8202                           
  8203  0EB2                     l3564:	
  8204  0EB2  3009               	movlw	(09h)
  8205  0EB3  00AE               	movwf	(??___ftmul+0)+0
  8206  0EB4  082E               	movf	(??___ftmul+0)+0,w
  8207  0EB5  00B6               	movwf	(___ftmul@cntr)
  8208  0EB6  2EB7               	goto	l3566
  8209                           opt subtitle "HI-TECH Software Omniscient Code Generator (Lite mode) build 49521"
  8210                           
  8211  0EB7                     l566:	
  8212                           opt subtitle "HI-TECH Software Omniscient Code Generator (Lite mode) build 49521"
  8213                           
  8214  0EB7                     l3566:	
  8215  0EB7  1C28               	btfss	(___ftmul@f1),(0)&7
  8216  0EB8  2EBA               	goto	u3171
  8217  0EB9  2EBB               	goto	u3170
  8218  0EBA                     u3171:
  8219  0EBA  2ECC               	goto	l3570
  8220  0EBB                     u3170:
  8221                           opt subtitle "HI-TECH Software Omniscient Code Generator (Lite mode) build 49521"
  8222                           
  8223  0EBB                     l3568:	
  8224  0EBB  082B               	movf	(___ftmul@f2),w
  8225  0EBC  07B3               	addwf	(___ftmul@f3_as_product),f
  8226  0EBD  082C               	movf	(___ftmul@f2+1),w
  8227  0EBE  1103               	clrz
  8228  0EBF  1803               	skipnc
  8229  0EC0  0A2C               	incf	(___ftmul@f2+1),w
  8230  0EC1  1903               	skipnz
  8231  0EC2  2EC4               	goto	u3181
  8232  0EC3  07B4               	addwf	(___ftmul@f3_as_product+1),f
  8233  0EC4                     u3181:
  8234  0EC4  082D               	movf	(___ftmul@f2+2),w
  8235  0EC5  1103               	clrz
  8236  0EC6  1803               	skipnc
  8237  0EC7  0A2D               	incf	(___ftmul@f2+2),w
  8238  0EC8  1903               	skipnz
  8239  0EC9  2ECB               	goto	u3182
  8240  0ECA  07B5               	addwf	(___ftmul@f3_as_product+2),f
  8241  0ECB                     u3182:
  8242                           opt subtitle "HI-TECH Software Omniscient Code Generator (Lite mode) build 49521"
  8243  0ECB  2ECC               	goto	l3570
  8244                           opt subtitle "HI-TECH Software Omniscient Code Generator (Lite mode) build 49521"
  8245  0ECC                     l567:	
  8246                           opt subtitle "HI-TECH Software Omniscient Code Generator (Lite mode) build 49521"
  8247                           
  8248  0ECC                     l3570:	
  8249  0ECC  3001               	movlw	01h
  8250  0ECD                     u3195:
  8251  0ECD  1003               	clrc
  8252  0ECE  0CAA               	rrf	(___ftmul@f1+2),f
  8253  0ECF  0CA9               	rrf	(___ftmul@f1+1),f
  8254  0ED0  0CA8               	rrf	(___ftmul@f1),f
  8255  0ED1  3EFF               	addlw	-1
  8256  0ED2  1D03               	skipz
  8257  0ED3  2ECD               	goto	u3195
  8258                           opt subtitle "HI-TECH Software Omniscient Code Generator (Lite mode) build 49521"
  8259                           
  8260                           opt pagewidth 120
  8261  0ED4                     l3572:	
  8262  0ED4  3001               	movlw	01h
  8263  0ED5                     u3205:
  8264  0ED5  1003               	clrc
  8265  0ED6  0CB5               	rrf	(___ftmul@f3_as_product+2),f
  8266  0ED7  0CB4               	rrf	(___ftmul@f3_as_product+1),f
  8267  0ED8  0CB3               	rrf	(___ftmul@f3_as_product),f
  8268  0ED9  3EFF               	addlw	-1
  8269  0EDA  1D03               	skipz
  8270  0EDB  2ED5               	goto	u3205
  8271                           opt subtitle "HI-TECH Software Omniscient Code Generator (Lite mode) build 49521"
  8272                           
  8273                           opt pagewidth 120
  8274  0EDC                     l3574:	
  8275  0EDC  3001               	movlw	low(01h)
  8276  0EDD  02B6               	subwf	(___ftmul@cntr),f
  8277  0EDE  1D03               	btfss	status,2
  8278  0EDF  2EE1               	goto	u3211
  8279  0EE0  2EE2               	goto	u3210
  8280  0EE1                     u3211:
  8281  0EE1  2EB7               	goto	l3566
  8282  0EE2                     u3210:
  8283  0EE2  2EE3               	goto	l3576
  8284                           opt subtitle "HI-TECH Software Omniscient Code Generator (Lite mode) build 49521"
  8285  0EE3                     l568:	
  8286                           opt subtitle "HI-TECH Software Omniscient Code Generator (Lite mode) build 49521"
  8287                           
  8288  0EE3                     l3576:	
  8289  0EE3  0833               	movf	(___ftmul@f3_as_product),w
  8290  0EE4  00A0               	movwf	(?___ftpack)
  8291  0EE5  0834               	movf	(___ftmul@f3_as_product+1),w
  8292  0EE6  00A1               	movwf	(?___ftpack+1)
  8293  0EE7  0835               	movf	(___ftmul@f3_as_product+2),w
  8294  0EE8  00A2               	movwf	(?___ftpack+2)
  8295  0EE9  0832               	movf	(___ftmul@exp),w
  8296  0EEA  00AE               	movwf	(??___ftmul+0)+0
  8297  0EEB  082E               	movf	(??___ftmul+0)+0,w
  8298  0EEC  00A3               	movwf	0+(?___ftpack)+03h
  8299  0EED  0837               	movf	(___ftmul@sign),w
  8300  0EEE  00AF               	movwf	(??___ftmul+1)+0
  8301  0EEF  082F               	movf	(??___ftmul+1)+0,w
  8302  0EF0  00A4               	movwf	0+(?___ftpack)+04h
  8303  0EF1  120A  158A  22A8   	fcall	___ftpack
              120A  158A         
  8304  0EF6  1283               	bcf	status, 5	;RP0=0, select bank0
  8305  0EF7  1303               	bcf	status, 6	;RP1=0, select bank0
  8306  0EF8  0820               	movf	(0+(?___ftpack)),w
  8307  0EF9  00A8               	movwf	(?___ftmul)
  8308  0EFA  0821               	movf	(1+(?___ftpack)),w
  8309  0EFB  00A9               	movwf	(?___ftmul+1)
  8310  0EFC  0822               	movf	(2+(?___ftpack)),w
  8311  0EFD  00AA               	movwf	(?___ftmul+2)
  8312  0EFE  2EFF               	goto	l561
  8313                           opt subtitle "HI-TECH Software Omniscient Code Generator (Lite mode) build 49521"
  8314  0EFF                     l3578:	
  8315                           opt subtitle "HI-TECH Software Omniscient Code Generator (Lite mode) build 49521"
  8316                           
  8317  0EFF                     l561:	
  8318  0EFF  0008               	return
  8319                           opt subtitle "HI-TECH Software Omniscient Code Generator (Lite mode) build 49521"
  8320                           
  8321  0F00                     	__end_of___ftmul:
  8322                           opt subtitle "HI-TECH Software Omniscient Code Generator (Lite mode) build 49521"
  8323                           
  8324                           opt pagewidth 120
  8325                           
  8326                           	opt lm
  8327                           
  8328                           	processor	16LF707
  8329                           clrc	macro
  8330                           	bcf	3,0
  8331                           	endm
  8332                           clrz	macro
  8333                           	bcf	3,2
  8334                           	endm
  8335                           setc	macro
  8336                           	bsf	3,0
  8337                           	endm
  8338                           setz	macro
  8339                           	bsf	3,2
  8340                           	endm
  8341                           skipc	macro
  8342                           	btfss	3,0
  8343                           	endm
  8344                           skipz	macro
  8345                           	btfss	3,2
  8346                           	endm
  8347                           skipnc	macro
  8348                           	btfsc	3,0
  8349                           	endm
  8350                           skipnz	macro
  8351                           	btfsc	3,2
  8352                           	endm
  8353                           indf	equ	0
  8354                           indf0	equ	0
  8355                           pc	equ	2
  8356                           pcl	equ	2
  8357                           status	equ	3
  8358                           fsr	equ	4
  8359                           fsr0	equ	4
  8360  0D4A                     __ptext777:	;psect for function ___ftdiv
  8361                           opt subtitle "HI-TECH Software Omniscient Code Generator (Lite mode) build 49521"
  8362                           
  8363                           opt pagewidth 120
  8364                           
  8365  00C8                     	__size_of___ftdiv	equ	__end_of___ftdiv-___ftdiv
  8366                           opt subtitle "HI-TECH Software Omniscient Code Generator (Lite mode) build 49521"
  8367  0D4A                     ___ftdiv:	
  8368                           opt subtitle "HI-TECH Software Omniscient Code Generator (Lite mode) build 49521"
  8369                           
  8370                           opt pagewidth 120
  8371                           
  8372  0D4A                     l3488:	
  8373  0D4A  1283               	bcf	status, 5	;RP0=0, select bank0
  8374  0D4B  1303               	bcf	status, 6	;RP1=0, select bank0
  8375  0D4C  082B               	movf	(___ftdiv@f1),w
  8376  0D4D  00AE               	movwf	((??___ftdiv+0)+0)
  8377  0D4E  082C               	movf	(___ftdiv@f1+1),w
  8378  0D4F  00AF               	movwf	((??___ftdiv+0)+0+1)
  8379  0D50  082D               	movf	(___ftdiv@f1+2),w
  8380  0D51  00B0               	movwf	((??___ftdiv+0)+0+2)
  8381  0D52  1003               	clrc
  8382  0D53  0D2F               	rlf	(??___ftdiv+0)+1,w
  8383  0D54  0D30               	rlf	(??___ftdiv+0)+2,w
  8384  0D55  00B1               	movwf	(??___ftdiv+3)+0
  8385  0D56  0831               	movf	(??___ftdiv+3)+0,w
  8386  0D57  00B6               	movwf	(___ftdiv@exp)
  8387  0D58  08B6               	movf	((___ftdiv@exp)),f
  8388  0D59  1D03               	skipz
  8389  0D5A  2D5C               	goto	u3001
  8390  0D5B  2D5D               	goto	u3000
  8391  0D5C                     u3001:
  8392  0D5C  2D65               	goto	l3494
  8393  0D5D                     u3000:
  8394                           opt subtitle "HI-TECH Software Omniscient Code Generator (Lite mode) build 49521"
  8395                           
  8396  0D5D                     l3490:	
  8397  0D5D  3000               	movlw	0x0
  8398  0D5E  00A8               	movwf	(?___ftdiv)
  8399  0D5F  3000               	movlw	0x0
  8400  0D60  00A9               	movwf	(?___ftdiv+1)
  8401  0D61  3000               	movlw	0x0
  8402  0D62  00AA               	movwf	(?___ftdiv+2)
  8403  0D63  2E11               	goto	l551
  8404                           opt subtitle "HI-TECH Software Omniscient Code Generator (Lite mode) build 49521"
  8405  0D64                     l3492:	
  8406  0D64  2E11               	goto	l551
  8407                           opt subtitle "HI-TECH Software Omniscient Code Generator (Lite mode) build 49521"
  8408  0D65                     l550:	
  8409                           opt subtitle "HI-TECH Software Omniscient Code Generator (Lite mode) build 49521"
  8410                           
  8411  0D65                     l3494:	
  8412  0D65  0828               	movf	(___ftdiv@f2),w
  8413  0D66  00AE               	movwf	((??___ftdiv+0)+0)
  8414  0D67  0829               	movf	(___ftdiv@f2+1),w
  8415  0D68  00AF               	movwf	((??___ftdiv+0)+0+1)
  8416  0D69  082A               	movf	(___ftdiv@f2+2),w
  8417  0D6A  00B0               	movwf	((??___ftdiv+0)+0+2)
  8418  0D6B  1003               	clrc
  8419  0D6C  0D2F               	rlf	(??___ftdiv+0)+1,w
  8420  0D6D  0D30               	rlf	(??___ftdiv+0)+2,w
  8421  0D6E  00B1               	movwf	(??___ftdiv+3)+0
  8422  0D6F  0831               	movf	(??___ftdiv+3)+0,w
  8423  0D70  00B7               	movwf	(___ftdiv@sign)
  8424  0D71  08B7               	movf	((___ftdiv@sign)),f
  8425  0D72  1D03               	skipz
  8426  0D73  2D75               	goto	u3011
  8427  0D74  2D76               	goto	u3010
  8428  0D75                     u3011:
  8429  0D75  2D7E               	goto	l3500
  8430  0D76                     u3010:
  8431                           opt subtitle "HI-TECH Software Omniscient Code Generator (Lite mode) build 49521"
  8432                           
  8433  0D76                     l3496:	
  8434  0D76  3000               	movlw	0x0
  8435  0D77  00A8               	movwf	(?___ftdiv)
  8436  0D78  3000               	movlw	0x0
  8437  0D79  00A9               	movwf	(?___ftdiv+1)
  8438  0D7A  3000               	movlw	0x0
  8439  0D7B  00AA               	movwf	(?___ftdiv+2)
  8440  0D7C  2E11               	goto	l551
  8441                           opt subtitle "HI-TECH Software Omniscient Code Generator (Lite mode) build 49521"
  8442  0D7D                     l3498:	
  8443  0D7D  2E11               	goto	l551
  8444                           opt subtitle "HI-TECH Software Omniscient Code Generator (Lite mode) build 49521"
  8445  0D7E                     l552:	
  8446                           opt subtitle "HI-TECH Software Omniscient Code Generator (Lite mode) build 49521"
  8447                           
  8448  0D7E                     l3500:	
  8449  0D7E  3000               	movlw	0
  8450  0D7F  00B3               	movwf	(___ftdiv@f3)
  8451  0D80  3000               	movlw	0
  8452  0D81  00B4               	movwf	(___ftdiv@f3+1)
  8453  0D82  3000               	movlw	0
  8454  0D83  00B5               	movwf	(___ftdiv@f3+2)
  8455                           opt subtitle "HI-TECH Software Omniscient Code Generator (Lite mode) build 49521"
  8456                           
  8457  0D84                     l3502:	
  8458  0D84  3089               	movlw	(089h)
  8459  0D85  0737               	addwf	(___ftdiv@sign),w
  8460  0D86  00AE               	movwf	(??___ftdiv+0)+0
  8461  0D87  082E               	movf	0+(??___ftdiv+0)+0,w
  8462  0D88  02B6               	subwf	(___ftdiv@exp),f
  8463                           opt subtitle "HI-TECH Software Omniscient Code Generator (Lite mode) build 49521"
  8464                           
  8465  0D89                     l3504:	
  8466  0D89  082B               	movf	(___ftdiv@f1),w
  8467  0D8A  00AE               	movwf	((??___ftdiv+0)+0)
  8468  0D8B  082C               	movf	(___ftdiv@f1+1),w
  8469  0D8C  00AF               	movwf	((??___ftdiv+0)+0+1)
  8470  0D8D  082D               	movf	(___ftdiv@f1+2),w
  8471  0D8E  00B0               	movwf	((??___ftdiv+0)+0+2)
  8472  0D8F  3010               	movlw	010h
  8473  0D90                     u3025:
  8474  0D90  1003               	clrc
  8475  0D91  0CB0               	rrf	(??___ftdiv+0)+2,f
  8476  0D92  0CAF               	rrf	(??___ftdiv+0)+1,f
  8477  0D93  0CAE               	rrf	(??___ftdiv+0)+0,f
  8478  0D94                     u3020:
  8479  0D94  3EFF               	addlw	-1
  8480  0D95  1D03               	skipz
  8481  0D96  2D90               	goto	u3025
  8482  0D97  082E               	movf	0+(??___ftdiv+0)+0,w
  8483  0D98  00B1               	movwf	(??___ftdiv+3)+0
  8484  0D99  0831               	movf	(??___ftdiv+3)+0,w
  8485  0D9A  00B7               	movwf	(___ftdiv@sign)
  8486                           opt subtitle "HI-TECH Software Omniscient Code Generator (Lite mode) build 49521"
  8487                           
  8488  0D9B                     l3506:	
  8489  0D9B  0828               	movf	(___ftdiv@f2),w
  8490  0D9C  00AE               	movwf	((??___ftdiv+0)+0)
  8491  0D9D  0829               	movf	(___ftdiv@f2+1),w
  8492  0D9E  00AF               	movwf	((??___ftdiv+0)+0+1)
  8493  0D9F  082A               	movf	(___ftdiv@f2+2),w
  8494  0DA0  00B0               	movwf	((??___ftdiv+0)+0+2)
  8495  0DA1  3010               	movlw	010h
  8496  0DA2                     u3035:
  8497  0DA2  1003               	clrc
  8498  0DA3  0CB0               	rrf	(??___ftdiv+0)+2,f
  8499  0DA4  0CAF               	rrf	(??___ftdiv+0)+1,f
  8500  0DA5  0CAE               	rrf	(??___ftdiv+0)+0,f
  8501  0DA6                     u3030:
  8502  0DA6  3EFF               	addlw	-1
  8503  0DA7  1D03               	skipz
  8504  0DA8  2DA2               	goto	u3035
  8505  0DA9  082E               	movf	0+(??___ftdiv+0)+0,w
  8506  0DAA  00B1               	movwf	(??___ftdiv+3)+0
  8507  0DAB  0831               	movf	(??___ftdiv+3)+0,w
  8508  0DAC  06B7               	xorwf	(___ftdiv@sign),f
  8509                           opt subtitle "HI-TECH Software Omniscient Code Generator (Lite mode) build 49521"
  8510                           
  8511  0DAD                     l3508:	
  8512  0DAD  3080               	movlw	(080h)
  8513  0DAE  00AE               	movwf	(??___ftdiv+0)+0
  8514  0DAF  082E               	movf	(??___ftdiv+0)+0,w
  8515  0DB0  05B7               	andwf	(___ftdiv@sign),f
  8516                           opt subtitle "HI-TECH Software Omniscient Code Generator (Lite mode) build 49521"
  8517                           
  8518  0DB1                     l3510:	
  8519  0DB1  17AC               	bsf	(___ftdiv@f1)+(15/8),(15)&7
  8520                           opt subtitle "HI-TECH Software Omniscient Code Generator (Lite mode) build 49521"
  8521  0DB2  30FF               	movlw	0FFh
  8522  0DB3  05AB               	andwf	(___ftdiv@f1),f
  8523  0DB4  30FF               	movlw	0FFh
  8524  0DB5  05AC               	andwf	(___ftdiv@f1+1),f
  8525  0DB6  3000               	movlw	0
  8526  0DB7  05AD               	andwf	(___ftdiv@f1+2),f
  8527                           opt subtitle "HI-TECH Software Omniscient Code Generator (Lite mode) build 49521"
  8528                           
  8529  0DB8                     l3512:	
  8530  0DB8  17A9               	bsf	(___ftdiv@f2)+(15/8),(15)&7
  8531                           opt subtitle "HI-TECH Software Omniscient Code Generator (Lite mode) build 49521"
  8532  0DB9  30FF               	movlw	0FFh
  8533  0DBA  05A8               	andwf	(___ftdiv@f2),f
  8534  0DBB  30FF               	movlw	0FFh
  8535  0DBC  05A9               	andwf	(___ftdiv@f2+1),f
  8536  0DBD  3000               	movlw	0
  8537  0DBE  05AA               	andwf	(___ftdiv@f2+2),f
  8538                           opt subtitle "HI-TECH Software Omniscient Code Generator (Lite mode) build 49521"
  8539  0DBF  3018               	movlw	(018h)
  8540  0DC0  00AE               	movwf	(??___ftdiv+0)+0
  8541  0DC1  082E               	movf	(??___ftdiv+0)+0,w
  8542  0DC2  00B2               	movwf	(___ftdiv@cntr)
  8543  0DC3  2DC4               	goto	l3514
  8544                           opt subtitle "HI-TECH Software Omniscient Code Generator (Lite mode) build 49521"
  8545                           
  8546  0DC4                     l553:	
  8547                           opt subtitle "HI-TECH Software Omniscient Code Generator (Lite mode) build 49521"
  8548                           
  8549  0DC4                     l3514:	
  8550  0DC4  3001               	movlw	01h
  8551  0DC5                     u3045:
  8552  0DC5  1003               	clrc
  8553  0DC6  0DB3               	rlf	(___ftdiv@f3),f
  8554  0DC7  0DB4               	rlf	(___ftdiv@f3+1),f
  8555  0DC8  0DB5               	rlf	(___ftdiv@f3+2),f
  8556  0DC9  3EFF               	addlw	-1
  8557  0DCA  1D03               	skipz
  8558  0DCB  2DC5               	goto	u3045
  8559                           opt subtitle "HI-TECH Software Omniscient Code Generator (Lite mode) build 49521"
  8560                           
  8561  0DCC                     l3516:	
  8562  0DCC  082A               	movf	(___ftdiv@f2+2),w
  8563  0DCD  022D               	subwf	(___ftdiv@f1+2),w
  8564  0DCE  1D03               	skipz
  8565  0DCF  2DD6               	goto	u3055
  8566  0DD0  0829               	movf	(___ftdiv@f2+1),w
  8567  0DD1  022C               	subwf	(___ftdiv@f1+1),w
  8568  0DD2  1D03               	skipz
  8569  0DD3  2DD6               	goto	u3055
  8570  0DD4  0828               	movf	(___ftdiv@f2),w
  8571  0DD5  022B               	subwf	(___ftdiv@f1),w
  8572  0DD6                     u3055:
  8573  0DD6  1C03               	skipc
  8574  0DD7  2DD9               	goto	u3051
  8575  0DD8  2DDA               	goto	u3050
  8576  0DD9                     u3051:
  8577  0DD9  2DE6               	goto	l3522
  8578  0DDA                     u3050:
  8579                           opt subtitle "HI-TECH Software Omniscient Code Generator (Lite mode) build 49521"
  8580                           
  8581  0DDA                     l3518:	
  8582  0DDA  0828               	movf	(___ftdiv@f2),w
  8583  0DDB  02AB               	subwf	(___ftdiv@f1),f
  8584  0DDC  0829               	movf	(___ftdiv@f2+1),w
  8585  0DDD  1C03               	skipc
  8586  0DDE  0F29               	incfsz	(___ftdiv@f2+1),w
  8587  0DDF  02AC               	subwf	(___ftdiv@f1+1),f
  8588  0DE0  082A               	movf	(___ftdiv@f2+2),w
  8589  0DE1  1C03               	skipc
  8590  0DE2  0A2A               	incf	(___ftdiv@f2+2),w
  8591  0DE3  02AD               	subwf	(___ftdiv@f1+2),f
  8592                           opt subtitle "HI-TECH Software Omniscient Code Generator (Lite mode) build 49521"
  8593                           
  8594  0DE4                     l3520:	
  8595  0DE4  1433               	bsf	(___ftdiv@f3)+(0/8),(0)&7
  8596  0DE5  2DE6               	goto	l3522
  8597                           opt subtitle "HI-TECH Software Omniscient Code Generator (Lite mode) build 49521"
  8598                           
  8599  0DE6                     l554:	
  8600                           opt subtitle "HI-TECH Software Omniscient Code Generator (Lite mode) build 49521"
  8601                           
  8602  0DE6                     l3522:	
  8603  0DE6  3001               	movlw	01h
  8604  0DE7                     u3065:
  8605  0DE7  1003               	clrc
  8606  0DE8  0DAB               	rlf	(___ftdiv@f1),f
  8607  0DE9  0DAC               	rlf	(___ftdiv@f1+1),f
  8608  0DEA  0DAD               	rlf	(___ftdiv@f1+2),f
  8609  0DEB  3EFF               	addlw	-1
  8610  0DEC  1D03               	skipz
  8611  0DED  2DE7               	goto	u3065
  8612                           opt subtitle "HI-TECH Software Omniscient Code Generator (Lite mode) build 49521"
  8613                           
  8614  0DEE                     l3524:	
  8615  0DEE  3001               	movlw	low(01h)
  8616  0DEF  02B2               	subwf	(___ftdiv@cntr),f
  8617  0DF0  1D03               	btfss	status,2
  8618  0DF1  2DF3               	goto	u3071
  8619  0DF2  2DF4               	goto	u3070
  8620  0DF3                     u3071:
  8621  0DF3  2DC4               	goto	l3514
  8622  0DF4                     u3070:
  8623  0DF4  2DF5               	goto	l3526
  8624                           opt subtitle "HI-TECH Software Omniscient Code Generator (Lite mode) build 49521"
  8625  0DF5                     l555:	
  8626                           opt subtitle "HI-TECH Software Omniscient Code Generator (Lite mode) build 49521"
  8627                           
  8628  0DF5                     l3526:	
  8629  0DF5  0833               	movf	(___ftdiv@f3),w
  8630  0DF6  00A0               	movwf	(?___ftpack)
  8631  0DF7  0834               	movf	(___ftdiv@f3+1),w
  8632  0DF8  00A1               	movwf	(?___ftpack+1)
  8633  0DF9  0835               	movf	(___ftdiv@f3+2),w
  8634  0DFA  00A2               	movwf	(?___ftpack+2)
  8635  0DFB  0836               	movf	(___ftdiv@exp),w
  8636  0DFC  00AE               	movwf	(??___ftdiv+0)+0
  8637  0DFD  082E               	movf	(??___ftdiv+0)+0,w
  8638  0DFE  00A3               	movwf	0+(?___ftpack)+03h
  8639  0DFF  0837               	movf	(___ftdiv@sign),w
  8640  0E00  00AF               	movwf	(??___ftdiv+1)+0
  8641  0E01  082F               	movf	(??___ftdiv+1)+0,w
  8642  0E02  00A4               	movwf	0+(?___ftpack)+04h
  8643  0E03  120A  158A  22A8   	fcall	___ftpack
              120A  158A         
  8644  0E08  1283               	bcf	status, 5	;RP0=0, select bank0
  8645  0E09  1303               	bcf	status, 6	;RP1=0, select bank0
  8646  0E0A  0820               	movf	(0+(?___ftpack)),w
  8647  0E0B  00A8               	movwf	(?___ftdiv)
  8648  0E0C  0821               	movf	(1+(?___ftpack)),w
  8649  0E0D  00A9               	movwf	(?___ftdiv+1)
  8650  0E0E  0822               	movf	(2+(?___ftpack)),w
  8651  0E0F  00AA               	movwf	(?___ftdiv+2)
  8652  0E10  2E11               	goto	l551
  8653                           opt subtitle "HI-TECH Software Omniscient Code Generator (Lite mode) build 49521"
  8654  0E11                     l3528:	
  8655                           opt subtitle "HI-TECH Software Omniscient Code Generator (Lite mode) build 49521"
  8656                           
  8657  0E11                     l551:	
  8658  0E11  0008               	return
  8659                           opt subtitle "HI-TECH Software Omniscient Code Generator (Lite mode) build 49521"
  8660                           
  8661  0E12                     	__end_of___ftdiv:
  8662                           opt subtitle "HI-TECH Software Omniscient Code Generator (Lite mode) build 49521"
  8663                           
  8664                           opt pagewidth 120
  8665                           
  8666                           	opt lm
  8667                           
  8668                           	processor	16LF707
  8669                           clrc	macro
  8670                           	bcf	3,0
  8671                           	endm
  8672                           clrz	macro
  8673                           	bcf	3,2
  8674                           	endm
  8675                           setc	macro
  8676                           	bsf	3,0
  8677                           	endm
  8678                           setz	macro
  8679                           	bsf	3,2
  8680                           	endm
  8681                           skipc	macro
  8682                           	btfss	3,0
  8683                           	endm
  8684                           skipz	macro
  8685                           	btfss	3,2
  8686                           	endm
  8687                           skipnc	macro
  8688                           	btfsc	3,0
  8689                           	endm
  8690                           skipnz	macro
  8691                           	btfsc	3,2
  8692                           	endm
  8693                           indf	equ	0
  8694                           indf0	equ	0
  8695                           pc	equ	2
  8696                           pcl	equ	2
  8697  1739                     __ptext778:	;psect for function ___wmul
  8698                           opt subtitle "HI-TECH Software Omniscient Code Generator (Lite mode) build 49521"
  8699                           
  8700                           opt pagewidth 120
  8701                           
  8702  002C                     	__size_of___wmul	equ	__end_of___wmul-___wmul
  8703                           opt subtitle "HI-TECH Software Omniscient Code Generator (Lite mode) build 49521"
  8704  1739                     ___wmul:	
  8705                           opt subtitle "HI-TECH Software Omniscient Code Generator (Lite mode) build 49521"
  8706                           
  8707                           opt pagewidth 120
  8708                           
  8709  1739                     l3398:	
  8710  1739  1283               	bcf	status, 5	;RP0=0, select bank0
  8711  173A  1303               	bcf	status, 6	;RP1=0, select bank0
  8712  173B  01A4               	clrf	(___wmul@product)
  8713  173C  01A5               	clrf	(___wmul@product+1)
  8714  173D  2F3E               	goto	l3400
  8715                           opt subtitle "HI-TECH Software Omniscient Code Generator (Lite mode) build 49521"
  8716                           
  8717  173E                     l462:	
  8718                           opt subtitle "HI-TECH Software Omniscient Code Generator (Lite mode) build 49521"
  8719                           
  8720  173E                     l3400:	
  8721  173E  1C20               	btfss	(___wmul@multiplier),(0)&7
  8722  173F  2F41               	goto	u2721
  8723  1740  2F42               	goto	u2720
  8724  1741                     u2721:
  8725  1741  2F48               	goto	l463
  8726  1742                     u2720:
  8727                           opt subtitle "HI-TECH Software Omniscient Code Generator (Lite mode) build 49521"
  8728                           
  8729  1742                     l3402:	
  8730  1742  0822               	movf	(___wmul@multiplicand),w
  8731  1743  07A4               	addwf	(___wmul@product),f
  8732  1744  1803               	skipnc
  8733  1745  0AA5               	incf	(___wmul@product+1),f
  8734  1746  0823               	movf	(___wmul@multiplicand+1),w
  8735  1747  07A5               	addwf	(___wmul@product+1),f
  8736                           opt subtitle "HI-TECH Software Omniscient Code Generator (Lite mode) build 49521"
  8737  1748                     l463:	
  8738                           opt subtitle "HI-TECH Software Omniscient Code Generator (Lite mode) build 49521"
  8739  1748  3001               	movlw	01h
  8740                           opt subtitle "HI-TECH Software Omniscient Code Generator (Lite mode) build 49521"
  8741  1749                     u2735:
  8742  1749  1003               	clrc
  8743  174A  0DA2               	rlf	(___wmul@multiplicand),f
  8744  174B  0DA3               	rlf	(___wmul@multiplicand+1),f
  8745  174C  3EFF               	addlw	-1
  8746  174D  1D03               	skipz
  8747  174E  2F49               	goto	u2735
  8748                           opt subtitle "HI-TECH Software Omniscient Code Generator (Lite mode) build 49521"
  8749                           
  8750  174F                     l3404:	
  8751  174F  3001               	movlw	01h
  8752                           opt subtitle "HI-TECH Software Omniscient Code Generator (Lite mode) build 49521"
  8753  1750                     u2745:
  8754  1750  1003               	clrc
  8755  1751  0CA1               	rrf	(___wmul@multiplier+1),f
  8756  1752  0CA0               	rrf	(___wmul@multiplier),f
  8757  1753  3EFF               	addlw	-1
  8758  1754  1D03               	skipz
  8759  1755  2F50               	goto	u2745
  8760                           opt subtitle "HI-TECH Software Omniscient Code Generator (Lite mode) build 49521"
  8761  1756  0821               	movf	((___wmul@multiplier+1)),w
  8762  1757  0420               	iorwf	((___wmul@multiplier)),w
  8763  1758  1D03               	skipz
  8764  1759  2F5B               	goto	u2751
  8765  175A  2F5C               	goto	u2750
  8766  175B                     u2751:
  8767  175B  2F3E               	goto	l3400
  8768  175C                     u2750:
  8769  175C  2F5D               	goto	l3406
  8770                           opt subtitle "HI-TECH Software Omniscient Code Generator (Lite mode) build 49521"
  8771  175D                     l464:	
  8772                           opt subtitle "HI-TECH Software Omniscient Code Generator (Lite mode) build 49521"
  8773                           
  8774  175D                     l3406:	
  8775  175D  0825               	movf	(___wmul@product+1),w
  8776  175E  01A1               	clrf	(?___wmul+1)
  8777  175F  07A1               	addwf	(?___wmul+1)
  8778  1760  0824               	movf	(___wmul@product),w
  8779  1761  01A0               	clrf	(?___wmul)
  8780  1762  07A0               	addwf	(?___wmul)
  8781                           opt subtitle "HI-TECH Software Omniscient Code Generator (Lite mode) build 49521"
  8782  1763  2F64               	goto	l465
  8783                           opt subtitle "HI-TECH Software Omniscient Code Generator (Lite mode) build 49521"
  8784  1764                     l3408:	
  8785                           opt subtitle "HI-TECH Software Omniscient Code Generator (Lite mode) build 49521"
  8786                           
  8787  1764                     l465:	
  8788  1764  0008               	return
  8789                           opt subtitle "HI-TECH Software Omniscient Code Generator (Lite mode) build 49521"
  8790                           
  8791  1765                     	__end_of___wmul:
  8792                           opt subtitle "HI-TECH Software Omniscient Code Generator (Lite mode) build 49521"
  8793                           
  8794                           opt pagewidth 120
  8795                           
  8796                           	opt lm
  8797                           
  8798                           	processor	16LF707
  8799                           clrc	macro
  8800                           	bcf	3,0
  8801                           	endm
  8802                           clrz	macro
  8803                           	bcf	3,2
  8804                           	endm
  8805                           setc	macro
  8806                           	bsf	3,0
  8807                           	endm
  8808                           setz	macro
  8809                           	bsf	3,2
  8810                           	endm
  8811                           skipc	macro
  8812                           	btfss	3,0
  8813                           	endm
  8814                           skipz	macro
  8815                           	btfss	3,2
  8816                           	endm
  8817                           skipnc	macro
  8818                           	btfsc	3,0
  8819                           	endm
  8820                           skipnz	macro
  8821                           	btfsc	3,2
  8822                           	endm
  8823                           indf	equ	0
  8824                           indf0	equ	0
  8825                           pc	equ	2
  8826                           pcl	equ	2
  8827                           status	equ	3
  8828  090D                     __ptext779:	;psect for function ___lwdiv
  8829                           opt subtitle "HI-TECH Software Omniscient Code Generator (Lite mode) build 49521"
  8830                           
  8831                           opt pagewidth 120
  8832                           
  8833  004F                     	__size_of___lwdiv	equ	__end_of___lwdiv-___lwdiv
  8834                           opt subtitle "HI-TECH Software Omniscient Code Generator (Lite mode) build 49521"
  8835  090D                     ___lwdiv:	
  8836                           opt subtitle "HI-TECH Software Omniscient Code Generator (Lite mode) build 49521"
  8837                           
  8838                           opt pagewidth 120
  8839                           
  8840  090D                     l3410:	
  8841  090D  1283               	bcf	status, 5	;RP0=0, select bank0
  8842  090E  1303               	bcf	status, 6	;RP1=0, select bank0
  8843  090F  01A5               	clrf	(___lwdiv@quotient)
  8844  0910  01A6               	clrf	(___lwdiv@quotient+1)
  8845                           opt subtitle "HI-TECH Software Omniscient Code Generator (Lite mode) build 49521"
  8846                           
  8847  0911                     l3412:	
  8848  0911  0821               	movf	(___lwdiv@divisor+1),w
  8849  0912  0420               	iorwf	(___lwdiv@divisor),w
  8850  0913  1903               	skipnz
  8851  0914  2916               	goto	u2761
  8852  0915  2917               	goto	u2760
  8853  0916                     u2761:
  8854  0916  2954               	goto	l3432
  8855  0917                     u2760:
  8856                           opt subtitle "HI-TECH Software Omniscient Code Generator (Lite mode) build 49521"
  8857                           
  8858  0917                     l3414:	
  8859  0917  01A7               	clrf	(___lwdiv@counter)
  8860  0918  0AA7               	incf	(___lwdiv@counter),f
  8861                           opt subtitle "HI-TECH Software Omniscient Code Generator (Lite mode) build 49521"
  8862  0919  2926               	goto	l3420
  8863                           opt subtitle "HI-TECH Software Omniscient Code Generator (Lite mode) build 49521"
  8864  091A                     l470:	
  8865                           opt subtitle "HI-TECH Software Omniscient Code Generator (Lite mode) build 49521"
  8866                           
  8867  091A                     l3416:	
  8868  091A  3001               	movlw	01h
  8869                           opt subtitle "HI-TECH Software Omniscient Code Generator (Lite mode) build 49521"
  8870  091B                     u2775:
  8871  091B  1003               	clrc
  8872  091C  0DA0               	rlf	(___lwdiv@divisor),f
  8873  091D  0DA1               	rlf	(___lwdiv@divisor+1),f
  8874  091E  3EFF               	addlw	-1
  8875  091F  1D03               	skipz
  8876  0920  291B               	goto	u2775
  8877                           opt subtitle "HI-TECH Software Omniscient Code Generator (Lite mode) build 49521"
  8878                           
  8879  0921                     l3418:	
  8880  0921  3001               	movlw	(01h)
  8881  0922  00A4               	movwf	(??___lwdiv+0)+0
  8882  0923  0824               	movf	(??___lwdiv+0)+0,w
  8883  0924  07A7               	addwf	(___lwdiv@counter),f
  8884  0925  2926               	goto	l3420
  8885                           opt subtitle "HI-TECH Software Omniscient Code Generator (Lite mode) build 49521"
  8886                           
  8887  0926                     l469:	
  8888                           opt subtitle "HI-TECH Software Omniscient Code Generator (Lite mode) build 49521"
  8889                           
  8890  0926                     l3420:	
  8891  0926  1FA1               	btfss	(___lwdiv@divisor+1),(15)&7
  8892  0927  2929               	goto	u2781
  8893  0928  292A               	goto	u2780
  8894  0929                     u2781:
  8895  0929  291A               	goto	l3416
  8896  092A                     u2780:
  8897  092A  292C               	goto	l3422
  8898                           opt subtitle "HI-TECH Software Omniscient Code Generator (Lite mode) build 49521"
  8899  092B                     l471:	
  8900  092B  292C               	goto	l3422
  8901                           opt subtitle "HI-TECH Software Omniscient Code Generator (Lite mode) build 49521"
  8902                           
  8903  092C                     l472:	
  8904                           opt subtitle "HI-TECH Software Omniscient Code Generator (Lite mode) build 49521"
  8905                           
  8906  092C                     l3422:	
  8907  092C  3001               	movlw	01h
  8908                           opt subtitle "HI-TECH Software Omniscient Code Generator (Lite mode) build 49521"
  8909  092D                     u2795:
  8910  092D  1003               	clrc
  8911  092E  0DA5               	rlf	(___lwdiv@quotient),f
  8912  092F  0DA6               	rlf	(___lwdiv@quotient+1),f
  8913  0930  3EFF               	addlw	-1
  8914  0931  1D03               	skipz
  8915  0932  292D               	goto	u2795
  8916                           opt subtitle "HI-TECH Software Omniscient Code Generator (Lite mode) build 49521"
  8917  0933  0821               	movf	(___lwdiv@divisor+1),w
  8918  0934  0223               	subwf	(___lwdiv@dividend+1),w
  8919  0935  1D03               	skipz
  8920  0936  2939               	goto	u2805
  8921  0937  0820               	movf	(___lwdiv@divisor),w
  8922  0938  0222               	subwf	(___lwdiv@dividend),w
  8923  0939                     u2805:
  8924  0939  1C03               	skipc
  8925  093A  293C               	goto	u2801
  8926  093B  293D               	goto	u2800
  8927  093C                     u2801:
  8928  093C  2945               	goto	l3428
  8929  093D                     u2800:
  8930                           opt subtitle "HI-TECH Software Omniscient Code Generator (Lite mode) build 49521"
  8931                           
  8932  093D                     l3424:	
  8933  093D  0820               	movf	(___lwdiv@divisor),w
  8934  093E  02A2               	subwf	(___lwdiv@dividend),f
  8935  093F  0821               	movf	(___lwdiv@divisor+1),w
  8936  0940  1C03               	skipc
  8937  0941  03A3               	decf	(___lwdiv@dividend+1),f
  8938  0942  02A3               	subwf	(___lwdiv@dividend+1),f
  8939                           opt subtitle "HI-TECH Software Omniscient Code Generator (Lite mode) build 49521"
  8940                           
  8941  0943                     l3426:	
  8942  0943  1425               	bsf	(___lwdiv@quotient)+(0/8),(0)&7
  8943  0944  2945               	goto	l3428
  8944                           opt subtitle "HI-TECH Software Omniscient Code Generator (Lite mode) build 49521"
  8945                           
  8946  0945                     l473:	
  8947                           opt subtitle "HI-TECH Software Omniscient Code Generator (Lite mode) build 49521"
  8948                           
  8949  0945                     l3428:	
  8950  0945  3001               	movlw	01h
  8951                           opt subtitle "HI-TECH Software Omniscient Code Generator (Lite mode) build 49521"
  8952  0946                     u2815:
  8953  0946  1003               	clrc
  8954  0947  0CA1               	rrf	(___lwdiv@divisor+1),f
  8955  0948  0CA0               	rrf	(___lwdiv@divisor),f
  8956  0949  3EFF               	addlw	-1
  8957  094A  1D03               	skipz
  8958  094B  2946               	goto	u2815
  8959                           opt subtitle "HI-TECH Software Omniscient Code Generator (Lite mode) build 49521"
  8960                           
  8961  094C                     l3430:	
  8962  094C  3001               	movlw	low(01h)
  8963  094D  02A7               	subwf	(___lwdiv@counter),f
  8964  094E  1D03               	btfss	status,2
  8965  094F  2951               	goto	u2821
  8966  0950  2952               	goto	u2820
  8967  0951                     u2821:
  8968  0951  292C               	goto	l3422
  8969  0952                     u2820:
  8970  0952  2954               	goto	l3432
  8971                           opt subtitle "HI-TECH Software Omniscient Code Generator (Lite mode) build 49521"
  8972  0953                     l474:	
  8973  0953  2954               	goto	l3432
  8974                           opt subtitle "HI-TECH Software Omniscient Code Generator (Lite mode) build 49521"
  8975                           
  8976  0954                     l468:	
  8977                           opt subtitle "HI-TECH Software Omniscient Code Generator (Lite mode) build 49521"
  8978                           
  8979  0954                     l3432:	
  8980  0954  0826               	movf	(___lwdiv@quotient+1),w
  8981  0955  01A1               	clrf	(?___lwdiv+1)
  8982  0956  07A1               	addwf	(?___lwdiv+1)
  8983  0957  0825               	movf	(___lwdiv@quotient),w
  8984  0958  01A0               	clrf	(?___lwdiv)
  8985  0959  07A0               	addwf	(?___lwdiv)
  8986                           opt subtitle "HI-TECH Software Omniscient Code Generator (Lite mode) build 49521"
  8987  095A  295B               	goto	l475
  8988                           opt subtitle "HI-TECH Software Omniscient Code Generator (Lite mode) build 49521"
  8989  095B                     l3434:	
  8990                           opt subtitle "HI-TECH Software Omniscient Code Generator (Lite mode) build 49521"
  8991                           
  8992  095B                     l475:	
  8993  095B  0008               	return
  8994                           opt subtitle "HI-TECH Software Omniscient Code Generator (Lite mode) build 49521"
  8995                           
  8996  095C                     	__end_of___lwdiv:
  8997                           opt subtitle "HI-TECH Software Omniscient Code Generator (Lite mode) build 49521"
  8998                           
  8999                           opt pagewidth 120
  9000                           
  9001                           	opt lm
  9002                           
  9003                           	processor	16LF707
  9004                           clrc	macro
  9005                           	bcf	3,0
  9006                           	endm
  9007                           clrz	macro
  9008                           	bcf	3,2
  9009                           	endm
  9010                           setc	macro
  9011                           	bsf	3,0
  9012                           	endm
  9013                           setz	macro
  9014                           	bsf	3,2
  9015                           	endm
  9016                           skipc	macro
  9017                           	btfss	3,0
  9018                           	endm
  9019                           skipz	macro
  9020                           	btfss	3,2
  9021                           	endm
  9022                           skipnc	macro
  9023                           	btfsc	3,0
  9024                           	endm
  9025                           skipnz	macro
  9026                           	btfsc	3,2
  9027                           	endm
  9028                           indf	equ	0
  9029                           indf0	equ	0
  9030                           pc	equ	2
  9031                           pcl	equ	2
  9032  08C8                     __ptext780:	;psect for function ___lwmod
  9033                           opt subtitle "HI-TECH Software Omniscient Code Generator (Lite mode) build 49521"
  9034                           
  9035                           opt pagewidth 120
  9036                           
  9037  0045                     	__size_of___lwmod	equ	__end_of___lwmod-___lwmod
  9038                           opt subtitle "HI-TECH Software Omniscient Code Generator (Lite mode) build 49521"
  9039  08C8                     ___lwmod:	
  9040                           opt subtitle "HI-TECH Software Omniscient Code Generator (Lite mode) build 49521"
  9041                           
  9042                           opt pagewidth 120
  9043                           
  9044  08C8                     l3436:	
  9045  08C8  1283               	bcf	status, 5	;RP0=0, select bank0
  9046  08C9  1303               	bcf	status, 6	;RP1=0, select bank0
  9047  08CA  0829               	movf	(___lwmod@divisor+1),w
  9048  08CB  0428               	iorwf	(___lwmod@divisor),w
  9049  08CC  1903               	skipnz
  9050  08CD  28CF               	goto	u2831
  9051  08CE  28D0               	goto	u2830
  9052  08CF                     u2831:
  9053  08CF  2905               	goto	l3454
  9054  08D0                     u2830:
  9055                           opt subtitle "HI-TECH Software Omniscient Code Generator (Lite mode) build 49521"
  9056                           
  9057  08D0                     l3438:	
  9058  08D0  01AD               	clrf	(___lwmod@counter)
  9059  08D1  0AAD               	incf	(___lwmod@counter),f
  9060                           opt subtitle "HI-TECH Software Omniscient Code Generator (Lite mode) build 49521"
  9061  08D2  28DF               	goto	l3444
  9062                           opt subtitle "HI-TECH Software Omniscient Code Generator (Lite mode) build 49521"
  9063  08D3                     l480:	
  9064                           opt subtitle "HI-TECH Software Omniscient Code Generator (Lite mode) build 49521"
  9065                           
  9066  08D3                     l3440:	
  9067  08D3  3001               	movlw	01h
  9068                           opt subtitle "HI-TECH Software Omniscient Code Generator (Lite mode) build 49521"
  9069  08D4                     u2845:
  9070  08D4  1003               	clrc
  9071  08D5  0DA8               	rlf	(___lwmod@divisor),f
  9072  08D6  0DA9               	rlf	(___lwmod@divisor+1),f
  9073  08D7  3EFF               	addlw	-1
  9074  08D8  1D03               	skipz
  9075  08D9  28D4               	goto	u2845
  9076                           opt subtitle "HI-TECH Software Omniscient Code Generator (Lite mode) build 49521"
  9077                           
  9078  08DA                     l3442:	
  9079  08DA  3001               	movlw	(01h)
  9080  08DB  00AC               	movwf	(??___lwmod+0)+0
  9081  08DC  082C               	movf	(??___lwmod+0)+0,w
  9082  08DD  07AD               	addwf	(___lwmod@counter),f
  9083  08DE  28DF               	goto	l3444
  9084                           opt subtitle "HI-TECH Software Omniscient Code Generator (Lite mode) build 49521"
  9085                           
  9086  08DF                     l479:	
  9087                           opt subtitle "HI-TECH Software Omniscient Code Generator (Lite mode) build 49521"
  9088                           
  9089  08DF                     l3444:	
  9090  08DF  1FA9               	btfss	(___lwmod@divisor+1),(15)&7
  9091  08E0  28E2               	goto	u2851
  9092  08E1  28E3               	goto	u2850
  9093  08E2                     u2851:
  9094  08E2  28D3               	goto	l3440
  9095  08E3                     u2850:
  9096  08E3  28E5               	goto	l3446
  9097                           opt subtitle "HI-TECH Software Omniscient Code Generator (Lite mode) build 49521"
  9098  08E4                     l481:	
  9099  08E4  28E5               	goto	l3446
  9100                           opt subtitle "HI-TECH Software Omniscient Code Generator (Lite mode) build 49521"
  9101                           
  9102  08E5                     l482:	
  9103                           opt subtitle "HI-TECH Software Omniscient Code Generator (Lite mode) build 49521"
  9104                           
  9105  08E5                     l3446:	
  9106  08E5  0829               	movf	(___lwmod@divisor+1),w
  9107  08E6  022B               	subwf	(___lwmod@dividend+1),w
  9108  08E7  1D03               	skipz
  9109  08E8  28EB               	goto	u2865
  9110  08E9  0828               	movf	(___lwmod@divisor),w
  9111  08EA  022A               	subwf	(___lwmod@dividend),w
  9112  08EB                     u2865:
  9113  08EB  1C03               	skipc
  9114  08EC  28EE               	goto	u2861
  9115  08ED  28EF               	goto	u2860
  9116  08EE                     u2861:
  9117  08EE  28F6               	goto	l3450
  9118  08EF                     u2860:
  9119                           opt subtitle "HI-TECH Software Omniscient Code Generator (Lite mode) build 49521"
  9120                           
  9121  08EF                     l3448:	
  9122  08EF  0828               	movf	(___lwmod@divisor),w
  9123  08F0  02AA               	subwf	(___lwmod@dividend),f
  9124  08F1  0829               	movf	(___lwmod@divisor+1),w
  9125  08F2  1C03               	skipc
  9126  08F3  03AB               	decf	(___lwmod@dividend+1),f
  9127  08F4  02AB               	subwf	(___lwmod@dividend+1),f
  9128  08F5  28F6               	goto	l3450
  9129                           opt subtitle "HI-TECH Software Omniscient Code Generator (Lite mode) build 49521"
  9130  08F6                     l483:	
  9131                           opt subtitle "HI-TECH Software Omniscient Code Generator (Lite mode) build 49521"
  9132                           
  9133  08F6                     l3450:	
  9134  08F6  3001               	movlw	01h
  9135                           opt subtitle "HI-TECH Software Omniscient Code Generator (Lite mode) build 49521"
  9136  08F7                     u2875:
  9137  08F7  1003               	clrc
  9138  08F8  0CA9               	rrf	(___lwmod@divisor+1),f
  9139  08F9  0CA8               	rrf	(___lwmod@divisor),f
  9140  08FA  3EFF               	addlw	-1
  9141  08FB  1D03               	skipz
  9142  08FC  28F7               	goto	u2875
  9143                           opt subtitle "HI-TECH Software Omniscient Code Generator (Lite mode) build 49521"
  9144                           
  9145  08FD                     l3452:	
  9146  08FD  3001               	movlw	low(01h)
  9147  08FE  02AD               	subwf	(___lwmod@counter),f
  9148  08FF  1D03               	btfss	status,2
  9149  0900  2902               	goto	u2881
  9150  0901  2903               	goto	u2880
  9151  0902                     u2881:
  9152  0902  28E5               	goto	l3446
  9153  0903                     u2880:
  9154  0903  2905               	goto	l3454
  9155                           opt subtitle "HI-TECH Software Omniscient Code Generator (Lite mode) build 49521"
  9156  0904                     l484:	
  9157  0904  2905               	goto	l3454
  9158                           opt subtitle "HI-TECH Software Omniscient Code Generator (Lite mode) build 49521"
  9159                           
  9160  0905                     l478:	
  9161                           opt subtitle "HI-TECH Software Omniscient Code Generator (Lite mode) build 49521"
  9162                           
  9163  0905                     l3454:	
  9164  0905  082B               	movf	(___lwmod@dividend+1),w
  9165  0906  01A9               	clrf	(?___lwmod+1)
  9166  0907  07A9               	addwf	(?___lwmod+1)
  9167  0908  082A               	movf	(___lwmod@dividend),w
  9168  0909  01A8               	clrf	(?___lwmod)
  9169  090A  07A8               	addwf	(?___lwmod)
  9170                           opt subtitle "HI-TECH Software Omniscient Code Generator (Lite mode) build 49521"
  9171  090B  290C               	goto	l485
  9172                           opt subtitle "HI-TECH Software Omniscient Code Generator (Lite mode) build 49521"
  9173  090C                     l3456:	
  9174                           opt subtitle "HI-TECH Software Omniscient Code Generator (Lite mode) build 49521"
  9175                           
  9176  090C                     l485:	
  9177  090C  0008               	return
  9178                           opt subtitle "HI-TECH Software Omniscient Code Generator (Lite mode) build 49521"
  9179                           
  9180  090D                     	__end_of___lwmod:
  9181                           opt subtitle "HI-TECH Software Omniscient Code Generator (Lite mode) build 49521"
  9182                           
  9183                           opt pagewidth 120
  9184                           
  9185                           	opt lm
  9186                           
  9187                           	processor	16LF707
  9188                           clrc	macro
  9189                           	bcf	3,0
  9190                           	endm
  9191                           clrz	macro
  9192                           	bcf	3,2
  9193                           	endm
  9194                           setc	macro
  9195                           	bsf	3,0
  9196                           	endm
  9197                           setz	macro
  9198                           	bsf	3,2
  9199                           	endm
  9200                           skipc	macro
  9201                           	btfss	3,0
  9202                           	endm
  9203                           skipz	macro
  9204                           	btfss	3,2
  9205                           	endm
  9206                           skipnc	macro
  9207                           	btfsc	3,0
  9208                           	endm
  9209                           skipnz	macro
  9210                           	btfsc	3,2
  9211                           	endm
  9212                           indf	equ	0
  9213                           indf0	equ	0
  9214                           pc	equ	2
  9215                           pcl	equ	2
  9216                           status	equ	3
  9217                           fsr	equ	4
  9218  0B25                     __ptext781:	;psect for function ___fttol
  9219                           opt subtitle "HI-TECH Software Omniscient Code Generator (Lite mode) build 49521"
  9220                           
  9221                           opt pagewidth 120
  9222                           
  9223  00A6                     	__size_of___fttol	equ	__end_of___fttol-___fttol
  9224                           opt subtitle "HI-TECH Software Omniscient Code Generator (Lite mode) build 49521"
  9225  0B25                     ___fttol:	
  9226                           opt subtitle "HI-TECH Software Omniscient Code Generator (Lite mode) build 49521"
  9227                           
  9228                           opt pagewidth 120
  9229                           
  9230  0B25                     l3580:	
  9231  0B25  1283               	bcf	status, 5	;RP0=0, select bank0
  9232  0B26  1303               	bcf	status, 6	;RP1=0, select bank0
  9233  0B27  0820               	movf	(___fttol@f1),w
  9234  0B28  00A4               	movwf	((??___fttol+0)+0)
  9235  0B29  0821               	movf	(___fttol@f1+1),w
  9236  0B2A  00A5               	movwf	((??___fttol+0)+0+1)
  9237  0B2B  0822               	movf	(___fttol@f1+2),w
  9238  0B2C  00A6               	movwf	((??___fttol+0)+0+2)
  9239  0B2D  1003               	clrc
  9240  0B2E  0D25               	rlf	(??___fttol+0)+1,w
  9241  0B2F  0D26               	rlf	(??___fttol+0)+2,w
  9242  0B30  00A7               	movwf	(??___fttol+3)+0
  9243  0B31  0827               	movf	(??___fttol+3)+0,w
  9244  0B32  00AD               	movwf	(___fttol@exp1)
  9245  0B33  08AD               	movf	((___fttol@exp1)),f
  9246  0B34  1D03               	skipz
  9247  0B35  2B37               	goto	u3221
  9248  0B36  2B38               	goto	u3220
  9249  0B37                     u3221:
  9250  0B37  2B42               	goto	l3586
  9251  0B38                     u3220:
  9252                           opt subtitle "HI-TECH Software Omniscient Code Generator (Lite mode) build 49521"
  9253                           
  9254  0B38                     l3582:	
  9255  0B38  3000               	movlw	0
  9256  0B39  00A3               	movwf	(?___fttol+3)
  9257  0B3A  3000               	movlw	0
  9258  0B3B  00A2               	movwf	(?___fttol+2)
  9259  0B3C  3000               	movlw	0
  9260  0B3D  00A1               	movwf	(?___fttol+1)
  9261  0B3E  3000               	movlw	0
  9262  0B3F  00A0               	movwf	(?___fttol)
  9263                           opt subtitle "HI-TECH Software Omniscient Code Generator (Lite mode) build 49521"
  9264  0B40  2BCA               	goto	l572
  9265                           opt subtitle "HI-TECH Software Omniscient Code Generator (Lite mode) build 49521"
  9266  0B41                     l3584:	
  9267  0B41  2BCA               	goto	l572
  9268                           opt subtitle "HI-TECH Software Omniscient Code Generator (Lite mode) build 49521"
  9269  0B42                     l571:	
  9270                           opt subtitle "HI-TECH Software Omniscient Code Generator (Lite mode) build 49521"
  9271                           
  9272  0B42                     l3586:	
  9273  0B42  0820               	movf	(___fttol@f1),w
  9274  0B43  00A4               	movwf	((??___fttol+0)+0)
  9275  0B44  0821               	movf	(___fttol@f1+1),w
  9276  0B45  00A5               	movwf	((??___fttol+0)+0+1)
  9277  0B46  0822               	movf	(___fttol@f1+2),w
  9278  0B47  00A6               	movwf	((??___fttol+0)+0+2)
  9279  0B48  3017               	movlw	017h
  9280  0B49                     u3235:
  9281  0B49  1003               	clrc
  9282  0B4A  0CA6               	rrf	(??___fttol+0)+2,f
  9283  0B4B  0CA5               	rrf	(??___fttol+0)+1,f
  9284  0B4C  0CA4               	rrf	(??___fttol+0)+0,f
  9285  0B4D                     u3230:
  9286  0B4D  3EFF               	addlw	-1
  9287  0B4E  1D03               	skipz
  9288  0B4F  2B49               	goto	u3235
  9289  0B50  0824               	movf	0+(??___fttol+0)+0,w
  9290  0B51  00A7               	movwf	(??___fttol+3)+0
  9291  0B52  0827               	movf	(??___fttol+3)+0,w
  9292  0B53  00A8               	movwf	(___fttol@sign1)
  9293                           opt subtitle "HI-TECH Software Omniscient Code Generator (Lite mode) build 49521"
  9294                           
  9295  0B54                     l3588:	
  9296  0B54  17A1               	bsf	(___fttol@f1)+(15/8),(15)&7
  9297                           opt subtitle "HI-TECH Software Omniscient Code Generator (Lite mode) build 49521"
  9298                           
  9299  0B55                     l3590:	
  9300  0B55  30FF               	movlw	0FFh
  9301  0B56  05A0               	andwf	(___fttol@f1),f
  9302  0B57  30FF               	movlw	0FFh
  9303  0B58  05A1               	andwf	(___fttol@f1+1),f
  9304  0B59  3000               	movlw	0
  9305  0B5A  05A2               	andwf	(___fttol@f1+2),f
  9306                           opt subtitle "HI-TECH Software Omniscient Code Generator (Lite mode) build 49521"
  9307                           
  9308  0B5B                     l3592:	
  9309  0B5B  0820               	movf	(___fttol@f1),w
  9310  0B5C  00A9               	movwf	(___fttol@lval)
  9311  0B5D  0821               	movf	(___fttol@f1+1),w
  9312  0B5E  00AA               	movwf	((___fttol@lval))+1
  9313  0B5F  0822               	movf	(___fttol@f1+2),w
  9314  0B60  00AB               	movwf	((___fttol@lval))+2
  9315  0B61  01AC               	clrf	((___fttol@lval))+3
  9316                           opt subtitle "HI-TECH Software Omniscient Code Generator (Lite mode) build 49521"
  9317                           
  9318  0B62                     l3594:	
  9319  0B62  308E               	movlw	low(08Eh)
  9320  0B63  02AD               	subwf	(___fttol@exp1),f
  9321                           opt subtitle "HI-TECH Software Omniscient Code Generator (Lite mode) build 49521"
  9322                           
  9323  0B64                     l3596:	
  9324  0B64  1FAD               	btfss	(___fttol@exp1),7
  9325  0B65  2B67               	goto	u3241
  9326  0B66  2B68               	goto	u3240
  9327  0B67                     u3241:
  9328  0B67  2B8D               	goto	l3606
  9329  0B68                     u3240:
  9330                           opt subtitle "HI-TECH Software Omniscient Code Generator (Lite mode) build 49521"
  9331                           
  9332  0B68                     l3598:	
  9333  0B68  082D               	movf	(___fttol@exp1),w
  9334  0B69  3A80               	xorlw	80h
  9335  0B6A  3E8F               	addlw	-((-15)^80h)
  9336  0B6B  1803               	skipnc
  9337  0B6C  2B6E               	goto	u3251
  9338  0B6D  2B6F               	goto	u3250
  9339  0B6E                     u3251:
  9340  0B6E  2B7A               	goto	l3604
  9341  0B6F                     u3250:
  9342                           opt subtitle "HI-TECH Software Omniscient Code Generator (Lite mode) build 49521"
  9343                           
  9344  0B6F                     l3600:	
  9345  0B6F  3000               	movlw	0
  9346  0B70  00A3               	movwf	(?___fttol+3)
  9347  0B71  3000               	movlw	0
  9348  0B72  00A2               	movwf	(?___fttol+2)
  9349  0B73  3000               	movlw	0
  9350  0B74  00A1               	movwf	(?___fttol+1)
  9351  0B75  3000               	movlw	0
  9352  0B76  00A0               	movwf	(?___fttol)
  9353                           opt subtitle "HI-TECH Software Omniscient Code Generator (Lite mode) build 49521"
  9354  0B77  2BCA               	goto	l572
  9355                           opt subtitle "HI-TECH Software Omniscient Code Generator (Lite mode) build 49521"
  9356  0B78                     l3602:	
  9357  0B78  2BCA               	goto	l572
  9358                           opt subtitle "HI-TECH Software Omniscient Code Generator (Lite mode) build 49521"
  9359  0B79                     l574:	
  9360  0B79  2B7A               	goto	l3604
  9361                           opt subtitle "HI-TECH Software Omniscient Code Generator (Lite mode) build 49521"
  9362                           
  9363  0B7A                     l575:	
  9364                           opt subtitle "HI-TECH Software Omniscient Code Generator (Lite mode) build 49521"
  9365                           
  9366  0B7A                     l3604:	
  9367  0B7A  3001               	movlw	01h
  9368  0B7B                     u3265:
  9369  0B7B  1003               	clrc
  9370  0B7C  0CAC               	rrf	(___fttol@lval+3),f
  9371  0B7D  0CAB               	rrf	(___fttol@lval+2),f
  9372  0B7E  0CAA               	rrf	(___fttol@lval+1),f
  9373  0B7F  0CA9               	rrf	(___fttol@lval),f
  9374  0B80  3EFF               	addlw	-1
  9375  0B81  1D03               	skipz
  9376  0B82  2B7B               	goto	u3265
  9377                           opt subtitle "HI-TECH Software Omniscient Code Generator (Lite mode) build 49521"
  9378                           
  9379  0B83  3001               	movlw	(01h)
  9380  0B84  00A4               	movwf	(??___fttol+0)+0
  9381  0B85  0824               	movf	(??___fttol+0)+0,w
  9382  0B86  07AD               	addwf	(___fttol@exp1),f
  9383  0B87  1D03               	btfss	status,2
  9384  0B88  2B8A               	goto	u3271
  9385  0B89  2B8B               	goto	u3270
  9386  0B8A                     u3271:
  9387  0B8A  2B7A               	goto	l3604
  9388  0B8B                     u3270:
  9389  0B8B  2BB1               	goto	l3616
  9390                           opt subtitle "HI-TECH Software Omniscient Code Generator (Lite mode) build 49521"
  9391  0B8C                     l576:	
  9392                           opt subtitle "HI-TECH Software Omniscient Code Generator (Lite mode) build 49521"
  9393  0B8C  2BB1               	goto	l3616
  9394                           opt subtitle "HI-TECH Software Omniscient Code Generator (Lite mode) build 49521"
  9395  0B8D                     l573:	
  9396                           opt subtitle "HI-TECH Software Omniscient Code Generator (Lite mode) build 49521"
  9397                           
  9398  0B8D                     l3606:	
  9399  0B8D  3018               	movlw	(018h)
  9400  0B8E  022D               	subwf	(___fttol@exp1),w
  9401  0B8F  1C03               	skipc
  9402  0B90  2B92               	goto	u3281
  9403  0B91  2B93               	goto	u3280
  9404  0B92                     u3281:
  9405  0B92  2BAA               	goto	l3614
  9406  0B93                     u3280:
  9407                           opt subtitle "HI-TECH Software Omniscient Code Generator (Lite mode) build 49521"
  9408                           
  9409  0B93                     l3608:	
  9410  0B93  3000               	movlw	0
  9411  0B94  00A3               	movwf	(?___fttol+3)
  9412  0B95  3000               	movlw	0
  9413  0B96  00A2               	movwf	(?___fttol+2)
  9414  0B97  3000               	movlw	0
  9415  0B98  00A1               	movwf	(?___fttol+1)
  9416  0B99  3000               	movlw	0
  9417  0B9A  00A0               	movwf	(?___fttol)
  9418                           opt subtitle "HI-TECH Software Omniscient Code Generator (Lite mode) build 49521"
  9419  0B9B  2BCA               	goto	l572
  9420                           opt subtitle "HI-TECH Software Omniscient Code Generator (Lite mode) build 49521"
  9421  0B9C                     l3610:	
  9422  0B9C  2BCA               	goto	l572
  9423                           opt subtitle "HI-TECH Software Omniscient Code Generator (Lite mode) build 49521"
  9424  0B9D                     l578:	
  9425                           opt subtitle "HI-TECH Software Omniscient Code Generator (Lite mode) build 49521"
  9426  0B9D  2BAA               	goto	l3614
  9427                           opt subtitle "HI-TECH Software Omniscient Code Generator (Lite mode) build 49521"
  9428  0B9E                     l580:	
  9429                           opt subtitle "HI-TECH Software Omniscient Code Generator (Lite mode) build 49521"
  9430                           
  9431  0B9E                     l3612:	
  9432  0B9E  3001               	movlw	01h
  9433  0B9F  00A4               	movwf	(??___fttol+0)+0
  9434  0BA0                     u3295:
  9435  0BA0  1003               	clrc
  9436  0BA1  0DA9               	rlf	(___fttol@lval),f
  9437  0BA2  0DAA               	rlf	(___fttol@lval+1),f
  9438  0BA3  0DAB               	rlf	(___fttol@lval+2),f
  9439  0BA4  0DAC               	rlf	(___fttol@lval+3),f
  9440  0BA5  0BA4               	decfsz	(??___fttol+0)+0
  9441  0BA6  2BA0               	goto	u3295
  9442                           opt subtitle "HI-TECH Software Omniscient Code Generator (Lite mode) build 49521"
  9443  0BA7  3001               	movlw	low(01h)
  9444  0BA8  02AD               	subwf	(___fttol@exp1),f
  9445  0BA9  2BAA               	goto	l3614
  9446                           opt subtitle "HI-TECH Software Omniscient Code Generator (Lite mode) build 49521"
  9447                           
  9448  0BAA                     l579:	
  9449                           opt subtitle "HI-TECH Software Omniscient Code Generator (Lite mode) build 49521"
  9450                           
  9451  0BAA                     l3614:	
  9452  0BAA  08AD               	movf	(___fttol@exp1),f
  9453  0BAB  1D03               	skipz
  9454  0BAC  2BAE               	goto	u3301
  9455  0BAD  2BAF               	goto	u3300
  9456  0BAE                     u3301:
  9457  0BAE  2B9E               	goto	l3612
  9458  0BAF                     u3300:
  9459  0BAF  2BB1               	goto	l3616
  9460                           opt subtitle "HI-TECH Software Omniscient Code Generator (Lite mode) build 49521"
  9461  0BB0                     l581:	
  9462  0BB0  2BB1               	goto	l3616
  9463                           opt subtitle "HI-TECH Software Omniscient Code Generator (Lite mode) build 49521"
  9464                           
  9465  0BB1                     l577:	
  9466                           opt subtitle "HI-TECH Software Omniscient Code Generator (Lite mode) build 49521"
  9467                           
  9468  0BB1                     l3616:	
  9469  0BB1  0828               	movf	(___fttol@sign1),w
  9470  0BB2  1D03               	skipz
  9471  0BB3  2BB5               	goto	u3310
  9472  0BB4  2BC1               	goto	l3620
  9473  0BB5                     u3310:
  9474                           opt subtitle "HI-TECH Software Omniscient Code Generator (Lite mode) build 49521"
  9475                           
  9476  0BB5                     l3618:	
  9477  0BB5  09A9               	comf	(___fttol@lval),f
  9478  0BB6  09AA               	comf	(___fttol@lval+1),f
  9479  0BB7  09AB               	comf	(___fttol@lval+2),f
  9480  0BB8  09AC               	comf	(___fttol@lval+3),f
  9481  0BB9  0AA9               	incf	(___fttol@lval),f
  9482  0BBA  1903               	skipnz
  9483  0BBB  0AAA               	incf	(___fttol@lval+1),f
  9484  0BBC  1903               	skipnz
  9485  0BBD  0AAB               	incf	(___fttol@lval+2),f
  9486  0BBE  1903               	skipnz
  9487  0BBF  0AAC               	incf	(___fttol@lval+3),f
  9488  0BC0  2BC1               	goto	l3620
  9489                           opt subtitle "HI-TECH Software Omniscient Code Generator (Lite mode) build 49521"
  9490  0BC1                     l582:	
  9491                           opt subtitle "HI-TECH Software Omniscient Code Generator (Lite mode) build 49521"
  9492                           
  9493  0BC1                     l3620:	
  9494  0BC1  082C               	movf	(___fttol@lval+3),w
  9495  0BC2  00A3               	movwf	(?___fttol+3)
  9496  0BC3  082B               	movf	(___fttol@lval+2),w
  9497  0BC4  00A2               	movwf	(?___fttol+2)
  9498  0BC5  082A               	movf	(___fttol@lval+1),w
  9499  0BC6  00A1               	movwf	(?___fttol+1)
  9500  0BC7  0829               	movf	(___fttol@lval),w
  9501  0BC8  00A0               	movwf	(?___fttol)
  9502                           opt subtitle "HI-TECH Software Omniscient Code Generator (Lite mode) build 49521"
  9503  0BC9  2BCA               	goto	l572
  9504                           opt subtitle "HI-TECH Software Omniscient Code Generator (Lite mode) build 49521"
  9505  0BCA                     l3622:	
  9506                           opt subtitle "HI-TECH Software Omniscient Code Generator (Lite mode) build 49521"
  9507                           
  9508  0BCA                     l572:	
  9509  0BCA  0008               	return
  9510                           opt subtitle "HI-TECH Software Omniscient Code Generator (Lite mode) build 49521"
  9511                           
  9512  0BCB                     	__end_of___fttol:
  9513                           opt subtitle "HI-TECH Software Omniscient Code Generator (Lite mode) build 49521"
  9514                           
  9515                           opt pagewidth 120
  9516                           
  9517                           	opt lm
  9518                           
  9519                           	processor	16LF707
  9520                           clrc	macro
  9521                           	bcf	3,0
  9522                           	endm
  9523                           clrz	macro
  9524                           	bcf	3,2
  9525                           	endm
  9526                           setc	macro
  9527                           	bsf	3,0
  9528                           	endm
  9529                           setz	macro
  9530                           	bsf	3,2
  9531                           	endm
  9532                           skipc	macro
  9533                           	btfss	3,0
  9534                           	endm
  9535                           skipz	macro
  9536                           	btfss	3,2
  9537                           	endm
  9538                           skipnc	macro
  9539                           	btfsc	3,0
  9540                           	endm
  9541                           skipnz	macro
  9542                           	btfsc	3,2
  9543                           	endm
  9544                           indf	equ	0
  9545                           indf0	equ	0
  9546                           pc	equ	2
  9547  169F                     __ptext782:	;psect for function ___lbtoft
  9548                           opt subtitle "HI-TECH Software Omniscient Code Generator (Lite mode) build 49521"
  9549                           
  9550                           opt pagewidth 120
  9551                           
  9552  0021                     	__size_of___lbtoft	equ	__end_of___lbtoft-___lbtoft
  9553                           opt subtitle "HI-TECH Software Omniscient Code Generator (Lite mode) build 49521"
  9554  169F                     ___lbtoft:	
  9555                           opt subtitle "HI-TECH Software Omniscient Code Generator (Lite mode) build 49521"
  9556                           
  9557                           opt pagewidth 120
  9558  169F  1283               	bcf	status, 5	;RP0=0, select bank0
  9559  16A0  1303               	bcf	status, 6	;RP1=0, select bank0
  9560  16A1  00AF               	movwf	(___lbtoft@c)
  9561                           opt subtitle "HI-TECH Software Omniscient Code Generator (Lite mode) build 49521"
  9562                           
  9563  16A2                     l3624:	
  9564  16A2  082F               	movf	(___lbtoft@c),w
  9565  16A3  00AB               	movwf	((??___lbtoft+0)+0)
  9566  16A4  01AC               	clrf	((??___lbtoft+0)+0+1)
  9567  16A5  01AD               	clrf	((??___lbtoft+0)+0+2)
  9568  16A6  082B               	movf	0+(??___lbtoft+0)+0,w
  9569  16A7  00A0               	movwf	(?___ftpack)
  9570  16A8  082C               	movf	1+(??___lbtoft+0)+0,w
  9571  16A9  00A1               	movwf	(?___ftpack+1)
  9572  16AA  082D               	movf	2+(??___lbtoft+0)+0,w
  9573  16AB  00A2               	movwf	(?___ftpack+2)
  9574  16AC  308E               	movlw	(08Eh)
  9575  16AD  00AE               	movwf	(??___lbtoft+3)+0
  9576  16AE  082E               	movf	(??___lbtoft+3)+0,w
  9577  16AF  00A3               	movwf	0+(?___ftpack)+03h
  9578  16B0  01A4               	clrf	0+(?___ftpack)+04h
  9579  16B1  120A  158A  22A8   	fcall	___ftpack
              160A  118A         
  9580  16B6  1283               	bcf	status, 5	;RP0=0, select bank0
  9581  16B7  1303               	bcf	status, 6	;RP1=0, select bank0
  9582  16B8  0820               	movf	(0+(?___ftpack)),w
  9583  16B9  00A8               	movwf	(?___lbtoft)
  9584  16BA  0821               	movf	(1+(?___ftpack)),w
  9585  16BB  00A9               	movwf	(?___lbtoft+1)
  9586  16BC  0822               	movf	(2+(?___ftpack)),w
  9587  16BD  00AA               	movwf	(?___lbtoft+2)
  9588  16BE  2EBF               	goto	l587
  9589                           opt subtitle "HI-TECH Software Omniscient Code Generator (Lite mode) build 49521"
  9590  16BF                     l3626:	
  9591                           opt subtitle "HI-TECH Software Omniscient Code Generator (Lite mode) build 49521"
  9592                           
  9593  16BF                     l587:	
  9594  16BF  0008               	return
  9595                           opt subtitle "HI-TECH Software Omniscient Code Generator (Lite mode) build 49521"
  9596                           
  9597  16C0                     	__end_of___lbtoft:
  9598                           opt subtitle "HI-TECH Software Omniscient Code Generator (Lite mode) build 49521"
  9599                           
  9600                           opt pagewidth 120
  9601                           
  9602                           	opt lm
  9603                           
  9604                           	processor	16LF707
  9605                           clrc	macro
  9606                           	bcf	3,0
  9607                           	endm
  9608                           clrz	macro
  9609                           	bcf	3,2
  9610                           	endm
  9611                           setc	macro
  9612                           	bsf	3,0
  9613                           	endm
  9614                           setz	macro
  9615                           	bsf	3,2
  9616                           	endm
  9617                           skipc	macro
  9618                           	btfss	3,0
  9619                           	endm
  9620                           skipz	macro
  9621                           	btfss	3,2
  9622                           	endm
  9623                           skipnc	macro
  9624                           	btfsc	3,0
  9625                           	endm
  9626                           skipnz	macro
  9627                           	btfsc	3,2
  9628                           	endm
  9629                           indf	equ	0
  9630                           indf0	equ	0
  9631                           pc	equ	2
  9632                           pcl	equ	2
  9633                           status	equ	3
  9634                           fsr	equ	4
  9635                           fsr0	equ	4
  9636  0AA8                     __ptext783:	;psect for function ___ftpack
  9637                           opt subtitle "HI-TECH Software Omniscient Code Generator (Lite mode) build 49521"
  9638                           
  9639                           opt pagewidth 120
  9640                           
  9641  007D                     	__size_of___ftpack	equ	__end_of___ftpack-___ftpack
  9642                           opt subtitle "HI-TECH Software Omniscient Code Generator (Lite mode) build 49521"
  9643  0AA8                     ___ftpack:	
  9644                           opt subtitle "HI-TECH Software Omniscient Code Generator (Lite mode) build 49521"
  9645                           
  9646                           opt pagewidth 120
  9647                           
  9648  0AA8                     l3458:	
  9649  0AA8  1283               	bcf	status, 5	;RP0=0, select bank0
  9650  0AA9  1303               	bcf	status, 6	;RP1=0, select bank0
  9651  0AAA  0823               	movf	(___ftpack@exp),w
  9652  0AAB  1D03               	skipz
  9653  0AAC  2AAE               	goto	u2890
  9654  0AAD  2AB6               	goto	l3462
  9655  0AAE                     u2890:
  9656                           opt subtitle "HI-TECH Software Omniscient Code Generator (Lite mode) build 49521"
  9657  0AAE                     l3460:	
  9658  0AAE  0822               	movf	(___ftpack@arg+2),w
  9659  0AAF  0421               	iorwf	(___ftpack@arg+1),w
  9660  0AB0  0420               	iorwf	(___ftpack@arg),w
  9661  0AB1  1D03               	skipz
  9662  0AB2  2AB4               	goto	u2901
  9663  0AB3  2AB5               	goto	u2900
  9664  0AB4                     u2901:
  9665  0AB4  2ACC               	goto	l3468
  9666  0AB5                     u2900:
  9667  0AB5  2AB6               	goto	l3462
  9668                           opt subtitle "HI-TECH Software Omniscient Code Generator (Lite mode) build 49521"
  9669  0AB6                     l796:	
  9670                           opt subtitle "HI-TECH Software Omniscient Code Generator (Lite mode) build 49521"
  9671                           
  9672  0AB6                     l3462:	
  9673  0AB6  3000               	movlw	0x0
  9674  0AB7  00A0               	movwf	(?___ftpack)
  9675  0AB8  3000               	movlw	0x0
  9676  0AB9  00A1               	movwf	(?___ftpack+1)
  9677  0ABA  3000               	movlw	0x0
  9678  0ABB  00A2               	movwf	(?___ftpack+2)
  9679  0ABC  2B24               	goto	l797
  9680                           opt subtitle "HI-TECH Software Omniscient Code Generator (Lite mode) build 49521"
  9681  0ABD                     l3464:	
  9682  0ABD  2B24               	goto	l797
  9683                           opt subtitle "HI-TECH Software Omniscient Code Generator (Lite mode) build 49521"
  9684  0ABE                     l794:	
  9685                           opt subtitle "HI-TECH Software Omniscient Code Generator (Lite mode) build 49521"
  9686  0ABE  2ACC               	goto	l3468
  9687                           opt subtitle "HI-TECH Software Omniscient Code Generator (Lite mode) build 49521"
  9688  0ABF                     l799:	
  9689                           opt subtitle "HI-TECH Software Omniscient Code Generator (Lite mode) build 49521"
  9690                           
  9691  0ABF                     l3466:	
  9692  0ABF  3001               	movlw	(01h)
  9693  0AC0  00A5               	movwf	(??___ftpack+0)+0
  9694  0AC1  0825               	movf	(??___ftpack+0)+0,w
  9695  0AC2  07A3               	addwf	(___ftpack@exp),f
  9696                           opt subtitle "HI-TECH Software Omniscient Code Generator (Lite mode) build 49521"
  9697  0AC3  3001               	movlw	01h
  9698  0AC4                     u2915:
  9699  0AC4  1003               	clrc
  9700  0AC5  0CA2               	rrf	(___ftpack@arg+2),f
  9701  0AC6  0CA1               	rrf	(___ftpack@arg+1),f
  9702  0AC7  0CA0               	rrf	(___ftpack@arg),f
  9703  0AC8  3EFF               	addlw	-1
  9704  0AC9  1D03               	skipz
  9705  0ACA  2AC4               	goto	u2915
  9706                           opt subtitle "HI-TECH Software Omniscient Code Generator (Lite mode) build 49521"
  9707  0ACB  2ACC               	goto	l3468
  9708                           opt subtitle "HI-TECH Software Omniscient Code Generator (Lite mode) build 49521"
  9709                           
  9710  0ACC                     l798:	
  9711                           opt subtitle "HI-TECH Software Omniscient Code Generator (Lite mode) build 49521"
  9712                           
  9713  0ACC                     l3468:	
  9714  0ACC  30FE               	movlw	low highword(0FE0000h)
  9715  0ACD  0522               	andwf	(___ftpack@arg+2),w
  9716  0ACE  1D03               	btfss	status,2
  9717  0ACF  2AD1               	goto	u2921
  9718  0AD0  2AD2               	goto	u2920
  9719  0AD1                     u2921:
  9720  0AD1  2ABF               	goto	l3466
  9721  0AD2                     u2920:
  9722  0AD2  2AEA               	goto	l801
  9723                           opt subtitle "HI-TECH Software Omniscient Code Generator (Lite mode) build 49521"
  9724  0AD3                     l800:	
  9725                           opt subtitle "HI-TECH Software Omniscient Code Generator (Lite mode) build 49521"
  9726  0AD3  2AEA               	goto	l801
  9727                           opt subtitle "HI-TECH Software Omniscient Code Generator (Lite mode) build 49521"
  9728  0AD4                     l802:	
  9729                           opt subtitle "HI-TECH Software Omniscient Code Generator (Lite mode) build 49521"
  9730                           
  9731  0AD4                     l3470:	
  9732  0AD4  3001               	movlw	(01h)
  9733  0AD5  00A5               	movwf	(??___ftpack+0)+0
  9734  0AD6  0825               	movf	(??___ftpack+0)+0,w
  9735  0AD7  07A3               	addwf	(___ftpack@exp),f
  9736                           opt subtitle "HI-TECH Software Omniscient Code Generator (Lite mode) build 49521"
  9737                           
  9738  0AD8                     l3472:	
  9739  0AD8  3001               	movlw	01h
  9740  0AD9  07A0               	addwf	(___ftpack@arg),f
  9741  0ADA  3000               	movlw	0
  9742  0ADB  1803               	skipnc
  9743  0ADC  3001               movlw 1
  9744  0ADD  07A1               	addwf	(___ftpack@arg+1),f
  9745  0ADE  3000               	movlw	0
  9746  0ADF  1803               	skipnc
  9747  0AE0  3001               movlw 1
  9748  0AE1  07A2               	addwf	(___ftpack@arg+2),f
  9749                           opt subtitle "HI-TECH Software Omniscient Code Generator (Lite mode) build 49521"
  9750                           
  9751  0AE2                     l3474:	
  9752  0AE2  3001               	movlw	01h
  9753  0AE3                     u2935:
  9754  0AE3  1003               	clrc
  9755  0AE4  0CA2               	rrf	(___ftpack@arg+2),f
  9756  0AE5  0CA1               	rrf	(___ftpack@arg+1),f
  9757  0AE6  0CA0               	rrf	(___ftpack@arg),f
  9758  0AE7  3EFF               	addlw	-1
  9759  0AE8  1D03               	skipz
  9760  0AE9  2AE3               	goto	u2935
  9761                           opt subtitle "HI-TECH Software Omniscient Code Generator (Lite mode) build 49521"
  9762                           
  9763                           opt pagewidth 120
  9764  0AEA                     l801:	
  9765                           opt subtitle "HI-TECH Software Omniscient Code Generator (Lite mode) build 49521"
  9766  0AEA  30FF               	movlw	low highword(0FF0000h)
  9767  0AEB  0522               	andwf	(___ftpack@arg+2),w
  9768  0AEC  1D03               	btfss	status,2
  9769  0AED  2AEF               	goto	u2941
  9770  0AEE  2AF0               	goto	u2940
  9771  0AEF                     u2941:
  9772  0AEF  2AD4               	goto	l3470
  9773  0AF0                     u2940:
  9774  0AF0  2AFD               	goto	l3478
  9775                           opt subtitle "HI-TECH Software Omniscient Code Generator (Lite mode) build 49521"
  9776  0AF1                     l803:	
  9777                           opt subtitle "HI-TECH Software Omniscient Code Generator (Lite mode) build 49521"
  9778  0AF1  2AFD               	goto	l3478
  9779                           opt subtitle "HI-TECH Software Omniscient Code Generator (Lite mode) build 49521"
  9780  0AF2                     l805:	
  9781                           opt subtitle "HI-TECH Software Omniscient Code Generator (Lite mode) build 49521"
  9782                           
  9783  0AF2                     l3476:	
  9784  0AF2  3001               	movlw	low(01h)
  9785  0AF3  02A3               	subwf	(___ftpack@exp),f
  9786                           opt subtitle "HI-TECH Software Omniscient Code Generator (Lite mode) build 49521"
  9787  0AF4  3001               	movlw	01h
  9788  0AF5                     u2955:
  9789  0AF5  1003               	clrc
  9790  0AF6  0DA0               	rlf	(___ftpack@arg),f
  9791  0AF7  0DA1               	rlf	(___ftpack@arg+1),f
  9792  0AF8  0DA2               	rlf	(___ftpack@arg+2),f
  9793  0AF9  3EFF               	addlw	-1
  9794  0AFA  1D03               	skipz
  9795  0AFB  2AF5               	goto	u2955
  9796  0AFC  2AFD               	goto	l3478
  9797                           opt subtitle "HI-TECH Software Omniscient Code Generator (Lite mode) build 49521"
  9798                           
  9799  0AFD                     l804:	
  9800                           opt subtitle "HI-TECH Software Omniscient Code Generator (Lite mode) build 49521"
  9801                           
  9802  0AFD                     l3478:	
  9803  0AFD  1FA1               	btfss	(___ftpack@arg+1),(15)&7
  9804  0AFE  2B00               	goto	u2961
  9805  0AFF  2B01               	goto	u2960
  9806  0B00                     u2961:
  9807  0B00  2AF2               	goto	l3476
  9808  0B01                     u2960:
  9809                           opt subtitle "HI-TECH Software Omniscient Code Generator (Lite mode) build 49521"
  9810  0B01                     l806:	
  9811                           opt subtitle "HI-TECH Software Omniscient Code Generator (Lite mode) build 49521"
  9812  0B01  1823               	btfsc	(___ftpack@exp),(0)&7
  9813  0B02  2B04               	goto	u2971
  9814  0B03  2B05               	goto	u2970
  9815  0B04                     u2971:
  9816  0B04  2B0B               	goto	l807
  9817  0B05                     u2970:
  9818                           opt subtitle "HI-TECH Software Omniscient Code Generator (Lite mode) build 49521"
  9819                           
  9820  0B05                     l3480:	
  9821  0B05  30FF               	movlw	0FFh
  9822  0B06  05A0               	andwf	(___ftpack@arg),f
  9823  0B07  307F               	movlw	07Fh
  9824  0B08  05A1               	andwf	(___ftpack@arg+1),f
  9825  0B09  30FF               	movlw	0FFh
  9826  0B0A  05A2               	andwf	(___ftpack@arg+2),f
  9827                           opt subtitle "HI-TECH Software Omniscient Code Generator (Lite mode) build 49521"
  9828  0B0B                     l807:	
  9829                           opt subtitle "HI-TECH Software Omniscient Code Generator (Lite mode) build 49521"
  9830  0B0B  1003               	clrc
  9831  0B0C  0CA3               	rrf	(___ftpack@exp),f
  9832                           opt subtitle "HI-TECH Software Omniscient Code Generator (Lite mode) build 49521"
  9833                           
  9834                           opt pagewidth 120
  9835  0B0D                     l3482:	
  9836  0B0D  0823               	movf	(___ftpack@exp),w
  9837  0B0E  00A5               	movwf	((??___ftpack+0)+0)
  9838  0B0F  01A6               	clrf	((??___ftpack+0)+0+1)
  9839  0B10  01A7               	clrf	((??___ftpack+0)+0+2)
  9840  0B11  3010               	movlw	010h
  9841  0B12                     u2985:
  9842  0B12  1003               	clrc
  9843  0B13  0DA5               	rlf	(??___ftpack+0)+0,f
  9844  0B14  0DA6               	rlf	(??___ftpack+0)+1,f
  9845  0B15  0DA7               	rlf	(??___ftpack+0)+2,f
  9846  0B16                     u2980:
  9847  0B16  3EFF               	addlw	-1
  9848  0B17  1D03               	skipz
  9849  0B18  2B12               	goto	u2985
  9850  0B19  0825               	movf	0+(??___ftpack+0)+0,w
  9851  0B1A  04A0               	iorwf	(___ftpack@arg),f
  9852  0B1B  0826               	movf	1+(??___ftpack+0)+0,w
  9853  0B1C  04A1               	iorwf	(___ftpack@arg+1),f
  9854  0B1D  0827               	movf	2+(??___ftpack+0)+0,w
  9855  0B1E  04A2               	iorwf	(___ftpack@arg+2),f
  9856                           opt subtitle "HI-TECH Software Omniscient Code Generator (Lite mode) build 49521"
  9857                           
  9858  0B1F                     l3484:	
  9859  0B1F  0824               	movf	(___ftpack@sign),w
  9860  0B20  1D03               	skipz
  9861  0B21  2B23               	goto	u2990
  9862  0B22  2B24               	goto	l808
  9863  0B23                     u2990:
  9864                           opt subtitle "HI-TECH Software Omniscient Code Generator (Lite mode) build 49521"
  9865                           
  9866  0B23                     l3486:	
  9867  0B23  17A2               	bsf	(___ftpack@arg)+(23/8),(23)&7
  9868                           opt subtitle "HI-TECH Software Omniscient Code Generator (Lite mode) build 49521"
  9869  0B24                     l808:	
  9870                           opt subtitle "HI-TECH Software Omniscient Code Generator (Lite mode) build 49521"
  9871                           
  9872                           opt pagewidth 120
  9873  0B24                     l797:	
  9874  0B24  0008               	return
  9875                           opt subtitle "HI-TECH Software Omniscient Code Generator (Lite mode) build 49521"
  9876                           
  9877  0B25                     	__end_of___ftpack:
  9878                           opt subtitle "HI-TECH Software Omniscient Code Generator (Lite mode) build 49521"
  9879                           
  9880                           opt pagewidth 120
  9881                           
  9882                           	opt lm
  9883                           
  9884                           	processor	16LF707
  9885                           clrc	macro
  9886                           	bcf	3,0
  9887                           	endm
  9888                           clrz	macro
  9889                           	bcf	3,2
  9890                           	endm
  9891                           setc	macro
  9892                           	bsf	3,0
  9893                           	endm
  9894                           setz	macro
  9895                           	bsf	3,2
  9896                           	endm
  9897                           skipc	macro
  9898                           	btfss	3,0
  9899                           	endm
  9900                           skipz	macro
  9901                           	btfss	3,2
  9902                           	endm
  9903                           skipnc	macro
  9904                           	btfsc	3,0
  9905                           	endm
  9906                           skipnz	macro
  9907                           	btfsc	3,2
  9908                           	endm
  9909                           indf	equ	0
  9910                           indf0	equ	0
  9911                           pc	equ	2
  9912                           pcl	equ	2
  9913                           status	equ	3
  9914                           fsr	equ	4
  9915  0A34                     __ptext784:	;psect for function ___awdiv
  9916                           opt subtitle "HI-TECH Software Omniscient Code Generator (Lite mode) build 49521"
  9917                           
  9918                           opt pagewidth 120
  9919                           
  9920  0074                     	__size_of___awdiv	equ	__end_of___awdiv-___awdiv
  9921                           opt subtitle "HI-TECH Software Omniscient Code Generator (Lite mode) build 49521"
  9922  0A34                     ___awdiv:	
  9923                           opt subtitle "HI-TECH Software Omniscient Code Generator (Lite mode) build 49521"
  9924                           
  9925                           opt pagewidth 120
  9926                           
  9927  0A34                     l3628:	
  9928  0A34  1283               	bcf	status, 5	;RP0=0, select bank0
  9929  0A35  1303               	bcf	status, 6	;RP1=0, select bank0
  9930  0A36  01AC               	clrf	(___awdiv@sign)
  9931                           opt subtitle "HI-TECH Software Omniscient Code Generator (Lite mode) build 49521"
  9932  0A37  1FA7               	btfss	(___awdiv@divisor+1),7
  9933  0A38  2A3A               	goto	u3321
  9934  0A39  2A3B               	goto	u3320
  9935  0A3A                     u3321:
  9936  0A3A  2A43               	goto	l3634
  9937  0A3B                     u3320:
  9938                           opt subtitle "HI-TECH Software Omniscient Code Generator (Lite mode) build 49521"
  9939                           
  9940  0A3B                     l3630:	
  9941  0A3B  09A6               	comf	(___awdiv@divisor),f
  9942  0A3C  09A7               	comf	(___awdiv@divisor+1),f
  9943  0A3D  0AA6               	incf	(___awdiv@divisor),f
  9944  0A3E  1903               	skipnz
  9945  0A3F  0AA7               	incf	(___awdiv@divisor+1),f
  9946                           opt subtitle "HI-TECH Software Omniscient Code Generator (Lite mode) build 49521"
  9947                           
  9948  0A40                     l3632:	
  9949  0A40  01AC               	clrf	(___awdiv@sign)
  9950  0A41  0AAC               	incf	(___awdiv@sign),f
  9951  0A42  2A43               	goto	l3634
  9952                           opt subtitle "HI-TECH Software Omniscient Code Generator (Lite mode) build 49521"
  9953                           
  9954  0A43                     l602:	
  9955                           opt subtitle "HI-TECH Software Omniscient Code Generator (Lite mode) build 49521"
  9956                           
  9957  0A43                     l3634:	
  9958  0A43  1FA9               	btfss	(___awdiv@dividend+1),7
  9959  0A44  2A46               	goto	u3331
  9960  0A45  2A47               	goto	u3330
  9961  0A46                     u3331:
  9962  0A46  2A51               	goto	l3640
  9963  0A47                     u3330:
  9964                           opt subtitle "HI-TECH Software Omniscient Code Generator (Lite mode) build 49521"
  9965                           
  9966  0A47                     l3636:	
  9967  0A47  09A8               	comf	(___awdiv@dividend),f
  9968  0A48  09A9               	comf	(___awdiv@dividend+1),f
  9969  0A49  0AA8               	incf	(___awdiv@dividend),f
  9970  0A4A  1903               	skipnz
  9971  0A4B  0AA9               	incf	(___awdiv@dividend+1),f
  9972                           opt subtitle "HI-TECH Software Omniscient Code Generator (Lite mode) build 49521"
  9973                           
  9974  0A4C                     l3638:	
  9975  0A4C  3001               	movlw	(01h)
  9976  0A4D  00AA               	movwf	(??___awdiv+0)+0
  9977  0A4E  082A               	movf	(??___awdiv+0)+0,w
  9978  0A4F  06AC               	xorwf	(___awdiv@sign),f
  9979  0A50  2A51               	goto	l3640
  9980                           opt subtitle "HI-TECH Software Omniscient Code Generator (Lite mode) build 49521"
  9981                           
  9982  0A51                     l603:	
  9983                           opt subtitle "HI-TECH Software Omniscient Code Generator (Lite mode) build 49521"
  9984                           
  9985  0A51                     l3640:	
  9986  0A51  01AD               	clrf	(___awdiv@quotient)
  9987  0A52  01AE               	clrf	(___awdiv@quotient+1)
  9988                           opt subtitle "HI-TECH Software Omniscient Code Generator (Lite mode) build 49521"
  9989                           
  9990  0A53                     l3642:	
  9991  0A53  0827               	movf	(___awdiv@divisor+1),w
  9992  0A54  0426               	iorwf	(___awdiv@divisor),w
  9993  0A55  1903               	skipnz
  9994  0A56  2A58               	goto	u3341
  9995  0A57  2A59               	goto	u3340
  9996  0A58                     u3341:
  9997  0A58  2A96               	goto	l3662
  9998  0A59                     u3340:
  9999                           opt subtitle "HI-TECH Software Omniscient Code Generator (Lite mode) build 49521"
 10000                           
 10001  0A59                     l3644:	
 10002  0A59  01AB               	clrf	(___awdiv@counter)
 10003  0A5A  0AAB               	incf	(___awdiv@counter),f
 10004                           opt subtitle "HI-TECH Software Omniscient Code Generator (Lite mode) build 49521"
 10005  0A5B  2A68               	goto	l3650
 10006                           opt subtitle "HI-TECH Software Omniscient Code Generator (Lite mode) build 49521"
 10007  0A5C                     l606:	
 10008                           opt subtitle "HI-TECH Software Omniscient Code Generator (Lite mode) build 49521"
 10009                           
 10010  0A5C                     l3646:	
 10011  0A5C  3001               	movlw	01h
 10012                           opt subtitle "HI-TECH Software Omniscient Code Generator (Lite mode) build 49521"
 10013  0A5D                     u3355:
 10014  0A5D  1003               	clrc
 10015  0A5E  0DA6               	rlf	(___awdiv@divisor),f
 10016  0A5F  0DA7               	rlf	(___awdiv@divisor+1),f
 10017  0A60  3EFF               	addlw	-1
 10018  0A61  1D03               	skipz
 10019  0A62  2A5D               	goto	u3355
 10020                           opt subtitle "HI-TECH Software Omniscient Code Generator (Lite mode) build 49521"
 10021                           
 10022  0A63                     l3648:	
 10023  0A63  3001               	movlw	(01h)
 10024  0A64  00AA               	movwf	(??___awdiv+0)+0
 10025  0A65  082A               	movf	(??___awdiv+0)+0,w
 10026  0A66  07AB               	addwf	(___awdiv@counter),f
 10027  0A67  2A68               	goto	l3650
 10028                           opt subtitle "HI-TECH Software Omniscient Code Generator (Lite mode) build 49521"
 10029                           
 10030  0A68                     l605:	
 10031                           opt subtitle "HI-TECH Software Omniscient Code Generator (Lite mode) build 49521"
 10032                           
 10033  0A68                     l3650:	
 10034  0A68  1FA7               	btfss	(___awdiv@divisor+1),(15)&7
 10035  0A69  2A6B               	goto	u3361
 10036  0A6A  2A6C               	goto	u3360
 10037  0A6B                     u3361:
 10038  0A6B  2A5C               	goto	l3646
 10039  0A6C                     u3360:
 10040  0A6C  2A6E               	goto	l3652
 10041                           opt subtitle "HI-TECH Software Omniscient Code Generator (Lite mode) build 49521"
 10042  0A6D                     l607:	
 10043  0A6D  2A6E               	goto	l3652
 10044                           opt subtitle "HI-TECH Software Omniscient Code Generator (Lite mode) build 49521"
 10045                           
 10046  0A6E                     l608:	
 10047                           opt subtitle "HI-TECH Software Omniscient Code Generator (Lite mode) build 49521"
 10048                           
 10049  0A6E                     l3652:	
 10050  0A6E  3001               	movlw	01h
 10051                           opt subtitle "HI-TECH Software Omniscient Code Generator (Lite mode) build 49521"
 10052  0A6F                     u3375:
 10053  0A6F  1003               	clrc
 10054  0A70  0DAD               	rlf	(___awdiv@quotient),f
 10055  0A71  0DAE               	rlf	(___awdiv@quotient+1),f
 10056  0A72  3EFF               	addlw	-1
 10057  0A73  1D03               	skipz
 10058  0A74  2A6F               	goto	u3375
 10059                           opt subtitle "HI-TECH Software Omniscient Code Generator (Lite mode) build 49521"
 10060  0A75  0827               	movf	(___awdiv@divisor+1),w
 10061  0A76  0229               	subwf	(___awdiv@dividend+1),w
 10062  0A77  1D03               	skipz
 10063  0A78  2A7B               	goto	u3385
 10064  0A79  0826               	movf	(___awdiv@divisor),w
 10065  0A7A  0228               	subwf	(___awdiv@dividend),w
 10066  0A7B                     u3385:
 10067  0A7B  1C03               	skipc
 10068  0A7C  2A7E               	goto	u3381
 10069  0A7D  2A7F               	goto	u3380
 10070  0A7E                     u3381:
 10071  0A7E  2A87               	goto	l3658
 10072  0A7F                     u3380:
 10073                           opt subtitle "HI-TECH Software Omniscient Code Generator (Lite mode) build 49521"
 10074                           
 10075  0A7F                     l3654:	
 10076  0A7F  0826               	movf	(___awdiv@divisor),w
 10077  0A80  02A8               	subwf	(___awdiv@dividend),f
 10078  0A81  0827               	movf	(___awdiv@divisor+1),w
 10079  0A82  1C03               	skipc
 10080  0A83  03A9               	decf	(___awdiv@dividend+1),f
 10081  0A84  02A9               	subwf	(___awdiv@dividend+1),f
 10082                           opt subtitle "HI-TECH Software Omniscient Code Generator (Lite mode) build 49521"
 10083                           
 10084  0A85                     l3656:	
 10085  0A85  142D               	bsf	(___awdiv@quotient)+(0/8),(0)&7
 10086  0A86  2A87               	goto	l3658
 10087                           opt subtitle "HI-TECH Software Omniscient Code Generator (Lite mode) build 49521"
 10088                           
 10089  0A87                     l609:	
 10090                           opt subtitle "HI-TECH Software Omniscient Code Generator (Lite mode) build 49521"
 10091                           
 10092  0A87                     l3658:	
 10093  0A87  3001               	movlw	01h
 10094                           opt subtitle "HI-TECH Software Omniscient Code Generator (Lite mode) build 49521"
 10095  0A88                     u3395:
 10096  0A88  1003               	clrc
 10097  0A89  0CA7               	rrf	(___awdiv@divisor+1),f
 10098  0A8A  0CA6               	rrf	(___awdiv@divisor),f
 10099  0A8B  3EFF               	addlw	-1
 10100  0A8C  1D03               	skipz
 10101  0A8D  2A88               	goto	u3395
 10102                           opt subtitle "HI-TECH Software Omniscient Code Generator (Lite mode) build 49521"
 10103                           
 10104  0A8E                     l3660:	
 10105  0A8E  3001               	movlw	low(01h)
 10106  0A8F  02AB               	subwf	(___awdiv@counter),f
 10107  0A90  1D03               	btfss	status,2
 10108  0A91  2A93               	goto	u3401
 10109  0A92  2A94               	goto	u3400
 10110  0A93                     u3401:
 10111  0A93  2A6E               	goto	l3652
 10112  0A94                     u3400:
 10113  0A94  2A96               	goto	l3662
 10114                           opt subtitle "HI-TECH Software Omniscient Code Generator (Lite mode) build 49521"
 10115  0A95                     l610:	
 10116  0A95  2A96               	goto	l3662
 10117                           opt subtitle "HI-TECH Software Omniscient Code Generator (Lite mode) build 49521"
 10118                           
 10119  0A96                     l604:	
 10120                           opt subtitle "HI-TECH Software Omniscient Code Generator (Lite mode) build 49521"
 10121                           
 10122  0A96                     l3662:	
 10123  0A96  082C               	movf	(___awdiv@sign),w
 10124  0A97  1D03               	skipz
 10125  0A98  2A9A               	goto	u3410
 10126  0A99  2AA0               	goto	l3666
 10127  0A9A                     u3410:
 10128                           opt subtitle "HI-TECH Software Omniscient Code Generator (Lite mode) build 49521"
 10129                           
 10130  0A9A                     l3664:	
 10131  0A9A  09AD               	comf	(___awdiv@quotient),f
 10132  0A9B  09AE               	comf	(___awdiv@quotient+1),f
 10133  0A9C  0AAD               	incf	(___awdiv@quotient),f
 10134  0A9D  1903               	skipnz
 10135  0A9E  0AAE               	incf	(___awdiv@quotient+1),f
 10136  0A9F  2AA0               	goto	l3666
 10137                           opt subtitle "HI-TECH Software Omniscient Code Generator (Lite mode) build 49521"
 10138  0AA0                     l611:	
 10139                           opt subtitle "HI-TECH Software Omniscient Code Generator (Lite mode) build 49521"
 10140                           
 10141  0AA0                     l3666:	
 10142  0AA0  082E               	movf	(___awdiv@quotient+1),w
 10143  0AA1  01A7               	clrf	(?___awdiv+1)
 10144  0AA2  07A7               	addwf	(?___awdiv+1)
 10145  0AA3  082D               	movf	(___awdiv@quotient),w
 10146  0AA4  01A6               	clrf	(?___awdiv)
 10147  0AA5  07A6               	addwf	(?___awdiv)
 10148                           opt subtitle "HI-TECH Software Omniscient Code Generator (Lite mode) build 49521"
 10149  0AA6  2AA7               	goto	l612
 10150                           opt subtitle "HI-TECH Software Omniscient Code Generator (Lite mode) build 49521"
 10151  0AA7                     l3668:	
 10152                           opt subtitle "HI-TECH Software Omniscient Code Generator (Lite mode) build 49521"
 10153                           
 10154  0AA7                     l612:	
 10155  0AA7  0008               	return
 10156                           opt subtitle "HI-TECH Software Omniscient Code Generator (Lite mode) build 49521"
 10157                           
 10158  0AA8                     	__end_of___awdiv:
 10159                           opt subtitle "HI-TECH Software Omniscient Code Generator (Lite mode) build 49521"
 10160                           
 10161                           opt pagewidth 120
 10162                           
 10163                           	opt lm
 10164                           
 10165                           	processor	16LF707
 10166                           clrc	macro
 10167                           	bcf	3,0
 10168                           	endm
 10169                           clrz	macro
 10170                           	bcf	3,2
 10171                           	endm
 10172                           setc	macro
 10173                           	bsf	3,0
 10174                           	endm
 10175                           setz	macro
 10176                           	bsf	3,2
 10177                           	endm
 10178                           skipc	macro
 10179                           	btfss	3,0
 10180                           	endm
 10181                           skipz	macro
 10182                           	btfss	3,2
 10183                           	endm
 10184                           skipnc	macro
 10185                           	btfsc	3,0
 10186                           	endm
 10187                           skipnz	macro
 10188                           	btfsc	3,2
 10189                           	endm
 10190                           indf	equ	0
 10191                           indf0	equ	0
 10192                           pc	equ	2
 10193                           pcl	equ	2
 10194                           status	equ	3
 10195  09C6                     __ptext785:	;psect for function ___ftge
 10196                           opt subtitle "HI-TECH Software Omniscient Code Generator (Lite mode) build 49521"
 10197                           
 10198                           opt pagewidth 120
 10199                           
 10200  006E                     	__size_of___ftge	equ	__end_of___ftge-___ftge
 10201                           opt subtitle "HI-TECH Software Omniscient Code Generator (Lite mode) build 49521"
 10202  09C6                     ___ftge:	
 10203                           opt subtitle "HI-TECH Software Omniscient Code Generator (Lite mode) build 49521"
 10204                           
 10205                           opt pagewidth 120
 10206                           
 10207  09C6                     l3670:	
 10208  09C6  1283               	bcf	status, 5	;RP0=0, select bank0
 10209  09C7  1303               	bcf	status, 6	;RP1=0, select bank0
 10210  09C8  1FB2               	btfss	(___ftge@ff1+2),(23)&7
 10211  09C9  29CB               	goto	u3421
 10212  09CA  29CC               	goto	u3420
 10213  09CB                     u3421:
 10214  09CB  29F2               	goto	l3674
 10215  09CC                     u3420:
 10216                           opt subtitle "HI-TECH Software Omniscient Code Generator (Lite mode) build 49521"
 10217                           
 10218  09CC                     l3672:	
 10219  09CC  3000               	movlw	0
 10220  09CD  00B6               	movwf	((??___ftge+0)+0)
 10221  09CE  3000               	movlw	0
 10222  09CF  00B7               	movwf	((??___ftge+0)+0+1)
 10223  09D0  3080               	movlw	080h
 10224  09D1  00B8               	movwf	((??___ftge+0)+0+2)
 10225  09D2  0930               	comf	(___ftge@ff1),w
 10226  09D3  00B9               	movwf	(??___ftge+3)+0
 10227  09D4  0931               	comf	(___ftge@ff1+1),w
 10228  09D5  00BA               	movwf	((??___ftge+3)+0+1)
 10229  09D6  0932               	comf	(___ftge@ff1+2),w
 10230  09D7  00BB               	movwf	((??___ftge+3)+0+2)
 10231  09D8  0AB9               	incf	(??___ftge+3)+0,f
 10232  09D9  1903               	skipnz
 10233  09DA  0ABA               	incf	((??___ftge+3)+0+1),f
 10234  09DB  1903               	skipnz
 10235  09DC  0ABB               	incf	((??___ftge+3)+0+2),f
 10236  09DD  0839               	movf	0+(??___ftge+3)+0,w
 10237  09DE  07B6               	addwf	(??___ftge+0)+0,f
 10238  09DF  083A               	movf	1+(??___ftge+3)+0,w
 10239  09E0  1803               	skipnc
 10240  09E1  0F3A               	incfsz	1+(??___ftge+3)+0,w
 10241  09E2  29E4               	goto	u3431
 10242  09E3  29E5               	goto	u3432
 10243  09E4                     u3431:
 10244  09E4  07B7               	addwf	(??___ftge+0)+1,f
 10245                           opt subtitle "HI-TECH Software Omniscient Code Generator (Lite mode) build 49521"
 10246  09E5                     u3432:
 10247  09E5  083B               	movf	2+(??___ftge+3)+0,w
 10248  09E6  1803               	skipnc
 10249  09E7  0F3B               	incfsz	2+(??___ftge+3)+0,w
 10250  09E8  29EA               	goto	u3433
 10251  09E9  29EB               	goto	u3434
 10252  09EA                     u3433:
 10253  09EA  07B8               	addwf	(??___ftge+0)+2,f
 10254                           opt subtitle "HI-TECH Software Omniscient Code Generator (Lite mode) build 49521"
 10255  09EB                     u3434:
 10256  09EB  0836               	movf	0+(??___ftge+0)+0,w
 10257  09EC  00B0               	movwf	(___ftge@ff1)
 10258  09ED  0837               	movf	1+(??___ftge+0)+0,w
 10259  09EE  00B1               	movwf	(___ftge@ff1+1)
 10260  09EF  0838               	movf	2+(??___ftge+0)+0,w
 10261  09F0  00B2               	movwf	(___ftge@ff1+2)
 10262  09F1  29F2               	goto	l3674
 10263                           opt subtitle "HI-TECH Software Omniscient Code Generator (Lite mode) build 49521"
 10264  09F2                     l629:	
 10265                           opt subtitle "HI-TECH Software Omniscient Code Generator (Lite mode) build 49521"
 10266                           
 10267  09F2                     l3674:	
 10268  09F2  1FB5               	btfss	(___ftge@ff2+2),(23)&7
 10269  09F3  29F5               	goto	u3441
 10270  09F4  29F6               	goto	u3440
 10271  09F5                     u3441:
 10272  09F5  2A1C               	goto	l3678
 10273  09F6                     u3440:
 10274                           opt subtitle "HI-TECH Software Omniscient Code Generator (Lite mode) build 49521"
 10275                           
 10276  09F6                     l3676:	
 10277  09F6  3000               	movlw	0
 10278  09F7  00B6               	movwf	((??___ftge+0)+0)
 10279  09F8  3000               	movlw	0
 10280  09F9  00B7               	movwf	((??___ftge+0)+0+1)
 10281  09FA  3080               	movlw	080h
 10282  09FB  00B8               	movwf	((??___ftge+0)+0+2)
 10283  09FC  0933               	comf	(___ftge@ff2),w
 10284  09FD  00B9               	movwf	(??___ftge+3)+0
 10285  09FE  0934               	comf	(___ftge@ff2+1),w
 10286  09FF  00BA               	movwf	((??___ftge+3)+0+1)
 10287  0A00  0935               	comf	(___ftge@ff2+2),w
 10288  0A01  00BB               	movwf	((??___ftge+3)+0+2)
 10289  0A02  0AB9               	incf	(??___ftge+3)+0,f
 10290  0A03  1903               	skipnz
 10291  0A04  0ABA               	incf	((??___ftge+3)+0+1),f
 10292  0A05  1903               	skipnz
 10293  0A06  0ABB               	incf	((??___ftge+3)+0+2),f
 10294  0A07  0839               	movf	0+(??___ftge+3)+0,w
 10295  0A08  07B6               	addwf	(??___ftge+0)+0,f
 10296  0A09  083A               	movf	1+(??___ftge+3)+0,w
 10297  0A0A  1803               	skipnc
 10298  0A0B  0F3A               	incfsz	1+(??___ftge+3)+0,w
 10299  0A0C  2A0E               	goto	u3451
 10300  0A0D  2A0F               	goto	u3452
 10301  0A0E                     u3451:
 10302  0A0E  07B7               	addwf	(??___ftge+0)+1,f
 10303                           opt subtitle "HI-TECH Software Omniscient Code Generator (Lite mode) build 49521"
 10304  0A0F                     u3452:
 10305  0A0F  083B               	movf	2+(??___ftge+3)+0,w
 10306  0A10  1803               	skipnc
 10307  0A11  0F3B               	incfsz	2+(??___ftge+3)+0,w
 10308  0A12  2A14               	goto	u3453
 10309  0A13  2A15               	goto	u3454
 10310  0A14                     u3453:
 10311  0A14  07B8               	addwf	(??___ftge+0)+2,f
 10312                           opt subtitle "HI-TECH Software Omniscient Code Generator (Lite mode) build 49521"
 10313  0A15                     u3454:
 10314  0A15  0836               	movf	0+(??___ftge+0)+0,w
 10315  0A16  00B3               	movwf	(___ftge@ff2)
 10316  0A17  0837               	movf	1+(??___ftge+0)+0,w
 10317  0A18  00B4               	movwf	(___ftge@ff2+1)
 10318  0A19  0838               	movf	2+(??___ftge+0)+0,w
 10319  0A1A  00B5               	movwf	(___ftge@ff2+2)
 10320  0A1B  2A1C               	goto	l3678
 10321                           opt subtitle "HI-TECH Software Omniscient Code Generator (Lite mode) build 49521"
 10322  0A1C                     l630:	
 10323                           opt subtitle "HI-TECH Software Omniscient Code Generator (Lite mode) build 49521"
 10324                           
 10325  0A1C                     l3678:	
 10326  0A1C  3080               	movlw	080h
 10327  0A1D  06B2               	xorwf	(___ftge@ff1+2),f
 10328                           opt subtitle "HI-TECH Software Omniscient Code Generator (Lite mode) build 49521"
 10329                           
 10330  0A1E                     l3680:	
 10331  0A1E  3080               	movlw	080h
 10332  0A1F  06B5               	xorwf	(___ftge@ff2+2),f
 10333                           opt subtitle "HI-TECH Software Omniscient Code Generator (Lite mode) build 49521"
 10334                           
 10335  0A20                     l3682:	
 10336  0A20  0835               	movf	(___ftge@ff2+2),w
 10337  0A21  0232               	subwf	(___ftge@ff1+2),w
 10338  0A22  1D03               	skipz
 10339  0A23  2A2A               	goto	u3465
 10340  0A24  0834               	movf	(___ftge@ff2+1),w
 10341  0A25  0231               	subwf	(___ftge@ff1+1),w
 10342  0A26  1D03               	skipz
 10343  0A27  2A2A               	goto	u3465
 10344  0A28  0833               	movf	(___ftge@ff2),w
 10345  0A29  0230               	subwf	(___ftge@ff1),w
 10346  0A2A                     u3465:
 10347  0A2A  1803               	skipnc
 10348  0A2B  2A2D               	goto	u3461
 10349  0A2C  2A2E               	goto	u3460
 10350  0A2D                     u3461:
 10351  0A2D  2A30               	goto	l3686
 10352  0A2E                     u3460:
 10353                           opt subtitle "HI-TECH Software Omniscient Code Generator (Lite mode) build 49521"
 10354  0A2E                     l3684:	
 10355  0A2E  1003               	clrc
 10356                           opt subtitle "HI-TECH Software Omniscient Code Generator (Lite mode) build 49521"
 10357  0A2F  2A33               	goto	l631
 10358                           opt subtitle "HI-TECH Software Omniscient Code Generator (Lite mode) build 49521"
 10359  0A30                     l2462:	
 10360                           opt subtitle "HI-TECH Software Omniscient Code Generator (Lite mode) build 49521"
 10361  0A30                     l3686:	
 10362  0A30  1403               	setc
 10363                           opt subtitle "HI-TECH Software Omniscient Code Generator (Lite mode) build 49521"
 10364  0A31  2A33               	goto	l631
 10365                           opt subtitle "HI-TECH Software Omniscient Code Generator (Lite mode) build 49521"
 10366  0A32                     l2464:	
 10367  0A32  2A33               	goto	l631
 10368                           opt subtitle "HI-TECH Software Omniscient Code Generator (Lite mode) build 49521"
 10369  0A33                     l3688:	
 10370                           opt subtitle "HI-TECH Software Omniscient Code Generator (Lite mode) build 49521"
 10371                           
 10372  0A33                     l631:	
 10373  0A33  0008               	return
 10374                           opt subtitle "HI-TECH Software Omniscient Code Generator (Lite mode) build 49521"
 10375                           
 10376  0A34                     	__end_of___ftge:
 10377                           opt subtitle "HI-TECH Software Omniscient Code Generator (Lite mode) build 49521"
 10378                           
 10379                           opt pagewidth 120
 10380                           
 10381                           	opt lm
 10382                           
 10383                           	processor	16LF707
 10384                           clrc	macro
 10385                           	bcf	3,0
 10386                           	endm
 10387                           clrz	macro
 10388                           	bcf	3,2
 10389                           	endm
 10390                           setc	macro
 10391                           	bsf	3,0
 10392                           	endm
 10393                           setz	macro
 10394                           	bsf	3,2
 10395                           	endm
 10396                           skipc	macro
 10397                           	btfss	3,0
 10398                           	endm
 10399                           skipz	macro
 10400                           	btfss	3,2
 10401                           	endm
 10402                           skipnc	macro
 10403                           	btfsc	3,0
 10404                           	endm
 10405                           skipnz	macro
 10406                           	btfsc	3,2
 10407                           	endm
 10408                           indf	equ	0
 10409                           indf0	equ	0
 10410  095C                     __ptext786:	;psect for function _ISR
 10411                           opt subtitle "HI-TECH Software Omniscient Code Generator (Lite mode) build 49521"
 10412                           
 10413                           opt pagewidth 120
 10414                           
 10415  006A                     	__size_of_ISR	equ	__end_of_ISR-_ISR
 10416                           opt subtitle "HI-TECH Software Omniscient Code Generator (Lite mode) build 49521"
 10417  095C                     _ISR:	
 10418                           opt subtitle "HI-TECH Software Omniscient Code Generator (Lite mode) build 49521"
 10419                           
 10420                           opt pagewidth 120
 10421                           
 10422  0004                     __pintentry:
 10423                           opt subtitle "HI-TECH Software Omniscient Code Generator (Lite mode) build 49521"
 10424  0004                     interrupt_function:
 10425                           opt subtitle "HI-TECH Software Omniscient Code Generator (Lite mode) build 49521"
 10426  007E                     	saved_w	set	btemp+0
 10427  0004  00FE               	movwf	saved_w
 10428  0005  0E03               	swapf	status,w
 10429  0006  00F4               	movwf	(??_ISR+4)
 10430  0007  0804               	movf	fsr0,w
 10431  0008  00F5               	movwf	(??_ISR+5)
 10432  0009  080A               	movf	pclath,w
 10433  000A  00F6               	movwf	(??_ISR+6)
 10434  000B  1283               	bcf	status, 5	;RP0=0, select bank0
 10435  000C  1303               	bcf	status, 6	;RP1=0, select bank0
 10436  000D  087F               	movf	btemp+1,w
 10437  000E  00F7               	movwf	(??_ISR+7)
 10438  000F  120A  158A  295C   	ljmp	_ISR
 10439                           opt subtitle "HI-TECH Software Omniscient Code Generator (Lite mode) build 49521"
 10440                           
 10441                           opt pagewidth 120
 10442  095C                     i1l2466:	
 10443                           opt subtitle "HI-TECH Software Omniscient Code Generator (Lite mode) build 49521"
 10444  095C  1C0C               	btfss	(96/8),(96)&7	;volatile
 10445  095D  295F               	goto	u176_21
 10446  095E  2960               	goto	u176_20
 10447  095F                     u176_21:
 10448  095F  29BB               	goto	i1l171
 10449  0960                     u176_20:
 10450                           opt subtitle "HI-TECH Software Omniscient Code Generator (Lite mode) build 49521"
 10451                           
 10452  0960                     i1l2468:	
 10453                           opt subtitle "HI-TECH Software Omniscient Code Generator (Lite mode) build 49521"
 10454                           
 10455  0960  3001               	movlw	(01h)
 10456  0961  00F0               	movwf	(??_ISR+0)+0
 10457  0962  0870               	movf	(??_ISR+0)+0,w
 10458  0963  07FC               	addwf	(_tmr1Counter),f
 10459                           opt subtitle "HI-TECH Software Omniscient Code Generator (Lite mode) build 49521"
 10460                           
 10461  0964                     i1l2470:	
 10462                           opt subtitle "HI-TECH Software Omniscient Code Generator (Lite mode) build 49521"
 10463  0964  3010               	movlw	(010h)
 10464  0965  008F               	movwf	(15)	;volatile
 10465                           opt subtitle "HI-TECH Software Omniscient Code Generator (Lite mode) build 49521"
 10466                           
 10467  0966                     i1l2472:	
 10468                           opt subtitle "HI-TECH Software Omniscient Code Generator (Lite mode) build 49521"
 10469  0966  018E               	clrf	(14)	;volatile
 10470                           opt subtitle "HI-TECH Software Omniscient Code Generator (Lite mode) build 49521"
 10471                           
 10472  0967                     i1l2474:	
 10473                           opt subtitle "HI-TECH Software Omniscient Code Generator (Lite mode) build 49521"
 10474  0967  087C               	movf	(_tmr1Counter),w
 10475  0968  067A               	xorwf	(_tmr1Target),w
 10476  0969  1D03               	skipz
 10477  096A  296C               	goto	u177_21
 10478  096B  296D               	goto	u177_20
 10479  096C                     u177_21:
 10480  096C  29B9               	goto	i1l164
 10481  096D                     u177_20:
 10482                           opt subtitle "HI-TECH Software Omniscient Code Generator (Lite mode) build 49521"
 10483                           
 10484  096D                     i1l2476:	
 10485                           opt subtitle "HI-TECH Software Omniscient Code Generator (Lite mode) build 49521"
 10486  096D  0806               	movf	(6),w	;volatile
 10487  096E  3901               	andlw	(1<<1)-1
 10488  096F  00F0               	movwf	(??_ISR+0)+0
 10489  0970  3006               	movlw	06h
 10490  0971                     u178_25:
 10491  0971  1003               	clrc
 10492  0972  0DF0               	rlf	(??_ISR+0)+0,f
 10493  0973  3EFF               	addlw	-1
 10494  0974  1D03               	skipz
 10495  0975  2971               	goto	u178_25
 10496  0976  0808               	movf	(8),w	;volatile
 10497  0977  00F1               	movwf	(??_ISR+1)+0
 10498  0978  3005               	movlw	05h
 10499  0979                     u179_25:
 10500  0979  1003               	clrc
 10501  097A  0CF1               	rrf	(??_ISR+1)+0,f
 10502  097B  3EFF               	addlw	-1
 10503  097C  1D03               	skipz
 10504  097D  2979               	goto	u179_25
 10505  097E  3007               	movlw	(07h)
 10506  097F  0571               	andwf	0+(??_ISR+1)+0,w
 10507  0980  00F2               	movwf	(??_ISR+2)+0
 10508  0981  085D               	movf	(_jumper_stat),w
 10509  0982  3980               	andlw	080h
 10510  0983  0472               	iorwf	0+(??_ISR+2)+0,w
 10511  0984  0470               	iorwf	0+(??_ISR+0)+0,w
 10512  0985  00F3               	movwf	(??_ISR+3)+0
 10513  0986  0873               	movf	(??_ISR+3)+0,w
 10514  0987  00DD               	movwf	(_jumper_stat)
 10515                           opt subtitle "HI-TECH Software Omniscient Code Generator (Lite mode) build 49521"
 10516                           
 10517  0988  0808               	movf	(8),w	;volatile
 10518  0989  00F0               	movwf	(??_ISR+0)+0
 10519  098A  3006               	movlw	06h
 10520  098B                     u180_25:
 10521  098B  1003               	clrc
 10522  098C  0CF0               	rrf	(??_ISR+0)+0,f
 10523  098D  3EFF               	addlw	-1
 10524  098E  1D03               	skipz
 10525  098F  298B               	goto	u180_25
 10526  0990  0870               	movf	0+(??_ISR+0)+0,w
 10527  0991  3903               	andlw	03h
 10528  0992  00F1               	movwf	(??_ISR+1)+0
 10529  0993  0871               	movf	(??_ISR+1)+0,w
 10530  0994  00DF               	movwf	(_sleep_counter)
 10531                           opt subtitle "HI-TECH Software Omniscient Code Generator (Lite mode) build 49521"
 10532                           
 10533  0995  29A9               	goto	i1l2486
 10534                           opt subtitle "HI-TECH Software Omniscient Code Generator (Lite mode) build 49521"
 10535                           
 10536                           opt pagewidth 120
 10537  0996                     i1l166:	
 10538                           opt subtitle "HI-TECH Software Omniscient Code Generator (Lite mode) build 49521"
 10539                           
 10540  0996  01DE               	clrf	(_sleep_count)
 10541  0997  0ADE               	incf	(_sleep_count),f
 10542                           opt subtitle "HI-TECH Software Omniscient Code Generator (Lite mode) build 49521"
 10543                           
 10544  0998  29B7               	goto	i1l167
 10545                           opt subtitle "HI-TECH Software Omniscient Code Generator (Lite mode) build 49521"
 10546                           
 10547                           opt pagewidth 120
 10548  0999                     i1l168:	
 10549                           opt subtitle "HI-TECH Software Omniscient Code Generator (Lite mode) build 49521"
 10550                           
 10551  0999                     i1l2478:	
 10552                           opt subtitle "HI-TECH Software Omniscient Code Generator (Lite mode) build 49521"
 10553  0999  3014               	movlw	(014h)
 10554  099A  00F0               	movwf	(??_ISR+0)+0
 10555  099B  0870               	movf	(??_ISR+0)+0,w
 10556  099C  00DE               	movwf	(_sleep_count)
 10557                           opt subtitle "HI-TECH Software Omniscient Code Generator (Lite mode) build 49521"
 10558                           
 10559  099D  29B7               	goto	i1l167
 10560                           opt subtitle "HI-TECH Software Omniscient Code Generator (Lite mode) build 49521"
 10561                           
 10562                           opt pagewidth 120
 10563  099E                     i1l169:	
 10564                           opt subtitle "HI-TECH Software Omniscient Code Generator (Lite mode) build 49521"
 10565                           
 10566  099E                     i1l2480:	
 10567                           opt subtitle "HI-TECH Software Omniscient Code Generator (Lite mode) build 49521"
 10568  099E  3028               	movlw	(028h)
 10569  099F  00F0               	movwf	(??_ISR+0)+0
 10570  09A0  0870               	movf	(??_ISR+0)+0,w
 10571  09A1  00DE               	movwf	(_sleep_count)
 10572                           opt subtitle "HI-TECH Software Omniscient Code Generator (Lite mode) build 49521"
 10573                           
 10574  09A2  29B7               	goto	i1l167
 10575                           opt subtitle "HI-TECH Software Omniscient Code Generator (Lite mode) build 49521"
 10576                           
 10577                           opt pagewidth 120
 10578  09A3                     i1l170:	
 10579                           opt subtitle "HI-TECH Software Omniscient Code Generator (Lite mode) build 49521"
 10580                           
 10581  09A3                     i1l2482:	
 10582                           opt subtitle "HI-TECH Software Omniscient Code Generator (Lite mode) build 49521"
 10583  09A3  3078               	movlw	(078h)
 10584  09A4  00F0               	movwf	(??_ISR+0)+0
 10585  09A5  0870               	movf	(??_ISR+0)+0,w
 10586  09A6  00DE               	movwf	(_sleep_count)
 10587                           opt subtitle "HI-TECH Software Omniscient Code Generator (Lite mode) build 49521"
 10588                           
 10589  09A7  29B7               	goto	i1l167
 10590                           opt subtitle "HI-TECH Software Omniscient Code Generator (Lite mode) build 49521"
 10591                           
 10592  09A8                     i1l2484:	
 10593                           opt subtitle "HI-TECH Software Omniscient Code Generator (Lite mode) build 49521"
 10594  09A8  29B7               	goto	i1l167
 10595                           opt subtitle "HI-TECH Software Omniscient Code Generator (Lite mode) build 49521"
 10596                           
 10597  09A9                     i1l165:	
 10598                           opt subtitle "HI-TECH Software Omniscient Code Generator (Lite mode) build 49521"
 10599  09A9                     i1l2486:	
 10600  09A9  085F               	movf	(_sleep_counter),w
 10601                           opt subtitle "HI-TECH Software Omniscient Code Generator (Lite mode) build 49521"
 10602                           
 10603                           opt pagewidth 120
 10604                           
 10605                           	opt lm
 10606                           
 10607                           	processor	16LF707
 10608                           clrc	macro
 10609                           	bcf	3,0
 10610                           	endm
 10611                           clrz	macro
 10612                           	bcf	3,2
 10613                           	endm
 10614  09AA  3A00               	xorlw	0^0	; case 0
 10615  09AB  1903               	skipnz
 10616  09AC  2996               	goto	i1l166
 10617  09AD  3A01               	xorlw	1^0	; case 1
 10618  09AE  1903               	skipnz
 10619  09AF  2999               	goto	i1l2478
 10620  09B0  3A03               	xorlw	2^1	; case 2
 10621  09B1  1903               	skipnz
 10622  09B2  299E               	goto	i1l2480
 10623  09B3  3A01               	xorlw	3^2	; case 3
 10624  09B4  1903               	skipnz
 10625  09B5  29A3               	goto	i1l2482
 10626  09B6  29B7               	goto	i1l167
 10627                           opt subtitle "HI-TECH Software Omniscient Code Generator (Lite mode) build 49521"
 10628                           
 10629                           opt pagewidth 120
 10630                           
 10631  09B7                     i1l167:	
 10632                           opt subtitle "HI-TECH Software Omniscient Code Generator (Lite mode) build 49521"
 10633                           
 10634  09B7  01FC               	clrf	(_tmr1Counter)
 10635                           opt subtitle "HI-TECH Software Omniscient Code Generator (Lite mode) build 49521"
 10636                           
 10637  09B8  147B               	bsf	(_flag/8),(_flag)&7
 10638                           opt subtitle "HI-TECH Software Omniscient Code Generator (Lite mode) build 49521"
 10639                           
 10640  09B9                     i1l164:	
 10641                           opt subtitle "HI-TECH Software Omniscient Code Generator (Lite mode) build 49521"
 10642                           
 10643                           opt pagewidth 120
 10644  09B9  100C               	bcf	(96/8),(96)&7	;volatile
 10645  09BA  29BB               	goto	i1l171
 10646                           opt subtitle "HI-TECH Software Omniscient Code Generator (Lite mode) build 49521"
 10647                           
 10648  09BB                     i1l163:	
 10649                           opt subtitle "HI-TECH Software Omniscient Code Generator (Lite mode) build 49521"
 10650                           
 10651  09BB                     i1l171:	
 10652  09BB  0877               	movf	(??_ISR+7),w
 10653  09BC  00FF               	movwf	btemp+1
 10654  09BD  0876               	movf	(??_ISR+6),w
 10655  09BE  008A               	movwf	pclath
 10656  09BF  0875               	movf	(??_ISR+5),w
 10657  09C0  0084               	movwf	fsr0
 10658  09C1  0E74               	swapf	(??_ISR+4)^0FFFFFF80h,w
 10659  09C2  0083               	movwf	status
 10660  09C3  0EFE               	swapf	saved_w,f
 10661  09C4  0E7E               	swapf	saved_w,w
 10662  09C5  0009               	retfie
 10663                           opt subtitle "HI-TECH Software Omniscient Code Generator (Lite mode) build 49521"
 10664                           
 10665  09C6                     	__end_of_ISR:
 10666                           opt subtitle "HI-TECH Software Omniscient Code Generator (Lite mode) build 49521"
 10667                           
 10668                           opt pagewidth 120
 10669  0000                     __ptext787:	;psect for function _ISR
 10670                           opt subtitle "HI-TECH Software Omniscient Code Generator (Lite mode) build 49521"
 10671  007E                     	btemp set 07Eh
 10672                           opt subtitle "HI-TECH Software Omniscient Code Generator (Lite mode) build 49521"
 10673                           
 10674                           opt pagewidth 120
 10675  007E                     	wtemp0 set btemp


Data Sizes:
    Strings     114
    Constant    145
    Data        16
    BSS         47
    Persistent  0
    Stack       0

Auto Spaces:
    Space          Size  Autos    Used
    COMMON           14      8      13
    BANK0            80     51      78
    BANK1            80      0      32
    BANK3            96      0       0
    BANK2            91      0       0

Pointer List with Targets:

    ?___lbtoft	float  size(1) Largest target is 0

    ?___ftpack	float  size(1) Largest target is 0

    ?___lwdiv	unsigned int  size(1) Largest target is 0

    ?___lwmod	unsigned int  size(1) Largest target is 0

    ?___ftdiv	float  size(1) Largest target is 0

    ?___ftmul	float  size(1) Largest target is 0

    ?___wmul	unsigned int  size(1) Largest target is 0

    ?___awdiv	int  size(1) Largest target is 0

    ?___fttol	long  size(1) Largest target is 0

    printf@f	PTR const unsigned char  size(2) Largest target is 32
		 -> STR_9(CODE[5]), STR_8(CODE[12]), Receive_Packet@rx_buf(BANK0[32]), STR_7(CODE[5]), 
		 -> STR_6(CODE[24]), STR_5(CODE[17]), STR_4(CODE[3]), STR_3(CODE[3]), 
		 -> STR_2(CODE[10]), STR_1(CODE[26]), 

    ?_printf	int  size(1) Largest target is 0

    printf@ap	PTR void [1] size(1) Largest target is 2
		 -> ?_printf(BANK0[2]), 

    S1304$_cp	PTR const unsigned char  size(1) Largest target is 0

    _val._str._cp	PTR const unsigned char  size(1) Largest target is 0

    SPI_Write_Buf@pBuf	PTR unsigned char  size(1) Largest target is 12
		 -> RFM70_Initialize@WriteArr(BANK0[12]), tx_buf(BANK0[10]), 

    Send_Packet@pbuf	PTR unsigned char  size(1) Largest target is 10
		 -> tx_buf(BANK0[10]), 


Critical Paths under _main in COMMON

    None.

Critical Paths under _ISR in COMMON

    None.

Critical Paths under _main in BANK0

    _main->_Send_Packet
    _RFM70_Initialize->_SwitchCFG
    _rfm70setPowerdownMode->_SPI_Read_Reg
    _Send_Packet->_printf
    _rfm70TxDataSentErrorInterrupt->_SPI_Read_Reg
    _SwitchToRxMode->_SPI_Read_Reg
    _rfm70TxDataSentInterrupt->_SPI_Read_Reg
    _SPI_Write_Buf->_SPI_RW
    _printf->___lwmod
    _sleep->___ftge
    _SwitchToTxMode->_SPI_Read_Reg
    _SwitchCFG->_SPI_Read_Reg
    _SPI_Write_Reg->_SPI_RW
    _SPI_Read_Reg->_SPI_RW
    ___ftmul->___ftpack
    ___ftdiv->___ftpack
    ___lwmod->___lwdiv
    ___lbtoft->___ftpack
    ___awdiv->___wmul
    ___ftge->___lbtoft

Critical Paths under _ISR in BANK0

    None.

Critical Paths under _main in BANK1

    None.

Critical Paths under _ISR in BANK1

    None.

Critical Paths under _main in BANK3

    None.

Critical Paths under _ISR in BANK3

    None.

Critical Paths under _main in BANK2

    None.

Critical Paths under _ISR in BANK2

    None.

Call Graph Tables:

 ---------------------------------------------------------------------------------
 (Depth) Function   	        Calls       Base Space   Used Autos Params    Refs
 ---------------------------------------------------------------------------------
 (0) _main                                                13     9      4    7688
                                             38 BANK0     13     9      4
                          _boardInit
                            _spiInit
                           _uartInit
                            _adcInit
              _rfm70setPowerdownMode
                        _adcReadVcap
                   _adcReadVsupercap
                           ___lbtoft
                             ___ftge
                   _RFM70_Initialize
                            ___fttol
                        _adcReadTemp
                        _Send_Packet
                             _printf
                              _sleep
                             ___wmul
                            ___awdiv
 ---------------------------------------------------------------------------------
 (1) _RFM70_Initialize                                    21    21      0    1895
                                              9 BANK0     21    21      0
                          _SwitchCFG
                      _SPI_Write_Reg
                      _SPI_Write_Buf
                       _SPI_Read_Reg
 ---------------------------------------------------------------------------------
 (1) _adcReadVsupercap                                     3     3      0      23
                                              0 BANK0      3     3      0
 ---------------------------------------------------------------------------------
 (1) _rfm70setPowerdownMode                                3     3      0     180
                                              6 BANK0      3     3      0
                       _SPI_Read_Reg
                      _SPI_Write_Reg
 ---------------------------------------------------------------------------------
 (1) _adcInit                                              0     0      0       0
 ---------------------------------------------------------------------------------
 (1) _uartInit                                             0     0      0       0
 ---------------------------------------------------------------------------------
 (1) _spiInit                                              2     2      0       0
                                              0 BANK0      2     2      0
 ---------------------------------------------------------------------------------
 (1) _boardInit                                            0     0      0       0
 ---------------------------------------------------------------------------------
 (1) _adcReadTemp                                          3     3      0      23
                                              0 BANK0      3     3      0
 ---------------------------------------------------------------------------------
 (1) _Send_Packet                                          8     6      2    2006
                                             30 BANK0      8     6      2
                     _SwitchToTxMode
                       _SPI_Read_Reg
                             _printf
                      _SPI_Write_Buf
           _rfm70TxDataSentInterrupt
                     _SwitchToRxMode
      _rfm70TxDataSentErrorInterrupt
 ---------------------------------------------------------------------------------
 (2) _rfm70TxDataSentErrorInterrupt                        1     1      0     133
                                              6 BANK0      1     1      0
                       _SPI_Read_Reg
                      _SPI_Write_Reg
 ---------------------------------------------------------------------------------
 (2) _SwitchToRxMode                                       2     2      0     202
                                              6 BANK0      2     2      0
                      _SPI_Write_Reg
                       _SPI_Read_Reg
 ---------------------------------------------------------------------------------
 (2) _rfm70TxDataSentInterrupt                             1     1      0     133
                                              6 BANK0      1     1      0
                       _SPI_Read_Reg
                      _SPI_Write_Reg
 ---------------------------------------------------------------------------------
 (2) _SPI_Write_Buf                                        5     3      2     113
                                              3 BANK0      5     3      2
                             _SPI_RW
 ---------------------------------------------------------------------------------
 (1) _printf                                              16    12      4    1000
                                             14 BANK0     16    12      4
                              _putch
                            ___lwdiv
                            ___lwmod
 ---------------------------------------------------------------------------------
 (1) _sleep                                                3     3      0    1503
                                             28 BANK0      3     3      0
                        _adcReadVcap
                            ___fttol
                             ___ftge
                            ___ftmul
                            ___ftdiv
 ---------------------------------------------------------------------------------
 (2) _adcReadVcap                                          3     3      0      23
                                              0 BANK0      3     3      0
 ---------------------------------------------------------------------------------
 (2) _putch                                                1     1      0      22
                                              0 BANK0      1     1      0
 ---------------------------------------------------------------------------------
 (2) _SwitchToTxMode                                       2     2      0     179
                                              6 BANK0      2     2      0
                      _SPI_Write_Reg
                       _SPI_Read_Reg
 ---------------------------------------------------------------------------------
 (2) _SwitchCFG                                            3     3      0     245
                                              6 BANK0      3     3      0
                       _SPI_Read_Reg
                      _SPI_Write_Reg
 ---------------------------------------------------------------------------------
 (3) _SPI_Write_Reg                                        2     1      1      66
                                              3 BANK0      2     1      1
                             _SPI_RW
 ---------------------------------------------------------------------------------
 (3) _SPI_Read_Reg                                         3     3      0      67
                                              3 BANK0      3     3      0
                             _SPI_RW
 ---------------------------------------------------------------------------------
 (4) _SPI_RW                                               3     3      0      22
                                              0 BANK0      3     3      0
 ---------------------------------------------------------------------------------
 (2) ___ftmul                                             16    10      6     535
                                              8 BANK0     16    10      6
                           ___ftpack
 ---------------------------------------------------------------------------------
 (2) ___ftdiv                                             16    10      6     489
                                              8 BANK0     16    10      6
                           ___ftpack
 ---------------------------------------------------------------------------------
 (1) ___wmul                                               6     2      4      92
                                              0 BANK0      6     2      4
 ---------------------------------------------------------------------------------
 (2) ___lwdiv                                              8     4      4     162
                                              0 BANK0      8     4      4
 ---------------------------------------------------------------------------------
 (2) ___lwmod                                              6     2      4     159
                                              8 BANK0      6     2      4
                            ___lwdiv (ARG)
 ---------------------------------------------------------------------------------
 (2) ___fttol                                             14    10      4     252
                                              0 BANK0     14    10      4
 ---------------------------------------------------------------------------------
 (1) ___lbtoft                                             8     5      3     231
                                              8 BANK0      8     5      3
                           ___ftpack
 ---------------------------------------------------------------------------------
 (3) ___ftpack                                             8     3      5     209
                                              0 BANK0      8     3      5
 ---------------------------------------------------------------------------------
 (1) ___awdiv                                              9     5      4     300
                                              6 BANK0      9     5      4
                             ___wmul (ARG)
 ---------------------------------------------------------------------------------
 (2) ___ftge                                              12     6      6     136
                                             16 BANK0     12     6      6
                           ___lbtoft (ARG)
                   _adcReadVsupercap (ARG)
 ---------------------------------------------------------------------------------
 Estimated maximum stack depth 4
 ---------------------------------------------------------------------------------
 (Depth) Function   	        Calls       Base Space   Used Autos Params    Refs
 ---------------------------------------------------------------------------------
 (5) _ISR                                                  8     8      0       0
                                              0 COMMON     8     8      0
 ---------------------------------------------------------------------------------
 Estimated maximum stack depth 5
 ---------------------------------------------------------------------------------

 Call Graph Graphs:

 _main (ROOT)
   _boardInit
   _spiInit
   _uartInit
   _adcInit
   _rfm70setPowerdownMode
     _SPI_Read_Reg
       _SPI_RW
     _SPI_Write_Reg
       _SPI_RW
   _adcReadVcap
   _adcReadVsupercap
   ___lbtoft
     ___ftpack
   ___ftge
     ___lbtoft (ARG)
       ___ftpack
     _adcReadVsupercap (ARG)
   _RFM70_Initialize
     _SwitchCFG
       _SPI_Read_Reg
         _SPI_RW
       _SPI_Write_Reg
         _SPI_RW
     _SPI_Write_Reg
       _SPI_RW
     _SPI_Write_Buf
       _SPI_RW
     _SPI_Read_Reg
       _SPI_RW
   ___fttol
   _adcReadTemp
   _Send_Packet
     _SwitchToTxMode
       _SPI_Write_Reg
         _SPI_RW
       _SPI_Read_Reg
         _SPI_RW
     _SPI_Read_Reg
       _SPI_RW
     _printf
       _putch
       ___lwdiv
       ___lwmod
         ___lwdiv (ARG)
     _SPI_Write_Buf
       _SPI_RW
     _rfm70TxDataSentInterrupt
       _SPI_Read_Reg
         _SPI_RW
       _SPI_Write_Reg
         _SPI_RW
     _SwitchToRxMode
       _SPI_Write_Reg
         _SPI_RW
       _SPI_Read_Reg
         _SPI_RW
     _rfm70TxDataSentErrorInterrupt
       _SPI_Read_Reg
         _SPI_RW
       _SPI_Write_Reg
         _SPI_RW
   _printf
     _putch
     ___lwdiv
     ___lwmod
       ___lwdiv (ARG)
   _sleep
     _adcReadVcap
     ___fttol
     ___ftge
       ___lbtoft (ARG)
         ___ftpack
       _adcReadVsupercap (ARG)
     ___ftmul
       ___ftpack
     ___ftdiv
       ___ftpack
   ___wmul
   ___awdiv
     ___wmul (ARG)

 _ISR (ROOT)

 Address spaces:
Name               Size   Autos  Total    Cost      Usage
BANK3               60      0       0      10        0.0%
BITBANK3            60      0       0       9        0.0%
SFR3                 0      0       0       4        0.0%
BITSFR3              0      0       0       4        0.0%
BANK2               5B      0       0      12        0.0%
BITBANK2            5B      0       0      11        0.0%
SFR2                 0      0       0       5        0.0%
BITSFR2              0      0       0       5        0.0%
BANK1               50      0      20       8       40.0%
BITBANK1            50      0       0       7        0.0%
SFR1                 0      0       0       2        0.0%
BITSFR1              0      0       0       2        0.0%
BANK0               50     33      4E       5       97.5%
BITBANK0            50      0       0       4        0.0%
SFR0                 0      0       0       1        0.0%
BITSFR0              0      0       0       1        0.0%
COMMON               E      8       D       1       92.9%
BITCOMMON            E      0       1       0        7.1%
CODE                 0      0       0       0        0.0%
DATA                 0      0      7F       6        0.0%
ABS                  0      0      7B       3        0.0%
NULL                 0      0       0       0        0.0%
STACK                0      0       4       2        0.0%


Microchip Technology PIC Macro Assembler V1.12 build 49521 
Symbol Table                                                                                   Tue May 28 17:41:40 2013

                                     pc 0002                             __CFG_CP$OFF 0000  
                           _SSPSTATbits 0094                            ___awdiv@sign 002C  
                                    fsr 0004                     ___wmul@multiplicand 0022  
        __size_of_rfm70setPowerdownMode 0025           __end_of_rfm70setPowerdownMode 16E5  
             __size_of_RFM70_Initialize 0310                 __size_of_SwitchToRxMode 003F  
                                   l200 0FF3                                     l201 0FF2  
                                   l202 0FFF                                     l210 083E  
                                   l203 0FFF                                     l211 0843  
                                   l212 0850                                     l221 0861  
                                   l206 0829                                     l222 0861  
                                   l215 17B7                                     l207 0829  
                                   l223 0865                                     l320 1647  
                                   l216 17B7                                     l208 082D  
                                   l224 0876                                     l217 17BC  
                                   l209 083E                                     l241 1616  
                                   l225 0876                                     l250 15C3  
                                   l218 17C9                                     l226 087B  
                                   l323 1600                                     l251 15C3  
                                   l227 0888                                     l252 15C8  
                                   l420 0557                                     l244 162E  
                                   l404 16D8                                     l180 041F  
                                   l317 163E                                     l253 15CA  
                                   l421 0564                                     l341 08C7  
                                   l405 16DA                                     l318 163E  
                                   l326 1660                                     l422 0573  
                                   l430 056B                                     l270 0BEF  
                                   l406 16E4                                     l190 0545  
                                   l182 03FD                                     l174 035C  
                                   l319 1645                                     l351 1781  
                                   l431 05B8                                     l423 0566  
                                   l335 1731                                     l271 0C13  
                                   l247 15BE                                     l191 054C  
                                   l183 04E0                                     l175 035A  
                                   l352 1796                                     l344 170E  
                                   l424 06FF                                     l440 05FD  
                                   l432 05B7                                     l336 171D  
                                   l272 0C78                                     l360 006D  
                                   l192 054D                                     l184 047F  
               __size_of_SwitchToTxMode 002A                                     l441 0607  
                                   l433 05C5                                     l425 0567  
                                   l337 1737                                     l273 0C42  
                                   l361 008B                                     l193 054D  
                                   l185 04DF                                     l177 0390  
                                   l610 0A95                                     l602 0A43  
                                   l450 068C                                     l434 0635  
                                   l442 0633                                     l426 0568  
                                   l338 1738                                     l274 0C5C  
                                   l370 01E4                                     l362 00A4  
                                   l186 04CB                                     l178 0391  
                                   l611 0AA0                                     l603 0A51  
                                   l347 1796                                     l419 06E2  
                                   l451 06E1                                     l443 0628  
                                   l435 05C6                                     l427 0597  
                                   l275 0C77                                     l371 0179  
                                   l363 00C2                                     l187 04DE  
                                   l179 03A2                                     l612 0AA7  
                                   l604 0A96                                     l196 0FF4  
                                   l452 06FE                                     l444 064B  
                                   l436 05D0                                     l428 0569  
                                   l268 0C89                                     l276 0C7F  
                                   l292 0D49                                     l380 02E8  
                                   l372 01C8                                     l364 00DB  
                                   l188 0539                                     l605 0A68  
                                   l349 178B                                     l197 0F81  
                                   l445 06D4                                     l437 05FC  
                                   l429 0569                                     l453 06FF  
                                   l269 0C0C                                     l277 0C89  
                                   l381 0324                                     l373 01F0  
                                   l365 00F9                                     l189 04FC  
                                   l630 0A1C                                     l606 0A5C  
                                   l470 091A                                     l462 173E  
                                   l550 0D65                                     l198 0FC1  
                                   l446 0652                                     l438 05F1  
                                   l390 167F                                     l374 0265  
                                   l366 0122                                     l358 0034  
                                   l631 0A33                                     l607 0A6D  
                                   l471 092B                                     l463 1748  
                                   l551 0E11                                     l199 0FC0  
                                   l447 06C4                                     l439 063E  
                                   l391 167F                                     l375 01F9  
                                   l367 0130                                     l359 0064  
                                   l608 0A6E                                     l800 0AD3  
                                   l480 08D3                                     l472 092C  
                                   l464 175D                                     l552 0D7E  
                                   l560 0E2D                                     l448 0653  
                                   l376 024A                                     l368 015F  
                                   l609 0A87                                     l801 0AEA  
                                   l481 08E4                                     l473 0945  
                                   l465 1764                                     l553 0DC4  
                                   l561 0EFF                                     l449 06CD  
                                   l377 026E                                     l369 0170  
                                   l802 0AD4                                     l482 08E5  
                                   l474 0953                                     l554 0DE6  
                                   l562 0E46                                     l394 169B  
                                   l378 028C                                     l803 0AF1  
                                   l571 0B42                                     l483 08F6  
                                   l475 095B                                     l555 0DF5  
                                   l563 0E86                                     l395 169E  
                                   l379 02A5                                     l804 0AFD  
                                   l580 0B9E                                     l572 0BCA  
                                   l484 0904                                     l468 0954  
                                   l564 0E9B                                     l396 169E  
                                   l629 09F2                                     l805 0AF2  
                                   l581 0BB0                                     l573 0B8D  
                                   l485 090C                                     l469 0926  
                                   l565 0EB2                                     l389 167C  
                                   l806 0B01                                     l582 0BC1  
                                   l574 0B79                                     l478 0905  
                                   l566 0EB7                                     l807 0B0B  
                                   l575 0B7A                                     l479 08DF  
                                   l567 0ECC                                     l808 0B24  
                                   l576 0B8C                                     l568 0EE3  
                                   l577 0BB1                                     l578 0B9D  
                                   l587 16BF                                     l579 0BAA  
                                   l794 0ABE                                     l796 0AB6  
                                   l797 0B24                                     l798 0ACC  
                                   l799 0ABF                                     _GIE 005F  
                                   _ISR 095C                                     fsr0 0004  
                                   indf 0000                                    ?_ISR 0070  
                          ___ftdiv@cntr 0032                            ___ftdiv@sign 0037  
                                  l3000 028C                                    l3010 02DD  
                                  l3002 029A                                    l3100 05B1  
                                  l3020 0310                                    l3012 02E1  
                                  l3004 029D                                    l3110 05D0  
                                  l3102 05B8                                    l3030 0831  
                                  l3022 031B                                    l3006 02A4  
                                  l3014 02E8                                    l3200 0FA4  
                                  l3120 0606                                    l3112 05F0  
                                  l3104 05C0                                    l3040 0849  
                                  l3032 083A                                    l3024 0321  
                                  l3016 02ED                                    l3008 02A5  
                                  l3210 0FF8                                    l3202 0FC1  
                                  l3130 0634                                    l3122 0607  
                                  l3114 05F1                                    l3106 05C8  
                                  l3050 0BEB                                    l3042 0850  
                                  l3034 0843                                    l3026 0819  
                                  l3018 02FB                                    l3212 0FFA  
                                  l3204 0FD6                                    l3140 0653  
                                  l3124 0627                                    l3116 05F5  
                                  l3108 05CF                                    l3132 0635  
                                  l3300 169D                                    l3060 0C1C  
                                  l3052 0BEF                                    l3044 0BCE  
                                  l3036 0847                                    l3028 081C  
                                  l2500 0349                                    l3230 1701  
                                  l3214 0FFD                                    l3206 0FF5  
                                  l3142 068C                                    l3150 06CD  
                                  l3126 0628                                    l3118 05FF  
                                  l3134 063E                                    l3070 0C42  
                                  l3062 0C2D                                    l3054 0C05  
                                  l3046 0BDE                                    l3038 0848  
                                  l2510 039D                                    l2502 035C  
                                  l3400 173E                                    l3240 165D  
                                  l3232 170B                                    l3224 16E5  
                                  l3216 15C2                                    l3208 0FF7  
                                  l3160 0F23                                    l3144 06B3  
                                  l3152 06D4                                    l3136 0644  
                                  l3128 062C                                    l3080 0550  
                                  l3072 0C4C                                    l3064 0C30  
                                  l3056 0C0C                                    l3048 0BE2  
                                  l2600 04FC                                    l2520 03BA  
                                  l2512 03A2                                    l2504 036A  
                                  l3410 090D                                    l3402 1742  
                                  l3242 165E                                    l3234 164B  
                                  l3226 16EE                                    l3218 15C8  
                                  l3170 0F35                                    l3162 0F29  
                                  l3146 06C3                                    l3138 064B  
                                  l3090 0573                                    l3082 0557  
                                  l3154 06E2                                    l3250 1719  
                                  l3074 0C66                                    l3066 0C35  
                                  l3058 0C13                                    l2610 0C90  
                                  l2602 0501                                    l2530 03E1  
                                  l2522 03BE                                    l2514 03A8  
                                  l2506 036E                                    l3420 0926  
                                  l3412 0911                                    l3404 174F  
                                  l3500 0D7E                                    l3244 1660  
                                  l3236 164C                                    l3228 16FC  
                                  l3180 0F52                                    l3172 0F49  
                                  l3164 0F2D                                    l3156 0F00  
                                  l3148 06C4                                    l3092 059D  
                                  l3084 055D                                    l3252 171D  
                                  l3260 1661                                    l3076 0C78  
                                  l3068 0C38                                    l2700 0CF7  
                                  l2620 0C9B                                    l2612 0C93  
                                  l2604 0539                                    l2540 0408  
                                  l2532 03F2                                    l2524 03C2  
                                  l2516 03B2                                    l2508 0391  
                                  l2462 0A30                                    l3430 094C  
                                  l3422 092C                                    l3414 0917  
                                  l3406 175D                                    l3510 0DB1  
                                  l3502 0D84                                    l3238 1652  
                                  l3190 0F71                                    l3182 0F55  
                                  l3174 0F4B                                    l3166 0F30  
                                  l3158 0F1D                                    l3094 05A5  
                                  l3086 056B                                    l3254 1726  
                                  l3246 1712                                    l3262 166E  
                                  l3270 167C                                    l3078 0C7F  
                                  l2710 0D05                                    l2702 0CFB  
                                  l2630 0CA6                                    l2622 0C9C  
                                  l2614 0C94                                    l2606 0545  
                                  l2550 0444                                    l2542 040C  
                                  l2534 03F8                                    l2526 03C6  
                                  l2518 03B6                                    l2464 0A32  
                                  l3600 0B6F                                    l3440 08D3  
                                  l3424 093D                                    l3416 091A  
                                  l3432 0954                                    l3408 1764  
                                  l3520 0DE4                                    l3512 0DB8  
                                  l3504 0D89                                    l3192 0F73  
                                  l3184 0F5F                                    l3176 0F4D  
                                  l3168 0F32                                    l3096 05A9  
                                  l3088 0572                                    l3256 172C  
                                  l3248 1713                                    l3272 167E  
                                  l3264 1678                                    l3280 08A7  
                                  l2720 0D10                                    l2712 0D08  
                                  l2704 0CFC                                    l2640 0CB5  
                                  l2632 0CA9                                    l2624 0C9D  
                                  l2616 0C97                                    l2608 0C8A  
                                  l2800 161B                                    l2560 0465  
                                  l2552 0448                                    l2544 041A  
                                  l2536 03FD                                    l2528 03D0  
                                  l3610 0B9C                                    l3602 0B78  
                                  l3450 08F6                                    l3442 08DA  
                                  l3434 095B                                    l3426 0943  
                                  l3418 0921                                    l3522 0DE6  
                                  l3514 0DC4                                    l3506 0D9B  
                                  l3530 0E12                                    l3370 1645  
                                  l3362 15EE                                    l3194 0F75  
                                  l3186 0F6E                                    l3178 0F4F  
                                  l3098 05AD                                    l3258 1731  
                                  l3266 167A                                    l3282 08B5  
                                  l3274 0889                                    l3290 168D  
                                  l2730 0D17                                    l2722 0D13  
                                  l2714 0D09                                    l2706 0D00  
                                  l2650 0CBC                                    l2642 0CB8  
                                  l2634 0CAC                                    l2626 0CA0  
                                  l2618 0C9A                                    l2802 161F  
                                  l2810 1605                                    l2570 049E  
                                  l2562 0473                                    l2554 0449  
                                  l2538 0407                                    l2546 041F  
                                  l2490 032F                                    l3460 0AAE  
                                  l3620 0BC1                                    l3612 0B9E  
                                  l3604 0B7A                                    l3452 08FD  
                                  l3444 08DF                                    l3436 08C8  
                                  l3428 0945                                    l3524 0DEE  
                                  l3516 0DCC                                    l3508 0DAD  
                                  l3540 0E45                                    l3532 0E25  
                                  l3372 1647                                    l3364 15EF  
                                  l3380 177C                                    l3196 0F7D  
                                  l3188 0F6F                                    l3268 167B  
                                  l3284 08BA                                    l3276 0892  
                                  l3292 1697                                    l2740 0D1E  
                                  l2732 0D18                                    l2724 0D14  
                                  l2716 0D0A                                    l2708 0D02  
                                  l2660 0CC3                                    l2652 0CBD  
                                  l2644 0CB9                                    l2636 0CAF  
                                  l2628 0CA3                                    l2804 1622  
                                  l2820 1610                                    l2812 1607  
                                  l2900 008B                                    l2580 04C0  
                                  l2572 04A6                                    l2564 0476  
                                  l2556 045D                                    l2548 043C  
                                  l2492 0334                                    l3630 0A3B  
                                  l3470 0AD4                                    l3462 0AB6  
                                  l3622 0BCA                                    l3614 0BAA  
                                  l3606 0B8D                                    l3446 08E5  
                                  l3438 08D0                                    l3454 0905  
                                  l3526 0DF5                                    l3518 0DDA  
                                  l3550 0E7B                                    l3542 0E46  
                                  l3534 0E2C                                    l3366 15FD  
                                  l3382 1781                                    l3374 1768  
                                  l3198 0F8F                                    l3286 08C4  
                                  l3278 089D                                    l3294 1699  
                                  l2750 0D25                                    l2742 0D1F  
                                  l2734 0D19                                    l2726 0D15  
                                  l2718 0D0D                                    l2670 0CD2  
                                  l2662 0CC6                                    l2654 0CC0  
                                  l2646 0CBA                                    l2638 0CB2  
                                  l2806 1623                                    l2822 1613  
                                  l2814 160A                                    l2830 16D3  
                                  l2910 00B7                                    l2902 0099  
                                  l2590 04EC                                    l2582 04C8  
                                  l2574 04AA                                    l2566 047C  
                                  l2558 0461                                    l2494 0339  
                                  l3640 0A51                                    l3632 0A40  
                                  l3480 0B05                                    l3472 0AD8  
                                  l3464 0ABD                                    l3624 16A2  
                                  l3608 0B93                                    l3616 0BB1  
                                  l3456 090C                                    l3448 08EF  
                                  l3528 0E11                                    l3560 0EA3  
                                  l3552 0E81                                    l3544 0E73  
                                  l3536 0E2D                                    l3368 1632  
                                  l3384 1786                                    l3376 1773  
                                  l2840 17A9                                    l3296 169A  
                                  l3288 1680                                    l2760 0D2A  
                                  l2752 0D26                                    l2744 0D20  
                                  l2736 0D1C                                    l2728 0D16  
                                  l2680 0CE1                                    l2672 0CD5  
                                  l2664 0CC9                                    l2656 0CC1  
                                  l2648 0CBB                                    l2816 160D  
                                  l2808 1601                                    l2824 15B6  
                                  l2832 16DA                                    l2920 00DA  
                                  l2912 00BB                                    l2904 009C  
                                  l2592 04EE                                    l2576 04AE  
                                  l2584 04CB                                    l2568 047F  
                                  l2496 033E                                    l2488 0325  
                                  l3650 0A68                                    l3642 0A53  
                                  l3634 0A43                                    l3482 0B0D  
                                  l3474 0AE2                                    l3466 0ABF  
                                  l3458 0AA8                                    l3626 16BF  
                                  l3618 0BB5                                    l3490 0D5D  
                                  l3570 0ECC                                    l3562 0EAB  
                                  l3554 0E86                                    l3546 0E74  
                                  l3538 0E3E                                    l3386 178B  
                                  l3378 1778                                    l2850 17C1  
                                  l2842 17AA                                    l2834 1797  
                                  l3298 169B                                    l2770 0D31  
                                  l2762 0D2B                                    l2754 0D27  
                                  l2746 0D21                                    l2738 0D1D  
                                  l2690 0CEE                                    l2682 0CE4  
                                  l2674 0CD8                                    l2666 0CCC  
                                  l2658 0CC2                                    l2818 160E  
                                  l2826 16C3                                    l2930 0112  
                                  l2922 00DB                                    l2906 00A3  
                                  l2914 00C2                                    l2594 04EF  
                                  l2578 04B2                                    l2586 04E0  
                                  l2498 0343                                    l3660 0A8E  
                                  l3652 0A6E                                    l3644 0A59  
                                  l3636 0A47                                    l3628 0A34  
                                  l3484 0B1F                                    l3476 0AF2  
                                  l3468 0ACC                                    l3580 0B25  
                                  l3492 0D64                                    l3572 0ED4  
                                  l3564 0EB2                                    l3556 0E8A  
                                  l3548 0E75                                    l2852 17C2  
                                  l2844 17B3                                    l2836 179A  
                                  l2780 0D38                                    l2772 0D32  
                                  l2764 0D2E                                    l2756 0D28  
                                  l2748 0D22                                    l2692 0CF1  
                                  l2684 0CE7                                    l2676 0CDB  
                                  l2668 0CCF                                    l2828 16CE  
                                  l2860 0869                                    l2940 0130  
                                  l2932 0117                                    l2924 00EE  
                                  l2916 00D0                                    l2908 00A4  
                                  l2596 04F0                                    l2588 04E9  
                                  l3670 09C6                                    l3654 0A7F  
                                  l3646 0A5C                                    l3662 0A96  
                                  l3638 0A4C                                    l3486 0B23  
                                  l3478 0AFD                                    l3590 0B55  
                                  l3582 0B38                                    l3398 1739  
                                  l3494 0D65                                    l3574 0EDC  
                                  l3566 0EB7                                    l3558 0E9B  
                                  l2854 17C9                                    l2846 17BC  
                                  l2838 17A6                                    l2790 0D3F  
                                  l2782 0D39                                    l2774 0D35  
                                  l2766 0D2F                                    l2758 0D29  
                                  l2694 0CF2                                    l2686 0CEA  
                                  l2678 0CDE                                    l2870 0881  
                                  l2862 0872                                    l2950 0168  
                                  l2942 0154                                    l2934 0122  
                                  l2926 00F2                                    l2918 00D3  
                                  l2598 04FA                                    l3680 0A1E  
                                  l3672 09CC                                    l3664 0A9A  
                                  l3656 0A85                                    l3648 0A63  
                                  l3592 0B5B                                    l3584 0B41  
                                  l3496 0D76                                    l3488 0D4A  
                                  l3576 0EE3                                    l3568 0EBB  
                                  l2848 17C0                                    l2792 0D40  
                                  l2784 0D3C                                    l2776 0D36  
                                  l2768 0D30                                    l2696 0CF3  
                                  l2688 0CED                                    l2872 0888  
                                  l2864 087B                                    l2856 0851  
                                  l2960 01BD                                    l2952 016F  
                                  l2944 0158                                    l2936 0128  
                                  l2928 00F9                                    l2880 002C  
                                  l3682 0A20                                    l3674 09F2  
                                  l3666 0AA0                                    l3658 0A87  
                                  l3594 0B62                                    l3586 0B42  
                                  l3498 0D7D                                    l3578 0EFF  
                                  l2794 0D43                                    l2786 0D3D  
                                  l2778 0D37                                    l2698 0CF4  
                                  l2866 087F                                    l2858 0854  
                                  l2962 01C1                                    l2954 0171  
                                  l2970 01E4                                    l2938 012F  
                                  l2946 015F                                    l2890 0065  
                                  l2882 0033                                    l2874 0015  
                                  l3684 0A2E                                    l3676 09F6  
                                  l3668 0AA7                                    l3596 0B64  
                                  l3588 0B54                                    l2796 0D46  
                                  l2788 0D3E                                    l2868 0880  
                                  l2980 023F                                    l2972 01EF  
                                  l2956 0178                                    l2964 01C8  
                                  l2948 0165                                    l2892 006C  
                                  l2884 0034                                    l2876 0023  
                                  l3686 0A30                                    l3678 0A1C  
                                  l3598 0B68                                    l2798 1617  
                                  l2990 0266                                    l2982 0243  
                                  l2974 01F1                                    l2966 01D7  
                                  l2958 0179                                    l2894 006D  
                                  l2886 0058                                    l2878 0029  
                                  l3688 0A33                                    l2992 026D  
                                  l2976 01F8                                    l2984 024A  
                                  l2968 01DD                                    l2896 0080  
                                  l2888 005E                                    l2994 026E  
                                  l2986 0259                                    l2978 01F9  
                                  l2898 0084                                    l2996 0281  
                                  l2988 025F                                    l2998 0285  
                                  STR_1 07A3                                    STR_2 0803  
                                  STR_3 0812                                    STR_4 080F  
                                  STR_5 07E6                                    STR_6 07BD  
                                  STR_7 080D                                    STR_8 07F7  
                                  u2000 006B                                    u2001 006A  
                                  u2010 008A                                    u2011 0089  
                                  u2100 0177                                    u2020 00A2  
                                  u2101 0176                                    u2021 00A1  
                                  u2030 00C1                                    u2031 00C0  
                                  u3000 0D5D                                    u2200 0234  
                                  u2040 00D9                                    u3001 0D5C  
                                  u2041 00D8                                    u3010 0D76  
                                  u2210 0249                                    u2130 01B2  
                                  u2050 00F8                                    u3011 0D75  
                                  u2211 0248                                    u2115 017C  
                                  u2051 00F7                                    u3020 0D94  
                                  u3100 0E56                                    u2300 0842  
                                  u2220 0265                                    u2140 01C7  
                                  u2060 0117                                    u2301 0841  
                                  u2221 0264                                    u2205 022F  
                                  u2141 01C6                                    u2125 01A4  
                                  u2061 0116                                    u3030 0DA6  
                                  u3110 0E68                                    u2310 0BE2  
                                  u2230 026C                                    u2150 01E3  
                                  u2070 012E                                    u2311 0BE1  
                                  u2231 026B                                    u2151 01E2  
                                  u2135 01AD                                    u2071 012D  
                                  u3120 0E8A                                    u2400 05EF  
                                  u2320 0C12                                    u2240 028B  
                                  u2160 01EE                                    u2080 015E  
                                  u3025 0D90                                    u3121 0E89  
                                  u3105 0E52                                    u2401 05EE  
                                  u2321 0C11                                    u2241 028A  
                                  u2161 01ED                                    u2081 015D  
                                  u3050 0DDA                                    u3210 0EE2  
                                  u2410 05FB                                    u2330 0C4C  
                                  u2250 02A3                                    u2170 01F7  
                                  u2090 016E                                    u3051 0DD9  
                                  u3035 0DA2                                    u3211 0EE1  
                                  u3131 0E93                                    u3115 0E64  
                                  u2411 05FA                                    u2331 0C4B  
                                  u2251 02A2                                    u2171 01F6  
                                  u2091 016D                                    u3300 0BAF  
                                  u3220 0B38                                    u3132 0E9A  
                                  u2500 0F2D                                    u2420 0605  
                                  u2340 0C66                                    u3301 0BAE  
                                  u3221 0B37                                    u3045 0DC5  
                                  u3205 0ED5                                    u2501 0F2C  
                                  u2421 0604                                    u2405 05EB  
                                  u2341 0C65                                    u3310 0BB5  
                                  u3230 0B4D                                    u3070 0DF4  
                                  u2430 0626                                    u2350 0C7E  
                                  u2270 02D2                                    u3071 0DF3  
                                  u3055 0DD6                                    u2431 0625  
                                  u2351 0C7D                                    u3400 0A94  
                                  u3320 0A3B                                    u3240 0B68  
                                  u3160 0EB1                                    u3080 0E25  
                                  u2520 0F7D                                    u2440 0632  
                                  u2360 055D                                    u2280 02E7  
                                  u3401 0A93                                    u3321 0A3A  
                                  u3241 0B67                                    u3065 0DE7  
                                  u3161 0EB0                                    u3145 0E9C  
                                  u3081 0E24                                    u2521 0F7C  
                                  u2441 0631                                    u2361 055C  
                                  u2281 02E6                                    u2265 02C4  
                                  u2185 01FC                                    u3410 0A9A  
                                  u3330 0A47                                    u3250 0B6F  
                                  u3170 0EBB                                    u3090 0E3E  
                                  u2530 0F8F                                    u2450 0644  
                                  u2370 059D                                    u2290 082D  
                                  u3331 0A46                                    u3251 0B6E  
                                  u3235 0B49                                    u3171 0EBA  
                                  u3155 0EA4                                    u3091 0E3D  
                                  u2531 0F8E                                    u2515 0F3B  
                                  u2451 0643                                    u2435 0622  
                                  u2371 059C                                    u2291 082C  
                                  u2275 02CD                                    u2195 0225  
                                  u3420 09CC                                    u3340 0A59  
                                  u2700 178A                                    u2540 0FA4  
                                  u2460 06E0                                    u2380 05AD  
                                  u1900 049E                                    u1820 036A  
                                  u3421 09CB                                    u3341 0A58  
                                  u3181 0EC4                                    u2541 0FA3  
                                  u2461 06DF                                    u2381 05AC  
                                  u1901 049D                                    u1821 0369  
                                  u3270 0B8B                                    u3182 0ECB  
                                  u2550 0FD6                                    u2470 06FD  
                                  u2390 05CE                                    u1910 04A6  
                                  u1830 036E                                    u3431 09E4  
                                  u3271 0B8A                                    u2551 0FD5  
                                  u2471 06FC                                    u2391 05CD  
                                  u1911 04A5                                    u1831 036D  
                                  u1815 034E                                    u3440 09F6  
                                  u3432 09E5                                    u3360 0A6C  
                                  u3280 0B93                                    u2800 093D  
                                  u2720 1742                                    u2560 15C7  
                                  u2480 0F23                                    u1920 04AA  
                                  u1840 038F                                    u3441 09F5  
                                  u3433 09EA                                    u3361 0A6B  
                                  u3281 0B92                                    u3265 0B7B  
                                  u2801 093C                                    u2721 1741  
                                  u2561 15C6                                    u2481 0F22  
                                  u1921 04A9                                    u1841 038E  
                                  u3434 09EB                                    u2490 0F29  
                                  u2570 1737                                    u1930 0544  
                                  u1850 03F8                                    u3451 0A0E  
                                  u3355 0A5D                                    u3195 0ECD  
                                  u2491 0F28                                    u2571 1736  
                                  u3507 1629                                    u1931 0543  
                                  u1851 03F7                                    u3460 0A2E  
                                  u3452 0A0F                                    u3380 0A7F  
                                  u2900 0AB5                                    u2820 0952  
                                  u2660 1644                                    u2580 166E  
                                  u1940 16D3                                    u1860 03FC  
                                  u3461 0A2D                                    u3453 0A14  
                                  u3381 0A7E                                    u2901 0AB4  
                                  u2821 0951                                    u2805 0939  
                                  u2661 1643                                    u2581 166D  
                                  u3517 0835                                    u1941 16D2  
                                  u1861 03FB                                    u3454 0A15  
                                  u2830 08D0                                    u2750 175C  
                                  u2670 177C                                    u1950 17BB  
                                  u2590 168D                                    u1870 043C  
                                  u3375 0A6F                                    u3295 0BA0  
                                  u2831 08CF                                    u2815 0946  
                                  u2751 175B                                    u2735 1749  
                                  u1951 17BA                                    u2591 168C  
                                  u3527 0C32                                    u1871 043B  
                                  u2920 0AD2                                    u2760 0917  
                                  u2680 1780                                    u1960 0865  
                                  u1880 0444                                    u3465 0A2A  
                                  u3385 0A7B                                    u2921 0AD1  
                                  u2761 0916                                    u2745 1750  
                                  u3537 0C3C                                    u1961 0864  
                                  u1881 0443                                    u2850 08E3  
                                  u2690 1786                                    u1970 087A  
                                  u1890 0448                                    u3395 0A88  
                                  u2915 0AC4                                    u2851 08E2  
                                  u2691 1785                                    u3547 17AE  
                                  u1971 0879                                    u1891 0447  
                                  _PEIE 005E                                    u2940 0AF0  
                                  u2860 08EF                                    u2780 092A  
                                  u1980 0032                                    u2941 0AEF  
                                  u2861 08EE                                    u2845 08D4  
                                  u2781 0929                                    u3557 1638  
                                  u1981 0031                                    u3477 001D  
                                  u1990 0064                                    u2935 0AE3  
                                  u2775 091B                                    u3487 0316  
                                  u1991 0063                                    u2960 0B01  
                                  u2880 0903                                    u2961 0B00  
                                  u2881 0902                                    u2865 08EB  
                                  u3497 086D                                    u2970 0B05  
                                  u2890 0AAE                                    u2971 0B04  
                                  u2955 0AF5                                    u2875 08F7  
                                  u2795 092D                                    u2980 0B16  
                                  _RCIF 0065                                    u2990 0B23  
                                  u2985 0B12                                    _TXIF 0064  
                                  _flag 03D8                                    _main 0325  
                          ___ftpack@arg 0020                            ___ftpack@exp 0023  
                                  btemp 007E                                    start 0012  
             __size_of_adcReadVsupercap 0038                           _SPI_Write_Buf 170F  
                       SPI_Read_Reg@reg 0024                           _SPI_Write_Reg 15EB  
                         __CFG_MCLRE$ON 0000                            ___ftmul@cntr 0036  
                          ___ftmul@sign 0037                                   ??_ISR 0070  
                          ___fttol@exp1 002D                      _charge_pulse_float 0061  
                          ___fttol@lval 0029                           __CFG_PLLEN$ON 0000  
                                 ?_main 0046                         __end_of_adcInit 15BF  
                       __end_of___awdiv 0AA8                                   _ADRES 001E  
                                 STR_10 07D5                           __CFG_WDTE$OFF 0000  
                       __end_of___ftdiv 0E12                         __end_of___ftmul 0F00  
                       ___awdiv@divisor 0026                         __end_of___fttol 0BCB  
                       __end_of___lwdiv 095C                                   i1l170 09A3  
                                 i1l163 09BB                                   i1l171 09BB  
                                 i1l164 09B9                                   i1l165 09A9  
                                 i1l166 0996                                   i1l167 09B7  
                                 i1l168 0999                                   i1l169 099E  
                       __end_of___lwmod 090D                         ___awdiv@counter 002B  
                                 _RCREG 001A                                   _RCSTA 0018  
                                 _TMR1H 000F                                   _TMR1L 000E  
                                 _SPBRG 0099                                   _PORTD 0008  
                                 _TXREG 0019                                   _TXSTA 0098  
                       __end_of_dpowers 078D                                   _sleep 0F00  
                         ___ftpack@sign 0024                                   _value 0060  
                                 _putch 15BF                                   main@i 004E  
                        __pbitbssCOMMON 03D8                          __CFG_BOREN$OFF 0000  
                                 pclath 000A                         __end_of_spiInit 162F  
                        Send_Packet@len 003F                                   status 0003  
                                 wtemp0 007E                          ?_SPI_Write_Buf 0023  
                        ?_SPI_Write_Reg 0023                         __initialization 17CA  
                          __end_of_main 0550        __end_of_rfm70TxDataSentInterrupt 1680  
                         ??_Send_Packet 0040                                  ??_main 004A  
                         ___fttol@sign1 0028                        ___awdiv@dividend 0028  
                                ?_sleep 0070                                  ?_putch 0070  
                      __end_of___ftpack 0B25                        __end_of___lbtoft 16C0  
                                i1l2470 0964                                  i1l2480 099E  
                                i1l2472 0966                                  i1l2482 09A3  
                                i1l2474 0967                                  i1l2466 095C  
                                i1l2484 09A8                                  i1l2476 096D  
                                i1l2468 0960                                  i1l2478 0999  
                                i1l2486 09A9                                  u180_25 098B  
                                u176_20 0960                                  u176_21 095F  
                                u177_20 096D                                  u177_21 096C  
                                u178_25 0971                                  u179_25 0979  
                                _TMR1IE 0460                                  _TMR1IF 0060  
                                _SSPBUF 0013                                  _SPI_RW 162F  
                        __CFG_PWRTE$OFF 0000                            SwitchCFG@Tmp 0028  
              RFM70_Initialize@WriteArr 0030                       RFM70_Initialize@i 003C  
                     RFM70_Initialize@j 003D                                  ___ftge 09C6  
                                ___wmul 1739                               ??_adcInit 0020  
                             ??___awdiv 002A                               ??___ftdiv 002E  
                             ??___ftmul 002E                               ??___fttol 0024  
                      SPI_Write_Buf@reg 0026                               ??___lwdiv 0024  
                             ??___lwmod 002C                                  _energy 0057  
                      ___awdiv@quotient 002D                                  _values 005B  
                        _SwitchToRxMode 0889                                  _printf 0550  
                      SPI_Write_Reg@reg 0024                                  _rx_buf 00A0  
                      _RFM70_Initialize 0015                          _SwitchToTxMode 16E5  
                     __end_of_Bank0_Reg 0778                                  _tx_buf 0064  
                                clrloop 15AF                   ___ftmul@f3_as_product 0033  
                         main@num_sleep 0052                            __pdataCOMMON 0078  
                      __end_of_uartInit 1617                                  saved_w 007E  
                   __end_of_Send_Packet 0C8A                         Send_Packet@pbuf 003E  
                             ??_spiInit 0020                         Send_Packet@type 0043  
                                putch@c 0020                     SwitchToRxMode@value 0027  
                    __size_of_SwitchCFG 0032                 __end_of__initialization 17FC  
                       ??_SPI_Write_Buf 0025                              ___ftge@ff1 0030  
                            ___ftge@ff2 0033                         ??_SPI_Write_Reg 0024  
                      _adcReadVsupercap 0851                              ___ftdiv@f1 002B  
                            ___ftdiv@f2 0028                              ___ftdiv@f3 0033  
                            ___lbtoft@c 002F                              ___ftmul@f1 0028  
                            ___ftmul@f2 002B                       SPI_Read_Reg@value 0025  
                            ___fttol@f1 0020                          __pcstackCOMMON 0070  
 __end_of_rfm70TxDataSentErrorInterrupt 169F  __size_of_rfm70TxDataSentErrorInterrupt 001F  
         _rfm70TxDataSentErrorInterrupt 1680                            __pidataBANK0 15CB  
                __end_of_SwitchToRxMode 08C8                  __end_of_SwitchToTxMode 170F  
                         __end_of_sleep 1000                           __end_of_putch 15CB  
                          _charge_pulse 0053                      __size_of_boardInit 00C0  
                         ??_adcReadVcap 0020                           ??_adcReadTemp 0020  
                   SwitchToTxMode@value 0027                                 ??_sleep 003C  
                               ??_putch 0020                              __pbssBANK0 0053  
                            __pbssBANK1 00A0       __size_of_rfm70TxDataSentInterrupt 001F  
             ?_rfm70TxDataSentInterrupt 0070                                 ?_SPI_RW 0070  
                            __pmaintext 0325                                 ?___ftge 0030  
                               ?___wmul 0020                              __pintentry 0004  
                               _DACCON0 0113                                 _DACCON1 0114  
                       ?_SwitchToRxMode 0070                         ?_SwitchToTxMode 0070  
                           _Send_Packet 0BCB                               ?___ftpack 0020  
                             ?___lbtoft 0028                       __end_of_SwitchCFG 1797  
                               ?_printf 002E                   _rfm70setPowerdownMode 16C0  
            rfm70setPowerdownMode@value 0027                              __stringtab 0700  
                        sleep@new_value 003E                       __end_of_boardInit 0D4A  
                   __end_of_adcReadVcap 17CA                     __end_of_adcReadTemp 0851  
                       __size_of_SPI_RW 0019                           SwitchCFG@_cfg 0027  
                             ?_uartInit 0070                         __size_of___ftge 006E  
                               _adcInit 15B6                                 ___awdiv 0A34  
                               ___ftdiv 0D4A                         __size_of___wmul 002C  
                               ___ftmul 0E12                                 ___fttol 0B25  
                               ___lwdiv 090D                                 ___lwmod 08C8  
                            ??___ftpack 0025                              ??___lbtoft 002B  
                     SPI_Write_Buf@pBuf 0023          ?_rfm70TxDataSentErrorInterrupt 0070  
                       __size_of_printf 01B0                            __size_of_ISR 006A  
                     __end_of_hexpowers 0795                               _T1CONbits 0010  
                               _dpowers 0783                                 _scap_on 03D9  
                               _spiInit 1617                              _tmr1Target 007A  
                  end_of_initialization 17FC                                 init_ram 15DC  
              __end_of_RFM70_Initialize 0325                              ??_uartInit 0020  
                             _RCSTAbits 0018                                 printf@c 003D  
                               printf@f 002E                         _timelapse_count 0059  
                          __pstringtext 0700                               _PORTAbits 0005  
                             _PORTBbits 0006                               _PORTCbits 0007  
                             _PORTDbits 0008                               _PORTEbits 0009  
                ?_rfm70setPowerdownMode 0070                __end_of_adcReadVsupercap 0889  
                      __CFG_FOSC$INTOSC 0000                               _TRISAbits 0085  
                             _TRISBbits 0086                               _Bank0_Reg 074A  
                             _TRISCbits 0087                               _TRISDbits 0088  
                             _TRISEbits 0089                             _adcReadVcap 1797  
                           _adcReadTemp 0819                   __end_of_Bank1_Reg0_13 074A  
                           ___ftdiv@exp 0036                               _TXSTAbits 0098  
                        __end_of_SPI_RW 1648                            Send_Packet@i 0045  
                         ?_SPI_Read_Reg 0070                             ___ftmul@exp 0032  
                           SPI_RW@value 0022                          __end_of___ftge 0A34  
                        __end_of___wmul 1765                           __pidataCOMMON 0816  
                      adcReadVcap@value 0022                          __end_of_printf 0700  
                   start_initialization 17CA                             __end_of_ISR 09C6  
                      adcReadTemp@value 0022                                ??_SPI_RW 0020  
                        ??_SPI_Read_Reg 0023                   __end_of_SPI_Write_Buf 1739  
                 __end_of_SPI_Write_Reg 1601                        ??_SwitchToRxMode 0026  
                      ??_SwitchToTxMode 0026                                ??___ftge 0036  
                              ??___wmul 0024                             __pdataBANK0 0061  
                          ?_Send_Packet 003E                                ??_printf 0032  
                     __size_of___ftpack 007D                       __size_of___lbtoft 0021  
                             _SwitchCFG 1765                             __pbssCOMMON 007C  
                         __pcstackBANK0 0020                     __end_of__stringdata 0815  
                           _charge_time 0055                               _dac_value 0078  
                      ___lwdiv@dividend 0022                               _boardInit 0C8A  
                              ?_adcInit 0070                                ?___awdiv 0026  
                             __ptext760 0C8A                               __ptext761 0819  
                             __ptext770 15BF                               __ptext762 0BCB  
                             __ptext754 0015                               __ptext771 16E5  
                             __ptext763 1680                               __ptext755 0851  
                             __ptext780 08C8                               __ptext772 1765  
                             __ptext764 0889                               __ptext756 16C0  
                             __ptext781 0B25                               __ptext773 15EB  
                             __ptext765 1661                               __ptext757 15B6  
                             __ptext782 169F                               __ptext774 1648  
                             __ptext766 170F                               __ptext758 1601  
                             __ptext783 0AA8                               __ptext775 162F  
                             __ptext767 0550                               __ptext759 1617  
                             __ptext784 0A34                               __ptext776 0E12  
                             __ptext768 0F00                               __ptext785 09C6  
                             __ptext777 0D4A                               __ptext769 1797  
                             __ptext786 095C                               __ptext778 1739  
                             __ptext787 0000                               __ptext779 090D  
                              ?___ftdiv 0028                     SPI_Write_Buf@length 0024  
                              ?___ftmul 0028                                ?___fttol 0020  
                              ?___lwdiv 0020                       __size_of_uartInit 0016  
                              ?___lwmod 0028                              ?_SwitchCFG 0070  
                   Send_Packet@fifo_sta 0044                                ?_spiInit 0070  
                 SPI_Write_Buf@byte_ctr 0027                   adcReadVsupercap@value 0022  
              _rfm70TxDataSentInterrupt 1661                               _hexpowers 078D  
                      ___lwdiv@quotient 0025                          __size_of_sleep 0100  
                        __size_of_putch 000C         ??_rfm70TxDataSentErrorInterrupt 0026  
                     interrupt_function 0004                          ___wmul@product 0024  
                     ?_RFM70_Initialize 0070                      ??_RFM70_Initialize 0029  
                              _PIR1bits 000C                              ?_boardInit 0070  
               ??_rfm70setPowerdownMode 0026                              _ADCON0bits 001F  
                           __stringbase 0712                              _ADCON1bits 009F  
                           __stringdata 07A3                       ___wmul@multiplier 0020  
                  __end_of_Bank0_RegAct 07A3                              printf@_val 0039  
                            printf@flag 0038                              printf@prec 0037  
                     ?_adcReadVsupercap 0070                    __end_of_SPI_Read_Reg 1661  
                    ??_adcReadVsupercap 0020                           _sleep_counter 005F  
                          ?_adcReadVcap 0070                            ?_adcReadTemp 0070  
                             init_fetch 15D8                        __size_of_adcInit 0009  
                      __size_of___awdiv 0074                        __size_of___ftdiv 00C8  
                   __end_of_RX0_Address 079A                        __size_of___ftmul 00EE  
                      __size_of___fttol 00A6                        __size_of___lwdiv 004F  
                      __size_of___lwmod 0045                                ___ftpack 0AA8  
                              ___lbtoft 169F                     __end_of_RX1_Address 079F  
                    __end_of__stringtab 0712                              _ANSELAbits 0185  
                            _ANSELBbits 0186                              _ANSELCbits 0187  
                            _ANSELDbits 0188                              _ANSELEbits 0189  
                  __size_of_Send_Packet 00BF                             ??_SwitchCFG 0026  
                       ___lwdiv@divisor 0020                         ___lwdiv@counter 0027  
                            _T1GCONbits 008F                        __size_of_spiInit 0018  
                         __size_of_main 022B                                clear_ram 15AE  
                           ??_boardInit 0020                                _uartInit 1601  
                    SPI_Write_Reg@value 0023                     __end_of_Bank1_Reg14 0783  
                           _tmr1Counter 007C                               printf@idx 0035  
                              main@argc 0046                                main@argv 0048  
              rfm70setPowerdownMode@reg 0028                              _FVRCONbits 009D  
                              intlevel1 0000                        ___lwmod@dividend 002A  
                           _jumper_stat 005D                               stringcode 070A  
                            _OSCCONbits 0090                             _RX0_Address 0795  
                           _RX1_Address 079A                                printf@ap 0036  
                           _sleep_count 005E              ??_rfm70TxDataSentInterrupt 0026  
                 __size_of_SPI_Read_Reg 0019                         ___lwmod@divisor 0028  
                       ___lwmod@counter 002D                                stringtab 0700  
                __size_of_SPI_Write_Buf 002A                  __size_of_SPI_Write_Reg 0016  
                         _Bank1_Reg0_13 0712                    __size_of_adcReadVcap 0033  
                  __size_of_adcReadTemp 0038                            _Bank0_RegAct 079F  
                            _SSPCONbits 0014                             _Bank1_Reg14 0778  
                          _SPI_Read_Reg 1648  
