Microchip MPLAB XC8 Compiler V1.12 ()

Linker command line:

--edf=/Applications/microchip/xc8/v1.12/dat/en_msgs.txt -cs \
  -h+dist/default/production/energy-harvesting-demoboard.production.sym -z \
  -Q16LF707 -ol.obj \
  -Mdist/default/production/energy-harvesting-demoboard.production.map -E1 \
  -ver=XC8 -ACONST=00h-0FFhx32 -ACODE=00h-07FFhx4 -ASTRCODE=00h-01FFFh \
  -AENTRY=00h-0FFhx32 -ASTRING=00h-0FFhx32 -ACOMMON=070h-07Fh \
  -ABANK0=020h-06Fh -ABANK1=0A0h-0EFh -ABANK2=0115h-016Fh \
  -ABANK3=0190h-01EFh -ARAM=020h-06Fh,0A0h-0EFh,0115h-016Fh,0190h-01EFh \
  -AABS1=020h-07Fh,0A0h-0EFh,0115h-016Fh,0190h-01EFh -ASFR0=00h-01Fh \
  -ASFR1=080h-09Fh -ASFR2=0100h-0114h -ASFR3=0180h-018Fh \
  -preset_vec=00h,intentry=04h,init,end_init -ppowerup=CODE -pfunctab=CODE \
  -ACONFIG=02007h-02008h -pconfig=CONFIG -DCONFIG=2 -AIDLOC=02000h-02003h \
  -pidloc=IDLOC -DIDLOC=2 -DCODE=2 -DSTRCODE=2 -DSTRING=2 -DCONST=2 \
  -DENTRY=2 -k /tmp/cgtXsrVKD.obj \
  dist/default/production/energy-harvesting-demoboard.production.obj 

Object code version is 3.10

Machine type is 16LF707



                Name                               Link     Load   Length Selector   Space Scale
/tmp/cgtXsrVKD.obj
                end_init                             12       12        3        8       0
                reset_vec                             0        0        3        0       0
                config                             2007     2007        1     400E       0
dist/default/production/energy-harvesting-demoboard.production.obj
                intentry                              4        4        E        8       0
                text786                             95C      95C       6A     12B8       0
                text785                             9C6      9C6       6E     138C       0
                text784                             A34      A34       74     1468       0
                text783                             AA8      AA8       7D     1550       0
                text782                            169F     169F       21     2D3E       0
                text781                             B25      B25       A6     164A       0
                text780                             8C8      8C8       45     1190       0
                text779                             90D      90D       4F     121A       0
                text778                            1739     1739       2C     2E72       0
                text777                             D4A      D4A       C8     1A94       0
                text776                             E12      E12       EE     1C24       0
                text775                            162F     162F       19     2C5E       0
                text774                            1648     1648       19     2C90       0
                text773                            15EB     15EB       16     2BD6       0
                text772                            1765     1765       32     2ECA       0
                text771                            16E5     16E5       2A     2DCA       0
                text770                            15BF     15BF        C     2B7E       0
                text769                            1797     1797       33     2F2E       0
                text768                             F00      F00      100     1E00       0
                text767                             550      550      1B0        8       0
                text766                            170F     170F       2A     2E1E       0
                text765                            1661     1661       1F     2CC2       0
                text764                             889      889       3F     1112       0
                text763                            1680     1680       1F     2D00       0
                text762                             BCB      BCB       BF     1796       0
                text761                             819      819       38     1032       0
                text760                             C8A      C8A       C0     1914       0
                text759                            1617     1617       18     2C2E       0
                text758                            1601     1601       16     2C02       0
                text757                            15B6     15B6        9     2B6C       0
                text756                            16C0     16C0       25     2D80       0
                text755                             851      851       38     10A2       0
                text754                              15       15      310        8       0
                maintext                            325      325      22B        8       0
                cstackBANK0                          20       20       33       20       1
                cstackCOMMON                         70       70        8       70       1
                inittext                           15D8     15D8       13     2BB0       0
                clrtext                            15AE     15AE        8     2B5C       0
                bssBANK1                             A0       A0       20       A0       1
                dataBANK0                            61       61        D       20       1
                bssBANK0                             53       53        E       20       1
                dataCOMMON                           78       78        3       70       1
                bssCOMMON                            7C       7C        1       70       1
                bitbssCOMMON                        3D8       7B        2       70       1     8
                cinit                              17CA     17CA       36     2F94       0
                stringtext                          700      700      115        E       0
                idataBANK0                         15CB     15CB        D     2B96       0
                idataCOMMON                         816      816        3     102C       0

TOTAL           Name                               Link     Load   Length     Space
        CLASS   CONST          

        CLASS   CODE           
                end_init                             12       12        3         0
                intentry                              4        4        E         0
                reset_vec                             0        0        3         0
                text786                             95C      95C       6A         0
                text785                             9C6      9C6       6E         0
                text784                             A34      A34       74         0
                text783                             AA8      AA8       7D         0
                text782                            169F     169F       21         0
                text781                             B25      B25       A6         0
                text780                             8C8      8C8       45         0
                text779                             90D      90D       4F         0
                text778                            1739     1739       2C         0
                text777                             D4A      D4A       C8         0
                text776                             E12      E12       EE         0
                text775                            162F     162F       19         0
                text774                            1648     1648       19         0
                text773                            15EB     15EB       16         0
                text772                            1765     1765       32         0
                text771                            16E5     16E5       2A         0
                text770                            15BF     15BF        C         0
                text769                            1797     1797       33         0
                text768                             F00      F00      100         0
                text767                             550      550      1B0         0
                text766                            170F     170F       2A         0
                text765                            1661     1661       1F         0
                text764                             889      889       3F         0
                text763                            1680     1680       1F         0
                text762                             BCB      BCB       BF         0
                text761                             819      819       38         0
                text760                             C8A      C8A       C0         0
                text759                            1617     1617       18         0
                text758                            1601     1601       16         0
                text757                            15B6     15B6        9         0
                text756                            16C0     16C0       25         0
                text755                             851      851       38         0
                text754                              15       15      310         0
                maintext                            325      325      22B         0
                inittext                           15D8     15D8       13         0
                clrtext                            15AE     15AE        8         0
                cinit                              17CA     17CA       36         0
                idataBANK0                         15CB     15CB        D         0
                idataCOMMON                         816      816        3         0

        CLASS   STRCODE        
                stringtext                          700      700      115         0

        CLASS   ENTRY          

        CLASS   STRING         

        CLASS   COMMON         
                cstackCOMMON                         70       70        8         1
                dataCOMMON                           78       78        3         1
                bssCOMMON                            7C       7C        1         1
                bitbssCOMMON                        3D8       7B        2         1

        CLASS   BANK0          
                cstackBANK0                          20       20       33         1
                dataBANK0                            61       61        D         1
                bssBANK0                             53       53        E         1

        CLASS   BANK1          
                bssBANK1                             A0       A0       20         1

        CLASS   BANK2          

        CLASS   BANK3          

        CLASS   RAM            

        CLASS   ABS1           
                abs_s1                               7E       7E        2         1

        CLASS   SFR0           

        CLASS   SFR1           

        CLASS   SFR2           

        CLASS   SFR3           

        CLASS   CONFIG         
                config                             2007     2007        1         0

        CLASS   IDLOC          

        CLASS   EEDATA         



SEGMENTS        Name                           Load    Length   Top    Selector   Space  Class     Delta

                reset_vec                      000000  000003  000003         0       0  CODE        2
                intentry                       000004  0006FC  000700         8       0  CODE        2
                cstackBANK0                    000020  00004E  00006E        20       1  BANK0       1
                cstackCOMMON                   000070  00000D  00007D        70       1  COMMON      1
                bssBANK1                       0000A0  000020  0000C0        A0       1  BANK1       1
                stringtext                     000700  000115  000815         E       0  STRCODE     2
                idataCOMMON                    000816  000003  000819      102C       0  CODE        2
                text761                        000819  000038  000851      1032       0  CODE        2
                text755                        000851  000038  000889      10A2       0  CODE        2
                text764                        000889  00003F  0008C8      1112       0  CODE        2
                text780                        0008C8  000045  00090D      1190       0  CODE        2
                text779                        00090D  00004F  00095C      121A       0  CODE        2
                text786                        00095C  00006A  0009C6      12B8       0  CODE        2
                text785                        0009C6  00006E  000A34      138C       0  CODE        2
                text784                        000A34  000074  000AA8      1468       0  CODE        2
                text783                        000AA8  00007D  000B25      1550       0  CODE        2
                text781                        000B25  0000A6  000BCB      164A       0  CODE        2
                text762                        000BCB  0000BF  000C8A      1796       0  CODE        2
                text760                        000C8A  0000C0  000D4A      1914       0  CODE        2
                text777                        000D4A  0000C8  000E12      1A94       0  CODE        2
                text776                        000E12  0000EE  000F00      1C24       0  CODE        2
                text768                        000F00  000100  001000      1E00       0  CODE        2
                clrtext                        0015AE  000008  0015B6      2B5C       0  CODE        2
                text757                        0015B6  000009  0015BF      2B6C       0  CODE        2
                text770                        0015BF  00000C  0015CB      2B7E       0  CODE        2
                idataBANK0                     0015CB  00000D  0015D8      2B96       0  CODE        2
                inittext                       0015D8  000013  0015EB      2BB0       0  CODE        2
                text773                        0015EB  000016  001601      2BD6       0  CODE        2
                text758                        001601  000016  001617      2C02       0  CODE        2
                text759                        001617  000018  00162F      2C2E       0  CODE        2
                text775                        00162F  000019  001648      2C5E       0  CODE        2
                text774                        001648  000019  001661      2C90       0  CODE        2
                text765                        001661  00001F  001680      2CC2       0  CODE        2
                text763                        001680  00001F  00169F      2D00       0  CODE        2
                text782                        00169F  000021  0016C0      2D3E       0  CODE        2
                text756                        0016C0  000025  0016E5      2D80       0  CODE        2
                text771                        0016E5  00002A  00170F      2DCA       0  CODE        2
                text766                        00170F  00002A  001739      2E1E       0  CODE        2
                text778                        001739  00002C  001765      2E72       0  CODE        2
                text772                        001765  000032  001797      2ECA       0  CODE        2
                text769                        001797  000033  0017CA      2F2E       0  CODE        2
                cinit                          0017CA  000036  001800      2F94       0  CODE        2
                config                         002007  000001  002008      400E       0  CONFIG      2


UNUSED ADDRESS RANGES

        Name                Unused          Largest block    Delta
        BANK0            006E-006F              2           1
        BANK1            00C0-00EF             30           1
        BANK2            0115-016F             5B           1
        BANK3            0190-01EF             60           1
        CODE             0003-0003              1           2
                         0815-0815              1
                         1000-15AD            5AE
                         1800-1FFF            800
        COMMON           007D-007D              1           1
        CONFIG           2008-2008              1           2
        CONST            0003-0003              1           2
                         0815-0815              1
                         1000-15AD            100
                         1800-1FFF            100
        ENTRY            0003-0003              1           2
                         0815-0815              1
                         1000-15AD            100
                         1800-1FFF            100
        IDLOC            2000-2003              4           2
        RAM              006E-006F              2           1
                         00C0-00EF             30
                         0115-016F             5B
                         0190-01EF             60
        SFR0             0000-001F             20           1
        SFR1             0080-009F             20           1
        SFR2             0100-0114             15           1
        SFR3             0180-018F             10           1
        STRCODE          0003-0003              1           2
                         0815-0815              1
                         1000-15AD            5AE
                         1800-1FFF            800
        STRING           0003-0003              1           2
                         0815-0815              1
                         1000-15AD            100
                         1800-1FFF            100

                                  Symbol Table

?_SPI_Write_Buf                         cstackBANK0  0023
?_SPI_Write_Reg                         cstackBANK0  0023
?_Send_Packet                           cstackBANK0  003E
?___awdiv                               cstackBANK0  0026
?___ftdiv                               cstackBANK0  0028
?___ftge                                cstackBANK0  0030
?___ftmul                               cstackBANK0  0028
?___ftpack                              cstackBANK0  0020
?___fttol                               cstackBANK0  0020
?___lbtoft                              cstackBANK0  0028
?___lwdiv                               cstackBANK0  0020
?___lwmod                               cstackBANK0  0028
?___wmul                                cstackBANK0  0020
?_printf                                cstackBANK0  002E
RFM70_Initialize@WriteArr               cstackBANK0  0030
RFM70_Initialize@i                      cstackBANK0  003C
RFM70_Initialize@j                      cstackBANK0  003D
SPI_RW@value                            cstackBANK0  0022
SPI_Read_Reg@reg                        cstackBANK0  0024
SPI_Read_Reg@value                      cstackBANK0  0025
SPI_Write_Buf@byte_ctr                  cstackBANK0  0027
SPI_Write_Buf@length                    cstackBANK0  0024
SPI_Write_Buf@pBuf                      cstackBANK0  0023
SPI_Write_Buf@reg                       cstackBANK0  0026
SPI_Write_Reg@reg                       cstackBANK0  0024
SPI_Write_Reg@value                     cstackBANK0  0023
Send_Packet@fifo_sta                    cstackBANK0  0044
Send_Packet@i                           cstackBANK0  0045
Send_Packet@len                         cstackBANK0  003F
Send_Packet@pbuf                        cstackBANK0  003E
Send_Packet@type                        cstackBANK0  0043
SwitchCFG@Tmp                           cstackBANK0  0028
SwitchCFG@_cfg                          cstackBANK0  0027
SwitchToRxMode@value                    cstackBANK0  0027
SwitchToTxMode@value                    cstackBANK0  0027
_ADCON0bits                             (abs)        001F
_ADCON1bits                             (abs)        009F
_ADRES                                  (abs)        001E
_ANSELAbits                             (abs)        0185
_ANSELBbits                             (abs)        0186
_ANSELCbits                             (abs)        0187
_ANSELDbits                             (abs)        0188
_ANSELEbits                             (abs)        0189
_Bank0_Reg                              stringtext   074A
_Bank1_Reg0_13                          stringtext   0712
_Bank1_Reg14                            stringtext   0778
_DACCON0                                (abs)        0113
_DACCON1                                (abs)        0114
_FVRCONbits                             (abs)        009D
_GIE                                    (abs)        005F
_ISR                                    text786      095C
_OSCCONbits                             (abs)        0090
_PEIE                                   (abs)        005E
_PIR1bits                               (abs)        000C
_PORTAbits                              (abs)        0005
_PORTBbits                              (abs)        0006
_PORTCbits                              (abs)        0007
_PORTD                                  (abs)        0008
_PORTDbits                              (abs)        0008
_PORTEbits                              (abs)        0009
_RCIF                                   (abs)        0065
_RCREG                                  (abs)        001A
_RCSTA                                  (abs)        0018
_RCSTAbits                              (abs)        0018
_RFM70_Initialize                       text754      0015
_RX0_Address                            stringtext   0795
_RX1_Address                            stringtext   079A
_SPBRG                                  (abs)        0099
_SPI_RW                                 text775      162F
_SPI_Read_Reg                           text774      1648
_SPI_Write_Buf                          text766      170F
_SPI_Write_Reg                          text773      15EB
_SSPBUF                                 (abs)        0013
_SSPCONbits                             (abs)        0014
_SSPSTATbits                            (abs)        0094
_Send_Packet                            text762      0BCB
_SwitchCFG                              text772      1765
_SwitchToRxMode                         text764      0889
_SwitchToTxMode                         text771      16E5
_T1CONbits                              (abs)        0010
_T1GCONbits                             (abs)        008F
_TMR1H                                  (abs)        000F
_TMR1IE                                 (abs)        0460
_TMR1IF                                 (abs)        0060
_TMR1L                                  (abs)        000E
_TRISAbits                              (abs)        0085
_TRISBbits                              (abs)        0086
_TRISCbits                              (abs)        0087
_TRISDbits                              (abs)        0088
_TRISEbits                              (abs)        0089
_TXIF                                   (abs)        0064
_TXREG                                  (abs)        0019
_TXSTA                                  (abs)        0098
_TXSTAbits                              (abs)        0098
__CFG_BOREN$OFF                         (abs)        0000
__CFG_CP$OFF                            (abs)        0000
__CFG_FOSC$INTOSC                       (abs)        0000
__CFG_MCLRE$ON                          (abs)        0000
__CFG_PLLEN$ON                          (abs)        0000
__CFG_PWRTE$OFF                         (abs)        0000
__CFG_WDTE$OFF                          (abs)        0000
__Habs1                                 abs1         0000
__Hbank0                                bank0        0000
__Hbank1                                bank1        0000
__Hbank2                                bank2        0000
__Hbank3                                bank3        0000
__HbitbssCOMMON                         bitbssCOMMON 0000
__HbssBANK0                             bssBANK0     0000
__HbssBANK1                             bssBANK1     0000
__HbssCOMMON                            bssCOMMON    0000
__Hcinit                                cinit        0000
__Hclrtext                              clrtext      0000
__Hcode                                 code         0000
__Hcommon                               common       0000
__Hconfig                               config       2008
__HcstackBANK0                          cstackBANK0  0000
__HcstackCOMMON                         cstackCOMMON 0000
__HdataBANK0                            dataBANK0    0000
__HdataCOMMON                           dataCOMMON   0000
__Heeprom_data                          eeprom_data  0000
__Hend_init                             end_init     0015
__Hfunctab                              functab      0000
__HidataBANK0                           idataBANK0   0000
__HidataCOMMON                          idataCOMMON  0000
__Hidloc                                idloc        0000
__Hinit                                 init         0012
__Hinittext                             inittext     0000
__Hintentry                             intentry     0012
__Hmaintext                             maintext     0000
__Hpowerup                              powerup      0000
__Hram                                  ram          0000
__Hreset_vec                            reset_vec    0003
__Hsfr0                                 sfr0         0000
__Hsfr1                                 sfr1         0000
__Hsfr2                                 sfr2         0000
__Hsfr3                                 sfr3         0000
__Hstrings                              strings      0000
__Hstringtext                           stringtext   0000
__Htext                                 text         0000
__Labs1                                 abs1         0000
__Lbank0                                bank0        0000
__Lbank1                                bank1        0000
__Lbank2                                bank2        0000
__Lbank3                                bank3        0000
__LbitbssCOMMON                         bitbssCOMMON 0000
__LbssBANK0                             bssBANK0     0000
__LbssBANK1                             bssBANK1     0000
__LbssCOMMON                            bssCOMMON    0000
__Lcinit                                cinit        0000
__Lclrtext                              clrtext      0000
__Lcode                                 code         0000
__Lcommon                               common       0000
__Lconfig                               config       2007
__LcstackBANK0                          cstackBANK0  0000
__LcstackCOMMON                         cstackCOMMON 0000
__LdataBANK0                            dataBANK0    0000
__LdataCOMMON                           dataCOMMON   0000
__Leeprom_data                          eeprom_data  0000
__Lend_init                             end_init     0012
__Lfunctab                              functab      0000
__LidataBANK0                           idataBANK0   0000
__LidataCOMMON                          idataCOMMON  0000
__Lidloc                                idloc        0000
__Linit                                 init         0012
__Linittext                             inittext     0000
__Lintentry                             intentry     0004
__Lmaintext                             maintext     0000
__Lpowerup                              powerup      0000
__Lram                                  ram          0000
__Lreset_vec                            reset_vec    0000
__Lsfr0                                 sfr0         0000
__Lsfr1                                 sfr1         0000
__Lsfr2                                 sfr2         0000
__Lsfr3                                 sfr3         0000
__Lstrings                              strings      0000
__Lstringtext                           stringtext   0000
__Ltext                                 text         0000
__S0                                    (abs)        2008
__S1                                    (abs)        00C0
___awdiv                                text784      0A34
___awdiv@counter                        cstackBANK0  002B
___awdiv@dividend                       cstackBANK0  0028
___awdiv@divisor                        cstackBANK0  0026
___awdiv@quotient                       cstackBANK0  002D
___awdiv@sign                           cstackBANK0  002C
___ftdiv                                text777      0D4A
___ftdiv@cntr                           cstackBANK0  0032
___ftdiv@exp                            cstackBANK0  0036
___ftdiv@f1                             cstackBANK0  002B
___ftdiv@f2                             cstackBANK0  0028
___ftdiv@f3                             cstackBANK0  0033
___ftdiv@sign                           cstackBANK0  0037
___ftge                                 text785      09C6
___ftge@ff1                             cstackBANK0  0030
___ftge@ff2                             cstackBANK0  0033
___ftmul                                text776      0E12
___ftmul@cntr                           cstackBANK0  0036
___ftmul@exp                            cstackBANK0  0032
___ftmul@f1                             cstackBANK0  0028
___ftmul@f2                             cstackBANK0  002B
___ftmul@f3_as_product                  cstackBANK0  0033
___ftmul@sign                           cstackBANK0  0037
___ftpack                               text783      0AA8
___ftpack@arg                           cstackBANK0  0020
___ftpack@exp                           cstackBANK0  0023
___ftpack@sign                          cstackBANK0  0024
___fttol                                text781      0B25
___fttol@exp1                           cstackBANK0  002D
___fttol@f1                             cstackBANK0  0020
___fttol@lval                           cstackBANK0  0029
___fttol@sign1                          cstackBANK0  0028
___lbtoft                               text782      169F
___lbtoft@c                             cstackBANK0  002F
___lwdiv                                text779      090D
___lwdiv@counter                        cstackBANK0  0027
___lwdiv@dividend                       cstackBANK0  0022
___lwdiv@divisor                        cstackBANK0  0020
___lwdiv@quotient                       cstackBANK0  0025
___lwmod                                text780      08C8
___lwmod@counter                        cstackBANK0  002D
___lwmod@dividend                       cstackBANK0  002A
___lwmod@divisor                        cstackBANK0  0028
___wmul                                 text778      1739
___wmul@multiplicand                    cstackBANK0  0022
___wmul@multiplier                      cstackBANK0  0020
___wmul@product                         cstackBANK0  0024
__end_of_Bank0_Reg                      stringtext   0778
__end_of_Bank0_RegAct                   stringtext   07A3
__end_of_Bank1_Reg0_13                  stringtext   074A
__end_of_Bank1_Reg14                    stringtext   0783
__end_of_ISR                            text786      09C6
__end_of_RFM70_Initialize               text754      0325
__end_of_RX0_Address                    stringtext   079A
__end_of_RX1_Address                    stringtext   079F
__end_of_SPI_RW                         text775      1648
__end_of_SPI_Read_Reg                   text774      1661
__end_of_SPI_Write_Buf                  text766      1739
__end_of_SPI_Write_Reg                  text773      1601
__end_of_Send_Packet                    text762      0C8A
__end_of_SwitchCFG                      text772      1797
__end_of_SwitchToRxMode                 text764      08C8
__end_of_SwitchToTxMode                 text771      170F
__end_of___awdiv                        text784      0AA8
__end_of___ftdiv                        text777      0E12
__end_of___ftge                         text785      0A34
__end_of___ftmul                        text776      0F00
__end_of___ftpack                       text783      0B25
__end_of___fttol                        text781      0BCB
__end_of___lbtoft                       text782      16C0
__end_of___lwdiv                        text779      095C
__end_of___lwmod                        text780      090D
__end_of___wmul                         text778      1765
__end_of__initialization                cinit        17FC
__end_of__stringdata                    stringtext   0815
__end_of__stringtab                     stringtext   0712
__end_of_adcInit                        text757      15BF
__end_of_adcReadTemp                    text761      0851
__end_of_adcReadVcap                    text769      17CA
__end_of_adcReadVsupercap               text755      0889
__end_of_boardInit                      text760      0D4A
__end_of_dpowers                        stringtext   078D
__end_of_hexpowers                      stringtext   0795
__end_of_main                           maintext     0550
__end_of_printf                         text767      0700
__end_of_putch                          text770      15CB
__end_of_rfm70TxDataSentErrorInterrupt  text763      169F
__end_of_rfm70TxDataSentInterrupt       text765      1680
__end_of_rfm70setPowerdownMode          text756      16E5
__end_of_sleep                          text768      1000
__end_of_spiInit                        text759      162F
__end_of_uartInit                       text758      1617
__initialization                        cinit        17CA
__pbitbssCOMMON                         bitbssCOMMON 03D8
__pbssBANK0                             bssBANK0     0053
__pbssBANK1                             bssBANK1     00A0
__pbssCOMMON                            bssCOMMON    007C
__pcstackBANK0                          cstackBANK0  0020
__pcstackCOMMON                         cstackCOMMON 0070
__pdataBANK0                            dataBANK0    0061
__pdataCOMMON                           dataCOMMON   0078
__pidataBANK0                           idataBANK0   15CB
__pidataCOMMON                          idataCOMMON  0816
__pintentry                             intentry     0004
__pmaintext                             maintext     0325
__pstringtext                           stringtext   0700
__ptext754                              text754      0015
__ptext755                              text755      0851
__ptext756                              text756      16C0
__ptext757                              text757      15B6
__ptext758                              text758      1601
__ptext759                              text759      1617
__ptext760                              text760      0C8A
__ptext761                              text761      0819
__ptext762                              text762      0BCB
__ptext763                              text763      1680
__ptext764                              text764      0889
__ptext765                              text765      1661
__ptext766                              text766      170F
__ptext767                              text767      0550
__ptext768                              text768      0F00
__ptext769                              text769      1797
__ptext770                              text770      15BF
__ptext771                              text771      16E5
__ptext772                              text772      1765
__ptext773                              text773      15EB
__ptext774                              text774      1648
__ptext775                              text775      162F
__ptext776                              text776      0E12
__ptext777                              text777      0D4A
__ptext778                              text778      1739
__ptext779                              text779      090D
__ptext780                              text780      08C8
__ptext781                              text781      0B25
__ptext782                              text782      169F
__ptext783                              text783      0AA8
__ptext784                              text784      0A34
__ptext785                              text785      09C6
__ptext786                              text786      095C
__ptext787                              text787      0000
__size_of_ISR                           (abs)        0000
__size_of_RFM70_Initialize              (abs)        0000
__size_of_SPI_RW                        (abs)        0000
__size_of_SPI_Read_Reg                  (abs)        0000
__size_of_SPI_Write_Buf                 (abs)        0000
__size_of_SPI_Write_Reg                 (abs)        0000
__size_of_Send_Packet                   (abs)        0000
__size_of_SwitchCFG                     (abs)        0000
__size_of_SwitchToRxMode                (abs)        0000
__size_of_SwitchToTxMode                (abs)        0000
__size_of___awdiv                       (abs)        0000
__size_of___ftdiv                       (abs)        0000
__size_of___ftge                        (abs)        0000
__size_of___ftmul                       (abs)        0000
__size_of___ftpack                      (abs)        0000
__size_of___fttol                       (abs)        0000
__size_of___lbtoft                      (abs)        0000
__size_of___lwdiv                       (abs)        0000
__size_of___lwmod                       (abs)        0000
__size_of___wmul                        (abs)        0000
__size_of_adcInit                       (abs)        0000
__size_of_adcReadTemp                   (abs)        0000
__size_of_adcReadVcap                   (abs)        0000
__size_of_adcReadVsupercap              (abs)        0000
__size_of_boardInit                     (abs)        0000
__size_of_main                          (abs)        0000
__size_of_printf                        (abs)        0000
__size_of_putch                         (abs)        0000
__size_of_rfm70TxDataSentErrorInterrupt (abs)        0000
__size_of_rfm70TxDataSentInterrupt      (abs)        0000
__size_of_rfm70setPowerdownMode         (abs)        0000
__size_of_sleep                         (abs)        0000
__size_of_spiInit                       (abs)        0000
__size_of_uartInit                      (abs)        0000
__stringdata                            stringtext   07A3
__stringtab                             stringtext   0700
_adcInit                                text757      15B6
_adcReadTemp                            text761      0819
_adcReadVcap                            text769      1797
_adcReadVsupercap                       text755      0851
_boardInit                              text760      0C8A
_charge_pulse                           bssBANK0     0053
_charge_pulse_float                     dataBANK0    0061
_charge_time                            bssBANK0     0055
_dpowers                                stringtext   0783
_energy                                 bssBANK0     0057
_flag                                   bitbssCOMMON 03D8
_hexpowers                              stringtext   078D
_jumper_stat                            bssBANK0     005D
_main                                   maintext     0325
_printf                                 text767      0550
_putch                                  text770      15BF
_rfm70TxDataSentErrorInterrupt          text763      1680
_rfm70TxDataSentInterrupt               text765      1661
_rfm70setPowerdownMode                  text756      16C0
_sleep                                  text768      0F00
_sleep_count                            bssBANK0     005E
_sleep_counter                          bssBANK0     005F
_spiInit                                text759      1617
_timelapse_count                        bssBANK0     0059
_tmr1Counter                            bssCOMMON    007C
_tmr1Target                             dataCOMMON   007A
_tx_buf                                 dataBANK0    0064
_uartInit                               text758      1601
_value                                  bssBANK0     0060
_values                                 bssBANK0     005B
adcReadTemp@value                       cstackBANK0  0022
adcReadVcap@value                       cstackBANK0  0022
adcReadVsupercap@value                  cstackBANK0  0022
btemp                                   (abs)        007E
clear_ram                               clrtext      15AE
end_of_initialization                   cinit        17FC
init_fetch                              inittext     15D8
init_ram                                inittext     15DC
interrupt_function                      intentry     0004
intlevel0                               functab      0000
intlevel1                               functab      0000
intlevel2                               functab      0000
intlevel3                               functab      0000
intlevel4                               functab      0000
intlevel5                               functab      0000
main@i                                  cstackBANK0  004E
main@num_sleep                          cstackBANK0  0052
printf@_val                             cstackBANK0  0039
printf@ap                               cstackBANK0  0036
printf@c                                cstackBANK0  003D
printf@f                                cstackBANK0  002E
printf@flag                             cstackBANK0  0038
printf@idx                              cstackBANK0  0035
printf@prec                             cstackBANK0  0037
putch@c                                 cstackBANK0  0020
reset_vec                               reset_vec    0000
rfm70setPowerdownMode@reg               cstackBANK0  0028
rfm70setPowerdownMode@value             cstackBANK0  0027
saved_w                                 (abs)        007E
sleep@new_value                         cstackBANK0  003E
start                                   init         0012
start_initialization                    cinit        17CA
wtemp0                                  (abs)        007E


FUNCTION INFORMATION:

 *************** function _main *****************
 Defined at:
		line 160 in file "main.c"
 Parameters:    Size  Location     Type
  argc            2   38[BANK0 ] int 
  argv            2   40[BANK0 ] PTR PTR unsigned char 
 Auto vars:     Size  Location     Type
  i               4   46[BANK0 ] long 
  num_sleep       1   50[BANK0 ] unsigned char 
 Return value:  Size  Location     Type
                  2   38[BANK0 ] int 
 Registers used:
		wreg, fsr0l, fsr0h, fsr1l, fsr1h, status,2, status,0, btemp+1, pclath, cstack
 Tracked objects:
		On entry : 
		On exit  : 
		Unchanged: 
 Data sizes:     COMMON   BANK0   BANK1   BANK3   BANK2
      Params:         0       4       0       0       0
      Locals:         0       5       0       0       0
      Temps:          0       4       0       0       0
      Totals:         0      13       0       0       0
Total ram usage:       13 bytes
 Hardware stack levels required when called:    5
 This function calls:
		_boardInit
		_spiInit
		_uartInit
		_adcInit
		_rfm70setPowerdownMode
		_adcReadVcap
		_adcReadVsupercap
		___lbtoft
		___ftge
		_RFM70_Initialize
		___fttol
		_adcReadTemp
		_Send_Packet
		_printf
		_sleep
		___wmul
		___awdiv
 This function is called by:
		Startup code after reset
 This function uses a non-reentrant model


 *************** function _RFM70_Initialize *****************
 Defined at:
		line 252 in file "rfm70.c"
 Parameters:    Size  Location     Type
		None
 Auto vars:     Size  Location     Type
  WriteArr       12   16[BANK0 ] unsigned char [12]
  j               1   29[BANK0 ] unsigned char 
  i               1   28[BANK0 ] unsigned char 
 Return value:  Size  Location     Type
		None               void
 Registers used:
		wreg, fsr0l, fsr0h, fsr1l, fsr1h, status,2, status,0, btemp+1, pclath, cstack
 Tracked objects:
		On entry : 
		On exit  : 
		Unchanged: 
 Data sizes:     COMMON   BANK0   BANK1   BANK3   BANK2
      Params:         0       0       0       0       0
      Locals:         0      14       0       0       0
      Temps:          0       7       0       0       0
      Totals:         0      21       0       0       0
Total ram usage:       21 bytes
 Hardware stack levels used:    1
 Hardware stack levels required when called:    4
 This function calls:
		_SwitchCFG
		_SPI_Write_Reg
		_SPI_Write_Buf
		_SPI_Read_Reg
 This function is called by:
		_main
 This function uses a non-reentrant model


 *************** function _adcReadVsupercap *****************
 Defined at:
		line 451 in file "main.c"
 Parameters:    Size  Location     Type
		None
 Auto vars:     Size  Location     Type
  value           1    2[BANK0 ] unsigned char 
 Return value:  Size  Location     Type
                  1    wreg      unsigned char 
 Registers used:
		wreg, status,2, status,0
 Tracked objects:
		On entry : 
		On exit  : 
		Unchanged: 
 Data sizes:     COMMON   BANK0   BANK1   BANK3   BANK2
      Params:         0       0       0       0       0
      Locals:         0       1       0       0       0
      Temps:          0       2       0       0       0
      Totals:         0       3       0       0       0
Total ram usage:        3 bytes
 Hardware stack levels used:    1
 Hardware stack levels required when called:    1
 This function calls:
		Nothing
 This function is called by:
		_main
 This function uses a non-reentrant model


 *************** function _rfm70setPowerdownMode *****************
 Defined at:
		line 400 in file "rfm70.c"
 Parameters:    Size  Location     Type
  value           1    wreg     unsigned char 
 Auto vars:     Size  Location     Type
  value           1    7[BANK0 ] unsigned char 
  reg             1    8[BANK0 ] unsigned char 
 Return value:  Size  Location     Type
		None               void
 Registers used:
		wreg, fsr0l, fsr0h, fsr1l, fsr1h, status,2, status,0, btemp+1, pclath, cstack
 Tracked objects:
		On entry : 
		On exit  : 
		Unchanged: 
 Data sizes:     COMMON   BANK0   BANK1   BANK3   BANK2
      Params:         0       0       0       0       0
      Locals:         0       2       0       0       0
      Temps:          0       1       0       0       0
      Totals:         0       3       0       0       0
Total ram usage:        3 bytes
 Hardware stack levels used:    1
 Hardware stack levels required when called:    3
 This function calls:
		_SPI_Read_Reg
		_SPI_Write_Reg
 This function is called by:
		_main
 This function uses a non-reentrant model


 *************** function _adcInit *****************
 Defined at:
		line 543 in file "main.c"
 Parameters:    Size  Location     Type
		None
 Auto vars:     Size  Location     Type
		None
 Return value:  Size  Location     Type
		None               void
 Registers used:
		wreg, status,2, status,0
 Tracked objects:
		On entry : 
		On exit  : 
		Unchanged: 
 Data sizes:     COMMON   BANK0   BANK1   BANK3   BANK2
      Params:         0       0       0       0       0
      Locals:         0       0       0       0       0
      Temps:          0       0       0       0       0
      Totals:         0       0       0       0       0
Total ram usage:        0 bytes
 Hardware stack levels used:    1
 Hardware stack levels required when called:    1
 This function calls:
		Nothing
 This function is called by:
		_main
 This function uses a non-reentrant model


 *************** function _uartInit *****************
 Defined at:
		line 509 in file "main.c"
 Parameters:    Size  Location     Type
		None
 Auto vars:     Size  Location     Type
		None
 Return value:  Size  Location     Type
		None               void
 Registers used:
		wreg, status,2
 Tracked objects:
		On entry : 
		On exit  : 
		Unchanged: 
 Data sizes:     COMMON   BANK0   BANK1   BANK3   BANK2
      Params:         0       0       0       0       0
      Locals:         0       0       0       0       0
      Temps:          0       0       0       0       0
      Totals:         0       0       0       0       0
Total ram usage:        0 bytes
 Hardware stack levels used:    1
 Hardware stack levels required when called:    1
 This function calls:
		Nothing
 This function is called by:
		_main
 This function uses a non-reentrant model


 *************** function _spiInit *****************
 Defined at:
		line 531 in file "main.c"
 Parameters:    Size  Location     Type
		None
 Auto vars:     Size  Location     Type
		None
 Return value:  Size  Location     Type
		None               void
 Registers used:
		wreg, status,2, status,0
 Tracked objects:
		On entry : 
		On exit  : 
		Unchanged: 
 Data sizes:     COMMON   BANK0   BANK1   BANK3   BANK2
      Params:         0       0       0       0       0
      Locals:         0       0       0       0       0
      Temps:          0       2       0       0       0
      Totals:         0       2       0       0       0
Total ram usage:        2 bytes
 Hardware stack levels used:    1
 Hardware stack levels required when called:    1
 This function calls:
		Nothing
 This function is called by:
		_main
 This function uses a non-reentrant model


 *************** function _boardInit *****************
 Defined at:
		line 710 in file "main.c"
 Parameters:    Size  Location     Type
		None
 Auto vars:     Size  Location     Type
		None
 Return value:  Size  Location     Type
		None               void
 Registers used:
		wreg, status,2, status,0
 Tracked objects:
		On entry : 
		On exit  : 
		Unchanged: 
 Data sizes:     COMMON   BANK0   BANK1   BANK3   BANK2
      Params:         0       0       0       0       0
      Locals:         0       0       0       0       0
      Temps:          0       0       0       0       0
      Totals:         0       0       0       0       0
Total ram usage:        0 bytes
 Hardware stack levels used:    1
 Hardware stack levels required when called:    1
 This function calls:
		Nothing
 This function is called by:
		_main
 This function uses a non-reentrant model


 *************** function _adcReadTemp *****************
 Defined at:
		line 416 in file "main.c"
 Parameters:    Size  Location     Type
		None
 Auto vars:     Size  Location     Type
  value           1    2[BANK0 ] unsigned char 
 Return value:  Size  Location     Type
                  1    wreg      unsigned char 
 Registers used:
		wreg, status,2, status,0
 Tracked objects:
		On entry : 
		On exit  : 
		Unchanged: 
 Data sizes:     COMMON   BANK0   BANK1   BANK3   BANK2
      Params:         0       0       0       0       0
      Locals:         0       1       0       0       0
      Temps:          0       2       0       0       0
      Totals:         0       3       0       0       0
Total ram usage:        3 bytes
 Hardware stack levels used:    1
 Hardware stack levels required when called:    1
 This function calls:
		Nothing
 This function is called by:
		_main
 This function uses a non-reentrant model


 *************** function _Send_Packet *****************
 Defined at:
		line 597 in file "main.c"
 Parameters:    Size  Location     Type
  type            1    wreg     unsigned char 
  pbuf            1   30[BANK0 ] PTR unsigned char 
		 -> tx_buf(10), 
  len             1   31[BANK0 ] unsigned char 
 Auto vars:     Size  Location     Type
  type            1   35[BANK0 ] unsigned char 
  i               1   37[BANK0 ] unsigned char 
  fifo_sta        1   36[BANK0 ] unsigned char 
 Return value:  Size  Location     Type
		None               void
 Registers used:
		wreg, fsr0l, fsr0h, fsr1l, fsr1h, status,2, status,0, btemp+1, pclath, cstack
 Tracked objects:
		On entry : 
		On exit  : 
		Unchanged: 
 Data sizes:     COMMON   BANK0   BANK1   BANK3   BANK2
      Params:         0       2       0       0       0
      Locals:         0       3       0       0       0
      Temps:          0       3       0       0       0
      Totals:         0       8       0       0       0
Total ram usage:        8 bytes
 Hardware stack levels used:    1
 Hardware stack levels required when called:    4
 This function calls:
		_SwitchToTxMode
		_SPI_Read_Reg
		_printf
		_SPI_Write_Buf
		_rfm70TxDataSentInterrupt
		_SwitchToRxMode
		_rfm70TxDataSentErrorInterrupt
 This function is called by:
		_main
 This function uses a non-reentrant model


 *************** function _rfm70TxDataSentErrorInterrupt *****************
 Defined at:
		line 380 in file "rfm70.c"
 Parameters:    Size  Location     Type
		None
 Auto vars:     Size  Location     Type
		None
 Return value:  Size  Location     Type
                  1    wreg      unsigned char 
 Registers used:
		wreg, fsr0l, fsr0h, fsr1l, fsr1h, status,2, status,0, btemp+1, pclath, cstack
 Tracked objects:
		On entry : 
		On exit  : 
		Unchanged: 
 Data sizes:     COMMON   BANK0   BANK1   BANK3   BANK2
      Params:         0       0       0       0       0
      Locals:         0       0       0       0       0
      Temps:          0       1       0       0       0
      Totals:         0       1       0       0       0
Total ram usage:        1 bytes
 Hardware stack levels used:    1
 Hardware stack levels required when called:    3
 This function calls:
		_SPI_Read_Reg
		_SPI_Write_Reg
 This function is called by:
		_Send_Packet
 This function uses a non-reentrant model


 *************** function _SwitchToRxMode *****************
 Defined at:
		line 165 in file "rfm70.c"
 Parameters:    Size  Location     Type
		None
 Auto vars:     Size  Location     Type
  value           1    7[BANK0 ] unsigned char 
 Return value:  Size  Location     Type
		None               void
 Registers used:
		wreg, fsr0l, fsr0h, fsr1l, fsr1h, status,2, status,0, btemp+1, pclath, cstack
 Tracked objects:
		On entry : 
		On exit  : 
		Unchanged: 
 Data sizes:     COMMON   BANK0   BANK1   BANK3   BANK2
      Params:         0       0       0       0       0
      Locals:         0       1       0       0       0
      Temps:          0       1       0       0       0
      Totals:         0       2       0       0       0
Total ram usage:        2 bytes
 Hardware stack levels used:    1
 Hardware stack levels required when called:    3
 This function calls:
		_SPI_Write_Reg
		_SPI_Read_Reg
 This function is called by:
		_Send_Packet
		_Receive_Packet
 This function uses a non-reentrant model


 *************** function _rfm70TxDataSentInterrupt *****************
 Defined at:
		line 371 in file "rfm70.c"
 Parameters:    Size  Location     Type
		None
 Auto vars:     Size  Location     Type
		None
 Return value:  Size  Location     Type
                  1    wreg      unsigned char 
 Registers used:
		wreg, fsr0l, fsr0h, fsr1l, fsr1h, status,2, status,0, btemp+1, pclath, cstack
 Tracked objects:
		On entry : 
		On exit  : 
		Unchanged: 
 Data sizes:     COMMON   BANK0   BANK1   BANK3   BANK2
      Params:         0       0       0       0       0
      Locals:         0       0       0       0       0
      Temps:          0       1       0       0       0
      Totals:         0       1       0       0       0
Total ram usage:        1 bytes
 Hardware stack levels used:    1
 Hardware stack levels required when called:    3
 This function calls:
		_SPI_Read_Reg
		_SPI_Write_Reg
 This function is called by:
		_Send_Packet
 This function uses a non-reentrant model


 *************** function _SPI_Write_Buf *****************
 Defined at:
		line 147 in file "rfm70.c"
 Parameters:    Size  Location     Type
  reg             1    wreg     unsigned char 
  pBuf            1    3[BANK0 ] PTR unsigned char 
		 -> RFM70_Initialize@WriteArr(12), tx_buf(10), 
  length          1    4[BANK0 ] unsigned char 
 Auto vars:     Size  Location     Type
  reg             1    6[BANK0 ] unsigned char 
  byte_ctr        1    7[BANK0 ] unsigned char 
 Return value:  Size  Location     Type
		None               void
 Registers used:
		wreg, fsr0l, fsr0h, status,2, status,0, pclath, cstack
 Tracked objects:
		On entry : 
		On exit  : 
		Unchanged: 
 Data sizes:     COMMON   BANK0   BANK1   BANK3   BANK2
      Params:         0       2       0       0       0
      Locals:         0       2       0       0       0
      Temps:          0       1       0       0       0
      Totals:         0       5       0       0       0
Total ram usage:        5 bytes
 Hardware stack levels used:    1
 Hardware stack levels required when called:    2
 This function calls:
		_SPI_RW
 This function is called by:
		_Send_Packet
		_RFM70_Initialize
 This function uses a non-reentrant model


 *************** function _printf *****************
 Defined at:
		line 465 in file "/Applications/microchip/xc8/v1.12/sources/doprnt.c"
 Parameters:    Size  Location     Type
  f               2   14[BANK0 ] PTR const unsigned char 
		 -> STR_9(5), STR_8(12), Receive_Packet@rx_buf(32), STR_7(5), 
		 -> STR_6(24), STR_5(17), STR_4(3), STR_3(3), 
		 -> STR_2(10), STR_1(26), 
 Auto vars:     Size  Location     Type
  idx             1   21[BANK0 ] unsigned char 
  _val            4   25[BANK0 ] struct .
  c               1   29[BANK0 ] char 
  flag            1   24[BANK0 ] unsigned char 
  prec            1   23[BANK0 ] char 
  ap              1   22[BANK0 ] PTR void [1]
		 -> ?_printf(2), 
 Return value:  Size  Location     Type
                  2   14[BANK0 ] int 
 Registers used:
		wreg, fsr0l, fsr0h, status,2, status,0, btemp+1, pclath, cstack
 Tracked objects:
		On entry : 
		On exit  : 
		Unchanged: 
 Data sizes:     COMMON   BANK0   BANK1   BANK3   BANK2
      Params:         0       4       0       0       0
      Locals:         0       9       0       0       0
      Temps:          0       3       0       0       0
      Totals:         0      16       0       0       0
Total ram usage:       16 bytes
 Hardware stack levels used:    1
 Hardware stack levels required when called:    2
 This function calls:
		_putch
		___lwdiv
		___lwmod
 This function is called by:
		_main
		_Send_Packet
		_Receive_Packet
 This function uses a non-reentrant model


 *************** function _sleep *****************
 Defined at:
		line 324 in file "main.c"
 Parameters:    Size  Location     Type
		None
 Auto vars:     Size  Location     Type
  new_value       1   30[BANK0 ] unsigned char 
 Return value:  Size  Location     Type
		None               void
 Registers used:
		wreg, status,2, status,0, btemp+1, pclath, cstack
 Tracked objects:
		On entry : 
		On exit  : 
		Unchanged: 
 Data sizes:     COMMON   BANK0   BANK1   BANK3   BANK2
      Params:         0       0       0       0       0
      Locals:         0       1       0       0       0
      Temps:          0       2       0       0       0
      Totals:         0       3       0       0       0
Total ram usage:        3 bytes
 Hardware stack levels used:    1
 Hardware stack levels required when called:    3
 This function calls:
		_adcReadVcap
		___fttol
		___ftge
		___ftmul
		___ftdiv
 This function is called by:
		_main
 This function uses a non-reentrant model


 *************** function _adcReadVcap *****************
 Defined at:
		line 434 in file "main.c"
 Parameters:    Size  Location     Type
		None
 Auto vars:     Size  Location     Type
  value           1    2[BANK0 ] unsigned char 
 Return value:  Size  Location     Type
                  1    wreg      unsigned char 
 Registers used:
		wreg, status,2, status,0
 Tracked objects:
		On entry : 
		On exit  : 
		Unchanged: 
 Data sizes:     COMMON   BANK0   BANK1   BANK3   BANK2
      Params:         0       0       0       0       0
      Locals:         0       1       0       0       0
      Temps:          0       2       0       0       0
      Totals:         0       3       0       0       0
Total ram usage:        3 bytes
 Hardware stack levels used:    1
 Hardware stack levels required when called:    1
 This function calls:
		Nothing
 This function is called by:
		_main
		_sleep
 This function uses a non-reentrant model


 *************** function _putch *****************
 Defined at:
		line 554 in file "main.c"
 Parameters:    Size  Location     Type
  c               1    wreg     unsigned char 
 Auto vars:     Size  Location     Type
  c               1    0[BANK0 ] unsigned char 
 Return value:  Size  Location     Type
		None               void
 Registers used:
		wreg
 Tracked objects:
		On entry : 
		On exit  : 
		Unchanged: 
 Data sizes:     COMMON   BANK0   BANK1   BANK3   BANK2
      Params:         0       0       0       0       0
      Locals:         0       1       0       0       0
      Temps:          0       0       0       0       0
      Totals:         0       1       0       0       0
Total ram usage:        1 bytes
 Hardware stack levels used:    1
 Hardware stack levels required when called:    1
 This function calls:
		Nothing
 This function is called by:
		_printf
		_getche
 This function uses a non-reentrant model


 *************** function _SwitchToTxMode *****************
 Defined at:
		line 191 in file "rfm70.c"
 Parameters:    Size  Location     Type
		None
 Auto vars:     Size  Location     Type
  value           1    7[BANK0 ] unsigned char 
 Return value:  Size  Location     Type
		None               void
 Registers used:
		wreg, fsr0l, fsr0h, fsr1l, fsr1h, status,2, status,0, btemp+1, pclath, cstack
 Tracked objects:
		On entry : 
		On exit  : 
		Unchanged: 
 Data sizes:     COMMON   BANK0   BANK1   BANK3   BANK2
      Params:         0       0       0       0       0
      Locals:         0       1       0       0       0
      Temps:          0       1       0       0       0
      Totals:         0       2       0       0       0
Total ram usage:        2 bytes
 Hardware stack levels used:    1
 Hardware stack levels required when called:    3
 This function calls:
		_SPI_Write_Reg
		_SPI_Read_Reg
 This function is called by:
		_Send_Packet
 This function uses a non-reentrant model


 *************** function _SwitchCFG *****************
 Defined at:
		line 218 in file "rfm70.c"
 Parameters:    Size  Location     Type
  _cfg            1    wreg     unsigned char 
 Auto vars:     Size  Location     Type
  _cfg            1    7[BANK0 ] unsigned char 
  Tmp             1    8[BANK0 ] unsigned char 
 Return value:  Size  Location     Type
		None               void
 Registers used:
		wreg, status,2, status,0, pclath, cstack
 Tracked objects:
		On entry : 
		On exit  : 
		Unchanged: 
 Data sizes:     COMMON   BANK0   BANK1   BANK3   BANK2
      Params:         0       0       0       0       0
      Locals:         0       2       0       0       0
      Temps:          0       1       0       0       0
      Totals:         0       3       0       0       0
Total ram usage:        3 bytes
 Hardware stack levels used:    1
 Hardware stack levels required when called:    3
 This function calls:
		_SPI_Read_Reg
		_SPI_Write_Reg
 This function is called by:
		_RFM70_Initialize
 This function uses a non-reentrant model


 *************** function _SPI_Write_Reg *****************
 Defined at:
		line 94 in file "rfm70.c"
 Parameters:    Size  Location     Type
  reg             1    wreg     unsigned char 
  value           1    3[BANK0 ] unsigned char 
 Auto vars:     Size  Location     Type
  reg             1    4[BANK0 ] unsigned char 
 Return value:  Size  Location     Type
		None               void
 Registers used:
		wreg, status,2, status,0, pclath, cstack
 Tracked objects:
		On entry : 
		On exit  : 
		Unchanged: 
 Data sizes:     COMMON   BANK0   BANK1   BANK3   BANK2
      Params:         0       1       0       0       0
      Locals:         0       1       0       0       0
      Temps:          0       0       0       0       0
      Totals:         0       2       0       0       0
Total ram usage:        2 bytes
 Hardware stack levels used:    1
 Hardware stack levels required when called:    2
 This function calls:
		_SPI_RW
 This function is called by:
		_SwitchToRxMode
		_SwitchToTxMode
		_SwitchCFG
		_RFM70_Initialize
		_rfm70TxDataSentInterrupt
		_rfm70TxDataSentErrorInterrupt
		_rfm70setPowerdownMode
		_Receive_Packet
		_SetChannelNum
		_rfm70_data_sent
 This function uses a non-reentrant model


 *************** function _SPI_Read_Reg *****************
 Defined at:
		line 109 in file "rfm70.c"
 Parameters:    Size  Location     Type
  reg             1    wreg     unsigned char 
 Auto vars:     Size  Location     Type
  reg             1    4[BANK0 ] unsigned char 
  value           1    5[BANK0 ] unsigned char 
 Return value:  Size  Location     Type
                  1    wreg      unsigned char 
 Registers used:
		wreg, status,2, status,0, pclath, cstack
 Tracked objects:
		On entry : 
		On exit  : 
		Unchanged: 
 Data sizes:     COMMON   BANK0   BANK1   BANK3   BANK2
      Params:         0       0       0       0       0
      Locals:         0       2       0       0       0
      Temps:          0       1       0       0       0
      Totals:         0       3       0       0       0
Total ram usage:        3 bytes
 Hardware stack levels used:    1
 Hardware stack levels required when called:    2
 This function calls:
		_SPI_RW
 This function is called by:
		_Send_Packet
		_SwitchToRxMode
		_SwitchToTxMode
		_SwitchCFG
		_RFM70_Initialize
		_rfm70TxDataSentInterrupt
		_rfm70TxDataSentErrorInterrupt
		_rfm70setPowerdownMode
		_Receive_Packet
		_rfm70_data_sent
 This function uses a non-reentrant model


 *************** function _SPI_RW *****************
 Defined at:
		line 78 in file "rfm70.c"
 Parameters:    Size  Location     Type
  value           1    wreg     unsigned char 
 Auto vars:     Size  Location     Type
  value           1    2[BANK0 ] unsigned char 
 Return value:  Size  Location     Type
                  1    wreg      unsigned char 
 Registers used:
		wreg
 Tracked objects:
		On entry : 
		On exit  : 
		Unchanged: 
 Data sizes:     COMMON   BANK0   BANK1   BANK3   BANK2
      Params:         0       0       0       0       0
      Locals:         0       1       0       0       0
      Temps:          0       2       0       0       0
      Totals:         0       3       0       0       0
Total ram usage:        3 bytes
 Hardware stack levels used:    1
 Hardware stack levels required when called:    1
 This function calls:
		Nothing
 This function is called by:
		_SPI_Write_Reg
		_SPI_Read_Reg
		_SPI_Write_Buf
		_SPI_Read_Buf
 This function uses a non-reentrant model


 *************** function ___ftmul *****************
 Defined at:
		line 52 in file "/Applications/microchip/xc8/v1.12/sources/ftmul.c"
 Parameters:    Size  Location     Type
  f1              3    8[BANK0 ] float 
  f2              3   11[BANK0 ] float 
 Auto vars:     Size  Location     Type
  f3_as_produc    3   19[BANK0 ] unsigned um
  sign            1   23[BANK0 ] unsigned char 
  cntr            1   22[BANK0 ] unsigned char 
  exp             1   18[BANK0 ] unsigned char 
 Return value:  Size  Location     Type
                  3    8[BANK0 ] float 
 Registers used:
		wreg, status,2, status,0, pclath, cstack
 Tracked objects:
		On entry : 
		On exit  : 
		Unchanged: 
 Data sizes:     COMMON   BANK0   BANK1   BANK3   BANK2
      Params:         0       6       0       0       0
      Locals:         0       6       0       0       0
      Temps:          0       4       0       0       0
      Totals:         0      16       0       0       0
Total ram usage:       16 bytes
 Hardware stack levels used:    1
 Hardware stack levels required when called:    2
 This function calls:
		___ftpack
 This function is called by:
		_sleep
 This function uses a non-reentrant model


 *************** function ___ftdiv *****************
 Defined at:
		line 50 in file "/Applications/microchip/xc8/v1.12/sources/ftdiv.c"
 Parameters:    Size  Location     Type
  f2              3    8[BANK0 ] float 
  f1              3   11[BANK0 ] float 
 Auto vars:     Size  Location     Type
  f3              3   19[BANK0 ] float 
  sign            1   23[BANK0 ] unsigned char 
  exp             1   22[BANK0 ] unsigned char 
  cntr            1   18[BANK0 ] unsigned char 
 Return value:  Size  Location     Type
                  3    8[BANK0 ] float 
 Registers used:
		wreg, status,2, status,0, pclath, cstack
 Tracked objects:
		On entry : 
		On exit  : 
		Unchanged: 
 Data sizes:     COMMON   BANK0   BANK1   BANK3   BANK2
      Params:         0       6       0       0       0
      Locals:         0       6       0       0       0
      Temps:          0       4       0       0       0
      Totals:         0      16       0       0       0
Total ram usage:       16 bytes
 Hardware stack levels used:    1
 Hardware stack levels required when called:    2
 This function calls:
		___ftpack
 This function is called by:
		_sleep
 This function uses a non-reentrant model


 *************** function ___wmul *****************
 Defined at:
		line 3 in file "/Applications/microchip/xc8/v1.12/sources/wmul.c"
 Parameters:    Size  Location     Type
  multiplier      2    0[BANK0 ] unsigned int 
  multiplicand    2    2[BANK0 ] unsigned int 
 Auto vars:     Size  Location     Type
  product         2    4[BANK0 ] unsigned int 
 Return value:  Size  Location     Type
                  2    0[BANK0 ] unsigned int 
 Registers used:
		wreg, status,2, status,0
 Tracked objects:
		On entry : 
		On exit  : 
		Unchanged: 
 Data sizes:     COMMON   BANK0   BANK1   BANK3   BANK2
      Params:         0       4       0       0       0
      Locals:         0       2       0       0       0
      Temps:          0       0       0       0       0
      Totals:         0       6       0       0       0
Total ram usage:        6 bytes
 Hardware stack levels used:    1
 Hardware stack levels required when called:    1
 This function calls:
		Nothing
 This function is called by:
		_main
 This function uses a non-reentrant model


 *************** function ___lwdiv *****************
 Defined at:
		line 5 in file "/Applications/microchip/xc8/v1.12/sources/lwdiv.c"
 Parameters:    Size  Location     Type
  divisor         2    0[BANK0 ] unsigned int 
  dividend        2    2[BANK0 ] unsigned int 
 Auto vars:     Size  Location     Type
  quotient        2    5[BANK0 ] unsigned int 
  counter         1    7[BANK0 ] unsigned char 
 Return value:  Size  Location     Type
                  2    0[BANK0 ] unsigned int 
 Registers used:
		wreg, status,2, status,0
 Tracked objects:
		On entry : 
		On exit  : 
		Unchanged: 
 Data sizes:     COMMON   BANK0   BANK1   BANK3   BANK2
      Params:         0       4       0       0       0
      Locals:         0       3       0       0       0
      Temps:          0       1       0       0       0
      Totals:         0       8       0       0       0
Total ram usage:        8 bytes
 Hardware stack levels used:    1
 Hardware stack levels required when called:    1
 This function calls:
		Nothing
 This function is called by:
		_printf
 This function uses a non-reentrant model


 *************** function ___lwmod *****************
 Defined at:
		line 5 in file "/Applications/microchip/xc8/v1.12/sources/lwmod.c"
 Parameters:    Size  Location     Type
  divisor         2    8[BANK0 ] unsigned int 
  dividend        2   10[BANK0 ] unsigned int 
 Auto vars:     Size  Location     Type
  counter         1   13[BANK0 ] unsigned char 
 Return value:  Size  Location     Type
                  2    8[BANK0 ] unsigned int 
 Registers used:
		wreg, status,2, status,0
 Tracked objects:
		On entry : 
		On exit  : 
		Unchanged: 
 Data sizes:     COMMON   BANK0   BANK1   BANK3   BANK2
      Params:         0       4       0       0       0
      Locals:         0       1       0       0       0
      Temps:          0       1       0       0       0
      Totals:         0       6       0       0       0
Total ram usage:        6 bytes
 Hardware stack levels used:    1
 Hardware stack levels required when called:    1
 This function calls:
		Nothing
 This function is called by:
		_printf
 This function uses a non-reentrant model


 *************** function ___fttol *****************
 Defined at:
		line 45 in file "/Applications/microchip/xc8/v1.12/sources/fttol.c"
 Parameters:    Size  Location     Type
  f1              3    0[BANK0 ] float 
 Auto vars:     Size  Location     Type
  lval            4    9[BANK0 ] unsigned long 
  exp1            1   13[BANK0 ] unsigned char 
  sign1           1    8[BANK0 ] unsigned char 
 Return value:  Size  Location     Type
                  4    0[BANK0 ] long 
 Registers used:
		wreg, status,2, status,0
 Tracked objects:
		On entry : 
		On exit  : 
		Unchanged: 
 Data sizes:     COMMON   BANK0   BANK1   BANK3   BANK2
      Params:         0       4       0       0       0
      Locals:         0       6       0       0       0
      Temps:          0       4       0       0       0
      Totals:         0      14       0       0       0
Total ram usage:       14 bytes
 Hardware stack levels used:    1
 Hardware stack levels required when called:    1
 This function calls:
		Nothing
 This function is called by:
		_main
		_sleep
 This function uses a non-reentrant model


 *************** function ___lbtoft *****************
 Defined at:
		line 28 in file "/Applications/microchip/xc8/v1.12/sources/lbtoft.c"
 Parameters:    Size  Location     Type
  c               1    wreg     unsigned char 
 Auto vars:     Size  Location     Type
  c               1   15[BANK0 ] unsigned char 
 Return value:  Size  Location     Type
                  3    8[BANK0 ] float 
 Registers used:
		wreg, status,2, status,0, pclath, cstack
 Tracked objects:
		On entry : 
		On exit  : 
		Unchanged: 
 Data sizes:     COMMON   BANK0   BANK1   BANK3   BANK2
      Params:         0       3       0       0       0
      Locals:         0       1       0       0       0
      Temps:          0       4       0       0       0
      Totals:         0       8       0       0       0
Total ram usage:        8 bytes
 Hardware stack levels used:    1
 Hardware stack levels required when called:    2
 This function calls:
		___ftpack
 This function is called by:
		_main
 This function uses a non-reentrant model


 *************** function ___ftpack *****************
 Defined at:
		line 63 in file "/Applications/microchip/xc8/v1.12/sources/float.c"
 Parameters:    Size  Location     Type
  arg             3    0[BANK0 ] unsigned um
  exp             1    3[BANK0 ] unsigned char 
  sign            1    4[BANK0 ] unsigned char 
 Auto vars:     Size  Location     Type
		None
 Return value:  Size  Location     Type
                  3    0[BANK0 ] float 
 Registers used:
		wreg, status,2, status,0
 Tracked objects:
		On entry : 
		On exit  : 
		Unchanged: 
 Data sizes:     COMMON   BANK0   BANK1   BANK3   BANK2
      Params:         0       5       0       0       0
      Locals:         0       0       0       0       0
      Temps:          0       3       0       0       0
      Totals:         0       8       0       0       0
Total ram usage:        8 bytes
 Hardware stack levels used:    1
 Hardware stack levels required when called:    1
 This function calls:
		Nothing
 This function is called by:
		___ftdiv
		___ftmul
		___lbtoft
 This function uses a non-reentrant model


 *************** function ___awdiv *****************
 Defined at:
		line 5 in file "/Applications/microchip/xc8/v1.12/sources/awdiv.c"
 Parameters:    Size  Location     Type
  divisor         2    6[BANK0 ] int 
  dividend        2    8[BANK0 ] int 
 Auto vars:     Size  Location     Type
  quotient        2   13[BANK0 ] int 
  sign            1   12[BANK0 ] unsigned char 
  counter         1   11[BANK0 ] unsigned char 
 Return value:  Size  Location     Type
                  2    6[BANK0 ] int 
 Registers used:
		wreg, status,2, status,0
 Tracked objects:
		On entry : 
		On exit  : 
		Unchanged: 
 Data sizes:     COMMON   BANK0   BANK1   BANK3   BANK2
      Params:         0       4       0       0       0
      Locals:         0       4       0       0       0
      Temps:          0       1       0       0       0
      Totals:         0       9       0       0       0
Total ram usage:        9 bytes
 Hardware stack levels used:    1
 Hardware stack levels required when called:    1
 This function calls:
		Nothing
 This function is called by:
		_main
 This function uses a non-reentrant model


 *************** function ___ftge *****************
 Defined at:
		line 5 in file "/Applications/microchip/xc8/v1.12/sources/ftge.c"
 Parameters:    Size  Location     Type
  ff1             3   16[BANK0 ] float 
  ff2             3   19[BANK0 ] float 
 Auto vars:     Size  Location     Type
		None
 Return value:  Size  Location     Type
		None               void
 Registers used:
		wreg, status,2, status,0
 Tracked objects:
		On entry : 
		On exit  : 
		Unchanged: 
 Data sizes:     COMMON   BANK0   BANK1   BANK3   BANK2
      Params:         0       6       0       0       0
      Locals:         0       0       0       0       0
      Temps:          0       6       0       0       0
      Totals:         0      12       0       0       0
Total ram usage:       12 bytes
 Hardware stack levels used:    1
 Hardware stack levels required when called:    1
 This function calls:
		Nothing
 This function is called by:
		_main
		_sleep
 This function uses a non-reentrant model


 *************** function _ISR *****************
 Defined at:
		line 112 in file "main.c"
 Parameters:    Size  Location     Type
		None
 Auto vars:     Size  Location     Type
		None
 Return value:  Size  Location     Type
		None               void
 Registers used:
		wreg, fsr0l, fsr0h, status,2, status,0
 Tracked objects:
		On entry : 
		On exit  : 
		Unchanged: 
 Data sizes:     COMMON   BANK0   BANK1   BANK3   BANK2
      Params:         0       0       0       0       0
      Locals:         0       0       0       0       0
      Temps:          8       0       0       0       0
      Totals:         8       0       0       0       0
Total ram usage:        8 bytes
 Hardware stack levels used:    1
 This function calls:
		Nothing
 This function is called by:
		Interrupt level 1
 This function uses a non-reentrant model



MODULE INFORMATION

Module		Function		Class		Link	Load	Size
/Applications/microchip/xc8/v1.12/sources/lbtoft.c
		___lbtoft      		CODE           	169F	0000	33

/Applications/microchip/xc8/v1.12/sources/lbtoft.c estimated size: 33

/Applications/microchip/xc8/v1.12/sources/ftdiv.c
		___ftdiv       		CODE           	0D4A	0000	200

/Applications/microchip/xc8/v1.12/sources/ftdiv.c estimated size: 200

shared
		__stringtab    		STRCODE        	0700	0000	18
		__stringdata   		STRCODE        	07A3	0000	114
		_Bank0_Reg     		STRCODE        	074A	0000	46
		_Bank0_RegAct  		STRCODE        	0000	0000	1955
		_dpowers       		STRCODE        	0783	0000	10
		_Bank1_Reg14   		STRCODE        	0778	0000	11
		_Bank1_Reg0_13 		STRCODE        	0712	0000	56
		_RX0_Address   		STRCODE        	0795	0000	5
		__initializatio		CODE           	17CA	0000	50
		_RX1_Address   		STRCODE        	079A	0000	5
		_hexpowers     		STRCODE        	078D	0000	8

shared estimated size: 2278

/Applications/microchip/xc8/v1.12/sources/ftmul.c
		___ftmul       		CODE           	0E12	0000	238

/Applications/microchip/xc8/v1.12/sources/ftmul.c estimated size: 238

/Applications/microchip/xc8/v1.12/sources/fttol.c
		___fttol       		CODE           	0B25	0000	166

/Applications/microchip/xc8/v1.12/sources/fttol.c estimated size: 166

main.c
		_Send_Packet   		CODE           	0BCB	0000	191
		_adcReadVcap   		CODE           	1797	0000	51
		_adcReadTemp   		CODE           	0819	0000	56
		_ISR           		CODE           	095C	0000	106
		_putch         		CODE           	15BF	0000	12
		_adcReadVsuperc		CODE           	0851	0000	56
		_main          		CODE           	0325	0000	555
		_spiInit       		CODE           	1617	0000	24
		_boardInit     		CODE           	0C8A	0000	192
		_adcInit       		CODE           	15B6	0000	9
		_sleep         		CODE           	0F00	0000	256
		_uartInit      		CODE           	1601	0000	22

main.c estimated size: 1530

/Applications/microchip/xc8/v1.12/sources/ftge.c
		___ftge        		CODE           	09C6	0000	110

/Applications/microchip/xc8/v1.12/sources/ftge.c estimated size: 110

/Applications/microchip/xc8/v1.12/sources/wmul.c
		___wmul        		CODE           	1739	0000	44

/Applications/microchip/xc8/v1.12/sources/wmul.c estimated size: 44

/Applications/microchip/xc8/v1.12/sources/lwmod.c
		___lwmod       		CODE           	08C8	0000	69

/Applications/microchip/xc8/v1.12/sources/lwmod.c estimated size: 69

/Applications/microchip/xc8/v1.12/sources/awdiv.c
		___awdiv       		CODE           	0A34	0000	116

/Applications/microchip/xc8/v1.12/sources/awdiv.c estimated size: 116

rfm70.c
		_rfm70setPowerd		CODE           	16C0	0000	37
		_SPI_RW        		CODE           	162F	0000	25
		_rfm70TxDataSen		CODE           	1680	0000	31
		_rfm70TxDataSen		CODE           	1661	0000	31
		_SPI_Write_Reg 		CODE           	15EB	0000	22
		_SPI_Write_Buf 		CODE           	170F	0000	42
		_SPI_Read_Reg  		CODE           	1648	0000	25
		_RFM70_Initiali		CODE           	0015	0000	784
		_SwitchToRxMode		CODE           	0889	0000	63
		_SwitchToTxMode		CODE           	16E5	0000	42
		_SwitchCFG     		CODE           	1765	0000	50

rfm70.c estimated size: 1152

/Applications/microchip/xc8/v1.12/sources/lwdiv.c
		___lwdiv       		CODE           	090D	0000	79

/Applications/microchip/xc8/v1.12/sources/lwdiv.c estimated size: 79

/Applications/microchip/xc8/v1.12/sources/doprnt.c
		_printf        		CODE           	0550	0000	432

/Applications/microchip/xc8/v1.12/sources/doprnt.c estimated size: 432

/Applications/microchip/xc8/v1.12/sources/float.c
		___ftpack      		CODE           	0AA8	0000	125

/Applications/microchip/xc8/v1.12/sources/float.c estimated size: 125

