

Microchip Technology PIC LITE Macro Assembler V1.12 build 49521 
                                                                                               Sun May 26 18:01:50 2013

HI-TECH Software Omniscient Code Generator (Lite mode) build 49521
     1  0000                     opt subtitle "HI-TECH Software Omniscient Code Generator (Lite mode) build 49521"
     2                           opt subtitle "HI-TECH Software Omniscient Code Generator (Lite mode) build 49521"
     3                           
     4                           opt pagewidth 120
     5                           
     6                           	opt lm
     7                           
     8                           	processor	16LF707
     9                           clrc	macro
    10  0000                     	endm
    11                           opt subtitle "HI-TECH Software Omniscient Code Generator (Lite mode) build 49521"
    12                           
    13  0000                     	endm
    14                           opt subtitle "HI-TECH Software Omniscient Code Generator (Lite mode) build 49521"
    15                           
    16  0000                     	endm
    17                           opt subtitle "HI-TECH Software Omniscient Code Generator (Lite mode) build 49521"
    18                           
    19  0000                     	endm
    20                           opt subtitle "HI-TECH Software Omniscient Code Generator (Lite mode) build 49521"
    21                           
    22  0000                     	endm
    23                           opt subtitle "HI-TECH Software Omniscient Code Generator (Lite mode) build 49521"
    24                           
    25  0000                     	endm
    26                           opt subtitle "HI-TECH Software Omniscient Code Generator (Lite mode) build 49521"
    27                           
    28  0000                     	endm
    29                           opt subtitle "HI-TECH Software Omniscient Code Generator (Lite mode) build 49521"
    30                           
    31  0000                     	endm
    32  0000                     indf	equ	0
    33  0000                     indf0	equ	0
    34  0002                     pc	equ	2
    35  0002                     pcl	equ	2
    36  0003                     status	equ	3
    37  0004                     fsr	equ	4
    38  0004                     fsr0	equ	4
    39  0001                     c	equ	1
    40  0000                     z	equ	0
    41  000A                     pclath	equ	10
    42                           opt subtitle "HI-TECH Software Omniscient Code Generator (Lite mode) build 49521"
    43  0000                     INDF equ 00h ;# 
    44                           opt subtitle "HI-TECH Software Omniscient Code Generator (Lite mode) build 49521"
    45  0001                     TMR0 equ 01h ;# 
    46                           opt subtitle "HI-TECH Software Omniscient Code Generator (Lite mode) build 49521"
    47  0002                     PCL equ 02h ;# 
    48                           opt subtitle "HI-TECH Software Omniscient Code Generator (Lite mode) build 49521"
    49  0003                     STATUS equ 03h ;# 
    50                           opt subtitle "HI-TECH Software Omniscient Code Generator (Lite mode) build 49521"
    51  0004                     FSR equ 04h ;# 
    52                           opt subtitle "HI-TECH Software Omniscient Code Generator (Lite mode) build 49521"
    53  0005                     PORTA equ 05h ;# 
    54                           opt subtitle "HI-TECH Software Omniscient Code Generator (Lite mode) build 49521"
    55  0006                     PORTB equ 06h ;# 
    56                           opt subtitle "HI-TECH Software Omniscient Code Generator (Lite mode) build 49521"
    57  0007                     PORTC equ 07h ;# 
    58                           opt subtitle "HI-TECH Software Omniscient Code Generator (Lite mode) build 49521"
    59  0008                     PORTD equ 08h ;# 
    60                           opt subtitle "HI-TECH Software Omniscient Code Generator (Lite mode) build 49521"
    61  0009                     PORTE equ 09h ;# 
    62                           opt subtitle "HI-TECH Software Omniscient Code Generator (Lite mode) build 49521"
    63  000A                     PCLATH equ 0Ah ;# 
    64                           opt subtitle "HI-TECH Software Omniscient Code Generator (Lite mode) build 49521"
    65  000B                     INTCON equ 0Bh ;# 
    66                           opt subtitle "HI-TECH Software Omniscient Code Generator (Lite mode) build 49521"
    67  000C                     PIR1 equ 0Ch ;# 
    68                           opt subtitle "HI-TECH Software Omniscient Code Generator (Lite mode) build 49521"
    69  000D                     PIR2 equ 0Dh ;# 
    70                           opt subtitle "HI-TECH Software Omniscient Code Generator (Lite mode) build 49521"
    71  000E                     TMR1 equ 0Eh ;# 
    72                           opt subtitle "HI-TECH Software Omniscient Code Generator (Lite mode) build 49521"
    73  000E                     TMR1L equ 0Eh ;# 
    74                           opt subtitle "HI-TECH Software Omniscient Code Generator (Lite mode) build 49521"
    75  000F                     TMR1H equ 0Fh ;# 
    76                           opt subtitle "HI-TECH Software Omniscient Code Generator (Lite mode) build 49521"
    77  0010                     T1CON equ 010h ;# 
    78                           opt subtitle "HI-TECH Software Omniscient Code Generator (Lite mode) build 49521"
    79  0011                     TMR2 equ 011h ;# 
    80                           opt subtitle "HI-TECH Software Omniscient Code Generator (Lite mode) build 49521"
    81  0012                     T2CON equ 012h ;# 
    82                           opt subtitle "HI-TECH Software Omniscient Code Generator (Lite mode) build 49521"
    83  0013                     SSPBUF equ 013h ;# 
    84                           opt subtitle "HI-TECH Software Omniscient Code Generator (Lite mode) build 49521"
    85  0014                     SSPCON equ 014h ;# 
    86                           opt subtitle "HI-TECH Software Omniscient Code Generator (Lite mode) build 49521"
    87  0015                     CCPR1 equ 015h ;# 
    88                           opt subtitle "HI-TECH Software Omniscient Code Generator (Lite mode) build 49521"
    89  0015                     CCPR1L equ 015h ;# 
    90                           opt subtitle "HI-TECH Software Omniscient Code Generator (Lite mode) build 49521"
    91  0016                     CCPR1H equ 016h ;# 
    92                           opt subtitle "HI-TECH Software Omniscient Code Generator (Lite mode) build 49521"
    93  0017                     CCP1CON equ 017h ;# 
    94                           opt subtitle "HI-TECH Software Omniscient Code Generator (Lite mode) build 49521"
    95  0018                     RCSTA equ 018h ;# 
    96                           opt subtitle "HI-TECH Software Omniscient Code Generator (Lite mode) build 49521"
    97  0019                     TXREG equ 019h ;# 
    98                           opt subtitle "HI-TECH Software Omniscient Code Generator (Lite mode) build 49521"
    99  001A                     RCREG equ 01Ah ;# 
   100                           opt subtitle "HI-TECH Software Omniscient Code Generator (Lite mode) build 49521"
   101  001B                     CCPR2 equ 01Bh ;# 
   102                           opt subtitle "HI-TECH Software Omniscient Code Generator (Lite mode) build 49521"
   103  001B                     CCPR2L equ 01Bh ;# 
   104                           opt subtitle "HI-TECH Software Omniscient Code Generator (Lite mode) build 49521"
   105  001C                     CCPR2H equ 01Ch ;# 
   106                           opt subtitle "HI-TECH Software Omniscient Code Generator (Lite mode) build 49521"
   107  001D                     CCP2CON equ 01Dh ;# 
   108                           opt subtitle "HI-TECH Software Omniscient Code Generator (Lite mode) build 49521"
   109  001E                     ADRES equ 01Eh ;# 
   110                           opt subtitle "HI-TECH Software Omniscient Code Generator (Lite mode) build 49521"
   111  001F                     ADCON0 equ 01Fh ;# 
   112                           opt subtitle "HI-TECH Software Omniscient Code Generator (Lite mode) build 49521"
   113  0081                     OPTION_REG equ 081h ;# 
   114                           opt subtitle "HI-TECH Software Omniscient Code Generator (Lite mode) build 49521"
   115  0085                     TRISA equ 085h ;# 
   116                           opt subtitle "HI-TECH Software Omniscient Code Generator (Lite mode) build 49521"
   117  0086                     TRISB equ 086h ;# 
   118                           opt subtitle "HI-TECH Software Omniscient Code Generator (Lite mode) build 49521"
   119  0087                     TRISC equ 087h ;# 
   120                           opt subtitle "HI-TECH Software Omniscient Code Generator (Lite mode) build 49521"
   121  0088                     TRISD equ 088h ;# 
   122                           opt subtitle "HI-TECH Software Omniscient Code Generator (Lite mode) build 49521"
   123  0089                     TRISE equ 089h ;# 
   124                           opt subtitle "HI-TECH Software Omniscient Code Generator (Lite mode) build 49521"
   125  008C                     PIE1 equ 08Ch ;# 
   126                           opt subtitle "HI-TECH Software Omniscient Code Generator (Lite mode) build 49521"
   127  008D                     PIE2 equ 08Dh ;# 
   128                           opt subtitle "HI-TECH Software Omniscient Code Generator (Lite mode) build 49521"
   129  008E                     PCON equ 08Eh ;# 
   130                           opt subtitle "HI-TECH Software Omniscient Code Generator (Lite mode) build 49521"
   131  008F                     T1GCON equ 08Fh ;# 
   132                           opt subtitle "HI-TECH Software Omniscient Code Generator (Lite mode) build 49521"
   133  0090                     OSCCON equ 090h ;# 
   134                           opt subtitle "HI-TECH Software Omniscient Code Generator (Lite mode) build 49521"
   135  0091                     OSCTUNE equ 091h ;# 
   136                           opt subtitle "HI-TECH Software Omniscient Code Generator (Lite mode) build 49521"
   137  0092                     PR2 equ 092h ;# 
   138                           opt subtitle "HI-TECH Software Omniscient Code Generator (Lite mode) build 49521"
   139  0093                     SSPADD equ 093h ;# 
   140                           opt subtitle "HI-TECH Software Omniscient Code Generator (Lite mode) build 49521"
   141  0093                     SSPMSK equ 093h ;# 
   142                           opt subtitle "HI-TECH Software Omniscient Code Generator (Lite mode) build 49521"
   143  0094                     SSPSTAT equ 094h ;# 
   144                           opt subtitle "HI-TECH Software Omniscient Code Generator (Lite mode) build 49521"
   145  0095                     WPUB equ 095h ;# 
   146                           opt subtitle "HI-TECH Software Omniscient Code Generator (Lite mode) build 49521"
   147  0096                     IOCB equ 096h ;# 
   148                           opt subtitle "HI-TECH Software Omniscient Code Generator (Lite mode) build 49521"
   149  0097                     T3CON equ 097h ;# 
   150                           opt subtitle "HI-TECH Software Omniscient Code Generator (Lite mode) build 49521"
   151  0098                     TXSTA equ 098h ;# 
   152                           opt subtitle "HI-TECH Software Omniscient Code Generator (Lite mode) build 49521"
   153  0099                     SPBRG equ 099h ;# 
   154                           opt subtitle "HI-TECH Software Omniscient Code Generator (Lite mode) build 49521"
   155  009A                     TMR3 equ 09Ah ;# 
   156                           opt subtitle "HI-TECH Software Omniscient Code Generator (Lite mode) build 49521"
   157  009A                     TMR3L equ 09Ah ;# 
   158                           opt subtitle "HI-TECH Software Omniscient Code Generator (Lite mode) build 49521"
   159  009B                     TMR3H equ 09Bh ;# 
   160                           opt subtitle "HI-TECH Software Omniscient Code Generator (Lite mode) build 49521"
   161  009C                     APFCON equ 09Ch ;# 
   162                           opt subtitle "HI-TECH Software Omniscient Code Generator (Lite mode) build 49521"
   163  009D                     FVRCON equ 09Dh ;# 
   164                           opt subtitle "HI-TECH Software Omniscient Code Generator (Lite mode) build 49521"
   165  009E                     T3GCON equ 09Eh ;# 
   166                           opt subtitle "HI-TECH Software Omniscient Code Generator (Lite mode) build 49521"
   167  009F                     ADCON1 equ 09Fh ;# 
   168                           opt subtitle "HI-TECH Software Omniscient Code Generator (Lite mode) build 49521"
   169  0105                     TACON equ 0105h ;# 
   170                           opt subtitle "HI-TECH Software Omniscient Code Generator (Lite mode) build 49521"
   171  0106                     CPSBCON0 equ 0106h ;# 
   172                           opt subtitle "HI-TECH Software Omniscient Code Generator (Lite mode) build 49521"
   173  0107                     CPSBCON1 equ 0107h ;# 
   174                           opt subtitle "HI-TECH Software Omniscient Code Generator (Lite mode) build 49521"
   175  0108                     CPSACON0 equ 0108h ;# 
   176                           opt subtitle "HI-TECH Software Omniscient Code Generator (Lite mode) build 49521"
   177  0109                     CPSACON1 equ 0109h ;# 
   178                           opt subtitle "HI-TECH Software Omniscient Code Generator (Lite mode) build 49521"
   179  010C                     PMDATL equ 010Ch ;# 
   180                           opt subtitle "HI-TECH Software Omniscient Code Generator (Lite mode) build 49521"
   181  010D                     PMADRL equ 010Dh ;# 
   182                           opt subtitle "HI-TECH Software Omniscient Code Generator (Lite mode) build 49521"
   183  010E                     PMDATH equ 010Eh ;# 
   184                           opt subtitle "HI-TECH Software Omniscient Code Generator (Lite mode) build 49521"
   185  010F                     PMADRH equ 010Fh ;# 
   186                           opt subtitle "HI-TECH Software Omniscient Code Generator (Lite mode) build 49521"
   187  0110                     TMRA equ 0110h ;# 
   188                           opt subtitle "HI-TECH Software Omniscient Code Generator (Lite mode) build 49521"
   189  0111                     TBCON equ 0111h ;# 
   190                           opt subtitle "HI-TECH Software Omniscient Code Generator (Lite mode) build 49521"
   191  0112                     TMRB equ 0112h ;# 
   192                           opt subtitle "HI-TECH Software Omniscient Code Generator (Lite mode) build 49521"
   193  0113                     DACCON0 equ 0113h ;# 
   194                           opt subtitle "HI-TECH Software Omniscient Code Generator (Lite mode) build 49521"
   195  0114                     DACCON1 equ 0114h ;# 
   196                           opt subtitle "HI-TECH Software Omniscient Code Generator (Lite mode) build 49521"
   197  0185                     ANSELA equ 0185h ;# 
   198                           opt subtitle "HI-TECH Software Omniscient Code Generator (Lite mode) build 49521"
   199  0186                     ANSELB equ 0186h ;# 
   200                           opt subtitle "HI-TECH Software Omniscient Code Generator (Lite mode) build 49521"
   201  0187                     ANSELC equ 0187h ;# 
   202                           opt subtitle "HI-TECH Software Omniscient Code Generator (Lite mode) build 49521"
   203  0188                     ANSELD equ 0188h ;# 
   204                           opt subtitle "HI-TECH Software Omniscient Code Generator (Lite mode) build 49521"
   205  0189                     ANSELE equ 0189h ;# 
   206                           opt subtitle "HI-TECH Software Omniscient Code Generator (Lite mode) build 49521"
   207  018C                     PMCON1 equ 018Ch ;# 
   208                           opt subtitle "HI-TECH Software Omniscient Code Generator (Lite mode) build 49521"
   209  0000                     INDF equ 00h ;# 
   210                           opt subtitle "HI-TECH Software Omniscient Code Generator (Lite mode) build 49521"
   211  0001                     TMR0 equ 01h ;# 
   212                           opt subtitle "HI-TECH Software Omniscient Code Generator (Lite mode) build 49521"
   213  0002                     PCL equ 02h ;# 
   214                           opt subtitle "HI-TECH Software Omniscient Code Generator (Lite mode) build 49521"
   215  0003                     STATUS equ 03h ;# 
   216                           opt subtitle "HI-TECH Software Omniscient Code Generator (Lite mode) build 49521"
   217  0004                     FSR equ 04h ;# 
   218                           opt subtitle "HI-TECH Software Omniscient Code Generator (Lite mode) build 49521"
   219  0005                     PORTA equ 05h ;# 
   220                           opt subtitle "HI-TECH Software Omniscient Code Generator (Lite mode) build 49521"
   221  0006                     PORTB equ 06h ;# 
   222                           opt subtitle "HI-TECH Software Omniscient Code Generator (Lite mode) build 49521"
   223  0007                     PORTC equ 07h ;# 
   224                           opt subtitle "HI-TECH Software Omniscient Code Generator (Lite mode) build 49521"
   225  0008                     PORTD equ 08h ;# 
   226                           opt subtitle "HI-TECH Software Omniscient Code Generator (Lite mode) build 49521"
   227  0009                     PORTE equ 09h ;# 
   228                           opt subtitle "HI-TECH Software Omniscient Code Generator (Lite mode) build 49521"
   229  000A                     PCLATH equ 0Ah ;# 
   230                           opt subtitle "HI-TECH Software Omniscient Code Generator (Lite mode) build 49521"
   231  000B                     INTCON equ 0Bh ;# 
   232                           opt subtitle "HI-TECH Software Omniscient Code Generator (Lite mode) build 49521"
   233  000C                     PIR1 equ 0Ch ;# 
   234                           opt subtitle "HI-TECH Software Omniscient Code Generator (Lite mode) build 49521"
   235  000D                     PIR2 equ 0Dh ;# 
   236                           opt subtitle "HI-TECH Software Omniscient Code Generator (Lite mode) build 49521"
   237  000E                     TMR1 equ 0Eh ;# 
   238                           opt subtitle "HI-TECH Software Omniscient Code Generator (Lite mode) build 49521"
   239  000E                     TMR1L equ 0Eh ;# 
   240                           opt subtitle "HI-TECH Software Omniscient Code Generator (Lite mode) build 49521"
   241  000F                     TMR1H equ 0Fh ;# 
   242                           opt subtitle "HI-TECH Software Omniscient Code Generator (Lite mode) build 49521"
   243  0010                     T1CON equ 010h ;# 
   244                           opt subtitle "HI-TECH Software Omniscient Code Generator (Lite mode) build 49521"
   245  0011                     TMR2 equ 011h ;# 
   246                           opt subtitle "HI-TECH Software Omniscient Code Generator (Lite mode) build 49521"
   247  0012                     T2CON equ 012h ;# 
   248                           opt subtitle "HI-TECH Software Omniscient Code Generator (Lite mode) build 49521"
   249  0013                     SSPBUF equ 013h ;# 
   250                           opt subtitle "HI-TECH Software Omniscient Code Generator (Lite mode) build 49521"
   251  0014                     SSPCON equ 014h ;# 
   252                           opt subtitle "HI-TECH Software Omniscient Code Generator (Lite mode) build 49521"
   253  0015                     CCPR1 equ 015h ;# 
   254                           opt subtitle "HI-TECH Software Omniscient Code Generator (Lite mode) build 49521"
   255  0015                     CCPR1L equ 015h ;# 
   256                           opt subtitle "HI-TECH Software Omniscient Code Generator (Lite mode) build 49521"
   257  0016                     CCPR1H equ 016h ;# 
   258                           opt subtitle "HI-TECH Software Omniscient Code Generator (Lite mode) build 49521"
   259  0017                     CCP1CON equ 017h ;# 
   260                           opt subtitle "HI-TECH Software Omniscient Code Generator (Lite mode) build 49521"
   261  0018                     RCSTA equ 018h ;# 
   262                           opt subtitle "HI-TECH Software Omniscient Code Generator (Lite mode) build 49521"
   263  0019                     TXREG equ 019h ;# 
   264                           opt subtitle "HI-TECH Software Omniscient Code Generator (Lite mode) build 49521"
   265  001A                     RCREG equ 01Ah ;# 
   266                           opt subtitle "HI-TECH Software Omniscient Code Generator (Lite mode) build 49521"
   267  001B                     CCPR2 equ 01Bh ;# 
   268                           opt subtitle "HI-TECH Software Omniscient Code Generator (Lite mode) build 49521"
   269  001B                     CCPR2L equ 01Bh ;# 
   270                           opt subtitle "HI-TECH Software Omniscient Code Generator (Lite mode) build 49521"
   271  001C                     CCPR2H equ 01Ch ;# 
   272                           opt subtitle "HI-TECH Software Omniscient Code Generator (Lite mode) build 49521"
   273  001D                     CCP2CON equ 01Dh ;# 
   274                           opt subtitle "HI-TECH Software Omniscient Code Generator (Lite mode) build 49521"
   275  001E                     ADRES equ 01Eh ;# 
   276                           opt subtitle "HI-TECH Software Omniscient Code Generator (Lite mode) build 49521"
   277  001F                     ADCON0 equ 01Fh ;# 
   278                           opt subtitle "HI-TECH Software Omniscient Code Generator (Lite mode) build 49521"
   279  0081                     OPTION_REG equ 081h ;# 
   280                           opt subtitle "HI-TECH Software Omniscient Code Generator (Lite mode) build 49521"
   281  0085                     TRISA equ 085h ;# 
   282                           opt subtitle "HI-TECH Software Omniscient Code Generator (Lite mode) build 49521"
   283  0086                     TRISB equ 086h ;# 
   284                           opt subtitle "HI-TECH Software Omniscient Code Generator (Lite mode) build 49521"
   285  0087                     TRISC equ 087h ;# 
   286                           opt subtitle "HI-TECH Software Omniscient Code Generator (Lite mode) build 49521"
   287  0088                     TRISD equ 088h ;# 
   288                           opt subtitle "HI-TECH Software Omniscient Code Generator (Lite mode) build 49521"
   289  0089                     TRISE equ 089h ;# 
   290                           opt subtitle "HI-TECH Software Omniscient Code Generator (Lite mode) build 49521"
   291  008C                     PIE1 equ 08Ch ;# 
   292                           opt subtitle "HI-TECH Software Omniscient Code Generator (Lite mode) build 49521"
   293  008D                     PIE2 equ 08Dh ;# 
   294                           opt subtitle "HI-TECH Software Omniscient Code Generator (Lite mode) build 49521"
   295  008E                     PCON equ 08Eh ;# 
   296                           opt subtitle "HI-TECH Software Omniscient Code Generator (Lite mode) build 49521"
   297  008F                     T1GCON equ 08Fh ;# 
   298                           opt subtitle "HI-TECH Software Omniscient Code Generator (Lite mode) build 49521"
   299  0090                     OSCCON equ 090h ;# 
   300                           opt subtitle "HI-TECH Software Omniscient Code Generator (Lite mode) build 49521"
   301  0091                     OSCTUNE equ 091h ;# 
   302                           opt subtitle "HI-TECH Software Omniscient Code Generator (Lite mode) build 49521"
   303  0092                     PR2 equ 092h ;# 
   304                           opt subtitle "HI-TECH Software Omniscient Code Generator (Lite mode) build 49521"
   305  0093                     SSPADD equ 093h ;# 
   306                           opt subtitle "HI-TECH Software Omniscient Code Generator (Lite mode) build 49521"
   307  0093                     SSPMSK equ 093h ;# 
   308                           opt subtitle "HI-TECH Software Omniscient Code Generator (Lite mode) build 49521"
   309  0094                     SSPSTAT equ 094h ;# 
   310                           opt subtitle "HI-TECH Software Omniscient Code Generator (Lite mode) build 49521"
   311  0095                     WPUB equ 095h ;# 
   312                           opt subtitle "HI-TECH Software Omniscient Code Generator (Lite mode) build 49521"
   313  0096                     IOCB equ 096h ;# 
   314                           opt subtitle "HI-TECH Software Omniscient Code Generator (Lite mode) build 49521"
   315  0097                     T3CON equ 097h ;# 
   316                           opt subtitle "HI-TECH Software Omniscient Code Generator (Lite mode) build 49521"
   317  0098                     TXSTA equ 098h ;# 
   318                           opt subtitle "HI-TECH Software Omniscient Code Generator (Lite mode) build 49521"
   319  0099                     SPBRG equ 099h ;# 
   320                           opt subtitle "HI-TECH Software Omniscient Code Generator (Lite mode) build 49521"
   321  009A                     TMR3 equ 09Ah ;# 
   322                           opt subtitle "HI-TECH Software Omniscient Code Generator (Lite mode) build 49521"
   323  009A                     TMR3L equ 09Ah ;# 
   324                           opt subtitle "HI-TECH Software Omniscient Code Generator (Lite mode) build 49521"
   325  009B                     TMR3H equ 09Bh ;# 
   326                           opt subtitle "HI-TECH Software Omniscient Code Generator (Lite mode) build 49521"
   327  009C                     APFCON equ 09Ch ;# 
   328                           opt subtitle "HI-TECH Software Omniscient Code Generator (Lite mode) build 49521"
   329  009D                     FVRCON equ 09Dh ;# 
   330                           opt subtitle "HI-TECH Software Omniscient Code Generator (Lite mode) build 49521"
   331  009E                     T3GCON equ 09Eh ;# 
   332                           opt subtitle "HI-TECH Software Omniscient Code Generator (Lite mode) build 49521"
   333  009F                     ADCON1 equ 09Fh ;# 
   334                           opt subtitle "HI-TECH Software Omniscient Code Generator (Lite mode) build 49521"
   335  0105                     TACON equ 0105h ;# 
   336                           opt subtitle "HI-TECH Software Omniscient Code Generator (Lite mode) build 49521"
   337  0106                     CPSBCON0 equ 0106h ;# 
   338                           opt subtitle "HI-TECH Software Omniscient Code Generator (Lite mode) build 49521"
   339  0107                     CPSBCON1 equ 0107h ;# 
   340                           opt subtitle "HI-TECH Software Omniscient Code Generator (Lite mode) build 49521"
   341  0108                     CPSACON0 equ 0108h ;# 
   342                           opt subtitle "HI-TECH Software Omniscient Code Generator (Lite mode) build 49521"
   343  0109                     CPSACON1 equ 0109h ;# 
   344                           opt subtitle "HI-TECH Software Omniscient Code Generator (Lite mode) build 49521"
   345  010C                     PMDATL equ 010Ch ;# 
   346                           opt subtitle "HI-TECH Software Omniscient Code Generator (Lite mode) build 49521"
   347  010D                     PMADRL equ 010Dh ;# 
   348                           opt subtitle "HI-TECH Software Omniscient Code Generator (Lite mode) build 49521"
   349  010E                     PMDATH equ 010Eh ;# 
   350                           opt subtitle "HI-TECH Software Omniscient Code Generator (Lite mode) build 49521"
   351  010F                     PMADRH equ 010Fh ;# 
   352                           opt subtitle "HI-TECH Software Omniscient Code Generator (Lite mode) build 49521"
   353  0110                     TMRA equ 0110h ;# 
   354                           opt subtitle "HI-TECH Software Omniscient Code Generator (Lite mode) build 49521"
   355  0111                     TBCON equ 0111h ;# 
   356                           opt subtitle "HI-TECH Software Omniscient Code Generator (Lite mode) build 49521"
   357  0112                     TMRB equ 0112h ;# 
   358                           opt subtitle "HI-TECH Software Omniscient Code Generator (Lite mode) build 49521"
   359  0113                     DACCON0 equ 0113h ;# 
   360                           opt subtitle "HI-TECH Software Omniscient Code Generator (Lite mode) build 49521"
   361  0114                     DACCON1 equ 0114h ;# 
   362                           opt subtitle "HI-TECH Software Omniscient Code Generator (Lite mode) build 49521"
   363  0185                     ANSELA equ 0185h ;# 
   364                           opt subtitle "HI-TECH Software Omniscient Code Generator (Lite mode) build 49521"
   365  0186                     ANSELB equ 0186h ;# 
   366                           opt subtitle "HI-TECH Software Omniscient Code Generator (Lite mode) build 49521"
   367  0187                     ANSELC equ 0187h ;# 
   368                           opt subtitle "HI-TECH Software Omniscient Code Generator (Lite mode) build 49521"
   369  0188                     ANSELD equ 0188h ;# 
   370                           opt subtitle "HI-TECH Software Omniscient Code Generator (Lite mode) build 49521"
   371  0189                     ANSELE equ 0189h ;# 
   372                           opt subtitle "HI-TECH Software Omniscient Code Generator (Lite mode) build 49521"
   373  018C                     PMCON1 equ 018Ch ;# 
   374                           opt subtitle "HI-TECH Software Omniscient Code Generator (Lite mode) build 49521"
   375                           
   376                           opt pagewidth 120
   377                           
   378                           	opt lm
   379                           
   380                           	processor	16LF707
   381                           clrc	macro
   382                           	bcf	3,0
   383                           	endm
   384                           clrz	macro
   385                           	bcf	3,2
   386                           	endm
   387                           setc	macro
   388                           	bsf	3,0
   389                           	endm
   390                           setz	macro
   391                           	bsf	3,2
   392                           	endm
   393                           skipc	macro
   394                           	btfss	3,0
   395                           	endm
   396                           skipz	macro
   397                           	btfss	3,2
   398                           	endm
   399                           skipnc	macro
   400                           	btfsc	3,0
   401                           	endm
   402                           skipnz	macro
   403                           	btfsc	3,2
   404                           	endm
   405                           indf	equ	0
   406                           indf0	equ	0
   407                           pc	equ	2
   408                           pcl	equ	2
   409                           status	equ	3
   410                           fsr	equ	4
   411                           fsr0	equ	4
   412                           c	equ	1
   413                           z	equ	0
   414                           pclath	equ	10
   415                           # 46 "/Applications/microchip/xc8/v1.12/include/pic16lf707.h"
   416                           INDF equ 00h ;# 
   417                           # 52 "/Applications/microchip/xc8/v1.12/include/pic16lf707.h"
   418                           TMR0 equ 01h ;# 
   419                           # 58 "/Applications/microchip/xc8/v1.12/include/pic16lf707.h"
   420                           PCL equ 02h ;# 
   421                           # 64 "/Applications/microchip/xc8/v1.12/include/pic16lf707.h"
   422                           STATUS equ 03h ;# 
   423                           # 151 "/Applications/microchip/xc8/v1.12/include/pic16lf707.h"
   424                           FSR equ 04h ;# 
   425                           # 157 "/Applications/microchip/xc8/v1.12/include/pic16lf707.h"
   426                           PORTA equ 05h ;# 
   427                           # 346 "/Applications/microchip/xc8/v1.12/include/pic16lf707.h"
   428                           PORTB equ 06h ;# 
   429                           # 520 "/Applications/microchip/xc8/v1.12/include/pic16lf707.h"
   430                           PORTC equ 07h ;# 
   431                           # 715 "/Applications/microchip/xc8/v1.12/include/pic16lf707.h"
   432                           PORTD equ 08h ;# 
   433                           # 834 "/Applications/microchip/xc8/v1.12/include/pic16lf707.h"
   434                           PORTE equ 09h ;# 
   435                           # 917 "/Applications/microchip/xc8/v1.12/include/pic16lf707.h"
   436                           PCLATH equ 0Ah ;# 
   437                           # 936 "/Applications/microchip/xc8/v1.12/include/pic16lf707.h"
   438                           INTCON equ 0Bh ;# 
   439                           # 1013 "/Applications/microchip/xc8/v1.12/include/pic16lf707.h"
   440  0800                     __pidataBANK0:
   441                           opt subtitle "HI-TECH Software Omniscient Code Generator (Lite mode) build 49521"
   442                           
   443                           opt pagewidth 120
   444                           
   445  0800  341A               	retlw	01Ah
   446  0801  3400               	retlw	0
   447                           opt subtitle "HI-TECH Software Omniscient Code Generator (Lite mode) build 49521"
   448                           
   449                           opt pagewidth 120
   450                           
   451  0802  3401               	retlw	01h
   452                           opt subtitle "HI-TECH Software Omniscient Code Generator (Lite mode) build 49521"
   453                           
   454  1231                     __pidataBANK1:
   455                           opt subtitle "HI-TECH Software Omniscient Code Generator (Lite mode) build 49521"
   456                           
   457                           opt pagewidth 120
   458  1231  3400               	retlw	0x0
   459  1232  3420               	retlw	0x20
   460  1233  3441               	retlw	0x41
   461                           opt subtitle "HI-TECH Software Omniscient Code Generator (Lite mode) build 49521"
   462                           
   463                           opt pagewidth 120
   464                           
   465  1234  3400               	retlw	0
   466  1235  3400               	retlw	0
   467  1236  3400               	retlw	0
   468  1237  3400               	retlw	0
   469  1238  3400               	retlw	0
   470  1239  34AA               	retlw	0AAh
   471  123A  34AA               	retlw	0AAh
   472  123B  34AA               	retlw	0AAh
   473  123C  34AA               	retlw	0AAh
   474  123D  3400               	retlw	0
   475                           opt subtitle "HI-TECH Software Omniscient Code Generator (Lite mode) build 49521"
   476                           
   477                           opt pagewidth 120
   478  1000                     __pstringtext:
   479                           opt subtitle "HI-TECH Software Omniscient Code Generator (Lite mode) build 49521"
   480  1000                     stringtab:
   481                           opt subtitle "HI-TECH Software Omniscient Code Generator (Lite mode) build 49521"
   482  1000                     __stringtab:
   483                           opt subtitle "HI-TECH Software Omniscient Code Generator (Lite mode) build 49521"
   484  1000  1BFF               	btfsc	(btemp+1),7
   485  1001  280A               	ljmp	stringcode
   486  1002  1383               	bcf	status,7
   487  1003  187F               	btfsc	(btemp+1),0
   488  1004  1783               	bsf	status,7
   489  1005  0800               	movf	indf,w
   490  1006  0A84               	incf fsr
   491  1007  1903               skipnz
   492  1008  0AFF               incf btemp+1
   493  1009  0008               	return
   494  100A                     stringcode:
   495  100A  087F               	movf btemp+1,w
   496  100B  397F               andlw 7Fh
   497  100C  008A               movwf	pclath
   498  100D  0804               	movf	fsr,w
   499  100E  0A84               incf fsr
   500  100F  1903               skipnz
   501  1010  0AFF               incf btemp+1
   502  1011  0082               	movwf pc
   503  1012                     __stringbase:
   504                           opt subtitle "HI-TECH Software Omniscient Code Generator (Lite mode) build 49521"
   505  1012                     __end_of__stringtab:
   506                           opt subtitle "HI-TECH Software Omniscient Code Generator (Lite mode) build 49521"
   507                           
   508  1012                     _Bank1_Reg0_13:
   509  1012  3440               	retlw	040h
   510  1013  344B               	retlw	04Bh
   511  1014  3401               	retlw	01h
   512  1015  34E2               	retlw	0E2h
   513                           opt subtitle "HI-TECH Software Omniscient Code Generator (Lite mode) build 49521"
   514  1016  34C0               	retlw	0C0h
   515  1017  344B               	retlw	04Bh
   516  1018  3400               	retlw	0
   517  1019  3400               	retlw	0
   518                           opt subtitle "HI-TECH Software Omniscient Code Generator (Lite mode) build 49521"
   519  101A  34D0               	retlw	0D0h
   520  101B  34FC               	retlw	0FCh
   521  101C  348C               	retlw	08Ch
   522  101D  3402               	retlw	02h
   523                           opt subtitle "HI-TECH Software Omniscient Code Generator (Lite mode) build 49521"
   524  101E  3499               	retlw	099h
   525  101F  3400               	retlw	0
   526  1020  3439               	retlw	039h
   527  1021  3441               	retlw	041h
   528                           opt subtitle "HI-TECH Software Omniscient Code Generator (Lite mode) build 49521"
   529  1022  34F9               	retlw	0F9h
   530  1023  349E               	retlw	09Eh
   531  1024  3486               	retlw	086h
   532  1025  340B               	retlw	0Bh
   533                           opt subtitle "HI-TECH Software Omniscient Code Generator (Lite mode) build 49521"
   534  1026  3424               	retlw	024h
   535  1027  3406               	retlw	06h
   536  1028  347F               	retlw	07Fh
   537  1029  34A6               	retlw	0A6h
   538                           opt subtitle "HI-TECH Software Omniscient Code Generator (Lite mode) build 49521"
   539  102A  3400               	retlw	0
   540  102B  3400               	retlw	0
   541  102C  3400               	retlw	0
   542  102D  3400               	retlw	0
   543                           opt subtitle "HI-TECH Software Omniscient Code Generator (Lite mode) build 49521"
   544  102E  3400               	retlw	0
   545  102F  3400               	retlw	0
   546  1030  3400               	retlw	0
   547  1031  3400               	retlw	0
   548                           opt subtitle "HI-TECH Software Omniscient Code Generator (Lite mode) build 49521"
   549  1032  3400               	retlw	0
   550  1033  3400               	retlw	0
   551  1034  3400               	retlw	0
   552  1035  3400               	retlw	0
   553                           opt subtitle "HI-TECH Software Omniscient Code Generator (Lite mode) build 49521"
   554  1036  3400               	retlw	0
   555  1037  3400               	retlw	0
   556  1038  3400               	retlw	0
   557  1039  3400               	retlw	0
   558                           opt subtitle "HI-TECH Software Omniscient Code Generator (Lite mode) build 49521"
   559  103A  3400               	retlw	0
   560  103B  3400               	retlw	0
   561  103C  3400               	retlw	0
   562  103D  3400               	retlw	0
   563                           opt subtitle "HI-TECH Software Omniscient Code Generator (Lite mode) build 49521"
   564  103E  3400               	retlw	0
   565  103F  3400               	retlw	0
   566  1040  3400               	retlw	0
   567  1041  3400               	retlw	0
   568                           opt subtitle "HI-TECH Software Omniscient Code Generator (Lite mode) build 49521"
   569  1042  3400               	retlw	0
   570  1043  3473               	retlw	073h
   571  1044  3412               	retlw	012h
   572  1045  3400               	retlw	0
   573                           opt subtitle "HI-TECH Software Omniscient Code Generator (Lite mode) build 49521"
   574  1046  3400               	retlw	0
   575  1047  3480               	retlw	080h
   576  1048  34B4               	retlw	0B4h
   577  1049  3436               	retlw	036h
   578                           opt subtitle "HI-TECH Software Omniscient Code Generator (Lite mode) build 49521"
   579                           
   580  104A                     __end_of_Bank1_Reg0_13:
   581                           opt subtitle "HI-TECH Software Omniscient Code Generator (Lite mode) build 49521"
   582                           
   583                           opt pagewidth 120
   584                           
   585  104A                     _Bank0_Reg:
   586  104A  3400               	retlw	0
   587  104B  340F               	retlw	0Fh
   588  104C  3401               	retlw	01h
   589  104D  343F               	retlw	03Fh
   590  104E  3402               	retlw	02h
   591  104F  343F               	retlw	03Fh
   592  1050  3403               	retlw	03h
   593  1051  3403               	retlw	03h
   594  1052  3404               	retlw	04h
   595  1053  34FF               	retlw	0FFh
   596  1054  3405               	retlw	05h
   597  1055  3417               	retlw	017h
   598  1056  3406               	retlw	06h
   599  1057  3401               	retlw	01h
   600  1058  3407               	retlw	07h
   601  1059  3407               	retlw	07h
   602  105A  3408               	retlw	08h
   603  105B  3400               	retlw	0
   604  105C  3409               	retlw	09h
   605  105D  3400               	retlw	0
   606  105E  340C               	retlw	0Ch
   607  105F  34C3               	retlw	0C3h
   608  1060  340D               	retlw	0Dh
   609  1061  34C4               	retlw	0C4h
   610  1062  340E               	retlw	0Eh
   611  1063  34C5               	retlw	0C5h
   612  1064  340F               	retlw	0Fh
   613  1065  34C6               	retlw	0C6h
   614  1066  3411               	retlw	011h
   615  1067  3420               	retlw	020h
   616  1068  3412               	retlw	012h
   617  1069  3420               	retlw	020h
   618  106A  3413               	retlw	013h
   619  106B  3420               	retlw	020h
   620  106C  3414               	retlw	014h
   621  106D  3420               	retlw	020h
   622  106E  3415               	retlw	015h
   623  106F  3420               	retlw	020h
   624  1070  3416               	retlw	016h
   625  1071  3420               	retlw	020h
   626  1072  3417               	retlw	017h
   627  1073  3400               	retlw	0
   628  1074  341C               	retlw	01Ch
   629  1075  343F               	retlw	03Fh
   630  1076  341D               	retlw	01Dh
   631  1077  3407               	retlw	07h
   632                           opt subtitle "HI-TECH Software Omniscient Code Generator (Lite mode) build 49521"
   633  1078                     __end_of_Bank0_Reg:
   634                           opt subtitle "HI-TECH Software Omniscient Code Generator (Lite mode) build 49521"
   635                           
   636                           opt pagewidth 120
   637                           
   638  1078                     _Bank1_Reg14:
   639  1078  3441               	retlw	041h
   640  1079  3420               	retlw	020h
   641  107A  3408               	retlw	08h
   642  107B  3404               	retlw	04h
   643  107C  3481               	retlw	081h
   644  107D  3420               	retlw	020h
   645  107E  34CF               	retlw	0CFh
   646  107F  34F7               	retlw	0F7h
   647  1080  34FE               	retlw	0FEh
   648  1081  34FF               	retlw	0FFh
   649  1082  34FF               	retlw	0FFh
   650                           opt subtitle "HI-TECH Software Omniscient Code Generator (Lite mode) build 49521"
   651  1083                     __end_of_Bank1_Reg14:
   652                           opt subtitle "HI-TECH Software Omniscient Code Generator (Lite mode) build 49521"
   653                           
   654                           opt pagewidth 120
   655                           
   656  1083                     _dpowers:
   657  1083  3401               	retlw	01h
   658  1084  3400               	retlw	0
   659                           opt subtitle "HI-TECH Software Omniscient Code Generator (Lite mode) build 49521"
   660  1085  340A               	retlw	0Ah
   661  1086  3400               	retlw	0
   662                           opt subtitle "HI-TECH Software Omniscient Code Generator (Lite mode) build 49521"
   663  1087  3464               	retlw	064h
   664  1088  3400               	retlw	0
   665                           opt subtitle "HI-TECH Software Omniscient Code Generator (Lite mode) build 49521"
   666  1089  34E8               	retlw	0E8h
   667  108A  3403               	retlw	03h
   668                           opt subtitle "HI-TECH Software Omniscient Code Generator (Lite mode) build 49521"
   669  108B  3410               	retlw	010h
   670  108C  3427               	retlw	027h
   671                           opt subtitle "HI-TECH Software Omniscient Code Generator (Lite mode) build 49521"
   672                           
   673  108D                     __end_of_dpowers:
   674                           opt subtitle "HI-TECH Software Omniscient Code Generator (Lite mode) build 49521"
   675                           
   676                           opt pagewidth 120
   677                           
   678  108D                     _hexpowers:
   679  108D  3401               	retlw	01h
   680  108E  3400               	retlw	0
   681                           opt subtitle "HI-TECH Software Omniscient Code Generator (Lite mode) build 49521"
   682  108F  3410               	retlw	010h
   683  1090  3400               	retlw	0
   684                           opt subtitle "HI-TECH Software Omniscient Code Generator (Lite mode) build 49521"
   685  1091  3400               	retlw	0
   686  1092  3401               	retlw	01h
   687                           opt subtitle "HI-TECH Software Omniscient Code Generator (Lite mode) build 49521"
   688  1093  3400               	retlw	0
   689  1094  3410               	retlw	010h
   690                           opt subtitle "HI-TECH Software Omniscient Code Generator (Lite mode) build 49521"
   691                           
   692  1095                     __end_of_hexpowers:
   693                           opt subtitle "HI-TECH Software Omniscient Code Generator (Lite mode) build 49521"
   694                           
   695                           opt pagewidth 120
   696                           
   697  1095                     _RX0_Address:
   698  1095  3434               	retlw	034h
   699  1096  3443               	retlw	043h
   700  1097  3410               	retlw	010h
   701  1098  3410               	retlw	010h
   702  1099  3401               	retlw	01h
   703                           opt subtitle "HI-TECH Software Omniscient Code Generator (Lite mode) build 49521"
   704  109A                     __end_of_RX0_Address:
   705                           opt subtitle "HI-TECH Software Omniscient Code Generator (Lite mode) build 49521"
   706                           
   707                           opt pagewidth 120
   708                           
   709  109A                     _RX1_Address:
   710  109A  3439               	retlw	039h
   711  109B  3438               	retlw	038h
   712  109C  3437               	retlw	037h
   713  109D  3436               	retlw	036h
   714  109E  34C2               	retlw	0C2h
   715                           opt subtitle "HI-TECH Software Omniscient Code Generator (Lite mode) build 49521"
   716  109F                     __end_of_RX1_Address:
   717                           opt subtitle "HI-TECH Software Omniscient Code Generator (Lite mode) build 49521"
   718                           
   719                           opt pagewidth 120
   720  109F                     _Bank0_RegAct:
   721  109F  341C               	retlw	01Ch
   722  10A0  343F               	retlw	03Fh
   723  10A1  341D               	retlw	01Dh
   724  10A2  3407               	retlw	07h
   725                           opt subtitle "HI-TECH Software Omniscient Code Generator (Lite mode) build 49521"
   726  10A3                     __end_of_Bank0_RegAct:
   727                           opt subtitle "HI-TECH Software Omniscient Code Generator (Lite mode) build 49521"
   728                           
   729                           opt pagewidth 120
   730                           
   731                           	opt lm
   732                           
   733                           	processor	16LF707
   734                           clrc	macro
   735                           	bcf	3,0
   736                           	endm
   737                           clrz	macro
   738                           	bcf	3,2
   739                           	endm
   740                           setc	macro
   741                           	bsf	3,0
   742                           	endm
   743                           setz	macro
   744                           	bsf	3,2
   745                           	endm
   746  001F                     _ADCON0bits	set	0x1F
   747                           opt subtitle "HI-TECH Software Omniscient Code Generator (Lite mode) build 49521"
   748  001E                     _ADRES	set	0x1E
   749                           opt subtitle "HI-TECH Software Omniscient Code Generator (Lite mode) build 49521"
   750  000C                     _PIR1bits	set	0xC
   751                           opt subtitle "HI-TECH Software Omniscient Code Generator (Lite mode) build 49521"
   752  0005                     _PORTAbits	set	0x5
   753                           opt subtitle "HI-TECH Software Omniscient Code Generator (Lite mode) build 49521"
   754  0006                     _PORTBbits	set	0x6
   755                           opt subtitle "HI-TECH Software Omniscient Code Generator (Lite mode) build 49521"
   756  0007                     _PORTCbits	set	0x7
   757                           opt subtitle "HI-TECH Software Omniscient Code Generator (Lite mode) build 49521"
   758  0008                     _PORTD	set	0x8
   759                           opt subtitle "HI-TECH Software Omniscient Code Generator (Lite mode) build 49521"
   760  0008                     _PORTDbits	set	0x8
   761                           opt subtitle "HI-TECH Software Omniscient Code Generator (Lite mode) build 49521"
   762  0009                     _PORTEbits	set	0x9
   763                           opt subtitle "HI-TECH Software Omniscient Code Generator (Lite mode) build 49521"
   764  001A                     _RCREG	set	0x1A
   765                           opt subtitle "HI-TECH Software Omniscient Code Generator (Lite mode) build 49521"
   766  0018                     _RCSTA	set	0x18
   767                           opt subtitle "HI-TECH Software Omniscient Code Generator (Lite mode) build 49521"
   768  0018                     _RCSTAbits	set	0x18
   769                           opt subtitle "HI-TECH Software Omniscient Code Generator (Lite mode) build 49521"
   770  0013                     _SSPBUF	set	0x13
   771                           opt subtitle "HI-TECH Software Omniscient Code Generator (Lite mode) build 49521"
   772  0014                     _SSPCONbits	set	0x14
   773                           opt subtitle "HI-TECH Software Omniscient Code Generator (Lite mode) build 49521"
   774  0010                     _T1CONbits	set	0x10
   775                           opt subtitle "HI-TECH Software Omniscient Code Generator (Lite mode) build 49521"
   776  000F                     _TMR1H	set	0xF
   777                           opt subtitle "HI-TECH Software Omniscient Code Generator (Lite mode) build 49521"
   778  000E                     _TMR1L	set	0xE
   779                           opt subtitle "HI-TECH Software Omniscient Code Generator (Lite mode) build 49521"
   780  0019                     _TXREG	set	0x19
   781                           opt subtitle "HI-TECH Software Omniscient Code Generator (Lite mode) build 49521"
   782  005F                     _GIE	set	0x5F
   783                           opt subtitle "HI-TECH Software Omniscient Code Generator (Lite mode) build 49521"
   784  005E                     _PEIE	set	0x5E
   785                           opt subtitle "HI-TECH Software Omniscient Code Generator (Lite mode) build 49521"
   786  0065                     _RCIF	set	0x65
   787                           opt subtitle "HI-TECH Software Omniscient Code Generator (Lite mode) build 49521"
   788  0060                     _TMR1IF	set	0x60
   789                           opt subtitle "HI-TECH Software Omniscient Code Generator (Lite mode) build 49521"
   790  0064                     _TXIF	set	0x64
   791                           opt subtitle "HI-TECH Software Omniscient Code Generator (Lite mode) build 49521"
   792  009F                     _ADCON1bits	set	0x9F
   793                           opt subtitle "HI-TECH Software Omniscient Code Generator (Lite mode) build 49521"
   794  009D                     _FVRCONbits	set	0x9D
   795                           opt subtitle "HI-TECH Software Omniscient Code Generator (Lite mode) build 49521"
   796  0090                     _OSCCONbits	set	0x90
   797                           opt subtitle "HI-TECH Software Omniscient Code Generator (Lite mode) build 49521"
   798  0099                     _SPBRG	set	0x99
   799                           opt subtitle "HI-TECH Software Omniscient Code Generator (Lite mode) build 49521"
   800  0094                     _SSPSTATbits	set	0x94
   801                           opt subtitle "HI-TECH Software Omniscient Code Generator (Lite mode) build 49521"
   802  008F                     _T1GCONbits	set	0x8F
   803                           opt subtitle "HI-TECH Software Omniscient Code Generator (Lite mode) build 49521"
   804  0085                     _TRISAbits	set	0x85
   805                           opt subtitle "HI-TECH Software Omniscient Code Generator (Lite mode) build 49521"
   806  0086                     _TRISBbits	set	0x86
   807                           opt subtitle "HI-TECH Software Omniscient Code Generator (Lite mode) build 49521"
   808  0087                     _TRISCbits	set	0x87
   809                           opt subtitle "HI-TECH Software Omniscient Code Generator (Lite mode) build 49521"
   810  0088                     _TRISDbits	set	0x88
   811                           opt subtitle "HI-TECH Software Omniscient Code Generator (Lite mode) build 49521"
   812  0089                     _TRISEbits	set	0x89
   813                           opt subtitle "HI-TECH Software Omniscient Code Generator (Lite mode) build 49521"
   814  0098                     _TXSTA	set	0x98
   815                           opt subtitle "HI-TECH Software Omniscient Code Generator (Lite mode) build 49521"
   816  0098                     _TXSTAbits	set	0x98
   817                           opt subtitle "HI-TECH Software Omniscient Code Generator (Lite mode) build 49521"
   818  0460                     _TMR1IE	set	0x460
   819                           opt subtitle "HI-TECH Software Omniscient Code Generator (Lite mode) build 49521"
   820  0113                     _DACCON0	set	0x113
   821                           opt subtitle "HI-TECH Software Omniscient Code Generator (Lite mode) build 49521"
   822  0114                     _DACCON1	set	0x114
   823                           opt subtitle "HI-TECH Software Omniscient Code Generator (Lite mode) build 49521"
   824  0185                     _ANSELAbits	set	0x185
   825                           opt subtitle "HI-TECH Software Omniscient Code Generator (Lite mode) build 49521"
   826  0186                     _ANSELBbits	set	0x186
   827                           opt subtitle "HI-TECH Software Omniscient Code Generator (Lite mode) build 49521"
   828  0187                     _ANSELCbits	set	0x187
   829                           opt subtitle "HI-TECH Software Omniscient Code Generator (Lite mode) build 49521"
   830  0188                     _ANSELDbits	set	0x188
   831                           opt subtitle "HI-TECH Software Omniscient Code Generator (Lite mode) build 49521"
   832  0189                     _ANSELEbits	set	0x189
   833                           opt subtitle "HI-TECH Software Omniscient Code Generator (Lite mode) build 49521"
   834  10A3                     __stringdata:
   835                           opt subtitle "HI-TECH Software Omniscient Code Generator (Lite mode) build 49521"
   836  10A3                     STR_4:	
   837  10A3  3456               	retlw	86	;'V'
   838  10A4  3473               	retlw	115	;'s'
   839  10A5  3474               	retlw	116	;'t'
   840  10A6  346F               	retlw	111	;'o'
   841  10A7  3472               	retlw	114	;'r'
   842  10A8  3461               	retlw	97	;'a'
   843  10A9  3467               	retlw	103	;'g'
   844  10AA  3465               	retlw	101	;'e'
   845  10AB  3420               	retlw	32	;' '
   846  10AC  344F               	retlw	79	;'O'
   847  10AD  344B               	retlw	75	;'K'
   848  10AE  3420               	retlw	32	;' '
   849  10AF  346F               	retlw	111	;'o'
   850  10B0  3472               	retlw	114	;'r'
   851  10B1  3420               	retlw	32	;' '
   852  10B2  346D               	retlw	109	;'m'
   853  10B3  3465               	retlw	101	;'e'
   854  10B4  3461               	retlw	97	;'a'
   855  10B5  3473               	retlw	115	;'s'
   856  10B6  3475               	retlw	117	;'u'
   857  10B7  3472               	retlw	114	;'r'
   858  10B8  3465               	retlw	101	;'e'
   859  10B9  3420               	retlw	32	;' '
   860  10BA  3473               	retlw	115	;'s'
   861  10BB  346B               	retlw	107	;'k'
   862  10BC  3469               	retlw	105	;'i'
   863  10BD  3470               	retlw	112	;'p'
   864  10BE  3470               	retlw	112	;'p'
   865  10BF  3465               	retlw	101	;'e'
   866  10C0  3464               	retlw	100	;'d'
   867  10C1  343A               	retlw	58	;':'
   868  10C2  3420               	retlw	32	;' '
   869  10C3  3425               	retlw	37	;'%'
   870  10C4  3464               	retlw	100	;'d'
   871  10C5  340D               	retlw	13
   872  10C6  340A               	retlw	10
   873  10C7  3400               	retlw	0
   874                           opt subtitle "HI-TECH Software Omniscient Code Generator (Lite mode) build 49521"
   875                           
   876  10C8                     STR_5:	
   877  10C8  3456               	retlw	86	;'V'
   878  10C9  3453               	retlw	83	;'S'
   879  10CA  3474               	retlw	116	;'t'
   880  10CB  346F               	retlw	111	;'o'
   881  10CC  3472               	retlw	114	;'r'
   882  10CD  3461               	retlw	97	;'a'
   883  10CE  3467               	retlw	103	;'g'
   884  10CF  3465               	retlw	101	;'e'
   885  10D0  343A               	retlw	58	;':'
   886  10D1  3420               	retlw	32	;' '
   887  10D2  3425               	retlw	37	;'%'
   888  10D3  3464               	retlw	100	;'d'
   889  10D4  3420               	retlw	32	;' '
   890  10D5  3420               	retlw	32	;' '
   891  10D6  343D               	retlw	61	;'='
   892  10D7  343E               	retlw	62	;'>'
   893  10D8  3420               	retlw	32	;' '
   894  10D9  346E               	retlw	110	;'n'
   895  10DA  346F               	retlw	111	;'o'
   896  10DB  3474               	retlw	116	;'t'
   897  10DC  3420               	retlw	32	;' '
   898  10DD  344F               	retlw	79	;'O'
   899  10DE  344B               	retlw	75	;'K'
   900  10DF  340D               	retlw	13
   901  10E0  340A               	retlw	10
   902  10E1  3400               	retlw	0
   903                           opt subtitle "HI-TECH Software Omniscient Code Generator (Lite mode) build 49521"
   904                           
   905  10E2                     STR_12:	
   906  10E2  344E               	retlw	78	;'N'
   907  10E3  346F               	retlw	111	;'o'
   908  10E4  3420               	retlw	32	;' '
   909  10E5  3464               	retlw	100	;'d'
   910  10E6  3461               	retlw	97	;'a'
   911  10E7  3474               	retlw	116	;'t'
   912  10E8  3461               	retlw	97	;'a'
   913  10E9  3420               	retlw	32	;' '
   914  10EA  3473               	retlw	115	;'s'
   915  10EB  3465               	retlw	101	;'e'
   916  10EC  346E               	retlw	110	;'n'
   917  10ED  3474               	retlw	116	;'t'
   918  10EE  343A               	retlw	58	;':'
   919  10EF  3420               	retlw	32	;' '
   920  10F0  3445               	retlw	69	;'E'
   921  10F1  3452               	retlw	82	;'R'
   922  10F2  3452               	retlw	82	;'R'
   923  10F3  344F               	retlw	79	;'O'
   924  10F4  3452               	retlw	82	;'R'
   925  10F5  3420               	retlw	32	;' '
   926  10F6  340D               	retlw	13
   927  10F7  340A               	retlw	10
   928  10F8  3420               	retlw	32	;' '
   929  10F9  3400               	retlw	0
   930                           opt subtitle "HI-TECH Software Omniscient Code Generator (Lite mode) build 49521"
   931                           
   932  10FA                     STR_3:	
   933  10FA  3456               	retlw	86	;'V'
   934  10FB  3473               	retlw	115	;'s'
   935  10FC  3474               	retlw	116	;'t'
   936  10FD  346F               	retlw	111	;'o'
   937  10FE  3472               	retlw	114	;'r'
   938  10FF  3461               	retlw	97	;'a'
   939  1100  3467               	retlw	103	;'g'
   940  1101  3465               	retlw	101	;'e'
   941  1102  3420               	retlw	32	;' '
   942  1103  3474               	retlw	116	;'t'
   943  1104  346F               	retlw	111	;'o'
   944  1105  346F               	retlw	111	;'o'
   945  1106  3420               	retlw	32	;' '
   946  1107  346C               	retlw	108	;'l'
   947  1108  346F               	retlw	111	;'o'
   948  1109  3477               	retlw	119	;'w'
   949  110A  343A               	retlw	58	;':'
   950  110B  3420               	retlw	32	;' '
   951  110C  3425               	retlw	37	;'%'
   952  110D  3464               	retlw	100	;'d'
   953  110E  340D               	retlw	13
   954  110F  340A               	retlw	10
   955  1110  3400               	retlw	0
   956                           opt subtitle "HI-TECH Software Omniscient Code Generator (Lite mode) build 49521"
   957                           
   958  1111                     STR_6:	
   959  1111  3453               	retlw	83	;'S'
   960  1112  346C               	retlw	108	;'l'
   961  1113  3465               	retlw	101	;'e'
   962  1114  3465               	retlw	101	;'e'
   963  1115  3470               	retlw	112	;'p'
   964  1116  3420               	retlw	32	;' '
   965  1117  3463               	retlw	99	;'c'
   966  1118  346F               	retlw	111	;'o'
   967  1119  3475               	retlw	117	;'u'
   968  111A  346E               	retlw	110	;'n'
   969  111B  3474               	retlw	116	;'t'
   970  111C  3465               	retlw	101	;'e'
   971  111D  3472               	retlw	114	;'r'
   972  111E  3420               	retlw	32	;' '
   973  111F  343D               	retlw	61	;'='
   974  1120  3420               	retlw	32	;' '
   975  1121  3425               	retlw	37	;'%'
   976  1122  3464               	retlw	100	;'d'
   977  1123  340D               	retlw	13
   978  1124  340A               	retlw	10
   979  1125  3400               	retlw	0
   980                           opt subtitle "HI-TECH Software Omniscient Code Generator (Lite mode) build 49521"
   981                           
   982  1126                     STR_2:	
   983  1126  3453               	retlw	83	;'S'
   984  1127  346C               	retlw	108	;'l'
   985  1128  3465               	retlw	101	;'e'
   986  1129  3465               	retlw	101	;'e'
   987  112A  3470               	retlw	112	;'p'
   988  112B  3420               	retlw	32	;' '
   989  112C  3463               	retlw	99	;'c'
   990  112D  346F               	retlw	111	;'o'
   991  112E  3475               	retlw	117	;'u'
   992  112F  346E               	retlw	110	;'n'
   993  1130  3474               	retlw	116	;'t'
   994  1131  3465               	retlw	101	;'e'
   995  1132  3472               	retlw	114	;'r'
   996  1133  343A               	retlw	58	;':'
   997  1134  3420               	retlw	32	;' '
   998  1135  3425               	retlw	37	;'%'
   999  1136  3458               	retlw	88	;'X'
  1000  1137  340D               	retlw	13
  1001  1138  340A               	retlw	10
  1002  1139  3400               	retlw	0
  1003                           opt subtitle "HI-TECH Software Omniscient Code Generator (Lite mode) build 49521"
  1004                           
  1005  113A                     STR_1:	
  1006  113A  3445               	retlw	69	;'E'
  1007  113B  3463               	retlw	99	;'c'
  1008  113C  3463               	retlw	99	;'c'
  1009  113D  346F               	retlw	111	;'o'
  1010  113E  346D               	retlw	109	;'m'
  1011  113F  3469               	retlw	105	;'i'
  1012  1140  3420               	retlw	32	;' '
  1013  1141  346E               	retlw	110	;'n'
  1014  1142  3465               	retlw	101	;'e'
  1015  1143  346C               	retlw	108	;'l'
  1016  1144  346C               	retlw	108	;'l'
  1017  1145  3427               	retlw	39	;'''
  1018  1146  3449               	retlw	73	;'I'
  1019  1147  3453               	retlw	83	;'S'
  1020  1148  3452               	retlw	82	;'R'
  1021  1149  3421               	retlw	33	;'!'
  1022  114A  340D               	retlw	13
  1023  114B  340A               	retlw	10
  1024  114C  3400               	retlw	0
  1025                           opt subtitle "HI-TECH Software Omniscient Code Generator (Lite mode) build 49521"
  1026                           
  1027  114D                     STR_7:	
  1028  114D  3453               	retlw	83	;'S'
  1029  114E  346C               	retlw	108	;'l'
  1030  114F  3465               	retlw	101	;'e'
  1031  1150  3465               	retlw	101	;'e'
  1032  1151  3470               	retlw	112	;'p'
  1033  1152  343A               	retlw	58	;':'
  1034  1153  3420               	retlw	32	;' '
  1035  1154  3425               	retlw	37	;'%'
  1036  1155  3464               	retlw	100	;'d'
  1037  1156  3420               	retlw	32	;' '
  1038  1157  346F               	retlw	111	;'o'
  1039  1158  346E               	retlw	110	;'n'
  1040  1159  3420               	retlw	32	;' '
  1041  115A  3425               	retlw	37	;'%'
  1042  115B  3464               	retlw	100	;'d'
  1043  115C  340D               	retlw	13
  1044  115D  340A               	retlw	10
  1045  115E  3400               	retlw	0
  1046                           opt subtitle "HI-TECH Software Omniscient Code Generator (Lite mode) build 49521"
  1047                           
  1048  115F                     STR_16:	
  1049  115F  3430               	retlw	48	;'0'
  1050  1160  3431               	retlw	49	;'1'
  1051  1161  3432               	retlw	50	;'2'
  1052  1162  3433               	retlw	51	;'3'
  1053  1163  3434               	retlw	52	;'4'
  1054  1164  3435               	retlw	53	;'5'
  1055  1165  3436               	retlw	54	;'6'
  1056  1166  3437               	retlw	55	;'7'
  1057  1167  3438               	retlw	56	;'8'
  1058  1168  3439               	retlw	57	;'9'
  1059  1169  3441               	retlw	65	;'A'
  1060  116A  3442               	retlw	66	;'B'
  1061  116B  3443               	retlw	67	;'C'
  1062  116C  3444               	retlw	68	;'D'
  1063  116D  3445               	retlw	69	;'E'
  1064  116E  3446               	retlw	70	;'F'
  1065  116F  3400               	retlw	0
  1066                           opt subtitle "HI-TECH Software Omniscient Code Generator (Lite mode) build 49521"
  1067                           
  1068  1170                     STR_11:	
  1069  1170  3444               	retlw	68	;'D'
  1070  1171  3461               	retlw	97	;'a'
  1071  1172  3474               	retlw	116	;'t'
  1072  1173  3461               	retlw	97	;'a'
  1073  1174  3420               	retlw	32	;' '
  1074  1175  3473               	retlw	115	;'s'
  1075  1176  3465               	retlw	101	;'e'
  1076  1177  346E               	retlw	110	;'n'
  1077  1178  3474               	retlw	116	;'t'
  1078  1179  343A               	retlw	58	;':'
  1079  117A  3420               	retlw	32	;' '
  1080  117B  344F               	retlw	79	;'O'
  1081  117C  344B               	retlw	75	;'K'
  1082  117D  3420               	retlw	32	;' '
  1083  117E  340D               	retlw	13
  1084  117F  340A               	retlw	10
  1085  1180  3400               	retlw	0
  1086                           opt subtitle "HI-TECH Software Omniscient Code Generator (Lite mode) build 49521"
  1087                           
  1088  1181                     STR_14:	
  1089  1181  3452               	retlw	82	;'R'
  1090  1182  3465               	retlw	101	;'e'
  1091  1183  3463               	retlw	99	;'c'
  1092  1184  3465               	retlw	101	;'e'
  1093  1185  3469               	retlw	105	;'i'
  1094  1186  3476               	retlw	118	;'v'
  1095  1187  3469               	retlw	105	;'i'
  1096  1188  346E               	retlw	110	;'n'
  1097  1189  3467               	retlw	103	;'g'
  1098  118A  343A               	retlw	58	;':'
  1099  118B  3420               	retlw	32	;' '
  1100  118C  3400               	retlw	0
  1101                           opt subtitle "HI-TECH Software Omniscient Code Generator (Lite mode) build 49521"
  1102                           
  1103  118D                     STR_8:	
  1104  118D  3453               	retlw	83	;'S'
  1105  118E  3465               	retlw	101	;'e'
  1106  118F  346E               	retlw	110	;'n'
  1107  1190  3464               	retlw	100	;'d'
  1108  1191  3469               	retlw	105	;'i'
  1109  1192  346E               	retlw	110	;'n'
  1110  1193  3467               	retlw	103	;'g'
  1111  1194  343A               	retlw	58	;':'
  1112  1195  3420               	retlw	32	;' '
  1113  1196  3400               	retlw	0
  1114                           opt subtitle "HI-TECH Software Omniscient Code Generator (Lite mode) build 49521"
  1115                           
  1116  1197                     STR_13:	
  1117  1197  340A               	retlw	10
  1118  1198  340D               	retlw	13
  1119  1199  340A               	retlw	10
  1120  119A  340D               	retlw	13
  1121  119B  3400               	retlw	0
  1122                           opt subtitle "HI-TECH Software Omniscient Code Generator (Lite mode) build 49521"
  1123                           
  1124  119C                     STR_9:	
  1125  119C  3425               	retlw	37	;'%'
  1126  119D  3458               	retlw	88	;'X'
  1127  119E  3400               	retlw	0
  1128                           opt subtitle "HI-TECH Software Omniscient Code Generator (Lite mode) build 49521"
  1129  1197                     STR_15	equ	STR_13+0
  1130  1199                     STR_10	equ	STR_13+2
  1131                           opt subtitle "HI-TECH Software Omniscient Code Generator (Lite mode) build 49521"
  1132  119F                     __end_of__stringdata:
  1133                           opt subtitle "HI-TECH Software Omniscient Code Generator (Lite mode) build 49521"
  1134                           
  1135  0000                     __CFG_BOREN$OFF equ 0x0
  1136                           opt subtitle "HI-TECH Software Omniscient Code Generator (Lite mode) build 49521"
  1137  0000                     __CFG_PLLEN$ON equ 0x0
  1138                           opt subtitle "HI-TECH Software Omniscient Code Generator (Lite mode) build 49521"
  1139  0000                     __CFG_FOSC$INTOSC equ 0x0
  1140                           opt subtitle "HI-TECH Software Omniscient Code Generator (Lite mode) build 49521"
  1141  0000                     __CFG_MCLRE$ON equ 0x0
  1142                           opt subtitle "HI-TECH Software Omniscient Code Generator (Lite mode) build 49521"
  1143  0000                     __CFG_WDTE$OFF equ 0x0
  1144                           opt subtitle "HI-TECH Software Omniscient Code Generator (Lite mode) build 49521"
  1145  0000                     __CFG_CP$OFF equ 0x0
  1146                           opt subtitle "HI-TECH Software Omniscient Code Generator (Lite mode) build 49521"
  1147  0000                     __CFG_PWRTE$OFF equ 0x0
  1148                           opt subtitle "HI-TECH Software Omniscient Code Generator (Lite mode) build 49521"
  1149                           
  1150                           opt pagewidth 120
  1151                           
  1152  13F6                     start_initialization:
  1153                           opt subtitle "HI-TECH Software Omniscient Code Generator (Lite mode) build 49521"
  1154                           
  1155  13F6                     __initialization:
  1156                           opt subtitle "HI-TECH Software Omniscient Code Generator (Lite mode) build 49521"
  1157                           
  1158  02D0                     __pbitbssBANK0:
  1159  02D0                     _flag:
  1160  02D0                            ds      1
  1161                           opt subtitle "HI-TECH Software Omniscient Code Generator (Lite mode) build 49521"
  1162  02D1                     _scap_on:
  1163  02D1                            ds      1
  1164                           opt subtitle "HI-TECH Software Omniscient Code Generator (Lite mode) build 49521"
  1165                           
  1166                           opt pagewidth 120
  1167  0050                     __pbssBANK0:
  1168  0050                     _charge_pulse:
  1169  0050                            ds      2
  1170                           opt subtitle "HI-TECH Software Omniscient Code Generator (Lite mode) build 49521"
  1171  0052                     _charge_time:
  1172  0052                            ds      2
  1173                           opt subtitle "HI-TECH Software Omniscient Code Generator (Lite mode) build 49521"
  1174  0054                     _jumper_stat:
  1175  0054                            ds      1
  1176                           opt subtitle "HI-TECH Software Omniscient Code Generator (Lite mode) build 49521"
  1177  0055                     _sleep_counter:
  1178  0055                            ds      1
  1179                           opt subtitle "HI-TECH Software Omniscient Code Generator (Lite mode) build 49521"
  1180  0056                     _tmr1Counter:
  1181  0056                            ds      1
  1182                           opt subtitle "HI-TECH Software Omniscient Code Generator (Lite mode) build 49521"
  1183                           
  1184                           opt pagewidth 120
  1185  0057                     __pdataBANK0:
  1186                           opt subtitle "HI-TECH Software Omniscient Code Generator (Lite mode) build 49521"
  1187                           
  1188  0057                     _dac_value:
  1189  0057                            ds      2
  1190                           opt subtitle "HI-TECH Software Omniscient Code Generator (Lite mode) build 49521"
  1191                           
  1192                           opt pagewidth 120
  1193                           
  1194  0059                     _tmr1Target:
  1195  0059                            ds      1
  1196                           opt subtitle "HI-TECH Software Omniscient Code Generator (Lite mode) build 49521"
  1197                           
  1198                           opt pagewidth 120
  1199  00A0                     __pbssBANK1:
  1200  00A0                     _rx_buf:
  1201  00A0                            ds      32
  1202                           opt subtitle "HI-TECH Software Omniscient Code Generator (Lite mode) build 49521"
  1203  00C0                     _energy:
  1204  00C0                            ds      2
  1205                           opt subtitle "HI-TECH Software Omniscient Code Generator (Lite mode) build 49521"
  1206  00C2                     _timelapse_count:
  1207  00C2                            ds      2
  1208                           opt subtitle "HI-TECH Software Omniscient Code Generator (Lite mode) build 49521"
  1209  00C4                     _values:
  1210  00C4                            ds      2
  1211                           opt subtitle "HI-TECH Software Omniscient Code Generator (Lite mode) build 49521"
  1212  00C6                     _sleep_count:
  1213  00C6                            ds      1
  1214                           opt subtitle "HI-TECH Software Omniscient Code Generator (Lite mode) build 49521"
  1215  00C7                     _value:
  1216  00C7                            ds      1
  1217                           opt subtitle "HI-TECH Software Omniscient Code Generator (Lite mode) build 49521"
  1218                           
  1219                           opt pagewidth 120
  1220  00DF                     __pdataBANK1:
  1221                           opt subtitle "HI-TECH Software Omniscient Code Generator (Lite mode) build 49521"
  1222                           
  1223  00DF                     _charge_pulse_float:
  1224  00DF                            ds      3
  1225                           opt subtitle "HI-TECH Software Omniscient Code Generator (Lite mode) build 49521"
  1226                           
  1227                           opt pagewidth 120
  1228                           
  1229  00E2                     _tx_buf:
  1230  00E2                            ds      10
  1231                           opt subtitle "HI-TECH Software Omniscient Code Generator (Lite mode) build 49521"
  1232                           
  1233                           opt pagewidth 120
  1234                           
  1235                           	opt lm
  1236  1207                     clear_ram:
  1237  1207  0064               	clrwdt			;clear the watchdog before getting into this loop
  1238  1208                     clrloop:
  1239  1208  0180               	clrf	indf		;clear RAM location pointed to by FSR
  1240  1209  0A84               	incf	fsr,f		;increment pointer
  1241  120A  0604               	xorwf	fsr,w		;XOR with final address
  1242  120B  1903               	btfsc	status,2	;have we reached the end yet?
  1243  120C  3400               	retlw	0		;all done for this memory range, return
  1244  120D  0604               	xorwf	fsr,w		;XOR again to restore value
  1245  120E  2A08               	goto	clrloop		;do the next byte
  1246                           opt subtitle "HI-TECH Software Omniscient Code Generator (Lite mode) build 49521"
  1247                           
  1248                           opt pagewidth 120
  1249  13F6  01DA               	clrf	((__pbitbssBANK0/8)+0)&07Fh
  1250                           opt subtitle "HI-TECH Software Omniscient Code Generator (Lite mode) build 49521"
  1251                           
  1252  13F7  01D0               	clrf	((__pbssBANK0)+0)&07Fh
  1253  13F8  01D1               	clrf	((__pbssBANK0)+1)&07Fh
  1254  13F9  01D2               	clrf	((__pbssBANK0)+2)&07Fh
  1255  13FA  01D3               	clrf	((__pbssBANK0)+3)&07Fh
  1256  13FB  01D4               	clrf	((__pbssBANK0)+4)&07Fh
  1257  13FC  01D5               	clrf	((__pbssBANK0)+5)&07Fh
  1258  13FD  01D6               	clrf	((__pbssBANK0)+6)&07Fh
  1259                           opt subtitle "HI-TECH Software Omniscient Code Generator (Lite mode) build 49521"
  1260                           
  1261  13FE  1383               	bcf	status, 7	;select IRP bank0
  1262  13FF  30A0               	movlw	low(__pbssBANK1)
  1263  1400  0084               	movwf	fsr
  1264  1401  30C8               	movlw	low((__pbssBANK1)+028h)
  1265  1402  160A  118A  2207   	fcall	clear_ram
              160A  118A         
  1266                           opt subtitle "HI-TECH Software Omniscient Code Generator (Lite mode) build 49521"
  1267                           
  1268                           opt pagewidth 120
  1269                           
  1270  123E                     init_fetch:
  1271  123E  087E               	movf btemp,w
  1272  123F  008A               	movwf pclath
  1273  1240  087F               	movf btemp+1,w
  1274  1241  0082               	movwf pc
  1275                           opt subtitle "HI-TECH Software Omniscient Code Generator (Lite mode) build 49521"
  1276                           
  1277                           opt pagewidth 120
  1278                           
  1279                           	opt lm
  1280                           
  1281  1242                     init_ram:
  1282  1242  160A  118A  223E   	fcall init_fetch
              160A  118A         
  1283  1247  0080               	movwf indf,f
  1284  1248  0A84               	incf fsr,f
  1285  1249  0804               	movf fsr,w
  1286  124A  067D               	xorwf btemp-1,w
  1287  124B  1903               	btfsc status,2
  1288  124C  3400               	retlw 0
  1289  124D  0AFF               	incf btemp+1,f
  1290  124E  1903               	btfsc status,2
  1291  124F  0AFE               	incf btemp,f
  1292  1250  2A42               	goto init_ram
  1293                           opt subtitle "HI-TECH Software Omniscient Code Generator (Lite mode) build 49521"
  1294                           
  1295                           opt pagewidth 120
  1296  1407  30EC               	movlw low(__pdataBANK1+13)
  1297  1408  00FD               	movwf btemp-1,f
  1298  1409  3012               	movlw high(__pidataBANK1)
  1299  140A  00FE               	movwf btemp,f
  1300  140B  3031               	movlw low(__pidataBANK1)
  1301  140C  00FF               	movwf btemp+1,f
  1302  140D  30DF               	movlw low(__pdataBANK1)
  1303  140E  0084               	movwf fsr,f
  1304  140F  160A  118A  2242   	fcall init_ram
              160A  118A         
  1305                           opt subtitle "HI-TECH Software Omniscient Code Generator (Lite mode) build 49521"
  1306                           
  1307                           opt pagewidth 120
  1308  1414  305A               	movlw low(__pdataBANK0+3)
  1309  1415  00FD               	movwf btemp-1,f
  1310  1416  3008               	movlw high(__pidataBANK0)
  1311  1417  00FE               	movwf btemp,f
  1312  1418  3000               	movlw low(__pidataBANK0)
  1313  1419  00FF               	movwf btemp+1,f
  1314  141A  3057               	movlw low(__pdataBANK0)
  1315  141B  0084               	movwf fsr,f
  1316  141C  160A  118A  2242   	fcall init_ram
              160A  118A         
  1317                           opt subtitle "HI-TECH Software Omniscient Code Generator (Lite mode) build 49521"
  1318                           
  1319                           opt pagewidth 120
  1320                           
  1321                           	opt lm
  1322  1421                     end_of_initialization:
  1323  1421                     __end_of__initialization:clrf status
      + 1421  0183               	clrf	3
  1324  1422  120A  118A  2815   ljmp _main	;jump to C main() function
  1325                           opt subtitle "HI-TECH Software Omniscient Code Generator (Lite mode) build 49521"
  1326                           
  1327  0190                     __pcstackBANK3:
  1328                           opt subtitle "HI-TECH Software Omniscient Code Generator (Lite mode) build 49521"
  1329  0190                     main@i:	; 4 bytes @ 0x0
  1330  0190                     	ds	4
  1331                           opt subtitle "HI-TECH Software Omniscient Code Generator (Lite mode) build 49521"
  1332  0194                     main@num_sleep:	; 1 bytes @ 0x4
  1333  0194                     	ds	1
  1334                           opt subtitle "HI-TECH Software Omniscient Code Generator (Lite mode) build 49521"
  1335                           
  1336  00C8                     __pcstackBANK1:
  1337  00C8                     ??___ftge:	; 0 bytes @ 0x0
  1338                           opt subtitle "HI-TECH Software Omniscient Code Generator (Lite mode) build 49521"
  1339  00C8                     printf@idx:	; 1 bytes @ 0x0
  1340                           opt subtitle "HI-TECH Software Omniscient Code Generator (Lite mode) build 49521"
  1341  00C8                     RFM70_Initialize@WriteArr:	; 12 bytes @ 0x0
  1342  00C8                     	ds	1
  1343                           opt subtitle "HI-TECH Software Omniscient Code Generator (Lite mode) build 49521"
  1344  00C9                     printf@ap:	; 1 bytes @ 0x1
  1345  00C9                     	ds	1
  1346                           opt subtitle "HI-TECH Software Omniscient Code Generator (Lite mode) build 49521"
  1347  00CA                     printf@prec:	; 1 bytes @ 0x2
  1348  00CA                     	ds	1
  1349                           opt subtitle "HI-TECH Software Omniscient Code Generator (Lite mode) build 49521"
  1350  00CB                     printf@flag:	; 1 bytes @ 0x3
  1351  00CB                     	ds	1
  1352                           opt subtitle "HI-TECH Software Omniscient Code Generator (Lite mode) build 49521"
  1353  00CC                     printf@_val:	; 4 bytes @ 0x4
  1354  00CC                     	ds	4
  1355                           opt subtitle "HI-TECH Software Omniscient Code Generator (Lite mode) build 49521"
  1356  00D0                     printf@c:	; 1 bytes @ 0x8
  1357  00D0                     	ds	1
  1358  00D1                     ??_Send_Packet:	; 0 bytes @ 0x9
  1359  00D1                     	ds	3
  1360                           opt subtitle "HI-TECH Software Omniscient Code Generator (Lite mode) build 49521"
  1361  00D4                     Send_Packet@type:	; 1 bytes @ 0xC
  1362                           opt subtitle "HI-TECH Software Omniscient Code Generator (Lite mode) build 49521"
  1363  00D4                     RFM70_Initialize@i:	; 1 bytes @ 0xC
  1364  00D4                     	ds	1
  1365                           opt subtitle "HI-TECH Software Omniscient Code Generator (Lite mode) build 49521"
  1366  00D5                     Send_Packet@fifo_sta:	; 1 bytes @ 0xD
  1367                           opt subtitle "HI-TECH Software Omniscient Code Generator (Lite mode) build 49521"
  1368  00D5                     RFM70_Initialize@j:	; 1 bytes @ 0xD
  1369  00D5                     	ds	1
  1370                           opt subtitle "HI-TECH Software Omniscient Code Generator (Lite mode) build 49521"
  1371  00D6                     Send_Packet@i:	; 1 bytes @ 0xE
  1372  00D6                     	ds	1
  1373  00D7                     ?_main:	; 2 bytes @ 0xF
  1374  00D7                     main@argc:	; 2 bytes @ 0xF
  1375  00D7                     	ds	2
  1376  00D9                     main@argv:	; 2 bytes @ 0x11
  1377  00D9                     	ds	2
  1378  00DB                     ??_main:	; 0 bytes @ 0x13
  1379  00DB                     	ds	4
  1380                           opt subtitle "HI-TECH Software Omniscient Code Generator (Lite mode) build 49521"
  1381                           
  1382  0070                     __pcstackCOMMON:
  1383  0070                     ?_spiInit:	; 0 bytes @ 0x0
  1384  0070                     ?_uartInit:	; 0 bytes @ 0x0
  1385  0070                     ?_adcInit:	; 0 bytes @ 0x0
  1386  0070                     ?_rfm70setPowerdownMode:	; 0 bytes @ 0x0
  1387  0070                     ?_RFM70_Initialize:	; 0 bytes @ 0x0
  1388  0070                     ?_sleep:	; 0 bytes @ 0x0
  1389  0070                     ?_SwitchToTxMode:	; 0 bytes @ 0x0
  1390  0070                     ?_SwitchToRxMode:	; 0 bytes @ 0x0
  1391  0070                     ?_ISR:	; 0 bytes @ 0x0
  1392  0070                     ?_putch:	; 0 bytes @ 0x0
  1393  0070                     ?_SwitchCFG:	; 0 bytes @ 0x0
  1394  0070                     ?i1_putch:	; 0 bytes @ 0x0
  1395  0070                     ??i1_putch:	; 0 bytes @ 0x0
  1396  0070                     ?_adcReadVcap:	; 1 bytes @ 0x0
  1397  0070                     ?_adcReadVsupercap:	; 1 bytes @ 0x0
  1398  0070                     ?_adcReadTemp:	; 1 bytes @ 0x0
  1399  0070                     ?_SPI_Read_Reg:	; 1 bytes @ 0x0
  1400  0070                     ?_rfm70TxDataSentInterrupt:	; 1 bytes @ 0x0
  1401  0070                     ?_rfm70TxDataSentErrorInterrupt:	; 1 bytes @ 0x0
  1402  0070                     ?_SPI_RW:	; 1 bytes @ 0x0
  1403                           opt subtitle "HI-TECH Software Omniscient Code Generator (Lite mode) build 49521"
  1404  0070                     ?i1___lwdiv:	; 2 bytes @ 0x0
  1405                           opt subtitle "HI-TECH Software Omniscient Code Generator (Lite mode) build 49521"
  1406  0070                     i1putch@c:	; 1 bytes @ 0x0
  1407                           opt subtitle "HI-TECH Software Omniscient Code Generator (Lite mode) build 49521"
  1408  0070                     i1___lwdiv@divisor:	; 2 bytes @ 0x0
  1409  0070                     	ds	2
  1410                           opt subtitle "HI-TECH Software Omniscient Code Generator (Lite mode) build 49521"
  1411  0072                     i1___lwdiv@dividend:	; 2 bytes @ 0x2
  1412  0072                     	ds	2
  1413  0074                     ??i1___lwdiv:	; 0 bytes @ 0x4
  1414  0074                     	ds	1
  1415                           opt subtitle "HI-TECH Software Omniscient Code Generator (Lite mode) build 49521"
  1416  0075                     i1___lwdiv@counter:	; 1 bytes @ 0x5
  1417  0075                     	ds	1
  1418                           opt subtitle "HI-TECH Software Omniscient Code Generator (Lite mode) build 49521"
  1419  0076                     i1___lwdiv@quotient:	; 2 bytes @ 0x6
  1420  0076                     	ds	2
  1421                           opt subtitle "HI-TECH Software Omniscient Code Generator (Lite mode) build 49521"
  1422  0078                     ?i1___lwmod:	; 2 bytes @ 0x8
  1423                           opt subtitle "HI-TECH Software Omniscient Code Generator (Lite mode) build 49521"
  1424  0078                     i1___lwmod@divisor:	; 2 bytes @ 0x8
  1425  0078                     	ds	2
  1426                           opt subtitle "HI-TECH Software Omniscient Code Generator (Lite mode) build 49521"
  1427  007A                     i1___lwmod@dividend:	; 2 bytes @ 0xA
  1428  007A                     	ds	2
  1429  007C                     ??i1___lwmod:	; 0 bytes @ 0xC
  1430  007C                     	ds	1
  1431                           opt subtitle "HI-TECH Software Omniscient Code Generator (Lite mode) build 49521"
  1432  007D                     i1___lwmod@counter:	; 1 bytes @ 0xD
  1433  007D                     	ds	1
  1434                           opt subtitle "HI-TECH Software Omniscient Code Generator (Lite mode) build 49521"
  1435                           
  1436  0020                     __pcstackBANK0:
  1437                           opt subtitle "HI-TECH Software Omniscient Code Generator (Lite mode) build 49521"
  1438  0020                     ?i1_printf:	; 2 bytes @ 0x0
  1439                           opt subtitle "HI-TECH Software Omniscient Code Generator (Lite mode) build 49521"
  1440  0020                     i1printf@f:	; 2 bytes @ 0x0
  1441  0020                     	ds	2
  1442  0022                     ??i1_printf:	; 0 bytes @ 0x2
  1443  0022                     	ds	3
  1444                           opt subtitle "HI-TECH Software Omniscient Code Generator (Lite mode) build 49521"
  1445  0025                     i1printf@idx:	; 1 bytes @ 0x5
  1446  0025                     	ds	1
  1447                           opt subtitle "HI-TECH Software Omniscient Code Generator (Lite mode) build 49521"
  1448  0026                     i1printf@ap:	; 1 bytes @ 0x6
  1449  0026                     	ds	1
  1450                           opt subtitle "HI-TECH Software Omniscient Code Generator (Lite mode) build 49521"
  1451  0027                     i1printf@prec:	; 1 bytes @ 0x7
  1452  0027                     	ds	1
  1453                           opt subtitle "HI-TECH Software Omniscient Code Generator (Lite mode) build 49521"
  1454  0028                     i1printf@flag:	; 1 bytes @ 0x8
  1455  0028                     	ds	1
  1456                           opt subtitle "HI-TECH Software Omniscient Code Generator (Lite mode) build 49521"
  1457  0029                     i1printf@_val:	; 4 bytes @ 0x9
  1458  0029                     	ds	4
  1459                           opt subtitle "HI-TECH Software Omniscient Code Generator (Lite mode) build 49521"
  1460  002D                     i1printf@c:	; 1 bytes @ 0xD
  1461  002D                     	ds	1
  1462  002E                     ??_ISR:	; 0 bytes @ 0xE
  1463  002E                     	ds	7
  1464  0035                     ??_spiInit:	; 0 bytes @ 0x15
  1465  0035                     ??_uartInit:	; 0 bytes @ 0x15
  1466  0035                     ??_adcInit:	; 0 bytes @ 0x15
  1467  0035                     ??_adcReadVcap:	; 0 bytes @ 0x15
  1468  0035                     ??_adcReadVsupercap:	; 0 bytes @ 0x15
  1469  0035                     ??_adcReadTemp:	; 0 bytes @ 0x15
  1470  0035                     ??_putch:	; 0 bytes @ 0x15
  1471  0035                     ??_SPI_RW:	; 0 bytes @ 0x15
  1472                           opt subtitle "HI-TECH Software Omniscient Code Generator (Lite mode) build 49521"
  1473  0035                     ?___wmul:	; 2 bytes @ 0x15
  1474                           opt subtitle "HI-TECH Software Omniscient Code Generator (Lite mode) build 49521"
  1475  0035                     ?___lwdiv:	; 2 bytes @ 0x15
  1476                           opt subtitle "HI-TECH Software Omniscient Code Generator (Lite mode) build 49521"
  1477  0035                     ?___ftpack:	; 3 bytes @ 0x15
  1478                           opt subtitle "HI-TECH Software Omniscient Code Generator (Lite mode) build 49521"
  1479  0035                     ?___fttol:	; 4 bytes @ 0x15
  1480                           opt subtitle "HI-TECH Software Omniscient Code Generator (Lite mode) build 49521"
  1481  0035                     putch@c:	; 1 bytes @ 0x15
  1482                           opt subtitle "HI-TECH Software Omniscient Code Generator (Lite mode) build 49521"
  1483  0035                     ___wmul@multiplier:	; 2 bytes @ 0x15
  1484                           opt subtitle "HI-TECH Software Omniscient Code Generator (Lite mode) build 49521"
  1485  0035                     ___lwdiv@divisor:	; 2 bytes @ 0x15
  1486                           opt subtitle "HI-TECH Software Omniscient Code Generator (Lite mode) build 49521"
  1487  0035                     ___fttol@f1:	; 3 bytes @ 0x15
  1488                           opt subtitle "HI-TECH Software Omniscient Code Generator (Lite mode) build 49521"
  1489  0035                     ___ftpack@arg:	; 3 bytes @ 0x15
  1490  0035                     	ds	2
  1491                           opt subtitle "HI-TECH Software Omniscient Code Generator (Lite mode) build 49521"
  1492  0037                     adcReadTemp@value:	; 1 bytes @ 0x17
  1493                           opt subtitle "HI-TECH Software Omniscient Code Generator (Lite mode) build 49521"
  1494  0037                     adcReadVcap@value:	; 1 bytes @ 0x17
  1495                           opt subtitle "HI-TECH Software Omniscient Code Generator (Lite mode) build 49521"
  1496  0037                     adcReadVsupercap@value:	; 1 bytes @ 0x17
  1497                           opt subtitle "HI-TECH Software Omniscient Code Generator (Lite mode) build 49521"
  1498  0037                     SPI_RW@value:	; 1 bytes @ 0x17
  1499                           opt subtitle "HI-TECH Software Omniscient Code Generator (Lite mode) build 49521"
  1500  0037                     ___wmul@multiplicand:	; 2 bytes @ 0x17
  1501                           opt subtitle "HI-TECH Software Omniscient Code Generator (Lite mode) build 49521"
  1502  0037                     ___lwdiv@dividend:	; 2 bytes @ 0x17
  1503  0037                     	ds	1
  1504  0038                     ??_SPI_Read_Reg:	; 0 bytes @ 0x18
  1505                           opt subtitle "HI-TECH Software Omniscient Code Generator (Lite mode) build 49521"
  1506  0038                     ?_SPI_Write_Buf:	; 0 bytes @ 0x18
  1507                           opt subtitle "HI-TECH Software Omniscient Code Generator (Lite mode) build 49521"
  1508  0038                     ?_SPI_Write_Reg:	; 0 bytes @ 0x18
  1509                           opt subtitle "HI-TECH Software Omniscient Code Generator (Lite mode) build 49521"
  1510  0038                     SPI_Write_Reg@value:	; 1 bytes @ 0x18
  1511                           opt subtitle "HI-TECH Software Omniscient Code Generator (Lite mode) build 49521"
  1512  0038                     SPI_Write_Buf@pBuf:	; 1 bytes @ 0x18
  1513                           opt subtitle "HI-TECH Software Omniscient Code Generator (Lite mode) build 49521"
  1514  0038                     ___ftpack@exp:	; 1 bytes @ 0x18
  1515  0038                     	ds	1
  1516  0039                     ??_SPI_Write_Reg:	; 0 bytes @ 0x19
  1517  0039                     ??___wmul:	; 0 bytes @ 0x19
  1518  0039                     ??___lwdiv:	; 0 bytes @ 0x19
  1519  0039                     ??___fttol:	; 0 bytes @ 0x19
  1520                           opt subtitle "HI-TECH Software Omniscient Code Generator (Lite mode) build 49521"
  1521  0039                     SPI_Write_Reg@reg:	; 1 bytes @ 0x19
  1522                           opt subtitle "HI-TECH Software Omniscient Code Generator (Lite mode) build 49521"
  1523  0039                     SPI_Read_Reg@reg:	; 1 bytes @ 0x19
  1524                           opt subtitle "HI-TECH Software Omniscient Code Generator (Lite mode) build 49521"
  1525  0039                     SPI_Write_Buf@length:	; 1 bytes @ 0x19
  1526                           opt subtitle "HI-TECH Software Omniscient Code Generator (Lite mode) build 49521"
  1527  0039                     ___ftpack@sign:	; 1 bytes @ 0x19
  1528                           opt subtitle "HI-TECH Software Omniscient Code Generator (Lite mode) build 49521"
  1529  0039                     ___wmul@product:	; 2 bytes @ 0x19
  1530  0039                     	ds	1
  1531  003A                     ??_SPI_Write_Buf:	; 0 bytes @ 0x1A
  1532  003A                     ??___ftpack:	; 0 bytes @ 0x1A
  1533                           opt subtitle "HI-TECH Software Omniscient Code Generator (Lite mode) build 49521"
  1534  003A                     SPI_Read_Reg@value:	; 1 bytes @ 0x1A
  1535                           opt subtitle "HI-TECH Software Omniscient Code Generator (Lite mode) build 49521"
  1536  003A                     ___lwdiv@counter:	; 1 bytes @ 0x1A
  1537  003A                     	ds	1
  1538  003B                     ??_rfm70setPowerdownMode:	; 0 bytes @ 0x1B
  1539  003B                     ??_SwitchToTxMode:	; 0 bytes @ 0x1B
  1540  003B                     ??_rfm70TxDataSentInterrupt:	; 0 bytes @ 0x1B
  1541  003B                     ??_SwitchToRxMode:	; 0 bytes @ 0x1B
  1542  003B                     ??_rfm70TxDataSentErrorInterrupt:	; 0 bytes @ 0x1B
  1543  003B                     ??_SwitchCFG:	; 0 bytes @ 0x1B
  1544                           opt subtitle "HI-TECH Software Omniscient Code Generator (Lite mode) build 49521"
  1545  003B                     ?___awdiv:	; 2 bytes @ 0x1B
  1546                           opt subtitle "HI-TECH Software Omniscient Code Generator (Lite mode) build 49521"
  1547  003B                     SPI_Write_Buf@reg:	; 1 bytes @ 0x1B
  1548                           opt subtitle "HI-TECH Software Omniscient Code Generator (Lite mode) build 49521"
  1549  003B                     ___lwdiv@quotient:	; 2 bytes @ 0x1B
  1550                           opt subtitle "HI-TECH Software Omniscient Code Generator (Lite mode) build 49521"
  1551  003B                     ___awdiv@divisor:	; 2 bytes @ 0x1B
  1552  003B                     	ds	1
  1553                           opt subtitle "HI-TECH Software Omniscient Code Generator (Lite mode) build 49521"
  1554  003C                     SPI_Write_Buf@byte_ctr:	; 1 bytes @ 0x1C
  1555                           opt subtitle "HI-TECH Software Omniscient Code Generator (Lite mode) build 49521"
  1556  003C                     SwitchToRxMode@value:	; 1 bytes @ 0x1C
  1557                           opt subtitle "HI-TECH Software Omniscient Code Generator (Lite mode) build 49521"
  1558  003C                     SwitchToTxMode@value:	; 1 bytes @ 0x1C
  1559                           opt subtitle "HI-TECH Software Omniscient Code Generator (Lite mode) build 49521"
  1560  003C                     SwitchCFG@_cfg:	; 1 bytes @ 0x1C
  1561                           opt subtitle "HI-TECH Software Omniscient Code Generator (Lite mode) build 49521"
  1562  003C                     rfm70setPowerdownMode@value:	; 1 bytes @ 0x1C
  1563  003C                     	ds	1
  1564                           opt subtitle "HI-TECH Software Omniscient Code Generator (Lite mode) build 49521"
  1565  003D                     ?___lwmod:	; 2 bytes @ 0x1D
  1566                           opt subtitle "HI-TECH Software Omniscient Code Generator (Lite mode) build 49521"
  1567  003D                     ?___ftdiv:	; 3 bytes @ 0x1D
  1568                           opt subtitle "HI-TECH Software Omniscient Code Generator (Lite mode) build 49521"
  1569  003D                     ?___ftmul:	; 3 bytes @ 0x1D
  1570                           opt subtitle "HI-TECH Software Omniscient Code Generator (Lite mode) build 49521"
  1571  003D                     ?___lbtoft:	; 3 bytes @ 0x1D
  1572                           opt subtitle "HI-TECH Software Omniscient Code Generator (Lite mode) build 49521"
  1573  003D                     SwitchCFG@Tmp:	; 1 bytes @ 0x1D
  1574                           opt subtitle "HI-TECH Software Omniscient Code Generator (Lite mode) build 49521"
  1575  003D                     rfm70setPowerdownMode@reg:	; 1 bytes @ 0x1D
  1576                           opt subtitle "HI-TECH Software Omniscient Code Generator (Lite mode) build 49521"
  1577  003D                     ___fttol@sign1:	; 1 bytes @ 0x1D
  1578                           opt subtitle "HI-TECH Software Omniscient Code Generator (Lite mode) build 49521"
  1579  003D                     ___lwmod@divisor:	; 2 bytes @ 0x1D
  1580                           opt subtitle "HI-TECH Software Omniscient Code Generator (Lite mode) build 49521"
  1581  003D                     ___awdiv@dividend:	; 2 bytes @ 0x1D
  1582                           opt subtitle "HI-TECH Software Omniscient Code Generator (Lite mode) build 49521"
  1583  003D                     ___ftdiv@f2:	; 3 bytes @ 0x1D
  1584                           opt subtitle "HI-TECH Software Omniscient Code Generator (Lite mode) build 49521"
  1585  003D                     ___ftmul@f1:	; 3 bytes @ 0x1D
  1586  003D                     	ds	1
  1587  003E                     ??_RFM70_Initialize:	; 0 bytes @ 0x1E
  1588                           opt subtitle "HI-TECH Software Omniscient Code Generator (Lite mode) build 49521"
  1589  003E                     ___fttol@lval:	; 4 bytes @ 0x1E
  1590  003E                     	ds	1
  1591  003F                     ??___awdiv:	; 0 bytes @ 0x1F
  1592                           opt subtitle "HI-TECH Software Omniscient Code Generator (Lite mode) build 49521"
  1593  003F                     ___lwmod@dividend:	; 2 bytes @ 0x1F
  1594  003F                     	ds	1
  1595  0040                     ??___lbtoft:	; 0 bytes @ 0x20
  1596                           opt subtitle "HI-TECH Software Omniscient Code Generator (Lite mode) build 49521"
  1597  0040                     ___awdiv@counter:	; 1 bytes @ 0x20
  1598                           opt subtitle "HI-TECH Software Omniscient Code Generator (Lite mode) build 49521"
  1599  0040                     ___ftdiv@f1:	; 3 bytes @ 0x20
  1600                           opt subtitle "HI-TECH Software Omniscient Code Generator (Lite mode) build 49521"
  1601  0040                     ___ftmul@f2:	; 3 bytes @ 0x20
  1602  0040                     	ds	1
  1603  0041                     ??___lwmod:	; 0 bytes @ 0x21
  1604                           opt subtitle "HI-TECH Software Omniscient Code Generator (Lite mode) build 49521"
  1605  0041                     ___awdiv@sign:	; 1 bytes @ 0x21
  1606  0041                     	ds	1
  1607                           opt subtitle "HI-TECH Software Omniscient Code Generator (Lite mode) build 49521"
  1608  0042                     ___lwmod@counter:	; 1 bytes @ 0x22
  1609                           opt subtitle "HI-TECH Software Omniscient Code Generator (Lite mode) build 49521"
  1610  0042                     ___fttol@exp1:	; 1 bytes @ 0x22
  1611                           opt subtitle "HI-TECH Software Omniscient Code Generator (Lite mode) build 49521"
  1612  0042                     ___awdiv@quotient:	; 2 bytes @ 0x22
  1613  0042                     	ds	1
  1614  0043                     ??___ftdiv:	; 0 bytes @ 0x23
  1615  0043                     ??___ftmul:	; 0 bytes @ 0x23
  1616                           opt subtitle "HI-TECH Software Omniscient Code Generator (Lite mode) build 49521"
  1617  0043                     ?_printf:	; 2 bytes @ 0x23
  1618                           opt subtitle "HI-TECH Software Omniscient Code Generator (Lite mode) build 49521"
  1619  0043                     printf@f:	; 2 bytes @ 0x23
  1620  0043                     	ds	1
  1621                           opt subtitle "HI-TECH Software Omniscient Code Generator (Lite mode) build 49521"
  1622  0044                     ___lbtoft@c:	; 1 bytes @ 0x24
  1623  0044                     	ds	1
  1624                           opt subtitle "HI-TECH Software Omniscient Code Generator (Lite mode) build 49521"
  1625  0045                     ?___ftge:	; 1 bit 
  1626                           opt subtitle "HI-TECH Software Omniscient Code Generator (Lite mode) build 49521"
  1627  0045                     ___ftge@ff1:	; 3 bytes @ 0x25
  1628  0045                     	ds	2
  1629                           opt subtitle "HI-TECH Software Omniscient Code Generator (Lite mode) build 49521"
  1630  0047                     ___ftdiv@cntr:	; 1 bytes @ 0x27
  1631                           opt subtitle "HI-TECH Software Omniscient Code Generator (Lite mode) build 49521"
  1632  0047                     ___ftmul@exp:	; 1 bytes @ 0x27
  1633  0047                     	ds	1
  1634                           opt subtitle "HI-TECH Software Omniscient Code Generator (Lite mode) build 49521"
  1635  0048                     ___ftdiv@f3:	; 3 bytes @ 0x28
  1636                           opt subtitle "HI-TECH Software Omniscient Code Generator (Lite mode) build 49521"
  1637  0048                     ___ftmul@f3_as_product:	; 3 bytes @ 0x28
  1638                           opt subtitle "HI-TECH Software Omniscient Code Generator (Lite mode) build 49521"
  1639  0048                     ___ftge@ff2:	; 3 bytes @ 0x28
  1640  0048                     	ds	1
  1641  0049                     ??_printf:	; 0 bytes @ 0x29
  1642  0049                     	ds	2
  1643                           opt subtitle "HI-TECH Software Omniscient Code Generator (Lite mode) build 49521"
  1644  004B                     ___ftdiv@exp:	; 1 bytes @ 0x2B
  1645                           opt subtitle "HI-TECH Software Omniscient Code Generator (Lite mode) build 49521"
  1646  004B                     ___ftmul@cntr:	; 1 bytes @ 0x2B
  1647  004B                     	ds	1
  1648                           opt subtitle "HI-TECH Software Omniscient Code Generator (Lite mode) build 49521"
  1649  004C                     ?_Send_Packet:	; 0 bytes @ 0x2C
  1650                           opt subtitle "HI-TECH Software Omniscient Code Generator (Lite mode) build 49521"
  1651  004C                     Send_Packet@pbuf:	; 1 bytes @ 0x2C
  1652                           opt subtitle "HI-TECH Software Omniscient Code Generator (Lite mode) build 49521"
  1653  004C                     ___ftdiv@sign:	; 1 bytes @ 0x2C
  1654                           opt subtitle "HI-TECH Software Omniscient Code Generator (Lite mode) build 49521"
  1655  004C                     ___ftmul@sign:	; 1 bytes @ 0x2C
  1656  004C                     	ds	1
  1657  004D                     ??_sleep:	; 0 bytes @ 0x2D
  1658                           opt subtitle "HI-TECH Software Omniscient Code Generator (Lite mode) build 49521"
  1659  004D                     Send_Packet@len:	; 1 bytes @ 0x2D
  1660  004D                     	ds	2
  1661                           opt subtitle "HI-TECH Software Omniscient Code Generator (Lite mode) build 49521"
  1662  004F                     sleep@new_value:	; 1 bytes @ 0x2F
  1663  004F                     	ds	1
  1664                           opt subtitle "HI-TECH Software Omniscient Code Generator (Lite mode) build 49521"
  1665                           
  1666                           opt pagewidth 120
  1667                           
  1668                           	opt lm
  1669                           
  1670                           	processor	16LF707
  1671                           clrc	macro
  1672                           	bcf	3,0
  1673                           	endm
  1674                           clrz	macro
  1675                           	bcf	3,2
  1676                           	endm
  1677                           setc	macro
  1678                           	bsf	3,0
  1679                           	endm
  1680                           setz	macro
  1681                           	bsf	3,2
  1682                           	endm
  1683                           skipc	macro
  1684                           	btfss	3,0
  1685                           	endm
  1686                           skipz	macro
  1687                           	btfss	3,2
  1688                           	endm
  1689                           skipnc	macro
  1690                           	btfsc	3,0
  1691                           	endm
  1692                           skipnz	macro
  1693                           	btfsc	3,2
  1694                           	endm
  1695                           indf	equ	0
  1696                           indf0	equ	0
  1697                           pc	equ	2
  1698                           pcl	equ	2
  1699                           status	equ	3
  1700                           fsr	equ	4
  1701                           fsr0	equ	4
  1702                           c	equ	1
  1703                           z	equ	0
  1704                           pclath	equ	10
  1705                           # 46 "/Applications/microchip/xc8/v1.12/include/pic16lf707.h"
  1706                           INDF equ 00h ;# 
  1707                           # 52 "/Applications/microchip/xc8/v1.12/include/pic16lf707.h"
  1708                           TMR0 equ 01h ;# 
  1709                           # 58 "/Applications/microchip/xc8/v1.12/include/pic16lf707.h"
  1710                           PCL equ 02h ;# 
  1711                           # 64 "/Applications/microchip/xc8/v1.12/include/pic16lf707.h"
  1712                           STATUS equ 03h ;# 
  1713                           # 151 "/Applications/microchip/xc8/v1.12/include/pic16lf707.h"
  1714                           FSR equ 04h ;# 
  1715                           # 157 "/Applications/microchip/xc8/v1.12/include/pic16lf707.h"
  1716                           PORTA equ 05h ;# 
  1717                           # 346 "/Applications/microchip/xc8/v1.12/include/pic16lf707.h"
  1718                           PORTB equ 06h ;# 
  1719                           # 520 "/Applications/microchip/xc8/v1.12/include/pic16lf707.h"
  1720                           PORTC equ 07h ;# 
  1721                           # 715 "/Applications/microchip/xc8/v1.12/include/pic16lf707.h"
  1722                           PORTD equ 08h ;# 
  1723                           # 834 "/Applications/microchip/xc8/v1.12/include/pic16lf707.h"
  1724                           PORTE equ 09h ;# 
  1725                           # 917 "/Applications/microchip/xc8/v1.12/include/pic16lf707.h"
  1726                           PCLATH equ 0Ah ;# 
  1727                           # 936 "/Applications/microchip/xc8/v1.12/include/pic16lf707.h"
  1728                           INTCON equ 0Bh ;# 
  1729                           # 1013 "/Applications/microchip/xc8/v1.12/include/pic16lf707.h"
  1730                           PIR1 equ 0Ch ;# 
  1731                           # 1074 "/Applications/microchip/xc8/v1.12/include/pic16lf707.h"
  1732                           PIR2 equ 0Dh ;# 
  1733                           # 1118 "/Applications/microchip/xc8/v1.12/include/pic16lf707.h"
  1734                           TMR1 equ 0Eh ;# 
  1735                           # 1124 "/Applications/microchip/xc8/v1.12/include/pic16lf707.h"
  1736                           TMR1L equ 0Eh ;# 
  1737                           # 1130 "/Applications/microchip/xc8/v1.12/include/pic16lf707.h"
  1738                           TMR1H equ 0Fh ;# 
  1739                           # 1136 "/Applications/microchip/xc8/v1.12/include/pic16lf707.h"
  1740                           T1CON equ 010h ;# 
  1741                           # 1214 "/Applications/microchip/xc8/v1.12/include/pic16lf707.h"
  1742                           TMR2 equ 011h ;# 
  1743                           # 1220 "/Applications/microchip/xc8/v1.12/include/pic16lf707.h"
  1744                           T2CON equ 012h ;# 
  1745                           # 1290 "/Applications/microchip/xc8/v1.12/include/pic16lf707.h"
  1746                           SSPBUF equ 013h ;# 
  1747                           # 1296 "/Applications/microchip/xc8/v1.12/include/pic16lf707.h"
  1748                           SSPCON equ 014h ;# 
  1749                           # 1365 "/Applications/microchip/xc8/v1.12/include/pic16lf707.h"
  1750                           CCPR1 equ 015h ;# 
  1751                           # 1371 "/Applications/microchip/xc8/v1.12/include/pic16lf707.h"
  1752                           CCPR1L equ 015h ;# 
  1753                           # 1377 "/Applications/microchip/xc8/v1.12/include/pic16lf707.h"
  1754                           CCPR1H equ 016h ;# 
  1755                           # 1383 "/Applications/microchip/xc8/v1.12/include/pic16lf707.h"
  1756                           CCP1CON equ 017h ;# 
  1757                           # 1446 "/Applications/microchip/xc8/v1.12/include/pic16lf707.h"
  1758                           RCSTA equ 018h ;# 
  1759                           # 1507 "/Applications/microchip/xc8/v1.12/include/pic16lf707.h"
  1760                           TXREG equ 019h ;# 
  1761                           # 1513 "/Applications/microchip/xc8/v1.12/include/pic16lf707.h"
  1762                           RCREG equ 01Ah ;# 
  1763                           # 1519 "/Applications/microchip/xc8/v1.12/include/pic16lf707.h"
  1764                           CCPR2 equ 01Bh ;# 
  1765                           # 1525 "/Applications/microchip/xc8/v1.12/include/pic16lf707.h"
  1766                           CCPR2L equ 01Bh ;# 
  1767                           # 1531 "/Applications/microchip/xc8/v1.12/include/pic16lf707.h"
  1768                           CCPR2H equ 01Ch ;# 
  1769                           # 1537 "/Applications/microchip/xc8/v1.12/include/pic16lf707.h"
  1770                           CCP2CON equ 01Dh ;# 
  1771                           # 1600 "/Applications/microchip/xc8/v1.12/include/pic16lf707.h"
  1772                           ADRES equ 01Eh ;# 
  1773                           # 1606 "/Applications/microchip/xc8/v1.12/include/pic16lf707.h"
  1774                           ADCON0 equ 01Fh ;# 
  1775                           # 1664 "/Applications/microchip/xc8/v1.12/include/pic16lf707.h"
  1776                           OPTION_REG equ 081h ;# 
  1777                           # 1746 "/Applications/microchip/xc8/v1.12/include/pic16lf707.h"
  1778                           TRISA equ 085h ;# 
  1779                           # 1807 "/Applications/microchip/xc8/v1.12/include/pic16lf707.h"
  1780                           TRISB equ 086h ;# 
  1781                           # 1868 "/Applications/microchip/xc8/v1.12/include/pic16lf707.h"
  1782                           TRISC equ 087h ;# 
  1783                           # 1929 "/Applications/microchip/xc8/v1.12/include/pic16lf707.h"
  1784                           TRISD equ 088h ;# 
  1785                           # 1990 "/Applications/microchip/xc8/v1.12/include/pic16lf707.h"
  1786                           TRISE equ 089h ;# 
  1787                           # 2027 "/Applications/microchip/xc8/v1.12/include/pic16lf707.h"
  1788                           PIE1 equ 08Ch ;# 
  1789                           # 2088 "/Applications/microchip/xc8/v1.12/include/pic16lf707.h"
  1790                           PIE2 equ 08Dh ;# 
  1791                           # 2132 "/Applications/microchip/xc8/v1.12/include/pic16lf707.h"
  1792                           PCON equ 08Eh ;# 
  1793                           # 2157 "/Applications/microchip/xc8/v1.12/include/pic16lf707.h"
  1794                           T1GCON equ 08Fh ;# 
  1795                           # 2226 "/Applications/microchip/xc8/v1.12/include/pic16lf707.h"
  1796                           OSCCON equ 090h ;# 
  1797                           # 2273 "/Applications/microchip/xc8/v1.12/include/pic16lf707.h"
  1798                           OSCTUNE equ 091h ;# 
  1799                           # 2292 "/Applications/microchip/xc8/v1.12/include/pic16lf707.h"
  1800                           PR2 equ 092h ;# 
  1801                           # 2298 "/Applications/microchip/xc8/v1.12/include/pic16lf707.h"
  1802                           SSPADD equ 093h ;# 
  1803                           # 2317 "/Applications/microchip/xc8/v1.12/include/pic16lf707.h"
  1804                           SSPMSK equ 093h ;# 
  1805                           # 2336 "/Applications/microchip/xc8/v1.12/include/pic16lf707.h"
  1806                           SSPSTAT equ 094h ;# 
  1807                           # 2397 "/Applications/microchip/xc8/v1.12/include/pic16lf707.h"
  1808                           WPUB equ 095h ;# 
  1809                           # 2458 "/Applications/microchip/xc8/v1.12/include/pic16lf707.h"
  1810                           IOCB equ 096h ;# 
  1811                           # 2519 "/Applications/microchip/xc8/v1.12/include/pic16lf707.h"
  1812                           T3CON equ 097h ;# 
  1813                           # 2585 "/Applications/microchip/xc8/v1.12/include/pic16lf707.h"
  1814                           TXSTA equ 098h ;# 
  1815                           # 2641 "/Applications/microchip/xc8/v1.12/include/pic16lf707.h"
  1816                           SPBRG equ 099h ;# 
  1817                           # 2647 "/Applications/microchip/xc8/v1.12/include/pic16lf707.h"
  1818                           TMR3 equ 09Ah ;# 
  1819                           # 2653 "/Applications/microchip/xc8/v1.12/include/pic16lf707.h"
  1820                           TMR3L equ 09Ah ;# 
  1821                           # 2659 "/Applications/microchip/xc8/v1.12/include/pic16lf707.h"
  1822                           TMR3H equ 09Bh ;# 
  1823                           # 2665 "/Applications/microchip/xc8/v1.12/include/pic16lf707.h"
  1824                           APFCON equ 09Ch ;# 
  1825                           # 2690 "/Applications/microchip/xc8/v1.12/include/pic16lf707.h"
  1826                           FVRCON equ 09Dh ;# 
  1827                           # 2755 "/Applications/microchip/xc8/v1.12/include/pic16lf707.h"
  1828                           T3GCON equ 09Eh ;# 
  1829                           # 2824 "/Applications/microchip/xc8/v1.12/include/pic16lf707.h"
  1830                           ADCON1 equ 09Fh ;# 
  1831                           # 2883 "/Applications/microchip/xc8/v1.12/include/pic16lf707.h"
  1832                           TACON equ 0105h ;# 
  1833                           # 2993 "/Applications/microchip/xc8/v1.12/include/pic16lf707.h"
  1834                           CPSBCON0 equ 0106h ;# 
  1835                           # 3052 "/Applications/microchip/xc8/v1.12/include/pic16lf707.h"
  1836                           CPSBCON1 equ 0107h ;# 
  1837                           # 3097 "/Applications/microchip/xc8/v1.12/include/pic16lf707.h"
  1838                           CPSACON0 equ 0108h ;# 
  1839                           # 3156 "/Applications/microchip/xc8/v1.12/include/pic16lf707.h"
  1840                           CPSACON1 equ 0109h ;# 
  1841                           # 3201 "/Applications/microchip/xc8/v1.12/include/pic16lf707.h"
  1842                           PMDATL equ 010Ch ;# 
  1843                           # 3207 "/Applications/microchip/xc8/v1.12/include/pic16lf707.h"
  1844                           PMADRL equ 010Dh ;# 
  1845                           # 3213 "/Applications/microchip/xc8/v1.12/include/pic16lf707.h"
  1846                           PMDATH equ 010Eh ;# 
  1847                           # 3219 "/Applications/microchip/xc8/v1.12/include/pic16lf707.h"
  1848                           PMADRH equ 010Fh ;# 
  1849                           # 3225 "/Applications/microchip/xc8/v1.12/include/pic16lf707.h"
  1850                           TMRA equ 0110h ;# 
  1851                           # 3231 "/Applications/microchip/xc8/v1.12/include/pic16lf707.h"
  1852                           TBCON equ 0111h ;# 
  1853                           # 3341 "/Applications/microchip/xc8/v1.12/include/pic16lf707.h"
  1854                           TMRB equ 0112h ;# 
  1855                           # 3347 "/Applications/microchip/xc8/v1.12/include/pic16lf707.h"
  1856                           DACCON0 equ 0113h ;# 
  1857                           # 3401 "/Applications/microchip/xc8/v1.12/include/pic16lf707.h"
  1858                           DACCON1 equ 0114h ;# 
  1859                           # 3452 "/Applications/microchip/xc8/v1.12/include/pic16lf707.h"
  1860                           ANSELA equ 0185h ;# 
  1861                           # 3521 "/Applications/microchip/xc8/v1.12/include/pic16lf707.h"
  1862                           ANSELB equ 0186h ;# 
  1863                           # 3590 "/Applications/microchip/xc8/v1.12/include/pic16lf707.h"
  1864                           ANSELC equ 0187h ;# 
  1865                           # 3648 "/Applications/microchip/xc8/v1.12/include/pic16lf707.h"
  1866                           ANSELD equ 0188h ;# 
  1867                           # 3717 "/Applications/microchip/xc8/v1.12/include/pic16lf707.h"
  1868                           ANSELE equ 0189h ;# 
  1869                           # 3756 "/Applications/microchip/xc8/v1.12/include/pic16lf707.h"
  1870                           PMCON1 equ 018Ch ;# 
  1871                           # 46 "/Applications/microchip/xc8/v1.12/include/pic16lf707.h"
  1872                           INDF equ 00h ;# 
  1873                           # 52 "/Applications/microchip/xc8/v1.12/include/pic16lf707.h"
  1874                           TMR0 equ 01h ;# 
  1875                           # 58 "/Applications/microchip/xc8/v1.12/include/pic16lf707.h"
  1876                           PCL equ 02h ;# 
  1877                           # 64 "/Applications/microchip/xc8/v1.12/include/pic16lf707.h"
  1878                           STATUS equ 03h ;# 
  1879                           # 151 "/Applications/microchip/xc8/v1.12/include/pic16lf707.h"
  1880                           FSR equ 04h ;# 
  1881                           # 157 "/Applications/microchip/xc8/v1.12/include/pic16lf707.h"
  1882                           PORTA equ 05h ;# 
  1883                           # 346 "/Applications/microchip/xc8/v1.12/include/pic16lf707.h"
  1884                           PORTB equ 06h ;# 
  1885                           # 520 "/Applications/microchip/xc8/v1.12/include/pic16lf707.h"
  1886                           PORTC equ 07h ;# 
  1887                           # 715 "/Applications/microchip/xc8/v1.12/include/pic16lf707.h"
  1888                           PORTD equ 08h ;# 
  1889                           # 834 "/Applications/microchip/xc8/v1.12/include/pic16lf707.h"
  1890                           PORTE equ 09h ;# 
  1891                           # 917 "/Applications/microchip/xc8/v1.12/include/pic16lf707.h"
  1892                           PCLATH equ 0Ah ;# 
  1893                           # 936 "/Applications/microchip/xc8/v1.12/include/pic16lf707.h"
  1894                           INTCON equ 0Bh ;# 
  1895                           # 1013 "/Applications/microchip/xc8/v1.12/include/pic16lf707.h"
  1896                           PIR1 equ 0Ch ;# 
  1897                           # 1074 "/Applications/microchip/xc8/v1.12/include/pic16lf707.h"
  1898                           PIR2 equ 0Dh ;# 
  1899                           # 1118 "/Applications/microchip/xc8/v1.12/include/pic16lf707.h"
  1900                           TMR1 equ 0Eh ;# 
  1901                           # 1124 "/Applications/microchip/xc8/v1.12/include/pic16lf707.h"
  1902                           TMR1L equ 0Eh ;# 
  1903                           # 1130 "/Applications/microchip/xc8/v1.12/include/pic16lf707.h"
  1904                           TMR1H equ 0Fh ;# 
  1905                           # 1136 "/Applications/microchip/xc8/v1.12/include/pic16lf707.h"
  1906                           T1CON equ 010h ;# 
  1907                           # 1214 "/Applications/microchip/xc8/v1.12/include/pic16lf707.h"
  1908                           TMR2 equ 011h ;# 
  1909                           # 1220 "/Applications/microchip/xc8/v1.12/include/pic16lf707.h"
  1910                           T2CON equ 012h ;# 
  1911                           # 1290 "/Applications/microchip/xc8/v1.12/include/pic16lf707.h"
  1912                           SSPBUF equ 013h ;# 
  1913                           # 1296 "/Applications/microchip/xc8/v1.12/include/pic16lf707.h"
  1914                           SSPCON equ 014h ;# 
  1915                           # 1365 "/Applications/microchip/xc8/v1.12/include/pic16lf707.h"
  1916                           CCPR1 equ 015h ;# 
  1917                           # 1371 "/Applications/microchip/xc8/v1.12/include/pic16lf707.h"
  1918                           CCPR1L equ 015h ;# 
  1919                           # 1377 "/Applications/microchip/xc8/v1.12/include/pic16lf707.h"
  1920                           CCPR1H equ 016h ;# 
  1921                           # 1383 "/Applications/microchip/xc8/v1.12/include/pic16lf707.h"
  1922                           CCP1CON equ 017h ;# 
  1923                           # 1446 "/Applications/microchip/xc8/v1.12/include/pic16lf707.h"
  1924                           RCSTA equ 018h ;# 
  1925                           # 1507 "/Applications/microchip/xc8/v1.12/include/pic16lf707.h"
  1926                           TXREG equ 019h ;# 
  1927                           # 1513 "/Applications/microchip/xc8/v1.12/include/pic16lf707.h"
  1928                           RCREG equ 01Ah ;# 
  1929                           # 1519 "/Applications/microchip/xc8/v1.12/include/pic16lf707.h"
  1930                           CCPR2 equ 01Bh ;# 
  1931                           # 1525 "/Applications/microchip/xc8/v1.12/include/pic16lf707.h"
  1932                           CCPR2L equ 01Bh ;# 
  1933                           # 1531 "/Applications/microchip/xc8/v1.12/include/pic16lf707.h"
  1934                           CCPR2H equ 01Ch ;# 
  1935                           # 1537 "/Applications/microchip/xc8/v1.12/include/pic16lf707.h"
  1936                           CCP2CON equ 01Dh ;# 
  1937                           # 1600 "/Applications/microchip/xc8/v1.12/include/pic16lf707.h"
  1938                           ADRES equ 01Eh ;# 
  1939                           # 1606 "/Applications/microchip/xc8/v1.12/include/pic16lf707.h"
  1940                           ADCON0 equ 01Fh ;# 
  1941                           # 1664 "/Applications/microchip/xc8/v1.12/include/pic16lf707.h"
  1942                           OPTION_REG equ 081h ;# 
  1943                           # 1746 "/Applications/microchip/xc8/v1.12/include/pic16lf707.h"
  1944                           TRISA equ 085h ;# 
  1945                           # 1807 "/Applications/microchip/xc8/v1.12/include/pic16lf707.h"
  1946                           TRISB equ 086h ;# 
  1947                           # 1868 "/Applications/microchip/xc8/v1.12/include/pic16lf707.h"
  1948                           TRISC equ 087h ;# 
  1949                           # 1929 "/Applications/microchip/xc8/v1.12/include/pic16lf707.h"
  1950                           TRISD equ 088h ;# 
  1951                           # 1990 "/Applications/microchip/xc8/v1.12/include/pic16lf707.h"
  1952                           TRISE equ 089h ;# 
  1953                           # 2027 "/Applications/microchip/xc8/v1.12/include/pic16lf707.h"
  1954                           PIE1 equ 08Ch ;# 
  1955                           # 2088 "/Applications/microchip/xc8/v1.12/include/pic16lf707.h"
  1956                           PIE2 equ 08Dh ;# 
  1957                           # 2132 "/Applications/microchip/xc8/v1.12/include/pic16lf707.h"
  1958                           PCON equ 08Eh ;# 
  1959                           # 2157 "/Applications/microchip/xc8/v1.12/include/pic16lf707.h"
  1960                           T1GCON equ 08Fh ;# 
  1961                           # 2226 "/Applications/microchip/xc8/v1.12/include/pic16lf707.h"
  1962                           OSCCON equ 090h ;# 
  1963                           # 2273 "/Applications/microchip/xc8/v1.12/include/pic16lf707.h"
  1964                           OSCTUNE equ 091h ;# 
  1965                           # 2292 "/Applications/microchip/xc8/v1.12/include/pic16lf707.h"
  1966                           PR2 equ 092h ;# 
  1967                           # 2298 "/Applications/microchip/xc8/v1.12/include/pic16lf707.h"
  1968                           SSPADD equ 093h ;# 
  1969                           # 2317 "/Applications/microchip/xc8/v1.12/include/pic16lf707.h"
  1970                           SSPMSK equ 093h ;# 
  1971                           # 2336 "/Applications/microchip/xc8/v1.12/include/pic16lf707.h"
  1972                           SSPSTAT equ 094h ;# 
  1973                           # 2397 "/Applications/microchip/xc8/v1.12/include/pic16lf707.h"
  1974                           WPUB equ 095h ;# 
  1975                           # 2458 "/Applications/microchip/xc8/v1.12/include/pic16lf707.h"
  1976                           IOCB equ 096h ;# 
  1977                           # 2519 "/Applications/microchip/xc8/v1.12/include/pic16lf707.h"
  1978                           T3CON equ 097h ;# 
  1979                           # 2585 "/Applications/microchip/xc8/v1.12/include/pic16lf707.h"
  1980                           TXSTA equ 098h ;# 
  1981                           # 2641 "/Applications/microchip/xc8/v1.12/include/pic16lf707.h"
  1982                           SPBRG equ 099h ;# 
  1983                           # 2647 "/Applications/microchip/xc8/v1.12/include/pic16lf707.h"
  1984                           TMR3 equ 09Ah ;# 
  1985                           # 2653 "/Applications/microchip/xc8/v1.12/include/pic16lf707.h"
  1986                           TMR3L equ 09Ah ;# 
  1987                           # 2659 "/Applications/microchip/xc8/v1.12/include/pic16lf707.h"
  1988                           TMR3H equ 09Bh ;# 
  1989                           # 2665 "/Applications/microchip/xc8/v1.12/include/pic16lf707.h"
  1990                           APFCON equ 09Ch ;# 
  1991                           # 2690 "/Applications/microchip/xc8/v1.12/include/pic16lf707.h"
  1992                           FVRCON equ 09Dh ;# 
  1993                           # 2755 "/Applications/microchip/xc8/v1.12/include/pic16lf707.h"
  1994                           T3GCON equ 09Eh ;# 
  1995                           # 2824 "/Applications/microchip/xc8/v1.12/include/pic16lf707.h"
  1996                           ADCON1 equ 09Fh ;# 
  1997                           # 2883 "/Applications/microchip/xc8/v1.12/include/pic16lf707.h"
  1998                           TACON equ 0105h ;# 
  1999                           # 2993 "/Applications/microchip/xc8/v1.12/include/pic16lf707.h"
  2000                           CPSBCON0 equ 0106h ;# 
  2001                           # 3052 "/Applications/microchip/xc8/v1.12/include/pic16lf707.h"
  2002                           CPSBCON1 equ 0107h ;# 
  2003                           # 3097 "/Applications/microchip/xc8/v1.12/include/pic16lf707.h"
  2004                           CPSACON0 equ 0108h ;# 
  2005                           # 3156 "/Applications/microchip/xc8/v1.12/include/pic16lf707.h"
  2006                           CPSACON1 equ 0109h ;# 
  2007                           # 3201 "/Applications/microchip/xc8/v1.12/include/pic16lf707.h"
  2008                           PMDATL equ 010Ch ;# 
  2009                           # 3207 "/Applications/microchip/xc8/v1.12/include/pic16lf707.h"
  2010                           PMADRL equ 010Dh ;# 
  2011                           # 3213 "/Applications/microchip/xc8/v1.12/include/pic16lf707.h"
  2012                           PMDATH equ 010Eh ;# 
  2013                           # 3219 "/Applications/microchip/xc8/v1.12/include/pic16lf707.h"
  2014                           PMADRH equ 010Fh ;# 
  2015                           # 3225 "/Applications/microchip/xc8/v1.12/include/pic16lf707.h"
  2016                           TMRA equ 0110h ;# 
  2017                           # 3231 "/Applications/microchip/xc8/v1.12/include/pic16lf707.h"
  2018                           TBCON equ 0111h ;# 
  2019                           # 3341 "/Applications/microchip/xc8/v1.12/include/pic16lf707.h"
  2020                           TMRB equ 0112h ;# 
  2021                           # 3347 "/Applications/microchip/xc8/v1.12/include/pic16lf707.h"
  2022                           DACCON0 equ 0113h ;# 
  2023                           # 3401 "/Applications/microchip/xc8/v1.12/include/pic16lf707.h"
  2024                           DACCON1 equ 0114h ;# 
  2025                           # 3452 "/Applications/microchip/xc8/v1.12/include/pic16lf707.h"
  2026                           ANSELA equ 0185h ;# 
  2027                           # 3521 "/Applications/microchip/xc8/v1.12/include/pic16lf707.h"
  2028                           ANSELB equ 0186h ;# 
  2029                           # 3590 "/Applications/microchip/xc8/v1.12/include/pic16lf707.h"
  2030                           ANSELC equ 0187h ;# 
  2031                           # 3648 "/Applications/microchip/xc8/v1.12/include/pic16lf707.h"
  2032                           ANSELD equ 0188h ;# 
  2033                           # 3717 "/Applications/microchip/xc8/v1.12/include/pic16lf707.h"
  2034                           ANSELE equ 0189h ;# 
  2035                           # 3756 "/Applications/microchip/xc8/v1.12/include/pic16lf707.h"
  2036                           PMCON1 equ 018Ch ;# 
  2037                           	FNCALL	_main,_spiInit
  2038                           	FNCALL	_main,_uartInit
  2039                           	FNCALL	_main,_adcInit
  2040                           	FNCALL	_main,_rfm70setPowerdownMode
  2041                           	FNCALL	_main,_printf
  2042                           	FNCALL	_main,_adcReadVcap
  2043                           	FNCALL	_main,_adcReadVsupercap
  2044                           	FNCALL	_main,___lbtoft
  2045                           	FNCALL	_main,___ftge
  2046                           	FNCALL	_main,_RFM70_Initialize
  2047                           	FNCALL	_main,___fttol
  2048                           	FNCALL	_main,_adcReadTemp
  2049                           	FNCALL	_main,_Send_Packet
  2050                           	FNCALL	_main,_sleep
  2051                           	FNCALL	_main,___wmul
  2052                           	FNCALL	_main,___awdiv
  2053                           	FNCALL	_rfm70setPowerdownMode,_SPI_Read_Reg
  2054                           	FNCALL	_rfm70setPowerdownMode,_SPI_Write_Reg
  2055                           	FNCALL	_RFM70_Initialize,_SwitchCFG
  2056                           	FNCALL	_RFM70_Initialize,_SPI_Write_Reg
  2057                           	FNCALL	_RFM70_Initialize,_SPI_Write_Buf
  2058                           	FNCALL	_RFM70_Initialize,_SPI_Read_Reg
  2059                           	FNCALL	_Send_Packet,_SwitchToTxMode
  2060                           	FNCALL	_Send_Packet,_SPI_Read_Reg
  2061                           	FNCALL	_Send_Packet,_printf
  2062                           	FNCALL	_Send_Packet,_SPI_Write_Buf
  2063                           	FNCALL	_Send_Packet,_rfm70TxDataSentInterrupt
  2064                           	FNCALL	_Send_Packet,_SwitchToRxMode
  2065                           	FNCALL	_Send_Packet,_rfm70TxDataSentErrorInterrupt
  2066                           	FNCALL	_printf,_putch
  2067                           	FNCALL	_printf,___lwdiv
  2068                           	FNCALL	_printf,___lwmod
  2069                           	FNCALL	_SwitchToTxMode,_SPI_Write_Reg
  2070                           	FNCALL	_SwitchToTxMode,_SPI_Read_Reg
  2071                           	FNCALL	_sleep,_adcReadVcap
  2072                           	FNCALL	_sleep,___fttol
  2073                           	FNCALL	_sleep,___ftge
  2074                           	FNCALL	_sleep,___ftmul
  2075                           	FNCALL	_sleep,___ftdiv
  2076                           	FNCALL	_SPI_Write_Buf,_SPI_RW
  2077                           	FNCALL	_rfm70TxDataSentInterrupt,_SPI_Read_Reg
  2078                           	FNCALL	_rfm70TxDataSentInterrupt,_SPI_Write_Reg
  2079                           	FNCALL	_SwitchToRxMode,_SPI_Write_Reg
  2080                           	FNCALL	_SwitchToRxMode,_SPI_Read_Reg
  2081                           	FNCALL	_rfm70TxDataSentErrorInterrupt,_SPI_Read_Reg
  2082                           	FNCALL	_rfm70TxDataSentErrorInterrupt,_SPI_Write_Reg
  2083                           	FNCALL	_SwitchCFG,_SPI_Read_Reg
  2084                           	FNCALL	_SwitchCFG,_SPI_Write_Reg
  2085                           	FNCALL	_SPI_Read_Reg,_SPI_RW
  2086                           	FNCALL	_SPI_Write_Reg,_SPI_RW
  2087                           	FNCALL	___ftmul,___ftpack
  2088                           	FNCALL	___ftdiv,___ftpack
  2089                           	FNCALL	___lbtoft,___ftpack
  2090                           	FNROOT	_main
  2091                           	FNCALL	_ISR,i1_printf
  2092                           	FNCALL	i1_printf,i1_putch
  2093                           	FNCALL	i1_printf,i1___lwdiv
  2094                           	FNCALL	i1_printf,i1___lwmod
  2095                           	FNCALL	intlevel1,_ISR
  2096                           	global	intlevel1
  2097                           	FNROOT	intlevel1
  2098                           	global	_tmr1Target
  2099                           	global	_charge_pulse_float
  2100                           	global	_tx_buf
  2101                           psect	idataBANK0,class=CODE,space=0,delta=2
  2102                           global __pidataBANK0
  2103                           __pidataBANK0:
  2104                           	file	"main.c"
  2105                           	line	100
  2106                           
  2107                           ;initializer for _dac_value
  2108                           	retlw	01Ah
  2109                           	retlw	0
  2110                           
  2111                           	line	86
  2112                           
  2113                           ;initializer for _tmr1Target
  2114                           	retlw	01h
  2115                           psect	idataBANK1,class=CODE,space=0,delta=2
  2116                           global __pidataBANK1
  2117                           __pidataBANK1:
  2118                           	line	98
  2119                           
  2120                           ;initializer for _charge_pulse_float
  2121                           	retlw	0x0
  2122                           	retlw	0x20
  2123                           	retlw	0x41
  2124                           
  2125                           	line	80
  2126                           
  2127                           ;initializer for _tx_buf
  2128                           	retlw	0
  2129                           	retlw	0
  2130                           	retlw	0
  2131                           	retlw	0
  2132                           	retlw	0
  2133                           	retlw	0AAh
  2134                           	retlw	0AAh
  2135                           	retlw	0AAh
  2136                           	retlw	0AAh
  2137                           	retlw	0
  2138                           	global	_Bank1_Reg0_13
  2139                           psect	stringtext,class=STRCODE,delta=2,reloc=256
  2140                           global __pstringtext
  2141                           __pstringtext:
  2142                           ;	global	stringtab,__stringbase
  2143                           stringtab:
  2144                           	global    __stringtab
  2145                           __stringtab:
  2146                           ;	String table - string pointers are 2 bytes each
  2147                           	btfsc	(btemp+1),7
  2148                           	ljmp	stringcode
  2149  0015                     __pmaintext:	;psect for function _main
  2150                           opt subtitle "HI-TECH Software Omniscient Code Generator (Lite mode) build 49521"
  2151                           
  2152                           opt pagewidth 120
  2153                           
  2154  03E7                     	__size_of_main	equ	__end_of_main-_main
  2155                           opt subtitle "HI-TECH Software Omniscient Code Generator (Lite mode) build 49521"
  2156  0015                     _main:	
  2157                           opt subtitle "HI-TECH Software Omniscient Code Generator (Lite mode) build 49521"
  2158                           
  2159                           opt pagewidth 120
  2160                           
  2161  0015                     l4253:	
  2162                           opt subtitle "HI-TECH Software Omniscient Code Generator (Lite mode) build 49521"
  2163  0015  3000               	movlw	0
  2164  0016  1683               	bsf	status, 5	;RP0=1, select bank3
  2165  0017  1703               	bsf	status, 6	;RP1=1, select bank3
  2166  0018  0093               	movwf	(main@i+3)^0180h
  2167  0019  3000               	movlw	0
  2168  001A  0092               	movwf	(main@i+2)^0180h
  2169  001B  3000               	movlw	0
  2170  001C  0091               	movwf	(main@i+1)^0180h
  2171  001D  3000               	movlw	0
  2172  001E  0090               	movwf	(main@i)^0180h
  2173                           opt subtitle "HI-TECH Software Omniscient Code Generator (Lite mode) build 49521"
  2174                           
  2175                           opt pagewidth 120
  2176  001F                     l4255:	
  2177                           opt subtitle "HI-TECH Software Omniscient Code Generator (Lite mode) build 49521"
  2178                           
  2179  001F  1683               	bsf	status, 5	;RP0=1, select bank1
  2180  0020  1303               	bcf	status, 6	;RP1=0, select bank1
  2181  0021  0810               	movf	(144)^080h,w	;volatile
  2182  0022  39CF               	andlw	not (((1<<2)-1)<<4)
  2183  0023  3820               	iorlw	(02h & ((1<<2)-1))<<4
  2184  0024  0090               	movwf	(144)^080h	;volatile
  2185                           opt subtitle "HI-TECH Software Omniscient Code Generator (Lite mode) build 49521"
  2186                           
  2187  0025                     l4257:	
  2188                           opt subtitle "HI-TECH Software Omniscient Code Generator (Lite mode) build 49521"
  2189  0025  1683               	bsf	status, 5	;RP0=1, select bank3
  2190  0026  1703               	bsf	status, 6	;RP1=1, select bank3
  2191  0027  1307               	bcf	(391)^0180h,6	;volatile
  2192                           opt subtitle "HI-TECH Software Omniscient Code Generator (Lite mode) build 49521"
  2193                           
  2194  0028                     l4259:	
  2195                           opt subtitle "HI-TECH Software Omniscient Code Generator (Lite mode) build 49521"
  2196  0028  1387               	bcf	(391)^0180h,7	;volatile
  2197                           opt subtitle "HI-TECH Software Omniscient Code Generator (Lite mode) build 49521"
  2198                           
  2199  0029                     l4261:	
  2200                           opt subtitle "HI-TECH Software Omniscient Code Generator (Lite mode) build 49521"
  2201  0029  1683               	bsf	status, 5	;RP0=1, select bank1
  2202  002A  1303               	bcf	status, 6	;RP1=0, select bank1
  2203  002B  1307               	bcf	(135)^080h,6	;volatile
  2204                           opt subtitle "HI-TECH Software Omniscient Code Generator (Lite mode) build 49521"
  2205                           
  2206  002C                     l4263:	
  2207                           opt subtitle "HI-TECH Software Omniscient Code Generator (Lite mode) build 49521"
  2208  002C  1683               	bsf	status, 5	;RP0=1, select bank3
  2209  002D  1703               	bsf	status, 6	;RP1=1, select bank3
  2210  002E  1107               	bcf	(391)^0180h,2	;volatile
  2211                           opt subtitle "HI-TECH Software Omniscient Code Generator (Lite mode) build 49521"
  2212                           
  2213  002F                     l4265:	
  2214                           opt subtitle "HI-TECH Software Omniscient Code Generator (Lite mode) build 49521"
  2215  002F  1108               	bcf	(392)^0180h,2	;volatile
  2216                           opt subtitle "HI-TECH Software Omniscient Code Generator (Lite mode) build 49521"
  2217                           
  2218  0030                     l4267:	
  2219                           opt subtitle "HI-TECH Software Omniscient Code Generator (Lite mode) build 49521"
  2220  0030  1287               	bcf	(391)^0180h,5	;volatile
  2221                           opt subtitle "HI-TECH Software Omniscient Code Generator (Lite mode) build 49521"
  2222                           
  2223  0031                     l4269:	
  2224                           opt subtitle "HI-TECH Software Omniscient Code Generator (Lite mode) build 49521"
  2225  0031  1088               	bcf	(392)^0180h,1	;volatile
  2226                           opt subtitle "HI-TECH Software Omniscient Code Generator (Lite mode) build 49521"
  2227                           
  2228  0032                     l4271:	
  2229                           opt subtitle "HI-TECH Software Omniscient Code Generator (Lite mode) build 49521"
  2230  0032  1683               	bsf	status, 5	;RP0=1, select bank1
  2231  0033  1303               	bcf	status, 6	;RP1=0, select bank1
  2232  0034  1509               	bsf	(137)^080h,2	;volatile
  2233                           opt subtitle "HI-TECH Software Omniscient Code Generator (Lite mode) build 49521"
  2234                           
  2235  0035                     l4273:	
  2236                           opt subtitle "HI-TECH Software Omniscient Code Generator (Lite mode) build 49521"
  2237  0035  1683               	bsf	status, 5	;RP0=1, select bank3
  2238  0036  1703               	bsf	status, 6	;RP1=1, select bank3
  2239  0037  1509               	bsf	(393)^0180h,2	;volatile
  2240                           opt subtitle "HI-TECH Software Omniscient Code Generator (Lite mode) build 49521"
  2241                           
  2242  0038                     l4275:	
  2243                           opt subtitle "HI-TECH Software Omniscient Code Generator (Lite mode) build 49521"
  2244  0038  1683               	bsf	status, 5	;RP0=1, select bank1
  2245  0039  1303               	bcf	status, 6	;RP1=0, select bank1
  2246  003A  1208               	bcf	(136)^080h,4	;volatile
  2247                           opt subtitle "HI-TECH Software Omniscient Code Generator (Lite mode) build 49521"
  2248                           
  2249  003B                     l4277:	
  2250                           opt subtitle "HI-TECH Software Omniscient Code Generator (Lite mode) build 49521"
  2251  003B  1683               	bsf	status, 5	;RP0=1, select bank3
  2252  003C  1703               	bsf	status, 6	;RP1=1, select bank3
  2253  003D  1208               	bcf	(392)^0180h,4	;volatile
  2254                           opt subtitle "HI-TECH Software Omniscient Code Generator (Lite mode) build 49521"
  2255                           
  2256  003E                     l4279:	
  2257                           opt subtitle "HI-TECH Software Omniscient Code Generator (Lite mode) build 49521"
  2258  003E  1283               	bcf	status, 5	;RP0=0, select bank0
  2259  003F  1303               	bcf	status, 6	;RP1=0, select bank0
  2260  0040  1208               	bcf	(8),4	;volatile
  2261                           opt subtitle "HI-TECH Software Omniscient Code Generator (Lite mode) build 49521"
  2262                           
  2263  0041                     l4281:	
  2264                           opt subtitle "HI-TECH Software Omniscient Code Generator (Lite mode) build 49521"
  2265  0041  1683               	bsf	status, 5	;RP0=1, select bank1
  2266  0042  1303               	bcf	status, 6	;RP1=0, select bank1
  2267  0043  1105               	bcf	(133)^080h,2	;volatile
  2268                           opt subtitle "HI-TECH Software Omniscient Code Generator (Lite mode) build 49521"
  2269                           
  2270  0044                     l4283:	
  2271                           opt subtitle "HI-TECH Software Omniscient Code Generator (Lite mode) build 49521"
  2272  0044  1683               	bsf	status, 5	;RP0=1, select bank3
  2273  0045  1703               	bsf	status, 6	;RP1=1, select bank3
  2274  0046  1105               	bcf	(389)^0180h,2	;volatile
  2275                           opt subtitle "HI-TECH Software Omniscient Code Generator (Lite mode) build 49521"
  2276                           
  2277  0047                     l4285:	
  2278                           opt subtitle "HI-TECH Software Omniscient Code Generator (Lite mode) build 49521"
  2279  0047  1283               	bcf	status, 5	;RP0=0, select bank0
  2280  0048  1303               	bcf	status, 6	;RP1=0, select bank0
  2281  0049  1505               	bsf	(5),2	;volatile
  2282                           opt subtitle "HI-TECH Software Omniscient Code Generator (Lite mode) build 49521"
  2283                           
  2284  004A                     l4287:	
  2285                           opt subtitle "HI-TECH Software Omniscient Code Generator (Lite mode) build 49521"
  2286  004A  1683               	bsf	status, 5	;RP0=1, select bank1
  2287  004B  1303               	bcf	status, 6	;RP1=0, select bank1
  2288  004C  1107               	bcf	(135)^080h,2	;volatile
  2289                           opt subtitle "HI-TECH Software Omniscient Code Generator (Lite mode) build 49521"
  2290                           
  2291  004D                     l4289:	
  2292                           opt subtitle "HI-TECH Software Omniscient Code Generator (Lite mode) build 49521"
  2293  004D  1108               	bcf	(136)^080h,2	;volatile
  2294                           opt subtitle "HI-TECH Software Omniscient Code Generator (Lite mode) build 49521"
  2295                           
  2296  004E                     l4291:	
  2297                           opt subtitle "HI-TECH Software Omniscient Code Generator (Lite mode) build 49521"
  2298  004E  1187               	bcf	(135)^080h,3	;volatile
  2299                           opt subtitle "HI-TECH Software Omniscient Code Generator (Lite mode) build 49521"
  2300                           
  2301  004F                     l4293:	
  2302                           opt subtitle "HI-TECH Software Omniscient Code Generator (Lite mode) build 49521"
  2303  004F  1287               	bcf	(135)^080h,5	;volatile
  2304                           opt subtitle "HI-TECH Software Omniscient Code Generator (Lite mode) build 49521"
  2305                           
  2306  0050                     l4295:	
  2307                           opt subtitle "HI-TECH Software Omniscient Code Generator (Lite mode) build 49521"
  2308  0050  1607               	bsf	(135)^080h,4	;volatile
  2309                           opt subtitle "HI-TECH Software Omniscient Code Generator (Lite mode) build 49521"
  2310                           
  2311  0051                     l4297:	
  2312                           opt subtitle "HI-TECH Software Omniscient Code Generator (Lite mode) build 49521"
  2313  0051  1488               	bsf	(136)^080h,1	;volatile
  2314                           opt subtitle "HI-TECH Software Omniscient Code Generator (Lite mode) build 49521"
  2315                           
  2316  0052                     l4299:	
  2317                           opt subtitle "HI-TECH Software Omniscient Code Generator (Lite mode) build 49521"
  2318  0052  1283               	bcf	status, 5	;RP0=0, select bank0
  2319  0053  1303               	bcf	status, 6	;RP1=0, select bank0
  2320  0054  1107               	bcf	(7),2	;volatile
  2321                           opt subtitle "HI-TECH Software Omniscient Code Generator (Lite mode) build 49521"
  2322                           
  2323  0055                     l4301:	
  2324                           opt subtitle "HI-TECH Software Omniscient Code Generator (Lite mode) build 49521"
  2325  0055  1508               	bsf	(8),2	;volatile
  2326                           opt subtitle "HI-TECH Software Omniscient Code Generator (Lite mode) build 49521"
  2327                           
  2328  0056                     l4303:	
  2329                           opt subtitle "HI-TECH Software Omniscient Code Generator (Lite mode) build 49521"
  2330  0056  1187               	bcf	(7),3	;volatile
  2331                           opt subtitle "HI-TECH Software Omniscient Code Generator (Lite mode) build 49521"
  2332                           
  2333  0057                     l4305:	
  2334                           opt subtitle "HI-TECH Software Omniscient Code Generator (Lite mode) build 49521"
  2335  0057  1287               	bcf	(7),5	;volatile
  2336                           opt subtitle "HI-TECH Software Omniscient Code Generator (Lite mode) build 49521"
  2337                           
  2338  0058                     l4307:	
  2339                           opt subtitle "HI-TECH Software Omniscient Code Generator (Lite mode) build 49521"
  2340  0058  1683               	bsf	status, 5	;RP0=1, select bank1
  2341  0059  1303               	bcf	status, 6	;RP1=0, select bank1
  2342  005A  1008               	bcf	(136)^080h,0	;volatile
  2343                           opt subtitle "HI-TECH Software Omniscient Code Generator (Lite mode) build 49521"
  2344                           
  2345  005B                     l4309:	
  2346                           opt subtitle "HI-TECH Software Omniscient Code Generator (Lite mode) build 49521"
  2347  005B  1683               	bsf	status, 5	;RP0=1, select bank3
  2348  005C  1703               	bsf	status, 6	;RP1=1, select bank3
  2349  005D  1008               	bcf	(392)^0180h,0	;volatile
  2350                           opt subtitle "HI-TECH Software Omniscient Code Generator (Lite mode) build 49521"
  2351                           
  2352  005E                     l4311:	
  2353                           opt subtitle "HI-TECH Software Omniscient Code Generator (Lite mode) build 49521"
  2354  005E  1683               	bsf	status, 5	;RP0=1, select bank1
  2355  005F  1303               	bcf	status, 6	;RP1=0, select bank1
  2356  0060  1509               	bsf	(137)^080h,2	;volatile
  2357                           opt subtitle "HI-TECH Software Omniscient Code Generator (Lite mode) build 49521"
  2358                           
  2359  0061                     l4313:	
  2360                           opt subtitle "HI-TECH Software Omniscient Code Generator (Lite mode) build 49521"
  2361  0061  1683               	bsf	status, 5	;RP0=1, select bank3
  2362  0062  1703               	bsf	status, 6	;RP1=1, select bank3
  2363  0063  1509               	bsf	(393)^0180h,2	;volatile
  2364                           opt subtitle "HI-TECH Software Omniscient Code Generator (Lite mode) build 49521"
  2365                           
  2366  0064                     l4315:	
  2367                           opt subtitle "HI-TECH Software Omniscient Code Generator (Lite mode) build 49521"
  2368  0064  1683               	bsf	status, 5	;RP0=1, select bank1
  2369  0065  1303               	bcf	status, 6	;RP1=0, select bank1
  2370  0066  1409               	bsf	(137)^080h,0	;volatile
  2371                           opt subtitle "HI-TECH Software Omniscient Code Generator (Lite mode) build 49521"
  2372                           
  2373  0067                     l4317:	
  2374                           opt subtitle "HI-TECH Software Omniscient Code Generator (Lite mode) build 49521"
  2375  0067  1683               	bsf	status, 5	;RP0=1, select bank3
  2376  0068  1703               	bsf	status, 6	;RP1=1, select bank3
  2377  0069  1009               	bcf	(393)^0180h,0	;volatile
  2378                           opt subtitle "HI-TECH Software Omniscient Code Generator (Lite mode) build 49521"
  2379                           
  2380  006A                     l4319:	
  2381                           opt subtitle "HI-TECH Software Omniscient Code Generator (Lite mode) build 49521"
  2382  006A  1283               	bcf	status, 5	;RP0=0, select bank0
  2383  006B  1303               	bcf	status, 6	;RP1=0, select bank0
  2384  006C  1008               	bcf	(8),0	;volatile
  2385                           opt subtitle "HI-TECH Software Omniscient Code Generator (Lite mode) build 49521"
  2386                           
  2387  006D                     l4321:	
  2388                           opt subtitle "HI-TECH Software Omniscient Code Generator (Lite mode) build 49521"
  2389  006D  1683               	bsf	status, 5	;RP0=1, select bank1
  2390  006E  1303               	bcf	status, 6	;RP1=0, select bank1
  2391  006F  1409               	bsf	(137)^080h,0	;volatile
  2392                           opt subtitle "HI-TECH Software Omniscient Code Generator (Lite mode) build 49521"
  2393                           
  2394  0070                     l4323:	
  2395                           opt subtitle "HI-TECH Software Omniscient Code Generator (Lite mode) build 49521"
  2396  0070  1683               	bsf	status, 5	;RP0=1, select bank3
  2397  0071  1703               	bsf	status, 6	;RP1=1, select bank3
  2398  0072  1409               	bsf	(393)^0180h,0	;volatile
  2399                           opt subtitle "HI-TECH Software Omniscient Code Generator (Lite mode) build 49521"
  2400                           
  2401  0073                     l4325:	
  2402                           opt subtitle "HI-TECH Software Omniscient Code Generator (Lite mode) build 49521"
  2403  0073  1683               	bsf	status, 5	;RP0=1, select bank1
  2404  0074  1303               	bcf	status, 6	;RP1=0, select bank1
  2405  0075  1188               	bcf	(136)^080h,3	;volatile
  2406                           opt subtitle "HI-TECH Software Omniscient Code Generator (Lite mode) build 49521"
  2407                           
  2408  0076                     l4327:	
  2409                           opt subtitle "HI-TECH Software Omniscient Code Generator (Lite mode) build 49521"
  2410  0076  1283               	bcf	status, 5	;RP0=0, select bank0
  2411  0077  1303               	bcf	status, 6	;RP1=0, select bank0
  2412  0078  1188               	bcf	(8),3	;volatile
  2413                           opt subtitle "HI-TECH Software Omniscient Code Generator (Lite mode) build 49521"
  2414                           
  2415  0079                     l4329:	
  2416                           opt subtitle "HI-TECH Software Omniscient Code Generator (Lite mode) build 49521"
  2417  0079  1683               	bsf	status, 5	;RP0=1, select bank1
  2418  007A  1303               	bcf	status, 6	;RP1=0, select bank1
  2419  007B  1688               	bsf	(136)^080h,5	;volatile
  2420                           opt subtitle "HI-TECH Software Omniscient Code Generator (Lite mode) build 49521"
  2421                           
  2422  007C                     l4331:	
  2423                           opt subtitle "HI-TECH Software Omniscient Code Generator (Lite mode) build 49521"
  2424  007C  1683               	bsf	status, 5	;RP0=1, select bank3
  2425  007D  1703               	bsf	status, 6	;RP1=1, select bank3
  2426  007E  1288               	bcf	(392)^0180h,5	;volatile
  2427                           opt subtitle "HI-TECH Software Omniscient Code Generator (Lite mode) build 49521"
  2428                           
  2429  007F                     l4333:	
  2430                           opt subtitle "HI-TECH Software Omniscient Code Generator (Lite mode) build 49521"
  2431  007F  1683               	bsf	status, 5	;RP0=1, select bank1
  2432  0080  1303               	bcf	status, 6	;RP1=0, select bank1
  2433  0081  1708               	bsf	(136)^080h,6	;volatile
  2434                           opt subtitle "HI-TECH Software Omniscient Code Generator (Lite mode) build 49521"
  2435                           
  2436  0082                     l4335:	
  2437                           opt subtitle "HI-TECH Software Omniscient Code Generator (Lite mode) build 49521"
  2438  0082  1788               	bsf	(136)^080h,7	;volatile
  2439                           opt subtitle "HI-TECH Software Omniscient Code Generator (Lite mode) build 49521"
  2440                           
  2441  0083                     l4337:	
  2442                           opt subtitle "HI-TECH Software Omniscient Code Generator (Lite mode) build 49521"
  2443  0083  1683               	bsf	status, 5	;RP0=1, select bank3
  2444  0084  1703               	bsf	status, 6	;RP1=1, select bank3
  2445  0085  1308               	bcf	(392)^0180h,6	;volatile
  2446                           opt subtitle "HI-TECH Software Omniscient Code Generator (Lite mode) build 49521"
  2447                           
  2448  0086                     l4339:	
  2449                           opt subtitle "HI-TECH Software Omniscient Code Generator (Lite mode) build 49521"
  2450  0086  1388               	bcf	(392)^0180h,7	;volatile
  2451                           opt subtitle "HI-TECH Software Omniscient Code Generator (Lite mode) build 49521"
  2452                           
  2453  0087                     l4341:	
  2454                           opt subtitle "HI-TECH Software Omniscient Code Generator (Lite mode) build 49521"
  2455  0087  178B               	bsf	(95/8),(95)&7	;volatile
  2456                           opt subtitle "HI-TECH Software Omniscient Code Generator (Lite mode) build 49521"
  2457                           
  2458  0088                     l4343:	
  2459                           opt subtitle "HI-TECH Software Omniscient Code Generator (Lite mode) build 49521"
  2460  0088  170B               	bsf	(94/8),(94)&7	;volatile
  2461                           opt subtitle "HI-TECH Software Omniscient Code Generator (Lite mode) build 49521"
  2462                           
  2463  0089                     l4345:	
  2464                           opt subtitle "HI-TECH Software Omniscient Code Generator (Lite mode) build 49521"
  2465  0089  1683               	bsf	status, 5	;RP0=1, select bank1
  2466  008A  1303               	bcf	status, 6	;RP1=0, select bank1
  2467  008B  140C               	bsf	(1120/8)^080h,(1120)&7	;volatile
  2468                           opt subtitle "HI-TECH Software Omniscient Code Generator (Lite mode) build 49521"
  2469                           
  2470  008C                     l4347:	
  2471                           opt subtitle "HI-TECH Software Omniscient Code Generator (Lite mode) build 49521"
  2472  008C  3010               	movlw	(010h)
  2473  008D  1283               	bcf	status, 5	;RP0=0, select bank0
  2474  008E  1303               	bcf	status, 6	;RP1=0, select bank0
  2475  008F  008F               	movwf	(15)	;volatile
  2476                           opt subtitle "HI-TECH Software Omniscient Code Generator (Lite mode) build 49521"
  2477                           
  2478  0090                     l4349:	
  2479                           opt subtitle "HI-TECH Software Omniscient Code Generator (Lite mode) build 49521"
  2480  0090  018E               	clrf	(14)	;volatile
  2481                           opt subtitle "HI-TECH Software Omniscient Code Generator (Lite mode) build 49521"
  2482                           
  2483  0091                     l4351:	
  2484                           opt subtitle "HI-TECH Software Omniscient Code Generator (Lite mode) build 49521"
  2485  0091  0810               	movf	(16),w	;volatile
  2486  0092  393F               	andlw	not (((1<<2)-1)<<6)
  2487  0093  3880               	iorlw	(02h & ((1<<2)-1))<<6
  2488  0094  0090               	movwf	(16)	;volatile
  2489                           opt subtitle "HI-TECH Software Omniscient Code Generator (Lite mode) build 49521"
  2490                           
  2491  0095                     l4353:	
  2492                           opt subtitle "HI-TECH Software Omniscient Code Generator (Lite mode) build 49521"
  2493  0095  3030               	movlw	(03h & ((1<<2)-1))<<4
  2494  0096  0490               	iorwf	(16),f	;volatile
  2495                           opt subtitle "HI-TECH Software Omniscient Code Generator (Lite mode) build 49521"
  2496                           
  2497  0097                     l4355:	
  2498                           opt subtitle "HI-TECH Software Omniscient Code Generator (Lite mode) build 49521"
  2499  0097  1683               	bsf	status, 5	;RP0=1, select bank1
  2500  0098  1303               	bcf	status, 6	;RP1=0, select bank1
  2501  0099  178F               	bsf	(143)^080h,7	;volatile
  2502                           opt subtitle "HI-TECH Software Omniscient Code Generator (Lite mode) build 49521"
  2503                           
  2504  009A                     l4357:	
  2505                           opt subtitle "HI-TECH Software Omniscient Code Generator (Lite mode) build 49521"
  2506  009A  1283               	bcf	status, 5	;RP0=0, select bank0
  2507  009B  1303               	bcf	status, 6	;RP1=0, select bank0
  2508  009C  1510               	bsf	(16),2	;volatile
  2509                           opt subtitle "HI-TECH Software Omniscient Code Generator (Lite mode) build 49521"
  2510                           
  2511  009D                     l4359:	
  2512                           opt subtitle "HI-TECH Software Omniscient Code Generator (Lite mode) build 49521"
  2513  009D  1590               	bsf	(16),3	;volatile
  2514                           opt subtitle "HI-TECH Software Omniscient Code Generator (Lite mode) build 49521"
  2515                           
  2516  009E                     l4361:	
  2517                           opt subtitle "HI-TECH Software Omniscient Code Generator (Lite mode) build 49521"
  2518  009E  1410               	bsf	(16),0	;volatile
  2519                           opt subtitle "HI-TECH Software Omniscient Code Generator (Lite mode) build 49521"
  2520                           
  2521  009F                     l4363:	
  2522                           opt subtitle "HI-TECH Software Omniscient Code Generator (Lite mode) build 49521"
  2523  009F  1683               	bsf	status, 5	;RP0=1, select bank1
  2524  00A0  1303               	bcf	status, 6	;RP1=0, select bank1
  2525  00A1  1406               	bsf	(134)^080h,0	;volatile
  2526                           opt subtitle "HI-TECH Software Omniscient Code Generator (Lite mode) build 49521"
  2527                           
  2528  00A2                     l4365:	
  2529                           opt subtitle "HI-TECH Software Omniscient Code Generator (Lite mode) build 49521"
  2530  00A2  1683               	bsf	status, 5	;RP0=1, select bank3
  2531  00A3  1703               	bsf	status, 6	;RP1=1, select bank3
  2532  00A4  1006               	bcf	(390)^0180h,0	;volatile
  2533                           opt subtitle "HI-TECH Software Omniscient Code Generator (Lite mode) build 49521"
  2534                           
  2535  00A5                     l4367:	
  2536                           opt subtitle "HI-TECH Software Omniscient Code Generator (Lite mode) build 49521"
  2537  00A5  1683               	bsf	status, 5	;RP0=1, select bank1
  2538  00A6  1303               	bcf	status, 6	;RP1=0, select bank1
  2539  00A7  1005               	bcf	(133)^080h,0	;volatile
  2540                           opt subtitle "HI-TECH Software Omniscient Code Generator (Lite mode) build 49521"
  2541                           
  2542  00A8                     l4369:	
  2543                           opt subtitle "HI-TECH Software Omniscient Code Generator (Lite mode) build 49521"
  2544  00A8  1085               	bcf	(133)^080h,1	;volatile
  2545                           opt subtitle "HI-TECH Software Omniscient Code Generator (Lite mode) build 49521"
  2546                           
  2547  00A9                     l4371:	
  2548                           opt subtitle "HI-TECH Software Omniscient Code Generator (Lite mode) build 49521"
  2549  00A9  1185               	bcf	(133)^080h,3	;volatile
  2550                           opt subtitle "HI-TECH Software Omniscient Code Generator (Lite mode) build 49521"
  2551                           
  2552  00AA                     l4373:	
  2553                           opt subtitle "HI-TECH Software Omniscient Code Generator (Lite mode) build 49521"
  2554  00AA  1205               	bcf	(133)^080h,4	;volatile
  2555                           opt subtitle "HI-TECH Software Omniscient Code Generator (Lite mode) build 49521"
  2556                           
  2557  00AB                     l4375:	
  2558                           opt subtitle "HI-TECH Software Omniscient Code Generator (Lite mode) build 49521"
  2559  00AB  1285               	bcf	(133)^080h,5	;volatile
  2560                           opt subtitle "HI-TECH Software Omniscient Code Generator (Lite mode) build 49521"
  2561                           
  2562  00AC                     l4377:	
  2563                           opt subtitle "HI-TECH Software Omniscient Code Generator (Lite mode) build 49521"
  2564  00AC  1305               	bcf	(133)^080h,6	;volatile
  2565                           opt subtitle "HI-TECH Software Omniscient Code Generator (Lite mode) build 49521"
  2566                           
  2567  00AD                     l4379:	
  2568                           opt subtitle "HI-TECH Software Omniscient Code Generator (Lite mode) build 49521"
  2569  00AD  1385               	bcf	(133)^080h,7	;volatile
  2570                           opt subtitle "HI-TECH Software Omniscient Code Generator (Lite mode) build 49521"
  2571                           
  2572  00AE                     l4381:	
  2573                           opt subtitle "HI-TECH Software Omniscient Code Generator (Lite mode) build 49521"
  2574  00AE  1683               	bsf	status, 5	;RP0=1, select bank3
  2575  00AF  1703               	bsf	status, 6	;RP1=1, select bank3
  2576  00B0  1005               	bcf	(389)^0180h,0	;volatile
  2577                           opt subtitle "HI-TECH Software Omniscient Code Generator (Lite mode) build 49521"
  2578                           
  2579  00B1                     l4383:	
  2580                           opt subtitle "HI-TECH Software Omniscient Code Generator (Lite mode) build 49521"
  2581  00B1  1085               	bcf	(389)^0180h,1	;volatile
  2582                           opt subtitle "HI-TECH Software Omniscient Code Generator (Lite mode) build 49521"
  2583                           
  2584  00B2                     l4385:	
  2585                           opt subtitle "HI-TECH Software Omniscient Code Generator (Lite mode) build 49521"
  2586  00B2  1185               	bcf	(389)^0180h,3	;volatile
  2587                           opt subtitle "HI-TECH Software Omniscient Code Generator (Lite mode) build 49521"
  2588                           
  2589  00B3                     l4387:	
  2590                           opt subtitle "HI-TECH Software Omniscient Code Generator (Lite mode) build 49521"
  2591  00B3  1205               	bcf	(389)^0180h,4	;volatile
  2592                           opt subtitle "HI-TECH Software Omniscient Code Generator (Lite mode) build 49521"
  2593                           
  2594  00B4                     l4389:	
  2595                           opt subtitle "HI-TECH Software Omniscient Code Generator (Lite mode) build 49521"
  2596  00B4  1285               	bcf	(389)^0180h,5	;volatile
  2597                           opt subtitle "HI-TECH Software Omniscient Code Generator (Lite mode) build 49521"
  2598                           
  2599  00B5                     l4391:	
  2600                           opt subtitle "HI-TECH Software Omniscient Code Generator (Lite mode) build 49521"
  2601  00B5  1305               	bcf	(389)^0180h,6	;volatile
  2602                           opt subtitle "HI-TECH Software Omniscient Code Generator (Lite mode) build 49521"
  2603                           
  2604  00B6                     l4393:	
  2605                           opt subtitle "HI-TECH Software Omniscient Code Generator (Lite mode) build 49521"
  2606  00B6  1385               	bcf	(389)^0180h,7	;volatile
  2607                           opt subtitle "HI-TECH Software Omniscient Code Generator (Lite mode) build 49521"
  2608                           
  2609  00B7                     l4395:	
  2610                           opt subtitle "HI-TECH Software Omniscient Code Generator (Lite mode) build 49521"
  2611  00B7  1283               	bcf	status, 5	;RP0=0, select bank0
  2612  00B8  1303               	bcf	status, 6	;RP1=0, select bank0
  2613  00B9  1005               	bcf	(5),0	;volatile
  2614                           opt subtitle "HI-TECH Software Omniscient Code Generator (Lite mode) build 49521"
  2615                           
  2616  00BA                     l4397:	
  2617                           opt subtitle "HI-TECH Software Omniscient Code Generator (Lite mode) build 49521"
  2618  00BA  1085               	bcf	(5),1	;volatile
  2619                           opt subtitle "HI-TECH Software Omniscient Code Generator (Lite mode) build 49521"
  2620                           
  2621  00BB                     l4399:	
  2622                           opt subtitle "HI-TECH Software Omniscient Code Generator (Lite mode) build 49521"
  2623  00BB  1185               	bcf	(5),3	;volatile
  2624                           opt subtitle "HI-TECH Software Omniscient Code Generator (Lite mode) build 49521"
  2625                           
  2626  00BC                     l4401:	
  2627                           opt subtitle "HI-TECH Software Omniscient Code Generator (Lite mode) build 49521"
  2628  00BC  1205               	bcf	(5),4	;volatile
  2629                           opt subtitle "HI-TECH Software Omniscient Code Generator (Lite mode) build 49521"
  2630                           
  2631  00BD                     l4403:	
  2632                           opt subtitle "HI-TECH Software Omniscient Code Generator (Lite mode) build 49521"
  2633  00BD  1285               	bcf	(5),5	;volatile
  2634                           opt subtitle "HI-TECH Software Omniscient Code Generator (Lite mode) build 49521"
  2635                           
  2636  00BE                     l4405:	
  2637                           opt subtitle "HI-TECH Software Omniscient Code Generator (Lite mode) build 49521"
  2638  00BE  1305               	bcf	(5),6	;volatile
  2639                           opt subtitle "HI-TECH Software Omniscient Code Generator (Lite mode) build 49521"
  2640                           
  2641  00BF                     l4407:	
  2642                           opt subtitle "HI-TECH Software Omniscient Code Generator (Lite mode) build 49521"
  2643  00BF  1385               	bcf	(5),7	;volatile
  2644                           opt subtitle "HI-TECH Software Omniscient Code Generator (Lite mode) build 49521"
  2645                           
  2646  00C0                     l4409:	
  2647                           opt subtitle "HI-TECH Software Omniscient Code Generator (Lite mode) build 49521"
  2648  00C0  1683               	bsf	status, 5	;RP0=1, select bank1
  2649  00C1  1303               	bcf	status, 6	;RP1=0, select bank1
  2650  00C2  1086               	bcf	(134)^080h,1	;volatile
  2651                           opt subtitle "HI-TECH Software Omniscient Code Generator (Lite mode) build 49521"
  2652                           
  2653  00C3                     l4411:	
  2654                           opt subtitle "HI-TECH Software Omniscient Code Generator (Lite mode) build 49521"
  2655  00C3  1106               	bcf	(134)^080h,2	;volatile
  2656                           opt subtitle "HI-TECH Software Omniscient Code Generator (Lite mode) build 49521"
  2657                           
  2658  00C4                     l4413:	
  2659                           opt subtitle "HI-TECH Software Omniscient Code Generator (Lite mode) build 49521"
  2660  00C4  1186               	bcf	(134)^080h,3	;volatile
  2661                           opt subtitle "HI-TECH Software Omniscient Code Generator (Lite mode) build 49521"
  2662                           
  2663  00C5                     l4415:	
  2664                           opt subtitle "HI-TECH Software Omniscient Code Generator (Lite mode) build 49521"
  2665  00C5  1206               	bcf	(134)^080h,4	;volatile
  2666                           opt subtitle "HI-TECH Software Omniscient Code Generator (Lite mode) build 49521"
  2667                           
  2668  00C6                     l4417:	
  2669                           opt subtitle "HI-TECH Software Omniscient Code Generator (Lite mode) build 49521"
  2670  00C6  1286               	bcf	(134)^080h,5	;volatile
  2671                           opt subtitle "HI-TECH Software Omniscient Code Generator (Lite mode) build 49521"
  2672                           
  2673  00C7                     l4419:	
  2674                           opt subtitle "HI-TECH Software Omniscient Code Generator (Lite mode) build 49521"
  2675  00C7  1683               	bsf	status, 5	;RP0=1, select bank3
  2676  00C8  1703               	bsf	status, 6	;RP1=1, select bank3
  2677  00C9  1086               	bcf	(390)^0180h,1	;volatile
  2678                           opt subtitle "HI-TECH Software Omniscient Code Generator (Lite mode) build 49521"
  2679                           
  2680  00CA                     l4421:	
  2681                           opt subtitle "HI-TECH Software Omniscient Code Generator (Lite mode) build 49521"
  2682  00CA  1106               	bcf	(390)^0180h,2	;volatile
  2683                           opt subtitle "HI-TECH Software Omniscient Code Generator (Lite mode) build 49521"
  2684                           
  2685  00CB                     l4423:	
  2686                           opt subtitle "HI-TECH Software Omniscient Code Generator (Lite mode) build 49521"
  2687  00CB  1186               	bcf	(390)^0180h,3	;volatile
  2688                           opt subtitle "HI-TECH Software Omniscient Code Generator (Lite mode) build 49521"
  2689                           
  2690  00CC                     l4425:	
  2691                           opt subtitle "HI-TECH Software Omniscient Code Generator (Lite mode) build 49521"
  2692  00CC  1206               	bcf	(390)^0180h,4	;volatile
  2693                           opt subtitle "HI-TECH Software Omniscient Code Generator (Lite mode) build 49521"
  2694                           
  2695  00CD                     l4427:	
  2696                           opt subtitle "HI-TECH Software Omniscient Code Generator (Lite mode) build 49521"
  2697  00CD  1286               	bcf	(390)^0180h,5	;volatile
  2698                           opt subtitle "HI-TECH Software Omniscient Code Generator (Lite mode) build 49521"
  2699                           
  2700  00CE                     l4429:	
  2701                           opt subtitle "HI-TECH Software Omniscient Code Generator (Lite mode) build 49521"
  2702  00CE  1283               	bcf	status, 5	;RP0=0, select bank0
  2703  00CF  1303               	bcf	status, 6	;RP1=0, select bank0
  2704  00D0  1086               	bcf	(6),1	;volatile
  2705                           opt subtitle "HI-TECH Software Omniscient Code Generator (Lite mode) build 49521"
  2706                           
  2707  00D1                     l4431:	
  2708                           opt subtitle "HI-TECH Software Omniscient Code Generator (Lite mode) build 49521"
  2709  00D1  1106               	bcf	(6),2	;volatile
  2710                           opt subtitle "HI-TECH Software Omniscient Code Generator (Lite mode) build 49521"
  2711                           
  2712  00D2                     l4433:	
  2713                           opt subtitle "HI-TECH Software Omniscient Code Generator (Lite mode) build 49521"
  2714  00D2  1186               	bcf	(6),3	;volatile
  2715                           opt subtitle "HI-TECH Software Omniscient Code Generator (Lite mode) build 49521"
  2716                           
  2717  00D3                     l4435:	
  2718                           opt subtitle "HI-TECH Software Omniscient Code Generator (Lite mode) build 49521"
  2719  00D3  1606               	bsf	(6),4	;volatile
  2720                           opt subtitle "HI-TECH Software Omniscient Code Generator (Lite mode) build 49521"
  2721                           
  2722  00D4                     l4437:	
  2723                           opt subtitle "HI-TECH Software Omniscient Code Generator (Lite mode) build 49521"
  2724  00D4  1286               	bcf	(6),5	;volatile
  2725                           opt subtitle "HI-TECH Software Omniscient Code Generator (Lite mode) build 49521"
  2726                           
  2727  00D5                     l4439:	
  2728                           opt subtitle "HI-TECH Software Omniscient Code Generator (Lite mode) build 49521"
  2729  00D5  1683               	bsf	status, 5	;RP0=1, select bank1
  2730  00D6  1303               	bcf	status, 6	;RP1=0, select bank1
  2731  00D7  1489               	bsf	(137)^080h,1	;volatile
  2732                           opt subtitle "HI-TECH Software Omniscient Code Generator (Lite mode) build 49521"
  2733                           
  2734  00D8                     l4441:	
  2735                           opt subtitle "HI-TECH Software Omniscient Code Generator (Lite mode) build 49521"
  2736  00D8  1683               	bsf	status, 5	;RP0=1, select bank3
  2737  00D9  1703               	bsf	status, 6	;RP1=1, select bank3
  2738  00DA  1489               	bsf	(393)^0180h,1	;volatile
  2739                           opt subtitle "HI-TECH Software Omniscient Code Generator (Lite mode) build 49521"
  2740                           
  2741  00DB                     l4443:	
  2742                           opt subtitle "HI-TECH Software Omniscient Code Generator (Lite mode) build 49521"
  2743  00DB  1283               	bcf	status, 5	;RP0=0, select bank0
  2744  00DC  1303               	bcf	status, 6	;RP1=0, select bank0
  2745  00DD  1089               	bcf	(9),1	;volatile
  2746                           opt subtitle "HI-TECH Software Omniscient Code Generator (Lite mode) build 49521"
  2747                           
  2748  00DE                     l4445:	
  2749                           opt subtitle "HI-TECH Software Omniscient Code Generator (Lite mode) build 49521"
  2750  00DE  160A  118A  227D   	fcall	_spiInit
              120A  118A         
  2751                           opt subtitle "HI-TECH Software Omniscient Code Generator (Lite mode) build 49521"
  2752                           
  2753  00E3                     l4447:	
  2754                           opt subtitle "HI-TECH Software Omniscient Code Generator (Lite mode) build 49521"
  2755  00E3  160A  118A  2267   	fcall	_uartInit
              120A  118A         
  2756                           opt subtitle "HI-TECH Software Omniscient Code Generator (Lite mode) build 49521"
  2757                           
  2758  00E8                     l4449:	
  2759                           opt subtitle "HI-TECH Software Omniscient Code Generator (Lite mode) build 49521"
  2760  00E8  160A  118A  220F   	fcall	_adcInit
              120A  118A         
  2761                           opt subtitle "HI-TECH Software Omniscient Code Generator (Lite mode) build 49521"
  2762                           
  2763  00ED                     l4451:	
  2764                           opt subtitle "HI-TECH Software Omniscient Code Generator (Lite mode) build 49521"
  2765  00ED  3000               	movlw	(0)
  2766  00EE  160A  118A  2326   	fcall	_rfm70setPowerdownMode
              120A  118A         
  2767                           opt subtitle "HI-TECH Software Omniscient Code Generator (Lite mode) build 49521"
  2768                           
  2769  00F3                     l4453:	
  2770                           opt subtitle "HI-TECH Software Omniscient Code Generator (Lite mode) build 49521"
  2771  00F3  1283               	bcf	status, 5	;RP0=0, select bank0
  2772  00F4  1303               	bcf	status, 6	;RP1=0, select bank0
  2773  00F5  0808               	movf	(8),w	;volatile
  2774  00F6  1683               	bsf	status, 5	;RP0=1, select bank1
  2775  00F7  1303               	bcf	status, 6	;RP1=0, select bank1
  2776  00F8  00DB               	movwf	(??_main+0)^080h+0
  2777  00F9  3006               	movlw	06h
  2778  00FA                     u4355:
  2779  00FA  1003               	clrc
  2780  00FB  0CDB               	rrf	(??_main+0)^080h+0,f
  2781  00FC  3EFF               	addlw	-1
  2782  00FD  1D03               	skipz
  2783  00FE  28FA               	goto	u4355
  2784  00FF  085B               	movf	0+(??_main+0)^080h+0,w
  2785  0100  3903               	andlw	03h
  2786  0101  00DC               	movwf	(??_main+1)^080h+0
  2787  0102  085C               	movf	(??_main+1)^080h+0,w
  2788  0103  1283               	bcf	status, 5	;RP0=0, select bank0
  2789  0104  1303               	bcf	status, 6	;RP1=0, select bank0
  2790  0105  00D5               	movwf	(_sleep_counter)
  2791                           opt subtitle "HI-TECH Software Omniscient Code Generator (Lite mode) build 49521"
  2792                           
  2793  0106                     l4455:	
  2794                           opt subtitle "HI-TECH Software Omniscient Code Generator (Lite mode) build 49521"
  2795  0106  3026               	movlw	low(STR_2|8000h)
  2796  0107  00C3               	movwf	(?_printf)
  2797  0108  3091               	movlw	high(STR_2|8000h)
  2798  0109  00C4               	movwf	((?_printf))+1
  2799  010A  0855               	movf	(_sleep_counter),w
  2800  010B  1683               	bsf	status, 5	;RP0=1, select bank1
  2801  010C  1303               	bcf	status, 6	;RP1=0, select bank1
  2802  010D  00DB               	movwf	(??_main+0)^080h+0+0
  2803  010E  01DC               	clrf	(??_main+0)^080h+0+1
  2804  010F  085B               	movf	0+(??_main+0)^080h+0,w
  2805  0110  1283               	bcf	status, 5	;RP0=0, select bank0
  2806  0111  1303               	bcf	status, 6	;RP1=0, select bank0
  2807  0112  00C5               	movwf	0+(?_printf)+02h
  2808  0113  1683               	bsf	status, 5	;RP0=1, select bank1
  2809  0114  1303               	bcf	status, 6	;RP1=0, select bank1
  2810  0115  085C               	movf	1+(??_main+0)^080h+0,w
  2811  0116  1283               	bcf	status, 5	;RP0=0, select bank0
  2812  0117  1303               	bcf	status, 6	;RP1=0, select bank0
  2813  0118  00C6               	movwf	1+(?_printf)+02h
  2814  0119  120A  158A  2600   	fcall	_printf
              120A  118A         
  2815                           opt subtitle "HI-TECH Software Omniscient Code Generator (Lite mode) build 49521"
  2816                           
  2817  011E  0063               sleep ;# 
  2818                           opt subtitle "HI-TECH Software Omniscient Code Generator (Lite mode) build 49521"
  2819                           
  2820                           opt pagewidth 120
  2821  011F  293C               	goto	l4459
  2822                           opt subtitle "HI-TECH Software Omniscient Code Generator (Lite mode) build 49521"
  2823  0120                     l173:	
  2824                           opt subtitle "HI-TECH Software Omniscient Code Generator (Lite mode) build 49521"
  2825                           
  2826  0120  0063               sleep ;# 
  2827                           opt subtitle "HI-TECH Software Omniscient Code Generator (Lite mode) build 49521"
  2828                           
  2829                           opt pagewidth 120
  2830  0121                     l4457:	
  2831                           opt subtitle "HI-TECH Software Omniscient Code Generator (Lite mode) build 49521"
  2832  0121  30FA               	movlw	low(STR_3|8000h)
  2833  0122  1283               	bcf	status, 5	;RP0=0, select bank0
  2834  0123  1303               	bcf	status, 6	;RP1=0, select bank0
  2835  0124  00C3               	movwf	(?_printf)
  2836  0125  3090               	movlw	high(STR_3|8000h)
  2837  0126  00C4               	movwf	((?_printf))+1
  2838  0127  1683               	bsf	status, 5	;RP0=1, select bank1
  2839  0128  1303               	bcf	status, 6	;RP1=0, select bank1
  2840  0129  0847               	movf	(_value)^080h,w
  2841  012A  00DB               	movwf	(??_main+0)^080h+0+0
  2842  012B  01DC               	clrf	(??_main+0)^080h+0+1
  2843  012C  085B               	movf	0+(??_main+0)^080h+0,w
  2844  012D  1283               	bcf	status, 5	;RP0=0, select bank0
  2845  012E  1303               	bcf	status, 6	;RP1=0, select bank0
  2846  012F  00C5               	movwf	0+(?_printf)+02h
  2847  0130  1683               	bsf	status, 5	;RP0=1, select bank1
  2848  0131  1303               	bcf	status, 6	;RP1=0, select bank1
  2849  0132  085C               	movf	1+(??_main+0)^080h+0,w
  2850  0133  1283               	bcf	status, 5	;RP0=0, select bank0
  2851  0134  1303               	bcf	status, 6	;RP1=0, select bank0
  2852  0135  00C6               	movwf	1+(?_printf)+02h
  2853  0136  120A  158A  2600   	fcall	_printf
              120A  118A         
  2854  013B  293C               	goto	l4459
  2855                           opt subtitle "HI-TECH Software Omniscient Code Generator (Lite mode) build 49521"
  2856                           
  2857  013C                     l172:	
  2858                           opt subtitle "HI-TECH Software Omniscient Code Generator (Lite mode) build 49521"
  2859                           
  2860  013C                     l4459:	
  2861  013C  160A  118A  239F   	fcall	_adcReadVcap
              120A  118A         
  2862  0141  1683               	bsf	status, 5	;RP0=1, select bank1
  2863  0142  1303               	bcf	status, 6	;RP1=0, select bank1
  2864  0143  00DB               	movwf	(??_main+0)^080h+0
  2865  0144  3058               	movlw	(058h)
  2866  0145  025B               	subwf	0+(??_main+0)^080h+0,w
  2867  0146  1803               	skipnc
  2868  0147  2949               	goto	u4361
  2869  0148  294A               	goto	u4360
  2870  0149                     u4361:
  2871  0149  2973               	goto	l4465
  2872  014A                     u4360:
  2873                           opt subtitle "HI-TECH Software Omniscient Code Generator (Lite mode) build 49521"
  2874  014A                     l4461:	
  2875  014A  1283               	bcf	status, 5	;RP0=0, select bank0
  2876  014B  1303               	bcf	status, 6	;RP1=0, select bank0
  2877  014C  1A88               	btfsc	(8),5	;volatile
  2878  014D  294F               	goto	u4371
  2879  014E  2950               	goto	u4370
  2880  014F                     u4371:
  2881  014F  2973               	goto	l4465
  2882  0150                     u4370:
  2883                           opt subtitle "HI-TECH Software Omniscient Code Generator (Lite mode) build 49521"
  2884  0150                     l4463:	
  2885  0150  160A  118A  2455   	fcall	_adcReadVsupercap
              120A  118A         
  2886  0155  160A  118A  2305   	fcall	___lbtoft
              120A  118A         
  2887  015A  1283               	bcf	status, 5	;RP0=0, select bank0
  2888  015B  1303               	bcf	status, 6	;RP1=0, select bank0
  2889  015C  083D               	movf	(0+(?___lbtoft)),w
  2890  015D  00C5               	movwf	(?___ftge)
  2891  015E  083E               	movf	(1+(?___lbtoft)),w
  2892  015F  00C6               	movwf	(?___ftge+1)
  2893  0160  083F               	movf	(2+(?___lbtoft)),w
  2894  0161  00C7               	movwf	(?___ftge+2)
  2895  0162  3000               	movlw	0x0
  2896  0163  00C8               	movwf	0+(?___ftge)+03h
  2897  0164  3000               	movlw	0x0
  2898  0165  00C9               	movwf	1+(?___ftge)+03h
  2899  0166  3000               	movlw	0x0
  2900  0167  00CA               	movwf	2+(?___ftge)+03h
  2901  0168  160A  118A  26BC   	fcall	___ftge
              120A  118A         
  2902  016D  1C03               	btfss	status,0
  2903  016E  2970               	goto	u4381
  2904  016F  2971               	goto	u4380
  2905  0170                     u4381:
  2906  0170  2920               	goto	l173
  2907  0171                     u4380:
  2908  0171  2973               	goto	l4465
  2909                           opt subtitle "HI-TECH Software Omniscient Code Generator (Lite mode) build 49521"
  2910  0172                     l175:	
  2911  0172  2973               	goto	l4465
  2912                           opt subtitle "HI-TECH Software Omniscient Code Generator (Lite mode) build 49521"
  2913  0173                     l176:	
  2914                           opt subtitle "HI-TECH Software Omniscient Code Generator (Lite mode) build 49521"
  2915                           
  2916  0173                     l4465:	
  2917                           opt subtitle "HI-TECH Software Omniscient Code Generator (Lite mode) build 49521"
  2918                           
  2919  0173  30A3               	movlw	low(STR_4|8000h)
  2920  0174  1283               	bcf	status, 5	;RP0=0, select bank0
  2921  0175  1303               	bcf	status, 6	;RP1=0, select bank0
  2922  0176  00C3               	movwf	(?_printf)
  2923  0177  3090               	movlw	high(STR_4|8000h)
  2924  0178  00C4               	movwf	((?_printf))+1
  2925  0179  1683               	bsf	status, 5	;RP0=1, select bank1
  2926  017A  1303               	bcf	status, 6	;RP1=0, select bank1
  2927  017B  0847               	movf	(_value)^080h,w
  2928  017C  00DB               	movwf	(??_main+0)^080h+0+0
  2929  017D  01DC               	clrf	(??_main+0)^080h+0+1
  2930  017E  085B               	movf	0+(??_main+0)^080h+0,w
  2931  017F  1283               	bcf	status, 5	;RP0=0, select bank0
  2932  0180  1303               	bcf	status, 6	;RP1=0, select bank0
  2933  0181  00C5               	movwf	0+(?_printf)+02h
  2934  0182  1683               	bsf	status, 5	;RP0=1, select bank1
  2935  0183  1303               	bcf	status, 6	;RP1=0, select bank1
  2936  0184  085C               	movf	1+(??_main+0)^080h+0,w
  2937  0185  1283               	bcf	status, 5	;RP0=0, select bank0
  2938  0186  1303               	bcf	status, 6	;RP1=0, select bank0
  2939  0187  00C6               	movwf	1+(?_printf)+02h
  2940  0188  120A  158A  2600   	fcall	_printf
              120A  118A         
  2941                           opt subtitle "HI-TECH Software Omniscient Code Generator (Lite mode) build 49521"
  2942                           
  2943  018D                     l4467:	
  2944                           opt subtitle "HI-TECH Software Omniscient Code Generator (Lite mode) build 49521"
  2945  018D  120A  118A  23FC   	fcall	_RFM70_Initialize
              120A  118A         
  2946                           opt subtitle "HI-TECH Software Omniscient Code Generator (Lite mode) build 49521"
  2947                           
  2948  0192                     l4469:	
  2949                           opt subtitle "HI-TECH Software Omniscient Code Generator (Lite mode) build 49521"
  2950  0192  3000               	movlw	(0)
  2951  0193  160A  118A  2326   	fcall	_rfm70setPowerdownMode
              120A  118A         
  2952                           opt subtitle "HI-TECH Software Omniscient Code Generator (Lite mode) build 49521"
  2953                           
  2954  0198  0063               sleep ;# 
  2955                           opt subtitle "HI-TECH Software Omniscient Code Generator (Lite mode) build 49521"
  2956                           
  2957                           opt pagewidth 120
  2958  0199                     l4471:	
  2959                           opt subtitle "HI-TECH Software Omniscient Code Generator (Lite mode) build 49521"
  2960  0199  1683               	bsf	status, 5	;RP0=1, select bank1
  2961  019A  1303               	bcf	status, 6	;RP1=0, select bank1
  2962  019B  01C2               	clrf	(_timelapse_count)^080h
  2963  019C  01C3               	clrf	(_timelapse_count+1)^080h
  2964  019D  299E               	goto	l4473
  2965                           opt subtitle "HI-TECH Software Omniscient Code Generator (Lite mode) build 49521"
  2966                           
  2967                           opt pagewidth 120
  2968  019E                     l177:	
  2969                           opt subtitle "HI-TECH Software Omniscient Code Generator (Lite mode) build 49521"
  2970                           
  2971  019E                     l4473:	
  2972                           opt subtitle "HI-TECH Software Omniscient Code Generator (Lite mode) build 49521"
  2973  019E  3001               	movlw	(01h)
  2974  019F  160A  118A  2326   	fcall	_rfm70setPowerdownMode
              120A  118A         
  2975                           opt subtitle "HI-TECH Software Omniscient Code Generator (Lite mode) build 49521"
  2976                           
  2977  01A4                     l4475:	
  2978                           opt subtitle "HI-TECH Software Omniscient Code Generator (Lite mode) build 49521"
  2979  01A4  160A  118A  239F   	fcall	_adcReadVcap
              120A  118A         
  2980  01A9  1683               	bsf	status, 5	;RP0=1, select bank1
  2981  01AA  1303               	bcf	status, 6	;RP1=0, select bank1
  2982  01AB  00DB               	movwf	(??_main+0)^080h+0
  2983  01AC  085B               	movf	(??_main+0)^080h+0,w
  2984  01AD  00E3               	movwf	0+(_tx_buf)^080h+01h
  2985                           opt subtitle "HI-TECH Software Omniscient Code Generator (Lite mode) build 49521"
  2986                           
  2987  01AE                     l4477:	
  2988                           opt subtitle "HI-TECH Software Omniscient Code Generator (Lite mode) build 49521"
  2989  01AE  0842               	movf	(_timelapse_count)^080h,w
  2990  01AF  00DB               	movwf	(??_main+0)^080h+0
  2991  01B0  085B               	movf	(??_main+0)^080h+0,w
  2992  01B1  00E4               	movwf	0+(_tx_buf)^080h+02h
  2993                           opt subtitle "HI-TECH Software Omniscient Code Generator (Lite mode) build 49521"
  2994                           
  2995  01B2                     l4479:	
  2996                           opt subtitle "HI-TECH Software Omniscient Code Generator (Lite mode) build 49521"
  2997  01B2  0843               	movf	(_timelapse_count+1)^080h,w
  2998  01B3  00DB               	movwf	(??_main+0)^080h+0
  2999  01B4  085B               	movf	(??_main+0)^080h+0,w
  3000  01B5  00E5               	movwf	0+(_tx_buf)^080h+03h
  3001                           opt subtitle "HI-TECH Software Omniscient Code Generator (Lite mode) build 49521"
  3002                           
  3003  01B6                     l4481:	
  3004                           opt subtitle "HI-TECH Software Omniscient Code Generator (Lite mode) build 49521"
  3005  01B6  1283               	bcf	status, 5	;RP0=0, select bank0
  3006  01B7  1303               	bcf	status, 6	;RP1=0, select bank0
  3007  01B8  0854               	movf	(_jumper_stat),w
  3008  01B9  1683               	bsf	status, 5	;RP0=1, select bank1
  3009  01BA  1303               	bcf	status, 6	;RP1=0, select bank1
  3010  01BB  00DB               	movwf	(??_main+0)^080h+0
  3011  01BC  085B               	movf	(??_main+0)^080h+0,w
  3012  01BD  00E6               	movwf	0+(_tx_buf)^080h+04h
  3013                           opt subtitle "HI-TECH Software Omniscient Code Generator (Lite mode) build 49521"
  3014                           
  3015  01BE                     l4483:	
  3016                           opt subtitle "HI-TECH Software Omniscient Code Generator (Lite mode) build 49521"
  3017  01BE  0840               	movf	(_energy)^080h,w
  3018  01BF  00DB               	movwf	(??_main+0)^080h+0
  3019  01C0  085B               	movf	(??_main+0)^080h+0,w
  3020  01C1  00E7               	movwf	0+(_tx_buf)^080h+05h
  3021                           opt subtitle "HI-TECH Software Omniscient Code Generator (Lite mode) build 49521"
  3022                           
  3023  01C2                     l4485:	
  3024                           opt subtitle "HI-TECH Software Omniscient Code Generator (Lite mode) build 49521"
  3025  01C2  0841               	movf	(_energy+1)^080h,w
  3026  01C3  00DB               	movwf	(??_main+0)^080h+0
  3027  01C4  085B               	movf	(??_main+0)^080h+0,w
  3028  01C5  00E8               	movwf	0+(_tx_buf)^080h+06h
  3029                           opt subtitle "HI-TECH Software Omniscient Code Generator (Lite mode) build 49521"
  3030                           
  3031  01C6                     l4487:	
  3032                           opt subtitle "HI-TECH Software Omniscient Code Generator (Lite mode) build 49521"
  3033  01C6  160A  118A  2455   	fcall	_adcReadVsupercap
              120A  118A         
  3034  01CB  1683               	bsf	status, 5	;RP0=1, select bank1
  3035  01CC  1303               	bcf	status, 6	;RP1=0, select bank1
  3036  01CD  00DB               	movwf	(??_main+0)^080h+0
  3037  01CE  085B               	movf	(??_main+0)^080h+0,w
  3038  01CF  00E9               	movwf	0+(_tx_buf)^080h+07h
  3039                           opt subtitle "HI-TECH Software Omniscient Code Generator (Lite mode) build 49521"
  3040                           
  3041  01D0                     l4489:	
  3042                           opt subtitle "HI-TECH Software Omniscient Code Generator (Lite mode) build 49521"
  3043  01D0  085F               	movf	(_charge_pulse_float)^080h,w
  3044  01D1  1283               	bcf	status, 5	;RP0=0, select bank0
  3045  01D2  1303               	bcf	status, 6	;RP1=0, select bank0
  3046  01D3  00B5               	movwf	(?___fttol)
  3047  01D4  1683               	bsf	status, 5	;RP0=1, select bank1
  3048  01D5  1303               	bcf	status, 6	;RP1=0, select bank1
  3049  01D6  0860               	movf	(_charge_pulse_float+1)^080h,w
  3050  01D7  1283               	bcf	status, 5	;RP0=0, select bank0
  3051  01D8  1303               	bcf	status, 6	;RP1=0, select bank0
  3052  01D9  00B6               	movwf	(?___fttol+1)
  3053  01DA  1683               	bsf	status, 5	;RP0=1, select bank1
  3054  01DB  1303               	bcf	status, 6	;RP1=0, select bank1
  3055  01DC  0861               	movf	(_charge_pulse_float+2)^080h,w
  3056  01DD  1283               	bcf	status, 5	;RP0=0, select bank0
  3057  01DE  1303               	bcf	status, 6	;RP1=0, select bank0
  3058  01DF  00B7               	movwf	(?___fttol+2)
  3059  01E0  160A  118A  275A   	fcall	___fttol
              120A  118A         
  3060  01E5  1283               	bcf	status, 5	;RP0=0, select bank0
  3061  01E6  1303               	bcf	status, 6	;RP1=0, select bank0
  3062  01E7  0835               	movf	0+(((0+(?___fttol)))),w
  3063  01E8  1683               	bsf	status, 5	;RP0=1, select bank1
  3064  01E9  1303               	bcf	status, 6	;RP1=0, select bank1
  3065  01EA  00DB               	movwf	(??_main+0)^080h+0
  3066  01EB  085B               	movf	(??_main+0)^080h+0,w
  3067  01EC  00EA               	movwf	0+(_tx_buf)^080h+08h
  3068                           opt subtitle "HI-TECH Software Omniscient Code Generator (Lite mode) build 49521"
  3069                           
  3070  01ED                     l4491:	
  3071                           opt subtitle "HI-TECH Software Omniscient Code Generator (Lite mode) build 49521"
  3072  01ED  085F               	movf	(_charge_pulse_float)^080h,w
  3073  01EE  1283               	bcf	status, 5	;RP0=0, select bank0
  3074  01EF  1303               	bcf	status, 6	;RP1=0, select bank0
  3075  01F0  00B5               	movwf	(?___fttol)
  3076  01F1  1683               	bsf	status, 5	;RP0=1, select bank1
  3077  01F2  1303               	bcf	status, 6	;RP1=0, select bank1
  3078  01F3  0860               	movf	(_charge_pulse_float+1)^080h,w
  3079  01F4  1283               	bcf	status, 5	;RP0=0, select bank0
  3080  01F5  1303               	bcf	status, 6	;RP1=0, select bank0
  3081  01F6  00B6               	movwf	(?___fttol+1)
  3082  01F7  1683               	bsf	status, 5	;RP0=1, select bank1
  3083  01F8  1303               	bcf	status, 6	;RP1=0, select bank1
  3084  01F9  0861               	movf	(_charge_pulse_float+2)^080h,w
  3085  01FA  1283               	bcf	status, 5	;RP0=0, select bank0
  3086  01FB  1303               	bcf	status, 6	;RP1=0, select bank0
  3087  01FC  00B7               	movwf	(?___fttol+2)
  3088  01FD  160A  118A  275A   	fcall	___fttol
              120A  118A         
  3089  0202  1283               	bcf	status, 5	;RP0=0, select bank0
  3090  0203  1303               	bcf	status, 6	;RP1=0, select bank0
  3091  0204  0836               	movf	1+(((0+(?___fttol)))),w
  3092  0205  1683               	bsf	status, 5	;RP0=1, select bank1
  3093  0206  1303               	bcf	status, 6	;RP1=0, select bank1
  3094  0207  00DB               	movwf	(??_main+0)^080h+0
  3095  0208  085B               	movf	(??_main+0)^080h+0,w
  3096  0209  00EB               	movwf	0+(_tx_buf)^080h+09h
  3097                           opt subtitle "HI-TECH Software Omniscient Code Generator (Lite mode) build 49521"
  3098                           
  3099  020A                     l4493:	
  3100                           opt subtitle "HI-TECH Software Omniscient Code Generator (Lite mode) build 49521"
  3101  020A  3059               	movlw	(059h)
  3102  020B  0263               	subwf	0+(_tx_buf)^080h+01h,w
  3103  020C  1803               	skipnc
  3104  020D  2A0F               	goto	u4391
  3105  020E  2A10               	goto	u4390
  3106  020F                     u4391:
  3107  020F  2A17               	goto	l4497
  3108  0210                     u4390:
  3109                           opt subtitle "HI-TECH Software Omniscient Code Generator (Lite mode) build 49521"
  3110  0210                     l4495:	
  3111  0210  1283               	bcf	status, 5	;RP0=0, select bank0
  3112  0211  1303               	bcf	status, 6	;RP1=0, select bank0
  3113  0212  1E88               	btfss	(8),5	;volatile
  3114  0213  2A15               	goto	u4401
  3115  0214  2A16               	goto	u4400
  3116  0215                     u4401:
  3117  0215  2A43               	goto	l4507
  3118  0216                     u4400:
  3119  0216  2A17               	goto	l4497
  3120                           opt subtitle "HI-TECH Software Omniscient Code Generator (Lite mode) build 49521"
  3121  0217                     l180:	
  3122                           opt subtitle "HI-TECH Software Omniscient Code Generator (Lite mode) build 49521"
  3123                           
  3124  0217                     l4497:	
  3125                           opt subtitle "HI-TECH Software Omniscient Code Generator (Lite mode) build 49521"
  3126  0217  160A  118A  2425   	fcall	_adcReadTemp
              120A  118A         
  3127  021C  1683               	bsf	status, 5	;RP0=1, select bank1
  3128  021D  1303               	bcf	status, 6	;RP1=0, select bank1
  3129  021E  00DB               	movwf	(??_main+0)^080h+0
  3130  021F  085B               	movf	(??_main+0)^080h+0,w
  3131  0220  00E2               	movwf	(_tx_buf)^080h
  3132                           opt subtitle "HI-TECH Software Omniscient Code Generator (Lite mode) build 49521"
  3133                           
  3134  0221                     l4499:	
  3135                           opt subtitle "HI-TECH Software Omniscient Code Generator (Lite mode) build 49521"
  3136  0221  1283               	bcf	status, 5	;RP0=0, select bank0
  3137  0222  1303               	bcf	status, 6	;RP1=0, select bank0
  3138  0223  17D4               	bsf	(_jumper_stat)+(7/8),(7)&7
  3139                           opt subtitle "HI-TECH Software Omniscient Code Generator (Lite mode) build 49521"
  3140                           
  3141  0224                     l4501:	
  3142                           opt subtitle "HI-TECH Software Omniscient Code Generator (Lite mode) build 49521"
  3143  0224  0854               	movf	(_jumper_stat),w
  3144  0225  1683               	bsf	status, 5	;RP0=1, select bank1
  3145  0226  1303               	bcf	status, 6	;RP1=0, select bank1
  3146  0227  00DB               	movwf	(??_main+0)^080h+0
  3147  0228  085B               	movf	(??_main+0)^080h+0,w
  3148  0229  00E6               	movwf	0+(_tx_buf)^080h+04h
  3149                           opt subtitle "HI-TECH Software Omniscient Code Generator (Lite mode) build 49521"
  3150                           
  3151  022A                     l4503:	
  3152                           opt subtitle "HI-TECH Software Omniscient Code Generator (Lite mode) build 49521"
  3153  022A  30E2               	movlw	(_tx_buf)&0ffh
  3154  022B  00DB               	movwf	(??_main+0)^080h+0
  3155  022C  085B               	movf	(??_main+0)^080h+0,w
  3156  022D  1283               	bcf	status, 5	;RP0=0, select bank0
  3157  022E  1303               	bcf	status, 6	;RP1=0, select bank0
  3158  022F  00CC               	movwf	(?_Send_Packet)
  3159  0230  300A               	movlw	(0Ah)
  3160  0231  1683               	bsf	status, 5	;RP0=1, select bank1
  3161  0232  1303               	bcf	status, 6	;RP1=0, select bank1
  3162  0233  00DC               	movwf	(??_main+1)^080h+0
  3163  0234  085C               	movf	(??_main+1)^080h+0,w
  3164  0235  1283               	bcf	status, 5	;RP0=0, select bank0
  3165  0236  1303               	bcf	status, 6	;RP1=0, select bank0
  3166  0237  00CD               	movwf	0+(?_Send_Packet)+01h
  3167  0238  30B0               	movlw	(0B0h)
  3168  0239  120A  158A  211A   	fcall	_Send_Packet
              120A  118A         
  3169                           opt subtitle "HI-TECH Software Omniscient Code Generator (Lite mode) build 49521"
  3170                           
  3171  023E                     l4505:	
  3172                           opt subtitle "HI-TECH Software Omniscient Code Generator (Lite mode) build 49521"
  3173  023E  1683               	bsf	status, 5	;RP0=1, select bank1
  3174  023F  1303               	bcf	status, 6	;RP1=0, select bank1
  3175  0240  01C0               	clrf	(_energy)^080h
  3176  0241  01C1               	clrf	(_energy+1)^080h
  3177                           opt subtitle "HI-TECH Software Omniscient Code Generator (Lite mode) build 49521"
  3178                           
  3179  0242  2B29               	goto	l4543
  3180                           opt subtitle "HI-TECH Software Omniscient Code Generator (Lite mode) build 49521"
  3181                           
  3182  0243                     l178:	
  3183                           opt subtitle "HI-TECH Software Omniscient Code Generator (Lite mode) build 49521"
  3184                           
  3185  0243                     l4507:	
  3186                           opt subtitle "HI-TECH Software Omniscient Code Generator (Lite mode) build 49521"
  3187                           
  3188  0243  3000               	movlw	0x0
  3189  0244  1283               	bcf	status, 5	;RP0=0, select bank0
  3190  0245  00C5               	movwf	(?___ftge)
  3191  0246  3000               	movlw	0x0
  3192  0247  00C6               	movwf	(?___ftge+1)
  3193  0248  3000               	movlw	0x0
  3194  0249  00C7               	movwf	(?___ftge+2)
  3195  024A  1683               	bsf	status, 5	;RP0=1, select bank1
  3196  024B  1303               	bcf	status, 6	;RP1=0, select bank1
  3197  024C  0869               	movf	0+(_tx_buf)^080h+07h,w
  3198  024D  160A  118A  2305   	fcall	___lbtoft
              120A  118A         
  3199  0252  1283               	bcf	status, 5	;RP0=0, select bank0
  3200  0253  1303               	bcf	status, 6	;RP1=0, select bank0
  3201  0254  083D               	movf	(0+(?___lbtoft)),w
  3202  0255  00C8               	movwf	0+(?___ftge)+03h
  3203  0256  083E               	movf	(1+(?___lbtoft)),w
  3204  0257  00C9               	movwf	1+(?___ftge)+03h
  3205  0258  083F               	movf	(2+(?___lbtoft)),w
  3206  0259  00CA               	movwf	2+(?___ftge)+03h
  3207  025A  160A  118A  26BC   	fcall	___ftge
              120A  118A         
  3208  025F  1803               	btfsc	status,0
  3209  0260  2A62               	goto	u4411
  3210  0261  2A63               	goto	u4410
  3211  0262                     u4411:
  3212  0262  2AB2               	goto	l4527
  3213  0263                     u4410:
  3214                           opt subtitle "HI-TECH Software Omniscient Code Generator (Lite mode) build 49521"
  3215  0263                     l4509:	
  3216  0263  1683               	bsf	status, 5	;RP0=1, select bank1
  3217  0264  1303               	bcf	status, 6	;RP1=0, select bank1
  3218  0265  0863               	movf	0+(_tx_buf)^080h+01h,w
  3219  0266  0247               	subwf	(_value)^080h,w
  3220  0267  1C03               	skipc
  3221  0268  2A6A               	goto	u4421
  3222  0269  2A6B               	goto	u4420
  3223  026A                     u4421:
  3224  026A  2AB2               	goto	l4527
  3225  026B                     u4420:
  3226                           opt subtitle "HI-TECH Software Omniscient Code Generator (Lite mode) build 49521"
  3227  026B                     l4511:	
  3228  026B  1283               	bcf	status, 5	;RP0=0, select bank0
  3229  026C  1303               	bcf	status, 6	;RP1=0, select bank0
  3230  026D  1806               	btfsc	(6),0	;volatile
  3231  026E  2A70               	goto	u4431
  3232  026F  2A71               	goto	u4430
  3233  0270                     u4431:
  3234  0270  2AB2               	goto	l4527
  3235  0271                     u4430:
  3236                           opt subtitle "HI-TECH Software Omniscient Code Generator (Lite mode) build 49521"
  3237                           
  3238  0271                     l4513:	
  3239                           opt subtitle "HI-TECH Software Omniscient Code Generator (Lite mode) build 49521"
  3240  0271  1105               	bcf	(5),2	;volatile
  3241                           opt subtitle "HI-TECH Software Omniscient Code Generator (Lite mode) build 49521"
  3242                           
  3243  0272                     l4515:	
  3244                           opt subtitle "HI-TECH Software Omniscient Code Generator (Lite mode) build 49521"
  3245  0272  160A  118A  2425   	fcall	_adcReadTemp
              120A  118A         
  3246  0277  1683               	bsf	status, 5	;RP0=1, select bank1
  3247  0278  1303               	bcf	status, 6	;RP1=0, select bank1
  3248  0279  00DB               	movwf	(??_main+0)^080h+0
  3249  027A  085B               	movf	(??_main+0)^080h+0,w
  3250  027B  00E2               	movwf	(_tx_buf)^080h
  3251                           opt subtitle "HI-TECH Software Omniscient Code Generator (Lite mode) build 49521"
  3252                           
  3253  027C  160A  118A  2455   	fcall	_adcReadVsupercap
              120A  118A         
  3254  0281  1683               	bsf	status, 5	;RP0=1, select bank1
  3255  0282  1303               	bcf	status, 6	;RP1=0, select bank1
  3256  0283  00DB               	movwf	(??_main+0)^080h+0
  3257  0284  085B               	movf	(??_main+0)^080h+0,w
  3258  0285  00E9               	movwf	0+(_tx_buf)^080h+07h
  3259                           opt subtitle "HI-TECH Software Omniscient Code Generator (Lite mode) build 49521"
  3260                           
  3261  0286                     l4517:	
  3262                           opt subtitle "HI-TECH Software Omniscient Code Generator (Lite mode) build 49521"
  3263  0286  307F               	movlw	(07Fh)
  3264  0287  00DB               	movwf	(??_main+0)^080h+0
  3265  0288  085B               	movf	(??_main+0)^080h+0,w
  3266  0289  1283               	bcf	status, 5	;RP0=0, select bank0
  3267  028A  1303               	bcf	status, 6	;RP1=0, select bank0
  3268  028B  05D4               	andwf	(_jumper_stat),f
  3269                           opt subtitle "HI-TECH Software Omniscient Code Generator (Lite mode) build 49521"
  3270                           
  3271  028C                     l4519:	
  3272                           opt subtitle "HI-TECH Software Omniscient Code Generator (Lite mode) build 49521"
  3273  028C  0854               	movf	(_jumper_stat),w
  3274  028D  1683               	bsf	status, 5	;RP0=1, select bank1
  3275  028E  1303               	bcf	status, 6	;RP1=0, select bank1
  3276  028F  00DB               	movwf	(??_main+0)^080h+0
  3277  0290  085B               	movf	(??_main+0)^080h+0,w
  3278  0291  00E6               	movwf	0+(_tx_buf)^080h+04h
  3279                           opt subtitle "HI-TECH Software Omniscient Code Generator (Lite mode) build 49521"
  3280                           
  3281  0292                     l4521:	
  3282                           opt subtitle "HI-TECH Software Omniscient Code Generator (Lite mode) build 49521"
  3283  0292  30E2               	movlw	(_tx_buf)&0ffh
  3284  0293  00DB               	movwf	(??_main+0)^080h+0
  3285  0294  085B               	movf	(??_main+0)^080h+0,w
  3286  0295  1283               	bcf	status, 5	;RP0=0, select bank0
  3287  0296  1303               	bcf	status, 6	;RP1=0, select bank0
  3288  0297  00CC               	movwf	(?_Send_Packet)
  3289  0298  300A               	movlw	(0Ah)
  3290  0299  1683               	bsf	status, 5	;RP0=1, select bank1
  3291  029A  1303               	bcf	status, 6	;RP1=0, select bank1
  3292  029B  00DC               	movwf	(??_main+1)^080h+0
  3293  029C  085C               	movf	(??_main+1)^080h+0,w
  3294  029D  1283               	bcf	status, 5	;RP0=0, select bank0
  3295  029E  1303               	bcf	status, 6	;RP1=0, select bank0
  3296  029F  00CD               	movwf	0+(?_Send_Packet)+01h
  3297  02A0  30B0               	movlw	(0B0h)
  3298  02A1  120A  158A  211A   	fcall	_Send_Packet
              120A  118A         
  3299                           opt subtitle "HI-TECH Software Omniscient Code Generator (Lite mode) build 49521"
  3300                           
  3301  02A6                     l4523:	
  3302                           opt subtitle "HI-TECH Software Omniscient Code Generator (Lite mode) build 49521"
  3303  02A6  1283               	bcf	status, 5	;RP0=0, select bank0
  3304  02A7  1303               	bcf	status, 6	;RP1=0, select bank0
  3305  02A8  1505               	bsf	(5),2	;volatile
  3306                           opt subtitle "HI-TECH Software Omniscient Code Generator (Lite mode) build 49521"
  3307                           
  3308  02A9                     l4525:	
  3309                           opt subtitle "HI-TECH Software Omniscient Code Generator (Lite mode) build 49521"
  3310  02A9  3000               	movlw	0x0
  3311  02AA  1683               	bsf	status, 5	;RP0=1, select bank1
  3312  02AB  1303               	bcf	status, 6	;RP1=0, select bank1
  3313  02AC  00DF               	movwf	(_charge_pulse_float)^080h
  3314  02AD  3020               	movlw	0x20
  3315  02AE  00E0               	movwf	(_charge_pulse_float+1)^080h
  3316  02AF  3041               	movlw	0x41
  3317  02B0  00E1               	movwf	(_charge_pulse_float+2)^080h
  3318                           opt subtitle "HI-TECH Software Omniscient Code Generator (Lite mode) build 49521"
  3319                           
  3320  02B1  2B29               	goto	l4543
  3321                           opt subtitle "HI-TECH Software Omniscient Code Generator (Lite mode) build 49521"
  3322                           
  3323  02B2                     l182:	
  3324                           opt subtitle "HI-TECH Software Omniscient Code Generator (Lite mode) build 49521"
  3325  02B2                     l4527:	
  3326                           opt subtitle "HI-TECH Software Omniscient Code Generator (Lite mode) build 49521"
  3327  02B2  3000               	movlw	0x0
  3328  02B3  1283               	bcf	status, 5	;RP0=0, select bank0
  3329  02B4  1303               	bcf	status, 6	;RP1=0, select bank0
  3330  02B5  00C5               	movwf	(?___ftge)
  3331  02B6  3000               	movlw	0x0
  3332  02B7  00C6               	movwf	(?___ftge+1)
  3333  02B8  3000               	movlw	0x0
  3334  02B9  00C7               	movwf	(?___ftge+2)
  3335  02BA  1683               	bsf	status, 5	;RP0=1, select bank1
  3336  02BB  1303               	bcf	status, 6	;RP1=0, select bank1
  3337  02BC  0869               	movf	0+(_tx_buf)^080h+07h,w
  3338  02BD  160A  118A  2305   	fcall	___lbtoft
              120A  118A         
  3339  02C2  1283               	bcf	status, 5	;RP0=0, select bank0
  3340  02C3  1303               	bcf	status, 6	;RP1=0, select bank0
  3341  02C4  083D               	movf	(0+(?___lbtoft)),w
  3342  02C5  00C8               	movwf	0+(?___ftge)+03h
  3343  02C6  083E               	movf	(1+(?___lbtoft)),w
  3344  02C7  00C9               	movwf	1+(?___ftge)+03h
  3345  02C8  083F               	movf	(2+(?___lbtoft)),w
  3346  02C9  00CA               	movwf	2+(?___ftge)+03h
  3347  02CA  160A  118A  26BC   	fcall	___ftge
              120A  118A         
  3348  02CF  1803               	btfsc	status,0
  3349  02D0  2AD2               	goto	u4441
  3350  02D1  2AD3               	goto	u4440
  3351  02D2                     u4441:
  3352  02D2  2B0C               	goto	l4541
  3353  02D3                     u4440:
  3354                           opt subtitle "HI-TECH Software Omniscient Code Generator (Lite mode) build 49521"
  3355  02D3                     l4529:	
  3356  02D3  1683               	bsf	status, 5	;RP0=1, select bank1
  3357  02D4  1303               	bcf	status, 6	;RP1=0, select bank1
  3358  02D5  0863               	movf	0+(_tx_buf)^080h+01h,w
  3359  02D6  0247               	subwf	(_value)^080h,w
  3360  02D7  1C03               	skipc
  3361  02D8  2ADA               	goto	u4451
  3362  02D9  2ADB               	goto	u4450
  3363  02DA                     u4451:
  3364  02DA  2B0C               	goto	l4541
  3365  02DB                     u4450:
  3366                           opt subtitle "HI-TECH Software Omniscient Code Generator (Lite mode) build 49521"
  3367  02DB                     l4531:	
  3368  02DB  1283               	bcf	status, 5	;RP0=0, select bank0
  3369  02DC  1303               	bcf	status, 6	;RP1=0, select bank0
  3370  02DD  1C06               	btfss	(6),0	;volatile
  3371  02DE  2AE0               	goto	u4461
  3372  02DF  2AE1               	goto	u4460
  3373  02E0                     u4461:
  3374  02E0  2B0C               	goto	l4541
  3375  02E1                     u4460:
  3376                           opt subtitle "HI-TECH Software Omniscient Code Generator (Lite mode) build 49521"
  3377                           
  3378  02E1                     l4533:	
  3379                           opt subtitle "HI-TECH Software Omniscient Code Generator (Lite mode) build 49521"
  3380  02E1  307F               	movlw	(07Fh)
  3381  02E2  1683               	bsf	status, 5	;RP0=1, select bank1
  3382  02E3  1303               	bcf	status, 6	;RP1=0, select bank1
  3383  02E4  00DB               	movwf	(??_main+0)^080h+0
  3384  02E5  085B               	movf	(??_main+0)^080h+0,w
  3385  02E6  1283               	bcf	status, 5	;RP0=0, select bank0
  3386  02E7  1303               	bcf	status, 6	;RP1=0, select bank0
  3387  02E8  05D4               	andwf	(_jumper_stat),f
  3388                           opt subtitle "HI-TECH Software Omniscient Code Generator (Lite mode) build 49521"
  3389                           
  3390  02E9                     l4535:	
  3391                           opt subtitle "HI-TECH Software Omniscient Code Generator (Lite mode) build 49521"
  3392  02E9  0854               	movf	(_jumper_stat),w
  3393  02EA  1683               	bsf	status, 5	;RP0=1, select bank1
  3394  02EB  1303               	bcf	status, 6	;RP1=0, select bank1
  3395  02EC  00DB               	movwf	(??_main+0)^080h+0
  3396  02ED  085B               	movf	(??_main+0)^080h+0,w
  3397  02EE  00E6               	movwf	0+(_tx_buf)^080h+04h
  3398                           opt subtitle "HI-TECH Software Omniscient Code Generator (Lite mode) build 49521"
  3399                           
  3400  02EF                     l4537:	
  3401                           opt subtitle "HI-TECH Software Omniscient Code Generator (Lite mode) build 49521"
  3402  02EF  30E2               	movlw	(_tx_buf)&0ffh
  3403  02F0  00DB               	movwf	(??_main+0)^080h+0
  3404  02F1  085B               	movf	(??_main+0)^080h+0,w
  3405  02F2  1283               	bcf	status, 5	;RP0=0, select bank0
  3406  02F3  1303               	bcf	status, 6	;RP1=0, select bank0
  3407  02F4  00CC               	movwf	(?_Send_Packet)
  3408  02F5  300A               	movlw	(0Ah)
  3409  02F6  1683               	bsf	status, 5	;RP0=1, select bank1
  3410  02F7  1303               	bcf	status, 6	;RP1=0, select bank1
  3411  02F8  00DC               	movwf	(??_main+1)^080h+0
  3412  02F9  085C               	movf	(??_main+1)^080h+0,w
  3413  02FA  1283               	bcf	status, 5	;RP0=0, select bank0
  3414  02FB  1303               	bcf	status, 6	;RP1=0, select bank0
  3415  02FC  00CD               	movwf	0+(?_Send_Packet)+01h
  3416  02FD  30B0               	movlw	(0B0h)
  3417  02FE  120A  158A  211A   	fcall	_Send_Packet
              120A  118A         
  3418                           opt subtitle "HI-TECH Software Omniscient Code Generator (Lite mode) build 49521"
  3419                           
  3420  0303                     l4539:	
  3421                           opt subtitle "HI-TECH Software Omniscient Code Generator (Lite mode) build 49521"
  3422  0303  3000               	movlw	0x0
  3423  0304  1683               	bsf	status, 5	;RP0=1, select bank1
  3424  0305  1303               	bcf	status, 6	;RP1=0, select bank1
  3425  0306  00DF               	movwf	(_charge_pulse_float)^080h
  3426  0307  3020               	movlw	0x20
  3427  0308  00E0               	movwf	(_charge_pulse_float+1)^080h
  3428  0309  3041               	movlw	0x41
  3429  030A  00E1               	movwf	(_charge_pulse_float+2)^080h
  3430                           opt subtitle "HI-TECH Software Omniscient Code Generator (Lite mode) build 49521"
  3431                           
  3432  030B  2B29               	goto	l4543
  3433                           opt subtitle "HI-TECH Software Omniscient Code Generator (Lite mode) build 49521"
  3434                           
  3435  030C                     l184:	
  3436                           opt subtitle "HI-TECH Software Omniscient Code Generator (Lite mode) build 49521"
  3437                           
  3438  030C                     l4541:	
  3439                           opt subtitle "HI-TECH Software Omniscient Code Generator (Lite mode) build 49521"
  3440                           
  3441  030C  30C8               	movlw	low(STR_5|8000h)
  3442  030D  1283               	bcf	status, 5	;RP0=0, select bank0
  3443  030E  1303               	bcf	status, 6	;RP1=0, select bank0
  3444  030F  00C3               	movwf	(?_printf)
  3445  0310  3090               	movlw	high(STR_5|8000h)
  3446  0311  00C4               	movwf	((?_printf))+1
  3447  0312  1683               	bsf	status, 5	;RP0=1, select bank1
  3448  0313  1303               	bcf	status, 6	;RP1=0, select bank1
  3449  0314  0863               	movf	0+(_tx_buf)^080h+01h,w
  3450  0315  00DB               	movwf	(??_main+0)^080h+0+0
  3451  0316  01DC               	clrf	(??_main+0)^080h+0+1
  3452  0317  085B               	movf	0+(??_main+0)^080h+0,w
  3453  0318  1283               	bcf	status, 5	;RP0=0, select bank0
  3454  0319  1303               	bcf	status, 6	;RP1=0, select bank0
  3455  031A  00C5               	movwf	0+(?_printf)+02h
  3456  031B  1683               	bsf	status, 5	;RP0=1, select bank1
  3457  031C  1303               	bcf	status, 6	;RP1=0, select bank1
  3458  031D  085C               	movf	1+(??_main+0)^080h+0,w
  3459  031E  1283               	bcf	status, 5	;RP0=0, select bank0
  3460  031F  1303               	bcf	status, 6	;RP1=0, select bank0
  3461  0320  00C6               	movwf	1+(?_printf)+02h
  3462  0321  120A  158A  2600   	fcall	_printf
              120A  118A         
  3463  0326  2B29               	goto	l4543
  3464                           opt subtitle "HI-TECH Software Omniscient Code Generator (Lite mode) build 49521"
  3465                           
  3466  0327                     l185:	
  3467  0327  2B29               	goto	l4543
  3468                           opt subtitle "HI-TECH Software Omniscient Code Generator (Lite mode) build 49521"
  3469  0328                     l183:	
  3470  0328  2B29               	goto	l4543
  3471                           opt subtitle "HI-TECH Software Omniscient Code Generator (Lite mode) build 49521"
  3472                           
  3473  0329                     l181:	
  3474                           opt subtitle "HI-TECH Software Omniscient Code Generator (Lite mode) build 49521"
  3475                           
  3476  0329                     l4543:	
  3477                           opt subtitle "HI-TECH Software Omniscient Code Generator (Lite mode) build 49521"
  3478                           
  3479                           opt pagewidth 120
  3480  0329  1283               	bcf	status, 5	;RP0=0, select bank0
  3481  032A  1303               	bcf	status, 6	;RP1=0, select bank0
  3482  032B  1107               	bcf	(7),2	;volatile
  3483                           opt subtitle "HI-TECH Software Omniscient Code Generator (Lite mode) build 49521"
  3484                           
  3485  032C                     l4545:	
  3486                           opt subtitle "HI-TECH Software Omniscient Code Generator (Lite mode) build 49521"
  3487  032C  3000               	movlw	(0)
  3488  032D  160A  118A  2326   	fcall	_rfm70setPowerdownMode
              120A  118A         
  3489                           opt subtitle "HI-TECH Software Omniscient Code Generator (Lite mode) build 49521"
  3490                           
  3491  0332                     l4547:	
  3492                           opt subtitle "HI-TECH Software Omniscient Code Generator (Lite mode) build 49521"
  3493  0332  1283               	bcf	status, 5	;RP0=0, select bank0
  3494  0333  1303               	bcf	status, 6	;RP1=0, select bank0
  3495  0334  1010               	bcf	(16),0	;volatile
  3496                           opt subtitle "HI-TECH Software Omniscient Code Generator (Lite mode) build 49521"
  3497                           
  3498  0335                     l4549:	
  3499                           opt subtitle "HI-TECH Software Omniscient Code Generator (Lite mode) build 49521"
  3500  0335  3010               	movlw	(010h)
  3501  0336  008F               	movwf	(15)	;volatile
  3502                           opt subtitle "HI-TECH Software Omniscient Code Generator (Lite mode) build 49521"
  3503                           
  3504  0337                     l4551:	
  3505                           opt subtitle "HI-TECH Software Omniscient Code Generator (Lite mode) build 49521"
  3506  0337  018E               	clrf	(14)	;volatile
  3507                           opt subtitle "HI-TECH Software Omniscient Code Generator (Lite mode) build 49521"
  3508                           
  3509  0338                     l4553:	
  3510                           opt subtitle "HI-TECH Software Omniscient Code Generator (Lite mode) build 49521"
  3511  0338  1410               	bsf	(16),0	;volatile
  3512                           opt subtitle "HI-TECH Software Omniscient Code Generator (Lite mode) build 49521"
  3513                           
  3514  0339                     l4555:	
  3515                           opt subtitle "HI-TECH Software Omniscient Code Generator (Lite mode) build 49521"
  3516  0339  160A  118A  239F   	fcall	_adcReadVcap
              120A  118A         
  3517  033E  1683               	bsf	status, 5	;RP0=1, select bank1
  3518  033F  1303               	bcf	status, 6	;RP1=0, select bank1
  3519  0340  00DB               	movwf	(??_main+0)^080h+0
  3520  0341  085B               	movf	(??_main+0)^080h+0,w
  3521  0342  00C7               	movwf	(_value)^080h
  3522                           opt subtitle "HI-TECH Software Omniscient Code Generator (Lite mode) build 49521"
  3523                           
  3524  0343                     l4557:	
  3525                           opt subtitle "HI-TECH Software Omniscient Code Generator (Lite mode) build 49521"
  3526  0343  3011               	movlw	low(STR_6|8000h)
  3527  0344  1283               	bcf	status, 5	;RP0=0, select bank0
  3528  0345  1303               	bcf	status, 6	;RP1=0, select bank0
  3529  0346  00C3               	movwf	(?_printf)
  3530  0347  3091               	movlw	high(STR_6|8000h)
  3531  0348  00C4               	movwf	((?_printf))+1
  3532  0349  0855               	movf	(_sleep_counter),w
  3533  034A  1683               	bsf	status, 5	;RP0=1, select bank1
  3534  034B  1303               	bcf	status, 6	;RP1=0, select bank1
  3535  034C  00DB               	movwf	(??_main+0)^080h+0+0
  3536  034D  01DC               	clrf	(??_main+0)^080h+0+1
  3537  034E  085B               	movf	0+(??_main+0)^080h+0,w
  3538  034F  1283               	bcf	status, 5	;RP0=0, select bank0
  3539  0350  1303               	bcf	status, 6	;RP1=0, select bank0
  3540  0351  00C5               	movwf	0+(?_printf)+02h
  3541  0352  1683               	bsf	status, 5	;RP0=1, select bank1
  3542  0353  1303               	bcf	status, 6	;RP1=0, select bank1
  3543  0354  085C               	movf	1+(??_main+0)^080h+0,w
  3544  0355  1283               	bcf	status, 5	;RP0=0, select bank0
  3545  0356  1303               	bcf	status, 6	;RP1=0, select bank0
  3546  0357  00C6               	movwf	1+(?_printf)+02h
  3547  0358  120A  158A  2600   	fcall	_printf
              120A  118A         
  3548                           opt subtitle "HI-TECH Software Omniscient Code Generator (Lite mode) build 49521"
  3549                           
  3550  035D                     l4559:	
  3551                           opt subtitle "HI-TECH Software Omniscient Code Generator (Lite mode) build 49521"
  3552  035D  1683               	bsf	status, 5	;RP0=1, select bank3
  3553  035E  1703               	bsf	status, 6	;RP1=1, select bank3
  3554  035F  0194               	clrf	(main@num_sleep)^0180h
  3555                           opt subtitle "HI-TECH Software Omniscient Code Generator (Lite mode) build 49521"
  3556                           
  3557  0360  2BE1               	goto	l4567
  3558                           opt subtitle "HI-TECH Software Omniscient Code Generator (Lite mode) build 49521"
  3559  0361                     l187:	
  3560                           opt subtitle "HI-TECH Software Omniscient Code Generator (Lite mode) build 49521"
  3561                           
  3562  0361                     l4561:	
  3563                           opt subtitle "HI-TECH Software Omniscient Code Generator (Lite mode) build 49521"
  3564  0361  304D               	movlw	low(STR_7|8000h)
  3565  0362  1283               	bcf	status, 5	;RP0=0, select bank0
  3566  0363  1303               	bcf	status, 6	;RP1=0, select bank0
  3567  0364  00C3               	movwf	(?_printf)
  3568  0365  3091               	movlw	high(STR_7|8000h)
  3569  0366  00C4               	movwf	((?_printf))+1
  3570  0367  1683               	bsf	status, 5	;RP0=1, select bank3
  3571  0368  1703               	bsf	status, 6	;RP1=1, select bank3
  3572  0369  0814               	movf	(main@num_sleep)^0180h,w
  3573  036A  1683               	bsf	status, 5	;RP0=1, select bank1
  3574  036B  1303               	bcf	status, 6	;RP1=0, select bank1
  3575  036C  00DB               	movwf	(??_main+0)^080h+0+0
  3576  036D  01DC               	clrf	(??_main+0)^080h+0+1
  3577  036E  085B               	movf	0+(??_main+0)^080h+0,w
  3578  036F  1283               	bcf	status, 5	;RP0=0, select bank0
  3579  0370  1303               	bcf	status, 6	;RP1=0, select bank0
  3580  0371  00C5               	movwf	0+(?_printf)+02h
  3581  0372  1683               	bsf	status, 5	;RP0=1, select bank1
  3582  0373  1303               	bcf	status, 6	;RP1=0, select bank1
  3583  0374  085C               	movf	1+(??_main+0)^080h+0,w
  3584  0375  1283               	bcf	status, 5	;RP0=0, select bank0
  3585  0376  1303               	bcf	status, 6	;RP1=0, select bank0
  3586  0377  00C6               	movwf	1+(?_printf)+02h
  3587  0378  1683               	bsf	status, 5	;RP0=1, select bank1
  3588  0379  1303               	bcf	status, 6	;RP1=0, select bank1
  3589  037A  0846               	movf	(_sleep_count)^080h,w
  3590  037B  00DD               	movwf	(??_main+2)^080h+0+0
  3591  037C  01DE               	clrf	(??_main+2)^080h+0+1
  3592  037D  085D               	movf	0+(??_main+2)^080h+0,w
  3593  037E  1283               	bcf	status, 5	;RP0=0, select bank0
  3594  037F  1303               	bcf	status, 6	;RP1=0, select bank0
  3595  0380  00C7               	movwf	0+(?_printf)+04h
  3596  0381  1683               	bsf	status, 5	;RP0=1, select bank1
  3597  0382  1303               	bcf	status, 6	;RP1=0, select bank1
  3598  0383  085E               	movf	1+(??_main+2)^080h+0,w
  3599  0384  1283               	bcf	status, 5	;RP0=0, select bank0
  3600  0385  1303               	bcf	status, 6	;RP1=0, select bank0
  3601  0386  00C8               	movwf	1+(?_printf)+04h
  3602  0387  120A  158A  2600   	fcall	_printf
              120A  118A         
  3603                           opt subtitle "HI-TECH Software Omniscient Code Generator (Lite mode) build 49521"
  3604                           
  3605  038C                     l4563:	
  3606                           opt subtitle "HI-TECH Software Omniscient Code Generator (Lite mode) build 49521"
  3607  038C  120A  158A  22EC   	fcall	_sleep
              120A  118A         
  3608                           opt subtitle "HI-TECH Software Omniscient Code Generator (Lite mode) build 49521"
  3609                           
  3610  0391                     l4565:	
  3611                           opt subtitle "HI-TECH Software Omniscient Code Generator (Lite mode) build 49521"
  3612  0391  1683               	bsf	status, 5	;RP0=1, select bank1
  3613  0392  1303               	bcf	status, 6	;RP1=0, select bank1
  3614  0393  0846               	movf	(_sleep_count)^080h,w
  3615  0394  00DB               	movwf	(??_main+0)^080h+0+0
  3616  0395  01DC               	clrf	(??_main+0)^080h+0+1
  3617  0396  085B               	movf	0+(??_main+0)^080h+0,w
  3618  0397  1283               	bcf	status, 5	;RP0=0, select bank0
  3619  0398  1303               	bcf	status, 6	;RP1=0, select bank0
  3620  0399  00BB               	movwf	(?___awdiv)
  3621  039A  1683               	bsf	status, 5	;RP0=1, select bank1
  3622  039B  1303               	bcf	status, 6	;RP1=0, select bank1
  3623  039C  085C               	movf	1+(??_main+0)^080h+0,w
  3624  039D  1283               	bcf	status, 5	;RP0=0, select bank0
  3625  039E  1303               	bcf	status, 6	;RP1=0, select bank0
  3626  039F  00BC               	movwf	(?___awdiv+1)
  3627  03A0  1683               	bsf	status, 5	;RP0=1, select bank1
  3628  03A1  1303               	bcf	status, 6	;RP1=0, select bank1
  3629  03A2  0845               	movf	0+(_values)^080h+01h,w
  3630  03A3  00DD               	movwf	(??_main+2)^080h+0+0
  3631  03A4  01DE               	clrf	(??_main+2)^080h+0+1
  3632  03A5  09DD               	comf	(??_main+2)^080h+0,f
  3633  03A6  09DE               	comf	(??_main+2)^080h+1,f
  3634  03A7  0ADD               	incf	(??_main+2)^080h+0,f
  3635  03A8  1903               	skipnz
  3636  03A9  0ADE               	incf	(??_main+2)^080h+1,f
  3637  03AA  0844               	movf	(_values)^080h,w
  3638  03AB  075D               	addwf	0+(??_main+2)^080h+0,w
  3639  03AC  1283               	bcf	status, 5	;RP0=0, select bank0
  3640  03AD  1303               	bcf	status, 6	;RP1=0, select bank0
  3641  03AE  00B5               	movwf	(?___wmul)
  3642  03AF  1683               	bsf	status, 5	;RP0=1, select bank1
  3643  03B0  1303               	bcf	status, 6	;RP1=0, select bank1
  3644  03B1  085E               	movf	1+(??_main+2)^080h+0,w
  3645  03B2  1803               	skipnc
  3646  03B3  0A5E               	incf	1+(??_main+2)^080h+0,w
  3647  03B4  1283               	bcf	status, 5	;RP0=0, select bank0
  3648  03B5  1303               	bcf	status, 6	;RP1=0, select bank0
  3649  03B6  00B6               	movwf	((?___wmul))+1
  3650  03B7  1683               	bsf	status, 5	;RP0=1, select bank1
  3651  03B8  1303               	bcf	status, 6	;RP1=0, select bank1
  3652  03B9  0844               	movf	(_values)^080h,w
  3653  03BA  0745               	addwf	0+(_values)^080h+01h,w
  3654  03BB  1283               	bcf	status, 5	;RP0=0, select bank0
  3655  03BC  1303               	bcf	status, 6	;RP1=0, select bank0
  3656  03BD  00B7               	movwf	0+(?___wmul)+02h
  3657  03BE  01B8               	clrf	0+(?___wmul)+02h+1
  3658  03BF  0DB8               	rlf	1+0+(?___wmul)+02h,f
  3659                           opt subtitle "HI-TECH Software Omniscient Code Generator (Lite mode) build 49521"
  3660  03C0  160A  118A  23CA   	fcall	___wmul
              120A  118A         
  3661  03C5  1283               	bcf	status, 5	;RP0=0, select bank0
  3662  03C6  1303               	bcf	status, 6	;RP1=0, select bank0
  3663  03C7  0836               	movf	(1+(?___wmul)),w
  3664  03C8  01BE               	clrf	1+(?___awdiv)+02h
  3665  03C9  07BE               	addwf	1+(?___awdiv)+02h
  3666  03CA  0835               	movf	(0+(?___wmul)),w
  3667  03CB  01BD               	clrf	0+(?___awdiv)+02h
  3668  03CC  07BD               	addwf	0+(?___awdiv)+02h
  3669                           opt subtitle "HI-TECH Software Omniscient Code Generator (Lite mode) build 49521"
  3670  03CD  160A  118A  25CB   	fcall	___awdiv
              120A  118A         
  3671  03D2  1283               	bcf	status, 5	;RP0=0, select bank0
  3672  03D3  1303               	bcf	status, 6	;RP1=0, select bank0
  3673  03D4  083B               	movf	(0+(?___awdiv)),w
  3674  03D5  1683               	bsf	status, 5	;RP0=1, select bank1
  3675  03D6  1303               	bcf	status, 6	;RP1=0, select bank1
  3676  03D7  07C0               	addwf	(_energy)^080h,f
  3677  03D8  1803               	skipnc
  3678  03D9  0AC1               	incf	(_energy+1)^080h,f
  3679  03DA  1283               	bcf	status, 5	;RP0=0, select bank0
  3680  03DB  1303               	bcf	status, 6	;RP1=0, select bank0
  3681  03DC  083C               	movf	(1+(?___awdiv)),w
  3682  03DD  1683               	bsf	status, 5	;RP0=1, select bank1
  3683  03DE  1303               	bcf	status, 6	;RP1=0, select bank1
  3684  03DF  07C1               	addwf	(_energy+1)^080h,f
  3685  03E0  2BE1               	goto	l4567
  3686                           opt subtitle "HI-TECH Software Omniscient Code Generator (Lite mode) build 49521"
  3687                           
  3688  03E1                     l186:	
  3689                           opt subtitle "HI-TECH Software Omniscient Code Generator (Lite mode) build 49521"
  3690                           
  3691  03E1                     l4567:	
  3692  03E1  3001               	movlw	01h
  3693  03E2  1683               	bsf	status, 5	;RP0=1, select bank3
  3694  03E3  1703               	bsf	status, 6	;RP1=1, select bank3
  3695  03E4  0794               	addwf	(main@num_sleep)^0180h,f
  3696  03E5  30FF               	movlw	-01h
  3697  03E6  0714               	addwf	(main@num_sleep)^0180h,w
  3698  03E7  1683               	bsf	status, 5	;RP0=1, select bank1
  3699  03E8  1303               	bcf	status, 6	;RP1=0, select bank1
  3700  03E9  00DB               	movwf	(??_main+0)^080h+0
  3701  03EA  0846               	movf	(_sleep_count)^080h,w
  3702  03EB  025B               	subwf	(??_main+0)^080h+0,w
  3703  03EC  1C03               	skipc
  3704  03ED  2BEF               	goto	u4471
  3705  03EE  2BF0               	goto	u4470
  3706  03EF                     u4471:
  3707  03EF  2B61               	goto	l4561
  3708  03F0                     u4470:
  3709  03F0  2BF1               	goto	l4569
  3710                           opt subtitle "HI-TECH Software Omniscient Code Generator (Lite mode) build 49521"
  3711  03F1                     l188:	
  3712                           opt subtitle "HI-TECH Software Omniscient Code Generator (Lite mode) build 49521"
  3713                           
  3714  03F1                     l4569:	
  3715                           opt subtitle "HI-TECH Software Omniscient Code Generator (Lite mode) build 49521"
  3716                           
  3717  03F1  3001               	movlw	low(01h)
  3718  03F2  07C2               	addwf	(_timelapse_count)^080h,f
  3719  03F3  1803               	skipnc
  3720  03F4  0AC3               	incf	(_timelapse_count+1)^080h,f
  3721  03F5  3000               	movlw	high(01h)
  3722  03F6  07C3               	addwf	(_timelapse_count+1)^080h,f
  3723  03F7  299E               	goto	l4473
  3724                           opt subtitle "HI-TECH Software Omniscient Code Generator (Lite mode) build 49521"
  3725                           
  3726  03F8                     l189:	
  3727                           opt subtitle "HI-TECH Software Omniscient Code Generator (Lite mode) build 49521"
  3728  03F8  299E               	goto	l4473
  3729                           opt subtitle "HI-TECH Software Omniscient Code Generator (Lite mode) build 49521"
  3730  03F9                     l190:	
  3731                           opt subtitle "HI-TECH Software Omniscient Code Generator (Lite mode) build 49521"
  3732                           
  3733                           opt pagewidth 120
  3734                           
  3735                           	opt lm
  3736  03F9                     l191:	
  3737                           opt subtitle "HI-TECH Software Omniscient Code Generator (Lite mode) build 49521"
  3738  03F9  120A  118A  2812   	ljmp	start
  3739                           opt subtitle "HI-TECH Software Omniscient Code Generator (Lite mode) build 49521"
  3740                           
  3741  03FC                     	__end_of_main:
  3742                           opt subtitle "HI-TECH Software Omniscient Code Generator (Lite mode) build 49521"
  3743                           
  3744                           opt pagewidth 120
  3745                           
  3746                           	opt lm
  3747                           
  3748                           	processor	16LF707
  3749                           clrc	macro
  3750                           	bcf	3,0
  3751                           	endm
  3752                           clrz	macro
  3753                           	bcf	3,2
  3754                           	endm
  3755                           setc	macro
  3756                           	bsf	3,0
  3757                           	endm
  3758                           setz	macro
  3759                           	bsf	3,2
  3760                           	endm
  3761                           skipc	macro
  3762                           	btfss	3,0
  3763                           	endm
  3764                           skipz	macro
  3765                           	btfss	3,2
  3766                           	endm
  3767                           skipnc	macro
  3768                           	btfsc	3,0
  3769                           	endm
  3770                           skipnz	macro
  3771                           	btfsc	3,2
  3772                           	endm
  3773                           indf	equ	0
  3774                           indf0	equ	0
  3775                           pc	equ	2
  3776  127D                     __ptext1281:	;psect for function _spiInit
  3777                           opt subtitle "HI-TECH Software Omniscient Code Generator (Lite mode) build 49521"
  3778                           
  3779                           opt pagewidth 120
  3780                           
  3781  0018                     	__size_of_spiInit	equ	__end_of_spiInit-_spiInit
  3782                           opt subtitle "HI-TECH Software Omniscient Code Generator (Lite mode) build 49521"
  3783  127D                     _spiInit:	
  3784                           opt subtitle "HI-TECH Software Omniscient Code Generator (Lite mode) build 49521"
  3785                           
  3786                           opt pagewidth 120
  3787                           
  3788  127D                     l4571:	
  3789                           opt subtitle "HI-TECH Software Omniscient Code Generator (Lite mode) build 49521"
  3790  127D  1283               	bcf	status, 5	;RP0=0, select bank0
  3791  127E  1303               	bcf	status, 6	;RP1=0, select bank0
  3792  127F  1694               	bsf	(20),5	;volatile
  3793                           opt subtitle "HI-TECH Software Omniscient Code Generator (Lite mode) build 49521"
  3794                           
  3795  1280  1214               	bcf	(20),4	;volatile
  3796                           opt subtitle "HI-TECH Software Omniscient Code Generator (Lite mode) build 49521"
  3797                           
  3798  1281                     l4573:	
  3799                           opt subtitle "HI-TECH Software Omniscient Code Generator (Lite mode) build 49521"
  3800  1281  0814               	movf	(20),w	;volatile
  3801  1282  39F0               	andlw	not (((1<<4)-1)<<0)
  3802  1283  3802               	iorlw	(02h & ((1<<4)-1))<<0
  3803  1284  0094               	movwf	(20)	;volatile
  3804                           opt subtitle "HI-TECH Software Omniscient Code Generator (Lite mode) build 49521"
  3805                           
  3806  1285                     l4575:	
  3807                           opt subtitle "HI-TECH Software Omniscient Code Generator (Lite mode) build 49521"
  3808  1285  1683               	bsf	status, 5	;RP0=1, select bank1
  3809  1286  1303               	bcf	status, 6	;RP1=0, select bank1
  3810  1287  1394               	bcf	(148)^080h,7	;volatile
  3811                           opt subtitle "HI-TECH Software Omniscient Code Generator (Lite mode) build 49521"
  3812                           
  3813  1288                     l4577:	
  3814                           opt subtitle "HI-TECH Software Omniscient Code Generator (Lite mode) build 49521"
  3815  1288  1714               	bsf	(148)^080h,6	;volatile
  3816                           opt subtitle "HI-TECH Software Omniscient Code Generator (Lite mode) build 49521"
  3817                           
  3818  1289                     l4579:	
  3819                           opt subtitle "HI-TECH Software Omniscient Code Generator (Lite mode) build 49521"
  3820                           
  3821  1289  3082               movlw	130
  3822  128A  1283               	bcf	status, 5	;RP0=0, select bank0
  3823  128B  1303               	bcf	status, 6	;RP1=0, select bank0
  3824  128C  00B6               movwf	((??_spiInit+0)+0+1),f
  3825  128D  30DD               	movlw	221
  3826  128E  00B5               movwf	((??_spiInit+0)+0),f
  3827  128F                     u5897:
  3828  128F  0BB5               	decfsz	((??_spiInit+0)+0),f
  3829  1290  2A8F               	goto	u5897
  3830  1291  0BB6               	decfsz	((??_spiInit+0)+0+1),f
  3831  1292  2A8F               	goto	u5897
  3832  1293  2A94               	nop2
  3833                           opt subtitle "HI-TECH Software Omniscient Code Generator (Lite mode) build 49521"
  3834                           
  3835                           opt pagewidth 120
  3836                           
  3837  1294                     l242:	
  3838  1294  0008               	return
  3839                           opt subtitle "HI-TECH Software Omniscient Code Generator (Lite mode) build 49521"
  3840                           
  3841  1295                     	__end_of_spiInit:
  3842                           opt subtitle "HI-TECH Software Omniscient Code Generator (Lite mode) build 49521"
  3843                           
  3844                           opt pagewidth 120
  3845                           
  3846                           	opt lm
  3847                           
  3848                           	processor	16LF707
  3849                           clrc	macro
  3850                           	bcf	3,0
  3851                           	endm
  3852                           clrz	macro
  3853                           	bcf	3,2
  3854                           	endm
  3855                           setc	macro
  3856                           	bsf	3,0
  3857                           	endm
  3858                           setz	macro
  3859                           	bsf	3,2
  3860                           	endm
  3861                           skipc	macro
  3862                           	btfss	3,0
  3863                           	endm
  3864                           skipz	macro
  3865                           	btfss	3,2
  3866                           	endm
  3867                           skipnc	macro
  3868                           	btfsc	3,0
  3869                           	endm
  3870                           skipnz	macro
  3871                           	btfsc	3,2
  3872                           	endm
  3873                           indf	equ	0
  3874                           indf0	equ	0
  3875                           pc	equ	2
  3876  1267                     __ptext1282:	;psect for function _uartInit
  3877                           opt subtitle "HI-TECH Software Omniscient Code Generator (Lite mode) build 49521"
  3878                           
  3879                           opt pagewidth 120
  3880                           
  3881  0016                     	__size_of_uartInit	equ	__end_of_uartInit-_uartInit
  3882                           opt subtitle "HI-TECH Software Omniscient Code Generator (Lite mode) build 49521"
  3883  1267                     _uartInit:	
  3884                           opt subtitle "HI-TECH Software Omniscient Code Generator (Lite mode) build 49521"
  3885                           
  3886                           opt pagewidth 120
  3887                           
  3888  1267                     l4581:	
  3889                           opt subtitle "HI-TECH Software Omniscient Code Generator (Lite mode) build 49521"
  3890  1267  1683               	bsf	status, 5	;RP0=1, select bank1
  3891  1268  1303               	bcf	status, 6	;RP1=0, select bank1
  3892  1269  1787               	bsf	(135)^080h,7	;volatile
  3893                           opt subtitle "HI-TECH Software Omniscient Code Generator (Lite mode) build 49521"
  3894                           
  3895  126A  1307               	bcf	(135)^080h,6	;volatile
  3896                           opt subtitle "HI-TECH Software Omniscient Code Generator (Lite mode) build 49521"
  3897                           
  3898  126B                     l4583:	
  3899                           opt subtitle "HI-TECH Software Omniscient Code Generator (Lite mode) build 49521"
  3900  126B  3002               	movlw	(02h)
  3901  126C  0098               	movwf	(152)^080h	;volatile
  3902                           opt subtitle "HI-TECH Software Omniscient Code Generator (Lite mode) build 49521"
  3903                           
  3904  126D                     l4585:	
  3905                           opt subtitle "HI-TECH Software Omniscient Code Generator (Lite mode) build 49521"
  3906  126D  1283               	bcf	status, 5	;RP0=0, select bank0
  3907  126E  1303               	bcf	status, 6	;RP1=0, select bank0
  3908  126F  0198               	clrf	(24)	;volatile
  3909                           opt subtitle "HI-TECH Software Omniscient Code Generator (Lite mode) build 49521"
  3910                           
  3911  1270                     l4587:	
  3912                           opt subtitle "HI-TECH Software Omniscient Code Generator (Lite mode) build 49521"
  3913  1270  1683               	bsf	status, 5	;RP0=1, select bank1
  3914  1271  1303               	bcf	status, 6	;RP1=0, select bank1
  3915  1272  1118               	bcf	(152)^080h,2	;volatile
  3916                           opt subtitle "HI-TECH Software Omniscient Code Generator (Lite mode) build 49521"
  3917                           
  3918  1273                     l4589:	
  3919                           opt subtitle "HI-TECH Software Omniscient Code Generator (Lite mode) build 49521"
  3920  1273  1218               	bcf	(152)^080h,4	;volatile
  3921                           opt subtitle "HI-TECH Software Omniscient Code Generator (Lite mode) build 49521"
  3922                           
  3923  1274                     l4591:	
  3924                           opt subtitle "HI-TECH Software Omniscient Code Generator (Lite mode) build 49521"
  3925  1274  300C               	movlw	(0Ch)
  3926  1275  0099               	movwf	(153)^080h	;volatile
  3927                           opt subtitle "HI-TECH Software Omniscient Code Generator (Lite mode) build 49521"
  3928                           
  3929  1276                     l4593:	
  3930                           opt subtitle "HI-TECH Software Omniscient Code Generator (Lite mode) build 49521"
  3931  1276  1283               	bcf	status, 5	;RP0=0, select bank0
  3932  1277  1303               	bcf	status, 6	;RP1=0, select bank0
  3933  1278  1798               	bsf	(24),7	;volatile
  3934                           opt subtitle "HI-TECH Software Omniscient Code Generator (Lite mode) build 49521"
  3935                           
  3936  1279                     l4595:	
  3937                           opt subtitle "HI-TECH Software Omniscient Code Generator (Lite mode) build 49521"
  3938  1279  1683               	bsf	status, 5	;RP0=1, select bank1
  3939  127A  1303               	bcf	status, 6	;RP1=0, select bank1
  3940  127B  1698               	bsf	(152)^080h,5	;volatile
  3941                           opt subtitle "HI-TECH Software Omniscient Code Generator (Lite mode) build 49521"
  3942                           
  3943  127C                     l239:	
  3944  127C  0008               	return
  3945                           opt subtitle "HI-TECH Software Omniscient Code Generator (Lite mode) build 49521"
  3946                           
  3947  127D                     	__end_of_uartInit:
  3948                           opt subtitle "HI-TECH Software Omniscient Code Generator (Lite mode) build 49521"
  3949                           
  3950                           opt pagewidth 120
  3951                           
  3952                           	opt lm
  3953                           
  3954                           	processor	16LF707
  3955                           clrc	macro
  3956                           	bcf	3,0
  3957                           	endm
  3958                           clrz	macro
  3959                           	bcf	3,2
  3960                           	endm
  3961                           setc	macro
  3962                           	bsf	3,0
  3963                           	endm
  3964                           setz	macro
  3965                           	bsf	3,2
  3966                           	endm
  3967                           skipc	macro
  3968                           	btfss	3,0
  3969                           	endm
  3970                           skipz	macro
  3971                           	btfss	3,2
  3972                           	endm
  3973                           skipnc	macro
  3974                           	btfsc	3,0
  3975                           	endm
  3976                           skipnz	macro
  3977                           	btfsc	3,2
  3978                           	endm
  3979                           indf	equ	0
  3980                           indf0	equ	0
  3981                           pc	equ	2
  3982  120F                     __ptext1283:	;psect for function _adcInit
  3983                           opt subtitle "HI-TECH Software Omniscient Code Generator (Lite mode) build 49521"
  3984                           
  3985                           opt pagewidth 120
  3986                           
  3987  000A                     	__size_of_adcInit	equ	__end_of_adcInit-_adcInit
  3988                           opt subtitle "HI-TECH Software Omniscient Code Generator (Lite mode) build 49521"
  3989  120F                     _adcInit:	
  3990                           opt subtitle "HI-TECH Software Omniscient Code Generator (Lite mode) build 49521"
  3991                           
  3992                           opt pagewidth 120
  3993                           
  3994  120F                     l4597:	
  3995                           opt subtitle "HI-TECH Software Omniscient Code Generator (Lite mode) build 49521"
  3996  120F  1683               	bsf	status, 5	;RP0=1, select bank1
  3997  1210  1303               	bcf	status, 6	;RP1=0, select bank1
  3998  1211  081F               	movf	(159)^080h,w	;volatile
  3999  1212  398F               	andlw	not (((1<<3)-1)<<4)
  4000  1213  3810               	iorlw	(01h & ((1<<3)-1))<<4
  4001  1214  009F               	movwf	(159)^080h	;volatile
  4002                           opt subtitle "HI-TECH Software Omniscient Code Generator (Lite mode) build 49521"
  4003                           
  4004  1215  3003               	movlw	(03h & ((1<<2)-1))<<0
  4005  1216  049F               	iorwf	(159)^080h,f	;volatile
  4006                           opt subtitle "HI-TECH Software Omniscient Code Generator (Lite mode) build 49521"
  4007                           
  4008  1217                     l4599:	
  4009                           opt subtitle "HI-TECH Software Omniscient Code Generator (Lite mode) build 49521"
  4010  1217  171D               	bsf	(157)^080h,6	;volatile
  4011                           opt subtitle "HI-TECH Software Omniscient Code Generator (Lite mode) build 49521"
  4012                           
  4013  1218                     l245:	
  4014  1218  0008               	return
  4015                           opt subtitle "HI-TECH Software Omniscient Code Generator (Lite mode) build 49521"
  4016                           
  4017  1219                     	__end_of_adcInit:
  4018                           opt subtitle "HI-TECH Software Omniscient Code Generator (Lite mode) build 49521"
  4019                           
  4020                           opt pagewidth 120
  4021                           
  4022                           	opt lm
  4023                           
  4024                           	processor	16LF707
  4025                           clrc	macro
  4026                           	bcf	3,0
  4027                           	endm
  4028                           clrz	macro
  4029                           	bcf	3,2
  4030                           	endm
  4031                           setc	macro
  4032                           	bsf	3,0
  4033                           	endm
  4034                           setz	macro
  4035                           	bsf	3,2
  4036                           	endm
  4037                           skipc	macro
  4038                           	btfss	3,0
  4039                           	endm
  4040                           skipz	macro
  4041                           	btfss	3,2
  4042                           	endm
  4043                           skipnc	macro
  4044                           	btfsc	3,0
  4045                           	endm
  4046                           skipnz	macro
  4047                           	btfsc	3,2
  4048                           	endm
  4049                           indf	equ	0
  4050                           indf0	equ	0
  4051                           pc	equ	2
  4052                           pcl	equ	2
  4053                           status	equ	3
  4054  1326                     __ptext1284:	;psect for function _rfm70setPowerdownMode
  4055                           opt subtitle "HI-TECH Software Omniscient Code Generator (Lite mode) build 49521"
  4056                           
  4057                           opt pagewidth 120
  4058                           
  4059  0025                     	__size_of_rfm70setPowerdownMode	equ	__end_of_rfm70setPowerdownMode-_rfm70setPowerdownMo
                                 de
  4060                           opt subtitle "HI-TECH Software Omniscient Code Generator (Lite mode) build 49521"
  4061  1326                     _rfm70setPowerdownMode:	
  4062                           opt subtitle "HI-TECH Software Omniscient Code Generator (Lite mode) build 49521"
  4063                           
  4064                           opt pagewidth 120
  4065                           
  4066  1326  1283               	bcf	status, 5	;RP0=0, select bank0
  4067  1327  1303               	bcf	status, 6	;RP1=0, select bank0
  4068  1328  00BC               	movwf	(rfm70setPowerdownMode@value)
  4069                           opt subtitle "HI-TECH Software Omniscient Code Generator (Lite mode) build 49521"
  4070  1329                     l4601:	
  4071                           opt subtitle "HI-TECH Software Omniscient Code Generator (Lite mode) build 49521"
  4072                           
  4073  1329  3000               	movlw	(0)
  4074  132A  160A  118A  22AE   	fcall	_SPI_Read_Reg
              160A  118A         
  4075  132F  1283               	bcf	status, 5	;RP0=0, select bank0
  4076  1330  1303               	bcf	status, 6	;RP1=0, select bank0
  4077  1331  00BB               	movwf	(??_rfm70setPowerdownMode+0)+0
  4078  1332  083B               	movf	(??_rfm70setPowerdownMode+0)+0,w
  4079  1333  00BD               	movwf	(rfm70setPowerdownMode@reg)
  4080                           opt subtitle "HI-TECH Software Omniscient Code Generator (Lite mode) build 49521"
  4081                           
  4082  1334                     l4603:	
  4083                           opt subtitle "HI-TECH Software Omniscient Code Generator (Lite mode) build 49521"
  4084  1334  08BC               	movf	(rfm70setPowerdownMode@value),f
  4085  1335  1D03               	skipz
  4086  1336  2B38               	goto	u4481
  4087  1337  2B39               	goto	u4480
  4088  1338                     u4481:
  4089  1338  2B3E               	goto	l399
  4090  1339                     u4480:
  4091                           opt subtitle "HI-TECH Software Omniscient Code Generator (Lite mode) build 49521"
  4092                           
  4093  1339                     l4605:	
  4094                           opt subtitle "HI-TECH Software Omniscient Code Generator (Lite mode) build 49521"
  4095  1339  30FD               	movlw	(0FDh)
  4096  133A  00BB               	movwf	(??_rfm70setPowerdownMode+0)+0
  4097  133B  083B               	movf	(??_rfm70setPowerdownMode+0)+0,w
  4098  133C  05BD               	andwf	(rfm70setPowerdownMode@reg),f
  4099                           opt subtitle "HI-TECH Software Omniscient Code Generator (Lite mode) build 49521"
  4100                           
  4101  133D  2B40               	goto	l4607
  4102                           opt subtitle "HI-TECH Software Omniscient Code Generator (Lite mode) build 49521"
  4103                           
  4104  133E                     l399:	
  4105                           opt subtitle "HI-TECH Software Omniscient Code Generator (Lite mode) build 49521"
  4106                           
  4107                           opt pagewidth 120
  4108  133E  14BD               	bsf	(rfm70setPowerdownMode@reg)+(1/8),(1)&7
  4109  133F  2B40               	goto	l4607
  4110                           opt subtitle "HI-TECH Software Omniscient Code Generator (Lite mode) build 49521"
  4111                           
  4112  1340                     l400:	
  4113                           opt subtitle "HI-TECH Software Omniscient Code Generator (Lite mode) build 49521"
  4114                           
  4115  1340                     l4607:	
  4116                           opt subtitle "HI-TECH Software Omniscient Code Generator (Lite mode) build 49521"
  4117                           
  4118  1340  083D               	movf	(rfm70setPowerdownMode@reg),w
  4119  1341  00BB               	movwf	(??_rfm70setPowerdownMode+0)+0
  4120  1342  083B               	movf	(??_rfm70setPowerdownMode+0)+0,w
  4121  1343  00B8               	movwf	(?_SPI_Write_Reg)
  4122  1344  3020               	movlw	(020h)
  4123  1345  160A  118A  2251   	fcall	_SPI_Write_Reg
              160A  118A         
  4124                           opt subtitle "HI-TECH Software Omniscient Code Generator (Lite mode) build 49521"
  4125                           
  4126  134A                     l401:	
  4127  134A  0008               	return
  4128                           opt subtitle "HI-TECH Software Omniscient Code Generator (Lite mode) build 49521"
  4129                           
  4130  134B                     	__end_of_rfm70setPowerdownMode:
  4131                           opt subtitle "HI-TECH Software Omniscient Code Generator (Lite mode) build 49521"
  4132                           
  4133                           opt pagewidth 120
  4134                           
  4135                           	opt lm
  4136                           
  4137                           	processor	16LF707
  4138                           clrc	macro
  4139                           	bcf	3,0
  4140                           	endm
  4141                           clrz	macro
  4142                           	bcf	3,2
  4143                           	endm
  4144                           setc	macro
  4145                           	bsf	3,0
  4146                           	endm
  4147                           setz	macro
  4148                           	bsf	3,2
  4149                           	endm
  4150                           skipc	macro
  4151                           	btfss	3,0
  4152                           	endm
  4153                           skipz	macro
  4154                           	btfss	3,2
  4155                           	endm
  4156                           skipnc	macro
  4157                           	btfsc	3,0
  4158                           	endm
  4159                           skipnz	macro
  4160                           	btfsc	3,2
  4161                           	endm
  4162                           indf	equ	0
  4163                           indf0	equ	0
  4164                           pc	equ	2
  4165  1455                     __ptext1285:	;psect for function _adcReadVsupercap
  4166                           opt subtitle "HI-TECH Software Omniscient Code Generator (Lite mode) build 49521"
  4167                           
  4168                           opt pagewidth 120
  4169                           
  4170  0030                     	__size_of_adcReadVsupercap	equ	__end_of_adcReadVsupercap-_adcReadVsupercap
  4171                           opt subtitle "HI-TECH Software Omniscient Code Generator (Lite mode) build 49521"
  4172  1455                     _adcReadVsupercap:	
  4173                           opt subtitle "HI-TECH Software Omniscient Code Generator (Lite mode) build 49521"
  4174                           
  4175                           opt pagewidth 120
  4176                           
  4177  1455                     l4627:	
  4178                           opt subtitle "HI-TECH Software Omniscient Code Generator (Lite mode) build 49521"
  4179                           
  4180  1455  1283               	bcf	status, 5	;RP0=0, select bank0
  4181  1456  1303               	bcf	status, 6	;RP1=0, select bank0
  4182  1457  081F               	movf	(31),w	;volatile
  4183  1458  39C3               	andlw	not (((1<<4)-1)<<2)
  4184  1459  3818               	iorlw	(06h & ((1<<4)-1))<<2
  4185  145A  009F               	movwf	(31)	;volatile
  4186                           opt subtitle "HI-TECH Software Omniscient Code Generator (Lite mode) build 49521"
  4187                           
  4188  145B  1683               	bsf	status, 5	;RP0=1, select bank1
  4189  145C  1303               	bcf	status, 6	;RP1=0, select bank1
  4190  145D  081D               	movf	(157)^080h,w	;volatile
  4191  145E  39FC               	andlw	not (((1<<2)-1)<<0)
  4192  145F  3801               	iorlw	(01h & ((1<<2)-1))<<0
  4193  1460  009D               	movwf	(157)^080h	;volatile
  4194                           opt subtitle "HI-TECH Software Omniscient Code Generator (Lite mode) build 49521"
  4195                           
  4196  1461  2C62               	goto	l219
  4197                           opt subtitle "HI-TECH Software Omniscient Code Generator (Lite mode) build 49521"
  4198  1462                     l220:	
  4199                           opt subtitle "HI-TECH Software Omniscient Code Generator (Lite mode) build 49521"
  4200  1462                     l219:	
  4201  1462  1F9D               	btfss	(157)^080h,7	;volatile
  4202  1463  2C65               	goto	u4501
  4203  1464  2C66               	goto	u4500
  4204  1465                     u4501:
  4205  1465  2C62               	goto	l219
  4206  1466                     u4500:
  4207                           opt subtitle "HI-TECH Software Omniscient Code Generator (Lite mode) build 49521"
  4208  1466                     l221:	
  4209                           opt subtitle "HI-TECH Software Omniscient Code Generator (Lite mode) build 49521"
  4210                           
  4211  1466  1283               	bcf	status, 5	;RP0=0, select bank0
  4212  1467  1303               	bcf	status, 6	;RP1=0, select bank0
  4213  1468  141F               	bsf	(31),0	;volatile
  4214                           opt subtitle "HI-TECH Software Omniscient Code Generator (Lite mode) build 49521"
  4215                           
  4216  1469  1608               	bsf	(8),4	;volatile
  4217                           opt subtitle "HI-TECH Software Omniscient Code Generator (Lite mode) build 49521"
  4218                           
  4219  146A                     l4629:	
  4220                           opt subtitle "HI-TECH Software Omniscient Code Generator (Lite mode) build 49521"
  4221                           
  4222  146A  3003               movlw	3
  4223  146B  00B6               movwf	((??_adcReadVsupercap+0)+0+1),f
  4224  146C  3097               	movlw	151
  4225  146D  00B5               movwf	((??_adcReadVsupercap+0)+0),f
  4226  146E                     u5907:
  4227  146E  0BB5               	decfsz	((??_adcReadVsupercap+0)+0),f
  4228  146F  2C6E               	goto	u5907
  4229  1470  0BB6               	decfsz	((??_adcReadVsupercap+0)+0+1),f
  4230  1471  2C6E               	goto	u5907
  4231  1472  2C73               	nop2
  4232                           opt subtitle "HI-TECH Software Omniscient Code Generator (Lite mode) build 49521"
  4233                           
  4234                           opt pagewidth 120
  4235                           
  4236  1473                     l4631:	
  4237                           opt subtitle "HI-TECH Software Omniscient Code Generator (Lite mode) build 49521"
  4238  1473  1283               	bcf	status, 5	;RP0=0, select bank0
  4239  1474  1303               	bcf	status, 6	;RP1=0, select bank0
  4240  1475  149F               	bsf	(31),1	;volatile
  4241                           opt subtitle "HI-TECH Software Omniscient Code Generator (Lite mode) build 49521"
  4242                           
  4243  1476  2C77               	goto	l222
  4244                           opt subtitle "HI-TECH Software Omniscient Code Generator (Lite mode) build 49521"
  4245  1477                     l223:	
  4246                           opt subtitle "HI-TECH Software Omniscient Code Generator (Lite mode) build 49521"
  4247  1477                     l222:	
  4248  1477  189F               	btfsc	(31),1	;volatile
  4249  1478  2C7A               	goto	u4511
  4250  1479  2C7B               	goto	u4510
  4251  147A                     u4511:
  4252  147A  2C77               	goto	l222
  4253  147B                     u4510:
  4254  147B  2C7C               	goto	l4633
  4255                           opt subtitle "HI-TECH Software Omniscient Code Generator (Lite mode) build 49521"
  4256  147C                     l224:	
  4257                           opt subtitle "HI-TECH Software Omniscient Code Generator (Lite mode) build 49521"
  4258                           
  4259  147C                     l4633:	
  4260                           opt subtitle "HI-TECH Software Omniscient Code Generator (Lite mode) build 49521"
  4261  147C  081E               	movf	(30),w	;volatile
  4262  147D  00B5               	movwf	(??_adcReadVsupercap+0)+0
  4263  147E  0835               	movf	(??_adcReadVsupercap+0)+0,w
  4264  147F  00B7               	movwf	(adcReadVsupercap@value)
  4265                           opt subtitle "HI-TECH Software Omniscient Code Generator (Lite mode) build 49521"
  4266                           
  4267  1480                     l4635:	
  4268                           opt subtitle "HI-TECH Software Omniscient Code Generator (Lite mode) build 49521"
  4269  1480  101F               	bcf	(31),0	;volatile
  4270                           opt subtitle "HI-TECH Software Omniscient Code Generator (Lite mode) build 49521"
  4271                           
  4272  1481                     l4637:	
  4273                           opt subtitle "HI-TECH Software Omniscient Code Generator (Lite mode) build 49521"
  4274  1481  1208               	bcf	(8),4	;volatile
  4275                           opt subtitle "HI-TECH Software Omniscient Code Generator (Lite mode) build 49521"
  4276                           
  4277  1482  0837               	movf	(adcReadVsupercap@value),w
  4278  1483  2C84               	goto	l225
  4279                           opt subtitle "HI-TECH Software Omniscient Code Generator (Lite mode) build 49521"
  4280  1484                     l4639:	
  4281                           opt subtitle "HI-TECH Software Omniscient Code Generator (Lite mode) build 49521"
  4282                           
  4283  1484                     l225:	
  4284  1484  0008               	return
  4285                           opt subtitle "HI-TECH Software Omniscient Code Generator (Lite mode) build 49521"
  4286                           
  4287  1485                     	__end_of_adcReadVsupercap:
  4288                           opt subtitle "HI-TECH Software Omniscient Code Generator (Lite mode) build 49521"
  4289                           
  4290                           opt pagewidth 120
  4291                           
  4292                           	opt lm
  4293                           
  4294                           	processor	16LF707
  4295                           clrc	macro
  4296                           	bcf	3,0
  4297                           	endm
  4298                           clrz	macro
  4299                           	bcf	3,2
  4300                           	endm
  4301                           setc	macro
  4302                           	bsf	3,0
  4303                           	endm
  4304                           setz	macro
  4305                           	bsf	3,2
  4306                           	endm
  4307                           skipc	macro
  4308                           	btfss	3,0
  4309                           	endm
  4310                           skipz	macro
  4311                           	btfss	3,2
  4312                           	endm
  4313                           skipnc	macro
  4314                           	btfsc	3,0
  4315                           	endm
  4316                           skipnz	macro
  4317                           	btfsc	3,2
  4318                           	endm
  4319                           indf	equ	0
  4320                           indf0	equ	0
  4321                           pc	equ	2
  4322                           pcl	equ	2
  4323                           status	equ	3
  4324                           fsr	equ	4
  4325                           fsr0	equ	4
  4326                           c	equ	1
  4327  03FC                     __ptext1286:	;psect for function _RFM70_Initialize
  4328                           opt subtitle "HI-TECH Software Omniscient Code Generator (Lite mode) build 49521"
  4329                           
  4330                           opt pagewidth 120
  4331                           
  4332  038C                     	__size_of_RFM70_Initialize	equ	__end_of_RFM70_Initialize-_RFM70_Initialize
  4333                           opt subtitle "HI-TECH Software Omniscient Code Generator (Lite mode) build 49521"
  4334  03FC                     _RFM70_Initialize:	
  4335                           opt subtitle "HI-TECH Software Omniscient Code Generator (Lite mode) build 49521"
  4336                           
  4337                           opt pagewidth 120
  4338                           
  4339  03FC                     l4641:	
  4340                           opt subtitle "HI-TECH Software Omniscient Code Generator (Lite mode) build 49521"
  4341                           
  4342                           opt pagewidth 120
  4343                           
  4344  03FC  3003               movlw  3
  4345  03FD  1283               	bcf	status, 5	;RP0=0, select bank0
  4346  03FE  1303               	bcf	status, 6	;RP1=0, select bank0
  4347  03FF  00C0               movwf	((??_RFM70_Initialize+0)+0+2),f
  4348  0400  3008               movlw	8
  4349  0401  00BF               movwf	((??_RFM70_Initialize+0)+0+1),f
  4350  0402  3078               	movlw	120
  4351  0403  00BE               movwf	((??_RFM70_Initialize+0)+0),f
  4352  0404                     u5917:
  4353  0404  0BBE               	decfsz	((??_RFM70_Initialize+0)+0),f
  4354  0405  2C04               	goto	u5917
  4355  0406  0BBF               	decfsz	((??_RFM70_Initialize+0)+0+1),f
  4356  0407  2C04               	goto	u5917
  4357  0408  0BC0               	decfsz	((??_RFM70_Initialize+0)+0+2),f
  4358  0409  2C04               	goto	u5917
  4359                           opt subtitle "HI-TECH Software Omniscient Code Generator (Lite mode) build 49521"
  4360                           
  4361                           opt pagewidth 120
  4362                           
  4363  040A                     l4643:	
  4364                           opt subtitle "HI-TECH Software Omniscient Code Generator (Lite mode) build 49521"
  4365  040A  3000               	movlw	(0)
  4366  040B  160A  118A  2485   	fcall	_SwitchCFG
              120A  118A         
  4367                           opt subtitle "HI-TECH Software Omniscient Code Generator (Lite mode) build 49521"
  4368                           
  4369  0410                     l4645:	
  4370                           opt subtitle "HI-TECH Software Omniscient Code Generator (Lite mode) build 49521"
  4371  0410  1683               	bsf	status, 5	;RP0=1, select bank1
  4372  0411  1303               	bcf	status, 6	;RP1=0, select bank1
  4373  0412  01D4               	clrf	(RFM70_Initialize@i)^080h
  4374                           opt subtitle "HI-TECH Software Omniscient Code Generator (Lite mode) build 49521"
  4375  0413                     l4647:	
  4376  0413  3014               	movlw	(014h)
  4377  0414  0254               	subwf	(RFM70_Initialize@i)^080h,w
  4378  0415  1C03               	skipc
  4379  0416  2C18               	goto	u4521
  4380  0417  2C19               	goto	u4520
  4381  0418                     u4521:
  4382  0418  2C1B               	goto	l4651
  4383  0419                     u4520:
  4384  0419  2C53               	goto	l354
  4385                           opt subtitle "HI-TECH Software Omniscient Code Generator (Lite mode) build 49521"
  4386  041A                     l4649:	
  4387  041A  2C53               	goto	l354
  4388                           opt subtitle "HI-TECH Software Omniscient Code Generator (Lite mode) build 49521"
  4389                           
  4390  041B                     l353:	
  4391                           opt subtitle "HI-TECH Software Omniscient Code Generator (Lite mode) build 49521"
  4392                           
  4393  041B                     l4651:	
  4394                           opt subtitle "HI-TECH Software Omniscient Code Generator (Lite mode) build 49521"
  4395                           
  4396  041B  1403               	setc
  4397  041C  0D54               	rlf	(RFM70_Initialize@i)^080h,w
  4398  041D  3E4A               	addlw	low(_Bank0_Reg|8000h)
  4399  041E  0084               	movwf	fsr0
  4400  041F  3090               	movlw	high(_Bank0_Reg|8000h)
  4401  0420  1803               	skipnc
  4402  0421  3E01               	addlw	1
  4403  0422  1283               	bcf	status, 5	;RP0=0, select bank0
  4404  0423  1303               	bcf	status, 6	;RP1=0, select bank0
  4405  0424  00FF               	movwf	btemp+1
  4406  0425  160A  118A  2000   	fcall	stringtab
              120A  118A         
  4407  042A  00BE               	movwf	(??_RFM70_Initialize+0)+0
  4408  042B  083E               	movf	(??_RFM70_Initialize+0)+0,w
  4409  042C  00B8               	movwf	(?_SPI_Write_Reg)
  4410  042D  1683               	bsf	status, 5	;RP0=1, select bank1
  4411  042E  1303               	bcf	status, 6	;RP1=0, select bank1
  4412  042F  0854               	movf	(RFM70_Initialize@i)^080h,w
  4413  0430  1283               	bcf	status, 5	;RP0=0, select bank0
  4414  0431  1303               	bcf	status, 6	;RP1=0, select bank0
  4415  0432  00BF               	movwf	(??_RFM70_Initialize+1)+0
  4416  0433  073F               	addwf	(??_RFM70_Initialize+1)+0,w
  4417  0434  3E4A               	addlw	low(_Bank0_Reg|8000h)
  4418  0435  0084               	movwf	fsr0
  4419  0436  3090               	movlw	high(_Bank0_Reg|8000h)
  4420  0437  1803               	skipnc
  4421  0438  3E01               	addlw	1
  4422  0439  00FF               	movwf	btemp+1
  4423  043A  160A  118A  2000   	fcall	stringtab
              120A  118A         
  4424  043F  3820               	iorlw	020h
  4425  0440  160A  118A  2251   	fcall	_SPI_Write_Reg
              120A  118A         
  4426                           opt subtitle "HI-TECH Software Omniscient Code Generator (Lite mode) build 49521"
  4427                           
  4428  0445                     l4653:	
  4429  0445  3001               	movlw	(01h)
  4430  0446  1283               	bcf	status, 5	;RP0=0, select bank0
  4431  0447  1303               	bcf	status, 6	;RP1=0, select bank0
  4432  0448  00BE               	movwf	(??_RFM70_Initialize+0)+0
  4433  0449  083E               	movf	(??_RFM70_Initialize+0)+0,w
  4434  044A  1683               	bsf	status, 5	;RP0=1, select bank1
  4435  044B  1303               	bcf	status, 6	;RP1=0, select bank1
  4436  044C  07D4               	addwf	(RFM70_Initialize@i)^080h,f
  4437                           opt subtitle "HI-TECH Software Omniscient Code Generator (Lite mode) build 49521"
  4438  044D                     l4655:	
  4439  044D  3014               	movlw	(014h)
  4440  044E  0254               	subwf	(RFM70_Initialize@i)^080h,w
  4441  044F  1C03               	skipc
  4442  0450  2C52               	goto	u4531
  4443  0451  2C53               	goto	u4530
  4444  0452                     u4531:
  4445  0452  2C1B               	goto	l4651
  4446  0453                     u4530:
  4447                           opt subtitle "HI-TECH Software Omniscient Code Generator (Lite mode) build 49521"
  4448  0453                     l354:	
  4449                           opt subtitle "HI-TECH Software Omniscient Code Generator (Lite mode) build 49521"
  4450                           
  4451                           opt pagewidth 120
  4452  0453  01D5               	clrf	(RFM70_Initialize@j)^080h
  4453                           opt subtitle "HI-TECH Software Omniscient Code Generator (Lite mode) build 49521"
  4454  0454                     l4657:	
  4455  0454  3005               	movlw	(05h)
  4456  0455  0255               	subwf	(RFM70_Initialize@j)^080h,w
  4457  0456  1C03               	skipc
  4458  0457  2C59               	goto	u4541
  4459  0458  2C5A               	goto	u4540
  4460  0459                     u4541:
  4461  0459  2C5C               	goto	l4661
  4462  045A                     u4540:
  4463  045A  2C82               	goto	l4667
  4464                           opt subtitle "HI-TECH Software Omniscient Code Generator (Lite mode) build 49521"
  4465  045B                     l4659:	
  4466  045B  2C82               	goto	l4667
  4467                           opt subtitle "HI-TECH Software Omniscient Code Generator (Lite mode) build 49521"
  4468                           
  4469  045C                     l355:	
  4470                           opt subtitle "HI-TECH Software Omniscient Code Generator (Lite mode) build 49521"
  4471                           
  4472  045C                     l4661:	
  4473                           opt subtitle "HI-TECH Software Omniscient Code Generator (Lite mode) build 49521"
  4474                           
  4475  045C  0855               	movf	(RFM70_Initialize@j)^080h,w
  4476  045D  3E95               	addlw	low(_RX0_Address|8000h)
  4477  045E  0084               	movwf	fsr0
  4478  045F  3090               	movlw	high(_RX0_Address|8000h)
  4479  0460  1803               	skipnc
  4480  0461  3E01               	addlw	1
  4481  0462  1283               	bcf	status, 5	;RP0=0, select bank0
  4482  0463  1303               	bcf	status, 6	;RP1=0, select bank0
  4483  0464  00FF               	movwf	btemp+1
  4484  0465  160A  118A  2000   	fcall	stringtab
              120A  118A         
  4485  046A  00BE               	movwf	(??_RFM70_Initialize+0)+0
  4486  046B  1683               	bsf	status, 5	;RP0=1, select bank1
  4487  046C  1303               	bcf	status, 6	;RP1=0, select bank1
  4488  046D  0855               	movf	(RFM70_Initialize@j)^080h,w
  4489  046E  3EC8               	addlw	RFM70_Initialize@WriteArr&0ffh
  4490  046F  0084               	movwf	fsr0
  4491  0470  1283               	bcf	status, 5	;RP0=0, select bank0
  4492  0471  1303               	bcf	status, 6	;RP1=0, select bank0
  4493  0472  083E               	movf	(??_RFM70_Initialize+0)+0,w
  4494  0473  1383               	bcf	status, 7	;select IRP bank1
  4495  0474  0080               	movwf	indf
  4496                           opt subtitle "HI-TECH Software Omniscient Code Generator (Lite mode) build 49521"
  4497                           
  4498  0475                     l4663:	
  4499  0475  3001               	movlw	(01h)
  4500  0476  00BE               	movwf	(??_RFM70_Initialize+0)+0
  4501  0477  083E               	movf	(??_RFM70_Initialize+0)+0,w
  4502  0478  1683               	bsf	status, 5	;RP0=1, select bank1
  4503  0479  1303               	bcf	status, 6	;RP1=0, select bank1
  4504  047A  07D5               	addwf	(RFM70_Initialize@j)^080h,f
  4505                           opt subtitle "HI-TECH Software Omniscient Code Generator (Lite mode) build 49521"
  4506  047B                     l4665:	
  4507  047B  3005               	movlw	(05h)
  4508  047C  0255               	subwf	(RFM70_Initialize@j)^080h,w
  4509  047D  1C03               	skipc
  4510  047E  2C80               	goto	u4551
  4511  047F  2C81               	goto	u4550
  4512  0480                     u4551:
  4513  0480  2C5C               	goto	l4661
  4514  0481                     u4550:
  4515  0481  2C82               	goto	l4667
  4516                           opt subtitle "HI-TECH Software Omniscient Code Generator (Lite mode) build 49521"
  4517  0482                     l356:	
  4518                           opt subtitle "HI-TECH Software Omniscient Code Generator (Lite mode) build 49521"
  4519                           
  4520  0482                     l4667:	
  4521                           opt subtitle "HI-TECH Software Omniscient Code Generator (Lite mode) build 49521"
  4522                           
  4523  0482  30C8               	movlw	(RFM70_Initialize@WriteArr)&0ffh
  4524  0483  1283               	bcf	status, 5	;RP0=0, select bank0
  4525  0484  1303               	bcf	status, 6	;RP1=0, select bank0
  4526  0485  00BE               	movwf	(??_RFM70_Initialize+0)+0
  4527  0486  083E               	movf	(??_RFM70_Initialize+0)+0,w
  4528  0487  00B8               	movwf	(?_SPI_Write_Buf)
  4529  0488  3005               	movlw	(05h)
  4530  0489  00BF               	movwf	(??_RFM70_Initialize+1)+0
  4531  048A  083F               	movf	(??_RFM70_Initialize+1)+0,w
  4532  048B  00B9               	movwf	0+(?_SPI_Write_Buf)+01h
  4533  048C  302A               	movlw	(02Ah)
  4534  048D  160A  118A  234B   	fcall	_SPI_Write_Buf
              120A  118A         
  4535                           opt subtitle "HI-TECH Software Omniscient Code Generator (Lite mode) build 49521"
  4536                           
  4537  0492                     l4669:	
  4538                           opt subtitle "HI-TECH Software Omniscient Code Generator (Lite mode) build 49521"
  4539  0492  1683               	bsf	status, 5	;RP0=1, select bank1
  4540  0493  1303               	bcf	status, 6	;RP1=0, select bank1
  4541  0494  01D5               	clrf	(RFM70_Initialize@j)^080h
  4542                           opt subtitle "HI-TECH Software Omniscient Code Generator (Lite mode) build 49521"
  4543  0495                     l4671:	
  4544  0495  3005               	movlw	(05h)
  4545  0496  0255               	subwf	(RFM70_Initialize@j)^080h,w
  4546  0497  1C03               	skipc
  4547  0498  2C9A               	goto	u4561
  4548  0499  2C9B               	goto	u4560
  4549  049A                     u4561:
  4550  049A  2C9D               	goto	l4675
  4551  049B                     u4560:
  4552  049B  2CC3               	goto	l4681
  4553                           opt subtitle "HI-TECH Software Omniscient Code Generator (Lite mode) build 49521"
  4554  049C                     l4673:	
  4555  049C  2CC3               	goto	l4681
  4556                           opt subtitle "HI-TECH Software Omniscient Code Generator (Lite mode) build 49521"
  4557                           
  4558  049D                     l357:	
  4559                           opt subtitle "HI-TECH Software Omniscient Code Generator (Lite mode) build 49521"
  4560                           
  4561  049D                     l4675:	
  4562                           opt subtitle "HI-TECH Software Omniscient Code Generator (Lite mode) build 49521"
  4563                           
  4564  049D  0855               	movf	(RFM70_Initialize@j)^080h,w
  4565  049E  3E9A               	addlw	low(_RX1_Address|8000h)
  4566  049F  0084               	movwf	fsr0
  4567  04A0  3090               	movlw	high(_RX1_Address|8000h)
  4568  04A1  1803               	skipnc
  4569  04A2  3E01               	addlw	1
  4570  04A3  1283               	bcf	status, 5	;RP0=0, select bank0
  4571  04A4  1303               	bcf	status, 6	;RP1=0, select bank0
  4572  04A5  00FF               	movwf	btemp+1
  4573  04A6  160A  118A  2000   	fcall	stringtab
              120A  118A         
  4574  04AB  00BE               	movwf	(??_RFM70_Initialize+0)+0
  4575  04AC  1683               	bsf	status, 5	;RP0=1, select bank1
  4576  04AD  1303               	bcf	status, 6	;RP1=0, select bank1
  4577  04AE  0855               	movf	(RFM70_Initialize@j)^080h,w
  4578  04AF  3EC8               	addlw	RFM70_Initialize@WriteArr&0ffh
  4579  04B0  0084               	movwf	fsr0
  4580  04B1  1283               	bcf	status, 5	;RP0=0, select bank0
  4581  04B2  1303               	bcf	status, 6	;RP1=0, select bank0
  4582  04B3  083E               	movf	(??_RFM70_Initialize+0)+0,w
  4583  04B4  1383               	bcf	status, 7	;select IRP bank1
  4584  04B5  0080               	movwf	indf
  4585                           opt subtitle "HI-TECH Software Omniscient Code Generator (Lite mode) build 49521"
  4586                           
  4587  04B6                     l4677:	
  4588  04B6  3001               	movlw	(01h)
  4589  04B7  00BE               	movwf	(??_RFM70_Initialize+0)+0
  4590  04B8  083E               	movf	(??_RFM70_Initialize+0)+0,w
  4591  04B9  1683               	bsf	status, 5	;RP0=1, select bank1
  4592  04BA  1303               	bcf	status, 6	;RP1=0, select bank1
  4593  04BB  07D5               	addwf	(RFM70_Initialize@j)^080h,f
  4594                           opt subtitle "HI-TECH Software Omniscient Code Generator (Lite mode) build 49521"
  4595  04BC                     l4679:	
  4596  04BC  3005               	movlw	(05h)
  4597  04BD  0255               	subwf	(RFM70_Initialize@j)^080h,w
  4598  04BE  1C03               	skipc
  4599  04BF  2CC1               	goto	u4571
  4600  04C0  2CC2               	goto	u4570
  4601  04C1                     u4571:
  4602  04C1  2C9D               	goto	l4675
  4603  04C2                     u4570:
  4604  04C2  2CC3               	goto	l4681
  4605                           opt subtitle "HI-TECH Software Omniscient Code Generator (Lite mode) build 49521"
  4606  04C3                     l358:	
  4607                           opt subtitle "HI-TECH Software Omniscient Code Generator (Lite mode) build 49521"
  4608                           
  4609  04C3                     l4681:	
  4610                           opt subtitle "HI-TECH Software Omniscient Code Generator (Lite mode) build 49521"
  4611                           
  4612  04C3  30C8               	movlw	(RFM70_Initialize@WriteArr)&0ffh
  4613  04C4  1283               	bcf	status, 5	;RP0=0, select bank0
  4614  04C5  1303               	bcf	status, 6	;RP1=0, select bank0
  4615  04C6  00BE               	movwf	(??_RFM70_Initialize+0)+0
  4616  04C7  083E               	movf	(??_RFM70_Initialize+0)+0,w
  4617  04C8  00B8               	movwf	(?_SPI_Write_Buf)
  4618  04C9  3005               	movlw	(05h)
  4619  04CA  00BF               	movwf	(??_RFM70_Initialize+1)+0
  4620  04CB  083F               	movf	(??_RFM70_Initialize+1)+0,w
  4621  04CC  00B9               	movwf	0+(?_SPI_Write_Buf)+01h
  4622  04CD  302B               	movlw	(02Bh)
  4623  04CE  160A  118A  234B   	fcall	_SPI_Write_Buf
              120A  118A         
  4624                           opt subtitle "HI-TECH Software Omniscient Code Generator (Lite mode) build 49521"
  4625                           
  4626  04D3                     l4683:	
  4627                           opt subtitle "HI-TECH Software Omniscient Code Generator (Lite mode) build 49521"
  4628  04D3  1683               	bsf	status, 5	;RP0=1, select bank1
  4629  04D4  1303               	bcf	status, 6	;RP1=0, select bank1
  4630  04D5  01D5               	clrf	(RFM70_Initialize@j)^080h
  4631                           opt subtitle "HI-TECH Software Omniscient Code Generator (Lite mode) build 49521"
  4632  04D6                     l4685:	
  4633  04D6  3005               	movlw	(05h)
  4634  04D7  0255               	subwf	(RFM70_Initialize@j)^080h,w
  4635  04D8  1C03               	skipc
  4636  04D9  2CDB               	goto	u4581
  4637  04DA  2CDC               	goto	u4580
  4638  04DB                     u4581:
  4639  04DB  2CDE               	goto	l4689
  4640  04DC                     u4580:
  4641  04DC  2D04               	goto	l4695
  4642                           opt subtitle "HI-TECH Software Omniscient Code Generator (Lite mode) build 49521"
  4643  04DD                     l4687:	
  4644  04DD  2D04               	goto	l4695
  4645                           opt subtitle "HI-TECH Software Omniscient Code Generator (Lite mode) build 49521"
  4646                           
  4647  04DE                     l359:	
  4648                           opt subtitle "HI-TECH Software Omniscient Code Generator (Lite mode) build 49521"
  4649                           
  4650  04DE                     l4689:	
  4651                           opt subtitle "HI-TECH Software Omniscient Code Generator (Lite mode) build 49521"
  4652                           
  4653  04DE  0855               	movf	(RFM70_Initialize@j)^080h,w
  4654  04DF  3E95               	addlw	low(_RX0_Address|8000h)
  4655  04E0  0084               	movwf	fsr0
  4656  04E1  3090               	movlw	high(_RX0_Address|8000h)
  4657  04E2  1803               	skipnc
  4658  04E3  3E01               	addlw	1
  4659  04E4  1283               	bcf	status, 5	;RP0=0, select bank0
  4660  04E5  1303               	bcf	status, 6	;RP1=0, select bank0
  4661  04E6  00FF               	movwf	btemp+1
  4662  04E7  160A  118A  2000   	fcall	stringtab
              120A  118A         
  4663  04EC  00BE               	movwf	(??_RFM70_Initialize+0)+0
  4664  04ED  1683               	bsf	status, 5	;RP0=1, select bank1
  4665  04EE  1303               	bcf	status, 6	;RP1=0, select bank1
  4666  04EF  0855               	movf	(RFM70_Initialize@j)^080h,w
  4667  04F0  3EC8               	addlw	RFM70_Initialize@WriteArr&0ffh
  4668  04F1  0084               	movwf	fsr0
  4669  04F2  1283               	bcf	status, 5	;RP0=0, select bank0
  4670  04F3  1303               	bcf	status, 6	;RP1=0, select bank0
  4671  04F4  083E               	movf	(??_RFM70_Initialize+0)+0,w
  4672  04F5  1383               	bcf	status, 7	;select IRP bank1
  4673  04F6  0080               	movwf	indf
  4674                           opt subtitle "HI-TECH Software Omniscient Code Generator (Lite mode) build 49521"
  4675                           
  4676  04F7                     l4691:	
  4677  04F7  3001               	movlw	(01h)
  4678  04F8  00BE               	movwf	(??_RFM70_Initialize+0)+0
  4679  04F9  083E               	movf	(??_RFM70_Initialize+0)+0,w
  4680  04FA  1683               	bsf	status, 5	;RP0=1, select bank1
  4681  04FB  1303               	bcf	status, 6	;RP1=0, select bank1
  4682  04FC  07D5               	addwf	(RFM70_Initialize@j)^080h,f
  4683                           opt subtitle "HI-TECH Software Omniscient Code Generator (Lite mode) build 49521"
  4684  04FD                     l4693:	
  4685  04FD  3005               	movlw	(05h)
  4686  04FE  0255               	subwf	(RFM70_Initialize@j)^080h,w
  4687  04FF  1C03               	skipc
  4688  0500  2D02               	goto	u4591
  4689  0501  2D03               	goto	u4590
  4690  0502                     u4591:
  4691  0502  2CDE               	goto	l4689
  4692  0503                     u4590:
  4693  0503  2D04               	goto	l4695
  4694                           opt subtitle "HI-TECH Software Omniscient Code Generator (Lite mode) build 49521"
  4695  0504                     l360:	
  4696                           opt subtitle "HI-TECH Software Omniscient Code Generator (Lite mode) build 49521"
  4697                           
  4698  0504                     l4695:	
  4699                           opt subtitle "HI-TECH Software Omniscient Code Generator (Lite mode) build 49521"
  4700                           
  4701  0504  30C8               	movlw	(RFM70_Initialize@WriteArr)&0ffh
  4702  0505  1283               	bcf	status, 5	;RP0=0, select bank0
  4703  0506  1303               	bcf	status, 6	;RP1=0, select bank0
  4704  0507  00BE               	movwf	(??_RFM70_Initialize+0)+0
  4705  0508  083E               	movf	(??_RFM70_Initialize+0)+0,w
  4706  0509  00B8               	movwf	(?_SPI_Write_Buf)
  4707  050A  3005               	movlw	(05h)
  4708  050B  00BF               	movwf	(??_RFM70_Initialize+1)+0
  4709  050C  083F               	movf	(??_RFM70_Initialize+1)+0,w
  4710  050D  00B9               	movwf	0+(?_SPI_Write_Buf)+01h
  4711  050E  3030               	movlw	(030h)
  4712  050F  160A  118A  234B   	fcall	_SPI_Write_Buf
              120A  118A         
  4713                           opt subtitle "HI-TECH Software Omniscient Code Generator (Lite mode) build 49521"
  4714                           
  4715  0514                     l4697:	
  4716                           opt subtitle "HI-TECH Software Omniscient Code Generator (Lite mode) build 49521"
  4717  0514  301D               	movlw	(01Dh)
  4718  0515  160A  118A  22AE   	fcall	_SPI_Read_Reg
              120A  118A         
  4719  051A  1283               	bcf	status, 5	;RP0=0, select bank0
  4720  051B  1303               	bcf	status, 6	;RP1=0, select bank0
  4721  051C  00BE               	movwf	(??_RFM70_Initialize+0)+0
  4722  051D  083E               	movf	(??_RFM70_Initialize+0)+0,w
  4723  051E  1683               	bsf	status, 5	;RP0=1, select bank1
  4724  051F  1303               	bcf	status, 6	;RP1=0, select bank1
  4725  0520  00D4               	movwf	(RFM70_Initialize@i)^080h
  4726                           opt subtitle "HI-TECH Software Omniscient Code Generator (Lite mode) build 49521"
  4727                           
  4728  0521                     l4699:	
  4729                           opt subtitle "HI-TECH Software Omniscient Code Generator (Lite mode) build 49521"
  4730  0521  08D4               	movf	(RFM70_Initialize@i)^080h,f
  4731  0522  1D03               	skipz
  4732  0523  2D25               	goto	u4601
  4733  0524  2D26               	goto	u4600
  4734  0525                     u4601:
  4735  0525  2D33               	goto	l4703
  4736  0526                     u4600:
  4737                           opt subtitle "HI-TECH Software Omniscient Code Generator (Lite mode) build 49521"
  4738                           
  4739  0526                     l4701:	
  4740                           opt subtitle "HI-TECH Software Omniscient Code Generator (Lite mode) build 49521"
  4741  0526  3073               	movlw	(073h)
  4742  0527  1283               	bcf	status, 5	;RP0=0, select bank0
  4743  0528  1303               	bcf	status, 6	;RP1=0, select bank0
  4744  0529  00BE               	movwf	(??_RFM70_Initialize+0)+0
  4745  052A  083E               	movf	(??_RFM70_Initialize+0)+0,w
  4746  052B  00B8               	movwf	(?_SPI_Write_Reg)
  4747  052C  3050               	movlw	(050h)
  4748  052D  160A  118A  2251   	fcall	_SPI_Write_Reg
              120A  118A         
  4749  0532  2D33               	goto	l4703
  4750                           opt subtitle "HI-TECH Software Omniscient Code Generator (Lite mode) build 49521"
  4751  0533                     l361:	
  4752                           opt subtitle "HI-TECH Software Omniscient Code Generator (Lite mode) build 49521"
  4753                           
  4754  0533                     l4703:	
  4755                           opt subtitle "HI-TECH Software Omniscient Code Generator (Lite mode) build 49521"
  4756  0533  3016               	movlw	(016h)
  4757  0534  1283               	bcf	status, 5	;RP0=0, select bank0
  4758  0535  1303               	bcf	status, 6	;RP1=0, select bank0
  4759  0536  00BE               	movwf	(??_RFM70_Initialize+0)+0
  4760  0537  083E               	movf	(??_RFM70_Initialize+0)+0,w
  4761  0538  1683               	bsf	status, 5	;RP0=1, select bank1
  4762  0539  1303               	bcf	status, 6	;RP1=0, select bank1
  4763  053A  00D4               	movwf	(RFM70_Initialize@i)^080h
  4764                           opt subtitle "HI-TECH Software Omniscient Code Generator (Lite mode) build 49521"
  4765  053B                     l4705:	
  4766  053B  3015               	movlw	(015h)
  4767  053C  0254               	subwf	(RFM70_Initialize@i)^080h,w
  4768  053D  1803               	skipnc
  4769  053E  2D40               	goto	u4611
  4770  053F  2D41               	goto	u4610
  4771  0540                     u4611:
  4772  0540  2D43               	goto	l4709
  4773  0541                     u4610:
  4774  0541  2D78               	goto	l4715
  4775                           opt subtitle "HI-TECH Software Omniscient Code Generator (Lite mode) build 49521"
  4776  0542                     l4707:	
  4777  0542  2D78               	goto	l4715
  4778                           opt subtitle "HI-TECH Software Omniscient Code Generator (Lite mode) build 49521"
  4779                           
  4780  0543                     l362:	
  4781                           opt subtitle "HI-TECH Software Omniscient Code Generator (Lite mode) build 49521"
  4782                           
  4783  0543                     l4709:	
  4784                           opt subtitle "HI-TECH Software Omniscient Code Generator (Lite mode) build 49521"
  4785                           
  4786  0543  1403               	setc
  4787  0544  0D54               	rlf	(RFM70_Initialize@i)^080h,w
  4788  0545  3E4A               	addlw	low(_Bank0_Reg|8000h)
  4789  0546  0084               	movwf	fsr0
  4790  0547  3090               	movlw	high(_Bank0_Reg|8000h)
  4791  0548  1803               	skipnc
  4792  0549  3E01               	addlw	1
  4793  054A  1283               	bcf	status, 5	;RP0=0, select bank0
  4794  054B  1303               	bcf	status, 6	;RP1=0, select bank0
  4795  054C  00FF               	movwf	btemp+1
  4796  054D  160A  118A  2000   	fcall	stringtab
              120A  118A         
  4797  0552  00BE               	movwf	(??_RFM70_Initialize+0)+0
  4798  0553  083E               	movf	(??_RFM70_Initialize+0)+0,w
  4799  0554  00B8               	movwf	(?_SPI_Write_Reg)
  4800  0555  1683               	bsf	status, 5	;RP0=1, select bank1
  4801  0556  1303               	bcf	status, 6	;RP1=0, select bank1
  4802  0557  0854               	movf	(RFM70_Initialize@i)^080h,w
  4803  0558  1283               	bcf	status, 5	;RP0=0, select bank0
  4804  0559  1303               	bcf	status, 6	;RP1=0, select bank0
  4805  055A  00BF               	movwf	(??_RFM70_Initialize+1)+0
  4806  055B  073F               	addwf	(??_RFM70_Initialize+1)+0,w
  4807  055C  3E4A               	addlw	low(_Bank0_Reg|8000h)
  4808  055D  0084               	movwf	fsr0
  4809  055E  3090               	movlw	high(_Bank0_Reg|8000h)
  4810  055F  1803               	skipnc
  4811  0560  3E01               	addlw	1
  4812  0561  00FF               	movwf	btemp+1
  4813  0562  160A  118A  2000   	fcall	stringtab
              120A  118A         
  4814  0567  3820               	iorlw	020h
  4815  0568  160A  118A  2251   	fcall	_SPI_Write_Reg
              120A  118A         
  4816                           opt subtitle "HI-TECH Software Omniscient Code Generator (Lite mode) build 49521"
  4817                           
  4818  056D                     l4711:	
  4819  056D  3001               	movlw	low(01h)
  4820  056E  1683               	bsf	status, 5	;RP0=1, select bank1
  4821  056F  1303               	bcf	status, 6	;RP1=0, select bank1
  4822  0570  02D4               	subwf	(RFM70_Initialize@i)^080h,f
  4823                           opt subtitle "HI-TECH Software Omniscient Code Generator (Lite mode) build 49521"
  4824  0571                     l4713:	
  4825  0571  3015               	movlw	(015h)
  4826  0572  0254               	subwf	(RFM70_Initialize@i)^080h,w
  4827  0573  1803               	skipnc
  4828  0574  2D76               	goto	u4621
  4829  0575  2D77               	goto	u4620
  4830  0576                     u4621:
  4831  0576  2D43               	goto	l4709
  4832  0577                     u4620:
  4833  0577  2D78               	goto	l4715
  4834                           opt subtitle "HI-TECH Software Omniscient Code Generator (Lite mode) build 49521"
  4835  0578                     l363:	
  4836                           opt subtitle "HI-TECH Software Omniscient Code Generator (Lite mode) build 49521"
  4837                           
  4838  0578                     l4715:	
  4839                           opt subtitle "HI-TECH Software Omniscient Code Generator (Lite mode) build 49521"
  4840                           
  4841  0578  3001               	movlw	(01h)
  4842  0579  160A  118A  2485   	fcall	_SwitchCFG
              120A  118A         
  4843                           opt subtitle "HI-TECH Software Omniscient Code Generator (Lite mode) build 49521"
  4844                           
  4845  057E                     l4717:	
  4846                           opt subtitle "HI-TECH Software Omniscient Code Generator (Lite mode) build 49521"
  4847  057E  1683               	bsf	status, 5	;RP0=1, select bank1
  4848  057F  1303               	bcf	status, 6	;RP1=0, select bank1
  4849  0580  01D4               	clrf	(RFM70_Initialize@i)^080h
  4850                           opt subtitle "HI-TECH Software Omniscient Code Generator (Lite mode) build 49521"
  4851  0581                     l4719:	
  4852  0581  3009               	movlw	(09h)
  4853  0582  0254               	subwf	(RFM70_Initialize@i)^080h,w
  4854  0583  1C03               	skipc
  4855  0584  2D86               	goto	u4631
  4856  0585  2D87               	goto	u4630
  4857  0586                     u4631:
  4858  0586  2D89               	goto	l364
  4859  0587                     u4630:
  4860  0587  2E0F               	goto	l4739
  4861                           opt subtitle "HI-TECH Software Omniscient Code Generator (Lite mode) build 49521"
  4862  0588                     l4721:	
  4863  0588  2E0F               	goto	l4739
  4864                           opt subtitle "HI-TECH Software Omniscient Code Generator (Lite mode) build 49521"
  4865                           
  4866  0589                     l364:	
  4867                           opt subtitle "HI-TECH Software Omniscient Code Generator (Lite mode) build 49521"
  4868                           
  4869                           opt pagewidth 120
  4870  0589  01D5               	clrf	(RFM70_Initialize@j)^080h
  4871                           opt subtitle "HI-TECH Software Omniscient Code Generator (Lite mode) build 49521"
  4872  058A                     l4723:	
  4873  058A  3004               	movlw	(04h)
  4874  058B  0255               	subwf	(RFM70_Initialize@j)^080h,w
  4875  058C  1C03               	skipc
  4876  058D  2D8F               	goto	u4641
  4877  058E  2D90               	goto	u4640
  4878  058F                     u4641:
  4879  058F  2D92               	goto	l4727
  4880  0590                     u4640:
  4881  0590  2DED               	goto	l4733
  4882                           opt subtitle "HI-TECH Software Omniscient Code Generator (Lite mode) build 49521"
  4883  0591                     l4725:	
  4884  0591  2DED               	goto	l4733
  4885                           opt subtitle "HI-TECH Software Omniscient Code Generator (Lite mode) build 49521"
  4886                           
  4887  0592                     l366:	
  4888                           opt subtitle "HI-TECH Software Omniscient Code Generator (Lite mode) build 49521"
  4889  0592                     l4727:	
  4890                           opt subtitle "HI-TECH Software Omniscient Code Generator (Lite mode) build 49521"
  4891  0592  0854               	movf	(RFM70_Initialize@i)^080h,w
  4892  0593  1283               	bcf	status, 5	;RP0=0, select bank0
  4893  0594  1303               	bcf	status, 6	;RP1=0, select bank0
  4894  0595  00BE               	movwf	(??_RFM70_Initialize+0)+0
  4895  0596  3001               	movlw	(02h)-1
  4896  0597                     u4655:
  4897  0597  1003               	clrc
  4898  0598  0DBE               	rlf	(??_RFM70_Initialize+0)+0,f
  4899  0599  3EFF               	addlw	-1
  4900  059A  1D03               	skipz
  4901  059B  2D97               	goto	u4655
  4902  059C  1003               	clrc
  4903  059D  0D3E               	rlf	(??_RFM70_Initialize+0)+0,w
  4904  059E  3E12               	addlw	low(_Bank1_Reg0_13|8000h)
  4905  059F  0084               	movwf	fsr0
  4906  05A0  3090               	movlw	high(_Bank1_Reg0_13|8000h)
  4907  05A1  1803               	skipnc
  4908  05A2  3E01               	addlw	1
  4909  05A3  00FF               	movwf	btemp+1
  4910  05A4  160A  118A  2000   	fcall	stringtab
              120A  118A         
  4911  05A9  00BF               	movwf	((??_RFM70_Initialize+1)+0)
  4912  05AA  160A  118A  2000   	fcall	stringtab
              120A  118A         
  4913  05AF  00C0               	movwf	((??_RFM70_Initialize+1)+0+1)
  4914  05B0  160A  118A  2000   	fcall	stringtab
              120A  118A         
  4915  05B5  00C1               	movwf	((??_RFM70_Initialize+1)+0+2)
  4916  05B6  160A  118A  2000   	fcall	stringtab
              120A  118A         
  4917  05BB  00C2               	movwf	((??_RFM70_Initialize+1)+0+3)
  4918  05BC  1683               	bsf	status, 5	;RP0=1, select bank1
  4919  05BD  1303               	bcf	status, 6	;RP1=0, select bank1
  4920  05BE  0855               	movf	(RFM70_Initialize@j)^080h,w
  4921  05BF  1283               	bcf	status, 5	;RP0=0, select bank0
  4922  05C0  1303               	bcf	status, 6	;RP1=0, select bank0
  4923  05C1  00C3               	movwf	(??_RFM70_Initialize+5)+0
  4924  05C2  3002               	movlw	(03h)-1
  4925  05C3                     u4665:
  4926  05C3  1003               	clrc
  4927  05C4  0DC3               	rlf	(??_RFM70_Initialize+5)+0,f
  4928  05C5  3EFF               	addlw	-1
  4929  05C6  1D03               	skipz
  4930  05C7  2DC3               	goto	u4665
  4931  05C8  1003               	clrc
  4932  05C9  0D43               	rlf	(??_RFM70_Initialize+5)+0,w
  4933  05CA  3E01               	addlw	1
  4934  05CB  2DD1               	goto	u4670
  4935  05CC                     u4675:
  4936  05CC  1003               	clrc
  4937  05CD  0CC2               	rrf	(??_RFM70_Initialize+1)+3,f
  4938  05CE  0CC1               	rrf	(??_RFM70_Initialize+1)+2,f
  4939  05CF  0CC0               	rrf	(??_RFM70_Initialize+1)+1,f
  4940  05D0  0CBF               	rrf	(??_RFM70_Initialize+1)+0,f
  4941  05D1                     u4670:
  4942  05D1  3EFF               	addlw	-1
  4943  05D2  1D03               	skipz
  4944  05D3  2DCC               	goto	u4675
  4945  05D4  083F               	movf	0+(??_RFM70_Initialize+1)+0,w
  4946  05D5  00C4               	movwf	(??_RFM70_Initialize+6)+0
  4947  05D6  1683               	bsf	status, 5	;RP0=1, select bank1
  4948  05D7  1303               	bcf	status, 6	;RP1=0, select bank1
  4949  05D8  0855               	movf	(RFM70_Initialize@j)^080h,w
  4950  05D9  3EC8               	addlw	RFM70_Initialize@WriteArr&0ffh
  4951  05DA  0084               	movwf	fsr0
  4952  05DB  1283               	bcf	status, 5	;RP0=0, select bank0
  4953  05DC  1303               	bcf	status, 6	;RP1=0, select bank0
  4954  05DD  0844               	movf	(??_RFM70_Initialize+6)+0,w
  4955  05DE  1383               	bcf	status, 7	;select IRP bank1
  4956  05DF  0080               	movwf	indf
  4957                           opt subtitle "HI-TECH Software Omniscient Code Generator (Lite mode) build 49521"
  4958                           
  4959  05E0                     l4729:	
  4960  05E0  3001               	movlw	(01h)
  4961  05E1  00BE               	movwf	(??_RFM70_Initialize+0)+0
  4962  05E2  083E               	movf	(??_RFM70_Initialize+0)+0,w
  4963  05E3  1683               	bsf	status, 5	;RP0=1, select bank1
  4964  05E4  1303               	bcf	status, 6	;RP1=0, select bank1
  4965  05E5  07D5               	addwf	(RFM70_Initialize@j)^080h,f
  4966                           opt subtitle "HI-TECH Software Omniscient Code Generator (Lite mode) build 49521"
  4967  05E6                     l4731:	
  4968  05E6  3004               	movlw	(04h)
  4969  05E7  0255               	subwf	(RFM70_Initialize@j)^080h,w
  4970  05E8  1C03               	skipc
  4971  05E9  2DEB               	goto	u4681
  4972  05EA  2DEC               	goto	u4680
  4973  05EB                     u4681:
  4974  05EB  2D92               	goto	l4727
  4975  05EC                     u4680:
  4976  05EC  2DED               	goto	l4733
  4977                           opt subtitle "HI-TECH Software Omniscient Code Generator (Lite mode) build 49521"
  4978  05ED                     l367:	
  4979                           opt subtitle "HI-TECH Software Omniscient Code Generator (Lite mode) build 49521"
  4980                           
  4981  05ED                     l4733:	
  4982                           opt subtitle "HI-TECH Software Omniscient Code Generator (Lite mode) build 49521"
  4983  05ED  30C8               	movlw	(RFM70_Initialize@WriteArr)&0ffh
  4984  05EE  1283               	bcf	status, 5	;RP0=0, select bank0
  4985  05EF  1303               	bcf	status, 6	;RP1=0, select bank0
  4986  05F0  00BE               	movwf	(??_RFM70_Initialize+0)+0
  4987  05F1  083E               	movf	(??_RFM70_Initialize+0)+0,w
  4988  05F2  00B8               	movwf	(?_SPI_Write_Buf)
  4989  05F3  3004               	movlw	(04h)
  4990  05F4  00BF               	movwf	(??_RFM70_Initialize+1)+0
  4991  05F5  083F               	movf	(??_RFM70_Initialize+1)+0,w
  4992  05F6  00B9               	movwf	0+(?_SPI_Write_Buf)+01h
  4993  05F7  1683               	bsf	status, 5	;RP0=1, select bank1
  4994  05F8  1303               	bcf	status, 6	;RP1=0, select bank1
  4995  05F9  0854               	movf	(RFM70_Initialize@i)^080h,w
  4996  05FA  3820               	iorlw	020h
  4997  05FB  160A  118A  234B   	fcall	_SPI_Write_Buf
              120A  118A         
  4998                           opt subtitle "HI-TECH Software Omniscient Code Generator (Lite mode) build 49521"
  4999                           
  5000  0600                     l4735:	
  5001  0600  3001               	movlw	(01h)
  5002  0601  1283               	bcf	status, 5	;RP0=0, select bank0
  5003  0602  1303               	bcf	status, 6	;RP1=0, select bank0
  5004  0603  00BE               	movwf	(??_RFM70_Initialize+0)+0
  5005  0604  083E               	movf	(??_RFM70_Initialize+0)+0,w
  5006  0605  1683               	bsf	status, 5	;RP0=1, select bank1
  5007  0606  1303               	bcf	status, 6	;RP1=0, select bank1
  5008  0607  07D4               	addwf	(RFM70_Initialize@i)^080h,f
  5009                           opt subtitle "HI-TECH Software Omniscient Code Generator (Lite mode) build 49521"
  5010  0608                     l4737:	
  5011  0608  3009               	movlw	(09h)
  5012  0609  0254               	subwf	(RFM70_Initialize@i)^080h,w
  5013  060A  1C03               	skipc
  5014  060B  2E0D               	goto	u4691
  5015  060C  2E0E               	goto	u4690
  5016  060D                     u4691:
  5017  060D  2D89               	goto	l364
  5018  060E                     u4690:
  5019  060E  2E0F               	goto	l4739
  5020                           opt subtitle "HI-TECH Software Omniscient Code Generator (Lite mode) build 49521"
  5021  060F                     l365:	
  5022                           opt subtitle "HI-TECH Software Omniscient Code Generator (Lite mode) build 49521"
  5023                           
  5024  060F                     l4739:	
  5025                           opt subtitle "HI-TECH Software Omniscient Code Generator (Lite mode) build 49521"
  5026                           
  5027  060F  3009               	movlw	(09h)
  5028  0610  1283               	bcf	status, 5	;RP0=0, select bank0
  5029  0611  1303               	bcf	status, 6	;RP1=0, select bank0
  5030  0612  00BE               	movwf	(??_RFM70_Initialize+0)+0
  5031  0613  083E               	movf	(??_RFM70_Initialize+0)+0,w
  5032  0614  1683               	bsf	status, 5	;RP0=1, select bank1
  5033  0615  1303               	bcf	status, 6	;RP1=0, select bank1
  5034  0616  00D4               	movwf	(RFM70_Initialize@i)^080h
  5035  0617  300E               	movlw	(0Eh)
  5036  0618  0254               	subwf	(RFM70_Initialize@i)^080h,w
  5037  0619  1C03               	skipc
  5038  061A  2E1C               	goto	u4701
  5039  061B  2E1D               	goto	u4700
  5040  061C                     u4701:
  5041  061C  2E1F               	goto	l368
  5042  061D                     u4700:
  5043  061D  2EA6               	goto	l369
  5044                           opt subtitle "HI-TECH Software Omniscient Code Generator (Lite mode) build 49521"
  5045  061E                     l4741:	
  5046  061E  2EA6               	goto	l369
  5047                           opt subtitle "HI-TECH Software Omniscient Code Generator (Lite mode) build 49521"
  5048                           
  5049  061F                     l368:	
  5050                           opt subtitle "HI-TECH Software Omniscient Code Generator (Lite mode) build 49521"
  5051                           
  5052                           opt pagewidth 120
  5053  061F  01D5               	clrf	(RFM70_Initialize@j)^080h
  5054                           opt subtitle "HI-TECH Software Omniscient Code Generator (Lite mode) build 49521"
  5055  0620                     l4743:	
  5056  0620  3004               	movlw	(04h)
  5057  0621  0255               	subwf	(RFM70_Initialize@j)^080h,w
  5058  0622  1C03               	skipc
  5059  0623  2E25               	goto	u4711
  5060  0624  2E26               	goto	u4710
  5061  0625                     u4711:
  5062  0625  2E28               	goto	l4747
  5063  0626                     u4710:
  5064  0626  2E85               	goto	l4753
  5065                           opt subtitle "HI-TECH Software Omniscient Code Generator (Lite mode) build 49521"
  5066  0627                     l4745:	
  5067  0627  2E85               	goto	l4753
  5068                           opt subtitle "HI-TECH Software Omniscient Code Generator (Lite mode) build 49521"
  5069                           
  5070  0628                     l370:	
  5071                           opt subtitle "HI-TECH Software Omniscient Code Generator (Lite mode) build 49521"
  5072  0628                     l4747:	
  5073                           opt subtitle "HI-TECH Software Omniscient Code Generator (Lite mode) build 49521"
  5074  0628  0854               	movf	(RFM70_Initialize@i)^080h,w
  5075  0629  1283               	bcf	status, 5	;RP0=0, select bank0
  5076  062A  1303               	bcf	status, 6	;RP1=0, select bank0
  5077  062B  00BE               	movwf	(??_RFM70_Initialize+0)+0
  5078  062C  3001               	movlw	(02h)-1
  5079  062D                     u4725:
  5080  062D  1003               	clrc
  5081  062E  0DBE               	rlf	(??_RFM70_Initialize+0)+0,f
  5082  062F  3EFF               	addlw	-1
  5083  0630  1D03               	skipz
  5084  0631  2E2D               	goto	u4725
  5085  0632  1003               	clrc
  5086  0633  0D3E               	rlf	(??_RFM70_Initialize+0)+0,w
  5087  0634  3E12               	addlw	low(_Bank1_Reg0_13|8000h)
  5088  0635  0084               	movwf	fsr0
  5089  0636  3090               	movlw	high(_Bank1_Reg0_13|8000h)
  5090  0637  1803               	skipnc
  5091  0638  3E01               	addlw	1
  5092  0639  00FF               	movwf	btemp+1
  5093  063A  160A  118A  2000   	fcall	stringtab
              120A  118A         
  5094  063F  00BF               	movwf	((??_RFM70_Initialize+1)+0)
  5095  0640  160A  118A  2000   	fcall	stringtab
              120A  118A         
  5096  0645  00C0               	movwf	((??_RFM70_Initialize+1)+0+1)
  5097  0646  160A  118A  2000   	fcall	stringtab
              120A  118A         
  5098  064B  00C1               	movwf	((??_RFM70_Initialize+1)+0+2)
  5099  064C  160A  118A  2000   	fcall	stringtab
              120A  118A         
  5100  0651  00C2               	movwf	((??_RFM70_Initialize+1)+0+3)
  5101  0652  1683               	bsf	status, 5	;RP0=1, select bank1
  5102  0653  1303               	bcf	status, 6	;RP1=0, select bank1
  5103  0654  0355               	decf	(RFM70_Initialize@j)^080h,w
  5104  0655  3AFF               	xorlw	0ffh
  5105  0656  1283               	bcf	status, 5	;RP0=0, select bank0
  5106  0657  1303               	bcf	status, 6	;RP1=0, select bank0
  5107  0658  00C3               	movwf	(??_RFM70_Initialize+5)+0
  5108  0659  3002               	movlw	(03h)-1
  5109  065A                     u4735:
  5110  065A  1003               	clrc
  5111  065B  0DC3               	rlf	(??_RFM70_Initialize+5)+0,f
  5112  065C  3EFF               	addlw	-1
  5113  065D  1D03               	skipz
  5114  065E  2E5A               	goto	u4735
  5115  065F  1003               	clrc
  5116  0660  0D43               	rlf	(??_RFM70_Initialize+5)+0,w
  5117  0661  3E18               	addlw	018h
  5118  0662  3E01               	addlw	1
  5119  0663  2E69               	goto	u4740
  5120  0664                     u4745:
  5121  0664  1003               	clrc
  5122  0665  0CC2               	rrf	(??_RFM70_Initialize+1)+3,f
  5123  0666  0CC1               	rrf	(??_RFM70_Initialize+1)+2,f
  5124  0667  0CC0               	rrf	(??_RFM70_Initialize+1)+1,f
  5125  0668  0CBF               	rrf	(??_RFM70_Initialize+1)+0,f
  5126  0669                     u4740:
  5127  0669  3EFF               	addlw	-1
  5128  066A  1D03               	skipz
  5129  066B  2E64               	goto	u4745
  5130  066C  083F               	movf	0+(??_RFM70_Initialize+1)+0,w
  5131  066D  00C4               	movwf	(??_RFM70_Initialize+6)+0
  5132  066E  1683               	bsf	status, 5	;RP0=1, select bank1
  5133  066F  1303               	bcf	status, 6	;RP1=0, select bank1
  5134  0670  0855               	movf	(RFM70_Initialize@j)^080h,w
  5135  0671  3EC8               	addlw	RFM70_Initialize@WriteArr&0ffh
  5136  0672  0084               	movwf	fsr0
  5137  0673  1283               	bcf	status, 5	;RP0=0, select bank0
  5138  0674  1303               	bcf	status, 6	;RP1=0, select bank0
  5139  0675  0844               	movf	(??_RFM70_Initialize+6)+0,w
  5140  0676  1383               	bcf	status, 7	;select IRP bank1
  5141  0677  0080               	movwf	indf
  5142                           opt subtitle "HI-TECH Software Omniscient Code Generator (Lite mode) build 49521"
  5143                           
  5144  0678                     l4749:	
  5145  0678  3001               	movlw	(01h)
  5146  0679  00BE               	movwf	(??_RFM70_Initialize+0)+0
  5147  067A  083E               	movf	(??_RFM70_Initialize+0)+0,w
  5148  067B  1683               	bsf	status, 5	;RP0=1, select bank1
  5149  067C  1303               	bcf	status, 6	;RP1=0, select bank1
  5150  067D  07D5               	addwf	(RFM70_Initialize@j)^080h,f
  5151                           opt subtitle "HI-TECH Software Omniscient Code Generator (Lite mode) build 49521"
  5152  067E                     l4751:	
  5153  067E  3004               	movlw	(04h)
  5154  067F  0255               	subwf	(RFM70_Initialize@j)^080h,w
  5155  0680  1C03               	skipc
  5156  0681  2E83               	goto	u4751
  5157  0682  2E84               	goto	u4750
  5158  0683                     u4751:
  5159  0683  2E28               	goto	l4747
  5160  0684                     u4750:
  5161  0684  2E85               	goto	l4753
  5162                           opt subtitle "HI-TECH Software Omniscient Code Generator (Lite mode) build 49521"
  5163  0685                     l371:	
  5164                           opt subtitle "HI-TECH Software Omniscient Code Generator (Lite mode) build 49521"
  5165                           
  5166  0685                     l4753:	
  5167                           opt subtitle "HI-TECH Software Omniscient Code Generator (Lite mode) build 49521"
  5168  0685  30C8               	movlw	(RFM70_Initialize@WriteArr)&0ffh
  5169  0686  1283               	bcf	status, 5	;RP0=0, select bank0
  5170  0687  1303               	bcf	status, 6	;RP1=0, select bank0
  5171  0688  00BE               	movwf	(??_RFM70_Initialize+0)+0
  5172  0689  083E               	movf	(??_RFM70_Initialize+0)+0,w
  5173  068A  00B8               	movwf	(?_SPI_Write_Buf)
  5174  068B  3004               	movlw	(04h)
  5175  068C  00BF               	movwf	(??_RFM70_Initialize+1)+0
  5176  068D  083F               	movf	(??_RFM70_Initialize+1)+0,w
  5177  068E  00B9               	movwf	0+(?_SPI_Write_Buf)+01h
  5178  068F  1683               	bsf	status, 5	;RP0=1, select bank1
  5179  0690  1303               	bcf	status, 6	;RP1=0, select bank1
  5180  0691  0854               	movf	(RFM70_Initialize@i)^080h,w
  5181  0692  3820               	iorlw	020h
  5182  0693  160A  118A  234B   	fcall	_SPI_Write_Buf
              120A  118A         
  5183                           opt subtitle "HI-TECH Software Omniscient Code Generator (Lite mode) build 49521"
  5184                           
  5185  0698                     l4755:	
  5186  0698  3001               	movlw	(01h)
  5187  0699  1283               	bcf	status, 5	;RP0=0, select bank0
  5188  069A  1303               	bcf	status, 6	;RP1=0, select bank0
  5189  069B  00BE               	movwf	(??_RFM70_Initialize+0)+0
  5190  069C  083E               	movf	(??_RFM70_Initialize+0)+0,w
  5191  069D  1683               	bsf	status, 5	;RP0=1, select bank1
  5192  069E  1303               	bcf	status, 6	;RP1=0, select bank1
  5193  069F  07D4               	addwf	(RFM70_Initialize@i)^080h,f
  5194                           opt subtitle "HI-TECH Software Omniscient Code Generator (Lite mode) build 49521"
  5195  06A0                     l4757:	
  5196  06A0  300E               	movlw	(0Eh)
  5197  06A1  0254               	subwf	(RFM70_Initialize@i)^080h,w
  5198  06A2  1C03               	skipc
  5199  06A3  2EA5               	goto	u4761
  5200  06A4  2EA6               	goto	u4760
  5201  06A5                     u4761:
  5202  06A5  2E1F               	goto	l368
  5203  06A6                     u4760:
  5204                           opt subtitle "HI-TECH Software Omniscient Code Generator (Lite mode) build 49521"
  5205  06A6                     l369:	
  5206                           opt subtitle "HI-TECH Software Omniscient Code Generator (Lite mode) build 49521"
  5207                           
  5208                           opt pagewidth 120
  5209  06A6  01D5               	clrf	(RFM70_Initialize@j)^080h
  5210                           opt subtitle "HI-TECH Software Omniscient Code Generator (Lite mode) build 49521"
  5211  06A7                     l4759:	
  5212  06A7  300B               	movlw	(0Bh)
  5213  06A8  0255               	subwf	(RFM70_Initialize@j)^080h,w
  5214  06A9  1C03               	skipc
  5215  06AA  2EAC               	goto	u4771
  5216  06AB  2EAD               	goto	u4770
  5217  06AC                     u4771:
  5218  06AC  2EAF               	goto	l4763
  5219  06AD                     u4770:
  5220  06AD  2ED5               	goto	l4769
  5221                           opt subtitle "HI-TECH Software Omniscient Code Generator (Lite mode) build 49521"
  5222  06AE                     l4761:	
  5223  06AE  2ED5               	goto	l4769
  5224                           opt subtitle "HI-TECH Software Omniscient Code Generator (Lite mode) build 49521"
  5225                           
  5226  06AF                     l372:	
  5227                           opt subtitle "HI-TECH Software Omniscient Code Generator (Lite mode) build 49521"
  5228                           
  5229  06AF                     l4763:	
  5230                           opt subtitle "HI-TECH Software Omniscient Code Generator (Lite mode) build 49521"
  5231                           
  5232  06AF  0855               	movf	(RFM70_Initialize@j)^080h,w
  5233  06B0  3E78               	addlw	low(_Bank1_Reg14|8000h)
  5234  06B1  0084               	movwf	fsr0
  5235  06B2  3090               	movlw	high(_Bank1_Reg14|8000h)
  5236  06B3  1803               	skipnc
  5237  06B4  3E01               	addlw	1
  5238  06B5  1283               	bcf	status, 5	;RP0=0, select bank0
  5239  06B6  1303               	bcf	status, 6	;RP1=0, select bank0
  5240  06B7  00FF               	movwf	btemp+1
  5241  06B8  160A  118A  2000   	fcall	stringtab
              120A  118A         
  5242  06BD  00BE               	movwf	(??_RFM70_Initialize+0)+0
  5243  06BE  1683               	bsf	status, 5	;RP0=1, select bank1
  5244  06BF  1303               	bcf	status, 6	;RP1=0, select bank1
  5245  06C0  0855               	movf	(RFM70_Initialize@j)^080h,w
  5246  06C1  3EC8               	addlw	RFM70_Initialize@WriteArr&0ffh
  5247  06C2  0084               	movwf	fsr0
  5248  06C3  1283               	bcf	status, 5	;RP0=0, select bank0
  5249  06C4  1303               	bcf	status, 6	;RP1=0, select bank0
  5250  06C5  083E               	movf	(??_RFM70_Initialize+0)+0,w
  5251  06C6  1383               	bcf	status, 7	;select IRP bank1
  5252  06C7  0080               	movwf	indf
  5253                           opt subtitle "HI-TECH Software Omniscient Code Generator (Lite mode) build 49521"
  5254                           
  5255  06C8                     l4765:	
  5256  06C8  3001               	movlw	(01h)
  5257  06C9  00BE               	movwf	(??_RFM70_Initialize+0)+0
  5258  06CA  083E               	movf	(??_RFM70_Initialize+0)+0,w
  5259  06CB  1683               	bsf	status, 5	;RP0=1, select bank1
  5260  06CC  1303               	bcf	status, 6	;RP1=0, select bank1
  5261  06CD  07D5               	addwf	(RFM70_Initialize@j)^080h,f
  5262                           opt subtitle "HI-TECH Software Omniscient Code Generator (Lite mode) build 49521"
  5263  06CE                     l4767:	
  5264  06CE  300B               	movlw	(0Bh)
  5265  06CF  0255               	subwf	(RFM70_Initialize@j)^080h,w
  5266  06D0  1C03               	skipc
  5267  06D1  2ED3               	goto	u4781
  5268  06D2  2ED4               	goto	u4780
  5269  06D3                     u4781:
  5270  06D3  2EAF               	goto	l4763
  5271  06D4                     u4780:
  5272  06D4  2ED5               	goto	l4769
  5273                           opt subtitle "HI-TECH Software Omniscient Code Generator (Lite mode) build 49521"
  5274  06D5                     l373:	
  5275                           opt subtitle "HI-TECH Software Omniscient Code Generator (Lite mode) build 49521"
  5276                           
  5277  06D5                     l4769:	
  5278                           opt subtitle "HI-TECH Software Omniscient Code Generator (Lite mode) build 49521"
  5279                           
  5280  06D5  30C8               	movlw	(RFM70_Initialize@WriteArr)&0ffh
  5281  06D6  1283               	bcf	status, 5	;RP0=0, select bank0
  5282  06D7  1303               	bcf	status, 6	;RP1=0, select bank0
  5283  06D8  00BE               	movwf	(??_RFM70_Initialize+0)+0
  5284  06D9  083E               	movf	(??_RFM70_Initialize+0)+0,w
  5285  06DA  00B8               	movwf	(?_SPI_Write_Buf)
  5286  06DB  300B               	movlw	(0Bh)
  5287  06DC  00BF               	movwf	(??_RFM70_Initialize+1)+0
  5288  06DD  083F               	movf	(??_RFM70_Initialize+1)+0,w
  5289  06DE  00B9               	movwf	0+(?_SPI_Write_Buf)+01h
  5290  06DF  302E               	movlw	(02Eh)
  5291  06E0  160A  118A  234B   	fcall	_SPI_Write_Buf
              120A  118A         
  5292                           opt subtitle "HI-TECH Software Omniscient Code Generator (Lite mode) build 49521"
  5293                           
  5294  06E5                     l4771:	
  5295                           opt subtitle "HI-TECH Software Omniscient Code Generator (Lite mode) build 49521"
  5296  06E5  1683               	bsf	status, 5	;RP0=1, select bank1
  5297  06E6  1303               	bcf	status, 6	;RP1=0, select bank1
  5298  06E7  01D5               	clrf	(RFM70_Initialize@j)^080h
  5299                           opt subtitle "HI-TECH Software Omniscient Code Generator (Lite mode) build 49521"
  5300  06E8                     l4773:	
  5301  06E8  3004               	movlw	(04h)
  5302  06E9  0255               	subwf	(RFM70_Initialize@j)^080h,w
  5303  06EA  1C03               	skipc
  5304  06EB  2EED               	goto	u4791
  5305  06EC  2EEE               	goto	u4790
  5306  06ED                     u4791:
  5307  06ED  2EF0               	goto	l4777
  5308  06EE                     u4790:
  5309  06EE  2F3F               	goto	l4783
  5310                           opt subtitle "HI-TECH Software Omniscient Code Generator (Lite mode) build 49521"
  5311  06EF                     l4775:	
  5312  06EF  2F3F               	goto	l4783
  5313                           opt subtitle "HI-TECH Software Omniscient Code Generator (Lite mode) build 49521"
  5314                           
  5315  06F0                     l374:	
  5316                           opt subtitle "HI-TECH Software Omniscient Code Generator (Lite mode) build 49521"
  5317  06F0                     l4777:	
  5318                           opt subtitle "HI-TECH Software Omniscient Code Generator (Lite mode) build 49521"
  5319  06F0  3022               	movlw	low(_Bank1_Reg0_13|8000h+010h)
  5320  06F1  0084               	movwf	fsr0
  5321  06F2  3090               	movlw	high(_Bank1_Reg0_13|8000h+010h)
  5322  06F3  1283               	bcf	status, 5	;RP0=0, select bank0
  5323  06F4  1303               	bcf	status, 6	;RP1=0, select bank0
  5324  06F5  00FF               	movwf	btemp+1
  5325  06F6  160A  118A  2000   	fcall	stringtab
              120A  118A         
  5326  06FB  00BE               	movwf	((??_RFM70_Initialize+0)+0)
  5327  06FC  160A  118A  2000   	fcall	stringtab
              120A  118A         
  5328  0701  00BF               	movwf	((??_RFM70_Initialize+0)+0+1)
  5329  0702  160A  118A  2000   	fcall	stringtab
              120A  118A         
  5330  0707  00C0               	movwf	((??_RFM70_Initialize+0)+0+2)
  5331  0708  160A  118A  2000   	fcall	stringtab
              120A  118A         
  5332  070D  00C1               	movwf	((??_RFM70_Initialize+0)+0+3)
  5333  070E  1683               	bsf	status, 5	;RP0=1, select bank1
  5334  070F  1303               	bcf	status, 6	;RP1=0, select bank1
  5335  0710  0855               	movf	(RFM70_Initialize@j)^080h,w
  5336  0711  1283               	bcf	status, 5	;RP0=0, select bank0
  5337  0712  1303               	bcf	status, 6	;RP1=0, select bank0
  5338  0713  00C2               	movwf	(??_RFM70_Initialize+4)+0
  5339  0714  3002               	movlw	(03h)-1
  5340  0715                     u4805:
  5341  0715  1003               	clrc
  5342  0716  0DC2               	rlf	(??_RFM70_Initialize+4)+0,f
  5343  0717  3EFF               	addlw	-1
  5344  0718  1D03               	skipz
  5345  0719  2F15               	goto	u4805
  5346  071A  1003               	clrc
  5347  071B  0D42               	rlf	(??_RFM70_Initialize+4)+0,w
  5348  071C  3E01               	addlw	1
  5349  071D  2F23               	goto	u4810
  5350  071E                     u4815:
  5351  071E  1003               	clrc
  5352  071F  0CC1               	rrf	(??_RFM70_Initialize+0)+3,f
  5353  0720  0CC0               	rrf	(??_RFM70_Initialize+0)+2,f
  5354  0721  0CBF               	rrf	(??_RFM70_Initialize+0)+1,f
  5355  0722  0CBE               	rrf	(??_RFM70_Initialize+0)+0,f
  5356  0723                     u4810:
  5357  0723  3EFF               	addlw	-1
  5358  0724  1D03               	skipz
  5359  0725  2F1E               	goto	u4815
  5360  0726  083E               	movf	0+(??_RFM70_Initialize+0)+0,w
  5361  0727  00C3               	movwf	(??_RFM70_Initialize+5)+0
  5362  0728  1683               	bsf	status, 5	;RP0=1, select bank1
  5363  0729  1303               	bcf	status, 6	;RP1=0, select bank1
  5364  072A  0855               	movf	(RFM70_Initialize@j)^080h,w
  5365  072B  3EC8               	addlw	RFM70_Initialize@WriteArr&0ffh
  5366  072C  0084               	movwf	fsr0
  5367  072D  1283               	bcf	status, 5	;RP0=0, select bank0
  5368  072E  1303               	bcf	status, 6	;RP1=0, select bank0
  5369  072F  0843               	movf	(??_RFM70_Initialize+5)+0,w
  5370  0730  1383               	bcf	status, 7	;select IRP bank1
  5371  0731  0080               	movwf	indf
  5372                           opt subtitle "HI-TECH Software Omniscient Code Generator (Lite mode) build 49521"
  5373                           
  5374  0732                     l4779:	
  5375  0732  3001               	movlw	(01h)
  5376  0733  00BE               	movwf	(??_RFM70_Initialize+0)+0
  5377  0734  083E               	movf	(??_RFM70_Initialize+0)+0,w
  5378  0735  1683               	bsf	status, 5	;RP0=1, select bank1
  5379  0736  1303               	bcf	status, 6	;RP1=0, select bank1
  5380  0737  07D5               	addwf	(RFM70_Initialize@j)^080h,f
  5381                           opt subtitle "HI-TECH Software Omniscient Code Generator (Lite mode) build 49521"
  5382  0738                     l4781:	
  5383  0738  3004               	movlw	(04h)
  5384  0739  0255               	subwf	(RFM70_Initialize@j)^080h,w
  5385  073A  1C03               	skipc
  5386  073B  2F3D               	goto	u4821
  5387  073C  2F3E               	goto	u4820
  5388  073D                     u4821:
  5389  073D  2EF0               	goto	l4777
  5390  073E                     u4820:
  5391  073E  2F3F               	goto	l4783
  5392                           opt subtitle "HI-TECH Software Omniscient Code Generator (Lite mode) build 49521"
  5393  073F                     l375:	
  5394                           opt subtitle "HI-TECH Software Omniscient Code Generator (Lite mode) build 49521"
  5395                           
  5396  073F                     l4783:	
  5397                           opt subtitle "HI-TECH Software Omniscient Code Generator (Lite mode) build 49521"
  5398  073F  0848               	movf	(RFM70_Initialize@WriteArr)^080h,w
  5399  0740  3806               	iorlw	06h
  5400  0741  1283               	bcf	status, 5	;RP0=0, select bank0
  5401  0742  1303               	bcf	status, 6	;RP1=0, select bank0
  5402  0743  00BE               	movwf	(??_RFM70_Initialize+0)+0
  5403  0744  083E               	movf	(??_RFM70_Initialize+0)+0,w
  5404  0745  1683               	bsf	status, 5	;RP0=1, select bank1
  5405  0746  1303               	bcf	status, 6	;RP1=0, select bank1
  5406  0747  00C8               	movwf	(RFM70_Initialize@WriteArr)^080h
  5407                           opt subtitle "HI-TECH Software Omniscient Code Generator (Lite mode) build 49521"
  5408                           
  5409  0748                     l4785:	
  5410                           opt subtitle "HI-TECH Software Omniscient Code Generator (Lite mode) build 49521"
  5411  0748  30C8               	movlw	(RFM70_Initialize@WriteArr)&0ffh
  5412  0749  1283               	bcf	status, 5	;RP0=0, select bank0
  5413  074A  1303               	bcf	status, 6	;RP1=0, select bank0
  5414  074B  00BE               	movwf	(??_RFM70_Initialize+0)+0
  5415  074C  083E               	movf	(??_RFM70_Initialize+0)+0,w
  5416  074D  00B8               	movwf	(?_SPI_Write_Buf)
  5417  074E  3004               	movlw	(04h)
  5418  074F  00BF               	movwf	(??_RFM70_Initialize+1)+0
  5419  0750  083F               	movf	(??_RFM70_Initialize+1)+0,w
  5420  0751  00B9               	movwf	0+(?_SPI_Write_Buf)+01h
  5421  0752  3024               	movlw	(024h)
  5422  0753  160A  118A  234B   	fcall	_SPI_Write_Buf
              120A  118A         
  5423                           opt subtitle "HI-TECH Software Omniscient Code Generator (Lite mode) build 49521"
  5424                           
  5425  0758                     l4787:	
  5426                           opt subtitle "HI-TECH Software Omniscient Code Generator (Lite mode) build 49521"
  5427  0758  1683               	bsf	status, 5	;RP0=1, select bank1
  5428  0759  1303               	bcf	status, 6	;RP1=0, select bank1
  5429  075A  0848               	movf	(RFM70_Initialize@WriteArr)^080h,w
  5430  075B  39F9               	andlw	0F9h
  5431  075C  1283               	bcf	status, 5	;RP0=0, select bank0
  5432  075D  1303               	bcf	status, 6	;RP1=0, select bank0
  5433  075E  00BE               	movwf	(??_RFM70_Initialize+0)+0
  5434  075F  083E               	movf	(??_RFM70_Initialize+0)+0,w
  5435  0760  1683               	bsf	status, 5	;RP0=1, select bank1
  5436  0761  1303               	bcf	status, 6	;RP1=0, select bank1
  5437  0762  00C8               	movwf	(RFM70_Initialize@WriteArr)^080h
  5438                           opt subtitle "HI-TECH Software Omniscient Code Generator (Lite mode) build 49521"
  5439                           
  5440  0763  30C8               	movlw	(RFM70_Initialize@WriteArr)&0ffh
  5441  0764  1283               	bcf	status, 5	;RP0=0, select bank0
  5442  0765  1303               	bcf	status, 6	;RP1=0, select bank0
  5443  0766  00BE               	movwf	(??_RFM70_Initialize+0)+0
  5444  0767  083E               	movf	(??_RFM70_Initialize+0)+0,w
  5445  0768  00B8               	movwf	(?_SPI_Write_Buf)
  5446  0769  3004               	movlw	(04h)
  5447  076A  00BF               	movwf	(??_RFM70_Initialize+1)+0
  5448  076B  083F               	movf	(??_RFM70_Initialize+1)+0,w
  5449  076C  00B9               	movwf	0+(?_SPI_Write_Buf)+01h
  5450  076D  3024               	movlw	(024h)
  5451  076E  160A  118A  234B   	fcall	_SPI_Write_Buf
              120A  118A         
  5452                           opt subtitle "HI-TECH Software Omniscient Code Generator (Lite mode) build 49521"
  5453                           
  5454  0773                     l4789:	
  5455                           opt subtitle "HI-TECH Software Omniscient Code Generator (Lite mode) build 49521"
  5456                           
  5457  0773  3082               movlw	130
  5458  0774  1283               	bcf	status, 5	;RP0=0, select bank0
  5459  0775  1303               	bcf	status, 6	;RP1=0, select bank0
  5460  0776  00BF               movwf	((??_RFM70_Initialize+0)+0+1),f
  5461  0777  30DD               	movlw	221
  5462  0778  00BE               movwf	((??_RFM70_Initialize+0)+0),f
  5463  0779                     u5927:
  5464  0779  0BBE               	decfsz	((??_RFM70_Initialize+0)+0),f
  5465  077A  2F79               	goto	u5927
  5466  077B  0BBF               	decfsz	((??_RFM70_Initialize+0)+0+1),f
  5467  077C  2F79               	goto	u5927
  5468  077D  2F7E               	nop2
  5469                           opt subtitle "HI-TECH Software Omniscient Code Generator (Lite mode) build 49521"
  5470                           
  5471                           opt pagewidth 120
  5472                           
  5473  077E                     l4791:	
  5474                           opt subtitle "HI-TECH Software Omniscient Code Generator (Lite mode) build 49521"
  5475  077E  3000               	movlw	(0)
  5476  077F  160A  118A  2485   	fcall	_SwitchCFG
              120A  118A         
  5477                           opt subtitle "HI-TECH Software Omniscient Code Generator (Lite mode) build 49521"
  5478                           
  5479  0784                     l4793:	
  5480                           opt subtitle "HI-TECH Software Omniscient Code Generator (Lite mode) build 49521"
  5481  0784  1283               	bcf	status, 5	;RP0=0, select bank0
  5482  0785  1303               	bcf	status, 6	;RP1=0, select bank0
  5483  0786  1107               	bcf	(7),2	;volatile
  5484                           opt subtitle "HI-TECH Software Omniscient Code Generator (Lite mode) build 49521"
  5485                           
  5486  0787                     l376:	
  5487  0787  0008               	return
  5488                           opt subtitle "HI-TECH Software Omniscient Code Generator (Lite mode) build 49521"
  5489                           
  5490  0788                     	__end_of_RFM70_Initialize:
  5491                           opt subtitle "HI-TECH Software Omniscient Code Generator (Lite mode) build 49521"
  5492                           
  5493                           opt pagewidth 120
  5494                           
  5495                           	opt lm
  5496                           
  5497                           	processor	16LF707
  5498                           clrc	macro
  5499                           	bcf	3,0
  5500                           	endm
  5501                           clrz	macro
  5502                           	bcf	3,2
  5503                           	endm
  5504                           setc	macro
  5505                           	bsf	3,0
  5506                           	endm
  5507                           setz	macro
  5508                           	bsf	3,2
  5509                           	endm
  5510                           skipc	macro
  5511                           	btfss	3,0
  5512                           	endm
  5513                           skipz	macro
  5514                           	btfss	3,2
  5515                           	endm
  5516                           skipnc	macro
  5517                           	btfsc	3,0
  5518                           	endm
  5519                           skipnz	macro
  5520                           	btfsc	3,2
  5521                           	endm
  5522                           indf	equ	0
  5523                           indf0	equ	0
  5524                           pc	equ	2
  5525  1425                     __ptext1287:	;psect for function _adcReadTemp
  5526                           opt subtitle "HI-TECH Software Omniscient Code Generator (Lite mode) build 49521"
  5527                           
  5528                           opt pagewidth 120
  5529                           
  5530  0030                     	__size_of_adcReadTemp	equ	__end_of_adcReadTemp-_adcReadTemp
  5531                           opt subtitle "HI-TECH Software Omniscient Code Generator (Lite mode) build 49521"
  5532  1425                     _adcReadTemp:	
  5533                           opt subtitle "HI-TECH Software Omniscient Code Generator (Lite mode) build 49521"
  5534                           
  5535                           opt pagewidth 120
  5536                           
  5537  1425                     l4795:	
  5538                           opt subtitle "HI-TECH Software Omniscient Code Generator (Lite mode) build 49521"
  5539                           
  5540  1425  1283               	bcf	status, 5	;RP0=0, select bank0
  5541  1426  1303               	bcf	status, 6	;RP1=0, select bank0
  5542  1427  081F               	movf	(31),w	;volatile
  5543  1428  39C3               	andlw	not (((1<<4)-1)<<2)
  5544  1429  381C               	iorlw	(07h & ((1<<4)-1))<<2
  5545  142A  009F               	movwf	(31)	;volatile
  5546                           opt subtitle "HI-TECH Software Omniscient Code Generator (Lite mode) build 49521"
  5547                           
  5548  142B  1683               	bsf	status, 5	;RP0=1, select bank1
  5549  142C  1303               	bcf	status, 6	;RP1=0, select bank1
  5550  142D  081D               	movf	(157)^080h,w	;volatile
  5551  142E  39FC               	andlw	not (((1<<2)-1)<<0)
  5552  142F  3801               	iorlw	(01h & ((1<<2)-1))<<0
  5553  1430  009D               	movwf	(157)^080h	;volatile
  5554                           opt subtitle "HI-TECH Software Omniscient Code Generator (Lite mode) build 49521"
  5555                           
  5556  1431  2C32               	goto	l204
  5557                           opt subtitle "HI-TECH Software Omniscient Code Generator (Lite mode) build 49521"
  5558  1432                     l205:	
  5559                           opt subtitle "HI-TECH Software Omniscient Code Generator (Lite mode) build 49521"
  5560  1432                     l204:	
  5561  1432  1F9D               	btfss	(157)^080h,7	;volatile
  5562  1433  2C35               	goto	u4831
  5563  1434  2C36               	goto	u4830
  5564  1435                     u4831:
  5565  1435  2C32               	goto	l204
  5566  1436                     u4830:
  5567                           opt subtitle "HI-TECH Software Omniscient Code Generator (Lite mode) build 49521"
  5568  1436                     l206:	
  5569                           opt subtitle "HI-TECH Software Omniscient Code Generator (Lite mode) build 49521"
  5570                           
  5571  1436  1283               	bcf	status, 5	;RP0=0, select bank0
  5572  1437  1303               	bcf	status, 6	;RP1=0, select bank0
  5573  1438  141F               	bsf	(31),0	;volatile
  5574                           opt subtitle "HI-TECH Software Omniscient Code Generator (Lite mode) build 49521"
  5575                           
  5576  1439  1408               	bsf	(8),0	;volatile
  5577                           opt subtitle "HI-TECH Software Omniscient Code Generator (Lite mode) build 49521"
  5578                           
  5579  143A                     l4797:	
  5580                           opt subtitle "HI-TECH Software Omniscient Code Generator (Lite mode) build 49521"
  5581                           
  5582  143A  3003               movlw	3
  5583  143B  00B6               movwf	((??_adcReadTemp+0)+0+1),f
  5584  143C  3097               	movlw	151
  5585  143D  00B5               movwf	((??_adcReadTemp+0)+0),f
  5586  143E                     u5937:
  5587  143E  0BB5               	decfsz	((??_adcReadTemp+0)+0),f
  5588  143F  2C3E               	goto	u5937
  5589  1440  0BB6               	decfsz	((??_adcReadTemp+0)+0+1),f
  5590  1441  2C3E               	goto	u5937
  5591  1442  2C43               	nop2
  5592                           opt subtitle "HI-TECH Software Omniscient Code Generator (Lite mode) build 49521"
  5593                           
  5594                           opt pagewidth 120
  5595                           
  5596  1443                     l4799:	
  5597                           opt subtitle "HI-TECH Software Omniscient Code Generator (Lite mode) build 49521"
  5598  1443  1283               	bcf	status, 5	;RP0=0, select bank0
  5599  1444  1303               	bcf	status, 6	;RP1=0, select bank0
  5600  1445  149F               	bsf	(31),1	;volatile
  5601                           opt subtitle "HI-TECH Software Omniscient Code Generator (Lite mode) build 49521"
  5602                           
  5603  1446  2C47               	goto	l207
  5604                           opt subtitle "HI-TECH Software Omniscient Code Generator (Lite mode) build 49521"
  5605  1447                     l208:	
  5606                           opt subtitle "HI-TECH Software Omniscient Code Generator (Lite mode) build 49521"
  5607  1447                     l207:	
  5608  1447  189F               	btfsc	(31),1	;volatile
  5609  1448  2C4A               	goto	u4841
  5610  1449  2C4B               	goto	u4840
  5611  144A                     u4841:
  5612  144A  2C47               	goto	l207
  5613  144B                     u4840:
  5614  144B  2C4C               	goto	l4801
  5615                           opt subtitle "HI-TECH Software Omniscient Code Generator (Lite mode) build 49521"
  5616  144C                     l209:	
  5617                           opt subtitle "HI-TECH Software Omniscient Code Generator (Lite mode) build 49521"
  5618                           
  5619  144C                     l4801:	
  5620                           opt subtitle "HI-TECH Software Omniscient Code Generator (Lite mode) build 49521"
  5621  144C  081E               	movf	(30),w	;volatile
  5622  144D  00B5               	movwf	(??_adcReadTemp+0)+0
  5623  144E  0835               	movf	(??_adcReadTemp+0)+0,w
  5624  144F  00B7               	movwf	(adcReadTemp@value)
  5625                           opt subtitle "HI-TECH Software Omniscient Code Generator (Lite mode) build 49521"
  5626                           
  5627  1450                     l4803:	
  5628                           opt subtitle "HI-TECH Software Omniscient Code Generator (Lite mode) build 49521"
  5629  1450  101F               	bcf	(31),0	;volatile
  5630                           opt subtitle "HI-TECH Software Omniscient Code Generator (Lite mode) build 49521"
  5631                           
  5632  1451                     l4805:	
  5633                           opt subtitle "HI-TECH Software Omniscient Code Generator (Lite mode) build 49521"
  5634  1451  1008               	bcf	(8),0	;volatile
  5635                           opt subtitle "HI-TECH Software Omniscient Code Generator (Lite mode) build 49521"
  5636                           
  5637  1452  0837               	movf	(adcReadTemp@value),w
  5638  1453  2C54               	goto	l210
  5639                           opt subtitle "HI-TECH Software Omniscient Code Generator (Lite mode) build 49521"
  5640  1454                     l4807:	
  5641                           opt subtitle "HI-TECH Software Omniscient Code Generator (Lite mode) build 49521"
  5642                           
  5643  1454                     l210:	
  5644  1454  0008               	return
  5645                           opt subtitle "HI-TECH Software Omniscient Code Generator (Lite mode) build 49521"
  5646                           
  5647  1455                     	__end_of_adcReadTemp:
  5648                           opt subtitle "HI-TECH Software Omniscient Code Generator (Lite mode) build 49521"
  5649                           
  5650                           opt pagewidth 120
  5651                           
  5652                           	opt lm
  5653                           
  5654                           	processor	16LF707
  5655                           clrc	macro
  5656                           	bcf	3,0
  5657                           	endm
  5658                           clrz	macro
  5659                           	bcf	3,2
  5660                           	endm
  5661                           setc	macro
  5662                           	bsf	3,0
  5663                           	endm
  5664                           setz	macro
  5665                           	bsf	3,2
  5666                           	endm
  5667                           skipc	macro
  5668                           	btfss	3,0
  5669                           	endm
  5670                           skipz	macro
  5671                           	btfss	3,2
  5672                           	endm
  5673                           skipnc	macro
  5674                           	btfsc	3,0
  5675                           	endm
  5676                           skipnz	macro
  5677                           	btfsc	3,2
  5678                           	endm
  5679                           indf	equ	0
  5680                           indf0	equ	0
  5681                           pc	equ	2
  5682                           pcl	equ	2
  5683                           status	equ	3
  5684                           fsr	equ	4
  5685                           fsr0	equ	4
  5686                           c	equ	1
  5687                           z	equ	0
  5688                           pclath	equ	10
  5689                           # 46 "/Applications/microchip/xc8/v1.12/include/pic16lf707.h"
  5690                           INDF equ 00h ;# 
  5691                           # 52 "/Applications/microchip/xc8/v1.12/include/pic16lf707.h"
  5692                           TMR0 equ 01h ;# 
  5693  091A                     __ptext1288:	;psect for function _Send_Packet
  5694                           opt subtitle "HI-TECH Software Omniscient Code Generator (Lite mode) build 49521"
  5695                           
  5696                           opt pagewidth 120
  5697                           
  5698  00E4                     	__size_of_Send_Packet	equ	__end_of_Send_Packet-_Send_Packet
  5699                           opt subtitle "HI-TECH Software Omniscient Code Generator (Lite mode) build 49521"
  5700  091A                     _Send_Packet:	
  5701                           opt subtitle "HI-TECH Software Omniscient Code Generator (Lite mode) build 49521"
  5702                           
  5703                           opt pagewidth 120
  5704                           
  5705  091A  1683               	bsf	status, 5	;RP0=1, select bank1
  5706  091B  1303               	bcf	status, 6	;RP1=0, select bank1
  5707  091C  00D4               	movwf	(Send_Packet@type)^080h
  5708                           opt subtitle "HI-TECH Software Omniscient Code Generator (Lite mode) build 49521"
  5709  091D                     l4809:	
  5710                           opt subtitle "HI-TECH Software Omniscient Code Generator (Lite mode) build 49521"
  5711                           
  5712  091D  160A  118A  2375   	fcall	_SwitchToTxMode
              120A  158A         
  5713                           opt subtitle "HI-TECH Software Omniscient Code Generator (Lite mode) build 49521"
  5714                           
  5715  0922                     l4811:	
  5716                           opt subtitle "HI-TECH Software Omniscient Code Generator (Lite mode) build 49521"
  5717  0922  3017               	movlw	(017h)
  5718  0923  160A  118A  22AE   	fcall	_SPI_Read_Reg
              120A  158A         
  5719  0928  1683               	bsf	status, 5	;RP0=1, select bank1
  5720  0929  1303               	bcf	status, 6	;RP1=0, select bank1
  5721  092A  00D1               	movwf	(??_Send_Packet+0)^080h+0
  5722  092B  0851               	movf	(??_Send_Packet+0)^080h+0,w
  5723  092C  00D5               	movwf	(Send_Packet@fifo_sta)^080h
  5724                           opt subtitle "HI-TECH Software Omniscient Code Generator (Lite mode) build 49521"
  5725                           
  5726  092D                     l4813:	
  5727                           opt subtitle "HI-TECH Software Omniscient Code Generator (Lite mode) build 49521"
  5728  092D  1AD5               	btfsc	(Send_Packet@fifo_sta)^080h,(5)&7
  5729  092E  2930               	goto	u4851
  5730  092F  2931               	goto	u4850
  5731  0930                     u4851:
  5732  0930  29FD               	goto	l275
  5733  0931                     u4850:
  5734                           opt subtitle "HI-TECH Software Omniscient Code Generator (Lite mode) build 49521"
  5735                           
  5736  0931                     l4815:	
  5737                           opt subtitle "HI-TECH Software Omniscient Code Generator (Lite mode) build 49521"
  5738                           
  5739  0931  308D               	movlw	low(STR_8|8000h)
  5740  0932  1283               	bcf	status, 5	;RP0=0, select bank0
  5741  0933  1303               	bcf	status, 6	;RP1=0, select bank0
  5742  0934  00C3               	movwf	(?_printf)
  5743  0935  3091               	movlw	high(STR_8|8000h)
  5744  0936  00C4               	movwf	((?_printf))+1
  5745  0937  120A  158A  2600   	fcall	_printf
              120A  158A         
  5746                           opt subtitle "HI-TECH Software Omniscient Code Generator (Lite mode) build 49521"
  5747                           
  5748  093C                     l4817:	
  5749                           opt subtitle "HI-TECH Software Omniscient Code Generator (Lite mode) build 49521"
  5750  093C  1683               	bsf	status, 5	;RP0=1, select bank1
  5751  093D  1303               	bcf	status, 6	;RP1=0, select bank1
  5752  093E  01D6               	clrf	(Send_Packet@i)^080h
  5753  093F  296B               	goto	l4823
  5754                           opt subtitle "HI-TECH Software Omniscient Code Generator (Lite mode) build 49521"
  5755  0940                     l268:	
  5756                           opt subtitle "HI-TECH Software Omniscient Code Generator (Lite mode) build 49521"
  5757                           
  5758  0940                     l4819:	
  5759                           opt subtitle "HI-TECH Software Omniscient Code Generator (Lite mode) build 49521"
  5760  0940  309C               	movlw	low(STR_9|8000h)
  5761  0941  1283               	bcf	status, 5	;RP0=0, select bank0
  5762  0942  1303               	bcf	status, 6	;RP1=0, select bank0
  5763  0943  00C3               	movwf	(?_printf)
  5764  0944  3091               	movlw	high(STR_9|8000h)
  5765  0945  00C4               	movwf	((?_printf))+1
  5766  0946  1683               	bsf	status, 5	;RP0=1, select bank1
  5767  0947  1303               	bcf	status, 6	;RP1=0, select bank1
  5768  0948  0856               	movf	(Send_Packet@i)^080h,w
  5769  0949  1283               	bcf	status, 5	;RP0=0, select bank0
  5770  094A  1303               	bcf	status, 6	;RP1=0, select bank0
  5771  094B  074C               	addwf	(Send_Packet@pbuf),w
  5772  094C  1683               	bsf	status, 5	;RP0=1, select bank1
  5773  094D  1303               	bcf	status, 6	;RP1=0, select bank1
  5774  094E  00D1               	movwf	(??_Send_Packet+0)^080h+0
  5775  094F  0851               	movf	0+(??_Send_Packet+0)^080h+0,w
  5776  0950  0084               	movwf	fsr0
  5777  0951  1383               	bcf	status, 7	;select IRP bank0
  5778  0952  0800               	movf	indf,w
  5779  0953  00D2               	movwf	(??_Send_Packet+1)^080h+0+0
  5780  0954  01D3               	clrf	(??_Send_Packet+1)^080h+0+1
  5781  0955  0852               	movf	0+(??_Send_Packet+1)^080h+0,w
  5782  0956  1283               	bcf	status, 5	;RP0=0, select bank0
  5783  0957  1303               	bcf	status, 6	;RP1=0, select bank0
  5784  0958  00C5               	movwf	0+(?_printf)+02h
  5785  0959  1683               	bsf	status, 5	;RP0=1, select bank1
  5786  095A  1303               	bcf	status, 6	;RP1=0, select bank1
  5787  095B  0853               	movf	1+(??_Send_Packet+1)^080h+0,w
  5788  095C  1283               	bcf	status, 5	;RP0=0, select bank0
  5789  095D  1303               	bcf	status, 6	;RP1=0, select bank0
  5790  095E  00C6               	movwf	1+(?_printf)+02h
  5791  095F  120A  158A  2600   	fcall	_printf
              120A  158A         
  5792                           opt subtitle "HI-TECH Software Omniscient Code Generator (Lite mode) build 49521"
  5793                           
  5794  0964                     l4821:	
  5795  0964  3001               	movlw	(01h)
  5796  0965  1683               	bsf	status, 5	;RP0=1, select bank1
  5797  0966  1303               	bcf	status, 6	;RP1=0, select bank1
  5798  0967  00D1               	movwf	(??_Send_Packet+0)^080h+0
  5799  0968  0851               	movf	(??_Send_Packet+0)^080h+0,w
  5800  0969  07D6               	addwf	(Send_Packet@i)^080h,f
  5801  096A  296B               	goto	l4823
  5802                           opt subtitle "HI-TECH Software Omniscient Code Generator (Lite mode) build 49521"
  5803  096B                     l267:	
  5804                           opt subtitle "HI-TECH Software Omniscient Code Generator (Lite mode) build 49521"
  5805  096B                     l4823:	
  5806  096B  1283               	bcf	status, 5	;RP0=0, select bank0
  5807  096C  1303               	bcf	status, 6	;RP1=0, select bank0
  5808  096D  084D               	movf	(Send_Packet@len),w
  5809  096E  1683               	bsf	status, 5	;RP0=1, select bank1
  5810  096F  1303               	bcf	status, 6	;RP1=0, select bank1
  5811  0970  0256               	subwf	(Send_Packet@i)^080h,w
  5812  0971  1C03               	skipc
  5813  0972  2974               	goto	u4861
  5814  0973  2975               	goto	u4860
  5815  0974                     u4861:
  5816  0974  2940               	goto	l4819
  5817  0975                     u4860:
  5818  0975  2976               	goto	l4825
  5819                           opt subtitle "HI-TECH Software Omniscient Code Generator (Lite mode) build 49521"
  5820  0976                     l269:	
  5821                           opt subtitle "HI-TECH Software Omniscient Code Generator (Lite mode) build 49521"
  5822                           
  5823  0976                     l4825:	
  5824                           opt subtitle "HI-TECH Software Omniscient Code Generator (Lite mode) build 49521"
  5825                           
  5826  0976  3099               	movlw	low(STR_10|8000h)
  5827  0977  1283               	bcf	status, 5	;RP0=0, select bank0
  5828  0978  1303               	bcf	status, 6	;RP1=0, select bank0
  5829  0979  00C3               	movwf	(?_printf)
  5830  097A  3091               	movlw	high(STR_10|8000h)
  5831  097B  00C4               	movwf	((?_printf))+1
  5832  097C  120A  158A  2600   	fcall	_printf
              120A  158A         
  5833                           opt subtitle "HI-TECH Software Omniscient Code Generator (Lite mode) build 49521"
  5834                           
  5835  0981                     l4827:	
  5836                           opt subtitle "HI-TECH Software Omniscient Code Generator (Lite mode) build 49521"
  5837  0981  1283               	bcf	status, 5	;RP0=0, select bank0
  5838  0982  1303               	bcf	status, 6	;RP1=0, select bank0
  5839  0983  1107               	bcf	(7),2	;volatile
  5840                           opt subtitle "HI-TECH Software Omniscient Code Generator (Lite mode) build 49521"
  5841                           
  5842  0984                     l4829:	
  5843                           opt subtitle "HI-TECH Software Omniscient Code Generator (Lite mode) build 49521"
  5844  0984  084C               	movf	(Send_Packet@pbuf),w
  5845  0985  1683               	bsf	status, 5	;RP0=1, select bank1
  5846  0986  1303               	bcf	status, 6	;RP1=0, select bank1
  5847  0987  00D1               	movwf	(??_Send_Packet+0)^080h+0
  5848  0988  0851               	movf	(??_Send_Packet+0)^080h+0,w
  5849  0989  1283               	bcf	status, 5	;RP0=0, select bank0
  5850  098A  1303               	bcf	status, 6	;RP1=0, select bank0
  5851  098B  00B8               	movwf	(?_SPI_Write_Buf)
  5852  098C  084D               	movf	(Send_Packet@len),w
  5853  098D  1683               	bsf	status, 5	;RP0=1, select bank1
  5854  098E  1303               	bcf	status, 6	;RP1=0, select bank1
  5855  098F  00D2               	movwf	(??_Send_Packet+1)^080h+0
  5856  0990  0852               	movf	(??_Send_Packet+1)^080h+0,w
  5857  0991  1283               	bcf	status, 5	;RP0=0, select bank0
  5858  0992  1303               	bcf	status, 6	;RP1=0, select bank0
  5859  0993  00B9               	movwf	0+(?_SPI_Write_Buf)+01h
  5860  0994  1683               	bsf	status, 5	;RP0=1, select bank1
  5861  0995  1303               	bcf	status, 6	;RP1=0, select bank1
  5862  0996  0854               	movf	(Send_Packet@type)^080h,w
  5863  0997  160A  118A  234B   	fcall	_SPI_Write_Buf
              120A  158A         
  5864                           opt subtitle "HI-TECH Software Omniscient Code Generator (Lite mode) build 49521"
  5865                           
  5866  099C                     l4831:	
  5867                           opt subtitle "HI-TECH Software Omniscient Code Generator (Lite mode) build 49521"
  5868  099C  1283               	bcf	status, 5	;RP0=0, select bank0
  5869  099D  1303               	bcf	status, 6	;RP1=0, select bank0
  5870  099E  1507               	bsf	(7),2	;volatile
  5871                           opt subtitle "HI-TECH Software Omniscient Code Generator (Lite mode) build 49521"
  5872                           
  5873  099F                     l4833:	
  5874                           opt subtitle "HI-TECH Software Omniscient Code Generator (Lite mode) build 49521"
  5875                           
  5876  099F  3006               movlw	6
  5877  09A0  1683               	bsf	status, 5	;RP0=1, select bank1
  5878  09A1  1303               	bcf	status, 6	;RP1=0, select bank1
  5879  09A2  00D1               movwf	(??_Send_Packet+0)^080h+0,f
  5880  09A3                     u5947:
  5881  09A3  0BD1               decfsz	(??_Send_Packet+0)^080h+0,f
  5882  09A4  29A3               	goto	u5947
  5883  09A5  0000               	nop
  5884                           opt subtitle "HI-TECH Software Omniscient Code Generator (Lite mode) build 49521"
  5885                           
  5886                           opt pagewidth 120
  5887                           
  5888  09A6                     l4835:	
  5889                           opt subtitle "HI-TECH Software Omniscient Code Generator (Lite mode) build 49521"
  5890  09A6  1283               	bcf	status, 5	;RP0=0, select bank0
  5891  09A7  1303               	bcf	status, 6	;RP1=0, select bank0
  5892  09A8  1107               	bcf	(7),2	;volatile
  5893                           opt subtitle "HI-TECH Software Omniscient Code Generator (Lite mode) build 49521"
  5894                           
  5895  09A9                     l4837:	
  5896                           opt subtitle "HI-TECH Software Omniscient Code Generator (Lite mode) build 49521"
  5897                           
  5898  09A9  3003               movlw	3
  5899  09AA  1683               	bsf	status, 5	;RP0=1, select bank1
  5900  09AB  1303               	bcf	status, 6	;RP1=0, select bank1
  5901  09AC  00D2               movwf	((??_Send_Packet+0)^080h+0+1),f
  5902  09AD  3097               	movlw	151
  5903  09AE  00D1               movwf	((??_Send_Packet+0)^080h+0),f
  5904  09AF                     u5957:
  5905  09AF  0BD1               	decfsz	((??_Send_Packet+0)^080h+0),f
  5906  09B0  29AF               	goto	u5957
  5907  09B1  0BD2               	decfsz	((??_Send_Packet+0)^080h+0+1),f
  5908  09B2  29AF               	goto	u5957
  5909  09B3  29B4               	nop2
  5910                           opt subtitle "HI-TECH Software Omniscient Code Generator (Lite mode) build 49521"
  5911                           
  5912                           opt pagewidth 120
  5913                           
  5914  09B4  29EC               	goto	l4851
  5915                           opt subtitle "HI-TECH Software Omniscient Code Generator (Lite mode) build 49521"
  5916  09B5                     l271:	
  5917                           opt subtitle "HI-TECH Software Omniscient Code Generator (Lite mode) build 49521"
  5918                           
  5919  09B5                     l4839:	
  5920                           opt subtitle "HI-TECH Software Omniscient Code Generator (Lite mode) build 49521"
  5921  09B5  160A  118A  22E6   	fcall	_rfm70TxDataSentInterrupt
              120A  158A         
  5922  09BA  3A00               	xorlw	0
  5923  09BB  1903               	skipnz
  5924  09BC  29BE               	goto	u4871
  5925  09BD  29BF               	goto	u4870
  5926  09BE                     u4871:
  5927  09BE  29D0               	goto	l4845
  5928  09BF                     u4870:
  5929                           opt subtitle "HI-TECH Software Omniscient Code Generator (Lite mode) build 49521"
  5930                           
  5931  09BF                     l4841:	
  5932                           opt subtitle "HI-TECH Software Omniscient Code Generator (Lite mode) build 49521"
  5933  09BF  3070               	movlw	low(STR_11|8000h)
  5934  09C0  1283               	bcf	status, 5	;RP0=0, select bank0
  5935  09C1  1303               	bcf	status, 6	;RP1=0, select bank0
  5936  09C2  00C3               	movwf	(?_printf)
  5937  09C3  3091               	movlw	high(STR_11|8000h)
  5938  09C4  00C4               	movwf	((?_printf))+1
  5939  09C5  120A  158A  2600   	fcall	_printf
              120A  158A         
  5940                           opt subtitle "HI-TECH Software Omniscient Code Generator (Lite mode) build 49521"
  5941                           
  5942  09CA                     l4843:	
  5943                           opt subtitle "HI-TECH Software Omniscient Code Generator (Lite mode) build 49521"
  5944  09CA  160A  118A  24B7   	fcall	_SwitchToRxMode
              120A  158A         
  5945  09CF  29D0               	goto	l4845
  5946                           opt subtitle "HI-TECH Software Omniscient Code Generator (Lite mode) build 49521"
  5947                           
  5948  09D0                     l272:	
  5949                           opt subtitle "HI-TECH Software Omniscient Code Generator (Lite mode) build 49521"
  5950                           
  5951  09D0                     l4845:	
  5952                           opt subtitle "HI-TECH Software Omniscient Code Generator (Lite mode) build 49521"
  5953                           
  5954  09D0  160A  118A  22C7   	fcall	_rfm70TxDataSentErrorInterrupt
              120A  158A         
  5955  09D5  3A00               	xorlw	0
  5956  09D6  1903               	skipnz
  5957  09D7  29D9               	goto	u4881
  5958  09D8  29DA               	goto	u4880
  5959  09D9                     u4881:
  5960  09D9  29EC               	goto	l4851
  5961  09DA                     u4880:
  5962                           opt subtitle "HI-TECH Software Omniscient Code Generator (Lite mode) build 49521"
  5963                           
  5964  09DA                     l4847:	
  5965                           opt subtitle "HI-TECH Software Omniscient Code Generator (Lite mode) build 49521"
  5966  09DA  30E2               	movlw	low(STR_12|8000h)
  5967  09DB  1283               	bcf	status, 5	;RP0=0, select bank0
  5968  09DC  1303               	bcf	status, 6	;RP1=0, select bank0
  5969  09DD  00C3               	movwf	(?_printf)
  5970  09DE  3090               	movlw	high(STR_12|8000h)
  5971  09DF  00C4               	movwf	((?_printf))+1
  5972  09E0  120A  158A  2600   	fcall	_printf
              120A  158A         
  5973                           opt subtitle "HI-TECH Software Omniscient Code Generator (Lite mode) build 49521"
  5974                           
  5975  09E5                     l4849:	
  5976                           opt subtitle "HI-TECH Software Omniscient Code Generator (Lite mode) build 49521"
  5977  09E5  160A  118A  24B7   	fcall	_SwitchToRxMode
              120A  158A         
  5978  09EA  29EC               	goto	l4851
  5979                           opt subtitle "HI-TECH Software Omniscient Code Generator (Lite mode) build 49521"
  5980                           
  5981  09EB                     l273:	
  5982  09EB  29EC               	goto	l4851
  5983                           opt subtitle "HI-TECH Software Omniscient Code Generator (Lite mode) build 49521"
  5984                           
  5985  09EC                     l270:	
  5986                           opt subtitle "HI-TECH Software Omniscient Code Generator (Lite mode) build 49521"
  5987                           
  5988  09EC                     l4851:	
  5989  09EC  1283               	bcf	status, 5	;RP0=0, select bank0
  5990  09ED  1303               	bcf	status, 6	;RP1=0, select bank0
  5991  09EE  1C88               	btfss	(8),1	;volatile
  5992  09EF  29F1               	goto	u4891
  5993  09F0  29F2               	goto	u4890
  5994  09F1                     u4891:
  5995  09F1  29B5               	goto	l4839
  5996  09F2                     u4890:
  5997  09F2  29F3               	goto	l4853
  5998                           opt subtitle "HI-TECH Software Omniscient Code Generator (Lite mode) build 49521"
  5999  09F3                     l274:	
  6000                           opt subtitle "HI-TECH Software Omniscient Code Generator (Lite mode) build 49521"
  6001                           
  6002  09F3                     l4853:	
  6003                           opt subtitle "HI-TECH Software Omniscient Code Generator (Lite mode) build 49521"
  6004                           
  6005                           opt pagewidth 120
  6006  09F3  3097               	movlw	low(STR_13|8000h)
  6007  09F4  00C3               	movwf	(?_printf)
  6008  09F5  3091               	movlw	high(STR_13|8000h)
  6009  09F6  00C4               	movwf	((?_printf))+1
  6010  09F7  120A  158A  2600   	fcall	_printf
              120A  158A         
  6011  09FC  29FD               	goto	l275
  6012                           opt subtitle "HI-TECH Software Omniscient Code Generator (Lite mode) build 49521"
  6013                           
  6014  09FD                     l266:	
  6015                           opt subtitle "HI-TECH Software Omniscient Code Generator (Lite mode) build 49521"
  6016                           
  6017  09FD                     l275:	
  6018  09FD  0008               	return
  6019                           opt subtitle "HI-TECH Software Omniscient Code Generator (Lite mode) build 49521"
  6020                           
  6021  09FE                     	__end_of_Send_Packet:
  6022                           opt subtitle "HI-TECH Software Omniscient Code Generator (Lite mode) build 49521"
  6023                           
  6024                           opt pagewidth 120
  6025                           
  6026                           	opt lm
  6027                           
  6028                           	processor	16LF707
  6029                           clrc	macro
  6030                           	bcf	3,0
  6031                           	endm
  6032                           clrz	macro
  6033                           	bcf	3,2
  6034                           	endm
  6035                           setc	macro
  6036                           	bsf	3,0
  6037                           	endm
  6038                           setz	macro
  6039                           	bsf	3,2
  6040                           	endm
  6041                           skipc	macro
  6042                           	btfss	3,0
  6043                           	endm
  6044                           skipz	macro
  6045                           	btfss	3,2
  6046                           	endm
  6047                           skipnc	macro
  6048                           	btfsc	3,0
  6049                           	endm
  6050                           skipnz	macro
  6051                           	btfsc	3,2
  6052                           	endm
  6053                           indf	equ	0
  6054                           indf0	equ	0
  6055                           pc	equ	2
  6056                           pcl	equ	2
  6057                           status	equ	3
  6058                           fsr	equ	4
  6059                           fsr0	equ	4
  6060                           c	equ	1
  6061                           z	equ	0
  6062                           pclath	equ	10
  6063                           # 46 "/Applications/microchip/xc8/v1.12/include/pic16lf707.h"
  6064                           INDF equ 00h ;# 
  6065                           # 52 "/Applications/microchip/xc8/v1.12/include/pic16lf707.h"
  6066                           TMR0 equ 01h ;# 
  6067                           # 58 "/Applications/microchip/xc8/v1.12/include/pic16lf707.h"
  6068                           PCL equ 02h ;# 
  6069                           # 64 "/Applications/microchip/xc8/v1.12/include/pic16lf707.h"
  6070  0E00                     __ptext1289:	;psect for function _printf
  6071                           opt subtitle "HI-TECH Software Omniscient Code Generator (Lite mode) build 49521"
  6072                           
  6073                           opt pagewidth 120
  6074                           
  6075  0200                     	__size_of_printf	equ	__end_of_printf-_printf
  6076                           opt subtitle "HI-TECH Software Omniscient Code Generator (Lite mode) build 49521"
  6077  0E00                     _printf:	
  6078                           opt subtitle "HI-TECH Software Omniscient Code Generator (Lite mode) build 49521"
  6079                           
  6080                           opt pagewidth 120
  6081                           
  6082  0E00                     l4177:	
  6083                           opt subtitle "HI-TECH Software Omniscient Code Generator (Lite mode) build 49521"
  6084                           
  6085                           opt pagewidth 120
  6086                           
  6087                           	opt lm
  6088                           
  6089                           	processor	16LF707
  6090                           clrc	macro
  6091                           	bcf	3,0
  6092                           	endm
  6093                           clrz	macro
  6094                           	bcf	3,2
  6095  0E00  3045               	movlw	(?_printf+02h)&0ffh
  6096  0E01  1283               	bcf	status, 5	;RP0=0, select bank0
  6097  0E02  1303               	bcf	status, 6	;RP1=0, select bank0
  6098  0E03  00C9               	movwf	(??_printf+0)+0
  6099  0E04  0849               	movf	(??_printf+0)+0,w
  6100  0E05  1683               	bsf	status, 5	;RP0=1, select bank1
  6101  0E06  1303               	bcf	status, 6	;RP1=0, select bank1
  6102  0E07  00C9               	movwf	(printf@ap)^080h
  6103                           opt subtitle "HI-TECH Software Omniscient Code Generator (Lite mode) build 49521"
  6104                           
  6105  0E08  2FE0               	goto	l4251
  6106                           opt subtitle "HI-TECH Software Omniscient Code Generator (Lite mode) build 49521"
  6107  0E09                     l415:	
  6108                           opt subtitle "HI-TECH Software Omniscient Code Generator (Lite mode) build 49521"
  6109                           
  6110  0E09                     l4179:	
  6111                           opt subtitle "HI-TECH Software Omniscient Code Generator (Lite mode) build 49521"
  6112  0E09  0850               	movf	(printf@c)^080h,w
  6113  0E0A  3A25               	xorlw	025h
  6114  0E0B  1903               	skipnz
  6115  0E0C  2E0E               	goto	u4231
  6116  0E0D  2E0F               	goto	u4230
  6117  0E0E                     u4231:
  6118  0E0E  2E16               	goto	l416
  6119  0E0F                     u4230:
  6120                           opt subtitle "HI-TECH Software Omniscient Code Generator (Lite mode) build 49521"
  6121                           
  6122  0E0F                     l4181:	
  6123                           opt subtitle "HI-TECH Software Omniscient Code Generator (Lite mode) build 49521"
  6124                           
  6125  0E0F  0850               	movf	(printf@c)^080h,w
  6126  0E10  160A  118A  2225   	fcall	_putch
              120A  158A         
  6127                           opt subtitle "HI-TECH Software Omniscient Code Generator (Lite mode) build 49521"
  6128                           
  6129  0E15  2FE0               	goto	l4251
  6130                           opt subtitle "HI-TECH Software Omniscient Code Generator (Lite mode) build 49521"
  6131                           
  6132  0E16                     l416:	
  6133                           opt subtitle "HI-TECH Software Omniscient Code Generator (Lite mode) build 49521"
  6134                           
  6135                           opt pagewidth 120
  6136  0E16  01CB               	clrf	(printf@flag)^080h
  6137                           opt subtitle "HI-TECH Software Omniscient Code Generator (Lite mode) build 49521"
  6138                           
  6139  0E17  2E25               	goto	l4187
  6140                           opt subtitle "HI-TECH Software Omniscient Code Generator (Lite mode) build 49521"
  6141                           
  6142                           opt pagewidth 120
  6143  0E18                     l418:	
  6144                           opt subtitle "HI-TECH Software Omniscient Code Generator (Lite mode) build 49521"
  6145                           
  6146  0E18  2FFF               	goto	l448
  6147                           opt subtitle "HI-TECH Software Omniscient Code Generator (Lite mode) build 49521"
  6148                           
  6149                           opt pagewidth 120
  6150  0E19                     l420:	
  6151  0E19  2E4B               	goto	l422
  6152                           opt subtitle "HI-TECH Software Omniscient Code Generator (Lite mode) build 49521"
  6153                           
  6154  0E1A                     l421:	
  6155                           opt subtitle "HI-TECH Software Omniscient Code Generator (Lite mode) build 49521"
  6156                           
  6157                           opt pagewidth 120
  6158  0E1A  2E4B               	goto	l422
  6159                           opt subtitle "HI-TECH Software Omniscient Code Generator (Lite mode) build 49521"
  6160                           
  6161                           opt pagewidth 120
  6162  0E1B                     l423:	
  6163                           opt subtitle "HI-TECH Software Omniscient Code Generator (Lite mode) build 49521"
  6164                           
  6165  0E1B                     l424:	
  6166                           opt subtitle "HI-TECH Software Omniscient Code Generator (Lite mode) build 49521"
  6167                           
  6168                           opt pagewidth 120
  6169  0E1B  17CB               	bsf	(printf@flag)^080h+(7/8),(7)&7
  6170                           opt subtitle "HI-TECH Software Omniscient Code Generator (Lite mode) build 49521"
  6171                           
  6172  0E1C  2E4B               	goto	l422
  6173                           opt subtitle "HI-TECH Software Omniscient Code Generator (Lite mode) build 49521"
  6174                           
  6175                           opt pagewidth 120
  6176  0E1D                     l425:	
  6177                           opt subtitle "HI-TECH Software Omniscient Code Generator (Lite mode) build 49521"
  6178                           
  6179  0E1D                     l4183:	
  6180                           opt subtitle "HI-TECH Software Omniscient Code Generator (Lite mode) build 49521"
  6181  0E1D  0850               	movf	(printf@c)^080h,w
  6182  0E1E  160A  118A  2225   	fcall	_putch
              120A  158A         
  6183                           opt subtitle "HI-TECH Software Omniscient Code Generator (Lite mode) build 49521"
  6184                           
  6185  0E23  2FE0               	goto	l4251
  6186                           opt subtitle "HI-TECH Software Omniscient Code Generator (Lite mode) build 49521"
  6187                           
  6188  0E24                     l4185:	
  6189                           opt subtitle "HI-TECH Software Omniscient Code Generator (Lite mode) build 49521"
  6190  0E24  2E4B               	goto	l422
  6191                           opt subtitle "HI-TECH Software Omniscient Code Generator (Lite mode) build 49521"
  6192                           
  6193  0E25                     l417:	
  6194                           opt subtitle "HI-TECH Software Omniscient Code Generator (Lite mode) build 49521"
  6195  0E25                     l4187:	
  6196  0E25  1283               	bcf	status, 5	;RP0=0, select bank0
  6197  0E26  1303               	bcf	status, 6	;RP1=0, select bank0
  6198  0E27  0844               	movf	(printf@f+1),w
  6199  0E28  00CA               	movwf	(??_printf+0)+0+1
  6200  0E29  0843               	movf	(printf@f),w
  6201  0E2A  00C9               	movwf	(??_printf+0)+0
  6202  0E2B  3001               	movlw	(01h)
  6203  0E2C  07C3               	addwf	(printf@f),f
  6204  0E2D  1803               	skipnc
  6205  0E2E  0AC4               	incf	(printf@f+1),f
  6206  0E2F  084A               	movf	1+(??_printf+0)+0,w
  6207  0E30  00FF               	movwf	btemp+1
  6208  0E31  0849               	movf	0+(??_printf+0)+0,w
  6209  0E32  0084               	movwf	fsr0
  6210  0E33  160A  118A  2000   	fcall	stringtab
              120A  158A         
  6211  0E38  1683               	bsf	status, 5	;RP0=1, select bank1
  6212  0E39  1303               	bcf	status, 6	;RP1=0, select bank1
  6213  0E3A  00D0               	movwf	(printf@c)^080h
  6214                           opt subtitle "HI-TECH Software Omniscient Code Generator (Lite mode) build 49521"
  6215                           
  6216                           opt pagewidth 120
  6217                           
  6218                           	opt lm
  6219                           
  6220                           	processor	16LF707
  6221                           clrc	macro
  6222                           	bcf	3,0
  6223                           	endm
  6224                           clrz	macro
  6225                           	bcf	3,2
  6226  0E3B  3A00               	xorlw	0^0	; case 0
  6227  0E3C  1903               	skipnz
  6228  0E3D  2FFF               	goto	l448
  6229  0E3E  3A58               	xorlw	88^0	; case 88
  6230  0E3F  1903               	skipnz
  6231  0E40  2E1B               	goto	l424
  6232  0E41  3A3C               	xorlw	100^88	; case 100
  6233  0E42  1903               	skipnz
  6234  0E43  2E4B               	goto	l422
  6235  0E44  3A0D               	xorlw	105^100	; case 105
  6236  0E45  1903               	skipnz
  6237  0E46  2E4B               	goto	l422
  6238  0E47  3A11               	xorlw	120^105	; case 120
  6239  0E48  1903               	skipnz
  6240  0E49  2E1B               	goto	l424
  6241  0E4A  2E1D               	goto	l4183
  6242                           opt subtitle "HI-TECH Software Omniscient Code Generator (Lite mode) build 49521"
  6243                           
  6244                           opt pagewidth 120
  6245                           
  6246  0E4B                     l422:	
  6247                           opt subtitle "HI-TECH Software Omniscient Code Generator (Lite mode) build 49521"
  6248                           
  6249  0E4B  1683               	bsf	status, 5	;RP0=1, select bank1
  6250  0E4C  1303               	bcf	status, 6	;RP1=0, select bank1
  6251  0E4D  1BCB               	btfsc	(printf@flag)^080h,(7)&7
  6252  0E4E  2E50               	goto	u4241
  6253  0E4F  2E51               	goto	u4240
  6254  0E50                     u4241:
  6255  0E50  2E74               	goto	l4199
  6256  0E51                     u4240:
  6257                           opt subtitle "HI-TECH Software Omniscient Code Generator (Lite mode) build 49521"
  6258                           
  6259  0E51                     l4189:	
  6260                           opt subtitle "HI-TECH Software Omniscient Code Generator (Lite mode) build 49521"
  6261                           
  6262  0E51  0849               	movf	(printf@ap)^080h,w
  6263  0E52  0084               	movwf	fsr0
  6264  0E53  1383               	bcf	status, 7	;select IRP bank0
  6265  0E54  0800               	movf	indf,w
  6266  0E55  00CC               	movwf	(printf@_val)^080h
  6267  0E56  0A84               	incf	fsr0,f
  6268  0E57  0800               	movf	indf,w
  6269  0E58  00CD               	movwf	(printf@_val+1)^080h
  6270                           opt subtitle "HI-TECH Software Omniscient Code Generator (Lite mode) build 49521"
  6271  0E59                     l4191:	
  6272  0E59  3002               	movlw	(02h)
  6273  0E5A  1283               	bcf	status, 5	;RP0=0, select bank0
  6274  0E5B  1303               	bcf	status, 6	;RP1=0, select bank0
  6275  0E5C  00C9               	movwf	(??_printf+0)+0
  6276  0E5D  0849               	movf	(??_printf+0)+0,w
  6277  0E5E  1683               	bsf	status, 5	;RP0=1, select bank1
  6278  0E5F  1303               	bcf	status, 6	;RP1=0, select bank1
  6279  0E60  07C9               	addwf	(printf@ap)^080h,f
  6280                           opt subtitle "HI-TECH Software Omniscient Code Generator (Lite mode) build 49521"
  6281                           
  6282  0E61                     l4193:	
  6283                           opt subtitle "HI-TECH Software Omniscient Code Generator (Lite mode) build 49521"
  6284  0E61  1FCD               	btfss	(printf@_val+1)^080h,7
  6285  0E62  2E64               	goto	u4251
  6286  0E63  2E65               	goto	u4250
  6287  0E64                     u4251:
  6288  0E64  2F0D               	goto	l4229
  6289  0E65                     u4250:
  6290                           opt subtitle "HI-TECH Software Omniscient Code Generator (Lite mode) build 49521"
  6291                           
  6292  0E65                     l4195:	
  6293                           opt subtitle "HI-TECH Software Omniscient Code Generator (Lite mode) build 49521"
  6294  0E65  3003               	movlw	(03h)
  6295  0E66  1283               	bcf	status, 5	;RP0=0, select bank0
  6296  0E67  1303               	bcf	status, 6	;RP1=0, select bank0
  6297  0E68  00C9               	movwf	(??_printf+0)+0
  6298  0E69  0849               	movf	(??_printf+0)+0,w
  6299  0E6A  1683               	bsf	status, 5	;RP0=1, select bank1
  6300  0E6B  1303               	bcf	status, 6	;RP1=0, select bank1
  6301  0E6C  04CB               	iorwf	(printf@flag)^080h,f
  6302                           opt subtitle "HI-TECH Software Omniscient Code Generator (Lite mode) build 49521"
  6303                           
  6304  0E6D                     l4197:	
  6305                           opt subtitle "HI-TECH Software Omniscient Code Generator (Lite mode) build 49521"
  6306  0E6D  09CC               	comf	(printf@_val)^080h,f
  6307  0E6E  09CD               	comf	(printf@_val+1)^080h,f
  6308  0E6F  0ACC               	incf	(printf@_val)^080h,f
  6309  0E70  1903               	skipnz
  6310  0E71  0ACD               	incf	(printf@_val+1)^080h,f
  6311  0E72  2F0D               	goto	l4229
  6312                           opt subtitle "HI-TECH Software Omniscient Code Generator (Lite mode) build 49521"
  6313                           
  6314  0E73                     l427:	
  6315                           opt subtitle "HI-TECH Software Omniscient Code Generator (Lite mode) build 49521"
  6316                           
  6317                           opt pagewidth 120
  6318  0E73  2F0D               	goto	l4229
  6319                           opt subtitle "HI-TECH Software Omniscient Code Generator (Lite mode) build 49521"
  6320                           
  6321  0E74                     l426:	
  6322                           opt subtitle "HI-TECH Software Omniscient Code Generator (Lite mode) build 49521"
  6323                           
  6324  0E74                     l4199:	
  6325                           opt subtitle "HI-TECH Software Omniscient Code Generator (Lite mode) build 49521"
  6326                           
  6327                           opt pagewidth 120
  6328  0E74  0849               	movf	(printf@ap)^080h,w
  6329  0E75  0084               	movwf	fsr0
  6330  0E76  1383               	bcf	status, 7	;select IRP bank0
  6331  0E77  0800               	movf	indf,w
  6332  0E78  00CC               	movwf	(printf@_val)^080h
  6333  0E79  0A84               	incf	fsr0,f
  6334  0E7A  0800               	movf	indf,w
  6335  0E7B  00CD               	movwf	(printf@_val+1)^080h
  6336                           opt subtitle "HI-TECH Software Omniscient Code Generator (Lite mode) build 49521"
  6337  0E7C                     l4201:	
  6338  0E7C  3002               	movlw	(02h)
  6339  0E7D  1283               	bcf	status, 5	;RP0=0, select bank0
  6340  0E7E  1303               	bcf	status, 6	;RP1=0, select bank0
  6341  0E7F  00C9               	movwf	(??_printf+0)+0
  6342  0E80  0849               	movf	(??_printf+0)+0,w
  6343  0E81  1683               	bsf	status, 5	;RP0=1, select bank1
  6344  0E82  1303               	bcf	status, 6	;RP1=0, select bank1
  6345  0E83  07C9               	addwf	(printf@ap)^080h,f
  6346  0E84  2F0D               	goto	l4229
  6347                           opt subtitle "HI-TECH Software Omniscient Code Generator (Lite mode) build 49521"
  6348                           
  6349  0E85                     l428:	
  6350                           opt subtitle "HI-TECH Software Omniscient Code Generator (Lite mode) build 49521"
  6351                           
  6352                           opt pagewidth 120
  6353  0E85  2F0D               	goto	l4229
  6354                           opt subtitle "HI-TECH Software Omniscient Code Generator (Lite mode) build 49521"
  6355                           
  6356                           opt pagewidth 120
  6357  0E86                     l430:	
  6358                           opt subtitle "HI-TECH Software Omniscient Code Generator (Lite mode) build 49521"
  6359                           
  6360  0E86  01D0               	clrf	(printf@c)^080h
  6361  0E87  0AD0               	incf	(printf@c)^080h,f
  6362                           opt subtitle "HI-TECH Software Omniscient Code Generator (Lite mode) build 49521"
  6363  0E88                     l4203:	
  6364  0E88  0850               	movf	(printf@c)^080h,w
  6365  0E89  3A05               	xorlw	05h
  6366  0E8A  1D03               	skipz
  6367  0E8B  2E8D               	goto	u4261
  6368  0E8C  2E8E               	goto	u4260
  6369  0E8D                     u4261:
  6370  0E8D  2E90               	goto	l4207
  6371  0E8E                     u4260:
  6372  0E8E  2F16               	goto	l4231
  6373                           opt subtitle "HI-TECH Software Omniscient Code Generator (Lite mode) build 49521"
  6374  0E8F                     l4205:	
  6375  0E8F  2F16               	goto	l4231
  6376                           opt subtitle "HI-TECH Software Omniscient Code Generator (Lite mode) build 49521"
  6377                           
  6378  0E90                     l431:	
  6379                           opt subtitle "HI-TECH Software Omniscient Code Generator (Lite mode) build 49521"
  6380  0E90                     l4207:	
  6381                           opt subtitle "HI-TECH Software Omniscient Code Generator (Lite mode) build 49521"
  6382  0E90  0850               	movf	(printf@c)^080h,w
  6383  0E91  1283               	bcf	status, 5	;RP0=0, select bank0
  6384  0E92  1303               	bcf	status, 6	;RP1=0, select bank0
  6385  0E93  00C9               	movwf	(??_printf+0)+0
  6386  0E94  0749               	addwf	(??_printf+0)+0,w
  6387  0E95  3E83               	addlw	low(_dpowers|8000h)
  6388  0E96  0084               	movwf	fsr0
  6389  0E97  3090               	movlw	high(_dpowers|8000h)
  6390  0E98  1803               	skipnc
  6391  0E99  3E01               	addlw	1
  6392  0E9A  00FF               	movwf	btemp+1
  6393  0E9B  160A  118A  2000   	fcall	stringtab
              120A  158A         
  6394  0EA0  00CA               	movwf	(??_printf+1)+0
  6395  0EA1  160A  118A  2000   	fcall	stringtab
              120A  158A         
  6396  0EA6  00CB               	movwf	(??_printf+1)+0+1
  6397  0EA7  084B               	movf	1+(??_printf+1)+0,w
  6398  0EA8  1683               	bsf	status, 5	;RP0=1, select bank1
  6399  0EA9  1303               	bcf	status, 6	;RP1=0, select bank1
  6400  0EAA  024D               	subwf	(printf@_val+1)^080h,w
  6401  0EAB  1D03               	skipz
  6402  0EAC  2EB3               	goto	u4275
  6403  0EAD  1283               	bcf	status, 5	;RP0=0, select bank0
  6404  0EAE  1303               	bcf	status, 6	;RP1=0, select bank0
  6405  0EAF  084A               	movf	0+(??_printf+1)+0,w
  6406  0EB0  1683               	bsf	status, 5	;RP0=1, select bank1
  6407  0EB1  1303               	bcf	status, 6	;RP1=0, select bank1
  6408  0EB2  024C               	subwf	(printf@_val)^080h,w
  6409  0EB3                     u4275:
  6410  0EB3  1803               	skipnc
  6411  0EB4  2EB6               	goto	u4271
  6412  0EB5  2EB7               	goto	u4270
  6413  0EB6                     u4271:
  6414  0EB6  2EB9               	goto	l4211
  6415  0EB7                     u4270:
  6416  0EB7  2F16               	goto	l4231
  6417                           opt subtitle "HI-TECH Software Omniscient Code Generator (Lite mode) build 49521"
  6418                           
  6419  0EB8                     l4209:	
  6420                           opt subtitle "HI-TECH Software Omniscient Code Generator (Lite mode) build 49521"
  6421  0EB8  2F16               	goto	l4231
  6422                           opt subtitle "HI-TECH Software Omniscient Code Generator (Lite mode) build 49521"
  6423  0EB9                     l433:	
  6424                           opt subtitle "HI-TECH Software Omniscient Code Generator (Lite mode) build 49521"
  6425                           
  6426  0EB9                     l4211:	
  6427  0EB9  3001               	movlw	(01h)
  6428  0EBA  1283               	bcf	status, 5	;RP0=0, select bank0
  6429  0EBB  1303               	bcf	status, 6	;RP1=0, select bank0
  6430  0EBC  00C9               	movwf	(??_printf+0)+0
  6431  0EBD  0849               	movf	(??_printf+0)+0,w
  6432  0EBE  1683               	bsf	status, 5	;RP0=1, select bank1
  6433  0EBF  1303               	bcf	status, 6	;RP1=0, select bank1
  6434  0EC0  07D0               	addwf	(printf@c)^080h,f
  6435                           opt subtitle "HI-TECH Software Omniscient Code Generator (Lite mode) build 49521"
  6436  0EC1                     l4213:	
  6437  0EC1  0850               	movf	(printf@c)^080h,w
  6438  0EC2  3A05               	xorlw	05h
  6439  0EC3  1D03               	skipz
  6440  0EC4  2EC6               	goto	u4281
  6441  0EC5  2EC7               	goto	u4280
  6442  0EC6                     u4281:
  6443  0EC6  2E90               	goto	l4207
  6444  0EC7                     u4280:
  6445  0EC7  2F16               	goto	l4231
  6446                           opt subtitle "HI-TECH Software Omniscient Code Generator (Lite mode) build 49521"
  6447  0EC8                     l432:	
  6448                           opt subtitle "HI-TECH Software Omniscient Code Generator (Lite mode) build 49521"
  6449                           
  6450  0EC8  2F16               	goto	l4231
  6451                           opt subtitle "HI-TECH Software Omniscient Code Generator (Lite mode) build 49521"
  6452                           
  6453                           opt pagewidth 120
  6454  0EC9                     l435:	
  6455                           opt subtitle "HI-TECH Software Omniscient Code Generator (Lite mode) build 49521"
  6456                           
  6457  0EC9  01D0               	clrf	(printf@c)^080h
  6458  0ECA  0AD0               	incf	(printf@c)^080h,f
  6459                           opt subtitle "HI-TECH Software Omniscient Code Generator (Lite mode) build 49521"
  6460  0ECB                     l4215:	
  6461  0ECB  0850               	movf	(printf@c)^080h,w
  6462  0ECC  3A04               	xorlw	04h
  6463  0ECD  1D03               	skipz
  6464  0ECE  2ED0               	goto	u4291
  6465  0ECF  2ED1               	goto	u4290
  6466  0ED0                     u4291:
  6467  0ED0  2ED3               	goto	l4219
  6468  0ED1                     u4290:
  6469  0ED1  2F16               	goto	l4231
  6470                           opt subtitle "HI-TECH Software Omniscient Code Generator (Lite mode) build 49521"
  6471  0ED2                     l4217:	
  6472  0ED2  2F16               	goto	l4231
  6473                           opt subtitle "HI-TECH Software Omniscient Code Generator (Lite mode) build 49521"
  6474                           
  6475  0ED3                     l436:	
  6476                           opt subtitle "HI-TECH Software Omniscient Code Generator (Lite mode) build 49521"
  6477  0ED3                     l4219:	
  6478                           opt subtitle "HI-TECH Software Omniscient Code Generator (Lite mode) build 49521"
  6479  0ED3  0850               	movf	(printf@c)^080h,w
  6480  0ED4  1283               	bcf	status, 5	;RP0=0, select bank0
  6481  0ED5  1303               	bcf	status, 6	;RP1=0, select bank0
  6482  0ED6  00C9               	movwf	(??_printf+0)+0
  6483  0ED7  0749               	addwf	(??_printf+0)+0,w
  6484  0ED8  3E8D               	addlw	low(_hexpowers|8000h)
  6485  0ED9  0084               	movwf	fsr0
  6486  0EDA  3090               	movlw	high(_hexpowers|8000h)
  6487  0EDB  1803               	skipnc
  6488  0EDC  3E01               	addlw	1
  6489  0EDD  00FF               	movwf	btemp+1
  6490  0EDE  160A  118A  2000   	fcall	stringtab
              120A  158A         
  6491  0EE3  00CA               	movwf	(??_printf+1)+0
  6492  0EE4  160A  118A  2000   	fcall	stringtab
              120A  158A         
  6493  0EE9  00CB               	movwf	(??_printf+1)+0+1
  6494  0EEA  084B               	movf	1+(??_printf+1)+0,w
  6495  0EEB  1683               	bsf	status, 5	;RP0=1, select bank1
  6496  0EEC  1303               	bcf	status, 6	;RP1=0, select bank1
  6497  0EED  024D               	subwf	(printf@_val+1)^080h,w
  6498  0EEE  1D03               	skipz
  6499  0EEF  2EF6               	goto	u4305
  6500  0EF0  1283               	bcf	status, 5	;RP0=0, select bank0
  6501  0EF1  1303               	bcf	status, 6	;RP1=0, select bank0
  6502  0EF2  084A               	movf	0+(??_printf+1)+0,w
  6503  0EF3  1683               	bsf	status, 5	;RP0=1, select bank1
  6504  0EF4  1303               	bcf	status, 6	;RP1=0, select bank1
  6505  0EF5  024C               	subwf	(printf@_val)^080h,w
  6506  0EF6                     u4305:
  6507  0EF6  1803               	skipnc
  6508  0EF7  2EF9               	goto	u4301
  6509  0EF8  2EFA               	goto	u4300
  6510  0EF9                     u4301:
  6511  0EF9  2EFC               	goto	l4223
  6512  0EFA                     u4300:
  6513  0EFA  2F16               	goto	l4231
  6514                           opt subtitle "HI-TECH Software Omniscient Code Generator (Lite mode) build 49521"
  6515                           
  6516  0EFB                     l4221:	
  6517                           opt subtitle "HI-TECH Software Omniscient Code Generator (Lite mode) build 49521"
  6518  0EFB  2F16               	goto	l4231
  6519                           opt subtitle "HI-TECH Software Omniscient Code Generator (Lite mode) build 49521"
  6520  0EFC                     l438:	
  6521                           opt subtitle "HI-TECH Software Omniscient Code Generator (Lite mode) build 49521"
  6522                           
  6523  0EFC                     l4223:	
  6524  0EFC  3001               	movlw	(01h)
  6525  0EFD  1283               	bcf	status, 5	;RP0=0, select bank0
  6526  0EFE  1303               	bcf	status, 6	;RP1=0, select bank0
  6527  0EFF  00C9               	movwf	(??_printf+0)+0
  6528  0F00  0849               	movf	(??_printf+0)+0,w
  6529  0F01  1683               	bsf	status, 5	;RP0=1, select bank1
  6530  0F02  1303               	bcf	status, 6	;RP1=0, select bank1
  6531  0F03  07D0               	addwf	(printf@c)^080h,f
  6532                           opt subtitle "HI-TECH Software Omniscient Code Generator (Lite mode) build 49521"
  6533  0F04                     l4225:	
  6534  0F04  0850               	movf	(printf@c)^080h,w
  6535  0F05  3A04               	xorlw	04h
  6536  0F06  1D03               	skipz
  6537  0F07  2F09               	goto	u4311
  6538  0F08  2F0A               	goto	u4310
  6539  0F09                     u4311:
  6540  0F09  2ED3               	goto	l4219
  6541  0F0A                     u4310:
  6542  0F0A  2F16               	goto	l4231
  6543                           opt subtitle "HI-TECH Software Omniscient Code Generator (Lite mode) build 49521"
  6544  0F0B                     l437:	
  6545                           opt subtitle "HI-TECH Software Omniscient Code Generator (Lite mode) build 49521"
  6546                           
  6547  0F0B  2F16               	goto	l4231
  6548                           opt subtitle "HI-TECH Software Omniscient Code Generator (Lite mode) build 49521"
  6549                           
  6550  0F0C                     l4227:	
  6551                           opt subtitle "HI-TECH Software Omniscient Code Generator (Lite mode) build 49521"
  6552  0F0C  2F16               	goto	l4231
  6553                           opt subtitle "HI-TECH Software Omniscient Code Generator (Lite mode) build 49521"
  6554                           
  6555  0F0D                     l429:	
  6556                           opt subtitle "HI-TECH Software Omniscient Code Generator (Lite mode) build 49521"
  6557  0F0D                     l4229:	
  6558  0F0D  084B               	movf	(printf@flag)^080h,w
  6559  0F0E  3980               	andlw	080h
  6560                           opt subtitle "HI-TECH Software Omniscient Code Generator (Lite mode) build 49521"
  6561                           
  6562                           opt pagewidth 120
  6563                           
  6564                           	opt lm
  6565                           
  6566                           	processor	16LF707
  6567                           clrc	macro
  6568                           	bcf	3,0
  6569                           	endm
  6570                           clrz	macro
  6571                           	bcf	3,2
  6572  0F0F  3A00               	xorlw	0^0	; case 0
  6573  0F10  1903               	skipnz
  6574  0F11  2E86               	goto	l430
  6575  0F12  3A80               	xorlw	128^0	; case 128
  6576  0F13  1903               	skipnz
  6577  0F14  2EC9               	goto	l435
  6578  0F15  2F16               	goto	l4231
  6579                           opt subtitle "HI-TECH Software Omniscient Code Generator (Lite mode) build 49521"
  6580                           
  6581                           opt pagewidth 120
  6582                           
  6583  0F16                     l434:	
  6584                           opt subtitle "HI-TECH Software Omniscient Code Generator (Lite mode) build 49521"
  6585                           
  6586  0F16                     l4231:	
  6587                           opt subtitle "HI-TECH Software Omniscient Code Generator (Lite mode) build 49521"
  6588                           
  6589  0F16  084B               	movf	(printf@flag)^080h,w
  6590  0F17  3903               	andlw	03h
  6591  0F18  1903               	btfsc	status,2
  6592  0F19  2F1B               	goto	u4321
  6593  0F1A  2F1C               	goto	u4320
  6594  0F1B                     u4321:
  6595  0F1B  2F23               	goto	l4235
  6596  0F1C                     u4320:
  6597                           opt subtitle "HI-TECH Software Omniscient Code Generator (Lite mode) build 49521"
  6598                           
  6599  0F1C                     l4233:	
  6600                           opt subtitle "HI-TECH Software Omniscient Code Generator (Lite mode) build 49521"
  6601  0F1C  302D               	movlw	(02Dh)
  6602  0F1D  160A  118A  2225   	fcall	_putch
              120A  158A         
  6603  0F22  2F23               	goto	l4235
  6604                           opt subtitle "HI-TECH Software Omniscient Code Generator (Lite mode) build 49521"
  6605  0F23                     l439:	
  6606                           opt subtitle "HI-TECH Software Omniscient Code Generator (Lite mode) build 49521"
  6607                           
  6608  0F23                     l4235:	
  6609                           opt subtitle "HI-TECH Software Omniscient Code Generator (Lite mode) build 49521"
  6610                           
  6611  0F23  1683               	bsf	status, 5	;RP0=1, select bank1
  6612  0F24  1303               	bcf	status, 6	;RP1=0, select bank1
  6613  0F25  0850               	movf	(printf@c)^080h,w
  6614  0F26  1283               	bcf	status, 5	;RP0=0, select bank0
  6615  0F27  1303               	bcf	status, 6	;RP1=0, select bank0
  6616  0F28  00C9               	movwf	(??_printf+0)+0
  6617  0F29  0849               	movf	(??_printf+0)+0,w
  6618  0F2A  1683               	bsf	status, 5	;RP0=1, select bank1
  6619  0F2B  1303               	bcf	status, 6	;RP1=0, select bank1
  6620  0F2C  00CA               	movwf	(printf@prec)^080h
  6621                           opt subtitle "HI-TECH Software Omniscient Code Generator (Lite mode) build 49521"
  6622                           
  6623  0F2D  2FD0               	goto	l4249
  6624                           opt subtitle "HI-TECH Software Omniscient Code Generator (Lite mode) build 49521"
  6625  0F2E                     l441:	
  6626                           opt subtitle "HI-TECH Software Omniscient Code Generator (Lite mode) build 49521"
  6627                           
  6628  0F2E  2FC0               	goto	l4245
  6629                           opt subtitle "HI-TECH Software Omniscient Code Generator (Lite mode) build 49521"
  6630                           
  6631                           opt pagewidth 120
  6632                           
  6633  0F2F                     l443:	
  6634                           opt subtitle "HI-TECH Software Omniscient Code Generator (Lite mode) build 49521"
  6635                           
  6636  0F2F                     l4237:	
  6637                           opt subtitle "HI-TECH Software Omniscient Code Generator (Lite mode) build 49521"
  6638  0F2F  300A               	movlw	low(0Ah)
  6639  0F30  1283               	bcf	status, 5	;RP0=0, select bank0
  6640  0F31  1303               	bcf	status, 6	;RP1=0, select bank0
  6641  0F32  00BD               	movwf	(?___lwmod)
  6642  0F33  3000               	movlw	high(0Ah)
  6643  0F34  00BE               	movwf	((?___lwmod))+1
  6644  0F35  1683               	bsf	status, 5	;RP0=1, select bank1
  6645  0F36  1303               	bcf	status, 6	;RP1=0, select bank1
  6646  0F37  084A               	movf	(printf@prec)^080h,w
  6647  0F38  1283               	bcf	status, 5	;RP0=0, select bank0
  6648  0F39  1303               	bcf	status, 6	;RP1=0, select bank0
  6649  0F3A  00C9               	movwf	(??_printf+0)+0
  6650  0F3B  0749               	addwf	(??_printf+0)+0,w
  6651  0F3C  3E83               	addlw	low(_dpowers|8000h)
  6652  0F3D  0084               	movwf	fsr0
  6653  0F3E  3090               	movlw	high(_dpowers|8000h)
  6654  0F3F  1803               	skipnc
  6655  0F40  3E01               	addlw	1
  6656  0F41  00FF               	movwf	btemp+1
  6657  0F42  160A  118A  2000   	fcall	stringtab
              120A  158A         
  6658  0F47  00B5               	movwf	(?___lwdiv)
  6659  0F48  160A  118A  2000   	fcall	stringtab
              120A  158A         
  6660  0F4D  00B6               	movwf	(?___lwdiv+1)
  6661  0F4E  1683               	bsf	status, 5	;RP0=1, select bank1
  6662  0F4F  1303               	bcf	status, 6	;RP1=0, select bank1
  6663  0F50  084D               	movf	(printf@_val+1)^080h,w
  6664  0F51  1283               	bcf	status, 5	;RP0=0, select bank0
  6665  0F52  1303               	bcf	status, 6	;RP1=0, select bank0
  6666  0F53  01B8               	clrf	1+(?___lwdiv)+02h
  6667  0F54  07B8               	addwf	1+(?___lwdiv)+02h
  6668  0F55  1683               	bsf	status, 5	;RP0=1, select bank1
  6669  0F56  1303               	bcf	status, 6	;RP1=0, select bank1
  6670  0F57  084C               	movf	(printf@_val)^080h,w
  6671  0F58  1283               	bcf	status, 5	;RP0=0, select bank0
  6672  0F59  1303               	bcf	status, 6	;RP1=0, select bank0
  6673  0F5A  01B7               	clrf	0+(?___lwdiv)+02h
  6674  0F5B  07B7               	addwf	0+(?___lwdiv)+02h
  6675                           opt subtitle "HI-TECH Software Omniscient Code Generator (Lite mode) build 49521"
  6676  0F5C  120A  158A  2003   	fcall	___lwdiv
              120A  158A         
  6677  0F61  1283               	bcf	status, 5	;RP0=0, select bank0
  6678  0F62  1303               	bcf	status, 6	;RP1=0, select bank0
  6679  0F63  0836               	movf	(1+(?___lwdiv)),w
  6680  0F64  01C0               	clrf	1+(?___lwmod)+02h
  6681  0F65  07C0               	addwf	1+(?___lwmod)+02h
  6682  0F66  0835               	movf	(0+(?___lwdiv)),w
  6683  0F67  01BF               	clrf	0+(?___lwmod)+02h
  6684  0F68  07BF               	addwf	0+(?___lwmod)+02h
  6685                           opt subtitle "HI-TECH Software Omniscient Code Generator (Lite mode) build 49521"
  6686  0F69  160A  118A  2539   	fcall	___lwmod
              120A  158A         
  6687  0F6E  1283               	bcf	status, 5	;RP0=0, select bank0
  6688  0F6F  1303               	bcf	status, 6	;RP1=0, select bank0
  6689  0F70  083D               	movf	(0+(?___lwmod)),w
  6690  0F71  3E30               	addlw	030h
  6691  0F72  00CA               	movwf	(??_printf+1)+0
  6692  0F73  084A               	movf	(??_printf+1)+0,w
  6693  0F74  1683               	bsf	status, 5	;RP0=1, select bank1
  6694  0F75  1303               	bcf	status, 6	;RP1=0, select bank1
  6695  0F76  00D0               	movwf	(printf@c)^080h
  6696                           opt subtitle "HI-TECH Software Omniscient Code Generator (Lite mode) build 49521"
  6697                           
  6698  0F77  2FC9               	goto	l4247
  6699                           opt subtitle "HI-TECH Software Omniscient Code Generator (Lite mode) build 49521"
  6700                           
  6701                           opt pagewidth 120
  6702  0F78                     l445:	
  6703                           opt subtitle "HI-TECH Software Omniscient Code Generator (Lite mode) build 49521"
  6704                           
  6705  0F78                     l4239:	
  6706                           opt subtitle "HI-TECH Software Omniscient Code Generator (Lite mode) build 49521"
  6707                           
  6708  0F78  084A               	movf	(printf@prec)^080h,w
  6709  0F79  1283               	bcf	status, 5	;RP0=0, select bank0
  6710  0F7A  1303               	bcf	status, 6	;RP1=0, select bank0
  6711  0F7B  00C9               	movwf	(??_printf+0)+0
  6712  0F7C  0749               	addwf	(??_printf+0)+0,w
  6713  0F7D  3E8D               	addlw	low(_hexpowers|8000h)
  6714  0F7E  0084               	movwf	fsr0
  6715  0F7F  3090               	movlw	high(_hexpowers|8000h)
  6716  0F80  1803               	skipnc
  6717  0F81  3E01               	addlw	1
  6718  0F82  00FF               	movwf	btemp+1
  6719  0F83  160A  118A  2000   	fcall	stringtab
              120A  158A         
  6720  0F88  00B5               	movwf	(?___lwdiv)
  6721  0F89  160A  118A  2000   	fcall	stringtab
              120A  158A         
  6722  0F8E  00B6               	movwf	(?___lwdiv+1)
  6723  0F8F  1683               	bsf	status, 5	;RP0=1, select bank1
  6724  0F90  1303               	bcf	status, 6	;RP1=0, select bank1
  6725  0F91  084D               	movf	(printf@_val+1)^080h,w
  6726  0F92  1283               	bcf	status, 5	;RP0=0, select bank0
  6727  0F93  1303               	bcf	status, 6	;RP1=0, select bank0
  6728  0F94  01B8               	clrf	1+(?___lwdiv)+02h
  6729  0F95  07B8               	addwf	1+(?___lwdiv)+02h
  6730  0F96  1683               	bsf	status, 5	;RP0=1, select bank1
  6731  0F97  1303               	bcf	status, 6	;RP1=0, select bank1
  6732  0F98  084C               	movf	(printf@_val)^080h,w
  6733  0F99  1283               	bcf	status, 5	;RP0=0, select bank0
  6734  0F9A  1303               	bcf	status, 6	;RP1=0, select bank0
  6735  0F9B  01B7               	clrf	0+(?___lwdiv)+02h
  6736  0F9C  07B7               	addwf	0+(?___lwdiv)+02h
  6737                           opt subtitle "HI-TECH Software Omniscient Code Generator (Lite mode) build 49521"
  6738  0F9D  120A  158A  2003   	fcall	___lwdiv
              120A  158A         
  6739  0FA2  1283               	bcf	status, 5	;RP0=0, select bank0
  6740  0FA3  1303               	bcf	status, 6	;RP1=0, select bank0
  6741  0FA4  0835               	movf	(0+(?___lwdiv)),w
  6742  0FA5  390F               	andlw	0Fh
  6743  0FA6  00CA               	movwf	(??_printf+1)+0
  6744  0FA7  084A               	movf	(??_printf+1)+0,w
  6745  0FA8  1683               	bsf	status, 5	;RP0=1, select bank1
  6746  0FA9  1303               	bcf	status, 6	;RP1=0, select bank1
  6747  0FAA  00C8               	movwf	(printf@idx)^080h
  6748                           opt subtitle "HI-TECH Software Omniscient Code Generator (Lite mode) build 49521"
  6749                           
  6750  0FAB                     l4241:	
  6751                           opt subtitle "HI-TECH Software Omniscient Code Generator (Lite mode) build 49521"
  6752  0FAB  0848               	movf	(printf@idx)^080h,w
  6753  0FAC  3E5F               	addlw	low(STR_16|8000h)
  6754  0FAD  0084               	movwf	fsr0
  6755  0FAE  3091               	movlw	high(STR_16|8000h)
  6756  0FAF  1803               	skipnc
  6757  0FB0  3E01               	addlw	1
  6758  0FB1  1283               	bcf	status, 5	;RP0=0, select bank0
  6759  0FB2  1303               	bcf	status, 6	;RP1=0, select bank0
  6760  0FB3  00FF               	movwf	btemp+1
  6761  0FB4  160A  118A  2000   	fcall	stringtab
              120A  158A         
  6762  0FB9  00C9               	movwf	(??_printf+0)+0
  6763  0FBA  0849               	movf	(??_printf+0)+0,w
  6764  0FBB  1683               	bsf	status, 5	;RP0=1, select bank1
  6765  0FBC  1303               	bcf	status, 6	;RP1=0, select bank1
  6766  0FBD  00D0               	movwf	(printf@c)^080h
  6767                           opt subtitle "HI-TECH Software Omniscient Code Generator (Lite mode) build 49521"
  6768                           
  6769                           opt pagewidth 120
  6770  0FBE  2FC9               	goto	l4247
  6771                           opt subtitle "HI-TECH Software Omniscient Code Generator (Lite mode) build 49521"
  6772                           
  6773  0FBF                     l4243:	
  6774                           opt subtitle "HI-TECH Software Omniscient Code Generator (Lite mode) build 49521"
  6775  0FBF  2FC9               	goto	l4247
  6776                           opt subtitle "HI-TECH Software Omniscient Code Generator (Lite mode) build 49521"
  6777                           
  6778  0FC0                     l442:	
  6779                           opt subtitle "HI-TECH Software Omniscient Code Generator (Lite mode) build 49521"
  6780  0FC0                     l4245:	
  6781  0FC0  084B               	movf	(printf@flag)^080h,w
  6782  0FC1  3980               	andlw	080h
  6783                           opt subtitle "HI-TECH Software Omniscient Code Generator (Lite mode) build 49521"
  6784                           
  6785                           opt pagewidth 120
  6786                           
  6787                           	opt lm
  6788                           
  6789                           	processor	16LF707
  6790                           clrc	macro
  6791                           	bcf	3,0
  6792                           	endm
  6793                           clrz	macro
  6794                           	bcf	3,2
  6795  0FC2  3A00               	xorlw	0^0	; case 0
  6796  0FC3  1903               	skipnz
  6797  0FC4  2F2F               	goto	l4237
  6798  0FC5  3A80               	xorlw	128^0	; case 128
  6799  0FC6  1903               	skipnz
  6800  0FC7  2F78               	goto	l4239
  6801  0FC8  2FC9               	goto	l4247
  6802                           opt subtitle "HI-TECH Software Omniscient Code Generator (Lite mode) build 49521"
  6803                           
  6804                           opt pagewidth 120
  6805                           
  6806  0FC9                     l444:	
  6807                           opt subtitle "HI-TECH Software Omniscient Code Generator (Lite mode) build 49521"
  6808                           
  6809  0FC9                     l4247:	
  6810                           opt subtitle "HI-TECH Software Omniscient Code Generator (Lite mode) build 49521"
  6811  0FC9  0850               	movf	(printf@c)^080h,w
  6812  0FCA  160A  118A  2225   	fcall	_putch
              120A  158A         
  6813  0FCF  2FD0               	goto	l4249
  6814                           opt subtitle "HI-TECH Software Omniscient Code Generator (Lite mode) build 49521"
  6815                           
  6816  0FD0                     l440:	
  6817                           opt subtitle "HI-TECH Software Omniscient Code Generator (Lite mode) build 49521"
  6818                           
  6819  0FD0                     l4249:	
  6820  0FD0  30FF               	movlw	(-1)
  6821  0FD1  1283               	bcf	status, 5	;RP0=0, select bank0
  6822  0FD2  1303               	bcf	status, 6	;RP1=0, select bank0
  6823  0FD3  00C9               	movwf	(??_printf+0)+0
  6824  0FD4  0849               	movf	(??_printf+0)+0,w
  6825  0FD5  1683               	bsf	status, 5	;RP0=1, select bank1
  6826  0FD6  1303               	bcf	status, 6	;RP1=0, select bank1
  6827  0FD7  07CA               	addwf	(printf@prec)^080h,f
  6828  0FD8  084A               	movf	((printf@prec)^080h),w
  6829  0FD9  3AFF               	xorlw	-1
  6830  0FDA  1D03               	skipz
  6831  0FDB  2FDD               	goto	u4331
  6832  0FDC  2FDE               	goto	u4330
  6833  0FDD                     u4331:
  6834  0FDD  2FC0               	goto	l4245
  6835  0FDE                     u4330:
  6836  0FDE  2FE0               	goto	l4251
  6837                           opt subtitle "HI-TECH Software Omniscient Code Generator (Lite mode) build 49521"
  6838  0FDF                     l446:	
  6839  0FDF  2FE0               	goto	l4251
  6840                           opt subtitle "HI-TECH Software Omniscient Code Generator (Lite mode) build 49521"
  6841                           
  6842  0FE0                     l414:	
  6843                           opt subtitle "HI-TECH Software Omniscient Code Generator (Lite mode) build 49521"
  6844                           
  6845  0FE0                     l4251:	
  6846  0FE0  1283               	bcf	status, 5	;RP0=0, select bank0
  6847  0FE1  1303               	bcf	status, 6	;RP1=0, select bank0
  6848  0FE2  0844               	movf	(printf@f+1),w
  6849  0FE3  00CA               	movwf	(??_printf+0)+0+1
  6850  0FE4  0843               	movf	(printf@f),w
  6851  0FE5  00C9               	movwf	(??_printf+0)+0
  6852  0FE6  3001               	movlw	(01h)
  6853  0FE7  07C3               	addwf	(printf@f),f
  6854  0FE8  1803               	skipnc
  6855  0FE9  0AC4               	incf	(printf@f+1),f
  6856  0FEA  084A               	movf	1+(??_printf+0)+0,w
  6857  0FEB  00FF               	movwf	btemp+1
  6858  0FEC  0849               	movf	0+(??_printf+0)+0,w
  6859  0FED  0084               	movwf	fsr0
  6860  0FEE  160A  118A  2000   	fcall	stringtab
              120A  158A         
  6861  0FF3  00CB               	movwf	(??_printf+2)+0
  6862  0FF4  084B               	movf	(??_printf+2)+0,w
  6863  0FF5  1683               	bsf	status, 5	;RP0=1, select bank1
  6864  0FF6  1303               	bcf	status, 6	;RP1=0, select bank1
  6865  0FF7  00D0               	movwf	(printf@c)^080h
  6866  0FF8  08D0               	movf	((printf@c)^080h),f
  6867  0FF9  1D03               	skipz
  6868  0FFA  2FFC               	goto	u4341
  6869  0FFB  2FFD               	goto	u4340
  6870  0FFC                     u4341:
  6871  0FFC  2E09               	goto	l4179
  6872  0FFD                     u4340:
  6873  0FFD  2FFF               	goto	l448
  6874                           opt subtitle "HI-TECH Software Omniscient Code Generator (Lite mode) build 49521"
  6875  0FFE                     l447:	
  6876  0FFE  2FFF               	goto	l448
  6877                           opt subtitle "HI-TECH Software Omniscient Code Generator (Lite mode) build 49521"
  6878                           
  6879                           opt pagewidth 120
  6880                           
  6881                           	opt lm
  6882  0FFF                     l419:	
  6883                           opt subtitle "HI-TECH Software Omniscient Code Generator (Lite mode) build 49521"
  6884                           
  6885                           opt pagewidth 120
  6886                           
  6887  0FFF                     l448:	
  6888  0FFF  0008               	return
  6889                           opt subtitle "HI-TECH Software Omniscient Code Generator (Lite mode) build 49521"
  6890                           
  6891  1000                     	__end_of_printf:
  6892                           opt subtitle "HI-TECH Software Omniscient Code Generator (Lite mode) build 49521"
  6893                           
  6894                           opt pagewidth 120
  6895                           
  6896                           	opt lm
  6897                           
  6898                           	processor	16LF707
  6899                           clrc	macro
  6900                           	bcf	3,0
  6901                           	endm
  6902                           clrz	macro
  6903                           	bcf	3,2
  6904                           	endm
  6905                           setc	macro
  6906                           	bsf	3,0
  6907                           	endm
  6908                           setz	macro
  6909                           	bsf	3,2
  6910                           	endm
  6911                           skipc	macro
  6912                           	btfss	3,0
  6913                           	endm
  6914                           skipz	macro
  6915                           	btfss	3,2
  6916                           	endm
  6917                           skipnc	macro
  6918                           	btfsc	3,0
  6919                           	endm
  6920                           skipnz	macro
  6921                           	btfsc	3,2
  6922                           	endm
  6923                           indf	equ	0
  6924                           indf0	equ	0
  6925                           pc	equ	2
  6926                           pcl	equ	2
  6927  1375                     __ptext1290:	;psect for function _SwitchToTxMode
  6928                           opt subtitle "HI-TECH Software Omniscient Code Generator (Lite mode) build 49521"
  6929                           
  6930                           opt pagewidth 120
  6931                           
  6932  002A                     	__size_of_SwitchToTxMode	equ	__end_of_SwitchToTxMode-_SwitchToTxMode
  6933                           opt subtitle "HI-TECH Software Omniscient Code Generator (Lite mode) build 49521"
  6934  1375                     _SwitchToTxMode:	
  6935                           opt subtitle "HI-TECH Software Omniscient Code Generator (Lite mode) build 49521"
  6936                           
  6937                           opt pagewidth 120
  6938                           
  6939  1375                     l4923:	
  6940                           opt subtitle "HI-TECH Software Omniscient Code Generator (Lite mode) build 49521"
  6941                           
  6942  1375  1283               	bcf	status, 5	;RP0=0, select bank0
  6943  1376  1303               	bcf	status, 6	;RP1=0, select bank0
  6944  1377  01B8               	clrf	(?_SPI_Write_Reg)
  6945  1378  30E1               	movlw	(0E1h)
  6946  1379  160A  118A  2251   	fcall	_SPI_Write_Reg
              160A  118A         
  6947                           opt subtitle "HI-TECH Software Omniscient Code Generator (Lite mode) build 49521"
  6948                           
  6949  137E                     l4925:	
  6950                           opt subtitle "HI-TECH Software Omniscient Code Generator (Lite mode) build 49521"
  6951  137E  1283               	bcf	status, 5	;RP0=0, select bank0
  6952  137F  1303               	bcf	status, 6	;RP1=0, select bank0
  6953  1380  1107               	bcf	(7),2	;volatile
  6954                           opt subtitle "HI-TECH Software Omniscient Code Generator (Lite mode) build 49521"
  6955                           
  6956  1381  3000               	movlw	(0)
  6957  1382  160A  118A  22AE   	fcall	_SPI_Read_Reg
              160A  118A         
  6958  1387  1283               	bcf	status, 5	;RP0=0, select bank0
  6959  1388  1303               	bcf	status, 6	;RP1=0, select bank0
  6960  1389  00BB               	movwf	(??_SwitchToTxMode+0)+0
  6961  138A  083B               	movf	(??_SwitchToTxMode+0)+0,w
  6962  138B  00BC               	movwf	(SwitchToTxMode@value)
  6963                           opt subtitle "HI-TECH Software Omniscient Code Generator (Lite mode) build 49521"
  6964                           
  6965  138C                     l4927:	
  6966                           opt subtitle "HI-TECH Software Omniscient Code Generator (Lite mode) build 49521"
  6967  138C  083C               	movf	(SwitchToTxMode@value),w
  6968  138D  39FE               	andlw	0FEh
  6969  138E  00BB               	movwf	(??_SwitchToTxMode+0)+0
  6970  138F  083B               	movf	(??_SwitchToTxMode+0)+0,w
  6971  1390  00BC               	movwf	(SwitchToTxMode@value)
  6972                           opt subtitle "HI-TECH Software Omniscient Code Generator (Lite mode) build 49521"
  6973                           
  6974  1391                     l4929:	
  6975                           opt subtitle "HI-TECH Software Omniscient Code Generator (Lite mode) build 49521"
  6976  1391  083C               	movf	(SwitchToTxMode@value),w
  6977  1392  00BB               	movwf	(??_SwitchToTxMode+0)+0
  6978  1393  083B               	movf	(??_SwitchToTxMode+0)+0,w
  6979  1394  00B8               	movwf	(?_SPI_Write_Reg)
  6980  1395  3020               	movlw	(020h)
  6981  1396  160A  118A  2251   	fcall	_SPI_Write_Reg
              160A  118A         
  6982                           opt subtitle "HI-TECH Software Omniscient Code Generator (Lite mode) build 49521"
  6983                           
  6984  139B                     l4931:	
  6985                           opt subtitle "HI-TECH Software Omniscient Code Generator (Lite mode) build 49521"
  6986  139B  1283               	bcf	status, 5	;RP0=0, select bank0
  6987  139C  1303               	bcf	status, 6	;RP1=0, select bank0
  6988  139D  1507               	bsf	(7),2	;volatile
  6989                           opt subtitle "HI-TECH Software Omniscient Code Generator (Lite mode) build 49521"
  6990                           
  6991  139E                     l339:	
  6992  139E  0008               	return
  6993                           opt subtitle "HI-TECH Software Omniscient Code Generator (Lite mode) build 49521"
  6994                           
  6995  139F                     	__end_of_SwitchToTxMode:
  6996                           opt subtitle "HI-TECH Software Omniscient Code Generator (Lite mode) build 49521"
  6997                           
  6998                           opt pagewidth 120
  6999                           
  7000                           	opt lm
  7001                           
  7002                           	processor	16LF707
  7003                           clrc	macro
  7004                           	bcf	3,0
  7005                           	endm
  7006                           clrz	macro
  7007                           	bcf	3,2
  7008                           	endm
  7009                           setc	macro
  7010                           	bsf	3,0
  7011                           	endm
  7012                           setz	macro
  7013                           	bsf	3,2
  7014                           	endm
  7015                           skipc	macro
  7016                           	btfss	3,0
  7017                           	endm
  7018                           skipz	macro
  7019                           	btfss	3,2
  7020                           	endm
  7021                           skipnc	macro
  7022                           	btfsc	3,0
  7023                           	endm
  7024                           skipnz	macro
  7025                           	btfsc	3,2
  7026                           	endm
  7027                           indf	equ	0
  7028                           indf0	equ	0
  7029                           pc	equ	2
  7030                           pcl	equ	2
  7031  1225                     __ptext1291:	;psect for function _putch
  7032                           opt subtitle "HI-TECH Software Omniscient Code Generator (Lite mode) build 49521"
  7033                           
  7034                           opt pagewidth 120
  7035                           
  7036  000C                     	__size_of_putch	equ	__end_of_putch-_putch
  7037                           opt subtitle "HI-TECH Software Omniscient Code Generator (Lite mode) build 49521"
  7038  1225                     _putch:	
  7039                           opt subtitle "HI-TECH Software Omniscient Code Generator (Lite mode) build 49521"
  7040                           
  7041                           opt pagewidth 120
  7042  1225  1283               	bcf	status, 5	;RP0=0, select bank0
  7043  1226  1303               	bcf	status, 6	;RP1=0, select bank0
  7044  1227  00B5               	movwf	(putch@c)
  7045                           opt subtitle "HI-TECH Software Omniscient Code Generator (Lite mode) build 49521"
  7046                           
  7047  1228                     l4915:	
  7048                           opt subtitle "HI-TECH Software Omniscient Code Generator (Lite mode) build 49521"
  7049  1228  2A29               	goto	l248
  7050                           opt subtitle "HI-TECH Software Omniscient Code Generator (Lite mode) build 49521"
  7051  1229                     l249:	
  7052                           opt subtitle "HI-TECH Software Omniscient Code Generator (Lite mode) build 49521"
  7053  1229                     l248:	
  7054  1229  1E0C               	btfss	(100/8),(100)&7	;volatile
  7055  122A  2A2C               	goto	u4981
  7056  122B  2A2D               	goto	u4980
  7057  122C                     u4981:
  7058  122C  2A29               	goto	l248
  7059  122D                     u4980:
  7060  122D  2A2E               	goto	l4917
  7061                           opt subtitle "HI-TECH Software Omniscient Code Generator (Lite mode) build 49521"
  7062  122E                     l250:	
  7063                           opt subtitle "HI-TECH Software Omniscient Code Generator (Lite mode) build 49521"
  7064                           
  7065  122E                     l4917:	
  7066                           opt subtitle "HI-TECH Software Omniscient Code Generator (Lite mode) build 49521"
  7067  122E  0835               	movf	(putch@c),w
  7068  122F  0099               	movwf	(25)	;volatile
  7069                           opt subtitle "HI-TECH Software Omniscient Code Generator (Lite mode) build 49521"
  7070                           
  7071  1230                     l251:	
  7072  1230  0008               	return
  7073                           opt subtitle "HI-TECH Software Omniscient Code Generator (Lite mode) build 49521"
  7074                           
  7075  1231                     	__end_of_putch:
  7076                           opt subtitle "HI-TECH Software Omniscient Code Generator (Lite mode) build 49521"
  7077                           
  7078                           opt pagewidth 120
  7079                           
  7080                           	opt lm
  7081                           
  7082                           	processor	16LF707
  7083                           clrc	macro
  7084                           	bcf	3,0
  7085                           	endm
  7086                           clrz	macro
  7087                           	bcf	3,2
  7088                           	endm
  7089                           setc	macro
  7090                           	bsf	3,0
  7091                           	endm
  7092                           setz	macro
  7093                           	bsf	3,2
  7094                           	endm
  7095                           skipc	macro
  7096                           	btfss	3,0
  7097                           	endm
  7098                           skipz	macro
  7099                           	btfss	3,2
  7100                           	endm
  7101                           skipnc	macro
  7102                           	btfsc	3,0
  7103                           	endm
  7104                           skipnz	macro
  7105                           	btfsc	3,2
  7106                           	endm
  7107                           indf	equ	0
  7108                           indf0	equ	0
  7109                           pc	equ	2
  7110                           pcl	equ	2
  7111                           status	equ	3
  7112                           fsr	equ	4
  7113                           fsr0	equ	4
  7114  0AEC                     __ptext1292:	;psect for function _sleep
  7115                           opt subtitle "HI-TECH Software Omniscient Code Generator (Lite mode) build 49521"
  7116                           
  7117                           opt pagewidth 120
  7118                           
  7119  0166                     	__size_of_sleep	equ	__end_of_sleep-_sleep
  7120                           opt subtitle "HI-TECH Software Omniscient Code Generator (Lite mode) build 49521"
  7121  0AEC                     _sleep:	
  7122                           opt subtitle "HI-TECH Software Omniscient Code Generator (Lite mode) build 49521"
  7123                           
  7124                           opt pagewidth 120
  7125                           
  7126  0AEC                     l4855:	
  7127                           opt subtitle "HI-TECH Software Omniscient Code Generator (Lite mode) build 49521"
  7128                           
  7129  0AEC  160A  118A  239F   	fcall	_adcReadVcap
              120A  158A         
  7130  0AF1  1283               	bcf	status, 5	;RP0=0, select bank0
  7131  0AF2  1303               	bcf	status, 6	;RP1=0, select bank0
  7132  0AF3  00CD               	movwf	(??_sleep+0)+0
  7133  0AF4  084D               	movf	(??_sleep+0)+0,w
  7134  0AF5  1683               	bsf	status, 5	;RP0=1, select bank1
  7135  0AF6  1303               	bcf	status, 6	;RP1=0, select bank1
  7136  0AF7  00C7               	movwf	(_value)^080h
  7137                           opt subtitle "HI-TECH Software Omniscient Code Generator (Lite mode) build 49521"
  7138                           
  7139  0AF8  085F               	movf	(_charge_pulse_float)^080h,w
  7140  0AF9  1283               	bcf	status, 5	;RP0=0, select bank0
  7141  0AFA  1303               	bcf	status, 6	;RP1=0, select bank0
  7142  0AFB  00B5               	movwf	(?___fttol)
  7143  0AFC  1683               	bsf	status, 5	;RP0=1, select bank1
  7144  0AFD  1303               	bcf	status, 6	;RP1=0, select bank1
  7145  0AFE  0860               	movf	(_charge_pulse_float+1)^080h,w
  7146  0AFF  1283               	bcf	status, 5	;RP0=0, select bank0
  7147  0B00  1303               	bcf	status, 6	;RP1=0, select bank0
  7148  0B01  00B6               	movwf	(?___fttol+1)
  7149  0B02  1683               	bsf	status, 5	;RP0=1, select bank1
  7150  0B03  1303               	bcf	status, 6	;RP1=0, select bank1
  7151  0B04  0861               	movf	(_charge_pulse_float+2)^080h,w
  7152  0B05  1283               	bcf	status, 5	;RP0=0, select bank0
  7153  0B06  1303               	bcf	status, 6	;RP1=0, select bank0
  7154  0B07  00B7               	movwf	(?___fttol+2)
  7155  0B08  160A  118A  275A   	fcall	___fttol
              120A  158A         
  7156  0B0D  1283               	bcf	status, 5	;RP0=0, select bank0
  7157  0B0E  1303               	bcf	status, 6	;RP1=0, select bank0
  7158  0B0F  0836               	movf	1+(((0+(?___fttol)))),w
  7159  0B10  01D1               	clrf	(_charge_pulse+1)
  7160  0B11  07D1               	addwf	(_charge_pulse+1)
  7161  0B12  0835               	movf	0+(((0+(?___fttol)))),w
  7162  0B13  01D0               	clrf	(_charge_pulse)
  7163  0B14  07D0               	addwf	(_charge_pulse)
  7164                           opt subtitle "HI-TECH Software Omniscient Code Generator (Lite mode) build 49521"
  7165                           
  7166                           opt pagewidth 120
  7167  0B15                     l4857:	
  7168                           opt subtitle "HI-TECH Software Omniscient Code Generator (Lite mode) build 49521"
  7169  0B15  307A               	movlw	(07Ah)
  7170  0B16  1683               	bsf	status, 5	;RP0=1, select bank1
  7171  0B17  1303               	bcf	status, 6	;RP1=0, select bank1
  7172  0B18  0247               	subwf	(_value)^080h,w
  7173  0B19  1C03               	skipc
  7174  0B1A  2B1C               	goto	u4901
  7175  0B1B  2B1D               	goto	u4900
  7176  0B1C                     u4901:
  7177  0B1C  2C45               	goto	l194
  7178  0B1D                     u4900:
  7179                           opt subtitle "HI-TECH Software Omniscient Code Generator (Lite mode) build 49521"
  7180  0B1D                     l4859:	
  7181  0B1D  1283               	bcf	status, 5	;RP0=0, select bank0
  7182  0B1E  1303               	bcf	status, 6	;RP1=0, select bank0
  7183  0B1F  0851               	movf	(_charge_pulse+1),w
  7184  0B20  0450               	iorwf	(_charge_pulse),w
  7185  0B21  1903               	skipnz
  7186  0B22  2B24               	goto	u4911
  7187  0B23  2B25               	goto	u4910
  7188  0B24                     u4911:
  7189  0B24  2C45               	goto	l194
  7190  0B25                     u4910:
  7191                           opt subtitle "HI-TECH Software Omniscient Code Generator (Lite mode) build 49521"
  7192  0B25                     l4861:	
  7193  0B25  1A88               	btfsc	(8),5	;volatile
  7194  0B26  2B28               	goto	u4921
  7195  0B27  2B29               	goto	u4920
  7196  0B28                     u4921:
  7197  0B28  2C45               	goto	l194
  7198  0B29                     u4920:
  7199                           opt subtitle "HI-TECH Software Omniscient Code Generator (Lite mode) build 49521"
  7200                           
  7201  0B29                     l4863:	
  7202                           opt subtitle "HI-TECH Software Omniscient Code Generator (Lite mode) build 49521"
  7203  0B29  1283               	bcf	status, 5	;RP0=0, select bank2
  7204  0B2A  1703               	bsf	status, 6	;RP1=1, select bank2
  7205  0B2B  0194               	clrf	(276)^0100h	;volatile
  7206                           opt subtitle "HI-TECH Software Omniscient Code Generator (Lite mode) build 49521"
  7207                           
  7208  0B2C                     l4865:	
  7209                           opt subtitle "HI-TECH Software Omniscient Code Generator (Lite mode) build 49521"
  7210  0B2C  30A0               	movlw	(0A0h)
  7211  0B2D  0093               	movwf	(275)^0100h	;volatile
  7212                           opt subtitle "HI-TECH Software Omniscient Code Generator (Lite mode) build 49521"
  7213                           
  7214  0B2E                     l4867:	
  7215                           opt subtitle "HI-TECH Software Omniscient Code Generator (Lite mode) build 49521"
  7216  0B2E  1283               	bcf	status, 5	;RP0=0, select bank0
  7217  0B2F  1303               	bcf	status, 6	;RP1=0, select bank0
  7218  0B30  1010               	bcf	(16),0	;volatile
  7219                           opt subtitle "HI-TECH Software Omniscient Code Generator (Lite mode) build 49521"
  7220                           
  7221  0B31                     l4869:	
  7222                           opt subtitle "HI-TECH Software Omniscient Code Generator (Lite mode) build 49521"
  7223  0B31  0851               	movf	(_charge_pulse+1),w
  7224  0B32  00CE               	movwf	(??_sleep+0)+0+1
  7225  0B33  0850               	movf	(_charge_pulse),w
  7226  0B34  00CD               	movwf	(??_sleep+0)+0
  7227  0B35  3002               	movlw	02h
  7228  0B36  00FF               	movwf	btemp+1
  7229  0B37                     u4935:
  7230  0B37  1003               	clrc
  7231  0B38  0DCD               	rlf	(??_sleep+0)+0,f
  7232  0B39  0DCE               	rlf	(??_sleep+0)+1,f
  7233  0B3A  0BFF               	decfsz	btemp+1,f
  7234  0B3B  2B37               	goto	u4935
  7235  0B3C  09CD               	comf	(??_sleep+0)+0,f
  7236  0B3D  09CE               	comf	(??_sleep+0)+1,f
  7237  0B3E  0ACD               	incf	(??_sleep+0)+0,f
  7238  0B3F  1903               	skipnz
  7239  0B40  0ACE               	incf	(??_sleep+0)+1,f
  7240  0B41  084D               	movf	0+(??_sleep+0)+0,w
  7241  0B42  00D2               	movwf	(_charge_time)
  7242  0B43  084E               	movf	1+(??_sleep+0)+0,w
  7243  0B44  00D3               	movwf	(_charge_time+1)
  7244                           opt subtitle "HI-TECH Software Omniscient Code Generator (Lite mode) build 49521"
  7245                           
  7246  0B45                     l4871:	
  7247                           opt subtitle "HI-TECH Software Omniscient Code Generator (Lite mode) build 49521"
  7248  0B45  0853               	movf	(_charge_time+1),w
  7249  0B46  008F               	movwf	(15)	;volatile
  7250                           opt subtitle "HI-TECH Software Omniscient Code Generator (Lite mode) build 49521"
  7251                           
  7252  0B47                     l4873:	
  7253                           opt subtitle "HI-TECH Software Omniscient Code Generator (Lite mode) build 49521"
  7254  0B47  0852               	movf	(_charge_time),w
  7255  0B48  008E               	movwf	(14)	;volatile
  7256                           opt subtitle "HI-TECH Software Omniscient Code Generator (Lite mode) build 49521"
  7257                           
  7258  0B49                     l4875:	
  7259                           opt subtitle "HI-TECH Software Omniscient Code Generator (Lite mode) build 49521"
  7260  0B49  1410               	bsf	(16),0	;volatile
  7261                           opt subtitle "HI-TECH Software Omniscient Code Generator (Lite mode) build 49521"
  7262                           
  7263  0B4A  0063               sleep ;# 
  7264                           opt subtitle "HI-TECH Software Omniscient Code Generator (Lite mode) build 49521"
  7265                           
  7266                           opt pagewidth 120
  7267  0B4B                     l4877:	
  7268                           opt subtitle "HI-TECH Software Omniscient Code Generator (Lite mode) build 49521"
  7269  0B4B  1283               	bcf	status, 5	;RP0=0, select bank2
  7270  0B4C  1703               	bsf	status, 6	;RP1=1, select bank2
  7271  0B4D  0193               	clrf	(275)^0100h	;volatile
  7272                           opt subtitle "HI-TECH Software Omniscient Code Generator (Lite mode) build 49521"
  7273                           
  7274  0B4E                     l4879:	
  7275                           opt subtitle "HI-TECH Software Omniscient Code Generator (Lite mode) build 49521"
  7276  0B4E  1283               	bcf	status, 5	;RP0=0, select bank0
  7277  0B4F  1303               	bcf	status, 6	;RP1=0, select bank0
  7278  0B50  1505               	bsf	(5),2	;volatile
  7279                           opt subtitle "HI-TECH Software Omniscient Code Generator (Lite mode) build 49521"
  7280                           
  7281  0B51                     l4881:	
  7282                           opt subtitle "HI-TECH Software Omniscient Code Generator (Lite mode) build 49521"
  7283  0B51  160A  118A  239F   	fcall	_adcReadVcap
              120A  158A         
  7284  0B56  1283               	bcf	status, 5	;RP0=0, select bank0
  7285  0B57  1303               	bcf	status, 6	;RP1=0, select bank0
  7286  0B58  00CD               	movwf	(??_sleep+0)+0
  7287  0B59  084D               	movf	(??_sleep+0)+0,w
  7288  0B5A  00CF               	movwf	(sleep@new_value)
  7289                           opt subtitle "HI-TECH Software Omniscient Code Generator (Lite mode) build 49521"
  7290                           
  7291  0B5B                     l4883:	
  7292                           opt subtitle "HI-TECH Software Omniscient Code Generator (Lite mode) build 49521"
  7293  0B5B  0952               	comf	(_charge_time),w
  7294  0B5C  00CD               	movwf	(??_sleep+0)+0
  7295  0B5D  0953               	comf	(_charge_time+1),w
  7296  0B5E  00CE               	movwf	((??_sleep+0)+0+1)
  7297  0B5F  0ACD               	incf	(??_sleep+0)+0,f
  7298  0B60  1903               	skipnz
  7299  0B61  0ACE               	incf	((??_sleep+0)+0+1),f
  7300  0B62  084D               	movf	0+(??_sleep+0)+0,w
  7301  0B63  3E00               	addlw	low(01000h)
  7302  0B64  00D2               	movwf	(_charge_time)
  7303  0B65  084E               	movf	1+(??_sleep+0)+0,w
  7304  0B66  1803               	skipnc
  7305  0B67  3E01               	addlw	1
  7306  0B68  3E10               	addlw	high(01000h)
  7307  0B69  00D3               	movwf	1+(_charge_time)
  7308                           opt subtitle "HI-TECH Software Omniscient Code Generator (Lite mode) build 49521"
  7309                           
  7310  0B6A                     l4885:	
  7311                           opt subtitle "HI-TECH Software Omniscient Code Generator (Lite mode) build 49521"
  7312  0B6A  1010               	bcf	(16),0	;volatile
  7313                           opt subtitle "HI-TECH Software Omniscient Code Generator (Lite mode) build 49521"
  7314                           
  7315  0B6B                     l4887:	
  7316                           opt subtitle "HI-TECH Software Omniscient Code Generator (Lite mode) build 49521"
  7317  0B6B  0853               	movf	(_charge_time+1),w
  7318  0B6C  008F               	movwf	(15)	;volatile
  7319                           opt subtitle "HI-TECH Software Omniscient Code Generator (Lite mode) build 49521"
  7320                           
  7321  0B6D                     l4889:	
  7322                           opt subtitle "HI-TECH Software Omniscient Code Generator (Lite mode) build 49521"
  7323  0B6D  0852               	movf	(_charge_time),w
  7324  0B6E  008E               	movwf	(14)	;volatile
  7325                           opt subtitle "HI-TECH Software Omniscient Code Generator (Lite mode) build 49521"
  7326                           
  7327  0B6F                     l4891:	
  7328                           opt subtitle "HI-TECH Software Omniscient Code Generator (Lite mode) build 49521"
  7329  0B6F  1410               	bsf	(16),0	;volatile
  7330                           opt subtitle "HI-TECH Software Omniscient Code Generator (Lite mode) build 49521"
  7331                           
  7332  0B70  0063               sleep ;# 
  7333                           opt subtitle "HI-TECH Software Omniscient Code Generator (Lite mode) build 49521"
  7334                           
  7335                           opt pagewidth 120
  7336  0B71                     l4893:	
  7337                           opt subtitle "HI-TECH Software Omniscient Code Generator (Lite mode) build 49521"
  7338  0B71  1283               	bcf	status, 5	;RP0=0, select bank0
  7339  0B72  1303               	bcf	status, 6	;RP1=0, select bank0
  7340  0B73  084F               	movf	(sleep@new_value),w
  7341  0B74  1683               	bsf	status, 5	;RP0=1, select bank1
  7342  0B75  1303               	bcf	status, 6	;RP1=0, select bank1
  7343  0B76  0247               	subwf	(_value)^080h,w
  7344  0B77  1803               	skipnc
  7345  0B78  2B7A               	goto	u4941
  7346  0B79  2B7B               	goto	u4940
  7347  0B7A                     u4941:
  7348  0B7A  2B81               	goto	l195
  7349  0B7B                     u4940:
  7350                           opt subtitle "HI-TECH Software Omniscient Code Generator (Lite mode) build 49521"
  7351                           
  7352  0B7B                     l4895:	
  7353                           opt subtitle "HI-TECH Software Omniscient Code Generator (Lite mode) build 49521"
  7354  0B7B  0847               	movf	(_value)^080h,w
  7355  0B7C  1283               	bcf	status, 5	;RP0=0, select bank0
  7356  0B7D  1303               	bcf	status, 6	;RP1=0, select bank0
  7357  0B7E  00CD               	movwf	(??_sleep+0)+0
  7358  0B7F  084D               	movf	(??_sleep+0)+0,w
  7359  0B80  00CF               	movwf	(sleep@new_value)
  7360                           opt subtitle "HI-TECH Software Omniscient Code Generator (Lite mode) build 49521"
  7361  0B81                     l195:	
  7362                           opt subtitle "HI-TECH Software Omniscient Code Generator (Lite mode) build 49521"
  7363                           
  7364  0B81  1683               	bsf	status, 5	;RP0=1, select bank1
  7365  0B82  1303               	bcf	status, 6	;RP1=0, select bank1
  7366  0B83  0847               	movf	(_value)^080h,w
  7367  0B84  1283               	bcf	status, 5	;RP0=0, select bank0
  7368  0B85  1303               	bcf	status, 6	;RP1=0, select bank0
  7369  0B86  00CD               	movwf	(??_sleep+0)+0
  7370  0B87  084D               	movf	(??_sleep+0)+0,w
  7371  0B88  1683               	bsf	status, 5	;RP0=1, select bank1
  7372  0B89  1303               	bcf	status, 6	;RP1=0, select bank1
  7373  0B8A  00C4               	movwf	(_values)^080h
  7374                           opt subtitle "HI-TECH Software Omniscient Code Generator (Lite mode) build 49521"
  7375                           
  7376  0B8B  1283               	bcf	status, 5	;RP0=0, select bank0
  7377  0B8C  1303               	bcf	status, 6	;RP1=0, select bank0
  7378  0B8D  084F               	movf	(sleep@new_value),w
  7379  0B8E  00CD               	movwf	(??_sleep+0)+0
  7380  0B8F  084D               	movf	(??_sleep+0)+0,w
  7381  0B90  1683               	bsf	status, 5	;RP0=1, select bank1
  7382  0B91  1303               	bcf	status, 6	;RP1=0, select bank1
  7383  0B92  00C5               	movwf	0+(_values)^080h+01h
  7384                           opt subtitle "HI-TECH Software Omniscient Code Generator (Lite mode) build 49521"
  7385                           
  7386  0B93  3059               	movlw	(059h)
  7387  0B94  1283               	bcf	status, 5	;RP0=0, select bank0
  7388  0B95  1303               	bcf	status, 6	;RP1=0, select bank0
  7389  0B96  024F               	subwf	(sleep@new_value),w
  7390  0B97  1C03               	skipc
  7391  0B98  2B9A               	goto	u4951
  7392  0B99  2B9B               	goto	u4950
  7393  0B9A                     u4951:
  7394  0B9A  2BEF               	goto	l4901
  7395  0B9B                     u4950:
  7396                           opt subtitle "HI-TECH Software Omniscient Code Generator (Lite mode) build 49521"
  7397                           
  7398  0B9B                     l4897:	
  7399                           opt subtitle "HI-TECH Software Omniscient Code Generator (Lite mode) build 49521"
  7400  0B9B  1683               	bsf	status, 5	;RP0=1, select bank1
  7401  0B9C  1303               	bcf	status, 6	;RP1=0, select bank1
  7402  0B9D  085F               	movf	(_charge_pulse_float)^080h,w
  7403  0B9E  1283               	bcf	status, 5	;RP0=0, select bank0
  7404  0B9F  1303               	bcf	status, 6	;RP1=0, select bank0
  7405  0BA0  00C5               	movwf	(?___ftge)
  7406  0BA1  1683               	bsf	status, 5	;RP0=1, select bank1
  7407  0BA2  1303               	bcf	status, 6	;RP1=0, select bank1
  7408  0BA3  0860               	movf	(_charge_pulse_float+1)^080h,w
  7409  0BA4  1283               	bcf	status, 5	;RP0=0, select bank0
  7410  0BA5  1303               	bcf	status, 6	;RP1=0, select bank0
  7411  0BA6  00C6               	movwf	(?___ftge+1)
  7412  0BA7  1683               	bsf	status, 5	;RP0=1, select bank1
  7413  0BA8  1303               	bcf	status, 6	;RP1=0, select bank1
  7414  0BA9  0861               	movf	(_charge_pulse_float+2)^080h,w
  7415  0BAA  1283               	bcf	status, 5	;RP0=0, select bank0
  7416  0BAB  1303               	bcf	status, 6	;RP1=0, select bank0
  7417  0BAC  00C7               	movwf	(?___ftge+2)
  7418  0BAD  3040               	movlw	0x40
  7419  0BAE  00C8               	movwf	0+(?___ftge)+03h
  7420  0BAF  301C               	movlw	0x1c
  7421  0BB0  00C9               	movwf	1+(?___ftge)+03h
  7422  0BB1  3046               	movlw	0x46
  7423  0BB2  00CA               	movwf	2+(?___ftge)+03h
  7424  0BB3  160A  118A  26BC   	fcall	___ftge
              120A  158A         
  7425  0BB8  1803               	btfsc	status,0
  7426  0BB9  2BBB               	goto	u4961
  7427  0BBA  2BBC               	goto	u4960
  7428  0BBB                     u4961:
  7429  0BBB  2C51               	goto	l201
  7430  0BBC                     u4960:
  7431                           opt subtitle "HI-TECH Software Omniscient Code Generator (Lite mode) build 49521"
  7432                           
  7433  0BBC                     l4899:	
  7434                           opt subtitle "HI-TECH Software Omniscient Code Generator (Lite mode) build 49521"
  7435  0BBC  3066               	movlw	0x66
  7436  0BBD  1283               	bcf	status, 5	;RP0=0, select bank0
  7437  0BBE  1303               	bcf	status, 6	;RP1=0, select bank0
  7438  0BBF  00BD               	movwf	(?___ftmul)
  7439  0BC0  3086               	movlw	0x86
  7440  0BC1  00BE               	movwf	(?___ftmul+1)
  7441  0BC2  303F               	movlw	0x3f
  7442  0BC3  00BF               	movwf	(?___ftmul+2)
  7443  0BC4  1683               	bsf	status, 5	;RP0=1, select bank1
  7444  0BC5  1303               	bcf	status, 6	;RP1=0, select bank1
  7445  0BC6  085F               	movf	(_charge_pulse_float)^080h,w
  7446  0BC7  1283               	bcf	status, 5	;RP0=0, select bank0
  7447  0BC8  1303               	bcf	status, 6	;RP1=0, select bank0
  7448  0BC9  00C0               	movwf	0+(?___ftmul)+03h
  7449  0BCA  1683               	bsf	status, 5	;RP0=1, select bank1
  7450  0BCB  1303               	bcf	status, 6	;RP1=0, select bank1
  7451  0BCC  0860               	movf	(_charge_pulse_float+1)^080h,w
  7452  0BCD  1283               	bcf	status, 5	;RP0=0, select bank0
  7453  0BCE  1303               	bcf	status, 6	;RP1=0, select bank0
  7454  0BCF  00C1               	movwf	1+(?___ftmul)+03h
  7455  0BD0  1683               	bsf	status, 5	;RP0=1, select bank1
  7456  0BD1  1303               	bcf	status, 6	;RP1=0, select bank1
  7457  0BD2  0861               	movf	(_charge_pulse_float+2)^080h,w
  7458  0BD3  1283               	bcf	status, 5	;RP0=0, select bank0
  7459  0BD4  1303               	bcf	status, 6	;RP1=0, select bank0
  7460  0BD5  00C2               	movwf	2+(?___ftmul)+03h
  7461  0BD6  120A  158A  21FE   	fcall	___ftmul
              120A  158A         
  7462  0BDB  1283               	bcf	status, 5	;RP0=0, select bank0
  7463  0BDC  1303               	bcf	status, 6	;RP1=0, select bank0
  7464  0BDD  083D               	movf	(0+(?___ftmul)),w
  7465  0BDE  1683               	bsf	status, 5	;RP0=1, select bank1
  7466  0BDF  1303               	bcf	status, 6	;RP1=0, select bank1
  7467  0BE0  00DF               	movwf	(_charge_pulse_float)^080h
  7468  0BE1  1283               	bcf	status, 5	;RP0=0, select bank0
  7469  0BE2  1303               	bcf	status, 6	;RP1=0, select bank0
  7470  0BE3  083E               	movf	(1+(?___ftmul)),w
  7471  0BE4  1683               	bsf	status, 5	;RP0=1, select bank1
  7472  0BE5  1303               	bcf	status, 6	;RP1=0, select bank1
  7473  0BE6  00E0               	movwf	(_charge_pulse_float+1)^080h
  7474  0BE7  1283               	bcf	status, 5	;RP0=0, select bank0
  7475  0BE8  1303               	bcf	status, 6	;RP1=0, select bank0
  7476  0BE9  083F               	movf	(2+(?___ftmul)),w
  7477  0BEA  1683               	bsf	status, 5	;RP0=1, select bank1
  7478  0BEB  1303               	bcf	status, 6	;RP1=0, select bank1
  7479  0BEC  00E1               	movwf	(_charge_pulse_float+2)^080h
  7480  0BED  2C51               	goto	l201
  7481                           opt subtitle "HI-TECH Software Omniscient Code Generator (Lite mode) build 49521"
  7482  0BEE                     l197:	
  7483                           opt subtitle "HI-TECH Software Omniscient Code Generator (Lite mode) build 49521"
  7484                           
  7485  0BEE  2C51               	goto	l201
  7486                           opt subtitle "HI-TECH Software Omniscient Code Generator (Lite mode) build 49521"
  7487                           
  7488  0BEF                     l196:	
  7489                           opt subtitle "HI-TECH Software Omniscient Code Generator (Lite mode) build 49521"
  7490                           
  7491  0BEF                     l4901:	
  7492                           opt subtitle "HI-TECH Software Omniscient Code Generator (Lite mode) build 49521"
  7493                           
  7494  0BEF  3000               	movlw	0x0
  7495  0BF0  1283               	bcf	status, 5	;RP0=0, select bank0
  7496  0BF1  00C5               	movwf	(?___ftge)
  7497  0BF2  3000               	movlw	0x0
  7498  0BF3  00C6               	movwf	(?___ftge+1)
  7499  0BF4  3000               	movlw	0x0
  7500  0BF5  00C7               	movwf	(?___ftge+2)
  7501  0BF6  1683               	bsf	status, 5	;RP0=1, select bank1
  7502  0BF7  1303               	bcf	status, 6	;RP1=0, select bank1
  7503  0BF8  085F               	movf	(_charge_pulse_float)^080h,w
  7504  0BF9  1283               	bcf	status, 5	;RP0=0, select bank0
  7505  0BFA  1303               	bcf	status, 6	;RP1=0, select bank0
  7506  0BFB  00C8               	movwf	0+(?___ftge)+03h
  7507  0BFC  1683               	bsf	status, 5	;RP0=1, select bank1
  7508  0BFD  1303               	bcf	status, 6	;RP1=0, select bank1
  7509  0BFE  0860               	movf	(_charge_pulse_float+1)^080h,w
  7510  0BFF  1283               	bcf	status, 5	;RP0=0, select bank0
  7511  0C00  1303               	bcf	status, 6	;RP1=0, select bank0
  7512  0C01  00C9               	movwf	1+(?___ftge)+03h
  7513  0C02  1683               	bsf	status, 5	;RP0=1, select bank1
  7514  0C03  1303               	bcf	status, 6	;RP1=0, select bank1
  7515  0C04  0861               	movf	(_charge_pulse_float+2)^080h,w
  7516  0C05  1283               	bcf	status, 5	;RP0=0, select bank0
  7517  0C06  1303               	bcf	status, 6	;RP1=0, select bank0
  7518  0C07  00CA               	movwf	2+(?___ftge)+03h
  7519  0C08  160A  118A  26BC   	fcall	___ftge
              120A  158A         
  7520  0C0D  1803               	btfsc	status,0
  7521  0C0E  2C10               	goto	u4971
  7522  0C0F  2C11               	goto	u4970
  7523  0C10                     u4971:
  7524  0C10  2C51               	goto	l201
  7525  0C11                     u4970:
  7526                           opt subtitle "HI-TECH Software Omniscient Code Generator (Lite mode) build 49521"
  7527                           
  7528  0C11                     l4903:	
  7529                           opt subtitle "HI-TECH Software Omniscient Code Generator (Lite mode) build 49521"
  7530  0C11  3066               	movlw	0x66
  7531  0C12  1283               	bcf	status, 5	;RP0=0, select bank0
  7532  0C13  1303               	bcf	status, 6	;RP1=0, select bank0
  7533  0C14  00BD               	movwf	(?___ftdiv)
  7534  0C15  3086               	movlw	0x86
  7535  0C16  00BE               	movwf	(?___ftdiv+1)
  7536  0C17  303F               	movlw	0x3f
  7537  0C18  00BF               	movwf	(?___ftdiv+2)
  7538  0C19  1683               	bsf	status, 5	;RP0=1, select bank1
  7539  0C1A  1303               	bcf	status, 6	;RP1=0, select bank1
  7540  0C1B  085F               	movf	(_charge_pulse_float)^080h,w
  7541  0C1C  1283               	bcf	status, 5	;RP0=0, select bank0
  7542  0C1D  1303               	bcf	status, 6	;RP1=0, select bank0
  7543  0C1E  00C0               	movwf	0+(?___ftdiv)+03h
  7544  0C1F  1683               	bsf	status, 5	;RP0=1, select bank1
  7545  0C20  1303               	bcf	status, 6	;RP1=0, select bank1
  7546  0C21  0860               	movf	(_charge_pulse_float+1)^080h,w
  7547  0C22  1283               	bcf	status, 5	;RP0=0, select bank0
  7548  0C23  1303               	bcf	status, 6	;RP1=0, select bank0
  7549  0C24  00C1               	movwf	1+(?___ftdiv)+03h
  7550  0C25  1683               	bsf	status, 5	;RP0=1, select bank1
  7551  0C26  1303               	bcf	status, 6	;RP1=0, select bank1
  7552  0C27  0861               	movf	(_charge_pulse_float+2)^080h,w
  7553  0C28  1283               	bcf	status, 5	;RP0=0, select bank0
  7554  0C29  1303               	bcf	status, 6	;RP1=0, select bank0
  7555  0C2A  00C2               	movwf	2+(?___ftdiv)+03h
  7556  0C2B  120A  158A  2052   	fcall	___ftdiv
              120A  158A         
  7557  0C30  1283               	bcf	status, 5	;RP0=0, select bank0
  7558  0C31  1303               	bcf	status, 6	;RP1=0, select bank0
  7559  0C32  083D               	movf	(0+(?___ftdiv)),w
  7560  0C33  1683               	bsf	status, 5	;RP0=1, select bank1
  7561  0C34  1303               	bcf	status, 6	;RP1=0, select bank1
  7562  0C35  00DF               	movwf	(_charge_pulse_float)^080h
  7563  0C36  1283               	bcf	status, 5	;RP0=0, select bank0
  7564  0C37  1303               	bcf	status, 6	;RP1=0, select bank0
  7565  0C38  083E               	movf	(1+(?___ftdiv)),w
  7566  0C39  1683               	bsf	status, 5	;RP0=1, select bank1
  7567  0C3A  1303               	bcf	status, 6	;RP1=0, select bank1
  7568  0C3B  00E0               	movwf	(_charge_pulse_float+1)^080h
  7569  0C3C  1283               	bcf	status, 5	;RP0=0, select bank0
  7570  0C3D  1303               	bcf	status, 6	;RP1=0, select bank0
  7571  0C3E  083F               	movf	(2+(?___ftdiv)),w
  7572  0C3F  1683               	bsf	status, 5	;RP0=1, select bank1
  7573  0C40  1303               	bcf	status, 6	;RP1=0, select bank1
  7574  0C41  00E1               	movwf	(_charge_pulse_float+2)^080h
  7575  0C42  2C51               	goto	l201
  7576                           opt subtitle "HI-TECH Software Omniscient Code Generator (Lite mode) build 49521"
  7577  0C43                     l199:	
  7578  0C43  2C51               	goto	l201
  7579                           opt subtitle "HI-TECH Software Omniscient Code Generator (Lite mode) build 49521"
  7580                           
  7581  0C44                     l198:	
  7582                           opt subtitle "HI-TECH Software Omniscient Code Generator (Lite mode) build 49521"
  7583                           
  7584                           opt pagewidth 120
  7585  0C44  2C51               	goto	l201
  7586                           opt subtitle "HI-TECH Software Omniscient Code Generator (Lite mode) build 49521"
  7587                           
  7588  0C45                     l194:	
  7589                           opt subtitle "HI-TECH Software Omniscient Code Generator (Lite mode) build 49521"
  7590                           
  7591                           opt pagewidth 120
  7592  0C45  1283               	bcf	status, 5	;RP0=0, select bank0
  7593  0C46  1010               	bcf	(16),0	;volatile
  7594                           opt subtitle "HI-TECH Software Omniscient Code Generator (Lite mode) build 49521"
  7595                           
  7596  0C47                     l4905:	
  7597                           opt subtitle "HI-TECH Software Omniscient Code Generator (Lite mode) build 49521"
  7598  0C47  3010               	movlw	(010h)
  7599  0C48  008F               	movwf	(15)	;volatile
  7600                           opt subtitle "HI-TECH Software Omniscient Code Generator (Lite mode) build 49521"
  7601                           
  7602  0C49                     l4907:	
  7603                           opt subtitle "HI-TECH Software Omniscient Code Generator (Lite mode) build 49521"
  7604  0C49  018E               	clrf	(14)	;volatile
  7605                           opt subtitle "HI-TECH Software Omniscient Code Generator (Lite mode) build 49521"
  7606                           
  7607  0C4A                     l4909:	
  7608                           opt subtitle "HI-TECH Software Omniscient Code Generator (Lite mode) build 49521"
  7609  0C4A  1410               	bsf	(16),0	;volatile
  7610                           opt subtitle "HI-TECH Software Omniscient Code Generator (Lite mode) build 49521"
  7611                           
  7612  0C4B  0063               sleep ;# 
  7613                           opt subtitle "HI-TECH Software Omniscient Code Generator (Lite mode) build 49521"
  7614                           
  7615                           opt pagewidth 120
  7616  0C4C                     l4911:	
  7617                           opt subtitle "HI-TECH Software Omniscient Code Generator (Lite mode) build 49521"
  7618  0C4C  1683               	bsf	status, 5	;RP0=1, select bank1
  7619  0C4D  1303               	bcf	status, 6	;RP1=0, select bank1
  7620  0C4E  01C4               	clrf	(_values)^080h
  7621                           opt subtitle "HI-TECH Software Omniscient Code Generator (Lite mode) build 49521"
  7622                           
  7623  0C4F                     l4913:	
  7624                           opt subtitle "HI-TECH Software Omniscient Code Generator (Lite mode) build 49521"
  7625  0C4F  01C5               	clrf	0+(_values)^080h+01h
  7626  0C50  2C51               	goto	l201
  7627                           opt subtitle "HI-TECH Software Omniscient Code Generator (Lite mode) build 49521"
  7628                           
  7629  0C51                     l200:	
  7630                           opt subtitle "HI-TECH Software Omniscient Code Generator (Lite mode) build 49521"
  7631                           
  7632  0C51                     l201:	
  7633  0C51  0008               	return
  7634                           opt subtitle "HI-TECH Software Omniscient Code Generator (Lite mode) build 49521"
  7635                           
  7636  0C52                     	__end_of_sleep:
  7637                           opt subtitle "HI-TECH Software Omniscient Code Generator (Lite mode) build 49521"
  7638                           
  7639                           opt pagewidth 120
  7640                           
  7641                           	opt lm
  7642                           
  7643                           	processor	16LF707
  7644                           clrc	macro
  7645                           	bcf	3,0
  7646                           	endm
  7647                           clrz	macro
  7648                           	bcf	3,2
  7649                           	endm
  7650                           setc	macro
  7651                           	bsf	3,0
  7652                           	endm
  7653                           setz	macro
  7654                           	bsf	3,2
  7655                           	endm
  7656                           skipc	macro
  7657                           	btfss	3,0
  7658                           	endm
  7659                           skipz	macro
  7660                           	btfss	3,2
  7661                           	endm
  7662                           skipnc	macro
  7663                           	btfsc	3,0
  7664                           	endm
  7665                           skipnz	macro
  7666                           	btfsc	3,2
  7667                           	endm
  7668                           indf	equ	0
  7669                           indf0	equ	0
  7670                           pc	equ	2
  7671                           pcl	equ	2
  7672  139F                     __ptext1293:	;psect for function _adcReadVcap
  7673                           opt subtitle "HI-TECH Software Omniscient Code Generator (Lite mode) build 49521"
  7674                           
  7675                           opt pagewidth 120
  7676                           
  7677  002B                     	__size_of_adcReadVcap	equ	__end_of_adcReadVcap-_adcReadVcap
  7678                           opt subtitle "HI-TECH Software Omniscient Code Generator (Lite mode) build 49521"
  7679  139F                     _adcReadVcap:	
  7680                           opt subtitle "HI-TECH Software Omniscient Code Generator (Lite mode) build 49521"
  7681                           
  7682                           opt pagewidth 120
  7683                           
  7684  139F                     l4609:	
  7685                           opt subtitle "HI-TECH Software Omniscient Code Generator (Lite mode) build 49521"
  7686                           
  7687  139F  1283               	bcf	status, 5	;RP0=0, select bank0
  7688  13A0  1303               	bcf	status, 6	;RP1=0, select bank0
  7689  13A1  081F               	movf	(31),w	;volatile
  7690  13A2  39C3               	andlw	not (((1<<4)-1)<<2)
  7691  13A3  3814               	iorlw	(05h & ((1<<4)-1))<<2
  7692  13A4  009F               	movwf	(31)	;volatile
  7693                           opt subtitle "HI-TECH Software Omniscient Code Generator (Lite mode) build 49521"
  7694                           
  7695  13A5  1683               	bsf	status, 5	;RP0=1, select bank1
  7696  13A6  1303               	bcf	status, 6	;RP1=0, select bank1
  7697  13A7  081D               	movf	(157)^080h,w	;volatile
  7698  13A8  39FC               	andlw	not (((1<<2)-1)<<0)
  7699  13A9  3802               	iorlw	(02h & ((1<<2)-1))<<0
  7700  13AA  009D               	movwf	(157)^080h	;volatile
  7701                           opt subtitle "HI-TECH Software Omniscient Code Generator (Lite mode) build 49521"
  7702                           
  7703  13AB                     l4611:	
  7704                           opt subtitle "HI-TECH Software Omniscient Code Generator (Lite mode) build 49521"
  7705  13AB  1283               	bcf	status, 5	;RP0=0, select bank0
  7706  13AC  1303               	bcf	status, 6	;RP1=0, select bank0
  7707  13AD  141F               	bsf	(31),0	;volatile
  7708                           opt subtitle "HI-TECH Software Omniscient Code Generator (Lite mode) build 49521"
  7709                           
  7710  13AE                     l4613:	
  7711                           opt subtitle "HI-TECH Software Omniscient Code Generator (Lite mode) build 49521"
  7712  13AE  1588               	bsf	(8),3	;volatile
  7713                           opt subtitle "HI-TECH Software Omniscient Code Generator (Lite mode) build 49521"
  7714                           
  7715  13AF                     l4615:	
  7716                           opt subtitle "HI-TECH Software Omniscient Code Generator (Lite mode) build 49521"
  7717                           
  7718  13AF  3003               movlw	3
  7719  13B0  00B6               movwf	((??_adcReadVcap+0)+0+1),f
  7720  13B1  3097               	movlw	151
  7721  13B2  00B5               movwf	((??_adcReadVcap+0)+0),f
  7722  13B3                     u5967:
  7723  13B3  0BB5               	decfsz	((??_adcReadVcap+0)+0),f
  7724  13B4  2BB3               	goto	u5967
  7725  13B5  0BB6               	decfsz	((??_adcReadVcap+0)+0+1),f
  7726  13B6  2BB3               	goto	u5967
  7727  13B7  2BB8               	nop2
  7728                           opt subtitle "HI-TECH Software Omniscient Code Generator (Lite mode) build 49521"
  7729                           
  7730                           opt pagewidth 120
  7731                           
  7732  13B8                     l4617:	
  7733                           opt subtitle "HI-TECH Software Omniscient Code Generator (Lite mode) build 49521"
  7734  13B8  1283               	bcf	status, 5	;RP0=0, select bank0
  7735  13B9  1303               	bcf	status, 6	;RP1=0, select bank0
  7736  13BA  149F               	bsf	(31),1	;volatile
  7737                           opt subtitle "HI-TECH Software Omniscient Code Generator (Lite mode) build 49521"
  7738                           
  7739  13BB  2BBC               	goto	l213
  7740                           opt subtitle "HI-TECH Software Omniscient Code Generator (Lite mode) build 49521"
  7741  13BC                     l214:	
  7742                           opt subtitle "HI-TECH Software Omniscient Code Generator (Lite mode) build 49521"
  7743  13BC                     l213:	
  7744  13BC  189F               	btfsc	(31),1	;volatile
  7745  13BD  2BBF               	goto	u4491
  7746  13BE  2BC0               	goto	u4490
  7747  13BF                     u4491:
  7748  13BF  2BBC               	goto	l213
  7749  13C0                     u4490:
  7750  13C0  2BC1               	goto	l4619
  7751                           opt subtitle "HI-TECH Software Omniscient Code Generator (Lite mode) build 49521"
  7752  13C1                     l215:	
  7753                           opt subtitle "HI-TECH Software Omniscient Code Generator (Lite mode) build 49521"
  7754                           
  7755  13C1                     l4619:	
  7756                           opt subtitle "HI-TECH Software Omniscient Code Generator (Lite mode) build 49521"
  7757  13C1  081E               	movf	(30),w	;volatile
  7758  13C2  00B5               	movwf	(??_adcReadVcap+0)+0
  7759  13C3  0835               	movf	(??_adcReadVcap+0)+0,w
  7760  13C4  00B7               	movwf	(adcReadVcap@value)
  7761                           opt subtitle "HI-TECH Software Omniscient Code Generator (Lite mode) build 49521"
  7762                           
  7763  13C5                     l4621:	
  7764                           opt subtitle "HI-TECH Software Omniscient Code Generator (Lite mode) build 49521"
  7765  13C5  101F               	bcf	(31),0	;volatile
  7766                           opt subtitle "HI-TECH Software Omniscient Code Generator (Lite mode) build 49521"
  7767                           
  7768  13C6                     l4623:	
  7769                           opt subtitle "HI-TECH Software Omniscient Code Generator (Lite mode) build 49521"
  7770  13C6  1188               	bcf	(8),3	;volatile
  7771                           opt subtitle "HI-TECH Software Omniscient Code Generator (Lite mode) build 49521"
  7772                           
  7773  13C7  0837               	movf	(adcReadVcap@value),w
  7774  13C8  2BC9               	goto	l216
  7775                           opt subtitle "HI-TECH Software Omniscient Code Generator (Lite mode) build 49521"
  7776  13C9                     l4625:	
  7777                           opt subtitle "HI-TECH Software Omniscient Code Generator (Lite mode) build 49521"
  7778                           
  7779  13C9                     l216:	
  7780  13C9  0008               	return
  7781                           opt subtitle "HI-TECH Software Omniscient Code Generator (Lite mode) build 49521"
  7782                           
  7783  13CA                     	__end_of_adcReadVcap:
  7784                           opt subtitle "HI-TECH Software Omniscient Code Generator (Lite mode) build 49521"
  7785                           
  7786                           opt pagewidth 120
  7787                           
  7788                           	opt lm
  7789                           
  7790                           	processor	16LF707
  7791                           clrc	macro
  7792                           	bcf	3,0
  7793                           	endm
  7794                           clrz	macro
  7795                           	bcf	3,2
  7796                           	endm
  7797                           setc	macro
  7798                           	bsf	3,0
  7799                           	endm
  7800                           setz	macro
  7801                           	bsf	3,2
  7802                           	endm
  7803                           skipc	macro
  7804                           	btfss	3,0
  7805                           	endm
  7806                           skipz	macro
  7807                           	btfss	3,2
  7808                           	endm
  7809                           skipnc	macro
  7810                           	btfsc	3,0
  7811                           	endm
  7812                           skipnz	macro
  7813                           	btfsc	3,2
  7814                           	endm
  7815                           indf	equ	0
  7816                           indf0	equ	0
  7817                           pc	equ	2
  7818                           pcl	equ	2
  7819                           status	equ	3
  7820                           fsr	equ	4
  7821                           fsr0	equ	4
  7822                           c	equ	1
  7823  134B                     __ptext1294:	;psect for function _SPI_Write_Buf
  7824                           opt subtitle "HI-TECH Software Omniscient Code Generator (Lite mode) build 49521"
  7825                           
  7826                           opt pagewidth 120
  7827                           
  7828  002A                     	__size_of_SPI_Write_Buf	equ	__end_of_SPI_Write_Buf-_SPI_Write_Buf
  7829                           opt subtitle "HI-TECH Software Omniscient Code Generator (Lite mode) build 49521"
  7830  134B                     _SPI_Write_Buf:	
  7831                           opt subtitle "HI-TECH Software Omniscient Code Generator (Lite mode) build 49521"
  7832                           
  7833                           opt pagewidth 120
  7834                           
  7835  134B  1283               	bcf	status, 5	;RP0=0, select bank0
  7836  134C  1303               	bcf	status, 6	;RP1=0, select bank0
  7837  134D  00BB               	movwf	(SPI_Write_Buf@reg)
  7838                           opt subtitle "HI-TECH Software Omniscient Code Generator (Lite mode) build 49521"
  7839  134E                     l4945:	
  7840                           opt subtitle "HI-TECH Software Omniscient Code Generator (Lite mode) build 49521"
  7841                           
  7842  134E  1108               	bcf	(8),2	;volatile
  7843                           opt subtitle "HI-TECH Software Omniscient Code Generator (Lite mode) build 49521"
  7844                           
  7845  134F                     l4947:	
  7846                           opt subtitle "HI-TECH Software Omniscient Code Generator (Lite mode) build 49521"
  7847  134F  083B               	movf	(SPI_Write_Buf@reg),w
  7848  1350  160A  118A  2295   	fcall	_SPI_RW
              160A  118A         
  7849                           opt subtitle "HI-TECH Software Omniscient Code Generator (Lite mode) build 49521"
  7850                           
  7851  1355                     l4949:	
  7852                           opt subtitle "HI-TECH Software Omniscient Code Generator (Lite mode) build 49521"
  7853  1355  1283               	bcf	status, 5	;RP0=0, select bank0
  7854  1356  1303               	bcf	status, 6	;RP1=0, select bank0
  7855  1357  01BC               	clrf	(SPI_Write_Buf@byte_ctr)
  7856  1358  2B6D               	goto	l4957
  7857                           opt subtitle "HI-TECH Software Omniscient Code Generator (Lite mode) build 49521"
  7858                           
  7859  1359                     l331:	
  7860                           opt subtitle "HI-TECH Software Omniscient Code Generator (Lite mode) build 49521"
  7861  1359                     l4951:	
  7862                           opt subtitle "HI-TECH Software Omniscient Code Generator (Lite mode) build 49521"
  7863  1359  0838               	movf	(SPI_Write_Buf@pBuf),w
  7864  135A  0084               	movwf	fsr0
  7865  135B  1383               	bcf	status, 7	;select IRP bank0
  7866  135C  0800               	movf	indf,w
  7867  135D  160A  118A  2295   	fcall	_SPI_RW
              160A  118A         
  7868                           opt subtitle "HI-TECH Software Omniscient Code Generator (Lite mode) build 49521"
  7869  1362                     l4953:	
  7870  1362  3001               	movlw	(01h)
  7871  1363  1283               	bcf	status, 5	;RP0=0, select bank0
  7872  1364  1303               	bcf	status, 6	;RP1=0, select bank0
  7873  1365  00BA               	movwf	(??_SPI_Write_Buf+0)+0
  7874  1366  083A               	movf	(??_SPI_Write_Buf+0)+0,w
  7875  1367  07B8               	addwf	(SPI_Write_Buf@pBuf),f
  7876                           opt subtitle "HI-TECH Software Omniscient Code Generator (Lite mode) build 49521"
  7877                           
  7878  1368                     l4955:	
  7879  1368  3001               	movlw	(01h)
  7880  1369  00BA               	movwf	(??_SPI_Write_Buf+0)+0
  7881  136A  083A               	movf	(??_SPI_Write_Buf+0)+0,w
  7882  136B  07BC               	addwf	(SPI_Write_Buf@byte_ctr),f
  7883  136C  2B6D               	goto	l4957
  7884                           opt subtitle "HI-TECH Software Omniscient Code Generator (Lite mode) build 49521"
  7885  136D                     l330:	
  7886                           opt subtitle "HI-TECH Software Omniscient Code Generator (Lite mode) build 49521"
  7887  136D                     l4957:	
  7888  136D  0839               	movf	(SPI_Write_Buf@length),w
  7889  136E  023C               	subwf	(SPI_Write_Buf@byte_ctr),w
  7890  136F  1C03               	skipc
  7891  1370  2B72               	goto	u4991
  7892  1371  2B73               	goto	u4990
  7893  1372                     u4991:
  7894  1372  2B59               	goto	l4951
  7895  1373                     u4990:
  7896                           opt subtitle "HI-TECH Software Omniscient Code Generator (Lite mode) build 49521"
  7897  1373                     l332:	
  7898                           opt subtitle "HI-TECH Software Omniscient Code Generator (Lite mode) build 49521"
  7899                           
  7900  1373  1508               	bsf	(8),2	;volatile
  7901                           opt subtitle "HI-TECH Software Omniscient Code Generator (Lite mode) build 49521"
  7902                           
  7903  1374                     l333:	
  7904  1374  0008               	return
  7905                           opt subtitle "HI-TECH Software Omniscient Code Generator (Lite mode) build 49521"
  7906                           
  7907  1375                     	__end_of_SPI_Write_Buf:
  7908                           opt subtitle "HI-TECH Software Omniscient Code Generator (Lite mode) build 49521"
  7909                           
  7910                           opt pagewidth 120
  7911                           
  7912                           	opt lm
  7913                           
  7914                           	processor	16LF707
  7915                           clrc	macro
  7916                           	bcf	3,0
  7917                           	endm
  7918                           clrz	macro
  7919                           	bcf	3,2
  7920                           	endm
  7921                           setc	macro
  7922                           	bsf	3,0
  7923                           	endm
  7924                           setz	macro
  7925                           	bsf	3,2
  7926                           	endm
  7927                           skipc	macro
  7928                           	btfss	3,0
  7929                           	endm
  7930                           skipz	macro
  7931                           	btfss	3,2
  7932                           	endm
  7933                           skipnc	macro
  7934                           	btfsc	3,0
  7935                           	endm
  7936                           skipnz	macro
  7937                           	btfsc	3,2
  7938                           	endm
  7939                           indf	equ	0
  7940                           indf0	equ	0
  7941                           pc	equ	2
  7942                           pcl	equ	2
  7943  12E6                     __ptext1295:	;psect for function _rfm70TxDataSentInterrupt
  7944                           opt subtitle "HI-TECH Software Omniscient Code Generator (Lite mode) build 49521"
  7945                           
  7946                           opt pagewidth 120
  7947                           
  7948  001F                     	__size_of_rfm70TxDataSentInterrupt	equ	__end_of_rfm70TxDataSentInterrupt-_rfm70TxDataSe
                                 ntInterrupt
  7949                           opt subtitle "HI-TECH Software Omniscient Code Generator (Lite mode) build 49521"
  7950  12E6                     _rfm70TxDataSentInterrupt:	
  7951                           opt subtitle "HI-TECH Software Omniscient Code Generator (Lite mode) build 49521"
  7952                           
  7953                           opt pagewidth 120
  7954                           
  7955  12E6                     l4959:	
  7956                           opt subtitle "HI-TECH Software Omniscient Code Generator (Lite mode) build 49521"
  7957  12E6  3007               	movlw	(07h)
  7958  12E7  160A  118A  22AE   	fcall	_SPI_Read_Reg
              160A  118A         
  7959  12EC  1283               	bcf	status, 5	;RP0=0, select bank0
  7960  12ED  1303               	bcf	status, 6	;RP1=0, select bank0
  7961  12EE  00BB               	movwf	(??_rfm70TxDataSentInterrupt+0)+0
  7962  12EF  1EBB               	btfss	0+(??_rfm70TxDataSentInterrupt+0)+0,(5)&7
  7963  12F0  2AF2               	goto	u5001
  7964  12F1  2AF3               	goto	u5000
  7965  12F2                     u5001:
  7966  12F2  2B01               	goto	l4969
  7967  12F3                     u5000:
  7968                           opt subtitle "HI-TECH Software Omniscient Code Generator (Lite mode) build 49521"
  7969                           
  7970  12F3                     l4961:	
  7971                           opt subtitle "HI-TECH Software Omniscient Code Generator (Lite mode) build 49521"
  7972  12F3  3020               	movlw	(020h)
  7973  12F4  00BB               	movwf	(??_rfm70TxDataSentInterrupt+0)+0
  7974  12F5  083B               	movf	(??_rfm70TxDataSentInterrupt+0)+0,w
  7975  12F6  00B8               	movwf	(?_SPI_Write_Reg)
  7976  12F7  3027               	movlw	(027h)
  7977  12F8  160A  118A  2251   	fcall	_SPI_Write_Reg
              160A  118A         
  7978                           opt subtitle "HI-TECH Software Omniscient Code Generator (Lite mode) build 49521"
  7979                           
  7980  12FD                     l4963:	
  7981                           opt subtitle "HI-TECH Software Omniscient Code Generator (Lite mode) build 49521"
  7982  12FD  3001               	movlw	(01h)
  7983  12FE  2B04               	goto	l385
  7984                           opt subtitle "HI-TECH Software Omniscient Code Generator (Lite mode) build 49521"
  7985  12FF                     l4965:	
  7986  12FF  2B04               	goto	l385
  7987                           opt subtitle "HI-TECH Software Omniscient Code Generator (Lite mode) build 49521"
  7988                           
  7989  1300                     l4967:	
  7990                           opt subtitle "HI-TECH Software Omniscient Code Generator (Lite mode) build 49521"
  7991  1300  2B04               	goto	l385
  7992                           opt subtitle "HI-TECH Software Omniscient Code Generator (Lite mode) build 49521"
  7993                           
  7994  1301                     l384:	
  7995                           opt subtitle "HI-TECH Software Omniscient Code Generator (Lite mode) build 49521"
  7996                           
  7997  1301                     l4969:	
  7998                           opt subtitle "HI-TECH Software Omniscient Code Generator (Lite mode) build 49521"
  7999                           
  8000  1301  3000               	movlw	(0)
  8001  1302  2B04               	goto	l385
  8002                           opt subtitle "HI-TECH Software Omniscient Code Generator (Lite mode) build 49521"
  8003  1303                     l4971:	
  8004  1303  2B04               	goto	l385
  8005                           opt subtitle "HI-TECH Software Omniscient Code Generator (Lite mode) build 49521"
  8006  1304                     l386:	
  8007                           opt subtitle "HI-TECH Software Omniscient Code Generator (Lite mode) build 49521"
  8008                           
  8009  1304                     l385:	
  8010  1304  0008               	return
  8011                           opt subtitle "HI-TECH Software Omniscient Code Generator (Lite mode) build 49521"
  8012                           
  8013  1305                     	__end_of_rfm70TxDataSentInterrupt:
  8014                           opt subtitle "HI-TECH Software Omniscient Code Generator (Lite mode) build 49521"
  8015                           
  8016                           opt pagewidth 120
  8017                           
  8018                           	opt lm
  8019                           
  8020                           	processor	16LF707
  8021                           clrc	macro
  8022                           	bcf	3,0
  8023                           	endm
  8024                           clrz	macro
  8025                           	bcf	3,2
  8026                           	endm
  8027                           setc	macro
  8028                           	bsf	3,0
  8029                           	endm
  8030                           setz	macro
  8031                           	bsf	3,2
  8032                           	endm
  8033                           skipc	macro
  8034                           	btfss	3,0
  8035                           	endm
  8036                           skipz	macro
  8037                           	btfss	3,2
  8038                           	endm
  8039                           skipnc	macro
  8040                           	btfsc	3,0
  8041                           	endm
  8042                           skipnz	macro
  8043                           	btfsc	3,2
  8044                           	endm
  8045                           indf	equ	0
  8046                           indf0	equ	0
  8047                           pc	equ	2
  8048                           pcl	equ	2
  8049                           status	equ	3
  8050  14B7                     __ptext1296:	;psect for function _SwitchToRxMode
  8051                           opt subtitle "HI-TECH Software Omniscient Code Generator (Lite mode) build 49521"
  8052                           
  8053                           opt pagewidth 120
  8054                           
  8055  003F                     	__size_of_SwitchToRxMode	equ	__end_of_SwitchToRxMode-_SwitchToRxMode
  8056                           opt subtitle "HI-TECH Software Omniscient Code Generator (Lite mode) build 49521"
  8057  14B7                     _SwitchToRxMode:	
  8058                           opt subtitle "HI-TECH Software Omniscient Code Generator (Lite mode) build 49521"
  8059                           
  8060                           opt pagewidth 120
  8061                           
  8062  14B7                     l4973:	
  8063                           opt subtitle "HI-TECH Software Omniscient Code Generator (Lite mode) build 49521"
  8064                           
  8065  14B7  1283               	bcf	status, 5	;RP0=0, select bank0
  8066  14B8  1303               	bcf	status, 6	;RP1=0, select bank0
  8067  14B9  01B8               	clrf	(?_SPI_Write_Reg)
  8068  14BA  30E2               	movlw	(0E2h)
  8069  14BB  160A  118A  2251   	fcall	_SPI_Write_Reg
              160A  118A         
  8070                           opt subtitle "HI-TECH Software Omniscient Code Generator (Lite mode) build 49521"
  8071                           
  8072  14C0  3007               	movlw	(07h)
  8073  14C1  160A  118A  22AE   	fcall	_SPI_Read_Reg
              160A  118A         
  8074  14C6  1283               	bcf	status, 5	;RP0=0, select bank0
  8075  14C7  1303               	bcf	status, 6	;RP1=0, select bank0
  8076  14C8  00BB               	movwf	(??_SwitchToRxMode+0)+0
  8077  14C9  083B               	movf	(??_SwitchToRxMode+0)+0,w
  8078  14CA  00BC               	movwf	(SwitchToRxMode@value)
  8079                           opt subtitle "HI-TECH Software Omniscient Code Generator (Lite mode) build 49521"
  8080                           
  8081  14CB  083C               	movf	(SwitchToRxMode@value),w
  8082  14CC  00BB               	movwf	(??_SwitchToRxMode+0)+0
  8083  14CD  083B               	movf	(??_SwitchToRxMode+0)+0,w
  8084  14CE  00B8               	movwf	(?_SPI_Write_Reg)
  8085  14CF  3027               	movlw	(027h)
  8086  14D0  160A  118A  2251   	fcall	_SPI_Write_Reg
              160A  118A         
  8087                           opt subtitle "HI-TECH Software Omniscient Code Generator (Lite mode) build 49521"
  8088                           
  8089  14D5                     l4975:	
  8090                           opt subtitle "HI-TECH Software Omniscient Code Generator (Lite mode) build 49521"
  8091  14D5  1283               	bcf	status, 5	;RP0=0, select bank0
  8092  14D6  1303               	bcf	status, 6	;RP1=0, select bank0
  8093  14D7  1107               	bcf	(7),2	;volatile
  8094                           opt subtitle "HI-TECH Software Omniscient Code Generator (Lite mode) build 49521"
  8095                           
  8096  14D8  3000               	movlw	(0)
  8097  14D9  160A  118A  22AE   	fcall	_SPI_Read_Reg
              160A  118A         
  8098  14DE  1283               	bcf	status, 5	;RP0=0, select bank0
  8099  14DF  1303               	bcf	status, 6	;RP1=0, select bank0
  8100  14E0  00BB               	movwf	(??_SwitchToRxMode+0)+0
  8101  14E1  083B               	movf	(??_SwitchToRxMode+0)+0,w
  8102  14E2  00BC               	movwf	(SwitchToRxMode@value)
  8103                           opt subtitle "HI-TECH Software Omniscient Code Generator (Lite mode) build 49521"
  8104                           
  8105  14E3                     l4977:	
  8106                           opt subtitle "HI-TECH Software Omniscient Code Generator (Lite mode) build 49521"
  8107  14E3  083C               	movf	(SwitchToRxMode@value),w
  8108  14E4  3801               	iorlw	01h
  8109  14E5  00BB               	movwf	(??_SwitchToRxMode+0)+0
  8110  14E6  083B               	movf	(??_SwitchToRxMode+0)+0,w
  8111  14E7  00BC               	movwf	(SwitchToRxMode@value)
  8112                           opt subtitle "HI-TECH Software Omniscient Code Generator (Lite mode) build 49521"
  8113                           
  8114  14E8                     l4979:	
  8115                           opt subtitle "HI-TECH Software Omniscient Code Generator (Lite mode) build 49521"
  8116  14E8  083C               	movf	(SwitchToRxMode@value),w
  8117  14E9  00BB               	movwf	(??_SwitchToRxMode+0)+0
  8118  14EA  083B               	movf	(??_SwitchToRxMode+0)+0,w
  8119  14EB  00B8               	movwf	(?_SPI_Write_Reg)
  8120  14EC  3020               	movlw	(020h)
  8121  14ED  160A  118A  2251   	fcall	_SPI_Write_Reg
              160A  118A         
  8122                           opt subtitle "HI-TECH Software Omniscient Code Generator (Lite mode) build 49521"
  8123                           
  8124  14F2                     l4981:	
  8125                           opt subtitle "HI-TECH Software Omniscient Code Generator (Lite mode) build 49521"
  8126  14F2  1283               	bcf	status, 5	;RP0=0, select bank0
  8127  14F3  1303               	bcf	status, 6	;RP1=0, select bank0
  8128  14F4  1507               	bsf	(7),2	;volatile
  8129                           opt subtitle "HI-TECH Software Omniscient Code Generator (Lite mode) build 49521"
  8130                           
  8131  14F5                     l336:	
  8132  14F5  0008               	return
  8133                           opt subtitle "HI-TECH Software Omniscient Code Generator (Lite mode) build 49521"
  8134                           
  8135  14F6                     	__end_of_SwitchToRxMode:
  8136                           opt subtitle "HI-TECH Software Omniscient Code Generator (Lite mode) build 49521"
  8137                           
  8138                           opt pagewidth 120
  8139                           
  8140                           	opt lm
  8141                           
  8142                           	processor	16LF707
  8143                           clrc	macro
  8144                           	bcf	3,0
  8145                           	endm
  8146                           clrz	macro
  8147                           	bcf	3,2
  8148                           	endm
  8149                           setc	macro
  8150                           	bsf	3,0
  8151                           	endm
  8152                           setz	macro
  8153                           	bsf	3,2
  8154                           	endm
  8155                           skipc	macro
  8156                           	btfss	3,0
  8157                           	endm
  8158                           skipz	macro
  8159                           	btfss	3,2
  8160                           	endm
  8161                           skipnc	macro
  8162                           	btfsc	3,0
  8163                           	endm
  8164                           skipnz	macro
  8165                           	btfsc	3,2
  8166                           	endm
  8167                           indf	equ	0
  8168                           indf0	equ	0
  8169                           pc	equ	2
  8170                           pcl	equ	2
  8171  12C7                     __ptext1297:	;psect for function _rfm70TxDataSentErrorInterrupt
  8172                           opt subtitle "HI-TECH Software Omniscient Code Generator (Lite mode) build 49521"
  8173                           
  8174                           opt pagewidth 120
  8175                           
  8176  001F                     	__size_of_rfm70TxDataSentErrorInterrupt	equ	__end_of_rfm70TxDataSentErrorInterrupt-_rfm
                                 70TxDataSentErrorInterrupt
  8177                           opt subtitle "HI-TECH Software Omniscient Code Generator (Lite mode) build 49521"
  8178  12C7                     _rfm70TxDataSentErrorInterrupt:	
  8179                           opt subtitle "HI-TECH Software Omniscient Code Generator (Lite mode) build 49521"
  8180                           
  8181                           opt pagewidth 120
  8182                           
  8183  12C7                     l4983:	
  8184                           opt subtitle "HI-TECH Software Omniscient Code Generator (Lite mode) build 49521"
  8185  12C7  3007               	movlw	(07h)
  8186  12C8  160A  118A  22AE   	fcall	_SPI_Read_Reg
              160A  118A         
  8187  12CD  1283               	bcf	status, 5	;RP0=0, select bank0
  8188  12CE  1303               	bcf	status, 6	;RP1=0, select bank0
  8189  12CF  00BB               	movwf	(??_rfm70TxDataSentErrorInterrupt+0)+0
  8190  12D0  1EBB               	btfss	0+(??_rfm70TxDataSentErrorInterrupt+0)+0,(5)&7
  8191  12D1  2AD3               	goto	u5011
  8192  12D2  2AD4               	goto	u5010
  8193  12D3                     u5011:
  8194  12D3  2AE2               	goto	l4993
  8195  12D4                     u5010:
  8196                           opt subtitle "HI-TECH Software Omniscient Code Generator (Lite mode) build 49521"
  8197                           
  8198  12D4                     l4985:	
  8199                           opt subtitle "HI-TECH Software Omniscient Code Generator (Lite mode) build 49521"
  8200  12D4  3010               	movlw	(010h)
  8201  12D5  00BB               	movwf	(??_rfm70TxDataSentErrorInterrupt+0)+0
  8202  12D6  083B               	movf	(??_rfm70TxDataSentErrorInterrupt+0)+0,w
  8203  12D7  00B8               	movwf	(?_SPI_Write_Reg)
  8204  12D8  3027               	movlw	(027h)
  8205  12D9  160A  118A  2251   	fcall	_SPI_Write_Reg
              160A  118A         
  8206                           opt subtitle "HI-TECH Software Omniscient Code Generator (Lite mode) build 49521"
  8207                           
  8208  12DE                     l4987:	
  8209                           opt subtitle "HI-TECH Software Omniscient Code Generator (Lite mode) build 49521"
  8210  12DE  3001               	movlw	(01h)
  8211  12DF  2AE5               	goto	l390
  8212                           opt subtitle "HI-TECH Software Omniscient Code Generator (Lite mode) build 49521"
  8213  12E0                     l4989:	
  8214  12E0  2AE5               	goto	l390
  8215                           opt subtitle "HI-TECH Software Omniscient Code Generator (Lite mode) build 49521"
  8216                           
  8217  12E1                     l4991:	
  8218                           opt subtitle "HI-TECH Software Omniscient Code Generator (Lite mode) build 49521"
  8219  12E1  2AE5               	goto	l390
  8220                           opt subtitle "HI-TECH Software Omniscient Code Generator (Lite mode) build 49521"
  8221                           
  8222  12E2                     l389:	
  8223                           opt subtitle "HI-TECH Software Omniscient Code Generator (Lite mode) build 49521"
  8224                           
  8225  12E2                     l4993:	
  8226                           opt subtitle "HI-TECH Software Omniscient Code Generator (Lite mode) build 49521"
  8227                           
  8228  12E2  3000               	movlw	(0)
  8229  12E3  2AE5               	goto	l390
  8230                           opt subtitle "HI-TECH Software Omniscient Code Generator (Lite mode) build 49521"
  8231  12E4                     l4995:	
  8232  12E4  2AE5               	goto	l390
  8233                           opt subtitle "HI-TECH Software Omniscient Code Generator (Lite mode) build 49521"
  8234  12E5                     l391:	
  8235                           opt subtitle "HI-TECH Software Omniscient Code Generator (Lite mode) build 49521"
  8236                           
  8237  12E5                     l390:	
  8238  12E5  0008               	return
  8239                           opt subtitle "HI-TECH Software Omniscient Code Generator (Lite mode) build 49521"
  8240                           
  8241  12E6                     	__end_of_rfm70TxDataSentErrorInterrupt:
  8242                           opt subtitle "HI-TECH Software Omniscient Code Generator (Lite mode) build 49521"
  8243                           
  8244                           opt pagewidth 120
  8245                           
  8246                           	opt lm
  8247                           
  8248                           	processor	16LF707
  8249                           clrc	macro
  8250                           	bcf	3,0
  8251                           	endm
  8252                           clrz	macro
  8253                           	bcf	3,2
  8254                           	endm
  8255                           setc	macro
  8256                           	bsf	3,0
  8257                           	endm
  8258                           setz	macro
  8259                           	bsf	3,2
  8260                           	endm
  8261                           skipc	macro
  8262                           	btfss	3,0
  8263                           	endm
  8264                           skipz	macro
  8265                           	btfss	3,2
  8266                           	endm
  8267                           skipnc	macro
  8268                           	btfsc	3,0
  8269                           	endm
  8270                           skipnz	macro
  8271                           	btfsc	3,2
  8272                           	endm
  8273                           indf	equ	0
  8274                           indf0	equ	0
  8275                           pc	equ	2
  8276                           pcl	equ	2
  8277                           status	equ	3
  8278  1485                     __ptext1298:	;psect for function _SwitchCFG
  8279                           opt subtitle "HI-TECH Software Omniscient Code Generator (Lite mode) build 49521"
  8280                           
  8281                           opt pagewidth 120
  8282                           
  8283  0032                     	__size_of_SwitchCFG	equ	__end_of_SwitchCFG-_SwitchCFG
  8284                           opt subtitle "HI-TECH Software Omniscient Code Generator (Lite mode) build 49521"
  8285  1485                     _SwitchCFG:	
  8286                           opt subtitle "HI-TECH Software Omniscient Code Generator (Lite mode) build 49521"
  8287                           
  8288                           opt pagewidth 120
  8289                           
  8290  1485  1283               	bcf	status, 5	;RP0=0, select bank0
  8291  1486  1303               	bcf	status, 6	;RP1=0, select bank0
  8292  1487  00BC               	movwf	(SwitchCFG@_cfg)
  8293                           opt subtitle "HI-TECH Software Omniscient Code Generator (Lite mode) build 49521"
  8294  1488                     l5067:	
  8295                           opt subtitle "HI-TECH Software Omniscient Code Generator (Lite mode) build 49521"
  8296                           
  8297  1488  3007               	movlw	(07h)
  8298  1489  160A  118A  22AE   	fcall	_SPI_Read_Reg
              160A  118A         
  8299  148E  1283               	bcf	status, 5	;RP0=0, select bank0
  8300  148F  1303               	bcf	status, 6	;RP1=0, select bank0
  8301  1490  00BB               	movwf	(??_SwitchCFG+0)+0
  8302  1491  083B               	movf	(??_SwitchCFG+0)+0,w
  8303  1492  00BD               	movwf	(SwitchCFG@Tmp)
  8304                           opt subtitle "HI-TECH Software Omniscient Code Generator (Lite mode) build 49521"
  8305                           
  8306  1493                     l5069:	
  8307                           opt subtitle "HI-TECH Software Omniscient Code Generator (Lite mode) build 49521"
  8308  1493  083D               	movf	(SwitchCFG@Tmp),w
  8309  1494  3980               	andlw	080h
  8310  1495  00BB               	movwf	(??_SwitchCFG+0)+0
  8311  1496  083B               	movf	(??_SwitchCFG+0)+0,w
  8312  1497  00BD               	movwf	(SwitchCFG@Tmp)
  8313                           opt subtitle "HI-TECH Software Omniscient Code Generator (Lite mode) build 49521"
  8314                           
  8315  1498                     l5071:	
  8316                           opt subtitle "HI-TECH Software Omniscient Code Generator (Lite mode) build 49521"
  8317                           
  8318  1498  083D               	movf	(SwitchCFG@Tmp),w
  8319  1499  1D03               	skipz
  8320  149A  2C9C               	goto	u5090
  8321  149B  2CA1               	goto	l5075
  8322  149C                     u5090:
  8323                           opt subtitle "HI-TECH Software Omniscient Code Generator (Lite mode) build 49521"
  8324  149C                     l5073:	
  8325  149C  083C               	movf	(SwitchCFG@_cfg),w
  8326  149D  1D03               	skipz
  8327  149E  2CA0               	goto	u5100
  8328  149F  2CAB               	goto	l5079
  8329  14A0                     u5100:
  8330  14A0  2CA1               	goto	l5075
  8331                           opt subtitle "HI-TECH Software Omniscient Code Generator (Lite mode) build 49521"
  8332  14A1                     l346:	
  8333                           opt subtitle "HI-TECH Software Omniscient Code Generator (Lite mode) build 49521"
  8334  14A1                     l5075:	
  8335  14A1  08BD               	movf	(SwitchCFG@Tmp),f
  8336  14A2  1D03               	skipz
  8337  14A3  2CA5               	goto	u5111
  8338  14A4  2CA6               	goto	u5110
  8339  14A5                     u5111:
  8340  14A5  2CB6               	goto	l347
  8341  14A6                     u5110:
  8342                           opt subtitle "HI-TECH Software Omniscient Code Generator (Lite mode) build 49521"
  8343  14A6                     l5077:	
  8344  14A6  083C               	movf	(SwitchCFG@_cfg),w
  8345  14A7  1D03               	skipz
  8346  14A8  2CAA               	goto	u5120
  8347  14A9  2CB6               	goto	l347
  8348  14AA                     u5120:
  8349  14AA  2CAB               	goto	l5079
  8350                           opt subtitle "HI-TECH Software Omniscient Code Generator (Lite mode) build 49521"
  8351  14AB                     l344:	
  8352                           opt subtitle "HI-TECH Software Omniscient Code Generator (Lite mode) build 49521"
  8353                           
  8354  14AB                     l5079:	
  8355                           opt subtitle "HI-TECH Software Omniscient Code Generator (Lite mode) build 49521"
  8356                           
  8357  14AB  3053               	movlw	(053h)
  8358  14AC  00BB               	movwf	(??_SwitchCFG+0)+0
  8359  14AD  083B               	movf	(??_SwitchCFG+0)+0,w
  8360  14AE  00B8               	movwf	(?_SPI_Write_Reg)
  8361  14AF  3050               	movlw	(050h)
  8362  14B0  160A  118A  2251   	fcall	_SPI_Write_Reg
              160A  118A         
  8363  14B5  2CB6               	goto	l347
  8364                           opt subtitle "HI-TECH Software Omniscient Code Generator (Lite mode) build 49521"
  8365                           
  8366  14B6                     l342:	
  8367                           opt subtitle "HI-TECH Software Omniscient Code Generator (Lite mode) build 49521"
  8368                           
  8369  14B6                     l347:	
  8370  14B6  0008               	return
  8371                           opt subtitle "HI-TECH Software Omniscient Code Generator (Lite mode) build 49521"
  8372                           
  8373  14B7                     	__end_of_SwitchCFG:
  8374                           opt subtitle "HI-TECH Software Omniscient Code Generator (Lite mode) build 49521"
  8375                           
  8376                           opt pagewidth 120
  8377                           
  8378                           	opt lm
  8379                           
  8380                           	processor	16LF707
  8381                           clrc	macro
  8382                           	bcf	3,0
  8383                           	endm
  8384                           clrz	macro
  8385                           	bcf	3,2
  8386                           	endm
  8387                           setc	macro
  8388                           	bsf	3,0
  8389                           	endm
  8390                           setz	macro
  8391                           	bsf	3,2
  8392                           	endm
  8393                           skipc	macro
  8394                           	btfss	3,0
  8395                           	endm
  8396                           skipz	macro
  8397                           	btfss	3,2
  8398                           	endm
  8399                           skipnc	macro
  8400                           	btfsc	3,0
  8401                           	endm
  8402                           skipnz	macro
  8403                           	btfsc	3,2
  8404                           	endm
  8405                           indf	equ	0
  8406                           indf0	equ	0
  8407                           pc	equ	2
  8408                           pcl	equ	2
  8409                           status	equ	3
  8410                           fsr	equ	4
  8411                           fsr0	equ	4
  8412                           c	equ	1
  8413                           z	equ	0
  8414                           pclath	equ	10
  8415                           # 46 "/Applications/microchip/xc8/v1.12/include/pic16lf707.h"
  8416                           INDF equ 00h ;# 
  8417                           # 52 "/Applications/microchip/xc8/v1.12/include/pic16lf707.h"
  8418  12AE                     __ptext1299:	;psect for function _SPI_Read_Reg
  8419                           opt subtitle "HI-TECH Software Omniscient Code Generator (Lite mode) build 49521"
  8420                           
  8421                           opt pagewidth 120
  8422                           
  8423  0019                     	__size_of_SPI_Read_Reg	equ	__end_of_SPI_Read_Reg-_SPI_Read_Reg
  8424                           opt subtitle "HI-TECH Software Omniscient Code Generator (Lite mode) build 49521"
  8425  12AE                     _SPI_Read_Reg:	
  8426                           opt subtitle "HI-TECH Software Omniscient Code Generator (Lite mode) build 49521"
  8427                           
  8428                           opt pagewidth 120
  8429                           
  8430  12AE  1283               	bcf	status, 5	;RP0=0, select bank0
  8431  12AF  1303               	bcf	status, 6	;RP1=0, select bank0
  8432  12B0  00B9               	movwf	(SPI_Read_Reg@reg)
  8433                           opt subtitle "HI-TECH Software Omniscient Code Generator (Lite mode) build 49521"
  8434  12B1                     l4933:	
  8435                           opt subtitle "HI-TECH Software Omniscient Code Generator (Lite mode) build 49521"
  8436                           
  8437  12B1  1108               	bcf	(8),2	;volatile
  8438                           opt subtitle "HI-TECH Software Omniscient Code Generator (Lite mode) build 49521"
  8439                           
  8440  12B2                     l4935:	
  8441                           opt subtitle "HI-TECH Software Omniscient Code Generator (Lite mode) build 49521"
  8442  12B2  0839               	movf	(SPI_Read_Reg@reg),w
  8443  12B3  160A  118A  2295   	fcall	_SPI_RW
              160A  118A         
  8444                           opt subtitle "HI-TECH Software Omniscient Code Generator (Lite mode) build 49521"
  8445                           
  8446  12B8                     l4937:	
  8447                           opt subtitle "HI-TECH Software Omniscient Code Generator (Lite mode) build 49521"
  8448  12B8  3000               	movlw	(0)
  8449  12B9  160A  118A  2295   	fcall	_SPI_RW
              160A  118A         
  8450  12BE  1283               	bcf	status, 5	;RP0=0, select bank0
  8451  12BF  1303               	bcf	status, 6	;RP1=0, select bank0
  8452  12C0  00B8               	movwf	(??_SPI_Read_Reg+0)+0
  8453  12C1  0838               	movf	(??_SPI_Read_Reg+0)+0,w
  8454  12C2  00BA               	movwf	(SPI_Read_Reg@value)
  8455                           opt subtitle "HI-TECH Software Omniscient Code Generator (Lite mode) build 49521"
  8456                           
  8457  12C3                     l4939:	
  8458                           opt subtitle "HI-TECH Software Omniscient Code Generator (Lite mode) build 49521"
  8459  12C3  1508               	bsf	(8),2	;volatile
  8460                           opt subtitle "HI-TECH Software Omniscient Code Generator (Lite mode) build 49521"
  8461                           
  8462  12C4                     l4941:	
  8463                           opt subtitle "HI-TECH Software Omniscient Code Generator (Lite mode) build 49521"
  8464  12C4  083A               	movf	(SPI_Read_Reg@value),w
  8465  12C5  2AC6               	goto	l321
  8466                           opt subtitle "HI-TECH Software Omniscient Code Generator (Lite mode) build 49521"
  8467  12C6                     l4943:	
  8468                           opt subtitle "HI-TECH Software Omniscient Code Generator (Lite mode) build 49521"
  8469                           
  8470  12C6                     l321:	
  8471  12C6  0008               	return
  8472                           opt subtitle "HI-TECH Software Omniscient Code Generator (Lite mode) build 49521"
  8473                           
  8474  12C7                     	__end_of_SPI_Read_Reg:
  8475                           opt subtitle "HI-TECH Software Omniscient Code Generator (Lite mode) build 49521"
  8476                           
  8477                           opt pagewidth 120
  8478                           
  8479                           	opt lm
  8480                           
  8481                           	processor	16LF707
  8482                           clrc	macro
  8483                           	bcf	3,0
  8484                           	endm
  8485                           clrz	macro
  8486                           	bcf	3,2
  8487                           	endm
  8488                           setc	macro
  8489                           	bsf	3,0
  8490                           	endm
  8491                           setz	macro
  8492                           	bsf	3,2
  8493                           	endm
  8494                           skipc	macro
  8495                           	btfss	3,0
  8496                           	endm
  8497                           skipz	macro
  8498                           	btfss	3,2
  8499                           	endm
  8500                           skipnc	macro
  8501                           	btfsc	3,0
  8502                           	endm
  8503                           skipnz	macro
  8504                           	btfsc	3,2
  8505                           	endm
  8506                           indf	equ	0
  8507                           indf0	equ	0
  8508                           pc	equ	2
  8509                           pcl	equ	2
  8510                           status	equ	3
  8511                           fsr	equ	4
  8512                           fsr0	equ	4
  8513                           c	equ	1
  8514                           z	equ	0
  8515                           pclath	equ	10
  8516                           # 46 "/Applications/microchip/xc8/v1.12/include/pic16lf707.h"
  8517                           INDF equ 00h ;# 
  8518                           # 52 "/Applications/microchip/xc8/v1.12/include/pic16lf707.h"
  8519  1251                     __ptext1300:	;psect for function _SPI_Write_Reg
  8520                           opt subtitle "HI-TECH Software Omniscient Code Generator (Lite mode) build 49521"
  8521                           
  8522                           opt pagewidth 120
  8523                           
  8524  0016                     	__size_of_SPI_Write_Reg	equ	__end_of_SPI_Write_Reg-_SPI_Write_Reg
  8525                           opt subtitle "HI-TECH Software Omniscient Code Generator (Lite mode) build 49521"
  8526  1251                     _SPI_Write_Reg:	
  8527                           opt subtitle "HI-TECH Software Omniscient Code Generator (Lite mode) build 49521"
  8528                           
  8529                           opt pagewidth 120
  8530  1251  1283               	bcf	status, 5	;RP0=0, select bank0
  8531  1252  1303               	bcf	status, 6	;RP1=0, select bank0
  8532  1253  00B9               	movwf	(SPI_Write_Reg@reg)
  8533                           opt subtitle "HI-TECH Software Omniscient Code Generator (Lite mode) build 49521"
  8534                           
  8535  1254                     l5055:	
  8536                           opt subtitle "HI-TECH Software Omniscient Code Generator (Lite mode) build 49521"
  8537  1254  1108               	bcf	(8),2	;volatile
  8538                           opt subtitle "HI-TECH Software Omniscient Code Generator (Lite mode) build 49521"
  8539                           
  8540  1255                     l5057:	
  8541                           opt subtitle "HI-TECH Software Omniscient Code Generator (Lite mode) build 49521"
  8542  1255  0839               	movf	(SPI_Write_Reg@reg),w
  8543  1256  160A  118A  2295   	fcall	_SPI_RW
              160A  118A         
  8544                           opt subtitle "HI-TECH Software Omniscient Code Generator (Lite mode) build 49521"
  8545                           
  8546  125B  1283               	bcf	status, 5	;RP0=0, select bank0
  8547  125C  1303               	bcf	status, 6	;RP1=0, select bank0
  8548  125D  0838               	movf	(SPI_Write_Reg@value),w
  8549  125E  160A  118A  2295   	fcall	_SPI_RW
              160A  118A         
  8550                           opt subtitle "HI-TECH Software Omniscient Code Generator (Lite mode) build 49521"
  8551                           
  8552  1263                     l5059:	
  8553                           opt subtitle "HI-TECH Software Omniscient Code Generator (Lite mode) build 49521"
  8554  1263  1283               	bcf	status, 5	;RP0=0, select bank0
  8555  1264  1303               	bcf	status, 6	;RP1=0, select bank0
  8556  1265  1508               	bsf	(8),2	;volatile
  8557                           opt subtitle "HI-TECH Software Omniscient Code Generator (Lite mode) build 49521"
  8558                           
  8559  1266                     l318:	
  8560  1266  0008               	return
  8561                           opt subtitle "HI-TECH Software Omniscient Code Generator (Lite mode) build 49521"
  8562                           
  8563  1267                     	__end_of_SPI_Write_Reg:
  8564                           opt subtitle "HI-TECH Software Omniscient Code Generator (Lite mode) build 49521"
  8565                           
  8566                           opt pagewidth 120
  8567                           
  8568                           	opt lm
  8569                           
  8570                           	processor	16LF707
  8571                           clrc	macro
  8572                           	bcf	3,0
  8573                           	endm
  8574                           clrz	macro
  8575                           	bcf	3,2
  8576                           	endm
  8577                           setc	macro
  8578                           	bsf	3,0
  8579                           	endm
  8580                           setz	macro
  8581                           	bsf	3,2
  8582                           	endm
  8583                           skipc	macro
  8584                           	btfss	3,0
  8585                           	endm
  8586                           skipz	macro
  8587                           	btfss	3,2
  8588                           	endm
  8589                           skipnc	macro
  8590                           	btfsc	3,0
  8591                           	endm
  8592                           skipnz	macro
  8593                           	btfsc	3,2
  8594                           	endm
  8595                           indf	equ	0
  8596                           indf0	equ	0
  8597                           pc	equ	2
  8598                           pcl	equ	2
  8599                           status	equ	3
  8600                           fsr	equ	4
  8601  1295                     __ptext1301:	;psect for function _SPI_RW
  8602                           opt subtitle "HI-TECH Software Omniscient Code Generator (Lite mode) build 49521"
  8603                           
  8604                           opt pagewidth 120
  8605                           
  8606  0019                     	__size_of_SPI_RW	equ	__end_of_SPI_RW-_SPI_RW
  8607                           opt subtitle "HI-TECH Software Omniscient Code Generator (Lite mode) build 49521"
  8608  1295                     _SPI_RW:	
  8609                           opt subtitle "HI-TECH Software Omniscient Code Generator (Lite mode) build 49521"
  8610                           
  8611                           opt pagewidth 120
  8612  1295  1283               	bcf	status, 5	;RP0=0, select bank0
  8613  1296  1303               	bcf	status, 6	;RP1=0, select bank0
  8614  1297  00B7               	movwf	(SPI_RW@value)
  8615                           opt subtitle "HI-TECH Software Omniscient Code Generator (Lite mode) build 49521"
  8616                           
  8617  1298                     l5061:	
  8618                           opt subtitle "HI-TECH Software Omniscient Code Generator (Lite mode) build 49521"
  8619  1298  0837               	movf	(SPI_RW@value),w
  8620  1299  0093               	movwf	(19)	;volatile
  8621                           opt subtitle "HI-TECH Software Omniscient Code Generator (Lite mode) build 49521"
  8622                           
  8623                           opt pagewidth 120
  8624  129A  3003               movlw	3
  8625  129B  00B6               movwf	((??_SPI_RW+0)+0+1),f
  8626  129C  3097               	movlw	151
  8627  129D  00B5               movwf	((??_SPI_RW+0)+0),f
  8628  129E                     u5977:
  8629  129E  0BB5               	decfsz	((??_SPI_RW+0)+0),f
  8630  129F  2A9E               	goto	u5977
  8631  12A0  0BB6               	decfsz	((??_SPI_RW+0)+0+1),f
  8632  12A1  2A9E               	goto	u5977
  8633  12A2  2AA3               	nop2
  8634                           opt subtitle "HI-TECH Software Omniscient Code Generator (Lite mode) build 49521"
  8635                           
  8636                           opt pagewidth 120
  8637                           
  8638  12A3  2AA4               	goto	l312
  8639                           opt subtitle "HI-TECH Software Omniscient Code Generator (Lite mode) build 49521"
  8640  12A4                     l313:	
  8641                           opt subtitle "HI-TECH Software Omniscient Code Generator (Lite mode) build 49521"
  8642  12A4                     l312:	
  8643  12A4  1283               	bcf	status, 5	;RP0=0, select bank0
  8644  12A5  1303               	bcf	status, 6	;RP1=0, select bank0
  8645  12A6  1D8C               	btfss	(12),3	;volatile
  8646  12A7  2AA9               	goto	u5081
  8647  12A8  2AAA               	goto	u5080
  8648  12A9                     u5081:
  8649  12A9  2AA4               	goto	l312
  8650  12AA                     u5080:
  8651  12AA  2AAB               	goto	l5063
  8652                           opt subtitle "HI-TECH Software Omniscient Code Generator (Lite mode) build 49521"
  8653  12AB                     l314:	
  8654                           opt subtitle "HI-TECH Software Omniscient Code Generator (Lite mode) build 49521"
  8655                           
  8656  12AB                     l5063:	
  8657                           opt subtitle "HI-TECH Software Omniscient Code Generator (Lite mode) build 49521"
  8658  12AB  0813               	movf	(19),w	;volatile
  8659  12AC  2AAD               	goto	l315
  8660                           opt subtitle "HI-TECH Software Omniscient Code Generator (Lite mode) build 49521"
  8661  12AD                     l5065:	
  8662                           opt subtitle "HI-TECH Software Omniscient Code Generator (Lite mode) build 49521"
  8663                           
  8664  12AD                     l315:	
  8665  12AD  0008               	return
  8666                           opt subtitle "HI-TECH Software Omniscient Code Generator (Lite mode) build 49521"
  8667                           
  8668  12AE                     	__end_of_SPI_RW:
  8669                           opt subtitle "HI-TECH Software Omniscient Code Generator (Lite mode) build 49521"
  8670                           
  8671                           opt pagewidth 120
  8672                           
  8673                           	opt lm
  8674                           
  8675                           	processor	16LF707
  8676                           clrc	macro
  8677                           	bcf	3,0
  8678                           	endm
  8679                           clrz	macro
  8680                           	bcf	3,2
  8681                           	endm
  8682                           setc	macro
  8683                           	bsf	3,0
  8684                           	endm
  8685                           setz	macro
  8686                           	bsf	3,2
  8687                           	endm
  8688                           skipc	macro
  8689                           	btfss	3,0
  8690                           	endm
  8691                           skipz	macro
  8692                           	btfss	3,2
  8693                           	endm
  8694                           skipnc	macro
  8695                           	btfsc	3,0
  8696                           	endm
  8697                           skipnz	macro
  8698                           	btfsc	3,2
  8699                           	endm
  8700                           indf	equ	0
  8701                           indf0	equ	0
  8702                           pc	equ	2
  8703                           pcl	equ	2
  8704                           status	equ	3
  8705                           fsr	equ	4
  8706                           fsr0	equ	4
  8707  09FE                     __ptext1302:	;psect for function ___ftmul
  8708                           opt subtitle "HI-TECH Software Omniscient Code Generator (Lite mode) build 49521"
  8709                           
  8710                           opt pagewidth 120
  8711                           
  8712  00EE                     	__size_of___ftmul	equ	__end_of___ftmul-___ftmul
  8713                           opt subtitle "HI-TECH Software Omniscient Code Generator (Lite mode) build 49521"
  8714  09FE                     ___ftmul:	
  8715                           opt subtitle "HI-TECH Software Omniscient Code Generator (Lite mode) build 49521"
  8716                           
  8717                           opt pagewidth 120
  8718                           
  8719  09FE                     l5223:	
  8720  09FE  1283               	bcf	status, 5	;RP0=0, select bank0
  8721  09FF  1303               	bcf	status, 6	;RP1=0, select bank0
  8722  0A00  083D               	movf	(___ftmul@f1),w
  8723  0A01  00C3               	movwf	((??___ftmul+0)+0)
  8724  0A02  083E               	movf	(___ftmul@f1+1),w
  8725  0A03  00C4               	movwf	((??___ftmul+0)+0+1)
  8726  0A04  083F               	movf	(___ftmul@f1+2),w
  8727  0A05  00C5               	movwf	((??___ftmul+0)+0+2)
  8728  0A06  1003               	clrc
  8729  0A07  0D44               	rlf	(??___ftmul+0)+1,w
  8730  0A08  0D45               	rlf	(??___ftmul+0)+2,w
  8731  0A09  00C6               	movwf	(??___ftmul+3)+0
  8732  0A0A  0846               	movf	(??___ftmul+3)+0,w
  8733  0A0B  00C7               	movwf	(___ftmul@exp)
  8734  0A0C  08C7               	movf	((___ftmul@exp)),f
  8735  0A0D  1D03               	skipz
  8736  0A0E  2A10               	goto	u5501
  8737  0A0F  2A11               	goto	u5500
  8738  0A10                     u5501:
  8739  0A10  2A19               	goto	l5229
  8740  0A11                     u5500:
  8741                           opt subtitle "HI-TECH Software Omniscient Code Generator (Lite mode) build 49521"
  8742                           
  8743  0A11                     l5225:	
  8744  0A11  3000               	movlw	0x0
  8745  0A12  00BD               	movwf	(?___ftmul)
  8746  0A13  3000               	movlw	0x0
  8747  0A14  00BE               	movwf	(?___ftmul+1)
  8748  0A15  3000               	movlw	0x0
  8749  0A16  00BF               	movwf	(?___ftmul+2)
  8750  0A17  2AEB               	goto	l556
  8751                           opt subtitle "HI-TECH Software Omniscient Code Generator (Lite mode) build 49521"
  8752  0A18                     l5227:	
  8753  0A18  2AEB               	goto	l556
  8754                           opt subtitle "HI-TECH Software Omniscient Code Generator (Lite mode) build 49521"
  8755  0A19                     l555:	
  8756                           opt subtitle "HI-TECH Software Omniscient Code Generator (Lite mode) build 49521"
  8757                           
  8758  0A19                     l5229:	
  8759  0A19  0840               	movf	(___ftmul@f2),w
  8760  0A1A  00C3               	movwf	((??___ftmul+0)+0)
  8761  0A1B  0841               	movf	(___ftmul@f2+1),w
  8762  0A1C  00C4               	movwf	((??___ftmul+0)+0+1)
  8763  0A1D  0842               	movf	(___ftmul@f2+2),w
  8764  0A1E  00C5               	movwf	((??___ftmul+0)+0+2)
  8765  0A1F  1003               	clrc
  8766  0A20  0D44               	rlf	(??___ftmul+0)+1,w
  8767  0A21  0D45               	rlf	(??___ftmul+0)+2,w
  8768  0A22  00C6               	movwf	(??___ftmul+3)+0
  8769  0A23  0846               	movf	(??___ftmul+3)+0,w
  8770  0A24  00CC               	movwf	(___ftmul@sign)
  8771  0A25  08CC               	movf	((___ftmul@sign)),f
  8772  0A26  1D03               	skipz
  8773  0A27  2A29               	goto	u5511
  8774  0A28  2A2A               	goto	u5510
  8775  0A29                     u5511:
  8776  0A29  2A32               	goto	l5235
  8777  0A2A                     u5510:
  8778                           opt subtitle "HI-TECH Software Omniscient Code Generator (Lite mode) build 49521"
  8779                           
  8780  0A2A                     l5231:	
  8781  0A2A  3000               	movlw	0x0
  8782  0A2B  00BD               	movwf	(?___ftmul)
  8783  0A2C  3000               	movlw	0x0
  8784  0A2D  00BE               	movwf	(?___ftmul+1)
  8785  0A2E  3000               	movlw	0x0
  8786  0A2F  00BF               	movwf	(?___ftmul+2)
  8787  0A30  2AEB               	goto	l556
  8788                           opt subtitle "HI-TECH Software Omniscient Code Generator (Lite mode) build 49521"
  8789  0A31                     l5233:	
  8790  0A31  2AEB               	goto	l556
  8791                           opt subtitle "HI-TECH Software Omniscient Code Generator (Lite mode) build 49521"
  8792  0A32                     l557:	
  8793                           opt subtitle "HI-TECH Software Omniscient Code Generator (Lite mode) build 49521"
  8794                           
  8795  0A32                     l5235:	
  8796  0A32  084C               	movf	(___ftmul@sign),w
  8797  0A33  3E7B               	addlw	07Bh
  8798  0A34  00C3               	movwf	(??___ftmul+0)+0
  8799  0A35  0843               	movf	(??___ftmul+0)+0,w
  8800  0A36  07C7               	addwf	(___ftmul@exp),f
  8801                           opt subtitle "HI-TECH Software Omniscient Code Generator (Lite mode) build 49521"
  8802  0A37  083D               	movf	(___ftmul@f1),w
  8803  0A38  00C3               	movwf	((??___ftmul+0)+0)
  8804  0A39  083E               	movf	(___ftmul@f1+1),w
  8805  0A3A  00C4               	movwf	((??___ftmul+0)+0+1)
  8806  0A3B  083F               	movf	(___ftmul@f1+2),w
  8807  0A3C  00C5               	movwf	((??___ftmul+0)+0+2)
  8808  0A3D  3010               	movlw	010h
  8809  0A3E                     u5525:
  8810  0A3E  1003               	clrc
  8811  0A3F  0CC5               	rrf	(??___ftmul+0)+2,f
  8812  0A40  0CC4               	rrf	(??___ftmul+0)+1,f
  8813  0A41  0CC3               	rrf	(??___ftmul+0)+0,f
  8814  0A42                     u5520:
  8815  0A42  3EFF               	addlw	-1
  8816  0A43  1D03               	skipz
  8817  0A44  2A3E               	goto	u5525
  8818  0A45  0843               	movf	0+(??___ftmul+0)+0,w
  8819  0A46  00C6               	movwf	(??___ftmul+3)+0
  8820  0A47  0846               	movf	(??___ftmul+3)+0,w
  8821  0A48  00CC               	movwf	(___ftmul@sign)
  8822                           opt subtitle "HI-TECH Software Omniscient Code Generator (Lite mode) build 49521"
  8823  0A49  0840               	movf	(___ftmul@f2),w
  8824  0A4A  00C3               	movwf	((??___ftmul+0)+0)
  8825  0A4B  0841               	movf	(___ftmul@f2+1),w
  8826  0A4C  00C4               	movwf	((??___ftmul+0)+0+1)
  8827  0A4D  0842               	movf	(___ftmul@f2+2),w
  8828  0A4E  00C5               	movwf	((??___ftmul+0)+0+2)
  8829  0A4F  3010               	movlw	010h
  8830  0A50                     u5535:
  8831  0A50  1003               	clrc
  8832  0A51  0CC5               	rrf	(??___ftmul+0)+2,f
  8833  0A52  0CC4               	rrf	(??___ftmul+0)+1,f
  8834  0A53  0CC3               	rrf	(??___ftmul+0)+0,f
  8835  0A54                     u5530:
  8836  0A54  3EFF               	addlw	-1
  8837  0A55  1D03               	skipz
  8838  0A56  2A50               	goto	u5535
  8839  0A57  0843               	movf	0+(??___ftmul+0)+0,w
  8840  0A58  00C6               	movwf	(??___ftmul+3)+0
  8841  0A59  0846               	movf	(??___ftmul+3)+0,w
  8842  0A5A  06CC               	xorwf	(___ftmul@sign),f
  8843                           opt subtitle "HI-TECH Software Omniscient Code Generator (Lite mode) build 49521"
  8844  0A5B  3080               	movlw	(080h)
  8845  0A5C  00C3               	movwf	(??___ftmul+0)+0
  8846  0A5D  0843               	movf	(??___ftmul+0)+0,w
  8847  0A5E  05CC               	andwf	(___ftmul@sign),f
  8848                           opt subtitle "HI-TECH Software Omniscient Code Generator (Lite mode) build 49521"
  8849                           
  8850  0A5F                     l5237:	
  8851  0A5F  17BE               	bsf	(___ftmul@f1)+(15/8),(15)&7
  8852                           opt subtitle "HI-TECH Software Omniscient Code Generator (Lite mode) build 49521"
  8853                           
  8854  0A60                     l5239:	
  8855  0A60  17C1               	bsf	(___ftmul@f2)+(15/8),(15)&7
  8856                           opt subtitle "HI-TECH Software Omniscient Code Generator (Lite mode) build 49521"
  8857                           
  8858  0A61                     l5241:	
  8859  0A61  30FF               	movlw	0FFh
  8860  0A62  05C0               	andwf	(___ftmul@f2),f
  8861  0A63  30FF               	movlw	0FFh
  8862  0A64  05C1               	andwf	(___ftmul@f2+1),f
  8863  0A65  3000               	movlw	0
  8864  0A66  05C2               	andwf	(___ftmul@f2+2),f
  8865                           opt subtitle "HI-TECH Software Omniscient Code Generator (Lite mode) build 49521"
  8866                           
  8867  0A67                     l5243:	
  8868  0A67  3000               	movlw	0
  8869  0A68  00C8               	movwf	(___ftmul@f3_as_product)
  8870  0A69  3000               	movlw	0
  8871  0A6A  00C9               	movwf	(___ftmul@f3_as_product+1)
  8872  0A6B  3000               	movlw	0
  8873  0A6C  00CA               	movwf	(___ftmul@f3_as_product+2)
  8874                           opt subtitle "HI-TECH Software Omniscient Code Generator (Lite mode) build 49521"
  8875                           
  8876  0A6D                     l5245:	
  8877  0A6D  3007               	movlw	(07h)
  8878  0A6E  00C3               	movwf	(??___ftmul+0)+0
  8879  0A6F  0843               	movf	(??___ftmul+0)+0,w
  8880  0A70  00CB               	movwf	(___ftmul@cntr)
  8881  0A71  2A72               	goto	l5247
  8882                           opt subtitle "HI-TECH Software Omniscient Code Generator (Lite mode) build 49521"
  8883                           
  8884  0A72                     l558:	
  8885                           opt subtitle "HI-TECH Software Omniscient Code Generator (Lite mode) build 49521"
  8886                           
  8887  0A72                     l5247:	
  8888  0A72  1C3D               	btfss	(___ftmul@f1),(0)&7
  8889  0A73  2A75               	goto	u5541
  8890  0A74  2A76               	goto	u5540
  8891  0A75                     u5541:
  8892  0A75  2A87               	goto	l5251
  8893  0A76                     u5540:
  8894                           opt subtitle "HI-TECH Software Omniscient Code Generator (Lite mode) build 49521"
  8895                           
  8896  0A76                     l5249:	
  8897  0A76  0840               	movf	(___ftmul@f2),w
  8898  0A77  07C8               	addwf	(___ftmul@f3_as_product),f
  8899  0A78  0841               	movf	(___ftmul@f2+1),w
  8900  0A79  1103               	clrz
  8901  0A7A  1803               	skipnc
  8902  0A7B  0A41               	incf	(___ftmul@f2+1),w
  8903  0A7C  1903               	skipnz
  8904  0A7D  2A7F               	goto	u5551
  8905  0A7E  07C9               	addwf	(___ftmul@f3_as_product+1),f
  8906  0A7F                     u5551:
  8907  0A7F  0842               	movf	(___ftmul@f2+2),w
  8908  0A80  1103               	clrz
  8909  0A81  1803               	skipnc
  8910  0A82  0A42               	incf	(___ftmul@f2+2),w
  8911  0A83  1903               	skipnz
  8912  0A84  2A86               	goto	u5552
  8913  0A85  07CA               	addwf	(___ftmul@f3_as_product+2),f
  8914  0A86                     u5552:
  8915                           opt subtitle "HI-TECH Software Omniscient Code Generator (Lite mode) build 49521"
  8916  0A86  2A87               	goto	l5251
  8917                           opt subtitle "HI-TECH Software Omniscient Code Generator (Lite mode) build 49521"
  8918  0A87                     l559:	
  8919                           opt subtitle "HI-TECH Software Omniscient Code Generator (Lite mode) build 49521"
  8920                           
  8921  0A87                     l5251:	
  8922  0A87  3001               	movlw	01h
  8923  0A88                     u5565:
  8924  0A88  1003               	clrc
  8925  0A89  0CBF               	rrf	(___ftmul@f1+2),f
  8926  0A8A  0CBE               	rrf	(___ftmul@f1+1),f
  8927  0A8B  0CBD               	rrf	(___ftmul@f1),f
  8928  0A8C  3EFF               	addlw	-1
  8929  0A8D  1D03               	skipz
  8930  0A8E  2A88               	goto	u5565
  8931                           opt subtitle "HI-TECH Software Omniscient Code Generator (Lite mode) build 49521"
  8932                           
  8933                           opt pagewidth 120
  8934  0A8F                     l5253:	
  8935  0A8F  3001               	movlw	01h
  8936  0A90                     u5575:
  8937  0A90  1003               	clrc
  8938  0A91  0DC0               	rlf	(___ftmul@f2),f
  8939  0A92  0DC1               	rlf	(___ftmul@f2+1),f
  8940  0A93  0DC2               	rlf	(___ftmul@f2+2),f
  8941  0A94  3EFF               	addlw	-1
  8942  0A95  1D03               	skipz
  8943  0A96  2A90               	goto	u5575
  8944                           opt subtitle "HI-TECH Software Omniscient Code Generator (Lite mode) build 49521"
  8945                           
  8946  0A97                     l5255:	
  8947  0A97  3001               	movlw	low(01h)
  8948  0A98  02CB               	subwf	(___ftmul@cntr),f
  8949  0A99  1D03               	btfss	status,2
  8950  0A9A  2A9C               	goto	u5581
  8951  0A9B  2A9D               	goto	u5580
  8952  0A9C                     u5581:
  8953  0A9C  2A72               	goto	l5247
  8954  0A9D                     u5580:
  8955  0A9D  2A9E               	goto	l5257
  8956                           opt subtitle "HI-TECH Software Omniscient Code Generator (Lite mode) build 49521"
  8957  0A9E                     l560:	
  8958                           opt subtitle "HI-TECH Software Omniscient Code Generator (Lite mode) build 49521"
  8959                           
  8960  0A9E                     l5257:	
  8961  0A9E  3009               	movlw	(09h)
  8962  0A9F  00C3               	movwf	(??___ftmul+0)+0
  8963  0AA0  0843               	movf	(??___ftmul+0)+0,w
  8964  0AA1  00CB               	movwf	(___ftmul@cntr)
  8965  0AA2  2AA3               	goto	l5259
  8966                           opt subtitle "HI-TECH Software Omniscient Code Generator (Lite mode) build 49521"
  8967                           
  8968  0AA3                     l561:	
  8969                           opt subtitle "HI-TECH Software Omniscient Code Generator (Lite mode) build 49521"
  8970                           
  8971  0AA3                     l5259:	
  8972  0AA3  1C3D               	btfss	(___ftmul@f1),(0)&7
  8973  0AA4  2AA6               	goto	u5591
  8974  0AA5  2AA7               	goto	u5590
  8975  0AA6                     u5591:
  8976  0AA6  2AB8               	goto	l5263
  8977  0AA7                     u5590:
  8978                           opt subtitle "HI-TECH Software Omniscient Code Generator (Lite mode) build 49521"
  8979                           
  8980  0AA7                     l5261:	
  8981  0AA7  0840               	movf	(___ftmul@f2),w
  8982  0AA8  07C8               	addwf	(___ftmul@f3_as_product),f
  8983  0AA9  0841               	movf	(___ftmul@f2+1),w
  8984  0AAA  1103               	clrz
  8985  0AAB  1803               	skipnc
  8986  0AAC  0A41               	incf	(___ftmul@f2+1),w
  8987  0AAD  1903               	skipnz
  8988  0AAE  2AB0               	goto	u5601
  8989  0AAF  07C9               	addwf	(___ftmul@f3_as_product+1),f
  8990  0AB0                     u5601:
  8991  0AB0  0842               	movf	(___ftmul@f2+2),w
  8992  0AB1  1103               	clrz
  8993  0AB2  1803               	skipnc
  8994  0AB3  0A42               	incf	(___ftmul@f2+2),w
  8995  0AB4  1903               	skipnz
  8996  0AB5  2AB7               	goto	u5602
  8997  0AB6  07CA               	addwf	(___ftmul@f3_as_product+2),f
  8998  0AB7                     u5602:
  8999                           opt subtitle "HI-TECH Software Omniscient Code Generator (Lite mode) build 49521"
  9000  0AB7  2AB8               	goto	l5263
  9001                           opt subtitle "HI-TECH Software Omniscient Code Generator (Lite mode) build 49521"
  9002  0AB8                     l562:	
  9003                           opt subtitle "HI-TECH Software Omniscient Code Generator (Lite mode) build 49521"
  9004                           
  9005  0AB8                     l5263:	
  9006  0AB8  3001               	movlw	01h
  9007  0AB9                     u5615:
  9008  0AB9  1003               	clrc
  9009  0ABA  0CBF               	rrf	(___ftmul@f1+2),f
  9010  0ABB  0CBE               	rrf	(___ftmul@f1+1),f
  9011  0ABC  0CBD               	rrf	(___ftmul@f1),f
  9012  0ABD  3EFF               	addlw	-1
  9013  0ABE  1D03               	skipz
  9014  0ABF  2AB9               	goto	u5615
  9015                           opt subtitle "HI-TECH Software Omniscient Code Generator (Lite mode) build 49521"
  9016                           
  9017                           opt pagewidth 120
  9018  0AC0                     l5265:	
  9019  0AC0  3001               	movlw	01h
  9020  0AC1                     u5625:
  9021  0AC1  1003               	clrc
  9022  0AC2  0CCA               	rrf	(___ftmul@f3_as_product+2),f
  9023  0AC3  0CC9               	rrf	(___ftmul@f3_as_product+1),f
  9024  0AC4  0CC8               	rrf	(___ftmul@f3_as_product),f
  9025  0AC5  3EFF               	addlw	-1
  9026  0AC6  1D03               	skipz
  9027  0AC7  2AC1               	goto	u5625
  9028                           opt subtitle "HI-TECH Software Omniscient Code Generator (Lite mode) build 49521"
  9029                           
  9030                           opt pagewidth 120
  9031  0AC8                     l5267:	
  9032  0AC8  3001               	movlw	low(01h)
  9033  0AC9  02CB               	subwf	(___ftmul@cntr),f
  9034  0ACA  1D03               	btfss	status,2
  9035  0ACB  2ACD               	goto	u5631
  9036  0ACC  2ACE               	goto	u5630
  9037  0ACD                     u5631:
  9038  0ACD  2AA3               	goto	l5259
  9039  0ACE                     u5630:
  9040  0ACE  2ACF               	goto	l5269
  9041                           opt subtitle "HI-TECH Software Omniscient Code Generator (Lite mode) build 49521"
  9042  0ACF                     l563:	
  9043                           opt subtitle "HI-TECH Software Omniscient Code Generator (Lite mode) build 49521"
  9044                           
  9045  0ACF                     l5269:	
  9046  0ACF  0848               	movf	(___ftmul@f3_as_product),w
  9047  0AD0  00B5               	movwf	(?___ftpack)
  9048  0AD1  0849               	movf	(___ftmul@f3_as_product+1),w
  9049  0AD2  00B6               	movwf	(?___ftpack+1)
  9050  0AD3  084A               	movf	(___ftmul@f3_as_product+2),w
  9051  0AD4  00B7               	movwf	(?___ftpack+2)
  9052  0AD5  0847               	movf	(___ftmul@exp),w
  9053  0AD6  00C3               	movwf	(??___ftmul+0)+0
  9054  0AD7  0843               	movf	(??___ftmul+0)+0,w
  9055  0AD8  00B8               	movwf	0+(?___ftpack)+03h
  9056  0AD9  084C               	movf	(___ftmul@sign),w
  9057  0ADA  00C4               	movwf	(??___ftmul+1)+0
  9058  0ADB  0844               	movf	(??___ftmul+1)+0,w
  9059  0ADC  00B9               	movwf	0+(?___ftpack)+04h
  9060  0ADD  160A  118A  263F   	fcall	___ftpack
              120A  158A         
  9061  0AE2  1283               	bcf	status, 5	;RP0=0, select bank0
  9062  0AE3  1303               	bcf	status, 6	;RP1=0, select bank0
  9063  0AE4  0835               	movf	(0+(?___ftpack)),w
  9064  0AE5  00BD               	movwf	(?___ftmul)
  9065  0AE6  0836               	movf	(1+(?___ftpack)),w
  9066  0AE7  00BE               	movwf	(?___ftmul+1)
  9067  0AE8  0837               	movf	(2+(?___ftpack)),w
  9068  0AE9  00BF               	movwf	(?___ftmul+2)
  9069  0AEA  2AEB               	goto	l556
  9070                           opt subtitle "HI-TECH Software Omniscient Code Generator (Lite mode) build 49521"
  9071  0AEB                     l5271:	
  9072                           opt subtitle "HI-TECH Software Omniscient Code Generator (Lite mode) build 49521"
  9073                           
  9074  0AEB                     l556:	
  9075  0AEB  0008               	return
  9076                           opt subtitle "HI-TECH Software Omniscient Code Generator (Lite mode) build 49521"
  9077                           
  9078  0AEC                     	__end_of___ftmul:
  9079                           opt subtitle "HI-TECH Software Omniscient Code Generator (Lite mode) build 49521"
  9080                           
  9081                           opt pagewidth 120
  9082                           
  9083                           	opt lm
  9084                           
  9085                           	processor	16LF707
  9086                           clrc	macro
  9087                           	bcf	3,0
  9088                           	endm
  9089                           clrz	macro
  9090                           	bcf	3,2
  9091                           	endm
  9092                           setc	macro
  9093                           	bsf	3,0
  9094                           	endm
  9095                           setz	macro
  9096                           	bsf	3,2
  9097                           	endm
  9098                           skipc	macro
  9099                           	btfss	3,0
  9100                           	endm
  9101                           skipz	macro
  9102                           	btfss	3,2
  9103                           	endm
  9104                           skipnc	macro
  9105                           	btfsc	3,0
  9106                           	endm
  9107                           skipnz	macro
  9108                           	btfsc	3,2
  9109                           	endm
  9110                           indf	equ	0
  9111                           indf0	equ	0
  9112                           pc	equ	2
  9113                           pcl	equ	2
  9114  13CA                     __ptext1303:	;psect for function ___wmul
  9115                           opt subtitle "HI-TECH Software Omniscient Code Generator (Lite mode) build 49521"
  9116                           
  9117                           opt pagewidth 120
  9118                           
  9119  002C                     	__size_of___wmul	equ	__end_of___wmul-___wmul
  9120                           opt subtitle "HI-TECH Software Omniscient Code Generator (Lite mode) build 49521"
  9121  13CA                     ___wmul:	
  9122                           opt subtitle "HI-TECH Software Omniscient Code Generator (Lite mode) build 49521"
  9123                           
  9124                           opt pagewidth 120
  9125                           
  9126  13CA                     l5091:	
  9127  13CA  1283               	bcf	status, 5	;RP0=0, select bank0
  9128  13CB  1303               	bcf	status, 6	;RP1=0, select bank0
  9129  13CC  01B9               	clrf	(___wmul@product)
  9130  13CD  01BA               	clrf	(___wmul@product+1)
  9131  13CE  2BCF               	goto	l5093
  9132                           opt subtitle "HI-TECH Software Omniscient Code Generator (Lite mode) build 49521"
  9133                           
  9134  13CF                     l457:	
  9135                           opt subtitle "HI-TECH Software Omniscient Code Generator (Lite mode) build 49521"
  9136                           
  9137  13CF                     l5093:	
  9138  13CF  1C35               	btfss	(___wmul@multiplier),(0)&7
  9139  13D0  2BD2               	goto	u5141
  9140  13D1  2BD3               	goto	u5140
  9141  13D2                     u5141:
  9142  13D2  2BD9               	goto	l458
  9143  13D3                     u5140:
  9144                           opt subtitle "HI-TECH Software Omniscient Code Generator (Lite mode) build 49521"
  9145                           
  9146  13D3                     l5095:	
  9147  13D3  0837               	movf	(___wmul@multiplicand),w
  9148  13D4  07B9               	addwf	(___wmul@product),f
  9149  13D5  1803               	skipnc
  9150  13D6  0ABA               	incf	(___wmul@product+1),f
  9151  13D7  0838               	movf	(___wmul@multiplicand+1),w
  9152  13D8  07BA               	addwf	(___wmul@product+1),f
  9153                           opt subtitle "HI-TECH Software Omniscient Code Generator (Lite mode) build 49521"
  9154  13D9                     l458:	
  9155                           opt subtitle "HI-TECH Software Omniscient Code Generator (Lite mode) build 49521"
  9156  13D9  3001               	movlw	01h
  9157                           opt subtitle "HI-TECH Software Omniscient Code Generator (Lite mode) build 49521"
  9158  13DA                     u5155:
  9159  13DA  1003               	clrc
  9160  13DB  0DB7               	rlf	(___wmul@multiplicand),f
  9161  13DC  0DB8               	rlf	(___wmul@multiplicand+1),f
  9162  13DD  3EFF               	addlw	-1
  9163  13DE  1D03               	skipz
  9164  13DF  2BDA               	goto	u5155
  9165                           opt subtitle "HI-TECH Software Omniscient Code Generator (Lite mode) build 49521"
  9166                           
  9167  13E0                     l5097:	
  9168  13E0  3001               	movlw	01h
  9169                           opt subtitle "HI-TECH Software Omniscient Code Generator (Lite mode) build 49521"
  9170  13E1                     u5165:
  9171  13E1  1003               	clrc
  9172  13E2  0CB6               	rrf	(___wmul@multiplier+1),f
  9173  13E3  0CB5               	rrf	(___wmul@multiplier),f
  9174  13E4  3EFF               	addlw	-1
  9175  13E5  1D03               	skipz
  9176  13E6  2BE1               	goto	u5165
  9177                           opt subtitle "HI-TECH Software Omniscient Code Generator (Lite mode) build 49521"
  9178  13E7  0836               	movf	((___wmul@multiplier+1)),w
  9179  13E8  0435               	iorwf	((___wmul@multiplier)),w
  9180  13E9  1D03               	skipz
  9181  13EA  2BEC               	goto	u5171
  9182  13EB  2BED               	goto	u5170
  9183  13EC                     u5171:
  9184  13EC  2BCF               	goto	l5093
  9185  13ED                     u5170:
  9186  13ED  2BEE               	goto	l5099
  9187                           opt subtitle "HI-TECH Software Omniscient Code Generator (Lite mode) build 49521"
  9188  13EE                     l459:	
  9189                           opt subtitle "HI-TECH Software Omniscient Code Generator (Lite mode) build 49521"
  9190                           
  9191  13EE                     l5099:	
  9192  13EE  083A               	movf	(___wmul@product+1),w
  9193  13EF  01B6               	clrf	(?___wmul+1)
  9194  13F0  07B6               	addwf	(?___wmul+1)
  9195  13F1  0839               	movf	(___wmul@product),w
  9196  13F2  01B5               	clrf	(?___wmul)
  9197  13F3  07B5               	addwf	(?___wmul)
  9198                           opt subtitle "HI-TECH Software Omniscient Code Generator (Lite mode) build 49521"
  9199  13F4  2BF5               	goto	l460
  9200                           opt subtitle "HI-TECH Software Omniscient Code Generator (Lite mode) build 49521"
  9201  13F5                     l5101:	
  9202                           opt subtitle "HI-TECH Software Omniscient Code Generator (Lite mode) build 49521"
  9203                           
  9204  13F5                     l460:	
  9205  13F5  0008               	return
  9206                           opt subtitle "HI-TECH Software Omniscient Code Generator (Lite mode) build 49521"
  9207                           
  9208  13F6                     	__end_of___wmul:
  9209                           opt subtitle "HI-TECH Software Omniscient Code Generator (Lite mode) build 49521"
  9210                           
  9211                           opt pagewidth 120
  9212                           
  9213                           	opt lm
  9214                           
  9215                           	processor	16LF707
  9216                           clrc	macro
  9217                           	bcf	3,0
  9218                           	endm
  9219                           clrz	macro
  9220                           	bcf	3,2
  9221                           	endm
  9222                           setc	macro
  9223                           	bsf	3,0
  9224                           	endm
  9225                           setz	macro
  9226                           	bsf	3,2
  9227                           	endm
  9228                           skipc	macro
  9229                           	btfss	3,0
  9230                           	endm
  9231                           skipz	macro
  9232                           	btfss	3,2
  9233                           	endm
  9234                           skipnc	macro
  9235                           	btfsc	3,0
  9236                           	endm
  9237                           skipnz	macro
  9238                           	btfsc	3,2
  9239                           	endm
  9240                           indf	equ	0
  9241                           indf0	equ	0
  9242                           pc	equ	2
  9243                           pcl	equ	2
  9244                           status	equ	3
  9245  0803                     __ptext1304:	;psect for function ___lwdiv
  9246                           opt subtitle "HI-TECH Software Omniscient Code Generator (Lite mode) build 49521"
  9247                           
  9248                           opt pagewidth 120
  9249                           
  9250  004F                     	__size_of___lwdiv	equ	__end_of___lwdiv-___lwdiv
  9251                           opt subtitle "HI-TECH Software Omniscient Code Generator (Lite mode) build 49521"
  9252  0803                     ___lwdiv:	
  9253                           opt subtitle "HI-TECH Software Omniscient Code Generator (Lite mode) build 49521"
  9254                           
  9255                           opt pagewidth 120
  9256                           
  9257  0803                     l5103:	
  9258  0803  1283               	bcf	status, 5	;RP0=0, select bank0
  9259  0804  1303               	bcf	status, 6	;RP1=0, select bank0
  9260  0805  01BB               	clrf	(___lwdiv@quotient)
  9261  0806  01BC               	clrf	(___lwdiv@quotient+1)
  9262                           opt subtitle "HI-TECH Software Omniscient Code Generator (Lite mode) build 49521"
  9263                           
  9264  0807                     l5105:	
  9265  0807  0836               	movf	(___lwdiv@divisor+1),w
  9266  0808  0435               	iorwf	(___lwdiv@divisor),w
  9267  0809  1903               	skipnz
  9268  080A  280C               	goto	u5181
  9269  080B  280D               	goto	u5180
  9270  080C                     u5181:
  9271  080C  284A               	goto	l5125
  9272  080D                     u5180:
  9273                           opt subtitle "HI-TECH Software Omniscient Code Generator (Lite mode) build 49521"
  9274                           
  9275  080D                     l5107:	
  9276  080D  01BA               	clrf	(___lwdiv@counter)
  9277  080E  0ABA               	incf	(___lwdiv@counter),f
  9278                           opt subtitle "HI-TECH Software Omniscient Code Generator (Lite mode) build 49521"
  9279  080F  281C               	goto	l5113
  9280                           opt subtitle "HI-TECH Software Omniscient Code Generator (Lite mode) build 49521"
  9281  0810                     l465:	
  9282                           opt subtitle "HI-TECH Software Omniscient Code Generator (Lite mode) build 49521"
  9283                           
  9284  0810                     l5109:	
  9285  0810  3001               	movlw	01h
  9286                           opt subtitle "HI-TECH Software Omniscient Code Generator (Lite mode) build 49521"
  9287  0811                     u5195:
  9288  0811  1003               	clrc
  9289  0812  0DB5               	rlf	(___lwdiv@divisor),f
  9290  0813  0DB6               	rlf	(___lwdiv@divisor+1),f
  9291  0814  3EFF               	addlw	-1
  9292  0815  1D03               	skipz
  9293  0816  2811               	goto	u5195
  9294                           opt subtitle "HI-TECH Software Omniscient Code Generator (Lite mode) build 49521"
  9295                           
  9296  0817                     l5111:	
  9297  0817  3001               	movlw	(01h)
  9298  0818  00B9               	movwf	(??___lwdiv+0)+0
  9299  0819  0839               	movf	(??___lwdiv+0)+0,w
  9300  081A  07BA               	addwf	(___lwdiv@counter),f
  9301  081B  281C               	goto	l5113
  9302                           opt subtitle "HI-TECH Software Omniscient Code Generator (Lite mode) build 49521"
  9303                           
  9304  081C                     l464:	
  9305                           opt subtitle "HI-TECH Software Omniscient Code Generator (Lite mode) build 49521"
  9306                           
  9307  081C                     l5113:	
  9308  081C  1FB6               	btfss	(___lwdiv@divisor+1),(15)&7
  9309  081D  281F               	goto	u5201
  9310  081E  2820               	goto	u5200
  9311  081F                     u5201:
  9312  081F  2810               	goto	l5109
  9313  0820                     u5200:
  9314  0820  2822               	goto	l5115
  9315                           opt subtitle "HI-TECH Software Omniscient Code Generator (Lite mode) build 49521"
  9316  0821                     l466:	
  9317  0821  2822               	goto	l5115
  9318                           opt subtitle "HI-TECH Software Omniscient Code Generator (Lite mode) build 49521"
  9319                           
  9320  0822                     l467:	
  9321                           opt subtitle "HI-TECH Software Omniscient Code Generator (Lite mode) build 49521"
  9322                           
  9323  0822                     l5115:	
  9324  0822  3001               	movlw	01h
  9325                           opt subtitle "HI-TECH Software Omniscient Code Generator (Lite mode) build 49521"
  9326  0823                     u5215:
  9327  0823  1003               	clrc
  9328  0824  0DBB               	rlf	(___lwdiv@quotient),f
  9329  0825  0DBC               	rlf	(___lwdiv@quotient+1),f
  9330  0826  3EFF               	addlw	-1
  9331  0827  1D03               	skipz
  9332  0828  2823               	goto	u5215
  9333                           opt subtitle "HI-TECH Software Omniscient Code Generator (Lite mode) build 49521"
  9334  0829  0836               	movf	(___lwdiv@divisor+1),w
  9335  082A  0238               	subwf	(___lwdiv@dividend+1),w
  9336  082B  1D03               	skipz
  9337  082C  282F               	goto	u5225
  9338  082D  0835               	movf	(___lwdiv@divisor),w
  9339  082E  0237               	subwf	(___lwdiv@dividend),w
  9340  082F                     u5225:
  9341  082F  1C03               	skipc
  9342  0830  2832               	goto	u5221
  9343  0831  2833               	goto	u5220
  9344  0832                     u5221:
  9345  0832  283B               	goto	l5121
  9346  0833                     u5220:
  9347                           opt subtitle "HI-TECH Software Omniscient Code Generator (Lite mode) build 49521"
  9348                           
  9349  0833                     l5117:	
  9350  0833  0835               	movf	(___lwdiv@divisor),w
  9351  0834  02B7               	subwf	(___lwdiv@dividend),f
  9352  0835  0836               	movf	(___lwdiv@divisor+1),w
  9353  0836  1C03               	skipc
  9354  0837  03B8               	decf	(___lwdiv@dividend+1),f
  9355  0838  02B8               	subwf	(___lwdiv@dividend+1),f
  9356                           opt subtitle "HI-TECH Software Omniscient Code Generator (Lite mode) build 49521"
  9357                           
  9358  0839                     l5119:	
  9359  0839  143B               	bsf	(___lwdiv@quotient)+(0/8),(0)&7
  9360  083A  283B               	goto	l5121
  9361                           opt subtitle "HI-TECH Software Omniscient Code Generator (Lite mode) build 49521"
  9362                           
  9363  083B                     l468:	
  9364                           opt subtitle "HI-TECH Software Omniscient Code Generator (Lite mode) build 49521"
  9365                           
  9366  083B                     l5121:	
  9367  083B  3001               	movlw	01h
  9368                           opt subtitle "HI-TECH Software Omniscient Code Generator (Lite mode) build 49521"
  9369  083C                     u5235:
  9370  083C  1003               	clrc
  9371  083D  0CB6               	rrf	(___lwdiv@divisor+1),f
  9372  083E  0CB5               	rrf	(___lwdiv@divisor),f
  9373  083F  3EFF               	addlw	-1
  9374  0840  1D03               	skipz
  9375  0841  283C               	goto	u5235
  9376                           opt subtitle "HI-TECH Software Omniscient Code Generator (Lite mode) build 49521"
  9377                           
  9378  0842                     l5123:	
  9379  0842  3001               	movlw	low(01h)
  9380  0843  02BA               	subwf	(___lwdiv@counter),f
  9381  0844  1D03               	btfss	status,2
  9382  0845  2847               	goto	u5241
  9383  0846  2848               	goto	u5240
  9384  0847                     u5241:
  9385  0847  2822               	goto	l5115
  9386  0848                     u5240:
  9387  0848  284A               	goto	l5125
  9388                           opt subtitle "HI-TECH Software Omniscient Code Generator (Lite mode) build 49521"
  9389  0849                     l469:	
  9390  0849  284A               	goto	l5125
  9391                           opt subtitle "HI-TECH Software Omniscient Code Generator (Lite mode) build 49521"
  9392                           
  9393  084A                     l463:	
  9394                           opt subtitle "HI-TECH Software Omniscient Code Generator (Lite mode) build 49521"
  9395                           
  9396  084A                     l5125:	
  9397  084A  083C               	movf	(___lwdiv@quotient+1),w
  9398  084B  01B6               	clrf	(?___lwdiv+1)
  9399  084C  07B6               	addwf	(?___lwdiv+1)
  9400  084D  083B               	movf	(___lwdiv@quotient),w
  9401  084E  01B5               	clrf	(?___lwdiv)
  9402  084F  07B5               	addwf	(?___lwdiv)
  9403                           opt subtitle "HI-TECH Software Omniscient Code Generator (Lite mode) build 49521"
  9404  0850  2851               	goto	l470
  9405                           opt subtitle "HI-TECH Software Omniscient Code Generator (Lite mode) build 49521"
  9406  0851                     l5127:	
  9407                           opt subtitle "HI-TECH Software Omniscient Code Generator (Lite mode) build 49521"
  9408                           
  9409  0851                     l470:	
  9410  0851  0008               	return
  9411                           opt subtitle "HI-TECH Software Omniscient Code Generator (Lite mode) build 49521"
  9412                           
  9413  0852                     	__end_of___lwdiv:
  9414                           opt subtitle "HI-TECH Software Omniscient Code Generator (Lite mode) build 49521"
  9415                           
  9416                           opt pagewidth 120
  9417                           
  9418                           	opt lm
  9419                           
  9420                           	processor	16LF707
  9421                           clrc	macro
  9422                           	bcf	3,0
  9423                           	endm
  9424                           clrz	macro
  9425                           	bcf	3,2
  9426                           	endm
  9427                           setc	macro
  9428                           	bsf	3,0
  9429                           	endm
  9430                           setz	macro
  9431                           	bsf	3,2
  9432                           	endm
  9433                           skipc	macro
  9434                           	btfss	3,0
  9435                           	endm
  9436                           skipz	macro
  9437                           	btfss	3,2
  9438                           	endm
  9439                           skipnc	macro
  9440                           	btfsc	3,0
  9441                           	endm
  9442                           skipnz	macro
  9443                           	btfsc	3,2
  9444                           	endm
  9445                           indf	equ	0
  9446                           indf0	equ	0
  9447                           pc	equ	2
  9448                           pcl	equ	2
  9449  1539                     __ptext1305:	;psect for function ___lwmod
  9450                           opt subtitle "HI-TECH Software Omniscient Code Generator (Lite mode) build 49521"
  9451                           
  9452                           opt pagewidth 120
  9453                           
  9454  0045                     	__size_of___lwmod	equ	__end_of___lwmod-___lwmod
  9455                           opt subtitle "HI-TECH Software Omniscient Code Generator (Lite mode) build 49521"
  9456  1539                     ___lwmod:	
  9457                           opt subtitle "HI-TECH Software Omniscient Code Generator (Lite mode) build 49521"
  9458                           
  9459                           opt pagewidth 120
  9460                           
  9461  1539                     l5129:	
  9462  1539  1283               	bcf	status, 5	;RP0=0, select bank0
  9463  153A  1303               	bcf	status, 6	;RP1=0, select bank0
  9464  153B  083E               	movf	(___lwmod@divisor+1),w
  9465  153C  043D               	iorwf	(___lwmod@divisor),w
  9466  153D  1903               	skipnz
  9467  153E  2D40               	goto	u5251
  9468  153F  2D41               	goto	u5250
  9469  1540                     u5251:
  9470  1540  2D76               	goto	l5147
  9471  1541                     u5250:
  9472                           opt subtitle "HI-TECH Software Omniscient Code Generator (Lite mode) build 49521"
  9473                           
  9474  1541                     l5131:	
  9475  1541  01C2               	clrf	(___lwmod@counter)
  9476  1542  0AC2               	incf	(___lwmod@counter),f
  9477                           opt subtitle "HI-TECH Software Omniscient Code Generator (Lite mode) build 49521"
  9478  1543  2D50               	goto	l5137
  9479                           opt subtitle "HI-TECH Software Omniscient Code Generator (Lite mode) build 49521"
  9480  1544                     l475:	
  9481                           opt subtitle "HI-TECH Software Omniscient Code Generator (Lite mode) build 49521"
  9482                           
  9483  1544                     l5133:	
  9484  1544  3001               	movlw	01h
  9485                           opt subtitle "HI-TECH Software Omniscient Code Generator (Lite mode) build 49521"
  9486  1545                     u5265:
  9487  1545  1003               	clrc
  9488  1546  0DBD               	rlf	(___lwmod@divisor),f
  9489  1547  0DBE               	rlf	(___lwmod@divisor+1),f
  9490  1548  3EFF               	addlw	-1
  9491  1549  1D03               	skipz
  9492  154A  2D45               	goto	u5265
  9493                           opt subtitle "HI-TECH Software Omniscient Code Generator (Lite mode) build 49521"
  9494                           
  9495  154B                     l5135:	
  9496  154B  3001               	movlw	(01h)
  9497  154C  00C1               	movwf	(??___lwmod+0)+0
  9498  154D  0841               	movf	(??___lwmod+0)+0,w
  9499  154E  07C2               	addwf	(___lwmod@counter),f
  9500  154F  2D50               	goto	l5137
  9501                           opt subtitle "HI-TECH Software Omniscient Code Generator (Lite mode) build 49521"
  9502                           
  9503  1550                     l474:	
  9504                           opt subtitle "HI-TECH Software Omniscient Code Generator (Lite mode) build 49521"
  9505                           
  9506  1550                     l5137:	
  9507  1550  1FBE               	btfss	(___lwmod@divisor+1),(15)&7
  9508  1551  2D53               	goto	u5271
  9509  1552  2D54               	goto	u5270
  9510  1553                     u5271:
  9511  1553  2D44               	goto	l5133
  9512  1554                     u5270:
  9513  1554  2D56               	goto	l5139
  9514                           opt subtitle "HI-TECH Software Omniscient Code Generator (Lite mode) build 49521"
  9515  1555                     l476:	
  9516  1555  2D56               	goto	l5139
  9517                           opt subtitle "HI-TECH Software Omniscient Code Generator (Lite mode) build 49521"
  9518                           
  9519  1556                     l477:	
  9520                           opt subtitle "HI-TECH Software Omniscient Code Generator (Lite mode) build 49521"
  9521                           
  9522  1556                     l5139:	
  9523  1556  083E               	movf	(___lwmod@divisor+1),w
  9524  1557  0240               	subwf	(___lwmod@dividend+1),w
  9525  1558  1D03               	skipz
  9526  1559  2D5C               	goto	u5285
  9527  155A  083D               	movf	(___lwmod@divisor),w
  9528  155B  023F               	subwf	(___lwmod@dividend),w
  9529  155C                     u5285:
  9530  155C  1C03               	skipc
  9531  155D  2D5F               	goto	u5281
  9532  155E  2D60               	goto	u5280
  9533  155F                     u5281:
  9534  155F  2D67               	goto	l5143
  9535  1560                     u5280:
  9536                           opt subtitle "HI-TECH Software Omniscient Code Generator (Lite mode) build 49521"
  9537                           
  9538  1560                     l5141:	
  9539  1560  083D               	movf	(___lwmod@divisor),w
  9540  1561  02BF               	subwf	(___lwmod@dividend),f
  9541  1562  083E               	movf	(___lwmod@divisor+1),w
  9542  1563  1C03               	skipc
  9543  1564  03C0               	decf	(___lwmod@dividend+1),f
  9544  1565  02C0               	subwf	(___lwmod@dividend+1),f
  9545  1566  2D67               	goto	l5143
  9546                           opt subtitle "HI-TECH Software Omniscient Code Generator (Lite mode) build 49521"
  9547  1567                     l478:	
  9548                           opt subtitle "HI-TECH Software Omniscient Code Generator (Lite mode) build 49521"
  9549                           
  9550  1567                     l5143:	
  9551  1567  3001               	movlw	01h
  9552                           opt subtitle "HI-TECH Software Omniscient Code Generator (Lite mode) build 49521"
  9553  1568                     u5295:
  9554  1568  1003               	clrc
  9555  1569  0CBE               	rrf	(___lwmod@divisor+1),f
  9556  156A  0CBD               	rrf	(___lwmod@divisor),f
  9557  156B  3EFF               	addlw	-1
  9558  156C  1D03               	skipz
  9559  156D  2D68               	goto	u5295
  9560                           opt subtitle "HI-TECH Software Omniscient Code Generator (Lite mode) build 49521"
  9561                           
  9562  156E                     l5145:	
  9563  156E  3001               	movlw	low(01h)
  9564  156F  02C2               	subwf	(___lwmod@counter),f
  9565  1570  1D03               	btfss	status,2
  9566  1571  2D73               	goto	u5301
  9567  1572  2D74               	goto	u5300
  9568  1573                     u5301:
  9569  1573  2D56               	goto	l5139
  9570  1574                     u5300:
  9571  1574  2D76               	goto	l5147
  9572                           opt subtitle "HI-TECH Software Omniscient Code Generator (Lite mode) build 49521"
  9573  1575                     l479:	
  9574  1575  2D76               	goto	l5147
  9575                           opt subtitle "HI-TECH Software Omniscient Code Generator (Lite mode) build 49521"
  9576                           
  9577  1576                     l473:	
  9578                           opt subtitle "HI-TECH Software Omniscient Code Generator (Lite mode) build 49521"
  9579                           
  9580  1576                     l5147:	
  9581  1576  0840               	movf	(___lwmod@dividend+1),w
  9582  1577  01BE               	clrf	(?___lwmod+1)
  9583  1578  07BE               	addwf	(?___lwmod+1)
  9584  1579  083F               	movf	(___lwmod@dividend),w
  9585  157A  01BD               	clrf	(?___lwmod)
  9586  157B  07BD               	addwf	(?___lwmod)
  9587                           opt subtitle "HI-TECH Software Omniscient Code Generator (Lite mode) build 49521"
  9588  157C  2D7D               	goto	l480
  9589                           opt subtitle "HI-TECH Software Omniscient Code Generator (Lite mode) build 49521"
  9590  157D                     l5149:	
  9591                           opt subtitle "HI-TECH Software Omniscient Code Generator (Lite mode) build 49521"
  9592                           
  9593  157D                     l480:	
  9594  157D  0008               	return
  9595                           opt subtitle "HI-TECH Software Omniscient Code Generator (Lite mode) build 49521"
  9596                           
  9597  157E                     	__end_of___lwmod:
  9598                           opt subtitle "HI-TECH Software Omniscient Code Generator (Lite mode) build 49521"
  9599                           
  9600                           opt pagewidth 120
  9601                           
  9602                           	opt lm
  9603                           
  9604                           	processor	16LF707
  9605                           clrc	macro
  9606                           	bcf	3,0
  9607                           	endm
  9608                           clrz	macro
  9609                           	bcf	3,2
  9610                           	endm
  9611                           setc	macro
  9612                           	bsf	3,0
  9613                           	endm
  9614                           setz	macro
  9615                           	bsf	3,2
  9616                           	endm
  9617                           skipc	macro
  9618                           	btfss	3,0
  9619                           	endm
  9620                           skipz	macro
  9621                           	btfss	3,2
  9622                           	endm
  9623                           skipnc	macro
  9624                           	btfsc	3,0
  9625                           	endm
  9626                           skipnz	macro
  9627                           	btfsc	3,2
  9628                           	endm
  9629                           indf	equ	0
  9630                           indf0	equ	0
  9631                           pc	equ	2
  9632                           pcl	equ	2
  9633                           status	equ	3
  9634                           fsr	equ	4
  9635                           fsr0	equ	4
  9636  0852                     __ptext1306:	;psect for function ___ftdiv
  9637                           opt subtitle "HI-TECH Software Omniscient Code Generator (Lite mode) build 49521"
  9638                           
  9639                           opt pagewidth 120
  9640                           
  9641  00C8                     	__size_of___ftdiv	equ	__end_of___ftdiv-___ftdiv
  9642                           opt subtitle "HI-TECH Software Omniscient Code Generator (Lite mode) build 49521"
  9643  0852                     ___ftdiv:	
  9644                           opt subtitle "HI-TECH Software Omniscient Code Generator (Lite mode) build 49521"
  9645                           
  9646                           opt pagewidth 120
  9647                           
  9648  0852                     l5181:	
  9649  0852  1283               	bcf	status, 5	;RP0=0, select bank0
  9650  0853  1303               	bcf	status, 6	;RP1=0, select bank0
  9651  0854  0840               	movf	(___ftdiv@f1),w
  9652  0855  00C3               	movwf	((??___ftdiv+0)+0)
  9653  0856  0841               	movf	(___ftdiv@f1+1),w
  9654  0857  00C4               	movwf	((??___ftdiv+0)+0+1)
  9655  0858  0842               	movf	(___ftdiv@f1+2),w
  9656  0859  00C5               	movwf	((??___ftdiv+0)+0+2)
  9657  085A  1003               	clrc
  9658  085B  0D44               	rlf	(??___ftdiv+0)+1,w
  9659  085C  0D45               	rlf	(??___ftdiv+0)+2,w
  9660  085D  00C6               	movwf	(??___ftdiv+3)+0
  9661  085E  0846               	movf	(??___ftdiv+3)+0,w
  9662  085F  00CB               	movwf	(___ftdiv@exp)
  9663  0860  08CB               	movf	((___ftdiv@exp)),f
  9664  0861  1D03               	skipz
  9665  0862  2864               	goto	u5421
  9666  0863  2865               	goto	u5420
  9667  0864                     u5421:
  9668  0864  286D               	goto	l5187
  9669  0865                     u5420:
  9670                           opt subtitle "HI-TECH Software Omniscient Code Generator (Lite mode) build 49521"
  9671                           
  9672  0865                     l5183:	
  9673  0865  3000               	movlw	0x0
  9674  0866  00BD               	movwf	(?___ftdiv)
  9675  0867  3000               	movlw	0x0
  9676  0868  00BE               	movwf	(?___ftdiv+1)
  9677  0869  3000               	movlw	0x0
  9678  086A  00BF               	movwf	(?___ftdiv+2)
  9679  086B  2919               	goto	l546
  9680                           opt subtitle "HI-TECH Software Omniscient Code Generator (Lite mode) build 49521"
  9681  086C                     l5185:	
  9682  086C  2919               	goto	l546
  9683                           opt subtitle "HI-TECH Software Omniscient Code Generator (Lite mode) build 49521"
  9684  086D                     l545:	
  9685                           opt subtitle "HI-TECH Software Omniscient Code Generator (Lite mode) build 49521"
  9686                           
  9687  086D                     l5187:	
  9688  086D  083D               	movf	(___ftdiv@f2),w
  9689  086E  00C3               	movwf	((??___ftdiv+0)+0)
  9690  086F  083E               	movf	(___ftdiv@f2+1),w
  9691  0870  00C4               	movwf	((??___ftdiv+0)+0+1)
  9692  0871  083F               	movf	(___ftdiv@f2+2),w
  9693  0872  00C5               	movwf	((??___ftdiv+0)+0+2)
  9694  0873  1003               	clrc
  9695  0874  0D44               	rlf	(??___ftdiv+0)+1,w
  9696  0875  0D45               	rlf	(??___ftdiv+0)+2,w
  9697  0876  00C6               	movwf	(??___ftdiv+3)+0
  9698  0877  0846               	movf	(??___ftdiv+3)+0,w
  9699  0878  00CC               	movwf	(___ftdiv@sign)
  9700  0879  08CC               	movf	((___ftdiv@sign)),f
  9701  087A  1D03               	skipz
  9702  087B  287D               	goto	u5431
  9703  087C  287E               	goto	u5430
  9704  087D                     u5431:
  9705  087D  2886               	goto	l5193
  9706  087E                     u5430:
  9707                           opt subtitle "HI-TECH Software Omniscient Code Generator (Lite mode) build 49521"
  9708                           
  9709  087E                     l5189:	
  9710  087E  3000               	movlw	0x0
  9711  087F  00BD               	movwf	(?___ftdiv)
  9712  0880  3000               	movlw	0x0
  9713  0881  00BE               	movwf	(?___ftdiv+1)
  9714  0882  3000               	movlw	0x0
  9715  0883  00BF               	movwf	(?___ftdiv+2)
  9716  0884  2919               	goto	l546
  9717                           opt subtitle "HI-TECH Software Omniscient Code Generator (Lite mode) build 49521"
  9718  0885                     l5191:	
  9719  0885  2919               	goto	l546
  9720                           opt subtitle "HI-TECH Software Omniscient Code Generator (Lite mode) build 49521"
  9721  0886                     l547:	
  9722                           opt subtitle "HI-TECH Software Omniscient Code Generator (Lite mode) build 49521"
  9723                           
  9724  0886                     l5193:	
  9725  0886  3000               	movlw	0
  9726  0887  00C8               	movwf	(___ftdiv@f3)
  9727  0888  3000               	movlw	0
  9728  0889  00C9               	movwf	(___ftdiv@f3+1)
  9729  088A  3000               	movlw	0
  9730  088B  00CA               	movwf	(___ftdiv@f3+2)
  9731                           opt subtitle "HI-TECH Software Omniscient Code Generator (Lite mode) build 49521"
  9732                           
  9733  088C                     l5195:	
  9734  088C  3089               	movlw	(089h)
  9735  088D  074C               	addwf	(___ftdiv@sign),w
  9736  088E  00C3               	movwf	(??___ftdiv+0)+0
  9737  088F  0843               	movf	0+(??___ftdiv+0)+0,w
  9738  0890  02CB               	subwf	(___ftdiv@exp),f
  9739                           opt subtitle "HI-TECH Software Omniscient Code Generator (Lite mode) build 49521"
  9740                           
  9741  0891                     l5197:	
  9742  0891  0840               	movf	(___ftdiv@f1),w
  9743  0892  00C3               	movwf	((??___ftdiv+0)+0)
  9744  0893  0841               	movf	(___ftdiv@f1+1),w
  9745  0894  00C4               	movwf	((??___ftdiv+0)+0+1)
  9746  0895  0842               	movf	(___ftdiv@f1+2),w
  9747  0896  00C5               	movwf	((??___ftdiv+0)+0+2)
  9748  0897  3010               	movlw	010h
  9749  0898                     u5445:
  9750  0898  1003               	clrc
  9751  0899  0CC5               	rrf	(??___ftdiv+0)+2,f
  9752  089A  0CC4               	rrf	(??___ftdiv+0)+1,f
  9753  089B  0CC3               	rrf	(??___ftdiv+0)+0,f
  9754  089C                     u5440:
  9755  089C  3EFF               	addlw	-1
  9756  089D  1D03               	skipz
  9757  089E  2898               	goto	u5445
  9758  089F  0843               	movf	0+(??___ftdiv+0)+0,w
  9759  08A0  00C6               	movwf	(??___ftdiv+3)+0
  9760  08A1  0846               	movf	(??___ftdiv+3)+0,w
  9761  08A2  00CC               	movwf	(___ftdiv@sign)
  9762                           opt subtitle "HI-TECH Software Omniscient Code Generator (Lite mode) build 49521"
  9763                           
  9764  08A3                     l5199:	
  9765  08A3  083D               	movf	(___ftdiv@f2),w
  9766  08A4  00C3               	movwf	((??___ftdiv+0)+0)
  9767  08A5  083E               	movf	(___ftdiv@f2+1),w
  9768  08A6  00C4               	movwf	((??___ftdiv+0)+0+1)
  9769  08A7  083F               	movf	(___ftdiv@f2+2),w
  9770  08A8  00C5               	movwf	((??___ftdiv+0)+0+2)
  9771  08A9  3010               	movlw	010h
  9772  08AA                     u5455:
  9773  08AA  1003               	clrc
  9774  08AB  0CC5               	rrf	(??___ftdiv+0)+2,f
  9775  08AC  0CC4               	rrf	(??___ftdiv+0)+1,f
  9776  08AD  0CC3               	rrf	(??___ftdiv+0)+0,f
  9777  08AE                     u5450:
  9778  08AE  3EFF               	addlw	-1
  9779  08AF  1D03               	skipz
  9780  08B0  28AA               	goto	u5455
  9781  08B1  0843               	movf	0+(??___ftdiv+0)+0,w
  9782  08B2  00C6               	movwf	(??___ftdiv+3)+0
  9783  08B3  0846               	movf	(??___ftdiv+3)+0,w
  9784  08B4  06CC               	xorwf	(___ftdiv@sign),f
  9785                           opt subtitle "HI-TECH Software Omniscient Code Generator (Lite mode) build 49521"
  9786                           
  9787  08B5                     l5201:	
  9788  08B5  3080               	movlw	(080h)
  9789  08B6  00C3               	movwf	(??___ftdiv+0)+0
  9790  08B7  0843               	movf	(??___ftdiv+0)+0,w
  9791  08B8  05CC               	andwf	(___ftdiv@sign),f
  9792                           opt subtitle "HI-TECH Software Omniscient Code Generator (Lite mode) build 49521"
  9793                           
  9794  08B9                     l5203:	
  9795  08B9  17C1               	bsf	(___ftdiv@f1)+(15/8),(15)&7
  9796                           opt subtitle "HI-TECH Software Omniscient Code Generator (Lite mode) build 49521"
  9797  08BA  30FF               	movlw	0FFh
  9798  08BB  05C0               	andwf	(___ftdiv@f1),f
  9799  08BC  30FF               	movlw	0FFh
  9800  08BD  05C1               	andwf	(___ftdiv@f1+1),f
  9801  08BE  3000               	movlw	0
  9802  08BF  05C2               	andwf	(___ftdiv@f1+2),f
  9803                           opt subtitle "HI-TECH Software Omniscient Code Generator (Lite mode) build 49521"
  9804                           
  9805  08C0                     l5205:	
  9806  08C0  17BE               	bsf	(___ftdiv@f2)+(15/8),(15)&7
  9807                           opt subtitle "HI-TECH Software Omniscient Code Generator (Lite mode) build 49521"
  9808  08C1  30FF               	movlw	0FFh
  9809  08C2  05BD               	andwf	(___ftdiv@f2),f
  9810  08C3  30FF               	movlw	0FFh
  9811  08C4  05BE               	andwf	(___ftdiv@f2+1),f
  9812  08C5  3000               	movlw	0
  9813  08C6  05BF               	andwf	(___ftdiv@f2+2),f
  9814                           opt subtitle "HI-TECH Software Omniscient Code Generator (Lite mode) build 49521"
  9815  08C7  3018               	movlw	(018h)
  9816  08C8  00C3               	movwf	(??___ftdiv+0)+0
  9817  08C9  0843               	movf	(??___ftdiv+0)+0,w
  9818  08CA  00C7               	movwf	(___ftdiv@cntr)
  9819  08CB  28CC               	goto	l5207
  9820                           opt subtitle "HI-TECH Software Omniscient Code Generator (Lite mode) build 49521"
  9821                           
  9822  08CC                     l548:	
  9823                           opt subtitle "HI-TECH Software Omniscient Code Generator (Lite mode) build 49521"
  9824                           
  9825  08CC                     l5207:	
  9826  08CC  3001               	movlw	01h
  9827  08CD                     u5465:
  9828  08CD  1003               	clrc
  9829  08CE  0DC8               	rlf	(___ftdiv@f3),f
  9830  08CF  0DC9               	rlf	(___ftdiv@f3+1),f
  9831  08D0  0DCA               	rlf	(___ftdiv@f3+2),f
  9832  08D1  3EFF               	addlw	-1
  9833  08D2  1D03               	skipz
  9834  08D3  28CD               	goto	u5465
  9835                           opt subtitle "HI-TECH Software Omniscient Code Generator (Lite mode) build 49521"
  9836                           
  9837  08D4                     l5209:	
  9838  08D4  083F               	movf	(___ftdiv@f2+2),w
  9839  08D5  0242               	subwf	(___ftdiv@f1+2),w
  9840  08D6  1D03               	skipz
  9841  08D7  28DE               	goto	u5475
  9842  08D8  083E               	movf	(___ftdiv@f2+1),w
  9843  08D9  0241               	subwf	(___ftdiv@f1+1),w
  9844  08DA  1D03               	skipz
  9845  08DB  28DE               	goto	u5475
  9846  08DC  083D               	movf	(___ftdiv@f2),w
  9847  08DD  0240               	subwf	(___ftdiv@f1),w
  9848  08DE                     u5475:
  9849  08DE  1C03               	skipc
  9850  08DF  28E1               	goto	u5471
  9851  08E0  28E2               	goto	u5470
  9852  08E1                     u5471:
  9853  08E1  28EE               	goto	l5215
  9854  08E2                     u5470:
  9855                           opt subtitle "HI-TECH Software Omniscient Code Generator (Lite mode) build 49521"
  9856                           
  9857  08E2                     l5211:	
  9858  08E2  083D               	movf	(___ftdiv@f2),w
  9859  08E3  02C0               	subwf	(___ftdiv@f1),f
  9860  08E4  083E               	movf	(___ftdiv@f2+1),w
  9861  08E5  1C03               	skipc
  9862  08E6  0F3E               	incfsz	(___ftdiv@f2+1),w
  9863  08E7  02C1               	subwf	(___ftdiv@f1+1),f
  9864  08E8  083F               	movf	(___ftdiv@f2+2),w
  9865  08E9  1C03               	skipc
  9866  08EA  0A3F               	incf	(___ftdiv@f2+2),w
  9867  08EB  02C2               	subwf	(___ftdiv@f1+2),f
  9868                           opt subtitle "HI-TECH Software Omniscient Code Generator (Lite mode) build 49521"
  9869                           
  9870  08EC                     l5213:	
  9871  08EC  1448               	bsf	(___ftdiv@f3)+(0/8),(0)&7
  9872  08ED  28EE               	goto	l5215
  9873                           opt subtitle "HI-TECH Software Omniscient Code Generator (Lite mode) build 49521"
  9874                           
  9875  08EE                     l549:	
  9876                           opt subtitle "HI-TECH Software Omniscient Code Generator (Lite mode) build 49521"
  9877                           
  9878  08EE                     l5215:	
  9879  08EE  3001               	movlw	01h
  9880  08EF                     u5485:
  9881  08EF  1003               	clrc
  9882  08F0  0DC0               	rlf	(___ftdiv@f1),f
  9883  08F1  0DC1               	rlf	(___ftdiv@f1+1),f
  9884  08F2  0DC2               	rlf	(___ftdiv@f1+2),f
  9885  08F3  3EFF               	addlw	-1
  9886  08F4  1D03               	skipz
  9887  08F5  28EF               	goto	u5485
  9888                           opt subtitle "HI-TECH Software Omniscient Code Generator (Lite mode) build 49521"
  9889                           
  9890  08F6                     l5217:	
  9891  08F6  3001               	movlw	low(01h)
  9892  08F7  02C7               	subwf	(___ftdiv@cntr),f
  9893  08F8  1D03               	btfss	status,2
  9894  08F9  28FB               	goto	u5491
  9895  08FA  28FC               	goto	u5490
  9896  08FB                     u5491:
  9897  08FB  28CC               	goto	l5207
  9898  08FC                     u5490:
  9899  08FC  28FD               	goto	l5219
  9900                           opt subtitle "HI-TECH Software Omniscient Code Generator (Lite mode) build 49521"
  9901  08FD                     l550:	
  9902                           opt subtitle "HI-TECH Software Omniscient Code Generator (Lite mode) build 49521"
  9903                           
  9904  08FD                     l5219:	
  9905  08FD  0848               	movf	(___ftdiv@f3),w
  9906  08FE  00B5               	movwf	(?___ftpack)
  9907  08FF  0849               	movf	(___ftdiv@f3+1),w
  9908  0900  00B6               	movwf	(?___ftpack+1)
  9909  0901  084A               	movf	(___ftdiv@f3+2),w
  9910  0902  00B7               	movwf	(?___ftpack+2)
  9911  0903  084B               	movf	(___ftdiv@exp),w
  9912  0904  00C3               	movwf	(??___ftdiv+0)+0
  9913  0905  0843               	movf	(??___ftdiv+0)+0,w
  9914  0906  00B8               	movwf	0+(?___ftpack)+03h
  9915  0907  084C               	movf	(___ftdiv@sign),w
  9916  0908  00C4               	movwf	(??___ftdiv+1)+0
  9917  0909  0844               	movf	(??___ftdiv+1)+0,w
  9918  090A  00B9               	movwf	0+(?___ftpack)+04h
  9919  090B  160A  118A  263F   	fcall	___ftpack
              120A  158A         
  9920  0910  1283               	bcf	status, 5	;RP0=0, select bank0
  9921  0911  1303               	bcf	status, 6	;RP1=0, select bank0
  9922  0912  0835               	movf	(0+(?___ftpack)),w
  9923  0913  00BD               	movwf	(?___ftdiv)
  9924  0914  0836               	movf	(1+(?___ftpack)),w
  9925  0915  00BE               	movwf	(?___ftdiv+1)
  9926  0916  0837               	movf	(2+(?___ftpack)),w
  9927  0917  00BF               	movwf	(?___ftdiv+2)
  9928  0918  2919               	goto	l546
  9929                           opt subtitle "HI-TECH Software Omniscient Code Generator (Lite mode) build 49521"
  9930  0919                     l5221:	
  9931                           opt subtitle "HI-TECH Software Omniscient Code Generator (Lite mode) build 49521"
  9932                           
  9933  0919                     l546:	
  9934  0919  0008               	return
  9935                           opt subtitle "HI-TECH Software Omniscient Code Generator (Lite mode) build 49521"
  9936                           
  9937  091A                     	__end_of___ftdiv:
  9938                           opt subtitle "HI-TECH Software Omniscient Code Generator (Lite mode) build 49521"
  9939                           
  9940                           opt pagewidth 120
  9941                           
  9942                           	opt lm
  9943                           
  9944                           	processor	16LF707
  9945                           clrc	macro
  9946                           	bcf	3,0
  9947                           	endm
  9948                           clrz	macro
  9949                           	bcf	3,2
  9950                           	endm
  9951                           setc	macro
  9952                           	bsf	3,0
  9953                           	endm
  9954                           setz	macro
  9955                           	bsf	3,2
  9956                           	endm
  9957                           skipc	macro
  9958                           	btfss	3,0
  9959                           	endm
  9960                           skipz	macro
  9961                           	btfss	3,2
  9962                           	endm
  9963                           skipnc	macro
  9964                           	btfsc	3,0
  9965                           	endm
  9966                           skipnz	macro
  9967                           	btfsc	3,2
  9968                           	endm
  9969                           indf	equ	0
  9970                           indf0	equ	0
  9971                           pc	equ	2
  9972                           pcl	equ	2
  9973                           status	equ	3
  9974                           fsr	equ	4
  9975  175A                     __ptext1307:	;psect for function ___fttol
  9976                           opt subtitle "HI-TECH Software Omniscient Code Generator (Lite mode) build 49521"
  9977                           
  9978                           opt pagewidth 120
  9979                           
  9980  00A6                     	__size_of___fttol	equ	__end_of___fttol-___fttol
  9981                           opt subtitle "HI-TECH Software Omniscient Code Generator (Lite mode) build 49521"
  9982  175A                     ___fttol:	
  9983                           opt subtitle "HI-TECH Software Omniscient Code Generator (Lite mode) build 49521"
  9984                           
  9985                           opt pagewidth 120
  9986                           
  9987  175A                     l5273:	
  9988  175A  1283               	bcf	status, 5	;RP0=0, select bank0
  9989  175B  1303               	bcf	status, 6	;RP1=0, select bank0
  9990  175C  0835               	movf	(___fttol@f1),w
  9991  175D  00B9               	movwf	((??___fttol+0)+0)
  9992  175E  0836               	movf	(___fttol@f1+1),w
  9993  175F  00BA               	movwf	((??___fttol+0)+0+1)
  9994  1760  0837               	movf	(___fttol@f1+2),w
  9995  1761  00BB               	movwf	((??___fttol+0)+0+2)
  9996  1762  1003               	clrc
  9997  1763  0D3A               	rlf	(??___fttol+0)+1,w
  9998  1764  0D3B               	rlf	(??___fttol+0)+2,w
  9999  1765  00BC               	movwf	(??___fttol+3)+0
 10000  1766  083C               	movf	(??___fttol+3)+0,w
 10001  1767  00C2               	movwf	(___fttol@exp1)
 10002  1768  08C2               	movf	((___fttol@exp1)),f
 10003  1769  1D03               	skipz
 10004  176A  2F6C               	goto	u5641
 10005  176B  2F6D               	goto	u5640
 10006  176C                     u5641:
 10007  176C  2F77               	goto	l5279
 10008  176D                     u5640:
 10009                           opt subtitle "HI-TECH Software Omniscient Code Generator (Lite mode) build 49521"
 10010                           
 10011  176D                     l5275:	
 10012  176D  3000               	movlw	0
 10013  176E  00B8               	movwf	(?___fttol+3)
 10014  176F  3000               	movlw	0
 10015  1770  00B7               	movwf	(?___fttol+2)
 10016  1771  3000               	movlw	0
 10017  1772  00B6               	movwf	(?___fttol+1)
 10018  1773  3000               	movlw	0
 10019  1774  00B5               	movwf	(?___fttol)
 10020                           opt subtitle "HI-TECH Software Omniscient Code Generator (Lite mode) build 49521"
 10021  1775  2FFF               	goto	l567
 10022                           opt subtitle "HI-TECH Software Omniscient Code Generator (Lite mode) build 49521"
 10023  1776                     l5277:	
 10024  1776  2FFF               	goto	l567
 10025                           opt subtitle "HI-TECH Software Omniscient Code Generator (Lite mode) build 49521"
 10026  1777                     l566:	
 10027                           opt subtitle "HI-TECH Software Omniscient Code Generator (Lite mode) build 49521"
 10028                           
 10029  1777                     l5279:	
 10030  1777  0835               	movf	(___fttol@f1),w
 10031  1778  00B9               	movwf	((??___fttol+0)+0)
 10032  1779  0836               	movf	(___fttol@f1+1),w
 10033  177A  00BA               	movwf	((??___fttol+0)+0+1)
 10034  177B  0837               	movf	(___fttol@f1+2),w
 10035  177C  00BB               	movwf	((??___fttol+0)+0+2)
 10036  177D  3017               	movlw	017h
 10037  177E                     u5655:
 10038  177E  1003               	clrc
 10039  177F  0CBB               	rrf	(??___fttol+0)+2,f
 10040  1780  0CBA               	rrf	(??___fttol+0)+1,f
 10041  1781  0CB9               	rrf	(??___fttol+0)+0,f
 10042  1782                     u5650:
 10043  1782  3EFF               	addlw	-1
 10044  1783  1D03               	skipz
 10045  1784  2F7E               	goto	u5655
 10046  1785  0839               	movf	0+(??___fttol+0)+0,w
 10047  1786  00BC               	movwf	(??___fttol+3)+0
 10048  1787  083C               	movf	(??___fttol+3)+0,w
 10049  1788  00BD               	movwf	(___fttol@sign1)
 10050                           opt subtitle "HI-TECH Software Omniscient Code Generator (Lite mode) build 49521"
 10051                           
 10052  1789                     l5281:	
 10053  1789  17B6               	bsf	(___fttol@f1)+(15/8),(15)&7
 10054                           opt subtitle "HI-TECH Software Omniscient Code Generator (Lite mode) build 49521"
 10055                           
 10056  178A                     l5283:	
 10057  178A  30FF               	movlw	0FFh
 10058  178B  05B5               	andwf	(___fttol@f1),f
 10059  178C  30FF               	movlw	0FFh
 10060  178D  05B6               	andwf	(___fttol@f1+1),f
 10061  178E  3000               	movlw	0
 10062  178F  05B7               	andwf	(___fttol@f1+2),f
 10063                           opt subtitle "HI-TECH Software Omniscient Code Generator (Lite mode) build 49521"
 10064                           
 10065  1790                     l5285:	
 10066  1790  0835               	movf	(___fttol@f1),w
 10067  1791  00BE               	movwf	(___fttol@lval)
 10068  1792  0836               	movf	(___fttol@f1+1),w
 10069  1793  00BF               	movwf	((___fttol@lval))+1
 10070  1794  0837               	movf	(___fttol@f1+2),w
 10071  1795  00C0               	movwf	((___fttol@lval))+2
 10072  1796  01C1               	clrf	((___fttol@lval))+3
 10073                           opt subtitle "HI-TECH Software Omniscient Code Generator (Lite mode) build 49521"
 10074                           
 10075  1797                     l5287:	
 10076  1797  308E               	movlw	low(08Eh)
 10077  1798  02C2               	subwf	(___fttol@exp1),f
 10078                           opt subtitle "HI-TECH Software Omniscient Code Generator (Lite mode) build 49521"
 10079                           
 10080  1799                     l5289:	
 10081  1799  1FC2               	btfss	(___fttol@exp1),7
 10082  179A  2F9C               	goto	u5661
 10083  179B  2F9D               	goto	u5660
 10084  179C                     u5661:
 10085  179C  2FC2               	goto	l5299
 10086  179D                     u5660:
 10087                           opt subtitle "HI-TECH Software Omniscient Code Generator (Lite mode) build 49521"
 10088                           
 10089  179D                     l5291:	
 10090  179D  0842               	movf	(___fttol@exp1),w
 10091  179E  3A80               	xorlw	80h
 10092  179F  3E8F               	addlw	-((-15)^80h)
 10093  17A0  1803               	skipnc
 10094  17A1  2FA3               	goto	u5671
 10095  17A2  2FA4               	goto	u5670
 10096  17A3                     u5671:
 10097  17A3  2FAF               	goto	l5297
 10098  17A4                     u5670:
 10099                           opt subtitle "HI-TECH Software Omniscient Code Generator (Lite mode) build 49521"
 10100                           
 10101  17A4                     l5293:	
 10102  17A4  3000               	movlw	0
 10103  17A5  00B8               	movwf	(?___fttol+3)
 10104  17A6  3000               	movlw	0
 10105  17A7  00B7               	movwf	(?___fttol+2)
 10106  17A8  3000               	movlw	0
 10107  17A9  00B6               	movwf	(?___fttol+1)
 10108  17AA  3000               	movlw	0
 10109  17AB  00B5               	movwf	(?___fttol)
 10110                           opt subtitle "HI-TECH Software Omniscient Code Generator (Lite mode) build 49521"
 10111  17AC  2FFF               	goto	l567
 10112                           opt subtitle "HI-TECH Software Omniscient Code Generator (Lite mode) build 49521"
 10113  17AD                     l5295:	
 10114  17AD  2FFF               	goto	l567
 10115                           opt subtitle "HI-TECH Software Omniscient Code Generator (Lite mode) build 49521"
 10116  17AE                     l569:	
 10117  17AE  2FAF               	goto	l5297
 10118                           opt subtitle "HI-TECH Software Omniscient Code Generator (Lite mode) build 49521"
 10119                           
 10120  17AF                     l570:	
 10121                           opt subtitle "HI-TECH Software Omniscient Code Generator (Lite mode) build 49521"
 10122                           
 10123  17AF                     l5297:	
 10124  17AF  3001               	movlw	01h
 10125  17B0                     u5685:
 10126  17B0  1003               	clrc
 10127  17B1  0CC1               	rrf	(___fttol@lval+3),f
 10128  17B2  0CC0               	rrf	(___fttol@lval+2),f
 10129  17B3  0CBF               	rrf	(___fttol@lval+1),f
 10130  17B4  0CBE               	rrf	(___fttol@lval),f
 10131  17B5  3EFF               	addlw	-1
 10132  17B6  1D03               	skipz
 10133  17B7  2FB0               	goto	u5685
 10134                           opt subtitle "HI-TECH Software Omniscient Code Generator (Lite mode) build 49521"
 10135                           
 10136  17B8  3001               	movlw	(01h)
 10137  17B9  00B9               	movwf	(??___fttol+0)+0
 10138  17BA  0839               	movf	(??___fttol+0)+0,w
 10139  17BB  07C2               	addwf	(___fttol@exp1),f
 10140  17BC  1D03               	btfss	status,2
 10141  17BD  2FBF               	goto	u5691
 10142  17BE  2FC0               	goto	u5690
 10143  17BF                     u5691:
 10144  17BF  2FAF               	goto	l5297
 10145  17C0                     u5690:
 10146  17C0  2FE6               	goto	l5309
 10147                           opt subtitle "HI-TECH Software Omniscient Code Generator (Lite mode) build 49521"
 10148  17C1                     l571:	
 10149                           opt subtitle "HI-TECH Software Omniscient Code Generator (Lite mode) build 49521"
 10150  17C1  2FE6               	goto	l5309
 10151                           opt subtitle "HI-TECH Software Omniscient Code Generator (Lite mode) build 49521"
 10152  17C2                     l568:	
 10153                           opt subtitle "HI-TECH Software Omniscient Code Generator (Lite mode) build 49521"
 10154                           
 10155  17C2                     l5299:	
 10156  17C2  3018               	movlw	(018h)
 10157  17C3  0242               	subwf	(___fttol@exp1),w
 10158  17C4  1C03               	skipc
 10159  17C5  2FC7               	goto	u5701
 10160  17C6  2FC8               	goto	u5700
 10161  17C7                     u5701:
 10162  17C7  2FDF               	goto	l5307
 10163  17C8                     u5700:
 10164                           opt subtitle "HI-TECH Software Omniscient Code Generator (Lite mode) build 49521"
 10165                           
 10166  17C8                     l5301:	
 10167  17C8  3000               	movlw	0
 10168  17C9  00B8               	movwf	(?___fttol+3)
 10169  17CA  3000               	movlw	0
 10170  17CB  00B7               	movwf	(?___fttol+2)
 10171  17CC  3000               	movlw	0
 10172  17CD  00B6               	movwf	(?___fttol+1)
 10173  17CE  3000               	movlw	0
 10174  17CF  00B5               	movwf	(?___fttol)
 10175                           opt subtitle "HI-TECH Software Omniscient Code Generator (Lite mode) build 49521"
 10176  17D0  2FFF               	goto	l567
 10177                           opt subtitle "HI-TECH Software Omniscient Code Generator (Lite mode) build 49521"
 10178  17D1                     l5303:	
 10179  17D1  2FFF               	goto	l567
 10180                           opt subtitle "HI-TECH Software Omniscient Code Generator (Lite mode) build 49521"
 10181  17D2                     l573:	
 10182                           opt subtitle "HI-TECH Software Omniscient Code Generator (Lite mode) build 49521"
 10183  17D2  2FDF               	goto	l5307
 10184                           opt subtitle "HI-TECH Software Omniscient Code Generator (Lite mode) build 49521"
 10185  17D3                     l575:	
 10186                           opt subtitle "HI-TECH Software Omniscient Code Generator (Lite mode) build 49521"
 10187                           
 10188  17D3                     l5305:	
 10189  17D3  3001               	movlw	01h
 10190  17D4  00B9               	movwf	(??___fttol+0)+0
 10191  17D5                     u5715:
 10192  17D5  1003               	clrc
 10193  17D6  0DBE               	rlf	(___fttol@lval),f
 10194  17D7  0DBF               	rlf	(___fttol@lval+1),f
 10195  17D8  0DC0               	rlf	(___fttol@lval+2),f
 10196  17D9  0DC1               	rlf	(___fttol@lval+3),f
 10197  17DA  0BB9               	decfsz	(??___fttol+0)+0
 10198  17DB  2FD5               	goto	u5715
 10199                           opt subtitle "HI-TECH Software Omniscient Code Generator (Lite mode) build 49521"
 10200  17DC  3001               	movlw	low(01h)
 10201  17DD  02C2               	subwf	(___fttol@exp1),f
 10202  17DE  2FDF               	goto	l5307
 10203                           opt subtitle "HI-TECH Software Omniscient Code Generator (Lite mode) build 49521"
 10204                           
 10205  17DF                     l574:	
 10206                           opt subtitle "HI-TECH Software Omniscient Code Generator (Lite mode) build 49521"
 10207                           
 10208  17DF                     l5307:	
 10209  17DF  08C2               	movf	(___fttol@exp1),f
 10210  17E0  1D03               	skipz
 10211  17E1  2FE3               	goto	u5721
 10212  17E2  2FE4               	goto	u5720
 10213  17E3                     u5721:
 10214  17E3  2FD3               	goto	l5305
 10215  17E4                     u5720:
 10216  17E4  2FE6               	goto	l5309
 10217                           opt subtitle "HI-TECH Software Omniscient Code Generator (Lite mode) build 49521"
 10218  17E5                     l576:	
 10219  17E5  2FE6               	goto	l5309
 10220                           opt subtitle "HI-TECH Software Omniscient Code Generator (Lite mode) build 49521"
 10221                           
 10222  17E6                     l572:	
 10223                           opt subtitle "HI-TECH Software Omniscient Code Generator (Lite mode) build 49521"
 10224                           
 10225  17E6                     l5309:	
 10226  17E6  083D               	movf	(___fttol@sign1),w
 10227  17E7  1D03               	skipz
 10228  17E8  2FEA               	goto	u5730
 10229  17E9  2FF6               	goto	l5313
 10230  17EA                     u5730:
 10231                           opt subtitle "HI-TECH Software Omniscient Code Generator (Lite mode) build 49521"
 10232                           
 10233  17EA                     l5311:	
 10234  17EA  09BE               	comf	(___fttol@lval),f
 10235  17EB  09BF               	comf	(___fttol@lval+1),f
 10236  17EC  09C0               	comf	(___fttol@lval+2),f
 10237  17ED  09C1               	comf	(___fttol@lval+3),f
 10238  17EE  0ABE               	incf	(___fttol@lval),f
 10239  17EF  1903               	skipnz
 10240  17F0  0ABF               	incf	(___fttol@lval+1),f
 10241  17F1  1903               	skipnz
 10242  17F2  0AC0               	incf	(___fttol@lval+2),f
 10243  17F3  1903               	skipnz
 10244  17F4  0AC1               	incf	(___fttol@lval+3),f
 10245  17F5  2FF6               	goto	l5313
 10246                           opt subtitle "HI-TECH Software Omniscient Code Generator (Lite mode) build 49521"
 10247  17F6                     l577:	
 10248                           opt subtitle "HI-TECH Software Omniscient Code Generator (Lite mode) build 49521"
 10249                           
 10250  17F6                     l5313:	
 10251  17F6  0841               	movf	(___fttol@lval+3),w
 10252  17F7  00B8               	movwf	(?___fttol+3)
 10253  17F8  0840               	movf	(___fttol@lval+2),w
 10254  17F9  00B7               	movwf	(?___fttol+2)
 10255  17FA  083F               	movf	(___fttol@lval+1),w
 10256  17FB  00B6               	movwf	(?___fttol+1)
 10257  17FC  083E               	movf	(___fttol@lval),w
 10258  17FD  00B5               	movwf	(?___fttol)
 10259                           opt subtitle "HI-TECH Software Omniscient Code Generator (Lite mode) build 49521"
 10260  17FE  2FFF               	goto	l567
 10261                           opt subtitle "HI-TECH Software Omniscient Code Generator (Lite mode) build 49521"
 10262  17FF                     l5315:	
 10263                           opt subtitle "HI-TECH Software Omniscient Code Generator (Lite mode) build 49521"
 10264                           
 10265  17FF                     l567:	
 10266  17FF  0008               	return
 10267                           opt subtitle "HI-TECH Software Omniscient Code Generator (Lite mode) build 49521"
 10268                           
 10269  1800                     	__end_of___fttol:
 10270                           opt subtitle "HI-TECH Software Omniscient Code Generator (Lite mode) build 49521"
 10271                           
 10272                           opt pagewidth 120
 10273                           
 10274                           	opt lm
 10275                           
 10276                           	processor	16LF707
 10277                           clrc	macro
 10278                           	bcf	3,0
 10279                           	endm
 10280                           clrz	macro
 10281                           	bcf	3,2
 10282                           	endm
 10283                           setc	macro
 10284                           	bsf	3,0
 10285                           	endm
 10286                           setz	macro
 10287                           	bsf	3,2
 10288                           	endm
 10289                           skipc	macro
 10290                           	btfss	3,0
 10291                           	endm
 10292                           skipz	macro
 10293                           	btfss	3,2
 10294                           	endm
 10295                           skipnc	macro
 10296                           	btfsc	3,0
 10297                           	endm
 10298                           skipnz	macro
 10299                           	btfsc	3,2
 10300                           	endm
 10301                           indf	equ	0
 10302                           indf0	equ	0
 10303                           pc	equ	2
 10304  1305                     __ptext1308:	;psect for function ___lbtoft
 10305                           opt subtitle "HI-TECH Software Omniscient Code Generator (Lite mode) build 49521"
 10306                           
 10307                           opt pagewidth 120
 10308                           
 10309  0021                     	__size_of___lbtoft	equ	__end_of___lbtoft-___lbtoft
 10310                           opt subtitle "HI-TECH Software Omniscient Code Generator (Lite mode) build 49521"
 10311  1305                     ___lbtoft:	
 10312                           opt subtitle "HI-TECH Software Omniscient Code Generator (Lite mode) build 49521"
 10313                           
 10314                           opt pagewidth 120
 10315  1305  1283               	bcf	status, 5	;RP0=0, select bank0
 10316  1306  1303               	bcf	status, 6	;RP1=0, select bank0
 10317  1307  00C4               	movwf	(___lbtoft@c)
 10318                           opt subtitle "HI-TECH Software Omniscient Code Generator (Lite mode) build 49521"
 10319                           
 10320  1308                     l5317:	
 10321  1308  0844               	movf	(___lbtoft@c),w
 10322  1309  00C0               	movwf	((??___lbtoft+0)+0)
 10323  130A  01C1               	clrf	((??___lbtoft+0)+0+1)
 10324  130B  01C2               	clrf	((??___lbtoft+0)+0+2)
 10325  130C  0840               	movf	0+(??___lbtoft+0)+0,w
 10326  130D  00B5               	movwf	(?___ftpack)
 10327  130E  0841               	movf	1+(??___lbtoft+0)+0,w
 10328  130F  00B6               	movwf	(?___ftpack+1)
 10329  1310  0842               	movf	2+(??___lbtoft+0)+0,w
 10330  1311  00B7               	movwf	(?___ftpack+2)
 10331  1312  308E               	movlw	(08Eh)
 10332  1313  00C3               	movwf	(??___lbtoft+3)+0
 10333  1314  0843               	movf	(??___lbtoft+3)+0,w
 10334  1315  00B8               	movwf	0+(?___ftpack)+03h
 10335  1316  01B9               	clrf	0+(?___ftpack)+04h
 10336  1317  160A  118A  263F   	fcall	___ftpack
              160A  118A         
 10337  131C  1283               	bcf	status, 5	;RP0=0, select bank0
 10338  131D  1303               	bcf	status, 6	;RP1=0, select bank0
 10339  131E  0835               	movf	(0+(?___ftpack)),w
 10340  131F  00BD               	movwf	(?___lbtoft)
 10341  1320  0836               	movf	(1+(?___ftpack)),w
 10342  1321  00BE               	movwf	(?___lbtoft+1)
 10343  1322  0837               	movf	(2+(?___ftpack)),w
 10344  1323  00BF               	movwf	(?___lbtoft+2)
 10345  1324  2B25               	goto	l582
 10346                           opt subtitle "HI-TECH Software Omniscient Code Generator (Lite mode) build 49521"
 10347  1325                     l5319:	
 10348                           opt subtitle "HI-TECH Software Omniscient Code Generator (Lite mode) build 49521"
 10349                           
 10350  1325                     l582:	
 10351  1325  0008               	return
 10352                           opt subtitle "HI-TECH Software Omniscient Code Generator (Lite mode) build 49521"
 10353                           
 10354  1326                     	__end_of___lbtoft:
 10355                           opt subtitle "HI-TECH Software Omniscient Code Generator (Lite mode) build 49521"
 10356                           
 10357                           opt pagewidth 120
 10358                           
 10359                           	opt lm
 10360                           
 10361                           	processor	16LF707
 10362                           clrc	macro
 10363                           	bcf	3,0
 10364                           	endm
 10365                           clrz	macro
 10366                           	bcf	3,2
 10367                           	endm
 10368                           setc	macro
 10369                           	bsf	3,0
 10370                           	endm
 10371                           setz	macro
 10372                           	bsf	3,2
 10373                           	endm
 10374                           skipc	macro
 10375                           	btfss	3,0
 10376                           	endm
 10377                           skipz	macro
 10378                           	btfss	3,2
 10379                           	endm
 10380                           skipnc	macro
 10381                           	btfsc	3,0
 10382                           	endm
 10383                           skipnz	macro
 10384                           	btfsc	3,2
 10385                           	endm
 10386                           indf	equ	0
 10387                           indf0	equ	0
 10388                           pc	equ	2
 10389                           pcl	equ	2
 10390                           status	equ	3
 10391                           fsr	equ	4
 10392                           fsr0	equ	4
 10393  163F                     __ptext1309:	;psect for function ___ftpack
 10394                           opt subtitle "HI-TECH Software Omniscient Code Generator (Lite mode) build 49521"
 10395                           
 10396                           opt pagewidth 120
 10397                           
 10398  007D                     	__size_of___ftpack	equ	__end_of___ftpack-___ftpack
 10399                           opt subtitle "HI-TECH Software Omniscient Code Generator (Lite mode) build 49521"
 10400  163F                     ___ftpack:	
 10401                           opt subtitle "HI-TECH Software Omniscient Code Generator (Lite mode) build 49521"
 10402                           
 10403                           opt pagewidth 120
 10404                           
 10405  163F                     l5151:	
 10406  163F  1283               	bcf	status, 5	;RP0=0, select bank0
 10407  1640  1303               	bcf	status, 6	;RP1=0, select bank0
 10408  1641  0838               	movf	(___ftpack@exp),w
 10409  1642  1D03               	skipz
 10410  1643  2E45               	goto	u5310
 10411  1644  2E4D               	goto	l5155
 10412  1645                     u5310:
 10413                           opt subtitle "HI-TECH Software Omniscient Code Generator (Lite mode) build 49521"
 10414  1645                     l5153:	
 10415  1645  0837               	movf	(___ftpack@arg+2),w
 10416  1646  0436               	iorwf	(___ftpack@arg+1),w
 10417  1647  0435               	iorwf	(___ftpack@arg),w
 10418  1648  1D03               	skipz
 10419  1649  2E4B               	goto	u5321
 10420  164A  2E4C               	goto	u5320
 10421  164B                     u5321:
 10422  164B  2E63               	goto	l5161
 10423  164C                     u5320:
 10424  164C  2E4D               	goto	l5155
 10425                           opt subtitle "HI-TECH Software Omniscient Code Generator (Lite mode) build 49521"
 10426  164D                     l791:	
 10427                           opt subtitle "HI-TECH Software Omniscient Code Generator (Lite mode) build 49521"
 10428                           
 10429  164D                     l5155:	
 10430  164D  3000               	movlw	0x0
 10431  164E  00B5               	movwf	(?___ftpack)
 10432  164F  3000               	movlw	0x0
 10433  1650  00B6               	movwf	(?___ftpack+1)
 10434  1651  3000               	movlw	0x0
 10435  1652  00B7               	movwf	(?___ftpack+2)
 10436  1653  2EBB               	goto	l792
 10437                           opt subtitle "HI-TECH Software Omniscient Code Generator (Lite mode) build 49521"
 10438  1654                     l5157:	
 10439  1654  2EBB               	goto	l792
 10440                           opt subtitle "HI-TECH Software Omniscient Code Generator (Lite mode) build 49521"
 10441  1655                     l789:	
 10442                           opt subtitle "HI-TECH Software Omniscient Code Generator (Lite mode) build 49521"
 10443  1655  2E63               	goto	l5161
 10444                           opt subtitle "HI-TECH Software Omniscient Code Generator (Lite mode) build 49521"
 10445  1656                     l794:	
 10446                           opt subtitle "HI-TECH Software Omniscient Code Generator (Lite mode) build 49521"
 10447                           
 10448  1656                     l5159:	
 10449  1656  3001               	movlw	(01h)
 10450  1657  00BA               	movwf	(??___ftpack+0)+0
 10451  1658  083A               	movf	(??___ftpack+0)+0,w
 10452  1659  07B8               	addwf	(___ftpack@exp),f
 10453                           opt subtitle "HI-TECH Software Omniscient Code Generator (Lite mode) build 49521"
 10454  165A  3001               	movlw	01h
 10455  165B                     u5335:
 10456  165B  1003               	clrc
 10457  165C  0CB7               	rrf	(___ftpack@arg+2),f
 10458  165D  0CB6               	rrf	(___ftpack@arg+1),f
 10459  165E  0CB5               	rrf	(___ftpack@arg),f
 10460  165F  3EFF               	addlw	-1
 10461  1660  1D03               	skipz
 10462  1661  2E5B               	goto	u5335
 10463                           opt subtitle "HI-TECH Software Omniscient Code Generator (Lite mode) build 49521"
 10464  1662  2E63               	goto	l5161
 10465                           opt subtitle "HI-TECH Software Omniscient Code Generator (Lite mode) build 49521"
 10466                           
 10467  1663                     l793:	
 10468                           opt subtitle "HI-TECH Software Omniscient Code Generator (Lite mode) build 49521"
 10469                           
 10470  1663                     l5161:	
 10471  1663  30FE               	movlw	low highword(0FE0000h)
 10472  1664  0537               	andwf	(___ftpack@arg+2),w
 10473  1665  1D03               	btfss	status,2
 10474  1666  2E68               	goto	u5341
 10475  1667  2E69               	goto	u5340
 10476  1668                     u5341:
 10477  1668  2E56               	goto	l5159
 10478  1669                     u5340:
 10479  1669  2E81               	goto	l796
 10480                           opt subtitle "HI-TECH Software Omniscient Code Generator (Lite mode) build 49521"
 10481  166A                     l795:	
 10482                           opt subtitle "HI-TECH Software Omniscient Code Generator (Lite mode) build 49521"
 10483  166A  2E81               	goto	l796
 10484                           opt subtitle "HI-TECH Software Omniscient Code Generator (Lite mode) build 49521"
 10485  166B                     l797:	
 10486                           opt subtitle "HI-TECH Software Omniscient Code Generator (Lite mode) build 49521"
 10487                           
 10488  166B                     l5163:	
 10489  166B  3001               	movlw	(01h)
 10490  166C  00BA               	movwf	(??___ftpack+0)+0
 10491  166D  083A               	movf	(??___ftpack+0)+0,w
 10492  166E  07B8               	addwf	(___ftpack@exp),f
 10493                           opt subtitle "HI-TECH Software Omniscient Code Generator (Lite mode) build 49521"
 10494                           
 10495  166F                     l5165:	
 10496  166F  3001               	movlw	01h
 10497  1670  07B5               	addwf	(___ftpack@arg),f
 10498  1671  3000               	movlw	0
 10499  1672  1803               	skipnc
 10500  1673  3001               movlw 1
 10501  1674  07B6               	addwf	(___ftpack@arg+1),f
 10502  1675  3000               	movlw	0
 10503  1676  1803               	skipnc
 10504  1677  3001               movlw 1
 10505  1678  07B7               	addwf	(___ftpack@arg+2),f
 10506                           opt subtitle "HI-TECH Software Omniscient Code Generator (Lite mode) build 49521"
 10507                           
 10508  1679                     l5167:	
 10509  1679  3001               	movlw	01h
 10510  167A                     u5355:
 10511  167A  1003               	clrc
 10512  167B  0CB7               	rrf	(___ftpack@arg+2),f
 10513  167C  0CB6               	rrf	(___ftpack@arg+1),f
 10514  167D  0CB5               	rrf	(___ftpack@arg),f
 10515  167E  3EFF               	addlw	-1
 10516  167F  1D03               	skipz
 10517  1680  2E7A               	goto	u5355
 10518                           opt subtitle "HI-TECH Software Omniscient Code Generator (Lite mode) build 49521"
 10519                           
 10520                           opt pagewidth 120
 10521  1681                     l796:	
 10522                           opt subtitle "HI-TECH Software Omniscient Code Generator (Lite mode) build 49521"
 10523  1681  30FF               	movlw	low highword(0FF0000h)
 10524  1682  0537               	andwf	(___ftpack@arg+2),w
 10525  1683  1D03               	btfss	status,2
 10526  1684  2E86               	goto	u5361
 10527  1685  2E87               	goto	u5360
 10528  1686                     u5361:
 10529  1686  2E6B               	goto	l5163
 10530  1687                     u5360:
 10531  1687  2E94               	goto	l5171
 10532                           opt subtitle "HI-TECH Software Omniscient Code Generator (Lite mode) build 49521"
 10533  1688                     l798:	
 10534                           opt subtitle "HI-TECH Software Omniscient Code Generator (Lite mode) build 49521"
 10535  1688  2E94               	goto	l5171
 10536                           opt subtitle "HI-TECH Software Omniscient Code Generator (Lite mode) build 49521"
 10537  1689                     l800:	
 10538                           opt subtitle "HI-TECH Software Omniscient Code Generator (Lite mode) build 49521"
 10539                           
 10540  1689                     l5169:	
 10541  1689  3001               	movlw	low(01h)
 10542  168A  02B8               	subwf	(___ftpack@exp),f
 10543                           opt subtitle "HI-TECH Software Omniscient Code Generator (Lite mode) build 49521"
 10544  168B  3001               	movlw	01h
 10545  168C                     u5375:
 10546  168C  1003               	clrc
 10547  168D  0DB5               	rlf	(___ftpack@arg),f
 10548  168E  0DB6               	rlf	(___ftpack@arg+1),f
 10549  168F  0DB7               	rlf	(___ftpack@arg+2),f
 10550  1690  3EFF               	addlw	-1
 10551  1691  1D03               	skipz
 10552  1692  2E8C               	goto	u5375
 10553  1693  2E94               	goto	l5171
 10554                           opt subtitle "HI-TECH Software Omniscient Code Generator (Lite mode) build 49521"
 10555                           
 10556  1694                     l799:	
 10557                           opt subtitle "HI-TECH Software Omniscient Code Generator (Lite mode) build 49521"
 10558                           
 10559  1694                     l5171:	
 10560  1694  1FB6               	btfss	(___ftpack@arg+1),(15)&7
 10561  1695  2E97               	goto	u5381
 10562  1696  2E98               	goto	u5380
 10563  1697                     u5381:
 10564  1697  2E89               	goto	l5169
 10565  1698                     u5380:
 10566                           opt subtitle "HI-TECH Software Omniscient Code Generator (Lite mode) build 49521"
 10567  1698                     l801:	
 10568                           opt subtitle "HI-TECH Software Omniscient Code Generator (Lite mode) build 49521"
 10569  1698  1838               	btfsc	(___ftpack@exp),(0)&7
 10570  1699  2E9B               	goto	u5391
 10571  169A  2E9C               	goto	u5390
 10572  169B                     u5391:
 10573  169B  2EA2               	goto	l802
 10574  169C                     u5390:
 10575                           opt subtitle "HI-TECH Software Omniscient Code Generator (Lite mode) build 49521"
 10576                           
 10577  169C                     l5173:	
 10578  169C  30FF               	movlw	0FFh
 10579  169D  05B5               	andwf	(___ftpack@arg),f
 10580  169E  307F               	movlw	07Fh
 10581  169F  05B6               	andwf	(___ftpack@arg+1),f
 10582  16A0  30FF               	movlw	0FFh
 10583  16A1  05B7               	andwf	(___ftpack@arg+2),f
 10584                           opt subtitle "HI-TECH Software Omniscient Code Generator (Lite mode) build 49521"
 10585  16A2                     l802:	
 10586                           opt subtitle "HI-TECH Software Omniscient Code Generator (Lite mode) build 49521"
 10587  16A2  1003               	clrc
 10588  16A3  0CB8               	rrf	(___ftpack@exp),f
 10589                           opt subtitle "HI-TECH Software Omniscient Code Generator (Lite mode) build 49521"
 10590                           
 10591                           opt pagewidth 120
 10592  16A4                     l5175:	
 10593  16A4  0838               	movf	(___ftpack@exp),w
 10594  16A5  00BA               	movwf	((??___ftpack+0)+0)
 10595  16A6  01BB               	clrf	((??___ftpack+0)+0+1)
 10596  16A7  01BC               	clrf	((??___ftpack+0)+0+2)
 10597  16A8  3010               	movlw	010h
 10598  16A9                     u5405:
 10599  16A9  1003               	clrc
 10600  16AA  0DBA               	rlf	(??___ftpack+0)+0,f
 10601  16AB  0DBB               	rlf	(??___ftpack+0)+1,f
 10602  16AC  0DBC               	rlf	(??___ftpack+0)+2,f
 10603  16AD                     u5400:
 10604  16AD  3EFF               	addlw	-1
 10605  16AE  1D03               	skipz
 10606  16AF  2EA9               	goto	u5405
 10607  16B0  083A               	movf	0+(??___ftpack+0)+0,w
 10608  16B1  04B5               	iorwf	(___ftpack@arg),f
 10609  16B2  083B               	movf	1+(??___ftpack+0)+0,w
 10610  16B3  04B6               	iorwf	(___ftpack@arg+1),f
 10611  16B4  083C               	movf	2+(??___ftpack+0)+0,w
 10612  16B5  04B7               	iorwf	(___ftpack@arg+2),f
 10613                           opt subtitle "HI-TECH Software Omniscient Code Generator (Lite mode) build 49521"
 10614                           
 10615  16B6                     l5177:	
 10616  16B6  0839               	movf	(___ftpack@sign),w
 10617  16B7  1D03               	skipz
 10618  16B8  2EBA               	goto	u5410
 10619  16B9  2EBB               	goto	l803
 10620  16BA                     u5410:
 10621                           opt subtitle "HI-TECH Software Omniscient Code Generator (Lite mode) build 49521"
 10622                           
 10623  16BA                     l5179:	
 10624  16BA  17B7               	bsf	(___ftpack@arg)+(23/8),(23)&7
 10625                           opt subtitle "HI-TECH Software Omniscient Code Generator (Lite mode) build 49521"
 10626  16BB                     l803:	
 10627                           opt subtitle "HI-TECH Software Omniscient Code Generator (Lite mode) build 49521"
 10628                           
 10629                           opt pagewidth 120
 10630  16BB                     l792:	
 10631  16BB  0008               	return
 10632                           opt subtitle "HI-TECH Software Omniscient Code Generator (Lite mode) build 49521"
 10633                           
 10634  16BC                     	__end_of___ftpack:
 10635                           opt subtitle "HI-TECH Software Omniscient Code Generator (Lite mode) build 49521"
 10636                           
 10637                           opt pagewidth 120
 10638                           
 10639                           	opt lm
 10640                           
 10641                           	processor	16LF707
 10642                           clrc	macro
 10643                           	bcf	3,0
 10644                           	endm
 10645                           clrz	macro
 10646                           	bcf	3,2
 10647                           	endm
 10648                           setc	macro
 10649                           	bsf	3,0
 10650                           	endm
 10651                           setz	macro
 10652                           	bsf	3,2
 10653                           	endm
 10654                           skipc	macro
 10655                           	btfss	3,0
 10656                           	endm
 10657                           skipz	macro
 10658                           	btfss	3,2
 10659                           	endm
 10660                           skipnc	macro
 10661                           	btfsc	3,0
 10662                           	endm
 10663                           skipnz	macro
 10664                           	btfsc	3,2
 10665                           	endm
 10666                           indf	equ	0
 10667                           indf0	equ	0
 10668                           pc	equ	2
 10669                           pcl	equ	2
 10670                           status	equ	3
 10671                           fsr	equ	4
 10672  15CB                     __ptext1310:	;psect for function ___awdiv
 10673                           opt subtitle "HI-TECH Software Omniscient Code Generator (Lite mode) build 49521"
 10674                           
 10675                           opt pagewidth 120
 10676                           
 10677  0074                     	__size_of___awdiv	equ	__end_of___awdiv-___awdiv
 10678                           opt subtitle "HI-TECH Software Omniscient Code Generator (Lite mode) build 49521"
 10679  15CB                     ___awdiv:	
 10680                           opt subtitle "HI-TECH Software Omniscient Code Generator (Lite mode) build 49521"
 10681                           
 10682                           opt pagewidth 120
 10683                           
 10684  15CB                     l5321:	
 10685  15CB  1283               	bcf	status, 5	;RP0=0, select bank0
 10686  15CC  1303               	bcf	status, 6	;RP1=0, select bank0
 10687  15CD  01C1               	clrf	(___awdiv@sign)
 10688                           opt subtitle "HI-TECH Software Omniscient Code Generator (Lite mode) build 49521"
 10689  15CE  1FBC               	btfss	(___awdiv@divisor+1),7
 10690  15CF  2DD1               	goto	u5741
 10691  15D0  2DD2               	goto	u5740
 10692  15D1                     u5741:
 10693  15D1  2DDA               	goto	l5327
 10694  15D2                     u5740:
 10695                           opt subtitle "HI-TECH Software Omniscient Code Generator (Lite mode) build 49521"
 10696                           
 10697  15D2                     l5323:	
 10698  15D2  09BB               	comf	(___awdiv@divisor),f
 10699  15D3  09BC               	comf	(___awdiv@divisor+1),f
 10700  15D4  0ABB               	incf	(___awdiv@divisor),f
 10701  15D5  1903               	skipnz
 10702  15D6  0ABC               	incf	(___awdiv@divisor+1),f
 10703                           opt subtitle "HI-TECH Software Omniscient Code Generator (Lite mode) build 49521"
 10704                           
 10705  15D7                     l5325:	
 10706  15D7  01C1               	clrf	(___awdiv@sign)
 10707  15D8  0AC1               	incf	(___awdiv@sign),f
 10708  15D9  2DDA               	goto	l5327
 10709                           opt subtitle "HI-TECH Software Omniscient Code Generator (Lite mode) build 49521"
 10710                           
 10711  15DA                     l597:	
 10712                           opt subtitle "HI-TECH Software Omniscient Code Generator (Lite mode) build 49521"
 10713                           
 10714  15DA                     l5327:	
 10715  15DA  1FBE               	btfss	(___awdiv@dividend+1),7
 10716  15DB  2DDD               	goto	u5751
 10717  15DC  2DDE               	goto	u5750
 10718  15DD                     u5751:
 10719  15DD  2DE8               	goto	l5333
 10720  15DE                     u5750:
 10721                           opt subtitle "HI-TECH Software Omniscient Code Generator (Lite mode) build 49521"
 10722                           
 10723  15DE                     l5329:	
 10724  15DE  09BD               	comf	(___awdiv@dividend),f
 10725  15DF  09BE               	comf	(___awdiv@dividend+1),f
 10726  15E0  0ABD               	incf	(___awdiv@dividend),f
 10727  15E1  1903               	skipnz
 10728  15E2  0ABE               	incf	(___awdiv@dividend+1),f
 10729                           opt subtitle "HI-TECH Software Omniscient Code Generator (Lite mode) build 49521"
 10730                           
 10731  15E3                     l5331:	
 10732  15E3  3001               	movlw	(01h)
 10733  15E4  00BF               	movwf	(??___awdiv+0)+0
 10734  15E5  083F               	movf	(??___awdiv+0)+0,w
 10735  15E6  06C1               	xorwf	(___awdiv@sign),f
 10736  15E7  2DE8               	goto	l5333
 10737                           opt subtitle "HI-TECH Software Omniscient Code Generator (Lite mode) build 49521"
 10738                           
 10739  15E8                     l598:	
 10740                           opt subtitle "HI-TECH Software Omniscient Code Generator (Lite mode) build 49521"
 10741                           
 10742  15E8                     l5333:	
 10743  15E8  01C2               	clrf	(___awdiv@quotient)
 10744  15E9  01C3               	clrf	(___awdiv@quotient+1)
 10745                           opt subtitle "HI-TECH Software Omniscient Code Generator (Lite mode) build 49521"
 10746                           
 10747  15EA                     l5335:	
 10748  15EA  083C               	movf	(___awdiv@divisor+1),w
 10749  15EB  043B               	iorwf	(___awdiv@divisor),w
 10750  15EC  1903               	skipnz
 10751  15ED  2DEF               	goto	u5761
 10752  15EE  2DF0               	goto	u5760
 10753  15EF                     u5761:
 10754  15EF  2E2D               	goto	l5355
 10755  15F0                     u5760:
 10756                           opt subtitle "HI-TECH Software Omniscient Code Generator (Lite mode) build 49521"
 10757                           
 10758  15F0                     l5337:	
 10759  15F0  01C0               	clrf	(___awdiv@counter)
 10760  15F1  0AC0               	incf	(___awdiv@counter),f
 10761                           opt subtitle "HI-TECH Software Omniscient Code Generator (Lite mode) build 49521"
 10762  15F2  2DFF               	goto	l5343
 10763                           opt subtitle "HI-TECH Software Omniscient Code Generator (Lite mode) build 49521"
 10764  15F3                     l601:	
 10765                           opt subtitle "HI-TECH Software Omniscient Code Generator (Lite mode) build 49521"
 10766                           
 10767  15F3                     l5339:	
 10768  15F3  3001               	movlw	01h
 10769                           opt subtitle "HI-TECH Software Omniscient Code Generator (Lite mode) build 49521"
 10770  15F4                     u5775:
 10771  15F4  1003               	clrc
 10772  15F5  0DBB               	rlf	(___awdiv@divisor),f
 10773  15F6  0DBC               	rlf	(___awdiv@divisor+1),f
 10774  15F7  3EFF               	addlw	-1
 10775  15F8  1D03               	skipz
 10776  15F9  2DF4               	goto	u5775
 10777                           opt subtitle "HI-TECH Software Omniscient Code Generator (Lite mode) build 49521"
 10778                           
 10779  15FA                     l5341:	
 10780  15FA  3001               	movlw	(01h)
 10781  15FB  00BF               	movwf	(??___awdiv+0)+0
 10782  15FC  083F               	movf	(??___awdiv+0)+0,w
 10783  15FD  07C0               	addwf	(___awdiv@counter),f
 10784  15FE  2DFF               	goto	l5343
 10785                           opt subtitle "HI-TECH Software Omniscient Code Generator (Lite mode) build 49521"
 10786                           
 10787  15FF                     l600:	
 10788                           opt subtitle "HI-TECH Software Omniscient Code Generator (Lite mode) build 49521"
 10789                           
 10790  15FF                     l5343:	
 10791  15FF  1FBC               	btfss	(___awdiv@divisor+1),(15)&7
 10792  1600  2E02               	goto	u5781
 10793  1601  2E03               	goto	u5780
 10794  1602                     u5781:
 10795  1602  2DF3               	goto	l5339
 10796  1603                     u5780:
 10797  1603  2E05               	goto	l5345
 10798                           opt subtitle "HI-TECH Software Omniscient Code Generator (Lite mode) build 49521"
 10799  1604                     l602:	
 10800  1604  2E05               	goto	l5345
 10801                           opt subtitle "HI-TECH Software Omniscient Code Generator (Lite mode) build 49521"
 10802                           
 10803  1605                     l603:	
 10804                           opt subtitle "HI-TECH Software Omniscient Code Generator (Lite mode) build 49521"
 10805                           
 10806  1605                     l5345:	
 10807  1605  3001               	movlw	01h
 10808                           opt subtitle "HI-TECH Software Omniscient Code Generator (Lite mode) build 49521"
 10809  1606                     u5795:
 10810  1606  1003               	clrc
 10811  1607  0DC2               	rlf	(___awdiv@quotient),f
 10812  1608  0DC3               	rlf	(___awdiv@quotient+1),f
 10813  1609  3EFF               	addlw	-1
 10814  160A  1D03               	skipz
 10815  160B  2E06               	goto	u5795
 10816                           opt subtitle "HI-TECH Software Omniscient Code Generator (Lite mode) build 49521"
 10817  160C  083C               	movf	(___awdiv@divisor+1),w
 10818  160D  023E               	subwf	(___awdiv@dividend+1),w
 10819  160E  1D03               	skipz
 10820  160F  2E12               	goto	u5805
 10821  1610  083B               	movf	(___awdiv@divisor),w
 10822  1611  023D               	subwf	(___awdiv@dividend),w
 10823  1612                     u5805:
 10824  1612  1C03               	skipc
 10825  1613  2E15               	goto	u5801
 10826  1614  2E16               	goto	u5800
 10827  1615                     u5801:
 10828  1615  2E1E               	goto	l5351
 10829  1616                     u5800:
 10830                           opt subtitle "HI-TECH Software Omniscient Code Generator (Lite mode) build 49521"
 10831                           
 10832  1616                     l5347:	
 10833  1616  083B               	movf	(___awdiv@divisor),w
 10834  1617  02BD               	subwf	(___awdiv@dividend),f
 10835  1618  083C               	movf	(___awdiv@divisor+1),w
 10836  1619  1C03               	skipc
 10837  161A  03BE               	decf	(___awdiv@dividend+1),f
 10838  161B  02BE               	subwf	(___awdiv@dividend+1),f
 10839                           opt subtitle "HI-TECH Software Omniscient Code Generator (Lite mode) build 49521"
 10840                           
 10841  161C                     l5349:	
 10842  161C  1442               	bsf	(___awdiv@quotient)+(0/8),(0)&7
 10843  161D  2E1E               	goto	l5351
 10844                           opt subtitle "HI-TECH Software Omniscient Code Generator (Lite mode) build 49521"
 10845                           
 10846  161E                     l604:	
 10847                           opt subtitle "HI-TECH Software Omniscient Code Generator (Lite mode) build 49521"
 10848                           
 10849  161E                     l5351:	
 10850  161E  3001               	movlw	01h
 10851                           opt subtitle "HI-TECH Software Omniscient Code Generator (Lite mode) build 49521"
 10852  161F                     u5815:
 10853  161F  1003               	clrc
 10854  1620  0CBC               	rrf	(___awdiv@divisor+1),f
 10855  1621  0CBB               	rrf	(___awdiv@divisor),f
 10856  1622  3EFF               	addlw	-1
 10857  1623  1D03               	skipz
 10858  1624  2E1F               	goto	u5815
 10859                           opt subtitle "HI-TECH Software Omniscient Code Generator (Lite mode) build 49521"
 10860                           
 10861  1625                     l5353:	
 10862  1625  3001               	movlw	low(01h)
 10863  1626  02C0               	subwf	(___awdiv@counter),f
 10864  1627  1D03               	btfss	status,2
 10865  1628  2E2A               	goto	u5821
 10866  1629  2E2B               	goto	u5820
 10867  162A                     u5821:
 10868  162A  2E05               	goto	l5345
 10869  162B                     u5820:
 10870  162B  2E2D               	goto	l5355
 10871                           opt subtitle "HI-TECH Software Omniscient Code Generator (Lite mode) build 49521"
 10872  162C                     l605:	
 10873  162C  2E2D               	goto	l5355
 10874                           opt subtitle "HI-TECH Software Omniscient Code Generator (Lite mode) build 49521"
 10875                           
 10876  162D                     l599:	
 10877                           opt subtitle "HI-TECH Software Omniscient Code Generator (Lite mode) build 49521"
 10878                           
 10879  162D                     l5355:	
 10880  162D  0841               	movf	(___awdiv@sign),w
 10881  162E  1D03               	skipz
 10882  162F  2E31               	goto	u5830
 10883  1630  2E37               	goto	l5359
 10884  1631                     u5830:
 10885                           opt subtitle "HI-TECH Software Omniscient Code Generator (Lite mode) build 49521"
 10886                           
 10887  1631                     l5357:	
 10888  1631  09C2               	comf	(___awdiv@quotient),f
 10889  1632  09C3               	comf	(___awdiv@quotient+1),f
 10890  1633  0AC2               	incf	(___awdiv@quotient),f
 10891  1634  1903               	skipnz
 10892  1635  0AC3               	incf	(___awdiv@quotient+1),f
 10893  1636  2E37               	goto	l5359
 10894                           opt subtitle "HI-TECH Software Omniscient Code Generator (Lite mode) build 49521"
 10895  1637                     l606:	
 10896                           opt subtitle "HI-TECH Software Omniscient Code Generator (Lite mode) build 49521"
 10897                           
 10898  1637                     l5359:	
 10899  1637  0843               	movf	(___awdiv@quotient+1),w
 10900  1638  01BC               	clrf	(?___awdiv+1)
 10901  1639  07BC               	addwf	(?___awdiv+1)
 10902  163A  0842               	movf	(___awdiv@quotient),w
 10903  163B  01BB               	clrf	(?___awdiv)
 10904  163C  07BB               	addwf	(?___awdiv)
 10905                           opt subtitle "HI-TECH Software Omniscient Code Generator (Lite mode) build 49521"
 10906  163D  2E3E               	goto	l607
 10907                           opt subtitle "HI-TECH Software Omniscient Code Generator (Lite mode) build 49521"
 10908  163E                     l5361:	
 10909                           opt subtitle "HI-TECH Software Omniscient Code Generator (Lite mode) build 49521"
 10910                           
 10911  163E                     l607:	
 10912  163E  0008               	return
 10913                           opt subtitle "HI-TECH Software Omniscient Code Generator (Lite mode) build 49521"
 10914                           
 10915  163F                     	__end_of___awdiv:
 10916                           opt subtitle "HI-TECH Software Omniscient Code Generator (Lite mode) build 49521"
 10917                           
 10918                           opt pagewidth 120
 10919                           
 10920                           	opt lm
 10921                           
 10922                           	processor	16LF707
 10923                           clrc	macro
 10924                           	bcf	3,0
 10925                           	endm
 10926                           clrz	macro
 10927                           	bcf	3,2
 10928                           	endm
 10929                           setc	macro
 10930                           	bsf	3,0
 10931                           	endm
 10932                           setz	macro
 10933                           	bsf	3,2
 10934                           	endm
 10935                           skipc	macro
 10936                           	btfss	3,0
 10937                           	endm
 10938                           skipz	macro
 10939                           	btfss	3,2
 10940                           	endm
 10941                           skipnc	macro
 10942                           	btfsc	3,0
 10943                           	endm
 10944                           skipnz	macro
 10945                           	btfsc	3,2
 10946                           	endm
 10947                           indf	equ	0
 10948                           indf0	equ	0
 10949                           pc	equ	2
 10950                           pcl	equ	2
 10951                           status	equ	3
 10952  16BC                     __ptext1311:	;psect for function ___ftge
 10953                           opt subtitle "HI-TECH Software Omniscient Code Generator (Lite mode) build 49521"
 10954                           
 10955                           opt pagewidth 120
 10956                           
 10957  009E                     	__size_of___ftge	equ	__end_of___ftge-___ftge
 10958                           opt subtitle "HI-TECH Software Omniscient Code Generator (Lite mode) build 49521"
 10959  16BC                     ___ftge:	
 10960                           opt subtitle "HI-TECH Software Omniscient Code Generator (Lite mode) build 49521"
 10961                           
 10962                           opt pagewidth 120
 10963                           
 10964  16BC                     l5363:	
 10965  16BC  1283               	bcf	status, 5	;RP0=0, select bank0
 10966  16BD  1303               	bcf	status, 6	;RP1=0, select bank0
 10967  16BE  1FC7               	btfss	(___ftge@ff1+2),(23)&7
 10968  16BF  2EC1               	goto	u5841
 10969  16C0  2EC2               	goto	u5840
 10970  16C1                     u5841:
 10971  16C1  2F00               	goto	l5367
 10972  16C2                     u5840:
 10973                           opt subtitle "HI-TECH Software Omniscient Code Generator (Lite mode) build 49521"
 10974                           
 10975  16C2                     l5365:	
 10976  16C2  3000               	movlw	0
 10977  16C3  1683               	bsf	status, 5	;RP0=1, select bank1
 10978  16C4  1303               	bcf	status, 6	;RP1=0, select bank1
 10979  16C5  00C8               	movwf	((??___ftge+0)^080h+0)
 10980  16C6  3000               	movlw	0
 10981  16C7  00C9               	movwf	((??___ftge+0)^080h+0+1)
 10982  16C8  3080               	movlw	080h
 10983  16C9  00CA               	movwf	((??___ftge+0)^080h+0+2)
 10984  16CA  1283               	bcf	status, 5	;RP0=0, select bank0
 10985  16CB  1303               	bcf	status, 6	;RP1=0, select bank0
 10986  16CC  0945               	comf	(___ftge@ff1),w
 10987  16CD  1683               	bsf	status, 5	;RP0=1, select bank1
 10988  16CE  1303               	bcf	status, 6	;RP1=0, select bank1
 10989  16CF  00CB               	movwf	(??___ftge+3)^080h+0
 10990  16D0  1283               	bcf	status, 5	;RP0=0, select bank0
 10991  16D1  1303               	bcf	status, 6	;RP1=0, select bank0
 10992  16D2  0946               	comf	(___ftge@ff1+1),w
 10993  16D3  1683               	bsf	status, 5	;RP0=1, select bank1
 10994  16D4  1303               	bcf	status, 6	;RP1=0, select bank1
 10995  16D5  00CC               	movwf	((??___ftge+3)^080h+0+1)
 10996  16D6  1283               	bcf	status, 5	;RP0=0, select bank0
 10997  16D7  1303               	bcf	status, 6	;RP1=0, select bank0
 10998  16D8  0947               	comf	(___ftge@ff1+2),w
 10999  16D9  1683               	bsf	status, 5	;RP0=1, select bank1
 11000  16DA  1303               	bcf	status, 6	;RP1=0, select bank1
 11001  16DB  00CD               	movwf	((??___ftge+3)^080h+0+2)
 11002  16DC  0ACB               	incf	(??___ftge+3)^080h+0,f
 11003  16DD  1903               	skipnz
 11004  16DE  0ACC               	incf	((??___ftge+3)^080h+0+1),f
 11005  16DF  1903               	skipnz
 11006  16E0  0ACD               	incf	((??___ftge+3)^080h+0+2),f
 11007  16E1  084B               	movf	0+(??___ftge+3)^080h+0,w
 11008  16E2  07C8               	addwf	(??___ftge+0)^080h+0,f
 11009  16E3  084C               	movf	1+(??___ftge+3)^080h+0,w
 11010  16E4  1803               	skipnc
 11011  16E5  0F4C               	incfsz	1+(??___ftge+3)^080h+0,w
 11012  16E6  2EE8               	goto	u5851
 11013  16E7  2EE9               	goto	u5852
 11014  16E8                     u5851:
 11015  16E8  07C9               	addwf	(??___ftge+0)^080h+1,f
 11016                           opt subtitle "HI-TECH Software Omniscient Code Generator (Lite mode) build 49521"
 11017  16E9                     u5852:
 11018  16E9  084D               	movf	2+(??___ftge+3)^080h+0,w
 11019  16EA  1803               	skipnc
 11020  16EB  0F4D               	incfsz	2+(??___ftge+3)^080h+0,w
 11021  16EC  2EEE               	goto	u5853
 11022  16ED  2EEF               	goto	u5854
 11023  16EE                     u5853:
 11024  16EE  07CA               	addwf	(??___ftge+0)^080h+2,f
 11025                           opt subtitle "HI-TECH Software Omniscient Code Generator (Lite mode) build 49521"
 11026  16EF                     u5854:
 11027  16EF  0848               	movf	0+(??___ftge+0)^080h+0,w
 11028  16F0  1283               	bcf	status, 5	;RP0=0, select bank0
 11029  16F1  1303               	bcf	status, 6	;RP1=0, select bank0
 11030  16F2  00C5               	movwf	(___ftge@ff1)
 11031  16F3  1683               	bsf	status, 5	;RP0=1, select bank1
 11032  16F4  1303               	bcf	status, 6	;RP1=0, select bank1
 11033  16F5  0849               	movf	1+(??___ftge+0)^080h+0,w
 11034  16F6  1283               	bcf	status, 5	;RP0=0, select bank0
 11035  16F7  1303               	bcf	status, 6	;RP1=0, select bank0
 11036  16F8  00C6               	movwf	(___ftge@ff1+1)
 11037  16F9  1683               	bsf	status, 5	;RP0=1, select bank1
 11038  16FA  1303               	bcf	status, 6	;RP1=0, select bank1
 11039  16FB  084A               	movf	2+(??___ftge+0)^080h+0,w
 11040  16FC  1283               	bcf	status, 5	;RP0=0, select bank0
 11041  16FD  1303               	bcf	status, 6	;RP1=0, select bank0
 11042  16FE  00C7               	movwf	(___ftge@ff1+2)
 11043  16FF  2F00               	goto	l5367
 11044                           opt subtitle "HI-TECH Software Omniscient Code Generator (Lite mode) build 49521"
 11045  1700                     l624:	
 11046                           opt subtitle "HI-TECH Software Omniscient Code Generator (Lite mode) build 49521"
 11047                           
 11048  1700                     l5367:	
 11049  1700  1FCA               	btfss	(___ftge@ff2+2),(23)&7
 11050  1701  2F03               	goto	u5861
 11051  1702  2F04               	goto	u5860
 11052  1703                     u5861:
 11053  1703  2F42               	goto	l5371
 11054  1704                     u5860:
 11055                           opt subtitle "HI-TECH Software Omniscient Code Generator (Lite mode) build 49521"
 11056                           
 11057  1704                     l5369:	
 11058  1704  3000               	movlw	0
 11059  1705  1683               	bsf	status, 5	;RP0=1, select bank1
 11060  1706  1303               	bcf	status, 6	;RP1=0, select bank1
 11061  1707  00C8               	movwf	((??___ftge+0)^080h+0)
 11062  1708  3000               	movlw	0
 11063  1709  00C9               	movwf	((??___ftge+0)^080h+0+1)
 11064  170A  3080               	movlw	080h
 11065  170B  00CA               	movwf	((??___ftge+0)^080h+0+2)
 11066  170C  1283               	bcf	status, 5	;RP0=0, select bank0
 11067  170D  1303               	bcf	status, 6	;RP1=0, select bank0
 11068  170E  0948               	comf	(___ftge@ff2),w
 11069  170F  1683               	bsf	status, 5	;RP0=1, select bank1
 11070  1710  1303               	bcf	status, 6	;RP1=0, select bank1
 11071  1711  00CB               	movwf	(??___ftge+3)^080h+0
 11072  1712  1283               	bcf	status, 5	;RP0=0, select bank0
 11073  1713  1303               	bcf	status, 6	;RP1=0, select bank0
 11074  1714  0949               	comf	(___ftge@ff2+1),w
 11075  1715  1683               	bsf	status, 5	;RP0=1, select bank1
 11076  1716  1303               	bcf	status, 6	;RP1=0, select bank1
 11077  1717  00CC               	movwf	((??___ftge+3)^080h+0+1)
 11078  1718  1283               	bcf	status, 5	;RP0=0, select bank0
 11079  1719  1303               	bcf	status, 6	;RP1=0, select bank0
 11080  171A  094A               	comf	(___ftge@ff2+2),w
 11081  171B  1683               	bsf	status, 5	;RP0=1, select bank1
 11082  171C  1303               	bcf	status, 6	;RP1=0, select bank1
 11083  171D  00CD               	movwf	((??___ftge+3)^080h+0+2)
 11084  171E  0ACB               	incf	(??___ftge+3)^080h+0,f
 11085  171F  1903               	skipnz
 11086  1720  0ACC               	incf	((??___ftge+3)^080h+0+1),f
 11087  1721  1903               	skipnz
 11088  1722  0ACD               	incf	((??___ftge+3)^080h+0+2),f
 11089  1723  084B               	movf	0+(??___ftge+3)^080h+0,w
 11090  1724  07C8               	addwf	(??___ftge+0)^080h+0,f
 11091  1725  084C               	movf	1+(??___ftge+3)^080h+0,w
 11092  1726  1803               	skipnc
 11093  1727  0F4C               	incfsz	1+(??___ftge+3)^080h+0,w
 11094  1728  2F2A               	goto	u5871
 11095  1729  2F2B               	goto	u5872
 11096  172A                     u5871:
 11097  172A  07C9               	addwf	(??___ftge+0)^080h+1,f
 11098                           opt subtitle "HI-TECH Software Omniscient Code Generator (Lite mode) build 49521"
 11099  172B                     u5872:
 11100  172B  084D               	movf	2+(??___ftge+3)^080h+0,w
 11101  172C  1803               	skipnc
 11102  172D  0F4D               	incfsz	2+(??___ftge+3)^080h+0,w
 11103  172E  2F30               	goto	u5873
 11104  172F  2F31               	goto	u5874
 11105  1730                     u5873:
 11106  1730  07CA               	addwf	(??___ftge+0)^080h+2,f
 11107                           opt subtitle "HI-TECH Software Omniscient Code Generator (Lite mode) build 49521"
 11108  1731                     u5874:
 11109  1731  0848               	movf	0+(??___ftge+0)^080h+0,w
 11110  1732  1283               	bcf	status, 5	;RP0=0, select bank0
 11111  1733  1303               	bcf	status, 6	;RP1=0, select bank0
 11112  1734  00C8               	movwf	(___ftge@ff2)
 11113  1735  1683               	bsf	status, 5	;RP0=1, select bank1
 11114  1736  1303               	bcf	status, 6	;RP1=0, select bank1
 11115  1737  0849               	movf	1+(??___ftge+0)^080h+0,w
 11116  1738  1283               	bcf	status, 5	;RP0=0, select bank0
 11117  1739  1303               	bcf	status, 6	;RP1=0, select bank0
 11118  173A  00C9               	movwf	(___ftge@ff2+1)
 11119  173B  1683               	bsf	status, 5	;RP0=1, select bank1
 11120  173C  1303               	bcf	status, 6	;RP1=0, select bank1
 11121  173D  084A               	movf	2+(??___ftge+0)^080h+0,w
 11122  173E  1283               	bcf	status, 5	;RP0=0, select bank0
 11123  173F  1303               	bcf	status, 6	;RP1=0, select bank0
 11124  1740  00CA               	movwf	(___ftge@ff2+2)
 11125  1741  2F42               	goto	l5371
 11126                           opt subtitle "HI-TECH Software Omniscient Code Generator (Lite mode) build 49521"
 11127  1742                     l625:	
 11128                           opt subtitle "HI-TECH Software Omniscient Code Generator (Lite mode) build 49521"
 11129                           
 11130  1742                     l5371:	
 11131  1742  3080               	movlw	080h
 11132  1743  06C7               	xorwf	(___ftge@ff1+2),f
 11133                           opt subtitle "HI-TECH Software Omniscient Code Generator (Lite mode) build 49521"
 11134                           
 11135  1744                     l5373:	
 11136  1744  3080               	movlw	080h
 11137  1745  06CA               	xorwf	(___ftge@ff2+2),f
 11138                           opt subtitle "HI-TECH Software Omniscient Code Generator (Lite mode) build 49521"
 11139                           
 11140  1746                     l5375:	
 11141  1746  084A               	movf	(___ftge@ff2+2),w
 11142  1747  0247               	subwf	(___ftge@ff1+2),w
 11143  1748  1D03               	skipz
 11144  1749  2F50               	goto	u5885
 11145  174A  0849               	movf	(___ftge@ff2+1),w
 11146  174B  0246               	subwf	(___ftge@ff1+1),w
 11147  174C  1D03               	skipz
 11148  174D  2F50               	goto	u5885
 11149  174E  0848               	movf	(___ftge@ff2),w
 11150  174F  0245               	subwf	(___ftge@ff1),w
 11151  1750                     u5885:
 11152  1750  1803               	skipnc
 11153  1751  2F53               	goto	u5881
 11154  1752  2F54               	goto	u5880
 11155  1753                     u5881:
 11156  1753  2F56               	goto	l5379
 11157  1754                     u5880:
 11158                           opt subtitle "HI-TECH Software Omniscient Code Generator (Lite mode) build 49521"
 11159  1754                     l5377:	
 11160  1754  1003               	clrc
 11161                           opt subtitle "HI-TECH Software Omniscient Code Generator (Lite mode) build 49521"
 11162  1755  2F59               	goto	l626
 11163                           opt subtitle "HI-TECH Software Omniscient Code Generator (Lite mode) build 49521"
 11164  1756                     l4163:	
 11165                           opt subtitle "HI-TECH Software Omniscient Code Generator (Lite mode) build 49521"
 11166  1756                     l5379:	
 11167  1756  1403               	setc
 11168                           opt subtitle "HI-TECH Software Omniscient Code Generator (Lite mode) build 49521"
 11169  1757  2F59               	goto	l626
 11170                           opt subtitle "HI-TECH Software Omniscient Code Generator (Lite mode) build 49521"
 11171  1758                     l4165:	
 11172  1758  2F59               	goto	l626
 11173                           opt subtitle "HI-TECH Software Omniscient Code Generator (Lite mode) build 49521"
 11174  1759                     l5381:	
 11175                           opt subtitle "HI-TECH Software Omniscient Code Generator (Lite mode) build 49521"
 11176                           
 11177  1759                     l626:	
 11178  1759  0008               	return
 11179                           opt subtitle "HI-TECH Software Omniscient Code Generator (Lite mode) build 49521"
 11180                           
 11181  175A                     	__end_of___ftge:
 11182                           opt subtitle "HI-TECH Software Omniscient Code Generator (Lite mode) build 49521"
 11183                           
 11184                           opt pagewidth 120
 11185                           
 11186                           	opt lm
 11187                           
 11188                           	processor	16LF707
 11189                           clrc	macro
 11190                           	bcf	3,0
 11191                           	endm
 11192                           clrz	macro
 11193                           	bcf	3,2
 11194                           	endm
 11195                           setc	macro
 11196                           	bsf	3,0
 11197                           	endm
 11198                           setz	macro
 11199                           	bsf	3,2
 11200                           	endm
 11201                           skipc	macro
 11202                           	btfss	3,0
 11203                           	endm
 11204                           skipz	macro
 11205                           	btfss	3,2
 11206                           	endm
 11207                           skipnc	macro
 11208                           	btfsc	3,0
 11209                           	endm
 11210                           skipnz	macro
 11211                           	btfsc	3,2
 11212                           	endm
 11213                           indf	equ	0
 11214                           indf0	equ	0
 11215                           pc	equ	2
 11216  0788                     __ptext1312:	;psect for function _ISR
 11217                           opt subtitle "HI-TECH Software Omniscient Code Generator (Lite mode) build 49521"
 11218                           
 11219                           opt pagewidth 120
 11220                           
 11221  0078                     	__size_of_ISR	equ	__end_of_ISR-_ISR
 11222                           opt subtitle "HI-TECH Software Omniscient Code Generator (Lite mode) build 49521"
 11223  0788                     _ISR:	
 11224                           opt subtitle "HI-TECH Software Omniscient Code Generator (Lite mode) build 49521"
 11225                           
 11226                           opt pagewidth 120
 11227                           
 11228  0004                     __pintentry:
 11229                           opt subtitle "HI-TECH Software Omniscient Code Generator (Lite mode) build 49521"
 11230  0004                     interrupt_function:
 11231                           opt subtitle "HI-TECH Software Omniscient Code Generator (Lite mode) build 49521"
 11232  007E                     	saved_w	set	btemp+0
 11233  0004  00FE               	movwf	saved_w
 11234  0005  0E03               	swapf	status,w
 11235  0006  1283               	bcf	status, 5	;RP0=0, select bank0
 11236  0007  1303               	bcf	status, 6	;RP1=0, select bank0
 11237  0008  00B1               	movwf	(??_ISR+3)
 11238  0009  0804               	movf	fsr0,w
 11239  000A  00B2               	movwf	(??_ISR+4)
 11240  000B  080A               	movf	pclath,w
 11241  000C  00B3               	movwf	(??_ISR+5)
 11242  000D  087F               	movf	btemp+1,w
 11243  000E  00B4               	movwf	(??_ISR+6)
 11244  000F  120A  118A  2F88   	ljmp	_ISR
 11245                           opt subtitle "HI-TECH Software Omniscient Code Generator (Lite mode) build 49521"
 11246                           
 11247                           opt pagewidth 120
 11248  0788                     i1l4111:	
 11249                           opt subtitle "HI-TECH Software Omniscient Code Generator (Lite mode) build 49521"
 11250  0788  1C0C               	btfss	(96/8),(96)&7	;volatile
 11251  0789  2F8B               	goto	u419_21
 11252  078A  2F8C               	goto	u419_20
 11253  078B                     u419_21:
 11254  078B  2FF5               	goto	i1l169
 11255  078C                     u419_20:
 11256                           opt subtitle "HI-TECH Software Omniscient Code Generator (Lite mode) build 49521"
 11257                           
 11258  078C                     i1l4113:	
 11259                           opt subtitle "HI-TECH Software Omniscient Code Generator (Lite mode) build 49521"
 11260                           
 11261  078C  3001               	movlw	(01h)
 11262  078D  00AE               	movwf	(??_ISR+0)+0
 11263  078E  082E               	movf	(??_ISR+0)+0,w
 11264  078F  07D6               	addwf	(_tmr1Counter),f
 11265                           opt subtitle "HI-TECH Software Omniscient Code Generator (Lite mode) build 49521"
 11266                           
 11267  0790                     i1l4115:	
 11268                           opt subtitle "HI-TECH Software Omniscient Code Generator (Lite mode) build 49521"
 11269  0790  3010               	movlw	(010h)
 11270  0791  008F               	movwf	(15)	;volatile
 11271                           opt subtitle "HI-TECH Software Omniscient Code Generator (Lite mode) build 49521"
 11272                           
 11273  0792                     i1l4117:	
 11274                           opt subtitle "HI-TECH Software Omniscient Code Generator (Lite mode) build 49521"
 11275  0792  018E               	clrf	(14)	;volatile
 11276                           opt subtitle "HI-TECH Software Omniscient Code Generator (Lite mode) build 49521"
 11277                           
 11278  0793                     i1l4119:	
 11279                           opt subtitle "HI-TECH Software Omniscient Code Generator (Lite mode) build 49521"
 11280  0793  0856               	movf	(_tmr1Counter),w
 11281  0794  0659               	xorwf	(_tmr1Target),w
 11282  0795  1D03               	skipz
 11283  0796  2F98               	goto	u420_21
 11284  0797  2F99               	goto	u420_20
 11285  0798                     u420_21:
 11286  0798  2FF3               	goto	i1l162
 11287  0799                     u420_20:
 11288                           opt subtitle "HI-TECH Software Omniscient Code Generator (Lite mode) build 49521"
 11289                           
 11290  0799                     i1l4121:	
 11291                           opt subtitle "HI-TECH Software Omniscient Code Generator (Lite mode) build 49521"
 11292  0799  303A               	movlw	low(STR_1|8000h)
 11293  079A  00A0               	movwf	(?i1_printf)
 11294  079B  3091               	movlw	high(STR_1|8000h)
 11295  079C  00A1               	movwf	((?i1_printf))+1
 11296  079D  120A  158A  2452   	fcall	i1_printf
              120A  118A         
 11297                           opt subtitle "HI-TECH Software Omniscient Code Generator (Lite mode) build 49521"
 11298                           
 11299  07A2                     i1l4123:	
 11300                           opt subtitle "HI-TECH Software Omniscient Code Generator (Lite mode) build 49521"
 11301  07A2  1283               	bcf	status, 5	;RP0=0, select bank0
 11302  07A3  1303               	bcf	status, 6	;RP1=0, select bank0
 11303  07A4  0808               	movf	(8),w	;volatile
 11304  07A5  00AE               	movwf	(??_ISR+0)+0
 11305  07A6  3005               	movlw	05h
 11306  07A7                     u421_25:
 11307  07A7  1003               	clrc
 11308  07A8  0CAE               	rrf	(??_ISR+0)+0,f
 11309  07A9  3EFF               	addlw	-1
 11310  07AA  1D03               	skipz
 11311  07AB  2FA7               	goto	u421_25
 11312  07AC  3007               	movlw	(07h)
 11313  07AD  052E               	andwf	0+(??_ISR+0)+0,w
 11314  07AE  00AF               	movwf	(??_ISR+1)+0
 11315  07AF  0854               	movf	(_jumper_stat),w
 11316  07B0  3980               	andlw	080h
 11317  07B1  042F               	iorwf	0+(??_ISR+1)+0,w
 11318  07B2  00B0               	movwf	(??_ISR+2)+0
 11319  07B3  0830               	movf	(??_ISR+2)+0,w
 11320  07B4  00D4               	movwf	(_jumper_stat)
 11321                           opt subtitle "HI-TECH Software Omniscient Code Generator (Lite mode) build 49521"
 11322                           
 11323  07B5                     i1l4125:	
 11324                           opt subtitle "HI-TECH Software Omniscient Code Generator (Lite mode) build 49521"
 11325  07B5  0808               	movf	(8),w	;volatile
 11326  07B6  00AE               	movwf	(??_ISR+0)+0
 11327  07B7  3006               	movlw	06h
 11328  07B8                     u422_25:
 11329  07B8  1003               	clrc
 11330  07B9  0CAE               	rrf	(??_ISR+0)+0,f
 11331  07BA  3EFF               	addlw	-1
 11332  07BB  1D03               	skipz
 11333  07BC  2FB8               	goto	u422_25
 11334  07BD  082E               	movf	0+(??_ISR+0)+0,w
 11335  07BE  3903               	andlw	03h
 11336  07BF  00AF               	movwf	(??_ISR+1)+0
 11337  07C0  082F               	movf	(??_ISR+1)+0,w
 11338  07C1  00D5               	movwf	(_sleep_counter)
 11339                           opt subtitle "HI-TECH Software Omniscient Code Generator (Lite mode) build 49521"
 11340                           
 11341  07C2  2FE1               	goto	i1l4135
 11342                           opt subtitle "HI-TECH Software Omniscient Code Generator (Lite mode) build 49521"
 11343                           
 11344                           opt pagewidth 120
 11345  07C3                     i1l164:	
 11346                           opt subtitle "HI-TECH Software Omniscient Code Generator (Lite mode) build 49521"
 11347                           
 11348  07C3  1683               	bsf	status, 5	;RP0=1, select bank1
 11349  07C4  1303               	bcf	status, 6	;RP1=0, select bank1
 11350  07C5  01C6               	clrf	(_sleep_count)^080h
 11351  07C6  0AC6               	incf	(_sleep_count)^080h,f
 11352                           opt subtitle "HI-TECH Software Omniscient Code Generator (Lite mode) build 49521"
 11353                           
 11354  07C7  2FF0               	goto	i1l165
 11355                           opt subtitle "HI-TECH Software Omniscient Code Generator (Lite mode) build 49521"
 11356                           
 11357                           opt pagewidth 120
 11358  07C8                     i1l166:	
 11359                           opt subtitle "HI-TECH Software Omniscient Code Generator (Lite mode) build 49521"
 11360                           
 11361  07C8                     i1l4127:	
 11362                           opt subtitle "HI-TECH Software Omniscient Code Generator (Lite mode) build 49521"
 11363  07C8  3014               	movlw	(014h)
 11364  07C9  1283               	bcf	status, 5	;RP0=0, select bank0
 11365  07CA  00AE               	movwf	(??_ISR+0)+0
 11366  07CB  082E               	movf	(??_ISR+0)+0,w
 11367  07CC  1683               	bsf	status, 5	;RP0=1, select bank1
 11368  07CD  1303               	bcf	status, 6	;RP1=0, select bank1
 11369  07CE  00C6               	movwf	(_sleep_count)^080h
 11370                           opt subtitle "HI-TECH Software Omniscient Code Generator (Lite mode) build 49521"
 11371                           
 11372  07CF  2FF0               	goto	i1l165
 11373                           opt subtitle "HI-TECH Software Omniscient Code Generator (Lite mode) build 49521"
 11374                           
 11375                           opt pagewidth 120
 11376  07D0                     i1l167:	
 11377                           opt subtitle "HI-TECH Software Omniscient Code Generator (Lite mode) build 49521"
 11378                           
 11379  07D0                     i1l4129:	
 11380                           opt subtitle "HI-TECH Software Omniscient Code Generator (Lite mode) build 49521"
 11381  07D0  3028               	movlw	(028h)
 11382  07D1  1283               	bcf	status, 5	;RP0=0, select bank0
 11383  07D2  00AE               	movwf	(??_ISR+0)+0
 11384  07D3  082E               	movf	(??_ISR+0)+0,w
 11385  07D4  1683               	bsf	status, 5	;RP0=1, select bank1
 11386  07D5  1303               	bcf	status, 6	;RP1=0, select bank1
 11387  07D6  00C6               	movwf	(_sleep_count)^080h
 11388                           opt subtitle "HI-TECH Software Omniscient Code Generator (Lite mode) build 49521"
 11389                           
 11390  07D7  2FF0               	goto	i1l165
 11391                           opt subtitle "HI-TECH Software Omniscient Code Generator (Lite mode) build 49521"
 11392                           
 11393                           opt pagewidth 120
 11394  07D8                     i1l168:	
 11395                           opt subtitle "HI-TECH Software Omniscient Code Generator (Lite mode) build 49521"
 11396                           
 11397  07D8                     i1l4131:	
 11398                           opt subtitle "HI-TECH Software Omniscient Code Generator (Lite mode) build 49521"
 11399  07D8  3078               	movlw	(078h)
 11400  07D9  1283               	bcf	status, 5	;RP0=0, select bank0
 11401  07DA  00AE               	movwf	(??_ISR+0)+0
 11402  07DB  082E               	movf	(??_ISR+0)+0,w
 11403  07DC  1683               	bsf	status, 5	;RP0=1, select bank1
 11404  07DD  1303               	bcf	status, 6	;RP1=0, select bank1
 11405  07DE  00C6               	movwf	(_sleep_count)^080h
 11406                           opt subtitle "HI-TECH Software Omniscient Code Generator (Lite mode) build 49521"
 11407                           
 11408  07DF  2FF0               	goto	i1l165
 11409                           opt subtitle "HI-TECH Software Omniscient Code Generator (Lite mode) build 49521"
 11410                           
 11411  07E0                     i1l4133:	
 11412                           opt subtitle "HI-TECH Software Omniscient Code Generator (Lite mode) build 49521"
 11413  07E0  2FF0               	goto	i1l165
 11414                           opt subtitle "HI-TECH Software Omniscient Code Generator (Lite mode) build 49521"
 11415                           
 11416  07E1                     i1l163:	
 11417                           opt subtitle "HI-TECH Software Omniscient Code Generator (Lite mode) build 49521"
 11418  07E1                     i1l4135:	
 11419  07E1  1283               	bcf	status, 5	;RP0=0, select bank0
 11420  07E2  0855               	movf	(_sleep_counter),w
 11421                           opt subtitle "HI-TECH Software Omniscient Code Generator (Lite mode) build 49521"
 11422                           
 11423                           opt pagewidth 120
 11424                           
 11425                           	opt lm
 11426                           
 11427                           	processor	16LF707
 11428                           clrc	macro
 11429                           	bcf	3,0
 11430                           	endm
 11431                           clrz	macro
 11432                           	bcf	3,2
 11433                           	endm
 11434  07E3  3A00               	xorlw	0^0	; case 0
 11435  07E4  1903               	skipnz
 11436  07E5  2FC3               	goto	i1l164
 11437  07E6  3A01               	xorlw	1^0	; case 1
 11438  07E7  1903               	skipnz
 11439  07E8  2FC8               	goto	i1l4127
 11440  07E9  3A03               	xorlw	2^1	; case 2
 11441  07EA  1903               	skipnz
 11442  07EB  2FD0               	goto	i1l4129
 11443  07EC  3A01               	xorlw	3^2	; case 3
 11444  07ED  1903               	skipnz
 11445  07EE  2FD8               	goto	i1l4131
 11446  07EF  2FF0               	goto	i1l165
 11447                           opt subtitle "HI-TECH Software Omniscient Code Generator (Lite mode) build 49521"
 11448                           
 11449                           opt pagewidth 120
 11450                           
 11451  07F0                     i1l165:	
 11452                           opt subtitle "HI-TECH Software Omniscient Code Generator (Lite mode) build 49521"
 11453                           
 11454  07F0  1283               	bcf	status, 5	;RP0=0, select bank0
 11455  07F1  01D6               	clrf	(_tmr1Counter)
 11456                           opt subtitle "HI-TECH Software Omniscient Code Generator (Lite mode) build 49521"
 11457                           
 11458  07F2  145A               	bsf	(_flag/8),(_flag)&7
 11459                           opt subtitle "HI-TECH Software Omniscient Code Generator (Lite mode) build 49521"
 11460                           
 11461  07F3                     i1l162:	
 11462                           opt subtitle "HI-TECH Software Omniscient Code Generator (Lite mode) build 49521"
 11463                           
 11464                           opt pagewidth 120
 11465  07F3  100C               	bcf	(96/8),(96)&7	;volatile
 11466  07F4  2FF5               	goto	i1l169
 11467                           opt subtitle "HI-TECH Software Omniscient Code Generator (Lite mode) build 49521"
 11468                           
 11469  07F5                     i1l161:	
 11470                           opt subtitle "HI-TECH Software Omniscient Code Generator (Lite mode) build 49521"
 11471                           
 11472  07F5                     i1l169:	
 11473  07F5  0834               	movf	(??_ISR+6),w
 11474  07F6  00FF               	movwf	btemp+1
 11475  07F7  0833               	movf	(??_ISR+5),w
 11476  07F8  008A               	movwf	pclath
 11477  07F9  0832               	movf	(??_ISR+4),w
 11478  07FA  0084               	movwf	fsr0
 11479  07FB  0E31               	swapf	(??_ISR+3)^00h,w
 11480  07FC  0083               	movwf	status
 11481  07FD  0EFE               	swapf	saved_w,f
 11482  07FE  0E7E               	swapf	saved_w,w
 11483  07FF  0009               	retfie
 11484                           opt subtitle "HI-TECH Software Omniscient Code Generator (Lite mode) build 49521"
 11485                           
 11486  0800                     	__end_of_ISR:
 11487                           opt subtitle "HI-TECH Software Omniscient Code Generator (Lite mode) build 49521"
 11488                           
 11489                           opt pagewidth 120
 11490                           
 11491                           	opt lm
 11492                           
 11493                           	processor	16LF707
 11494                           clrc	macro
 11495                           	bcf	3,0
 11496                           	endm
 11497                           clrz	macro
 11498                           	bcf	3,2
 11499                           	endm
 11500                           setc	macro
 11501                           	bsf	3,0
 11502                           	endm
 11503                           setz	macro
 11504                           	bsf	3,2
 11505                           	endm
 11506                           skipc	macro
 11507                           	btfss	3,0
 11508                           	endm
 11509                           skipz	macro
 11510                           	btfss	3,2
 11511                           	endm
 11512                           skipnc	macro
 11513                           	btfsc	3,0
 11514                           	endm
 11515                           skipnz	macro
 11516                           	btfsc	3,2
 11517                           	endm
 11518                           indf	equ	0
 11519                           indf0	equ	0
 11520                           pc	equ	2
 11521                           pcl	equ	2
 11522                           status	equ	3
 11523                           fsr	equ	4
 11524                           fsr0	equ	4
 11525                           c	equ	1
 11526                           z	equ	0
 11527                           pclath	equ	10
 11528                           # 46 "/Applications/microchip/xc8/v1.12/include/pic16lf707.h"
 11529                           INDF equ 00h ;# 
 11530                           # 52 "/Applications/microchip/xc8/v1.12/include/pic16lf707.h"
 11531                           TMR0 equ 01h ;# 
 11532                           # 58 "/Applications/microchip/xc8/v1.12/include/pic16lf707.h"
 11533  0C52                     __ptext1313:	;psect for function i1_printf
 11534                           opt subtitle "HI-TECH Software Omniscient Code Generator (Lite mode) build 49521"
 11535                           
 11536                           opt pagewidth 120
 11537                           
 11538  01AE                     	__size_ofi1_printf	equ	__end_ofi1_printf-i1_printf
 11539                           opt subtitle "HI-TECH Software Omniscient Code Generator (Lite mode) build 49521"
 11540  0C52                     i1_printf:	
 11541                           opt subtitle "HI-TECH Software Omniscient Code Generator (Lite mode) build 49521"
 11542                           
 11543                           opt pagewidth 120
 11544                           
 11545  0C52                     i1l4035:	
 11546                           opt subtitle "HI-TECH Software Omniscient Code Generator (Lite mode) build 49521"
 11547                           
 11548                           opt pagewidth 120
 11549                           
 11550                           	opt lm
 11551                           
 11552                           	processor	16LF707
 11553                           clrc	macro
 11554                           	bcf	3,0
 11555                           	endm
 11556                           clrz	macro
 11557                           	bcf	3,2
 11558  0C52  3022               	movlw	(?i1_printf+02h)&0ffh
 11559  0C53  1283               	bcf	status, 5	;RP0=0, select bank0
 11560  0C54  1303               	bcf	status, 6	;RP1=0, select bank0
 11561  0C55  00A2               	movwf	(??i1_printf+0)+0
 11562  0C56  0822               	movf	(??i1_printf+0)+0,w
 11563  0C57  00A6               	movwf	(i1printf@ap)
 11564                           opt subtitle "HI-TECH Software Omniscient Code Generator (Lite mode) build 49521"
 11565                           
 11566  0C58  2DE2               	goto	i1l4109
 11567                           opt subtitle "HI-TECH Software Omniscient Code Generator (Lite mode) build 49521"
 11568  0C59                     i1l415:	
 11569                           opt subtitle "HI-TECH Software Omniscient Code Generator (Lite mode) build 49521"
 11570                           
 11571  0C59                     i1l4037:	
 11572                           opt subtitle "HI-TECH Software Omniscient Code Generator (Lite mode) build 49521"
 11573  0C59  082D               	movf	(i1printf@c),w
 11574  0C5A  3A25               	xorlw	025h
 11575  0C5B  1903               	skipnz
 11576  0C5C  2C5E               	goto	u407_21
 11577  0C5D  2C5F               	goto	u407_20
 11578  0C5E                     u407_21:
 11579  0C5E  2C66               	goto	i1l416
 11580  0C5F                     u407_20:
 11581                           opt subtitle "HI-TECH Software Omniscient Code Generator (Lite mode) build 49521"
 11582                           
 11583  0C5F                     i1l4039:	
 11584                           opt subtitle "HI-TECH Software Omniscient Code Generator (Lite mode) build 49521"
 11585                           
 11586  0C5F  082D               	movf	(i1printf@c),w
 11587  0C60  160A  118A  2219   	fcall	i1_putch
              120A  158A         
 11588                           opt subtitle "HI-TECH Software Omniscient Code Generator (Lite mode) build 49521"
 11589                           
 11590  0C65  2DE2               	goto	i1l4109
 11591                           opt subtitle "HI-TECH Software Omniscient Code Generator (Lite mode) build 49521"
 11592                           
 11593  0C66                     i1l416:	
 11594                           opt subtitle "HI-TECH Software Omniscient Code Generator (Lite mode) build 49521"
 11595                           
 11596                           opt pagewidth 120
 11597  0C66  01A8               	clrf	(i1printf@flag)
 11598                           opt subtitle "HI-TECH Software Omniscient Code Generator (Lite mode) build 49521"
 11599                           
 11600  0C67  2C75               	goto	i1l4045
 11601                           opt subtitle "HI-TECH Software Omniscient Code Generator (Lite mode) build 49521"
 11602                           
 11603                           opt pagewidth 120
 11604  0C68                     i1l418:	
 11605                           opt subtitle "HI-TECH Software Omniscient Code Generator (Lite mode) build 49521"
 11606                           
 11607  0C68  2DFF               	goto	i1l448
 11608                           opt subtitle "HI-TECH Software Omniscient Code Generator (Lite mode) build 49521"
 11609                           
 11610                           opt pagewidth 120
 11611  0C69                     i1l420:	
 11612  0C69  2C99               	goto	i1l422
 11613                           opt subtitle "HI-TECH Software Omniscient Code Generator (Lite mode) build 49521"
 11614                           
 11615  0C6A                     i1l421:	
 11616                           opt subtitle "HI-TECH Software Omniscient Code Generator (Lite mode) build 49521"
 11617                           
 11618                           opt pagewidth 120
 11619  0C6A  2C99               	goto	i1l422
 11620                           opt subtitle "HI-TECH Software Omniscient Code Generator (Lite mode) build 49521"
 11621                           
 11622                           opt pagewidth 120
 11623  0C6B                     i1l423:	
 11624                           opt subtitle "HI-TECH Software Omniscient Code Generator (Lite mode) build 49521"
 11625                           
 11626  0C6B                     i1l424:	
 11627                           opt subtitle "HI-TECH Software Omniscient Code Generator (Lite mode) build 49521"
 11628                           
 11629                           opt pagewidth 120
 11630  0C6B  17A8               	bsf	(i1printf@flag)+(7/8),(7)&7
 11631                           opt subtitle "HI-TECH Software Omniscient Code Generator (Lite mode) build 49521"
 11632                           
 11633  0C6C  2C99               	goto	i1l422
 11634                           opt subtitle "HI-TECH Software Omniscient Code Generator (Lite mode) build 49521"
 11635                           
 11636                           opt pagewidth 120
 11637  0C6D                     i1l425:	
 11638                           opt subtitle "HI-TECH Software Omniscient Code Generator (Lite mode) build 49521"
 11639                           
 11640  0C6D                     i1l4041:	
 11641                           opt subtitle "HI-TECH Software Omniscient Code Generator (Lite mode) build 49521"
 11642  0C6D  082D               	movf	(i1printf@c),w
 11643  0C6E  160A  118A  2219   	fcall	i1_putch
              120A  158A         
 11644                           opt subtitle "HI-TECH Software Omniscient Code Generator (Lite mode) build 49521"
 11645                           
 11646  0C73  2DE2               	goto	i1l4109
 11647                           opt subtitle "HI-TECH Software Omniscient Code Generator (Lite mode) build 49521"
 11648                           
 11649  0C74                     i1l4043:	
 11650                           opt subtitle "HI-TECH Software Omniscient Code Generator (Lite mode) build 49521"
 11651  0C74  2C99               	goto	i1l422
 11652                           opt subtitle "HI-TECH Software Omniscient Code Generator (Lite mode) build 49521"
 11653                           
 11654  0C75                     i1l417:	
 11655                           opt subtitle "HI-TECH Software Omniscient Code Generator (Lite mode) build 49521"
 11656  0C75                     i1l4045:	
 11657  0C75  1283               	bcf	status, 5	;RP0=0, select bank0
 11658  0C76  1303               	bcf	status, 6	;RP1=0, select bank0
 11659  0C77  0821               	movf	(i1printf@f+1),w
 11660  0C78  00A3               	movwf	(??i1_printf+0)+0+1
 11661  0C79  0820               	movf	(i1printf@f),w
 11662  0C7A  00A2               	movwf	(??i1_printf+0)+0
 11663  0C7B  3001               	movlw	(01h)
 11664  0C7C  07A0               	addwf	(i1printf@f),f
 11665  0C7D  1803               	skipnc
 11666  0C7E  0AA1               	incf	(i1printf@f+1),f
 11667  0C7F  0823               	movf	1+(??i1_printf+0)+0,w
 11668  0C80  00FF               	movwf	btemp+1
 11669  0C81  0822               	movf	0+(??i1_printf+0)+0,w
 11670  0C82  0084               	movwf	fsr0
 11671  0C83  160A  118A  2000   	fcall	stringtab
              120A  158A         
 11672  0C88  00AD               	movwf	(i1printf@c)
 11673                           opt subtitle "HI-TECH Software Omniscient Code Generator (Lite mode) build 49521"
 11674                           
 11675                           opt pagewidth 120
 11676                           
 11677                           	opt lm
 11678                           
 11679                           	processor	16LF707
 11680                           clrc	macro
 11681                           	bcf	3,0
 11682                           	endm
 11683                           clrz	macro
 11684                           	bcf	3,2
 11685  0C89  3A00               	xorlw	0^0	; case 0
 11686  0C8A  1903               	skipnz
 11687  0C8B  2DFF               	goto	i1l448
 11688  0C8C  3A58               	xorlw	88^0	; case 88
 11689  0C8D  1903               	skipnz
 11690  0C8E  2C6B               	goto	i1l424
 11691  0C8F  3A3C               	xorlw	100^88	; case 100
 11692  0C90  1903               	skipnz
 11693  0C91  2C99               	goto	i1l422
 11694  0C92  3A0D               	xorlw	105^100	; case 105
 11695  0C93  1903               	skipnz
 11696  0C94  2C99               	goto	i1l422
 11697  0C95  3A11               	xorlw	120^105	; case 120
 11698  0C96  1903               	skipnz
 11699  0C97  2C6B               	goto	i1l424
 11700  0C98  2C6D               	goto	i1l4041
 11701                           opt subtitle "HI-TECH Software Omniscient Code Generator (Lite mode) build 49521"
 11702                           
 11703                           opt pagewidth 120
 11704                           
 11705  0C99                     i1l422:	
 11706                           opt subtitle "HI-TECH Software Omniscient Code Generator (Lite mode) build 49521"
 11707                           
 11708  0C99  1283               	bcf	status, 5	;RP0=0, select bank0
 11709  0C9A  1303               	bcf	status, 6	;RP1=0, select bank0
 11710  0C9B  1BA8               	btfsc	(i1printf@flag),(7)&7
 11711  0C9C  2C9E               	goto	u408_21
 11712  0C9D  2C9F               	goto	u408_20
 11713  0C9E                     u408_21:
 11714  0C9E  2CBA               	goto	i1l4057
 11715  0C9F                     u408_20:
 11716                           opt subtitle "HI-TECH Software Omniscient Code Generator (Lite mode) build 49521"
 11717                           
 11718  0C9F                     i1l4047:	
 11719                           opt subtitle "HI-TECH Software Omniscient Code Generator (Lite mode) build 49521"
 11720                           
 11721  0C9F  0826               	movf	(i1printf@ap),w
 11722  0CA0  0084               	movwf	fsr0
 11723  0CA1  1383               	bcf	status, 7	;select IRP bank0
 11724  0CA2  0800               	movf	indf,w
 11725  0CA3  00A9               	movwf	(i1printf@_val)
 11726  0CA4  0A84               	incf	fsr0,f
 11727  0CA5  0800               	movf	indf,w
 11728  0CA6  00AA               	movwf	(i1printf@_val+1)
 11729                           opt subtitle "HI-TECH Software Omniscient Code Generator (Lite mode) build 49521"
 11730  0CA7                     i1l4049:	
 11731  0CA7  3002               	movlw	(02h)
 11732  0CA8  00A2               	movwf	(??i1_printf+0)+0
 11733  0CA9  0822               	movf	(??i1_printf+0)+0,w
 11734  0CAA  07A6               	addwf	(i1printf@ap),f
 11735                           opt subtitle "HI-TECH Software Omniscient Code Generator (Lite mode) build 49521"
 11736                           
 11737  0CAB                     i1l4051:	
 11738                           opt subtitle "HI-TECH Software Omniscient Code Generator (Lite mode) build 49521"
 11739  0CAB  1FAA               	btfss	(i1printf@_val+1),7
 11740  0CAC  2CAE               	goto	u409_21
 11741  0CAD  2CAF               	goto	u409_20
 11742  0CAE                     u409_21:
 11743  0CAE  2D37               	goto	i1l4087
 11744  0CAF                     u409_20:
 11745                           opt subtitle "HI-TECH Software Omniscient Code Generator (Lite mode) build 49521"
 11746                           
 11747  0CAF                     i1l4053:	
 11748                           opt subtitle "HI-TECH Software Omniscient Code Generator (Lite mode) build 49521"
 11749  0CAF  3003               	movlw	(03h)
 11750  0CB0  00A2               	movwf	(??i1_printf+0)+0
 11751  0CB1  0822               	movf	(??i1_printf+0)+0,w
 11752  0CB2  04A8               	iorwf	(i1printf@flag),f
 11753                           opt subtitle "HI-TECH Software Omniscient Code Generator (Lite mode) build 49521"
 11754                           
 11755  0CB3                     i1l4055:	
 11756                           opt subtitle "HI-TECH Software Omniscient Code Generator (Lite mode) build 49521"
 11757  0CB3  09A9               	comf	(i1printf@_val),f
 11758  0CB4  09AA               	comf	(i1printf@_val+1),f
 11759  0CB5  0AA9               	incf	(i1printf@_val),f
 11760  0CB6  1903               	skipnz
 11761  0CB7  0AAA               	incf	(i1printf@_val+1),f
 11762  0CB8  2D37               	goto	i1l4087
 11763                           opt subtitle "HI-TECH Software Omniscient Code Generator (Lite mode) build 49521"
 11764                           
 11765  0CB9                     i1l427:	
 11766                           opt subtitle "HI-TECH Software Omniscient Code Generator (Lite mode) build 49521"
 11767                           
 11768                           opt pagewidth 120
 11769  0CB9  2D37               	goto	i1l4087
 11770                           opt subtitle "HI-TECH Software Omniscient Code Generator (Lite mode) build 49521"
 11771                           
 11772  0CBA                     i1l426:	
 11773                           opt subtitle "HI-TECH Software Omniscient Code Generator (Lite mode) build 49521"
 11774                           
 11775  0CBA                     i1l4057:	
 11776                           opt subtitle "HI-TECH Software Omniscient Code Generator (Lite mode) build 49521"
 11777                           
 11778                           opt pagewidth 120
 11779  0CBA  0826               	movf	(i1printf@ap),w
 11780  0CBB  0084               	movwf	fsr0
 11781  0CBC  1383               	bcf	status, 7	;select IRP bank0
 11782  0CBD  0800               	movf	indf,w
 11783  0CBE  00A9               	movwf	(i1printf@_val)
 11784  0CBF  0A84               	incf	fsr0,f
 11785  0CC0  0800               	movf	indf,w
 11786  0CC1  00AA               	movwf	(i1printf@_val+1)
 11787                           opt subtitle "HI-TECH Software Omniscient Code Generator (Lite mode) build 49521"
 11788  0CC2                     i1l4059:	
 11789  0CC2  3002               	movlw	(02h)
 11790  0CC3  00A2               	movwf	(??i1_printf+0)+0
 11791  0CC4  0822               	movf	(??i1_printf+0)+0,w
 11792  0CC5  07A6               	addwf	(i1printf@ap),f
 11793  0CC6  2D37               	goto	i1l4087
 11794                           opt subtitle "HI-TECH Software Omniscient Code Generator (Lite mode) build 49521"
 11795                           
 11796  0CC7                     i1l428:	
 11797                           opt subtitle "HI-TECH Software Omniscient Code Generator (Lite mode) build 49521"
 11798                           
 11799                           opt pagewidth 120
 11800  0CC7  2D37               	goto	i1l4087
 11801                           opt subtitle "HI-TECH Software Omniscient Code Generator (Lite mode) build 49521"
 11802                           
 11803                           opt pagewidth 120
 11804  0CC8                     i1l430:	
 11805                           opt subtitle "HI-TECH Software Omniscient Code Generator (Lite mode) build 49521"
 11806                           
 11807  0CC8  01AD               	clrf	(i1printf@c)
 11808  0CC9  0AAD               	incf	(i1printf@c),f
 11809                           opt subtitle "HI-TECH Software Omniscient Code Generator (Lite mode) build 49521"
 11810  0CCA                     i1l4061:	
 11811  0CCA  082D               	movf	(i1printf@c),w
 11812  0CCB  3A05               	xorlw	05h
 11813  0CCC  1D03               	skipz
 11814  0CCD  2CCF               	goto	u410_21
 11815  0CCE  2CD0               	goto	u410_20
 11816  0CCF                     u410_21:
 11817  0CCF  2CD2               	goto	i1l4065
 11818  0CD0                     u410_20:
 11819  0CD0  2D40               	goto	i1l4089
 11820                           opt subtitle "HI-TECH Software Omniscient Code Generator (Lite mode) build 49521"
 11821  0CD1                     i1l4063:	
 11822  0CD1  2D40               	goto	i1l4089
 11823                           opt subtitle "HI-TECH Software Omniscient Code Generator (Lite mode) build 49521"
 11824                           
 11825  0CD2                     i1l431:	
 11826                           opt subtitle "HI-TECH Software Omniscient Code Generator (Lite mode) build 49521"
 11827  0CD2                     i1l4065:	
 11828                           opt subtitle "HI-TECH Software Omniscient Code Generator (Lite mode) build 49521"
 11829  0CD2  082D               	movf	(i1printf@c),w
 11830  0CD3  00A2               	movwf	(??i1_printf+0)+0
 11831  0CD4  0722               	addwf	(??i1_printf+0)+0,w
 11832  0CD5  3E83               	addlw	low(_dpowers|8000h)
 11833  0CD6  0084               	movwf	fsr0
 11834  0CD7  3090               	movlw	high(_dpowers|8000h)
 11835  0CD8  1803               	skipnc
 11836  0CD9  3E01               	addlw	1
 11837  0CDA  00FF               	movwf	btemp+1
 11838  0CDB  160A  118A  2000   	fcall	stringtab
              120A  158A         
 11839  0CE0  00A3               	movwf	(??i1_printf+1)+0
 11840  0CE1  160A  118A  2000   	fcall	stringtab
              120A  158A         
 11841  0CE6  00A4               	movwf	(??i1_printf+1)+0+1
 11842  0CE7  0824               	movf	1+(??i1_printf+1)+0,w
 11843  0CE8  022A               	subwf	(i1printf@_val+1),w
 11844  0CE9  1D03               	skipz
 11845  0CEA  2CED               	goto	u411_25
 11846  0CEB  0823               	movf	0+(??i1_printf+1)+0,w
 11847  0CEC  0229               	subwf	(i1printf@_val),w
 11848  0CED                     u411_25:
 11849  0CED  1803               	skipnc
 11850  0CEE  2CF0               	goto	u411_21
 11851  0CEF  2CF1               	goto	u411_20
 11852  0CF0                     u411_21:
 11853  0CF0  2CF3               	goto	i1l4069
 11854  0CF1                     u411_20:
 11855  0CF1  2D40               	goto	i1l4089
 11856                           opt subtitle "HI-TECH Software Omniscient Code Generator (Lite mode) build 49521"
 11857                           
 11858  0CF2                     i1l4067:	
 11859                           opt subtitle "HI-TECH Software Omniscient Code Generator (Lite mode) build 49521"
 11860  0CF2  2D40               	goto	i1l4089
 11861                           opt subtitle "HI-TECH Software Omniscient Code Generator (Lite mode) build 49521"
 11862  0CF3                     i1l433:	
 11863                           opt subtitle "HI-TECH Software Omniscient Code Generator (Lite mode) build 49521"
 11864                           
 11865  0CF3                     i1l4069:	
 11866  0CF3  3001               	movlw	(01h)
 11867  0CF4  00A2               	movwf	(??i1_printf+0)+0
 11868  0CF5  0822               	movf	(??i1_printf+0)+0,w
 11869  0CF6  07AD               	addwf	(i1printf@c),f
 11870                           opt subtitle "HI-TECH Software Omniscient Code Generator (Lite mode) build 49521"
 11871  0CF7                     i1l4071:	
 11872  0CF7  082D               	movf	(i1printf@c),w
 11873  0CF8  3A05               	xorlw	05h
 11874  0CF9  1D03               	skipz
 11875  0CFA  2CFC               	goto	u412_21
 11876  0CFB  2CFD               	goto	u412_20
 11877  0CFC                     u412_21:
 11878  0CFC  2CD2               	goto	i1l4065
 11879  0CFD                     u412_20:
 11880  0CFD  2D40               	goto	i1l4089
 11881                           opt subtitle "HI-TECH Software Omniscient Code Generator (Lite mode) build 49521"
 11882  0CFE                     i1l432:	
 11883                           opt subtitle "HI-TECH Software Omniscient Code Generator (Lite mode) build 49521"
 11884                           
 11885  0CFE  2D40               	goto	i1l4089
 11886                           opt subtitle "HI-TECH Software Omniscient Code Generator (Lite mode) build 49521"
 11887                           
 11888                           opt pagewidth 120
 11889  0CFF                     i1l435:	
 11890                           opt subtitle "HI-TECH Software Omniscient Code Generator (Lite mode) build 49521"
 11891                           
 11892  0CFF  01AD               	clrf	(i1printf@c)
 11893  0D00  0AAD               	incf	(i1printf@c),f
 11894                           opt subtitle "HI-TECH Software Omniscient Code Generator (Lite mode) build 49521"
 11895  0D01                     i1l4073:	
 11896  0D01  082D               	movf	(i1printf@c),w
 11897  0D02  3A04               	xorlw	04h
 11898  0D03  1D03               	skipz
 11899  0D04  2D06               	goto	u413_21
 11900  0D05  2D07               	goto	u413_20
 11901  0D06                     u413_21:
 11902  0D06  2D09               	goto	i1l4077
 11903  0D07                     u413_20:
 11904  0D07  2D40               	goto	i1l4089
 11905                           opt subtitle "HI-TECH Software Omniscient Code Generator (Lite mode) build 49521"
 11906  0D08                     i1l4075:	
 11907  0D08  2D40               	goto	i1l4089
 11908                           opt subtitle "HI-TECH Software Omniscient Code Generator (Lite mode) build 49521"
 11909                           
 11910  0D09                     i1l436:	
 11911                           opt subtitle "HI-TECH Software Omniscient Code Generator (Lite mode) build 49521"
 11912  0D09                     i1l4077:	
 11913                           opt subtitle "HI-TECH Software Omniscient Code Generator (Lite mode) build 49521"
 11914  0D09  082D               	movf	(i1printf@c),w
 11915  0D0A  00A2               	movwf	(??i1_printf+0)+0
 11916  0D0B  0722               	addwf	(??i1_printf+0)+0,w
 11917  0D0C  3E8D               	addlw	low(_hexpowers|8000h)
 11918  0D0D  0084               	movwf	fsr0
 11919  0D0E  3090               	movlw	high(_hexpowers|8000h)
 11920  0D0F  1803               	skipnc
 11921  0D10  3E01               	addlw	1
 11922  0D11  00FF               	movwf	btemp+1
 11923  0D12  160A  118A  2000   	fcall	stringtab
              120A  158A         
 11924  0D17  00A3               	movwf	(??i1_printf+1)+0
 11925  0D18  160A  118A  2000   	fcall	stringtab
              120A  158A         
 11926  0D1D  00A4               	movwf	(??i1_printf+1)+0+1
 11927  0D1E  0824               	movf	1+(??i1_printf+1)+0,w
 11928  0D1F  022A               	subwf	(i1printf@_val+1),w
 11929  0D20  1D03               	skipz
 11930  0D21  2D24               	goto	u414_25
 11931  0D22  0823               	movf	0+(??i1_printf+1)+0,w
 11932  0D23  0229               	subwf	(i1printf@_val),w
 11933  0D24                     u414_25:
 11934  0D24  1803               	skipnc
 11935  0D25  2D27               	goto	u414_21
 11936  0D26  2D28               	goto	u414_20
 11937  0D27                     u414_21:
 11938  0D27  2D2A               	goto	i1l4081
 11939  0D28                     u414_20:
 11940  0D28  2D40               	goto	i1l4089
 11941                           opt subtitle "HI-TECH Software Omniscient Code Generator (Lite mode) build 49521"
 11942                           
 11943  0D29                     i1l4079:	
 11944                           opt subtitle "HI-TECH Software Omniscient Code Generator (Lite mode) build 49521"
 11945  0D29  2D40               	goto	i1l4089
 11946                           opt subtitle "HI-TECH Software Omniscient Code Generator (Lite mode) build 49521"
 11947  0D2A                     i1l438:	
 11948                           opt subtitle "HI-TECH Software Omniscient Code Generator (Lite mode) build 49521"
 11949                           
 11950  0D2A                     i1l4081:	
 11951  0D2A  3001               	movlw	(01h)
 11952  0D2B  00A2               	movwf	(??i1_printf+0)+0
 11953  0D2C  0822               	movf	(??i1_printf+0)+0,w
 11954  0D2D  07AD               	addwf	(i1printf@c),f
 11955                           opt subtitle "HI-TECH Software Omniscient Code Generator (Lite mode) build 49521"
 11956  0D2E                     i1l4083:	
 11957  0D2E  082D               	movf	(i1printf@c),w
 11958  0D2F  3A04               	xorlw	04h
 11959  0D30  1D03               	skipz
 11960  0D31  2D33               	goto	u415_21
 11961  0D32  2D34               	goto	u415_20
 11962  0D33                     u415_21:
 11963  0D33  2D09               	goto	i1l4077
 11964  0D34                     u415_20:
 11965  0D34  2D40               	goto	i1l4089
 11966                           opt subtitle "HI-TECH Software Omniscient Code Generator (Lite mode) build 49521"
 11967  0D35                     i1l437:	
 11968                           opt subtitle "HI-TECH Software Omniscient Code Generator (Lite mode) build 49521"
 11969                           
 11970  0D35  2D40               	goto	i1l4089
 11971                           opt subtitle "HI-TECH Software Omniscient Code Generator (Lite mode) build 49521"
 11972                           
 11973  0D36                     i1l4085:	
 11974                           opt subtitle "HI-TECH Software Omniscient Code Generator (Lite mode) build 49521"
 11975  0D36  2D40               	goto	i1l4089
 11976                           opt subtitle "HI-TECH Software Omniscient Code Generator (Lite mode) build 49521"
 11977                           
 11978  0D37                     i1l429:	
 11979                           opt subtitle "HI-TECH Software Omniscient Code Generator (Lite mode) build 49521"
 11980  0D37                     i1l4087:	
 11981  0D37  0828               	movf	(i1printf@flag),w
 11982  0D38  3980               	andlw	080h
 11983                           opt subtitle "HI-TECH Software Omniscient Code Generator (Lite mode) build 49521"
 11984                           
 11985                           opt pagewidth 120
 11986                           
 11987                           	opt lm
 11988                           
 11989                           	processor	16LF707
 11990                           clrc	macro
 11991                           	bcf	3,0
 11992                           	endm
 11993                           clrz	macro
 11994                           	bcf	3,2
 11995  0D39  3A00               	xorlw	0^0	; case 0
 11996  0D3A  1903               	skipnz
 11997  0D3B  2CC8               	goto	i1l430
 11998  0D3C  3A80               	xorlw	128^0	; case 128
 11999  0D3D  1903               	skipnz
 12000  0D3E  2CFF               	goto	i1l435
 12001  0D3F  2D40               	goto	i1l4089
 12002                           opt subtitle "HI-TECH Software Omniscient Code Generator (Lite mode) build 49521"
 12003                           
 12004                           opt pagewidth 120
 12005                           
 12006  0D40                     i1l434:	
 12007                           opt subtitle "HI-TECH Software Omniscient Code Generator (Lite mode) build 49521"
 12008                           
 12009  0D40                     i1l4089:	
 12010                           opt subtitle "HI-TECH Software Omniscient Code Generator (Lite mode) build 49521"
 12011                           
 12012  0D40  0828               	movf	(i1printf@flag),w
 12013  0D41  3903               	andlw	03h
 12014  0D42  1903               	btfsc	status,2
 12015  0D43  2D45               	goto	u416_21
 12016  0D44  2D46               	goto	u416_20
 12017  0D45                     u416_21:
 12018  0D45  2D4D               	goto	i1l4093
 12019  0D46                     u416_20:
 12020                           opt subtitle "HI-TECH Software Omniscient Code Generator (Lite mode) build 49521"
 12021                           
 12022  0D46                     i1l4091:	
 12023                           opt subtitle "HI-TECH Software Omniscient Code Generator (Lite mode) build 49521"
 12024  0D46  302D               	movlw	(02Dh)
 12025  0D47  160A  118A  2219   	fcall	i1_putch
              120A  158A         
 12026  0D4C  2D4D               	goto	i1l4093
 12027                           opt subtitle "HI-TECH Software Omniscient Code Generator (Lite mode) build 49521"
 12028  0D4D                     i1l439:	
 12029                           opt subtitle "HI-TECH Software Omniscient Code Generator (Lite mode) build 49521"
 12030                           
 12031  0D4D                     i1l4093:	
 12032                           opt subtitle "HI-TECH Software Omniscient Code Generator (Lite mode) build 49521"
 12033                           
 12034  0D4D  1283               	bcf	status, 5	;RP0=0, select bank0
 12035  0D4E  1303               	bcf	status, 6	;RP1=0, select bank0
 12036  0D4F  082D               	movf	(i1printf@c),w
 12037  0D50  00A2               	movwf	(??i1_printf+0)+0
 12038  0D51  0822               	movf	(??i1_printf+0)+0,w
 12039  0D52  00A7               	movwf	(i1printf@prec)
 12040                           opt subtitle "HI-TECH Software Omniscient Code Generator (Lite mode) build 49521"
 12041                           
 12042  0D53  2DD4               	goto	i1l4107
 12043                           opt subtitle "HI-TECH Software Omniscient Code Generator (Lite mode) build 49521"
 12044  0D54                     i1l441:	
 12045                           opt subtitle "HI-TECH Software Omniscient Code Generator (Lite mode) build 49521"
 12046                           
 12047  0D54  2DC4               	goto	i1l4103
 12048                           opt subtitle "HI-TECH Software Omniscient Code Generator (Lite mode) build 49521"
 12049                           
 12050                           opt pagewidth 120
 12051                           
 12052  0D55                     i1l443:	
 12053                           opt subtitle "HI-TECH Software Omniscient Code Generator (Lite mode) build 49521"
 12054                           
 12055  0D55                     i1l4095:	
 12056                           opt subtitle "HI-TECH Software Omniscient Code Generator (Lite mode) build 49521"
 12057  0D55  300A               	movlw	low(0Ah)
 12058  0D56  00F8               	movwf	(?i1___lwmod)
 12059  0D57  3000               	movlw	high(0Ah)
 12060  0D58  00F9               	movwf	((?i1___lwmod))+1
 12061  0D59  0827               	movf	(i1printf@prec),w
 12062  0D5A  00A2               	movwf	(??i1_printf+0)+0
 12063  0D5B  0722               	addwf	(??i1_printf+0)+0,w
 12064  0D5C  3E83               	addlw	low(_dpowers|8000h)
 12065  0D5D  0084               	movwf	fsr0
 12066  0D5E  3090               	movlw	high(_dpowers|8000h)
 12067  0D5F  1803               	skipnc
 12068  0D60  3E01               	addlw	1
 12069  0D61  00FF               	movwf	btemp+1
 12070  0D62  160A  118A  2000   	fcall	stringtab
              120A  158A         
 12071  0D67  00F0               	movwf	(?i1___lwdiv)
 12072  0D68  160A  118A  2000   	fcall	stringtab
              120A  158A         
 12073  0D6D  00F1               	movwf	(?i1___lwdiv+1)
 12074  0D6E  082A               	movf	(i1printf@_val+1),w
 12075  0D6F  01F3               	clrf	1+(?i1___lwdiv)+02h
 12076  0D70  07F3               	addwf	1+(?i1___lwdiv)+02h
 12077  0D71  0829               	movf	(i1printf@_val),w
 12078  0D72  01F2               	clrf	0+(?i1___lwdiv)+02h
 12079  0D73  07F2               	addwf	0+(?i1___lwdiv)+02h
 12080                           opt subtitle "HI-TECH Software Omniscient Code Generator (Lite mode) build 49521"
 12081  0D74  160A  118A  257E   	fcall	i1___lwdiv
              120A  158A         
 12082  0D79  0871               	movf	(1+(?i1___lwdiv)),w
 12083  0D7A  01FB               	clrf	1+(?i1___lwmod)+02h
 12084  0D7B  07FB               	addwf	1+(?i1___lwmod)+02h
 12085  0D7C  0870               	movf	(0+(?i1___lwdiv)),w
 12086  0D7D  01FA               	clrf	0+(?i1___lwmod)+02h
 12087  0D7E  07FA               	addwf	0+(?i1___lwmod)+02h
 12088                           opt subtitle "HI-TECH Software Omniscient Code Generator (Lite mode) build 49521"
 12089  0D7F  160A  118A  24F6   	fcall	i1___lwmod
              120A  158A         
 12090  0D84  0878               	movf	(0+(?i1___lwmod)),w
 12091  0D85  3E30               	addlw	030h
 12092  0D86  1283               	bcf	status, 5	;RP0=0, select bank0
 12093  0D87  1303               	bcf	status, 6	;RP1=0, select bank0
 12094  0D88  00A3               	movwf	(??i1_printf+1)+0
 12095  0D89  0823               	movf	(??i1_printf+1)+0,w
 12096  0D8A  00AD               	movwf	(i1printf@c)
 12097                           opt subtitle "HI-TECH Software Omniscient Code Generator (Lite mode) build 49521"
 12098                           
 12099  0D8B  2DCD               	goto	i1l4105
 12100                           opt subtitle "HI-TECH Software Omniscient Code Generator (Lite mode) build 49521"
 12101                           
 12102                           opt pagewidth 120
 12103  0D8C                     i1l445:	
 12104                           opt subtitle "HI-TECH Software Omniscient Code Generator (Lite mode) build 49521"
 12105                           
 12106  0D8C                     i1l4097:	
 12107                           opt subtitle "HI-TECH Software Omniscient Code Generator (Lite mode) build 49521"
 12108                           
 12109  0D8C  0827               	movf	(i1printf@prec),w
 12110  0D8D  00A2               	movwf	(??i1_printf+0)+0
 12111  0D8E  0722               	addwf	(??i1_printf+0)+0,w
 12112  0D8F  3E8D               	addlw	low(_hexpowers|8000h)
 12113  0D90  0084               	movwf	fsr0
 12114  0D91  3090               	movlw	high(_hexpowers|8000h)
 12115  0D92  1803               	skipnc
 12116  0D93  3E01               	addlw	1
 12117  0D94  00FF               	movwf	btemp+1
 12118  0D95  160A  118A  2000   	fcall	stringtab
              120A  158A         
 12119  0D9A  00F0               	movwf	(?i1___lwdiv)
 12120  0D9B  160A  118A  2000   	fcall	stringtab
              120A  158A         
 12121  0DA0  00F1               	movwf	(?i1___lwdiv+1)
 12122  0DA1  082A               	movf	(i1printf@_val+1),w
 12123  0DA2  01F3               	clrf	1+(?i1___lwdiv)+02h
 12124  0DA3  07F3               	addwf	1+(?i1___lwdiv)+02h
 12125  0DA4  0829               	movf	(i1printf@_val),w
 12126  0DA5  01F2               	clrf	0+(?i1___lwdiv)+02h
 12127  0DA6  07F2               	addwf	0+(?i1___lwdiv)+02h
 12128                           opt subtitle "HI-TECH Software Omniscient Code Generator (Lite mode) build 49521"
 12129  0DA7  160A  118A  257E   	fcall	i1___lwdiv
              120A  158A         
 12130  0DAC  0870               	movf	(0+(?i1___lwdiv)),w
 12131  0DAD  390F               	andlw	0Fh
 12132  0DAE  1283               	bcf	status, 5	;RP0=0, select bank0
 12133  0DAF  1303               	bcf	status, 6	;RP1=0, select bank0
 12134  0DB0  00A3               	movwf	(??i1_printf+1)+0
 12135  0DB1  0823               	movf	(??i1_printf+1)+0,w
 12136  0DB2  00A5               	movwf	(i1printf@idx)
 12137                           opt subtitle "HI-TECH Software Omniscient Code Generator (Lite mode) build 49521"
 12138                           
 12139  0DB3                     i1l4099:	
 12140                           opt subtitle "HI-TECH Software Omniscient Code Generator (Lite mode) build 49521"
 12141  0DB3  0825               	movf	(i1printf@idx),w
 12142  0DB4  3E5F               	addlw	low(STR_16|8000h)
 12143  0DB5  0084               	movwf	fsr0
 12144  0DB6  3091               	movlw	high(STR_16|8000h)
 12145  0DB7  1803               	skipnc
 12146  0DB8  3E01               	addlw	1
 12147  0DB9  00FF               	movwf	btemp+1
 12148  0DBA  160A  118A  2000   	fcall	stringtab
              120A  158A         
 12149  0DBF  00A2               	movwf	(??i1_printf+0)+0
 12150  0DC0  0822               	movf	(??i1_printf+0)+0,w
 12151  0DC1  00AD               	movwf	(i1printf@c)
 12152                           opt subtitle "HI-TECH Software Omniscient Code Generator (Lite mode) build 49521"
 12153                           
 12154                           opt pagewidth 120
 12155  0DC2  2DCD               	goto	i1l4105
 12156                           opt subtitle "HI-TECH Software Omniscient Code Generator (Lite mode) build 49521"
 12157                           
 12158  0DC3                     i1l4101:	
 12159                           opt subtitle "HI-TECH Software Omniscient Code Generator (Lite mode) build 49521"
 12160  0DC3  2DCD               	goto	i1l4105
 12161                           opt subtitle "HI-TECH Software Omniscient Code Generator (Lite mode) build 49521"
 12162                           
 12163  0DC4                     i1l442:	
 12164                           opt subtitle "HI-TECH Software Omniscient Code Generator (Lite mode) build 49521"
 12165  0DC4                     i1l4103:	
 12166  0DC4  0828               	movf	(i1printf@flag),w
 12167  0DC5  3980               	andlw	080h
 12168                           opt subtitle "HI-TECH Software Omniscient Code Generator (Lite mode) build 49521"
 12169                           
 12170                           opt pagewidth 120
 12171                           
 12172                           	opt lm
 12173                           
 12174                           	processor	16LF707
 12175                           clrc	macro
 12176                           	bcf	3,0
 12177                           	endm
 12178                           clrz	macro
 12179                           	bcf	3,2
 12180  0DC6  3A00               	xorlw	0^0	; case 0
 12181  0DC7  1903               	skipnz
 12182  0DC8  2D55               	goto	i1l4095
 12183  0DC9  3A80               	xorlw	128^0	; case 128
 12184  0DCA  1903               	skipnz
 12185  0DCB  2D8C               	goto	i1l4097
 12186  0DCC  2DCD               	goto	i1l4105
 12187                           opt subtitle "HI-TECH Software Omniscient Code Generator (Lite mode) build 49521"
 12188                           
 12189                           opt pagewidth 120
 12190                           
 12191  0DCD                     i1l444:	
 12192                           opt subtitle "HI-TECH Software Omniscient Code Generator (Lite mode) build 49521"
 12193                           
 12194  0DCD                     i1l4105:	
 12195                           opt subtitle "HI-TECH Software Omniscient Code Generator (Lite mode) build 49521"
 12196  0DCD  082D               	movf	(i1printf@c),w
 12197  0DCE  160A  118A  2219   	fcall	i1_putch
              120A  158A         
 12198  0DD3  2DD4               	goto	i1l4107
 12199                           opt subtitle "HI-TECH Software Omniscient Code Generator (Lite mode) build 49521"
 12200                           
 12201  0DD4                     i1l440:	
 12202                           opt subtitle "HI-TECH Software Omniscient Code Generator (Lite mode) build 49521"
 12203                           
 12204  0DD4                     i1l4107:	
 12205  0DD4  30FF               	movlw	(-1)
 12206  0DD5  1283               	bcf	status, 5	;RP0=0, select bank0
 12207  0DD6  1303               	bcf	status, 6	;RP1=0, select bank0
 12208  0DD7  00A2               	movwf	(??i1_printf+0)+0
 12209  0DD8  0822               	movf	(??i1_printf+0)+0,w
 12210  0DD9  07A7               	addwf	(i1printf@prec),f
 12211  0DDA  0827               	movf	((i1printf@prec)),w
 12212  0DDB  3AFF               	xorlw	-1
 12213  0DDC  1D03               	skipz
 12214  0DDD  2DDF               	goto	u417_21
 12215  0DDE  2DE0               	goto	u417_20
 12216  0DDF                     u417_21:
 12217  0DDF  2DC4               	goto	i1l4103
 12218  0DE0                     u417_20:
 12219  0DE0  2DE2               	goto	i1l4109
 12220                           opt subtitle "HI-TECH Software Omniscient Code Generator (Lite mode) build 49521"
 12221  0DE1                     i1l446:	
 12222  0DE1  2DE2               	goto	i1l4109
 12223                           opt subtitle "HI-TECH Software Omniscient Code Generator (Lite mode) build 49521"
 12224                           
 12225  0DE2                     i1l414:	
 12226                           opt subtitle "HI-TECH Software Omniscient Code Generator (Lite mode) build 49521"
 12227                           
 12228  0DE2                     i1l4109:	
 12229  0DE2  1283               	bcf	status, 5	;RP0=0, select bank0
 12230  0DE3  1303               	bcf	status, 6	;RP1=0, select bank0
 12231  0DE4  0821               	movf	(i1printf@f+1),w
 12232  0DE5  00A3               	movwf	(??i1_printf+0)+0+1
 12233  0DE6  0820               	movf	(i1printf@f),w
 12234  0DE7  00A2               	movwf	(??i1_printf+0)+0
 12235  0DE8  3001               	movlw	(01h)
 12236  0DE9  07A0               	addwf	(i1printf@f),f
 12237  0DEA  1803               	skipnc
 12238  0DEB  0AA1               	incf	(i1printf@f+1),f
 12239  0DEC  0823               	movf	1+(??i1_printf+0)+0,w
 12240  0DED  00FF               	movwf	btemp+1
 12241  0DEE  0822               	movf	0+(??i1_printf+0)+0,w
 12242  0DEF  0084               	movwf	fsr0
 12243  0DF0  160A  118A  2000   	fcall	stringtab
              120A  158A         
 12244  0DF5  00A4               	movwf	(??i1_printf+2)+0
 12245  0DF6  0824               	movf	(??i1_printf+2)+0,w
 12246  0DF7  00AD               	movwf	(i1printf@c)
 12247  0DF8  08AD               	movf	((i1printf@c)),f
 12248  0DF9  1D03               	skipz
 12249  0DFA  2DFC               	goto	u418_21
 12250  0DFB  2DFD               	goto	u418_20
 12251  0DFC                     u418_21:
 12252  0DFC  2C59               	goto	i1l4037
 12253  0DFD                     u418_20:
 12254  0DFD  2DFF               	goto	i1l448
 12255                           opt subtitle "HI-TECH Software Omniscient Code Generator (Lite mode) build 49521"
 12256  0DFE                     i1l447:	
 12257  0DFE  2DFF               	goto	i1l448
 12258                           opt subtitle "HI-TECH Software Omniscient Code Generator (Lite mode) build 49521"
 12259                           
 12260                           opt pagewidth 120
 12261                           
 12262                           	opt lm
 12263  0DFF                     i1l419:	
 12264                           opt subtitle "HI-TECH Software Omniscient Code Generator (Lite mode) build 49521"
 12265                           
 12266                           opt pagewidth 120
 12267                           
 12268  0DFF                     i1l448:	
 12269  0DFF  0008               	return
 12270                           opt subtitle "HI-TECH Software Omniscient Code Generator (Lite mode) build 49521"
 12271                           
 12272  0E00                     	__end_ofi1_printf:
 12273                           opt subtitle "HI-TECH Software Omniscient Code Generator (Lite mode) build 49521"
 12274                           
 12275                           opt pagewidth 120
 12276                           
 12277                           	opt lm
 12278                           
 12279                           	processor	16LF707
 12280                           clrc	macro
 12281                           	bcf	3,0
 12282                           	endm
 12283                           clrz	macro
 12284                           	bcf	3,2
 12285                           	endm
 12286                           setc	macro
 12287                           	bsf	3,0
 12288                           	endm
 12289                           setz	macro
 12290                           	bsf	3,2
 12291                           	endm
 12292                           skipc	macro
 12293                           	btfss	3,0
 12294                           	endm
 12295                           skipz	macro
 12296                           	btfss	3,2
 12297                           	endm
 12298                           skipnc	macro
 12299                           	btfsc	3,0
 12300                           	endm
 12301                           skipnz	macro
 12302                           	btfsc	3,2
 12303                           	endm
 12304                           indf	equ	0
 12305                           indf0	equ	0
 12306  1219                     __ptext1314:	;psect for function i1_putch
 12307                           opt subtitle "HI-TECH Software Omniscient Code Generator (Lite mode) build 49521"
 12308                           
 12309                           opt pagewidth 120
 12310                           
 12311  000C                     	__size_ofi1_putch	equ	__end_ofi1_putch-i1_putch
 12312                           opt subtitle "HI-TECH Software Omniscient Code Generator (Lite mode) build 49521"
 12313  1219                     i1_putch:	
 12314                           opt subtitle "HI-TECH Software Omniscient Code Generator (Lite mode) build 49521"
 12315                           
 12316                           opt pagewidth 120
 12317  1219  00F0               	movwf	(i1putch@c)
 12318                           opt subtitle "HI-TECH Software Omniscient Code Generator (Lite mode) build 49521"
 12319                           
 12320  121A                     i1l3983:	
 12321                           opt subtitle "HI-TECH Software Omniscient Code Generator (Lite mode) build 49521"
 12322  121A  2A1B               	goto	i1l248
 12323                           opt subtitle "HI-TECH Software Omniscient Code Generator (Lite mode) build 49521"
 12324  121B                     i1l249:	
 12325                           opt subtitle "HI-TECH Software Omniscient Code Generator (Lite mode) build 49521"
 12326  121B                     i1l248:	
 12327  121B  1283               	bcf	status, 5	;RP0=0, select bank0
 12328  121C  1303               	bcf	status, 6	;RP1=0, select bank0
 12329  121D  1E0C               	btfss	(100/8),(100)&7	;volatile
 12330  121E  2A20               	goto	u393_21
 12331  121F  2A21               	goto	u393_20
 12332  1220                     u393_21:
 12333  1220  2A1B               	goto	i1l248
 12334  1221                     u393_20:
 12335  1221  2A22               	goto	i1l3985
 12336                           opt subtitle "HI-TECH Software Omniscient Code Generator (Lite mode) build 49521"
 12337  1222                     i1l250:	
 12338                           opt subtitle "HI-TECH Software Omniscient Code Generator (Lite mode) build 49521"
 12339                           
 12340  1222                     i1l3985:	
 12341                           opt subtitle "HI-TECH Software Omniscient Code Generator (Lite mode) build 49521"
 12342  1222  0870               	movf	(i1putch@c),w
 12343  1223  0099               	movwf	(25)	;volatile
 12344                           opt subtitle "HI-TECH Software Omniscient Code Generator (Lite mode) build 49521"
 12345                           
 12346  1224                     i1l251:	
 12347  1224  0008               	return
 12348                           opt subtitle "HI-TECH Software Omniscient Code Generator (Lite mode) build 49521"
 12349                           
 12350  1225                     	__end_ofi1_putch:
 12351                           opt subtitle "HI-TECH Software Omniscient Code Generator (Lite mode) build 49521"
 12352                           
 12353                           opt pagewidth 120
 12354                           
 12355                           	opt lm
 12356                           
 12357                           	processor	16LF707
 12358                           clrc	macro
 12359                           	bcf	3,0
 12360                           	endm
 12361                           clrz	macro
 12362                           	bcf	3,2
 12363                           	endm
 12364                           setc	macro
 12365                           	bsf	3,0
 12366                           	endm
 12367                           setz	macro
 12368                           	bsf	3,2
 12369                           	endm
 12370                           skipc	macro
 12371                           	btfss	3,0
 12372                           	endm
 12373                           skipz	macro
 12374                           	btfss	3,2
 12375                           	endm
 12376                           skipnc	macro
 12377                           	btfsc	3,0
 12378                           	endm
 12379                           skipnz	macro
 12380                           	btfsc	3,2
 12381                           	endm
 12382                           indf	equ	0
 12383                           indf0	equ	0
 12384                           pc	equ	2
 12385                           pcl	equ	2
 12386  157E                     __ptext1315:	;psect for function i1___lwdiv
 12387                           opt subtitle "HI-TECH Software Omniscient Code Generator (Lite mode) build 49521"
 12388                           
 12389                           opt pagewidth 120
 12390                           
 12391  004D                     	__size_ofi1___lwdiv	equ	__end_ofi1___lwdiv-i1___lwdiv
 12392                           opt subtitle "HI-TECH Software Omniscient Code Generator (Lite mode) build 49521"
 12393  157E                     i1___lwdiv:	
 12394                           opt subtitle "HI-TECH Software Omniscient Code Generator (Lite mode) build 49521"
 12395                           
 12396                           opt pagewidth 120
 12397                           
 12398  157E                     i1l3987:	
 12399  157E  01F6               	clrf	(i1___lwdiv@quotient)
 12400  157F  01F7               	clrf	(i1___lwdiv@quotient+1)
 12401                           opt subtitle "HI-TECH Software Omniscient Code Generator (Lite mode) build 49521"
 12402                           
 12403  1580                     i1l3989:	
 12404  1580  0871               	movf	(i1___lwdiv@divisor+1),w
 12405  1581  0470               	iorwf	(i1___lwdiv@divisor),w
 12406  1582  1903               	skipnz
 12407  1583  2D85               	goto	u394_21
 12408  1584  2D86               	goto	u394_20
 12409  1585                     u394_21:
 12410  1585  2DC3               	goto	i1l4009
 12411  1586                     u394_20:
 12412                           opt subtitle "HI-TECH Software Omniscient Code Generator (Lite mode) build 49521"
 12413                           
 12414  1586                     i1l3991:	
 12415  1586  01F5               	clrf	(i1___lwdiv@counter)
 12416  1587  0AF5               	incf	(i1___lwdiv@counter),f
 12417                           opt subtitle "HI-TECH Software Omniscient Code Generator (Lite mode) build 49521"
 12418  1588  2D95               	goto	i1l3997
 12419                           opt subtitle "HI-TECH Software Omniscient Code Generator (Lite mode) build 49521"
 12420  1589                     i1l465:	
 12421                           opt subtitle "HI-TECH Software Omniscient Code Generator (Lite mode) build 49521"
 12422                           
 12423  1589                     i1l3993:	
 12424  1589  3001               	movlw	01h
 12425                           opt subtitle "HI-TECH Software Omniscient Code Generator (Lite mode) build 49521"
 12426  158A                     u395_25:
 12427  158A  1003               	clrc
 12428  158B  0DF0               	rlf	(i1___lwdiv@divisor),f
 12429  158C  0DF1               	rlf	(i1___lwdiv@divisor+1),f
 12430  158D  3EFF               	addlw	-1
 12431  158E  1D03               	skipz
 12432  158F  2D8A               	goto	u395_25
 12433                           opt subtitle "HI-TECH Software Omniscient Code Generator (Lite mode) build 49521"
 12434                           
 12435  1590                     i1l3995:	
 12436  1590  3001               	movlw	(01h)
 12437  1591  00F4               	movwf	(??i1___lwdiv+0)+0
 12438  1592  0874               	movf	(??i1___lwdiv+0)+0,w
 12439  1593  07F5               	addwf	(i1___lwdiv@counter),f
 12440  1594  2D95               	goto	i1l3997
 12441                           opt subtitle "HI-TECH Software Omniscient Code Generator (Lite mode) build 49521"
 12442                           
 12443  1595                     i1l464:	
 12444                           opt subtitle "HI-TECH Software Omniscient Code Generator (Lite mode) build 49521"
 12445                           
 12446  1595                     i1l3997:	
 12447  1595  1FF1               	btfss	(i1___lwdiv@divisor+1),(15)&7
 12448  1596  2D98               	goto	u396_21
 12449  1597  2D99               	goto	u396_20
 12450  1598                     u396_21:
 12451  1598  2D89               	goto	i1l3993
 12452  1599                     u396_20:
 12453  1599  2D9B               	goto	i1l3999
 12454                           opt subtitle "HI-TECH Software Omniscient Code Generator (Lite mode) build 49521"
 12455  159A                     i1l466:	
 12456  159A  2D9B               	goto	i1l3999
 12457                           opt subtitle "HI-TECH Software Omniscient Code Generator (Lite mode) build 49521"
 12458                           
 12459  159B                     i1l467:	
 12460                           opt subtitle "HI-TECH Software Omniscient Code Generator (Lite mode) build 49521"
 12461                           
 12462  159B                     i1l3999:	
 12463  159B  3001               	movlw	01h
 12464                           opt subtitle "HI-TECH Software Omniscient Code Generator (Lite mode) build 49521"
 12465  159C                     u397_25:
 12466  159C  1003               	clrc
 12467  159D  0DF6               	rlf	(i1___lwdiv@quotient),f
 12468  159E  0DF7               	rlf	(i1___lwdiv@quotient+1),f
 12469  159F  3EFF               	addlw	-1
 12470  15A0  1D03               	skipz
 12471  15A1  2D9C               	goto	u397_25
 12472                           opt subtitle "HI-TECH Software Omniscient Code Generator (Lite mode) build 49521"
 12473  15A2  0871               	movf	(i1___lwdiv@divisor+1),w
 12474  15A3  0273               	subwf	(i1___lwdiv@dividend+1),w
 12475  15A4  1D03               	skipz
 12476  15A5  2DA8               	goto	u398_25
 12477  15A6  0870               	movf	(i1___lwdiv@divisor),w
 12478  15A7  0272               	subwf	(i1___lwdiv@dividend),w
 12479  15A8                     u398_25:
 12480  15A8  1C03               	skipc
 12481  15A9  2DAB               	goto	u398_21
 12482  15AA  2DAC               	goto	u398_20
 12483  15AB                     u398_21:
 12484  15AB  2DB4               	goto	i1l4005
 12485  15AC                     u398_20:
 12486                           opt subtitle "HI-TECH Software Omniscient Code Generator (Lite mode) build 49521"
 12487                           
 12488  15AC                     i1l4001:	
 12489  15AC  0870               	movf	(i1___lwdiv@divisor),w
 12490  15AD  02F2               	subwf	(i1___lwdiv@dividend),f
 12491  15AE  0871               	movf	(i1___lwdiv@divisor+1),w
 12492  15AF  1C03               	skipc
 12493  15B0  03F3               	decf	(i1___lwdiv@dividend+1),f
 12494  15B1  02F3               	subwf	(i1___lwdiv@dividend+1),f
 12495                           opt subtitle "HI-TECH Software Omniscient Code Generator (Lite mode) build 49521"
 12496                           
 12497  15B2                     i1l4003:	
 12498  15B2  1476               	bsf	(i1___lwdiv@quotient)+(0/8),(0)&7
 12499  15B3  2DB4               	goto	i1l4005
 12500                           opt subtitle "HI-TECH Software Omniscient Code Generator (Lite mode) build 49521"
 12501                           
 12502  15B4                     i1l468:	
 12503                           opt subtitle "HI-TECH Software Omniscient Code Generator (Lite mode) build 49521"
 12504                           
 12505  15B4                     i1l4005:	
 12506  15B4  3001               	movlw	01h
 12507                           opt subtitle "HI-TECH Software Omniscient Code Generator (Lite mode) build 49521"
 12508  15B5                     u399_25:
 12509  15B5  1003               	clrc
 12510  15B6  0CF1               	rrf	(i1___lwdiv@divisor+1),f
 12511  15B7  0CF0               	rrf	(i1___lwdiv@divisor),f
 12512  15B8  3EFF               	addlw	-1
 12513  15B9  1D03               	skipz
 12514  15BA  2DB5               	goto	u399_25
 12515                           opt subtitle "HI-TECH Software Omniscient Code Generator (Lite mode) build 49521"
 12516                           
 12517  15BB                     i1l4007:	
 12518  15BB  3001               	movlw	low(01h)
 12519  15BC  02F5               	subwf	(i1___lwdiv@counter),f
 12520  15BD  1D03               	btfss	status,2
 12521  15BE  2DC0               	goto	u400_21
 12522  15BF  2DC1               	goto	u400_20
 12523  15C0                     u400_21:
 12524  15C0  2D9B               	goto	i1l3999
 12525  15C1                     u400_20:
 12526  15C1  2DC3               	goto	i1l4009
 12527                           opt subtitle "HI-TECH Software Omniscient Code Generator (Lite mode) build 49521"
 12528  15C2                     i1l469:	
 12529  15C2  2DC3               	goto	i1l4009
 12530                           opt subtitle "HI-TECH Software Omniscient Code Generator (Lite mode) build 49521"
 12531                           
 12532  15C3                     i1l463:	
 12533                           opt subtitle "HI-TECH Software Omniscient Code Generator (Lite mode) build 49521"
 12534                           
 12535  15C3                     i1l4009:	
 12536  15C3  0877               	movf	(i1___lwdiv@quotient+1),w
 12537  15C4  01F1               	clrf	(?i1___lwdiv+1)
 12538  15C5  07F1               	addwf	(?i1___lwdiv+1)
 12539  15C6  0876               	movf	(i1___lwdiv@quotient),w
 12540  15C7  01F0               	clrf	(?i1___lwdiv)
 12541  15C8  07F0               	addwf	(?i1___lwdiv)
 12542                           opt subtitle "HI-TECH Software Omniscient Code Generator (Lite mode) build 49521"
 12543  15C9  2DCA               	goto	i1l470
 12544                           opt subtitle "HI-TECH Software Omniscient Code Generator (Lite mode) build 49521"
 12545  15CA                     i1l4011:	
 12546                           opt subtitle "HI-TECH Software Omniscient Code Generator (Lite mode) build 49521"
 12547                           
 12548  15CA                     i1l470:	
 12549  15CA  0008               	return
 12550                           opt subtitle "HI-TECH Software Omniscient Code Generator (Lite mode) build 49521"
 12551                           
 12552  15CB                     	__end_ofi1___lwdiv:
 12553                           opt subtitle "HI-TECH Software Omniscient Code Generator (Lite mode) build 49521"
 12554                           
 12555                           opt pagewidth 120
 12556                           
 12557                           	opt lm
 12558                           
 12559                           	processor	16LF707
 12560                           clrc	macro
 12561                           	bcf	3,0
 12562                           	endm
 12563                           clrz	macro
 12564                           	bcf	3,2
 12565                           	endm
 12566                           setc	macro
 12567                           	bsf	3,0
 12568                           	endm
 12569                           setz	macro
 12570                           	bsf	3,2
 12571                           	endm
 12572                           skipc	macro
 12573                           	btfss	3,0
 12574                           	endm
 12575                           skipz	macro
 12576                           	btfss	3,2
 12577                           	endm
 12578                           skipnc	macro
 12579                           	btfsc	3,0
 12580                           	endm
 12581                           skipnz	macro
 12582                           	btfsc	3,2
 12583                           	endm
 12584                           indf	equ	0
 12585                           indf0	equ	0
 12586                           pc	equ	2
 12587  14F6                     __ptext1316:	;psect for function i1___lwmod
 12588                           opt subtitle "HI-TECH Software Omniscient Code Generator (Lite mode) build 49521"
 12589                           
 12590                           opt pagewidth 120
 12591                           
 12592  0043                     	__size_ofi1___lwmod	equ	__end_ofi1___lwmod-i1___lwmod
 12593                           opt subtitle "HI-TECH Software Omniscient Code Generator (Lite mode) build 49521"
 12594  14F6                     i1___lwmod:	
 12595                           opt subtitle "HI-TECH Software Omniscient Code Generator (Lite mode) build 49521"
 12596                           
 12597                           opt pagewidth 120
 12598                           
 12599  14F6                     i1l4013:	
 12600  14F6  0879               	movf	(i1___lwmod@divisor+1),w
 12601  14F7  0478               	iorwf	(i1___lwmod@divisor),w
 12602  14F8  1903               	skipnz
 12603  14F9  2CFB               	goto	u401_21
 12604  14FA  2CFC               	goto	u401_20
 12605  14FB                     u401_21:
 12606  14FB  2D31               	goto	i1l4031
 12607  14FC                     u401_20:
 12608                           opt subtitle "HI-TECH Software Omniscient Code Generator (Lite mode) build 49521"
 12609                           
 12610  14FC                     i1l4015:	
 12611  14FC  01FD               	clrf	(i1___lwmod@counter)
 12612  14FD  0AFD               	incf	(i1___lwmod@counter),f
 12613                           opt subtitle "HI-TECH Software Omniscient Code Generator (Lite mode) build 49521"
 12614  14FE  2D0B               	goto	i1l4021
 12615                           opt subtitle "HI-TECH Software Omniscient Code Generator (Lite mode) build 49521"
 12616  14FF                     i1l475:	
 12617                           opt subtitle "HI-TECH Software Omniscient Code Generator (Lite mode) build 49521"
 12618                           
 12619  14FF                     i1l4017:	
 12620  14FF  3001               	movlw	01h
 12621                           opt subtitle "HI-TECH Software Omniscient Code Generator (Lite mode) build 49521"
 12622  1500                     u402_25:
 12623  1500  1003               	clrc
 12624  1501  0DF8               	rlf	(i1___lwmod@divisor),f
 12625  1502  0DF9               	rlf	(i1___lwmod@divisor+1),f
 12626  1503  3EFF               	addlw	-1
 12627  1504  1D03               	skipz
 12628  1505  2D00               	goto	u402_25
 12629                           opt subtitle "HI-TECH Software Omniscient Code Generator (Lite mode) build 49521"
 12630                           
 12631  1506                     i1l4019:	
 12632  1506  3001               	movlw	(01h)
 12633  1507  00FC               	movwf	(??i1___lwmod+0)+0
 12634  1508  087C               	movf	(??i1___lwmod+0)+0,w
 12635  1509  07FD               	addwf	(i1___lwmod@counter),f
 12636  150A  2D0B               	goto	i1l4021
 12637                           opt subtitle "HI-TECH Software Omniscient Code Generator (Lite mode) build 49521"
 12638                           
 12639  150B                     i1l474:	
 12640                           opt subtitle "HI-TECH Software Omniscient Code Generator (Lite mode) build 49521"
 12641                           
 12642  150B                     i1l4021:	
 12643  150B  1FF9               	btfss	(i1___lwmod@divisor+1),(15)&7
 12644  150C  2D0E               	goto	u403_21
 12645  150D  2D0F               	goto	u403_20
 12646  150E                     u403_21:
 12647  150E  2CFF               	goto	i1l4017
 12648  150F                     u403_20:
 12649  150F  2D11               	goto	i1l4023
 12650                           opt subtitle "HI-TECH Software Omniscient Code Generator (Lite mode) build 49521"
 12651  1510                     i1l476:	
 12652  1510  2D11               	goto	i1l4023
 12653                           opt subtitle "HI-TECH Software Omniscient Code Generator (Lite mode) build 49521"
 12654                           
 12655  1511                     i1l477:	
 12656                           opt subtitle "HI-TECH Software Omniscient Code Generator (Lite mode) build 49521"
 12657                           
 12658  1511                     i1l4023:	
 12659  1511  0879               	movf	(i1___lwmod@divisor+1),w
 12660  1512  027B               	subwf	(i1___lwmod@dividend+1),w
 12661  1513  1D03               	skipz
 12662  1514  2D17               	goto	u404_25
 12663  1515  0878               	movf	(i1___lwmod@divisor),w
 12664  1516  027A               	subwf	(i1___lwmod@dividend),w
 12665  1517                     u404_25:
 12666  1517  1C03               	skipc
 12667  1518  2D1A               	goto	u404_21
 12668  1519  2D1B               	goto	u404_20
 12669  151A                     u404_21:
 12670  151A  2D22               	goto	i1l4027
 12671  151B                     u404_20:
 12672                           opt subtitle "HI-TECH Software Omniscient Code Generator (Lite mode) build 49521"
 12673                           
 12674  151B                     i1l4025:	
 12675  151B  0878               	movf	(i1___lwmod@divisor),w
 12676  151C  02FA               	subwf	(i1___lwmod@dividend),f
 12677  151D  0879               	movf	(i1___lwmod@divisor+1),w
 12678  151E  1C03               	skipc
 12679  151F  03FB               	decf	(i1___lwmod@dividend+1),f
 12680  1520  02FB               	subwf	(i1___lwmod@dividend+1),f
 12681  1521  2D22               	goto	i1l4027
 12682                           opt subtitle "HI-TECH Software Omniscient Code Generator (Lite mode) build 49521"
 12683  1522                     i1l478:	
 12684                           opt subtitle "HI-TECH Software Omniscient Code Generator (Lite mode) build 49521"
 12685                           
 12686  1522                     i1l4027:	
 12687  1522  3001               	movlw	01h
 12688                           opt subtitle "HI-TECH Software Omniscient Code Generator (Lite mode) build 49521"
 12689  1523                     u405_25:
 12690  1523  1003               	clrc
 12691  1524  0CF9               	rrf	(i1___lwmod@divisor+1),f
 12692  1525  0CF8               	rrf	(i1___lwmod@divisor),f
 12693  1526  3EFF               	addlw	-1
 12694  1527  1D03               	skipz
 12695  1528  2D23               	goto	u405_25
 12696                           opt subtitle "HI-TECH Software Omniscient Code Generator (Lite mode) build 49521"
 12697                           
 12698  1529                     i1l4029:	
 12699  1529  3001               	movlw	low(01h)
 12700  152A  02FD               	subwf	(i1___lwmod@counter),f
 12701  152B  1D03               	btfss	status,2
 12702  152C  2D2E               	goto	u406_21
 12703  152D  2D2F               	goto	u406_20
 12704  152E                     u406_21:
 12705  152E  2D11               	goto	i1l4023
 12706  152F                     u406_20:
 12707  152F  2D31               	goto	i1l4031
 12708                           opt subtitle "HI-TECH Software Omniscient Code Generator (Lite mode) build 49521"
 12709  1530                     i1l479:	
 12710  1530  2D31               	goto	i1l4031
 12711                           opt subtitle "HI-TECH Software Omniscient Code Generator (Lite mode) build 49521"
 12712                           
 12713  1531                     i1l473:	
 12714                           opt subtitle "HI-TECH Software Omniscient Code Generator (Lite mode) build 49521"
 12715                           
 12716  1531                     i1l4031:	
 12717  1531  087B               	movf	(i1___lwmod@dividend+1),w
 12718  1532  01F9               	clrf	(?i1___lwmod+1)
 12719  1533  07F9               	addwf	(?i1___lwmod+1)
 12720  1534  087A               	movf	(i1___lwmod@dividend),w
 12721  1535  01F8               	clrf	(?i1___lwmod)
 12722  1536  07F8               	addwf	(?i1___lwmod)
 12723                           opt subtitle "HI-TECH Software Omniscient Code Generator (Lite mode) build 49521"
 12724  1537  2D38               	goto	i1l480
 12725                           opt subtitle "HI-TECH Software Omniscient Code Generator (Lite mode) build 49521"
 12726  1538                     i1l4033:	
 12727                           opt subtitle "HI-TECH Software Omniscient Code Generator (Lite mode) build 49521"
 12728                           
 12729  1538                     i1l480:	
 12730  1538  0008               	return
 12731                           opt subtitle "HI-TECH Software Omniscient Code Generator (Lite mode) build 49521"
 12732                           
 12733  1539                     	__end_ofi1___lwmod:
 12734                           opt subtitle "HI-TECH Software Omniscient Code Generator (Lite mode) build 49521"
 12735                           
 12736                           opt pagewidth 120
 12737  0000                     __ptext1317:	;psect for function i1___lwmod
 12738                           opt subtitle "HI-TECH Software Omniscient Code Generator (Lite mode) build 49521"
 12739  007E                     	btemp set 07Eh
 12740                           opt subtitle "HI-TECH Software Omniscient Code Generator (Lite mode) build 49521"
 12741                           
 12742                           opt pagewidth 120
 12743  007E                     	wtemp0 set btemp


Data Sizes:
    Strings     252
    Constant    145
    Data        16
    BSS         47
    Persistent  0
    Stack       0

Auto Spaces:
    Space          Size  Autos    Used
    COMMON           14     14      14
    BANK0            80     48      59
    BANK1            80     23      76
    BANK3            96      5       5
    BANK2            91      0       0

Pointer List with Targets:

    ?___lbtoft	float  size(1) Largest target is 0

    ?___ftpack	float  size(1) Largest target is 0

    ?___lwdiv	unsigned int  size(1) Largest target is 0

    ?___lwmod	unsigned int  size(1) Largest target is 0

    ?___ftdiv	float  size(1) Largest target is 0

    ?___ftmul	float  size(1) Largest target is 0

    ?___wmul	unsigned int  size(1) Largest target is 0

    ?___awdiv	int  size(1) Largest target is 0

    ?___fttol	long  size(1) Largest target is 0

    printf@f	PTR const unsigned char  size(2) Largest target is 37
		 -> STR_15(CODE[5]), STR_14(CODE[12]), Receive_Packet@rx_buf(BANK0[32]), STR_13(CODE[5]), 
		 -> STR_12(CODE[24]), STR_11(CODE[17]), STR_10(CODE[3]), STR_9(CODE[3]), 
		 -> STR_8(CODE[10]), STR_7(CODE[18]), STR_6(CODE[21]), STR_5(CODE[26]), 
		 -> STR_4(CODE[37]), STR_3(CODE[23]), STR_2(CODE[20]), STR_1(CODE[19]), 

    ?_printf	int  size(1) Largest target is 0

    printf@ap	PTR void [1] size(1) Largest target is 2
		 -> ?_printf(BANK0[2]), 

    S1305$_cp	PTR const unsigned char  size(1) Largest target is 0

    _val._str._cp	PTR const unsigned char  size(1) Largest target is 0

    SPI_Write_Buf@pBuf	PTR unsigned char  size(1) Largest target is 12
		 -> RFM70_Initialize@WriteArr(BANK1[12]), tx_buf(BANK1[10]), 

    Send_Packet@pbuf	PTR unsigned char  size(1) Largest target is 10
		 -> tx_buf(BANK1[10]), 


Critical Paths under _main in COMMON

    None.

Critical Paths under _ISR in COMMON

    i1_printf->i1___lwmod
    i1___lwmod->i1___lwdiv

Critical Paths under _main in BANK0

    _main->_sleep
    _rfm70setPowerdownMode->_SPI_Read_Reg
    _RFM70_Initialize->_SwitchCFG
    _Send_Packet->_printf
    _printf->___lwmod
    _SwitchToTxMode->_SPI_Read_Reg
    _sleep->___ftmul
    _sleep->___ftdiv
    _SPI_Write_Buf->_SPI_RW
    _rfm70TxDataSentInterrupt->_SPI_Read_Reg
    _SwitchToRxMode->_SPI_Read_Reg
    _rfm70TxDataSentErrorInterrupt->_SPI_Read_Reg
    _SwitchCFG->_SPI_Read_Reg
    _SPI_Read_Reg->_SPI_RW
    _SPI_Write_Reg->_SPI_RW
    ___ftmul->___ftpack
    ___lwmod->___lwdiv
    ___ftdiv->___ftpack
    ___lbtoft->___ftpack
    ___awdiv->___wmul
    ___ftge->___lbtoft

Critical Paths under _ISR in BANK0

    _ISR->i1_printf

Critical Paths under _main in BANK1

    _main->_Send_Packet
    _Send_Packet->_printf
    _sleep->___ftge

Critical Paths under _ISR in BANK1

    None.

Critical Paths under _main in BANK3

    None.

Critical Paths under _ISR in BANK3

    None.

Critical Paths under _main in BANK2

    None.

Critical Paths under _ISR in BANK2

    None.

Call Graph Tables:

 ---------------------------------------------------------------------------------
 (Depth) Function   	        Calls       Base Space   Used Autos Params    Refs
 ---------------------------------------------------------------------------------
 (0) _main                                                13     9      4   11265
                                             15 BANK1      8     4      4
                                              0 BANK3      5     5      0
                            _spiInit
                           _uartInit
                            _adcInit
              _rfm70setPowerdownMode
                             _printf
                        _adcReadVcap
                   _adcReadVsupercap
                           ___lbtoft
                             ___ftge
                   _RFM70_Initialize
                            ___fttol
                        _adcReadTemp
                        _Send_Packet
                              _sleep
                             ___wmul
                            ___awdiv
 ---------------------------------------------------------------------------------
 (1) _spiInit                                              2     2      0       0
                                             21 BANK0      2     2      0
 ---------------------------------------------------------------------------------
 (1) _uartInit                                             0     0      0       0
 ---------------------------------------------------------------------------------
 (1) _adcInit                                              0     0      0       0
 ---------------------------------------------------------------------------------
 (1) _rfm70setPowerdownMode                                3     3      0     260
                                             27 BANK0      3     3      0
                       _SPI_Read_Reg
                      _SPI_Write_Reg
 ---------------------------------------------------------------------------------
 (1) _adcReadVsupercap                                     3     3      0      34
                                             21 BANK0      3     3      0
 ---------------------------------------------------------------------------------
 (1) _RFM70_Initialize                                    21    21      0    2745
                                             30 BANK0      7     7      0
                                              0 BANK1     14    14      0
                          _SwitchCFG
                      _SPI_Write_Reg
                      _SPI_Write_Buf
                       _SPI_Read_Reg
 ---------------------------------------------------------------------------------
 (1) _adcReadTemp                                          3     3      0      34
                                             21 BANK0      3     3      0
 ---------------------------------------------------------------------------------
 (1) _Send_Packet                                          8     6      2    2903
                                             44 BANK0      2     0      2
                                              9 BANK1      6     6      0
                     _SwitchToTxMode
                       _SPI_Read_Reg
                             _printf
                      _SPI_Write_Buf
           _rfm70TxDataSentInterrupt
                     _SwitchToRxMode
      _rfm70TxDataSentErrorInterrupt
 ---------------------------------------------------------------------------------
 (2) _printf                                              18    12      6    1460
                                             35 BANK0      9     3      6
                                              0 BANK1      9     9      0
                              _putch
                            ___lwdiv
                            ___lwmod
 ---------------------------------------------------------------------------------
 (2) _SwitchToTxMode                                       2     2      0     257
                                             27 BANK0      2     2      0
                      _SPI_Write_Reg
                       _SPI_Read_Reg
 ---------------------------------------------------------------------------------
 (3) _putch                                                1     1      0      31
                                             21 BANK0      1     1      0
 ---------------------------------------------------------------------------------
 (1) _sleep                                                3     3      0    2234
                                             45 BANK0      3     3      0
                        _adcReadVcap
                            ___fttol
                             ___ftge
                            ___ftmul
                            ___ftdiv
 ---------------------------------------------------------------------------------
 (2) _adcReadVcap                                          3     3      0      34
                                             21 BANK0      3     3      0
 ---------------------------------------------------------------------------------
 (2) _SPI_Write_Buf                                        5     3      2     164
                                             24 BANK0      5     3      2
                             _SPI_RW
 ---------------------------------------------------------------------------------
 (2) _rfm70TxDataSentInterrupt                             1     1      0     189
                                             27 BANK0      1     1      0
                       _SPI_Read_Reg
                      _SPI_Write_Reg
 ---------------------------------------------------------------------------------
 (2) _SwitchToRxMode                                       2     2      0     291
                                             27 BANK0      2     2      0
                      _SPI_Write_Reg
                       _SPI_Read_Reg
 ---------------------------------------------------------------------------------
 (2) _rfm70TxDataSentErrorInterrupt                        1     1      0     189
                                             27 BANK0      1     1      0
                       _SPI_Read_Reg
                      _SPI_Write_Reg
 ---------------------------------------------------------------------------------
 (2) _SwitchCFG                                            3     3      0     350
                                             27 BANK0      3     3      0
                       _SPI_Read_Reg
                      _SPI_Write_Reg
 ---------------------------------------------------------------------------------
 (3) _SPI_Read_Reg                                         3     3      0      96
                                             24 BANK0      3     3      0
                             _SPI_RW
 ---------------------------------------------------------------------------------
 (3) _SPI_Write_Reg                                        2     1      1      93
                                             24 BANK0      2     1      1
                             _SPI_RW
 ---------------------------------------------------------------------------------
 (4) _SPI_RW                                               3     3      0      31
                                             21 BANK0      3     3      0
 ---------------------------------------------------------------------------------
 (2) ___ftmul                                             16    10      6     800
                                             29 BANK0     16    10      6
                           ___ftpack
 ---------------------------------------------------------------------------------
 (1) ___wmul                                               6     2      4     136
                                             21 BANK0      6     2      4
 ---------------------------------------------------------------------------------
 (3) ___lwdiv                                              8     4      4     241
                                             21 BANK0      8     4      4
 ---------------------------------------------------------------------------------
 (3) ___lwmod                                              6     2      4     232
                                             29 BANK0      6     2      4
                            ___lwdiv (ARG)
 ---------------------------------------------------------------------------------
 (2) ___ftdiv                                             16    10      6     732
                                             29 BANK0     16    10      6
                           ___ftpack
 ---------------------------------------------------------------------------------
 (2) ___fttol                                             14    10      4     371
                                             21 BANK0     14    10      4
 ---------------------------------------------------------------------------------
 (1) ___lbtoft                                             8     5      3     343
                                             29 BANK0      8     5      3
                           ___ftpack
 ---------------------------------------------------------------------------------
 (3) ___ftpack                                             8     3      5     312
                                             21 BANK0      8     3      5
 ---------------------------------------------------------------------------------
 (1) ___awdiv                                              9     5      4     445
                                             27 BANK0      9     5      4
                             ___wmul (ARG)
 ---------------------------------------------------------------------------------
 (2) ___ftge                                              12     6      6     198
                                             37 BANK0      6     0      6
                                              0 BANK1      6     6      0
                           ___lbtoft (ARG)
                   _adcReadVsupercap (ARG)
 ---------------------------------------------------------------------------------
 Estimated maximum stack depth 4
 ---------------------------------------------------------------------------------
 (Depth) Function   	        Calls       Base Space   Used Autos Params    Refs
 ---------------------------------------------------------------------------------
 (5) _ISR                                                  7     7      0    3276
                                             14 BANK0      7     7      0
                           i1_printf
 ---------------------------------------------------------------------------------
 (6) i1_printf                                            14    12      2    3276
                                              0 BANK0     14    12      2
                            i1_putch
                          i1___lwdiv
                          i1___lwmod
 ---------------------------------------------------------------------------------
 (7) i1_putch                                              1     1      0      73
                                              0 COMMON     1     1      0
 ---------------------------------------------------------------------------------
 (7) i1___lwdiv                                            8     4      4     527
                                              0 COMMON     8     4      4
 ---------------------------------------------------------------------------------
 (7) i1___lwmod                                            6     2      4     521
                                              8 COMMON     6     2      4
                          i1___lwdiv (ARG)
 ---------------------------------------------------------------------------------
 Estimated maximum stack depth 7
 ---------------------------------------------------------------------------------

 Call Graph Graphs:

 _main (ROOT)
   _spiInit
   _uartInit
   _adcInit
   _rfm70setPowerdownMode
     _SPI_Read_Reg
       _SPI_RW
     _SPI_Write_Reg
       _SPI_RW
   _printf
     _putch
     ___lwdiv
     ___lwmod
       ___lwdiv (ARG)
   _adcReadVcap
   _adcReadVsupercap
   ___lbtoft
     ___ftpack
   ___ftge
     ___lbtoft (ARG)
       ___ftpack
     _adcReadVsupercap (ARG)
   _RFM70_Initialize
     _SwitchCFG
       _SPI_Read_Reg
         _SPI_RW
       _SPI_Write_Reg
         _SPI_RW
     _SPI_Write_Reg
       _SPI_RW
     _SPI_Write_Buf
       _SPI_RW
     _SPI_Read_Reg
       _SPI_RW
   ___fttol
   _adcReadTemp
   _Send_Packet
     _SwitchToTxMode
       _SPI_Write_Reg
         _SPI_RW
       _SPI_Read_Reg
         _SPI_RW
     _SPI_Read_Reg
       _SPI_RW
     _printf
       _putch
       ___lwdiv
       ___lwmod
         ___lwdiv (ARG)
     _SPI_Write_Buf
       _SPI_RW
     _rfm70TxDataSentInterrupt
       _SPI_Read_Reg
         _SPI_RW
       _SPI_Write_Reg
         _SPI_RW
     _SwitchToRxMode
       _SPI_Write_Reg
         _SPI_RW
       _SPI_Read_Reg
         _SPI_RW
     _rfm70TxDataSentErrorInterrupt
       _SPI_Read_Reg
         _SPI_RW
       _SPI_Write_Reg
         _SPI_RW
   _sleep
     _adcReadVcap
     ___fttol
     ___ftge
       ___lbtoft (ARG)
         ___ftpack
       _adcReadVsupercap (ARG)
     ___ftmul
       ___ftpack
     ___ftdiv
       ___ftpack
   ___wmul
   ___awdiv
     ___wmul (ARG)

 _ISR (ROOT)
   i1_printf
     i1_putch
     i1___lwdiv
     i1___lwmod
       i1___lwdiv (ARG)

 Address spaces:
Name               Size   Autos  Total    Cost      Usage
BANK3               60      5       5      10        5.2%
BITBANK3            60      0       0       9        0.0%
SFR3                 0      0       0       4        0.0%
BITSFR3              0      0       0       4        0.0%
BANK2               5B      0       0      12        0.0%
BITBANK2            5B      0       0      11        0.0%
SFR2                 0      0       0       5        0.0%
BITSFR2              0      0       0       5        0.0%
BANK1               50     17      4C       8       95.0%
BITBANK1            50      0       0       7        0.0%
SFR1                 0      0       0       2        0.0%
BITSFR1              0      0       0       2        0.0%
BANK0               50     30      3B       5       73.8%
BITBANK0            50      0       1       4        1.2%
SFR0                 0      0       0       1        0.0%
BITSFR0              0      0       0       1        0.0%
COMMON               E      E       E       1      100.0%
BITCOMMON            E      0       0       0        0.0%
CODE                 0      0       0       0        0.0%
DATA                 0      0      A4       6        0.0%
ABS                  0      0      9A       3        0.0%
NULL                 0      0       0       0        0.0%
STACK                0      0       A       2        0.0%


Microchip Technology PIC Macro Assembler V1.12 build 49521 
Symbol Table                                                                                   Sun May 26 18:01:50 2013

                                     pc 0002                             __CFG_CP$OFF 0000  
                           _SSPSTATbits 0094                            ___awdiv@sign 0041  
                                    fsr 0004                     ___wmul@multiplicand 0037  
        __size_of_rfm70setPowerdownMode 0025           __end_of_rfm70setPowerdownMode 134B  
             __size_of_RFM70_Initialize 038C                 __size_of_SwitchToRxMode 003F  
                                   l200 0C51                                     l201 0C51  
                                   l210 1454                                     l204 1432  
                                   l220 1462                                     l213 13BC  
                                   l205 1432                                     l221 1466  
                                   l214 13BC                                     l206 1436  
                                   l222 1477                                     l215 13C1  
                                   l207 1447                                     l223 1477  
                                   l312 12A4                                     l216 13C9  
                                   l208 1447                                     l224 147C  
                                   l400 1340                                     l313 12A4  
                                   l321 12C6                                     l209 144C  
                                   l225 1484                                     l401 134A  
                                   l314 12AB                                     l330 136D  
                                   l250 122E                                     l242 1294  
                                   l315 12AD                                     l331 1359  
                                   l251 1230                                     l219 1462  
                                   l332 1373                                     l420 0E19  
                                   l180 0217                                     l172 013C  
                                   l333 1374                                     l421 0E1A  
                                   l245 1218                                     l181 0329  
                                   l173 0120                                     l318 1266  
                                   l342 14B6                                     l414 0FE0  
                                   l430 0E86                                     l422 0E4B  
                                   l270 09EC                                     l190 03F9  
                                   l182 02B2                                     l431 0E90  
                                   l423 0E1B                                     l415 0E09  
                                   l271 09B5                                     l239 127C  
                                   l191 03F9                                     l183 0328  
                                   l175 0172                                     l600 15FF  
                                   l344 14AB                                     l336 14F5  
                                   l248 1229                                     l440 0FD0  
                                   l432 0EC8                                     l424 0E1B  
                                   l416 0E16                                     l272 09D0  
                                   l360 0504                                     l184 030C  
                                   l176 0173                                     l601 15F3  
                                   l249 1229                 __size_of_SwitchToTxMode 002A  
                                   l441 0F2E                                     l433 0EB9  
                                   l417 0E25                                     l425 0E1D  
                                   l273 09EB                                     l361 0533  
                                   l353 041B                                     l185 0327  
                                   l177 019E                                     l602 1604  
                                   l346 14A1                                     l194 0C45  
                                   l442 0FC0                                     l434 0F16  
                                   l426 0E74                                     l418 0E18  
                                   l266 09FD                                     l274 09F3  
                                   l370 0628                                     l362 0543  
                                   l354 0453                                     l186 03E1  
                                   l178 0243                                     l603 1605  
                                   l347 14B6                                     l195 0B81  
                                   l339 139E                                     l419 0FFF  
                                   l443 0F2F                                     l435 0EC9  
                                   l427 0E73                                     l267 096B  
                                   l275 09FD                                     l371 0685  
                                   l363 0578                                     l355 045C  
                                   l187 0361                                     l604 161E  
                                   l460 13F5                                     l196 0BEF  
                                   l444 0FC9                                     l436 0ED3  
                                   l428 0E85                                     l268 0940  
                                   l372 06AF                                     l364 0589  
                                   l356 0482                                     l188 03F1  
                                   l605 162C                                     l197 0BEE  
                                   l445 0F78                                     l429 0F0D  
                                   l437 0F0B                                     l269 0976  
                                   l373 06D5                                     l365 060F  
                                   l357 049D                                     l189 03F8  
                                   l606 1637                                     l550 08FD  
                                   l470 0851                                     l390 12E5  
                                   l198 0C44                                     l446 0FDF  
                                   l438 0EFC                                     l374 06F0  
                                   l366 0592                                     l358 04C3  
                                   l607 163E                                     l463 084A  
                                   l391 12E5                                     l199 0C43  
                                   l447 0FFE                                     l439 0F23  
                                   l375 073F                                     l367 05ED  
                                   l359 04DE                                     l624 1700  
                                   l800 1689                                     l480 157D  
                                   l464 081C                                     l560 0A9E  
                                   l384 1301                                     l448 0FFF  
                                   l376 0787                                     l368 061F  
                                   l625 1742                                     l801 1698  
                                   l545 086D                                     l473 1576  
                                   l465 0810                                     l457 13CF  
                                   l561 0AA3                                     l385 1304  
                                   l369 06A6                                     l626 1759  
                                   l802 16A2                                     l570 17AF  
                                   l546 0919                                     l474 1550  
                                   l466 0821                                     l458 13D9  
                                   l562 0AB8                                     l386 1304  
                                   l803 16BB                                     l571 17C1  
                                   l547 0886                                     l475 1544  
                                   l467 0822                                     l459 13EE  
                                   l563 0ACF                                     l555 0A19  
                                   l572 17E6                                     l548 08CC  
                                   l476 1555                                     l468 083B  
                                   l556 0AEB                                     l573 17D2  
                                   l549 08EE                                     l477 1556  
                                   l469 0849                                     l557 0A32  
                                   l389 12E2                                     l582 1325  
                                   l574 17DF                                     l566 1777  
                                   l478 1567                                     l558 0A72  
                                   l575 17D3                                     l567 17FF  
                                   l479 1575                                     l559 0A87  
                                   l399 133E                                     l576 17E5  
                                   l568 17C2                                     l577 17F6  
                                   l569 17AE                                     l597 15DA  
                                   l598 15E8                                     l599 162D  
                                   l791 164D                                     l792 16BB  
                                   l793 1663                                     l794 1656  
                                   l795 166A                                     l796 1681  
                                   l797 166B                                     l789 1655  
                                   l798 1688                                     l799 1694  
                                   _GIE 005F                                     _ISR 0788  
                                   fsr0 0004                                     indf 0000  
                                  ?_ISR 0070                            ___ftdiv@cntr 0047  
                          ___ftdiv@sign 004C                                    l4201 0E7C  
                                  l4211 0EB9                                    l4203 0E88  
                                  l5101 13F5                                    l4221 0EFB  
                                  l4213 0EC1                                    l4205 0E8F  
                                  l4301 0055                                    l5111 0817  
                                  l5103 0803                                    l4223 0EFC  
                                  l4215 0ECB                                    l4231 0F16  
                                  l4207 0E90                                    l4311 005E  
                                  l4303 0056                                    l5201 08B5  
                                  l5121 083B                                    l5113 081C  
                                  l5105 0807                                    l4241 0FAB  
                                  l4233 0F1C                                    l4225 0F04  
                                  l4217 0ED2                                    l4209 0EB8  
                                  l4401 00BC                                    l4321 006D  
                                  l4313 0061                                    l4305 0057  
                                  l4163 1756                                    l5211 08E2  
                                  l5203 08B9                                    l5131 1541  
                                  l5123 0842                                    l5115 0822  
                                  l5107 080D                                    l4243 0FBF  
                                  l4235 0F23                                    l4227 0F0C  
                                  l4219 0ED3                                    l4251 0FE0  
                                  l4411 00C3                                    l4403 00BD  
                                  l4331 007C                                    l4323 0070  
                                  l4315 0064                                    l4307 0058  
                                  l4165 1758                                    l5301 17C8  
                                  l5221 0919                                    l5213 08EC  
                                  l5205 08C0                                    l5141 1560  
                                  l5133 1544                                    l5117 0833  
                                  l5109 0810                                    l5125 084A  
                                  l5061 1298                                    l4237 0F2F  
                                  l4245 0FC0                                    l4229 0F0D  
                                  l4181 0E0F                                    l4501 0224  
                                  l4421 00CA                                    l4413 00C4  
                                  l4405 00BE                                    l4341 0087  
                                  l4333 007F                                    l4325 0073  
                                  l4317 0067                                    l4309 005B  
                                  l4261 0029                                    l4253 0015  
                                  l5151 163F                                    l5311 17EA  
                                  l5303 17D1                                    l5215 08EE  
                                  l5207 08CC                                    l5143 1567  
                                  l5135 154B                                    l5127 0851  
                                  l5119 0839                                    l5231 0A2A  
                                  l5223 09FE                                    l5063 12AB  
                                  l5055 1254                                    l5071 1498  
                                  l4239 0F78                                    l4247 0FC9  
                                  l4191 0E59                                    l4183 0E1D  
                                  l4511 026B                                    l4503 022A  
                                  l4431 00D1                                    l4423 00CB  
                                  l4415 00C5                                    l4407 00BF  
                                  l4351 0091                                    l4343 0088  
                                  l4335 0082                                    l4327 0076  
                                  l4319 006A                                    l4271 0032  
                                  l4263 002C                                    l4255 001F  
                                  l5321 15CB                                    l5161 1663  
                                  l5153 1645                                    l5313 17F6  
                                  l5305 17D3                                    l5217 08F6  
                                  l5209 08D4                                    l5145 156E  
                                  l5137 1550                                    l5129 1539  
                                  l5241 0A61                                    l5233 0A31  
                                  l5225 0A11                                    l5065 12AD  
                                  l5057 1255                                    l5073 149C  
                                  l4249 0FD0                                    l4193 0E61  
                                  l4185 0E24                                    l4177 0E00  
                                  l4601 1329                                    l4521 0292  
                                  l4513 0271                                    l4505 023E  
                                  l4441 00D8                                    l4433 00D2  
                                  l4425 00CC                                    l4417 00C6  
                                  l4409 00C0                                    l4361 009E  
                                  l4353 0095                                    l4345 0089  
                                  l4337 0083                                    l4329 0079  
                                  l4281 0041                                    l4273 0035  
                                  l4265 002F                                    l4257 0025  
                                  l5331 15E3                                    l5323 15D2  
                                  l5171 1694                                    l5163 166B  
                                  l5155 164D                                    l5315 17FF  
                                  l5307 17DF                                    l5219 08FD  
                                  l5139 1556                                    l5147 1576  
                                  l5091 13CA                                    l5251 0A87  
                                  l5243 0A67                                    l5235 0A32  
                                  l5227 0A18                                    l5059 1263  
                                  l5075 14A1                                    l5067 1488  
                                  l4611 13AB                                    l4195 0E65  
                                  l4187 0E25                                    l4179 0E09  
                                  l4603 1334                                    l4531 02DB  
                                  l4523 02A6                                    l4515 0272  
                                  l4507 0243                                    l4451 00ED  
                                  l4443 00DB                                    l4435 00D3  
                                  l4427 00CD                                    l4419 00C7  
                                  l4371 00A9                                    l4363 009F  
                                  l4355 0097                                    l4347 008C  
                                  l4339 0086                                    l4291 004E  
                                  l4283 0044                                    l4275 0038  
                                  l4267 0030                                    l4259 0028  
                                  l5341 15FA                                    l5333 15E8  
                                  l5325 15D7                                    l5173 169C  
                                  l5165 166F                                    l5157 1654  
                                  l5317 1308                                    l5309 17E6  
                                  l5181 0852                                    l5149 157D  
                                  l5093 13CF                                    l5261 0AA7  
                                  l5253 0A8F                                    l5245 0A6D  
                                  l5237 0A5F                                    l5229 0A19  
                                  l5077 14A6                                    l5069 1493  
                                  l4621 13C5                                    l4613 13AE  
                                  l4197 0E6D                                    l4189 0E51  
                                  l4701 0526                                    l4605 1339  
                                  l4533 02E1                                    l4541 030C  
                                  l4525 02A9                                    l4517 0286  
                                  l4509 0263                                    l4461 014A  
                                  l4453 00F3                                    l4445 00DE  
                                  l4437 00D4                                    l4429 00CE  
                                  l4381 00AE                                    l4373 00AA  
                                  l4365 00A2                                    l4357 009A  
                                  l4349 0090                                    l4293 004F  
                                  l4285 0047                                    l4277 003B  
                                  l4269 0031                                    l5351 161E  
                                  l5343 15FF                                    l5335 15EA  
                                  l5327 15DA                                    l5175 16A4  
                                  l5167 1679                                    l5159 1656  
                                  l5319 1325                                    l5191 0885  
                                  l5183 0865                                    l5095 13D3  
                                  l5271 0AEB                                    l5263 0AB8  
                                  l5255 0A97                                    l5247 0A72  
                                  l5239 0A60                                    l5079 14AB  
                                  l4623 13C6                                    l4615 13AF  
                                  l4199 0E74                                    l4711 056D  
                                  l4703 0533                                    l4631 1473  
                                  l4607 1340                                    l4551 0337  
                                  l4535 02E9                                    l4519 028C  
                                  l4527 02B2                                    l4543 0329  
                                  l4471 0199                                    l4463 0150  
                                  l4455 0106                                    l4447 00E3  
                                  l4439 00D5                                    l4391 00B5  
                                  l4383 00B1                                    l4375 00AB  
                                  l4367 00A5                                    l4359 009D  
                                  l4295 0050                                    l4287 004A  
                                  l4279 003E                                    l5361 163E  
                                  l5353 1625                                    l5345 1605  
                                  l5337 15F0                                    l5329 15DE  
                                  l5177 16B6                                    l5169 1689  
                                  l5281 1789                                    l5273 175A  
                                  l5193 0886                                    l5185 086C  
                                  l5097 13E0                                    l5265 0AC0  
                                  l5257 0A9E                                    l5249 0A76  
                                  l4625 13C9                                    l4617 13B8  
                                  l4609 139F                                    l4801 144C  
                                  l4721 0588                                    l4713 0571  
                                  l4705 053B                                    l4641 03FC  
                                  l4633 147C                                    l4561 0361  
                                  l4553 0338                                    l4545 032C  
                                  l4537 02EF                                    l4529 02D3  
                                  l4481 01B6                                    l4473 019E  
                                  l4465 0173                                    l4457 0121  
                                  l4449 00E8                                    l4393 00B6  
                                  l4385 00B2                                    l4377 00AC  
                                  l4369 00A8                                    l4297 0051  
                                  l4289 004D                                    l5371 1742  
                                  l5363 16BC                                    l5347 1616  
                                  l5339 15F3                                    l5355 162D  
                                  l5179 16BA                                    l5291 179D  
                                  l5283 178A                                    l5275 176D  
                                  l5195 088C                                    l5187 086D  
                                  l5099 13EE                                    l5267 0AC8  
                                  l5259 0AA3                                    l4619 13C1  
                                  l4811 0922                                    l4803 1450  
                                  l4731 05E6                                    l4723 058A  
                                  l4707 0542                                    l4715 0578  
                                  l4651 041B                                    l4643 040A  
                                  l4635 1480                                    l4627 1455  
                                  l4571 127D                                    l4563 038C  
                                  l4555 0339                                    l4547 0332  
                                  l4539 0303                                    l4491 01ED  
                                  l4483 01BE                                    l4475 01A4  
                                  l4467 018D                                    l4459 013C  
                                  l4395 00B7                                    l4387 00B3  
                                  l4379 00AD                                    l4299 0052  
                                  l5381 1759                                    l5373 1744  
                                  l5365 16C2                                    l5357 1631  
                                  l5349 161C                                    l5293 17A4  
                                  l5285 1790                                    l5277 1776  
                                  l5197 0891                                    l5189 087E  
                                  l5269 0ACF                                    l4901 0BEF  
                                  l4821 0964                                    l4813 092D  
                                  l4805 1451                                    l4741 061E  
                                  l4725 0591                                    l4733 05ED  
                                  l4717 057E                                    l4709 0543  
                                  l4661 045C                                    l4653 0445  
                                  l4645 0410                                    l4637 1481  
                                  l4629 146A                                    l4581 1267  
                                  l4573 1281                                    l4565 0391  
                                  l4557 0343                                    l4549 0335  
                                  l4493 020A                                    l4485 01C2  
                                  l4477 01AE                                    l4469 0192  
                                  l4397 00BA                                    l4389 00B4  
                                  l5375 1746                                    l5367 1700  
                                  l5359 1637                                    l5295 17AD  
                                  l5287 1797                                    l5279 1777  
                                  l5199 08A3                                    l4911 0C4C  
                                  l4903 0C11                                    l4831 099C  
                                  l4823 096B                                    l4815 0931  
                                  l4807 1454                                    l4751 067E  
                                  l4743 0620                                    l4735 0600  
                                  l4727 0592                                    l4719 0581  
                                  l4671 0495                                    l4663 0475  
                                  l4655 044D                                    l4647 0413  
                                  l4639 1484                                    l4591 1274  
                                  l4583 126B                                    l4575 1285  
                                  l4567 03E1                                    l4559 035D  
                                  l4495 0210                                    l4487 01C6  
                                  l4479 01B2                                    l4399 00BB  
                                  l5377 1754                                    l5369 1704  
                                  l5297 17AF                                    l5289 1799  
                                  l4913 0C4F                                    l4905 0C47  
                                  l4841 09BF                                    l4833 099F  
                                  l4825 0976                                    l4817 093C  
                                  l4809 091D                                    l4761 06AE  
                                  l4745 0627                                    l4753 0685  
                                  l4737 0608                                    l4729 05E0  
                                  l4673 049C                                    l4681 04C3  
                                  l4665 047B                                    l4657 0454  
                                  l4649 041A                                    l4593 1276  
                                  l4585 126D                                    l4577 1288  
                                  l4569 03F1                                    l4497 0217  
                                  l4489 01D0                                    l5379 1756  
                                  l5299 17C2                                    l4907 0C49  
                                  l4915 1228                                    l4931 139B  
                                  l4923 1375                                    l4843 09CA  
                                  l4851 09EC                                    l4835 09A6  
                                  l4827 0981                                    l4819 0940  
                                  l4771 06E5                                    l4763 06AF  
                                  l4755 0698                                    l4747 0628  
                                  l4739 060F                                    l4691 04F7  
                                  l4683 04D3                                    l4675 049D  
                                  l4659 045B                                    l4667 0482  
                                  l4595 1279                                    l4587 1270  
                                  l4579 1289                                    l4499 0221  
                                  l4941 12C4                                    l4933 12B1  
                                  l4909 0C4A                                    l4861 0B25  
                                  l4917 122E                                    l4925 137E  
                                  l4853 09F3                                    l4845 09D0  
                                  l4837 09A9                                    l4829 0984  
                                  l4781 0738                                    l4773 06E8  
                                  l4765 06C8                                    l4757 06A0  
                                  l4749 0678                                    l4693 04FD  
                                  l4685 04D6                                    l4677 04B6  
                                  l4669 0492                                    l4597 120F  
                                  l4589 1273                                    l4943 12C6  
                                  l4935 12B2                                    l4951 1359  
                                  l4871 0B45                                    l4863 0B29  
                                  l4855 0AEC                                    l4927 138C  
                                  l4847 09DA                                    l4839 09B5  
                                  l4791 077E                                    l4775 06EF  
                                  l4783 073F                                    l4767 06CE  
                                  l4759 06A7                                    l4687 04DD  
                                  l4695 0504                                    l4679 04BC  
                                  l4599 1217                                    l4937 12B8  
                                  l4961 12F3                                    l4953 1362  
                                  l4945 134E                                    l4881 0B51  
                                  l4873 0B47                                    l4865 0B2C  
                                  l4857 0B15                                    l4929 1391  
                                  l4849 09E5                                    l4793 0784  
                                  l4785 0748                                    l4777 06F0  
                                  l4769 06D5                                    l4697 0514  
                                  l4689 04DE                                    l4939 12C3  
                                  l4971 1303                                    l4963 12FD  
                                  l4955 1368                                    l4947 134F  
                                  l4891 0B6F                                    l4883 0B5B  
                                  l4875 0B49                                    l4867 0B2E  
                                  l4859 0B1D                                    l4795 1425  
                                  l4787 0758                                    l4779 0732  
                                  l4699 0521                                    l4981 14F2  
                                  l4973 14B7                                    l4965 12FF  
                                  l4957 136D                                    l4949 1355  
                                  l4893 0B71                                    l4885 0B6A  
                                  l4877 0B4B                                    l4869 0B31  
                                  l4797 143A                                    l4789 0773  
                                  l4991 12E1                                    l4983 12C7  
                                  l4975 14D5                                    l4967 1300  
                                  l4959 12E6                                    l4895 0B7B  
                                  l4887 0B6B                                    l4879 0B4E  
                                  l4799 1443                                    l4985 12D4  
                                  l4993 12E2                                    l4977 14E3  
                                  l4969 1301                                    l4897 0B9B  
                                  l4889 0B6D                                    l4995 12E4  
                                  l4987 12DE                                    l4979 14E8  
                                  l4899 0BBC                                    l4989 12E0  
                                  STR_1 113A                                    STR_2 1126  
                                  STR_3 10FA                                    STR_4 10A3  
                                  STR_5 10C8                                    STR_6 1111  
                                  STR_7 114D                                    STR_8 118D  
                                  STR_9 119C                                    u5000 12F3  
                                  u5001 12F2                                    u5010 12D4  
                                  u5011 12D3                                    u5100 14A0  
                                  u4300 0EFA                                    u4301 0EF9  
                                  u5110 14A6                                    u4310 0F0A  
                                  u4230 0E0F                                    u5111 14A5  
                                  u4311 0F09                                    u4231 0E0E  
                                  u5200 0820                                    u5120 14AA  
                                  u4320 0F1C                                    u4240 0E51  
                                  u4400 0216                                    u5201 081F  
                                  u4321 0F1B                                    u4305 0EF6  
                                  u4241 0E50                                    u4401 0215  
                                  u4330 0FDE                                    u4250 0E65  
                                  u4410 0263                                    u4331 0FDD  
                                  u4251 0E64                                    u4411 0262  
                                  u5300 1574                                    u5220 0833  
                                  u5140 13D3                                    u4340 0FFD  
                                  u4260 0E8E                                    u4500 1466  
                                  u4420 026B                                    u5301 1573  
                                  u5221 0832                                    u5141 13D2  
                                  u4341 0FFC                                    u4261 0E8D  
                                  u4501 1465                                    u4421 026A  
                                  u5310 1645                                    u4270 0EB7  
                                  u4510 147B                                    u4430 0271  
                                  u5215 0823                                    u4271 0EB6  
                                  u4511 147A                                    u4431 0270  
                                  u5400 16AD                                    u5320 164C  
                                  u5240 0848                                    u5080 12AA  
                                  u4280 0EC7                                    u4600 0526  
                                  u4520 0419                                    u4440 02D3  
                                  u4360 014A                                    u5321 164B  
                                  u5241 0847                                    u5225 082F  
                                  u5081 12A9                                    u4281 0EC6  
                                  u4601 0525                                    u4521 0418  
                                  u4441 02D2                                    u4361 0149  
                                  u5410 16BA                                    u5250 1541  
                                  u5170 13ED                                    u5090 149C  
                                  u4290 0ED1                                    u4610 0541  
                                  u4530 0453                                    u4450 02DB  
                                  u4370 0150                                    u5251 1540  
                                  u5235 083C                                    u5171 13EC  
                                  u5155 13DA                                    u4291 0ED0  
                                  u4275 0EB3                                    u4611 0540  
                                  u4531 0452                                    u4451 02DA  
                                  u4371 014F                                    u4355 00FA  
                                  _PEIE 005E                                    u5340 1669  
                                  u5420 0865                                    u5180 080D  
                                  u5500 0A11                                    u4700 061D  
                                  u4620 0577                                    u4540 045A  
                                  u4460 02E1                                    u4380 0171  
                                  u5405 16A9                                    u5341 1668  
                                  u5421 0864                                    u5181 080C  
                                  u5165 13E1                                    u5501 0A10  
                                  u4701 061C                                    u4621 0576  
                                  u4541 0459                                    u4461 02E0  
                                  u4381 0170                                    u5430 087E  
                                  u5270 1554                                    u5510 0A2A  
                                  u4710 0626                                    u4630 0587  
                                  u4550 0481                                    u4470 03F0  
                                  u4390 0210                                    u5335 165B  
                                  u5431 087D                                    u5271 1553  
                                  u5511 0A29                                    u4711 0625  
                                  u4631 0586                                    u4551 0480  
                                  u4471 03EF                                    u4391 020F  
                                  u5360 1687                                    u5440 089C  
                                  u5280 1560                                    u5520 0A42  
                                  u4640 0590                                    u4560 049B  
                                  u4480 1339                                    u5361 1686  
                                  u5281 155F                                    u5265 1545  
                                  u5601 0AB0                                    u4641 058F  
                                  u4561 049A                                    u4481 1338  
                                  u5450 08AE                                    u5602 0AB7  
                                  u5530 0A54                                    u4490 13C0  
                                  u4810 0723                                    u4570 04C2  
                                  u5355 167A                                    u5195 0811  
                                  u4491 13BF                                    u4571 04C1  
                                  u5380 1698                                    u5700 17C8  
                                  u5540 0A76                                    u4900 0B1D  
                                  u4820 073E                                    u4740 0669  
                                  u4580 04DC                                    _RCIF 0065  
                                  u5381 1697                                    u5701 17C7  
                                  u5445 0898                                    u5285 155C  
                                  u5541 0A75                                    u5525 0A3E  
                                  u4901 0B1C                                    u4821 073D  
                                  u4805 0715                                    u4725 062D  
                                  u4581 04DB                                    u5390 169C  
                                  u5470 08E2                                    u5630 0ACE  
                                  u4910 0B25                                    u4830 1436  
                                  u4750 0684                                    u4670 05D1  
                                  u4590 0503                                    u5391 169B  
                                  u5375 168C                                    u5471 08E1  
                                  u5455 08AA                                    u5295 1568  
                                  u5631 0ACD                                    u5615 0AB9  
                                  u5551 0A7F                                    u5535 0A50  
                                  u4911 0B24                                    u4831 1435  
                                  u4815 071E                                    u4751 0683  
                                  u4735 065A                                    u4655 0597  
                                  u4591 0502                                    u5800 1616  
                                  u5720 17E4                                    u5640 176D  
                                  u5552 0A86                                    u4920 0B29  
                                  u4840 144B                                    u4760 06A6  
                                  u4680 05EC                                    u5801 1615  
                                  u5721 17E3                                    u5641 176C  
                                  u5465 08CD                                    u5625 0AC1  
                                  u4921 0B28                                    u4841 144A  
                                  u4761 06A5                                    u4745 0664  
                                  u4681 05EB                                    u4665 05C3  
                                  u5730 17EA                                    u5650 1782  
                                  u5490 08FC                                    u4850 0931  
                                  u4770 06AD                                    u4690 060E  
                                  u5715 17D5                                    u5491 08FB  
                                  u5475 08DE                                    u4851 0930  
                                  u4771 06AC                                    u4691 060D  
                                  u4675 05CC                                    u5820 162B  
                                  u5740 15D2                                    u5660 179D  
                                  u5580 0A9D                                    u4940 0B7B  
                                  u4860 0975                                    u4780 06D4  
                                  u5821 162A                                    u5805 1612  
                                  u5741 15D1                                    u5661 179C  
                                  u5485 08EF                                    u5581 0A9C  
                                  u5565 0A88                                    u4941 0B7A  
                                  u4861 0974                                    u4781 06D3  
                                  u5830 1631                                    u5750 15DE  
                                  u5670 17A4                                    u5590 0AA7  
                                  u4950 0B9B                                    u4870 09BF  
                                  u4790 06EE                                    u5815 161F  
                                  u5751 15DD                                    u5671 17A3  
                                  u5655 177E                                    u5591 0AA6  
                                  u5575 0A90                                    u4951 0B9A  
                                  u4935 0B37                                    u4871 09BE  
                                  u4791 06ED                                    u5840 16C2  
                                  u5760 15F0                                    u4960 0BBC  
                                  u4880 09DA                                    u5841 16C1  
                                  u5761 15EF                                    u4961 0BBB  
                                  u4881 09D9                                    u5690 17C0  
                                  u4970 0C11                                    u4890 09F2  
                                  u5851 16E8                                    u5691 17BF  
                                  u4971 0C10                                    u4891 09F1  
                                  u5907 146E                                    u5860 1704  
                                  u5852 16E9                                    u5780 1603  
                                  u4980 122D                                    u5861 1703  
                                  u5853 16EE                                    u5781 1602  
                                  u5685 17B0                                    u4981 122C  
                                  u5917 0404                                    u5854 16EF  
                                  u4990 1373                                    u5871 172A  
                                  u5775 15F4                                    u4991 1372  
                                  u5927 0779                                    u5880 1754  
                                  u5872 172B                                    u5881 1753  
                                  u5873 1730                                    u5937 143E  
                                  u5874 1731                                    u5795 1606  
                                  u5947 09A3                                    u5885 1750  
                                  u5957 09AF                                    u5967 13B3  
                                  u5977 129E                                    u5897 128F  
                                  _TXIF 0064                                    _flag 02D0  
                                  _main 0015                            ___ftpack@arg 0035  
                          ___ftpack@exp 0038                                    btemp 007E  
                                  start 0012               __size_of_adcReadVsupercap 0030  
                       __end_ofi1_putch 1225                           _SPI_Write_Buf 134B  
                       SPI_Read_Reg@reg 0039                           _SPI_Write_Reg 1251  
                         __CFG_MCLRE$ON 0000                            ___ftmul@cntr 004B  
                          ___ftmul@sign 004C                                   ??_ISR 002E  
                          ___fttol@exp1 0042                      _charge_pulse_float 00DF  
                          ___fttol@lval 003E                           __CFG_PLLEN$ON 0000  
                                 ?_main 00D7                         __end_of_adcInit 1219  
                       __end_of___awdiv 163F                                   _ADRES 001E  
                                 STR_10 1199                                   STR_11 1170  
                                 STR_12 10E2                                   STR_13 1197  
                                 STR_14 1181                                   STR_16 115F  
                         __CFG_WDTE$OFF 0000                         __end_of___ftdiv 091A  
                       __end_of___ftmul 0AEC                         ___awdiv@divisor 003B  
                       __end_of___fttol 1800                         __end_of___lwdiv 0852  
                                 i1l161 07F5                                   i1l250 1222  
                                 i1l162 07F3                                   i1l251 1224  
                                 i1l163 07E1                                   i1l420 0C69  
                                 i1l164 07C3                                   i1l421 0C6A  
                                 i1l165 07F0                                   i1l414 0DE2  
                                 i1l430 0CC8                                   i1l422 0C99  
                                 i1l166 07C8                                   i1l431 0CD2  
                                 i1l423 0C6B                                   i1l415 0C59  
                                 i1l167 07D0                                   i1l248 121B  
                                 i1l440 0DD4                                   i1l432 0CFE  
                                 i1l424 0C6B                                   i1l416 0C66  
                                 i1l168 07D8                                   i1l249 121B  
                                 i1l441 0D54                                   i1l433 0CF3  
                                 i1l417 0C75                                   i1l425 0C6D  
                                 i1l169 07F5                         __end_of___lwmod 157E  
                                 i1l442 0DC4                                   i1l434 0D40  
                                 i1l426 0CBA                                   i1l418 0C68  
                                 i1l419 0DFF                                   i1l443 0D55  
                                 i1l435 0CFF                                   i1l427 0CB9  
                                 i1l444 0DCD                                   i1l436 0D09  
                                 i1l428 0CC7                                   i1l445 0D8C  
                                 i1l429 0D37                                   i1l437 0D35  
                                 i1l470 15CA                                   i1l446 0DE1  
                                 i1l438 0D2A                                   i1l463 15C3  
                                 i1l447 0DFE                                   i1l439 0D4D  
                                 i1l480 1538                                   i1l464 1595  
                                 i1l448 0DFF                                   i1l473 1531  
                                 i1l465 1589                                   i1l474 150B  
                                 i1l466 159A                                   i1l475 14FF  
                                 i1l467 159B                                   i1l476 1510  
                                 i1l468 15B4                                   i1l477 1511  
                                 i1l469 15C2                                   i1l478 1522  
                                 i1l479 1530                         ___awdiv@counter 0040  
                                 _RCREG 001A                                   _RCSTA 0018  
                                 _TMR1H 000F                                   _TMR1L 000E  
                                 _SPBRG 0099                                   _PORTD 0008  
                                 _TXREG 0019                                   _TXSTA 0098  
                    i1___lwmod@dividend 007A                         __end_of_dpowers 108D  
                                 _sleep 0AEC                           ___ftpack@sign 0039  
                                 _value 00C7                                   _putch 1225  
                                 main@i 0190                          __CFG_BOREN$OFF 0000  
                                 pclath 000A                         __end_of_spiInit 1295  
                        Send_Packet@len 004D                                   status 0003  
                                 wtemp0 007E                      __size_ofi1___lwdiv 004D  
                    __size_ofi1___lwmod 0043                        __end_ofi1_printf 0E00  
                        ?_SPI_Write_Buf 0038                          ?_SPI_Write_Reg 0038  
                            i1printf@ap 0026                         __initialization 13F6  
                          __end_of_main 03FC        __end_of_rfm70TxDataSentInterrupt 1305  
                         ??_Send_Packet 00D1                                  ??_main 00DB  
                         ___fttol@sign1 003D                        ___awdiv@dividend 003D  
                                ?_sleep 0070                                  ?_putch 0070  
                      __end_of___ftpack 16BC                        __end_of___lbtoft 1326  
                                i1l4001 15AC                                  i1l4011 15CA  
                                i1l4003 15B2                                  i1l4021 150B  
                                i1l4013 14F6                                  i1l4005 15B4  
                                i1l4101 0DC3                                  i1l4023 1511  
                                i1l4015 14FC                                  i1l4031 1531  
                                i1l4007 15BB                                  i1l4103 0DC4  
                                i1l4111 0788                                  i1l4033 1538  
                                i1l4025 151B                                  i1l4017 14FF  
                                i1l4009 15C3                                  i1l4105 0DCD  
                                i1l4041 0C6D                                  i1l4121 0799  
                                i1l4113 078C                                  i1l4027 1522  
                                i1l4019 1506                                  i1l4107 0DD4  
                                i1l4051 0CAB                                  i1l4043 0C74  
                                i1l4035 0C52                                  i1l4131 07D8  
                                i1l4123 07A2                                  i1l4115 0790  
                                i1l4029 1529                                  i1l4061 0CCA  
                                i1l4053 0CAF                                  i1l4045 0C75  
                                i1l4037 0C59                                  i1l4109 0DE2  
                                i1l4133 07E0                                  i1l4125 07B5  
                                i1l4117 0792                                  i1l4071 0CF7  
                                i1l4063 0CD1                                  i1l4055 0CB3  
                                i1l4047 0C9F                                  i1l4039 0C5F  
                                i1l4127 07C8                                  i1l4135 07E1  
                                i1l4119 0793                                  i1l4081 0D2A  
                                i1l4073 0D01                                  i1l4065 0CD2  
                                i1l4049 0CA7                                  i1l4057 0CBA  
                                i1l4129 07D0                                  i1l4091 0D46  
                                i1l4083 0D2E                                  i1l4075 0D08  
                                i1l4067 0CF2                                  i1l4059 0CC2  
                                i1l4093 0D4D                                  i1l4085 0D36  
                                i1l4077 0D09                                  i1l4069 0CF3  
                                i1l4095 0D55                                  i1l4079 0D29  
                                i1l4087 0D37                                  i1l4097 0D8C  
                                i1l4089 0D40                                  i1l4099 0DB3  
                                i1l3991 1586                                  i1l3983 121A  
                                i1l3993 1589                                  i1l3985 1222  
                                i1l3995 1590                                  i1l3987 157E  
                                i1l3997 1595                                  i1l3989 1580  
                                i1l3999 159B                                  u400_20 15C1  
                                u400_21 15C0                                  u401_20 14FC  
                                u401_21 14FB                                  u410_20 0CD0  
                                u410_21 0CCF                                  u402_25 1500  
                                u403_20 150F                                  u411_20 0CF1  
                                u403_21 150E                                  u411_21 0CF0  
                                u411_25 0CED                                  u404_20 151B  
                                u412_20 0CFD                                  u420_20 0799  
                                u404_21 151A                                  u412_21 0CFC  
                                u420_21 0798                                  u404_25 1517  
                                u413_20 0D07                                  u413_21 0D06  
                                u405_25 1523                                  u421_25 07A7  
                                u406_20 152F                                  u414_20 0D28  
                                u406_21 152E                                  u414_21 0D27  
                                u414_25 0D24                                  u422_25 07B8  
                                u415_20 0D34                                  u407_20 0C5F  
                                u415_21 0D33                                  u407_21 0C5E  
                                u416_20 0D46                                  u408_20 0C9F  
                                u416_21 0D45                                  u408_21 0C9E  
                                u417_20 0DE0                                  u409_20 0CAF  
                                u417_21 0DDF                                  u409_21 0CAE  
                                u418_20 0DFD                                  u418_21 0DFC  
                                u419_20 078C                                  u419_21 078B  
                                u393_20 1221                                  u393_21 1220  
                                u394_20 1586                                  u394_21 1585  
                                u395_25 158A                                  u396_20 1599  
                                u396_21 1598                               ??i1_putch 0070  
                                u397_25 159C                                  u398_20 15AC  
                                u398_21 15AB                                  u398_25 15A8  
                                u399_25 15B5                                  _TMR1IE 0460  
                                _TMR1IF 0060                                  _SSPBUF 0013  
                                _SPI_RW 1295                          __CFG_PWRTE$OFF 0000  
                          SwitchCFG@Tmp 003D                RFM70_Initialize@WriteArr 00C8  
                     RFM70_Initialize@i 00D4                       RFM70_Initialize@j 00D5  
                                ___ftge 16BC                                  ___wmul 13CA  
                             ??_adcInit 0035                               ??___awdiv 003F  
                             ??___ftdiv 0043                               ??___ftmul 0043  
                             ??___fttol 0039                        SPI_Write_Buf@reg 003B  
                             ??___lwdiv 0039                               ??___lwmod 0041  
                                _energy 00C0                        ___awdiv@quotient 0042  
                                _values 00C4                          _SwitchToRxMode 14B7  
                                _printf 0E00                        SPI_Write_Reg@reg 0039  
                                _rx_buf 00A0                        _RFM70_Initialize 03FC  
                        _SwitchToTxMode 1375                       __end_of_Bank0_Reg 1078  
                                _tx_buf 00E2                                  clrloop 1208  
                 ___ftmul@f3_as_product 0048                           main@num_sleep 0194  
                     __end_ofi1___lwdiv 15CB                       __end_ofi1___lwmod 1539  
                      __end_of_uartInit 127D                                  saved_w 007E  
                   __end_of_Send_Packet 09FE                         Send_Packet@pbuf 004C  
                             ??_spiInit 0035                         Send_Packet@type 00D4  
                                putch@c 0035                     SwitchToRxMode@value 003C  
                    __size_of_SwitchCFG 0032                 __end_of__initialization 1421  
                       ??_SPI_Write_Buf 003A                              ___ftge@ff1 0045  
                            ___ftge@ff2 0048                         ??_SPI_Write_Reg 0039  
                      _adcReadVsupercap 1455                              ___ftdiv@f1 0040  
                            ___ftdiv@f2 003D                              ___ftdiv@f3 0048  
                            ___lbtoft@c 0044                             i1printf@idx 0025  
                            ___ftmul@f1 003D                              ___ftmul@f2 0040  
                     SPI_Read_Reg@value 003A                              ___fttol@f1 0035  
                        __pcstackCOMMON 0070   __end_of_rfm70TxDataSentErrorInterrupt 12E6  
__size_of_rfm70TxDataSentErrorInterrupt 001F           _rfm70TxDataSentErrorInterrupt 12C7  
                          __pidataBANK0 0800                            __pidataBANK1 1231  
                __end_of_SwitchToRxMode 14F6                  __end_of_SwitchToTxMode 139F  
                         __end_of_sleep 0C52                           __end_of_putch 1231  
                          _charge_pulse 0050                               ?i1_printf 0020  
                         ??_adcReadVcap 0035                           ??_adcReadTemp 0035  
                   SwitchToTxMode@value 003C                                 ??_sleep 004D  
                               ??_putch 0035                              __pbssBANK0 0050  
                            __pbssBANK1 00A0       __size_of_rfm70TxDataSentInterrupt 001F  
             ?_rfm70TxDataSentInterrupt 0070                                 ?_SPI_RW 0070  
                            __pmaintext 0015                                 ?___ftge 0045  
                               ?___wmul 0035                              __pintentry 0004  
                               _DACCON0 0113                                 _DACCON1 0114  
                       ?_SwitchToRxMode 0070                         ?_SwitchToTxMode 0070  
                            __ptext1300 1251                              __ptext1301 1295  
                            __ptext1310 15CB                              __ptext1302 09FE  
                            __ptext1311 16BC                              __ptext1303 13CA  
                            __ptext1312 0788                              __ptext1304 0803  
                            __ptext1313 0C52                              __ptext1305 1539  
                            __ptext1314 1219                              __ptext1306 0852  
                            __ptext1315 157E                              __ptext1307 175A  
                            __ptext1316 14F6                              __ptext1308 1305  
                            __ptext1317 0000                              __ptext1309 163F  
                            __ptext1281 127D                              __ptext1290 1375  
                            __ptext1282 1267                              __ptext1291 1225  
                            __ptext1283 120F                              __ptext1292 0AEC  
                            __ptext1284 1326                              __ptext1293 139F  
                            __ptext1285 1455                              __ptext1294 134B  
                            __ptext1286 03FC                              __ptext1295 12E6  
                            __ptext1287 1425                              __ptext1296 14B7  
                            __ptext1288 091A                              __ptext1297 12C7  
                            __ptext1289 0E00                              __ptext1298 1485  
                            __ptext1299 12AE                             _Send_Packet 091A  
                             ?___ftpack 0035                               ?___lbtoft 003D  
                     __end_of_SwitchCFG 14B7                                 ?_printf 0043  
                 _rfm70setPowerdownMode 1326              rfm70setPowerdownMode@value 003C  
                            ??i1_printf 0022                              __stringtab 1000  
                        sleep@new_value 004F                                 i1_putch 1219  
                   __end_of_adcReadVcap 13CA                     __end_of_adcReadTemp 1455  
                       __size_of_SPI_RW 0019                           SwitchCFG@_cfg 003C  
                             ?_uartInit 0070                         __size_of___ftge 009E  
                               _adcInit 120F                                 ___awdiv 15CB  
                               ___ftdiv 0852                         __size_of___wmul 002C  
                               ___ftmul 09FE                                 ___fttol 175A  
                               ___lwdiv 0803                                 ___lwmod 1539  
                            ??___ftpack 003A                              ??___lbtoft 0040  
                     SPI_Write_Buf@pBuf 0038          ?_rfm70TxDataSentErrorInterrupt 0070  
                       __size_of_printf 0200                            __size_of_ISR 0078  
                     __end_of_hexpowers 1095                               _T1CONbits 0010  
                               _dpowers 1083                       i1___lwdiv@divisor 0070  
                     i1___lwdiv@counter 0075                                 _scap_on 02D1  
                               _spiInit 127D                              _tmr1Target 0059  
                  end_of_initialization 1421                                 init_ram 1242  
              __end_of_RFM70_Initialize 0788                              ??_uartInit 0035  
                             _RCSTAbits 0018                                 printf@c 00D0  
                               printf@f 0043                         _timelapse_count 00C2  
                          __pstringtext 1000                               _PORTAbits 0005  
                             _PORTBbits 0006                               _PORTCbits 0007  
                             _PORTDbits 0008                               _PORTEbits 0009  
                ?_rfm70setPowerdownMode 0070                __end_of_adcReadVsupercap 1485  
                      __CFG_FOSC$INTOSC 0000                               _TRISAbits 0085  
                             _TRISBbits 0086                               _Bank0_Reg 104A  
                             _TRISCbits 0087                               _TRISDbits 0088  
                             _TRISEbits 0089                               i1___lwdiv 157E  
                           _adcReadVcap 139F                               i1___lwmod 14F6  
                           _adcReadTemp 1425                   __end_of_Bank1_Reg0_13 104A  
                           ___ftdiv@exp 004B                               _TXSTAbits 0098  
                          i1printf@_val 0029                            i1printf@flag 0028  
                        __end_of_SPI_RW 12AE                            Send_Packet@i 00D6  
                          i1printf@prec 0027                           ?_SPI_Read_Reg 0070  
                           ___ftmul@exp 0047                             SPI_RW@value 0037  
                        __end_of___ftge 175A                          __end_of___wmul 13F6  
                      adcReadVcap@value 0037                       i1___lwmod@divisor 0078  
                         __pbitbssBANK0 02D0                       i1___lwmod@counter 007D  
                        __end_of_printf 1000                     start_initialization 13F6  
                           __end_of_ISR 0800                               i1printf@c 002D  
                             i1printf@f 0020                        adcReadTemp@value 0037  
                            ?i1___lwdiv 0070                              ?i1___lwmod 0078  
                     __size_ofi1_printf 01AE                                ??_SPI_RW 0035  
                        ??_SPI_Read_Reg 0038                   __end_of_SPI_Write_Buf 1375  
                 __end_of_SPI_Write_Reg 1267                        ??_SwitchToRxMode 003B  
                      ??_SwitchToTxMode 003B                                ??___ftge 00C8  
                              ??___wmul 0039                             __pdataBANK0 0057  
                           __pdataBANK1 00DF                            ?_Send_Packet 004C  
                              ??_printf 0049                       __size_of___ftpack 007D  
                     __size_of___lbtoft 0021                               _SwitchCFG 1485  
                         __pcstackBANK0 0020                           __pcstackBANK1 00C8  
                         __pcstackBANK3 0190                     __end_of__stringdata 119F  
                           _charge_time 0052                               _dac_value 0057  
                              ?i1_putch 0070                        ___lwdiv@dividend 0037  
                              ?_adcInit 0070                                ?___awdiv 003B  
                              ?___ftdiv 003D                     SPI_Write_Buf@length 0039  
                              ?___ftmul 003D                                ?___fttol 0035  
                              ?___lwdiv 0035                       __size_of_uartInit 0016  
                              ?___lwmod 003D                              ?_SwitchCFG 0070  
                   Send_Packet@fifo_sta 00D5                                ?_spiInit 0070  
                 SPI_Write_Buf@byte_ctr 003C                   adcReadVsupercap@value 0037  
              _rfm70TxDataSentInterrupt 12E6                               _hexpowers 108D  
                      ___lwdiv@quotient 003B                             ??i1___lwdiv 0074  
                           ??i1___lwmod 007C                          __size_of_sleep 0166  
                        __size_of_putch 000C         ??_rfm70TxDataSentErrorInterrupt 003B  
                     interrupt_function 0004                          ___wmul@product 0039  
                     ?_RFM70_Initialize 0070                      ??_RFM70_Initialize 003E  
                              _PIR1bits 000C                 ??_rfm70setPowerdownMode 003B  
                            _ADCON0bits 001F                             __stringbase 1012  
                            _ADCON1bits 009F                             __stringdata 10A3  
                     ___wmul@multiplier 0035                    __end_of_Bank0_RegAct 10A3  
                            printf@_val 00CC                              printf@flag 00CB  
                            printf@prec 00CA                       ?_adcReadVsupercap 0070  
                  __end_of_SPI_Read_Reg 12C7                                i1_printf 0C52  
                    ??_adcReadVsupercap 0035                           _sleep_counter 0055  
                          ?_adcReadVcap 0070                            ?_adcReadTemp 0070  
                              i1putch@c 0070                        __size_ofi1_putch 000C  
                             init_fetch 123E                        __size_of_adcInit 000A  
                      __size_of___awdiv 0074                        __size_of___ftdiv 00C8  
                   __end_of_RX0_Address 109A                        __size_of___ftmul 00EE  
                      __size_of___fttol 00A6                        __size_of___lwdiv 004F  
                      __size_of___lwmod 0045                                ___ftpack 163F  
                              ___lbtoft 1305                     __end_of_RX1_Address 109F  
                    __end_of__stringtab 1012                              _ANSELAbits 0185  
                            _ANSELBbits 0186                              _ANSELCbits 0187  
                            _ANSELDbits 0188                              _ANSELEbits 0189  
                  __size_of_Send_Packet 00E4                             ??_SwitchCFG 003B  
                       ___lwdiv@divisor 0035                         ___lwdiv@counter 003A  
                            _T1GCONbits 008F                        __size_of_spiInit 0018  
                    i1___lwdiv@dividend 0072                           __size_of_main 03E7  
                              clear_ram 1207                                _uartInit 1267  
                    SPI_Write_Reg@value 0038                     __end_of_Bank1_Reg14 1083  
                           _tmr1Counter 0056                               printf@idx 00C8  
                              main@argc 00D7                                main@argv 00D9  
                    i1___lwdiv@quotient 0076                rfm70setPowerdownMode@reg 003D  
                            _FVRCONbits 009D                                intlevel1 0000  
                      ___lwmod@dividend 003F                             _jumper_stat 0054  
                             stringcode 100A                              _OSCCONbits 0090  
                           _RX0_Address 1095                             _RX1_Address 109A  
                              printf@ap 00C9                             _sleep_count 00C6  
            ??_rfm70TxDataSentInterrupt 003B                   __size_of_SPI_Read_Reg 0019  
                       ___lwmod@divisor 003D                         ___lwmod@counter 0042  
                              stringtab 1000                  __size_of_SPI_Write_Buf 002A  
                __size_of_SPI_Write_Reg 0016                           _Bank1_Reg0_13 1012  
                  __size_of_adcReadVcap 002B                    __size_of_adcReadTemp 0030  
                          _Bank0_RegAct 109F                              _SSPCONbits 0014  
                           _Bank1_Reg14 1078                            _SPI_Read_Reg 12AE  
