Microchip MPLAB XC8 Compiler V1.12 ()

Linker command line:

--edf=/Applications/microchip/xc8/v1.12/dat/en_msgs.txt -cs \
  -h+dist/default/production/energy-harvesting-demoboard.production.sym -z \
  -Q16LF707 -ol.obj \
  -Mdist/default/production/energy-harvesting-demoboard.production.map -E1 \
  -ver=XC8 -ACONST=00h-0FFhx32 -ACODE=00h-07FFhx4 -ASTRCODE=00h-01FFFh \
  -AENTRY=00h-0FFhx32 -ASTRING=00h-0FFhx32 -ACOMMON=070h-07Fh \
  -ABANK0=020h-06Fh -ABANK1=0A0h-0EFh -ABANK2=0115h-016Fh \
  -ABANK3=0190h-01EFh -ARAM=020h-06Fh,0A0h-0EFh,0115h-016Fh,0190h-01EFh \
  -AABS1=020h-07Fh,0A0h-0EFh,0115h-016Fh,0190h-01EFh -ASFR0=00h-01Fh \
  -ASFR1=080h-09Fh -ASFR2=0100h-0114h -ASFR3=0180h-018Fh \
  -preset_vec=00h,intentry=04h,init,end_init -ppowerup=CODE -pfunctab=CODE \
  -ACONFIG=02007h-02008h -pconfig=CONFIG -DCONFIG=2 -AIDLOC=02000h-02003h \
  -pidloc=IDLOC -DIDLOC=2 -DCODE=2 -DSTRCODE=2 -DSTRING=2 -DCONST=2 \
  -DENTRY=2 -k /tmp/cgtRYrBz8.obj \
  dist/default/production/energy-harvesting-demoboard.production.obj 

Object code version is 3.10

Machine type is 16LF707



                Name                               Link     Load   Length Selector   Space Scale
/tmp/cgtRYrBz8.obj
                end_init                             12       12        3        8       0
                reset_vec                             0        0        3        0       0
                config                             2007     2007        1     400E       0
dist/default/production/energy-harvesting-demoboard.production.obj
                intentry                              4        4        E        8       0
                text1316                           14F6     14F6       43     29EC       0
                text1315                           157E     157E       4D     2AFC       0
                text1314                           1219     1219        C     2432       0
                text1313                            C52      C52      1AE     18A4       0
                text1312                            788      788       78        8       0
                text1311                           16BC     16BC       9E     2D78       0
                text1310                           15CB     15CB       74     2B96       0
                text1309                           163F     163F       7D     2C7E       0
                text1308                           1305     1305       21     260A       0
                text1307                           175A     175A       A6     2EB4       0
                text1306                            852      852       C8     10A4       0
                text1305                           1539     1539       45     2A72       0
                text1304                            803      803       4F     1006       0
                text1303                           13CA     13CA       2C     2794       0
                text1302                            9FE      9FE       EE     13FC       0
                text1301                           1295     1295       19     252A       0
                text1300                           1251     1251       16     24A2       0
                text1299                           12AE     12AE       19     255C       0
                text1298                           1485     1485       32     290A       0
                text1297                           12C7     12C7       1F     258E       0
                text1296                           14B7     14B7       3F     296E       0
                text1295                           12E6     12E6       1F     25CC       0
                text1294                           134B     134B       2A     2696       0
                text1293                           139F     139F       2B     273E       0
                text1292                            AEC      AEC      166     15D8       0
                text1291                           1225     1225        C     244A       0
                text1290                           1375     1375       2A     26EA       0
                text1289                            E00      E00      200     1C00       0
                text1288                            91A      91A       E4     1234       0
                text1287                           1425     1425       30     284A       0
                text1286                            3FC      3FC      38C        8       0
                text1285                           1455     1455       30     28AA       0
                text1284                           1326     1326       25     264C       0
                text1283                           120F     120F        A     241E       0
                text1282                           1267     1267       16     24CE       0
                text1281                           127D     127D       18     24FA       0
                maintext                             15       15      3E7        8       0
                cstackBANK0                          20       20       30       20       1
                cstackCOMMON                         70       70        E       70       1
                cstackBANK1                          C8       C8       17       A0       1
                cstackBANK3                         190      190        5      190       1
                inittext                           123E     123E       13     247C       0
                clrtext                            1207     1207        8     240E       0
                dataBANK1                            DF       DF        D       A0       1
                bssBANK1                             A0       A0       28       A0       1
                dataBANK0                            57       57        3       20       1
                bssBANK0                             50       50        7       20       1
                bitbssBANK0                         2D0       5A        2       20       1     8
                cinit                              13F6     13F6       2F     27EC       0
                stringtext                         1000     1000      19F       20       0
                idataBANK1                         1231     1231        D     2462       0
                idataBANK0                          800      800        3        8       0

TOTAL           Name                               Link     Load   Length     Space
        CLASS   CONST          

        CLASS   CODE           
                end_init                             12       12        3         0
                intentry                              4        4        E         0
                reset_vec                             0        0        3         0
                text1316                           14F6     14F6       43         0
                text1315                           157E     157E       4D         0
                text1314                           1219     1219        C         0
                text1313                            C52      C52      1AE         0
                text1312                            788      788       78         0
                text1311                           16BC     16BC       9E         0
                text1310                           15CB     15CB       74         0
                text1309                           163F     163F       7D         0
                text1308                           1305     1305       21         0
                text1307                           175A     175A       A6         0
                text1306                            852      852       C8         0
                text1305                           1539     1539       45         0
                text1304                            803      803       4F         0
                text1303                           13CA     13CA       2C         0
                text1302                            9FE      9FE       EE         0
                text1301                           1295     1295       19         0
                text1300                           1251     1251       16         0
                text1299                           12AE     12AE       19         0
                text1298                           1485     1485       32         0
                text1297                           12C7     12C7       1F         0
                text1296                           14B7     14B7       3F         0
                text1295                           12E6     12E6       1F         0
                text1294                           134B     134B       2A         0
                text1293                           139F     139F       2B         0
                text1292                            AEC      AEC      166         0
                text1291                           1225     1225        C         0
                text1290                           1375     1375       2A         0
                text1289                            E00      E00      200         0
                text1288                            91A      91A       E4         0
                text1287                           1425     1425       30         0
                text1286                            3FC      3FC      38C         0
                text1285                           1455     1455       30         0
                text1284                           1326     1326       25         0
                text1283                           120F     120F        A         0
                text1282                           1267     1267       16         0
                text1281                           127D     127D       18         0
                maintext                             15       15      3E7         0
                inittext                           123E     123E       13         0
                clrtext                            1207     1207        8         0
                cinit                              13F6     13F6       2F         0
                idataBANK1                         1231     1231        D         0
                idataBANK0                          800      800        3         0

        CLASS   STRCODE        
                stringtext                         1000     1000      19F         0

        CLASS   ENTRY          

        CLASS   STRING         

        CLASS   COMMON         
                cstackCOMMON                         70       70        E         1

        CLASS   BANK0          
                cstackBANK0                          20       20       30         1
                dataBANK0                            57       57        3         1
                bssBANK0                             50       50        7         1
                bitbssBANK0                         2D0       5A        2         1

        CLASS   BANK1          
                cstackBANK1                          C8       C8       17         1
                dataBANK1                            DF       DF        D         1
                bssBANK1                             A0       A0       28         1

        CLASS   BANK2          

        CLASS   BANK3          
                cstackBANK3                         190      190        5         1

        CLASS   RAM            

        CLASS   ABS1           
                abs_s1                               7E       7E        2         1

        CLASS   SFR0           

        CLASS   SFR1           

        CLASS   SFR2           

        CLASS   SFR3           

        CLASS   CONFIG         
                config                             2007     2007        1         0

        CLASS   IDLOC          

        CLASS   EEDATA         



SEGMENTS        Name                           Load    Length   Top    Selector   Space  Class     Delta

                reset_vec                      000000  000003  000003         0       0  CODE        2
                intentry                       000004  0007FF  000803         8       0  CODE        2
                cstackBANK0                    000020  00003B  00005B        20       1  BANK0       1
                cstackCOMMON                   000070  00000E  00007E        70       1  COMMON      1
                bssBANK1                       0000A0  00004C  0000EC        A0       1  BANK1       1
                cstackBANK3                    000190  000005  000195       190       1  BANK3       1
                text1304                       000803  00004F  000852      1006       0  CODE        2
                text1306                       000852  0000C8  00091A      10A4       0  CODE        2
                text1288                       00091A  0000E4  0009FE      1234       0  CODE        2
                text1302                       0009FE  0000EE  000AEC      13FC       0  CODE        2
                text1292                       000AEC  000166  000C52      15D8       0  CODE        2
                text1313                       000C52  0001AE  000E00      18A4       0  CODE        2
                text1289                       000E00  000200  001000      1C00       0  CODE        2
                stringtext                     001000  00019F  00119F        20       0  STRCODE     2
                clrtext                        001207  000008  00120F      240E       0  CODE        2
                text1283                       00120F  00000A  001219      241E       0  CODE        2
                text1314                       001219  00000C  001225      2432       0  CODE        2
                text1291                       001225  00000C  001231      244A       0  CODE        2
                idataBANK1                     001231  00000D  00123E      2462       0  CODE        2
                inittext                       00123E  000013  001251      247C       0  CODE        2
                text1300                       001251  000016  001267      24A2       0  CODE        2
                text1282                       001267  000016  00127D      24CE       0  CODE        2
                text1281                       00127D  000018  001295      24FA       0  CODE        2
                text1301                       001295  000019  0012AE      252A       0  CODE        2
                text1299                       0012AE  000019  0012C7      255C       0  CODE        2
                text1297                       0012C7  00001F  0012E6      258E       0  CODE        2
                text1295                       0012E6  00001F  001305      25CC       0  CODE        2
                text1308                       001305  000021  001326      260A       0  CODE        2
                text1284                       001326  000025  00134B      264C       0  CODE        2
                text1294                       00134B  00002A  001375      2696       0  CODE        2
                text1290                       001375  00002A  00139F      26EA       0  CODE        2
                text1293                       00139F  00002B  0013CA      273E       0  CODE        2
                text1303                       0013CA  00002C  0013F6      2794       0  CODE        2
                cinit                          0013F6  00002F  001425      27EC       0  CODE        2
                text1287                       001425  000030  001455      284A       0  CODE        2
                text1285                       001455  000030  001485      28AA       0  CODE        2
                text1298                       001485  000032  0014B7      290A       0  CODE        2
                text1296                       0014B7  00003F  0014F6      296E       0  CODE        2
                text1316                       0014F6  000043  001539      29EC       0  CODE        2
                text1305                       001539  000045  00157E      2A72       0  CODE        2
                text1315                       00157E  00004D  0015CB      2AFC       0  CODE        2
                text1310                       0015CB  000074  00163F      2B96       0  CODE        2
                text1309                       00163F  00007D  0016BC      2C7E       0  CODE        2
                text1311                       0016BC  00009E  00175A      2D78       0  CODE        2
                text1307                       00175A  0000A6  001800      2EB4       0  CODE        2
                config                         002007  000001  002008      400E       0  CONFIG      2


UNUSED ADDRESS RANGES

        Name                Unused          Largest block    Delta
        BANK0            005B-006F             15           1
        BANK1            00EC-00EF              4           1
        BANK2            0115-016F             5B           1
        BANK3            0195-01EF             5B           1
        CODE             0003-0003              1           2
                         119F-1206             68
                         1800-1FFF            800
        CONFIG           2008-2008              1           2
        CONST            0003-0003              1           2
                         119F-1206             61
                         1800-1FFF            100
        ENTRY            0003-0003              1           2
                         119F-1206             61
                         1800-1FFF            100
        IDLOC            2000-2003              4           2
        RAM              005B-006F             15           1
                         00EC-00EF              4
                         0115-016F             5B
                         0195-01EF             5B
        SFR0             0000-001F             20           1
        SFR1             0080-009F             20           1
        SFR2             0100-0114             15           1
        SFR3             0180-018F             10           1
        STRCODE          0003-0003              1           2
                         119F-1206             68
                         1800-1FFF            800
        STRING           0003-0003              1           2
                         119F-1206             61
                         1800-1FFF            100

                                  Symbol Table

?_SPI_Write_Buf                         cstackBANK0  0038
?_SPI_Write_Reg                         cstackBANK0  0038
?_Send_Packet                           cstackBANK0  004C
?___awdiv                               cstackBANK0  003B
?___ftdiv                               cstackBANK0  003D
?___ftge                                cstackBANK0  0045
?___ftmul                               cstackBANK0  003D
?___ftpack                              cstackBANK0  0035
?___fttol                               cstackBANK0  0035
?___lbtoft                              cstackBANK0  003D
?___lwdiv                               cstackBANK0  0035
?___lwmod                               cstackBANK0  003D
?___wmul                                cstackBANK0  0035
?_printf                                cstackBANK0  0043
?i1___lwdiv                             cstackCOMMON 0070
?i1___lwmod                             cstackCOMMON 0078
?i1_printf                              cstackBANK0  0020
RFM70_Initialize@WriteArr               cstackBANK1  00C8
RFM70_Initialize@i                      cstackBANK1  00D4
RFM70_Initialize@j                      cstackBANK1  00D5
SPI_RW@value                            cstackBANK0  0037
SPI_Read_Reg@reg                        cstackBANK0  0039
SPI_Read_Reg@value                      cstackBANK0  003A
SPI_Write_Buf@byte_ctr                  cstackBANK0  003C
SPI_Write_Buf@length                    cstackBANK0  0039
SPI_Write_Buf@pBuf                      cstackBANK0  0038
SPI_Write_Buf@reg                       cstackBANK0  003B
SPI_Write_Reg@reg                       cstackBANK0  0039
SPI_Write_Reg@value                     cstackBANK0  0038
Send_Packet@fifo_sta                    cstackBANK1  00D5
Send_Packet@i                           cstackBANK1  00D6
Send_Packet@len                         cstackBANK0  004D
Send_Packet@pbuf                        cstackBANK0  004C
Send_Packet@type                        cstackBANK1  00D4
SwitchCFG@Tmp                           cstackBANK0  003D
SwitchCFG@_cfg                          cstackBANK0  003C
SwitchToRxMode@value                    cstackBANK0  003C
SwitchToTxMode@value                    cstackBANK0  003C
_ADCON0bits                             (abs)        001F
_ADCON1bits                             (abs)        009F
_ADRES                                  (abs)        001E
_ANSELAbits                             (abs)        0185
_ANSELBbits                             (abs)        0186
_ANSELCbits                             (abs)        0187
_ANSELDbits                             (abs)        0188
_ANSELEbits                             (abs)        0189
_Bank0_Reg                              stringtext   104A
_Bank1_Reg0_13                          stringtext   1012
_Bank1_Reg14                            stringtext   1078
_DACCON0                                (abs)        0113
_DACCON1                                (abs)        0114
_FVRCONbits                             (abs)        009D
_GIE                                    (abs)        005F
_ISR                                    text1312     0788
_OSCCONbits                             (abs)        0090
_PEIE                                   (abs)        005E
_PIR1bits                               (abs)        000C
_PORTAbits                              (abs)        0005
_PORTBbits                              (abs)        0006
_PORTCbits                              (abs)        0007
_PORTD                                  (abs)        0008
_PORTDbits                              (abs)        0008
_PORTEbits                              (abs)        0009
_RCIF                                   (abs)        0065
_RCREG                                  (abs)        001A
_RCSTA                                  (abs)        0018
_RCSTAbits                              (abs)        0018
_RFM70_Initialize                       text1286     03FC
_RX0_Address                            stringtext   1095
_RX1_Address                            stringtext   109A
_SPBRG                                  (abs)        0099
_SPI_RW                                 text1301     1295
_SPI_Read_Reg                           text1299     12AE
_SPI_Write_Buf                          text1294     134B
_SPI_Write_Reg                          text1300     1251
_SSPBUF                                 (abs)        0013
_SSPCONbits                             (abs)        0014
_SSPSTATbits                            (abs)        0094
_Send_Packet                            text1288     091A
_SwitchCFG                              text1298     1485
_SwitchToRxMode                         text1296     14B7
_SwitchToTxMode                         text1290     1375
_T1CONbits                              (abs)        0010
_T1GCONbits                             (abs)        008F
_TMR1H                                  (abs)        000F
_TMR1IE                                 (abs)        0460
_TMR1IF                                 (abs)        0060
_TMR1L                                  (abs)        000E
_TRISAbits                              (abs)        0085
_TRISBbits                              (abs)        0086
_TRISCbits                              (abs)        0087
_TRISDbits                              (abs)        0088
_TRISEbits                              (abs)        0089
_TXIF                                   (abs)        0064
_TXREG                                  (abs)        0019
_TXSTA                                  (abs)        0098
_TXSTAbits                              (abs)        0098
__CFG_BOREN$OFF                         (abs)        0000
__CFG_CP$OFF                            (abs)        0000
__CFG_FOSC$INTOSC                       (abs)        0000
__CFG_MCLRE$ON                          (abs)        0000
__CFG_PLLEN$ON                          (abs)        0000
__CFG_PWRTE$OFF                         (abs)        0000
__CFG_WDTE$OFF                          (abs)        0000
__Habs1                                 abs1         0000
__Hbank0                                bank0        0000
__Hbank1                                bank1        0000
__Hbank2                                bank2        0000
__Hbank3                                bank3        0000
__HbitbssBANK0                          bitbssBANK0  0000
__HbssBANK0                             bssBANK0     0000
__HbssBANK1                             bssBANK1     0000
__Hcinit                                cinit        0000
__Hclrtext                              clrtext      0000
__Hcode                                 code         0000
__Hcommon                               common       0000
__Hconfig                               config       2008
__HcstackBANK0                          cstackBANK0  0000
__HcstackBANK1                          cstackBANK1  0000
__HcstackBANK3                          cstackBANK3  0000
__HcstackCOMMON                         cstackCOMMON 0000
__HdataBANK0                            dataBANK0    0000
__HdataBANK1                            dataBANK1    0000
__Heeprom_data                          eeprom_data  0000
__Hend_init                             end_init     0015
__Hfunctab                              functab      0000
__HidataBANK0                           idataBANK0   0000
__HidataBANK1                           idataBANK1   0000
__Hidloc                                idloc        0000
__Hinit                                 init         0012
__Hinittext                             inittext     0000
__Hintentry                             intentry     0012
__Hmaintext                             maintext     0000
__Hpowerup                              powerup      0000
__Hram                                  ram          0000
__Hreset_vec                            reset_vec    0003
__Hsfr0                                 sfr0         0000
__Hsfr1                                 sfr1         0000
__Hsfr2                                 sfr2         0000
__Hsfr3                                 sfr3         0000
__Hstrings                              strings      0000
__Hstringtext                           stringtext   0000
__Htext                                 text         0000
__Labs1                                 abs1         0000
__Lbank0                                bank0        0000
__Lbank1                                bank1        0000
__Lbank2                                bank2        0000
__Lbank3                                bank3        0000
__LbitbssBANK0                          bitbssBANK0  0000
__LbssBANK0                             bssBANK0     0000
__LbssBANK1                             bssBANK1     0000
__Lcinit                                cinit        0000
__Lclrtext                              clrtext      0000
__Lcode                                 code         0000
__Lcommon                               common       0000
__Lconfig                               config       2007
__LcstackBANK0                          cstackBANK0  0000
__LcstackBANK1                          cstackBANK1  0000
__LcstackBANK3                          cstackBANK3  0000
__LcstackCOMMON                         cstackCOMMON 0000
__LdataBANK0                            dataBANK0    0000
__LdataBANK1                            dataBANK1    0000
__Leeprom_data                          eeprom_data  0000
__Lend_init                             end_init     0012
__Lfunctab                              functab      0000
__LidataBANK0                           idataBANK0   0000
__LidataBANK1                           idataBANK1   0000
__Lidloc                                idloc        0000
__Linit                                 init         0012
__Linittext                             inittext     0000
__Lintentry                             intentry     0004
__Lmaintext                             maintext     0000
__Lpowerup                              powerup      0000
__Lram                                  ram          0000
__Lreset_vec                            reset_vec    0000
__Lsfr0                                 sfr0         0000
__Lsfr1                                 sfr1         0000
__Lsfr2                                 sfr2         0000
__Lsfr3                                 sfr3         0000
__Lstrings                              strings      0000
__Lstringtext                           stringtext   0000
__Ltext                                 text         0000
__S0                                    (abs)        2008
__S1                                    (abs)        0195
___awdiv                                text1310     15CB
___awdiv@counter                        cstackBANK0  0040
___awdiv@dividend                       cstackBANK0  003D
___awdiv@divisor                        cstackBANK0  003B
___awdiv@quotient                       cstackBANK0  0042
___awdiv@sign                           cstackBANK0  0041
___ftdiv                                text1306     0852
___ftdiv@cntr                           cstackBANK0  0047
___ftdiv@exp                            cstackBANK0  004B
___ftdiv@f1                             cstackBANK0  0040
___ftdiv@f2                             cstackBANK0  003D
___ftdiv@f3                             cstackBANK0  0048
___ftdiv@sign                           cstackBANK0  004C
___ftge                                 text1311     16BC
___ftge@ff1                             cstackBANK0  0045
___ftge@ff2                             cstackBANK0  0048
___ftmul                                text1302     09FE
___ftmul@cntr                           cstackBANK0  004B
___ftmul@exp                            cstackBANK0  0047
___ftmul@f1                             cstackBANK0  003D
___ftmul@f2                             cstackBANK0  0040
___ftmul@f3_as_product                  cstackBANK0  0048
___ftmul@sign                           cstackBANK0  004C
___ftpack                               text1309     163F
___ftpack@arg                           cstackBANK0  0035
___ftpack@exp                           cstackBANK0  0038
___ftpack@sign                          cstackBANK0  0039
___fttol                                text1307     175A
___fttol@exp1                           cstackBANK0  0042
___fttol@f1                             cstackBANK0  0035
___fttol@lval                           cstackBANK0  003E
___fttol@sign1                          cstackBANK0  003D
___lbtoft                               text1308     1305
___lbtoft@c                             cstackBANK0  0044
___lwdiv                                text1304     0803
___lwdiv@counter                        cstackBANK0  003A
___lwdiv@dividend                       cstackBANK0  0037
___lwdiv@divisor                        cstackBANK0  0035
___lwdiv@quotient                       cstackBANK0  003B
___lwmod                                text1305     1539
___lwmod@counter                        cstackBANK0  0042
___lwmod@dividend                       cstackBANK0  003F
___lwmod@divisor                        cstackBANK0  003D
___wmul                                 text1303     13CA
___wmul@multiplicand                    cstackBANK0  0037
___wmul@multiplier                      cstackBANK0  0035
___wmul@product                         cstackBANK0  0039
__end_of_Bank0_Reg                      stringtext   1078
__end_of_Bank0_RegAct                   stringtext   10A3
__end_of_Bank1_Reg0_13                  stringtext   104A
__end_of_Bank1_Reg14                    stringtext   1083
__end_of_ISR                            text1312     0800
__end_of_RFM70_Initialize               text1286     0788
__end_of_RX0_Address                    stringtext   109A
__end_of_RX1_Address                    stringtext   109F
__end_of_SPI_RW                         text1301     12AE
__end_of_SPI_Read_Reg                   text1299     12C7
__end_of_SPI_Write_Buf                  text1294     1375
__end_of_SPI_Write_Reg                  text1300     1267
__end_of_Send_Packet                    text1288     09FE
__end_of_SwitchCFG                      text1298     14B7
__end_of_SwitchToRxMode                 text1296     14F6
__end_of_SwitchToTxMode                 text1290     139F
__end_of___awdiv                        text1310     163F
__end_of___ftdiv                        text1306     091A
__end_of___ftge                         text1311     175A
__end_of___ftmul                        text1302     0AEC
__end_of___ftpack                       text1309     16BC
__end_of___fttol                        text1307     1800
__end_of___lbtoft                       text1308     1326
__end_of___lwdiv                        text1304     0852
__end_of___lwmod                        text1305     157E
__end_of___wmul                         text1303     13F6
__end_of__initialization                cinit        1421
__end_of__stringdata                    stringtext   119F
__end_of__stringtab                     stringtext   1012
__end_of_adcInit                        text1283     1219
__end_of_adcReadTemp                    text1287     1455
__end_of_adcReadVcap                    text1293     13CA
__end_of_adcReadVsupercap               text1285     1485
__end_of_dpowers                        stringtext   108D
__end_of_hexpowers                      stringtext   1095
__end_of_main                           maintext     03FC
__end_of_printf                         text1289     1000
__end_of_putch                          text1291     1231
__end_of_rfm70TxDataSentErrorInterrupt  text1297     12E6
__end_of_rfm70TxDataSentInterrupt       text1295     1305
__end_of_rfm70setPowerdownMode          text1284     134B
__end_of_sleep                          text1292     0C52
__end_of_spiInit                        text1281     1295
__end_of_uartInit                       text1282     127D
__end_ofi1___lwdiv                      text1315     15CB
__end_ofi1___lwmod                      text1316     1539
__end_ofi1_printf                       text1313     0E00
__end_ofi1_putch                        text1314     1225
__initialization                        cinit        13F6
__pbitbssBANK0                          bitbssBANK0  02D0
__pbssBANK0                             bssBANK0     0050
__pbssBANK1                             bssBANK1     00A0
__pcstackBANK0                          cstackBANK0  0020
__pcstackBANK1                          cstackBANK1  00C8
__pcstackBANK3                          cstackBANK3  0190
__pcstackCOMMON                         cstackCOMMON 0070
__pdataBANK0                            dataBANK0    0057
__pdataBANK1                            dataBANK1    00DF
__pidataBANK0                           idataBANK0   0800
__pidataBANK1                           idataBANK1   1231
__pintentry                             intentry     0004
__pmaintext                             maintext     0015
__pstringtext                           stringtext   1000
__ptext1281                             text1281     127D
__ptext1282                             text1282     1267
__ptext1283                             text1283     120F
__ptext1284                             text1284     1326
__ptext1285                             text1285     1455
__ptext1286                             text1286     03FC
__ptext1287                             text1287     1425
__ptext1288                             text1288     091A
__ptext1289                             text1289     0E00
__ptext1290                             text1290     1375
__ptext1291                             text1291     1225
__ptext1292                             text1292     0AEC
__ptext1293                             text1293     139F
__ptext1294                             text1294     134B
__ptext1295                             text1295     12E6
__ptext1296                             text1296     14B7
__ptext1297                             text1297     12C7
__ptext1298                             text1298     1485
__ptext1299                             text1299     12AE
__ptext1300                             text1300     1251
__ptext1301                             text1301     1295
__ptext1302                             text1302     09FE
__ptext1303                             text1303     13CA
__ptext1304                             text1304     0803
__ptext1305                             text1305     1539
__ptext1306                             text1306     0852
__ptext1307                             text1307     175A
__ptext1308                             text1308     1305
__ptext1309                             text1309     163F
__ptext1310                             text1310     15CB
__ptext1311                             text1311     16BC
__ptext1312                             text1312     0788
__ptext1313                             text1313     0C52
__ptext1314                             text1314     1219
__ptext1315                             text1315     157E
__ptext1316                             text1316     14F6
__ptext1317                             text1317     0000
__size_of_ISR                           (abs)        0000
__size_of_RFM70_Initialize              (abs)        0000
__size_of_SPI_RW                        (abs)        0000
__size_of_SPI_Read_Reg                  (abs)        0000
__size_of_SPI_Write_Buf                 (abs)        0000
__size_of_SPI_Write_Reg                 (abs)        0000
__size_of_Send_Packet                   (abs)        0000
__size_of_SwitchCFG                     (abs)        0000
__size_of_SwitchToRxMode                (abs)        0000
__size_of_SwitchToTxMode                (abs)        0000
__size_of___awdiv                       (abs)        0000
__size_of___ftdiv                       (abs)        0000
__size_of___ftge                        (abs)        0000
__size_of___ftmul                       (abs)        0000
__size_of___ftpack                      (abs)        0000
__size_of___fttol                       (abs)        0000
__size_of___lbtoft                      (abs)        0000
__size_of___lwdiv                       (abs)        0000
__size_of___lwmod                       (abs)        0000
__size_of___wmul                        (abs)        0000
__size_of_adcInit                       (abs)        0000
__size_of_adcReadTemp                   (abs)        0000
__size_of_adcReadVcap                   (abs)        0000
__size_of_adcReadVsupercap              (abs)        0000
__size_of_main                          (abs)        0000
__size_of_printf                        (abs)        0000
__size_of_putch                         (abs)        0000
__size_of_rfm70TxDataSentErrorInterrupt (abs)        0000
__size_of_rfm70TxDataSentInterrupt      (abs)        0000
__size_of_rfm70setPowerdownMode         (abs)        0000
__size_of_sleep                         (abs)        0000
__size_of_spiInit                       (abs)        0000
__size_of_uartInit                      (abs)        0000
__size_ofi1___lwdiv                     (abs)        0000
__size_ofi1___lwmod                     (abs)        0000
__size_ofi1_printf                      (abs)        0000
__size_ofi1_putch                       (abs)        0000
__stringdata                            stringtext   10A3
__stringtab                             stringtext   1000
_adcInit                                text1283     120F
_adcReadTemp                            text1287     1425
_adcReadVcap                            text1293     139F
_adcReadVsupercap                       text1285     1455
_charge_pulse                           bssBANK0     0050
_charge_pulse_float                     dataBANK1    00DF
_charge_time                            bssBANK0     0052
_dpowers                                stringtext   1083
_energy                                 bssBANK1     00C0
_flag                                   bitbssBANK0  02D0
_hexpowers                              stringtext   108D
_jumper_stat                            bssBANK0     0054
_main                                   maintext     0015
_printf                                 text1289     0E00
_putch                                  text1291     1225
_rfm70TxDataSentErrorInterrupt          text1297     12C7
_rfm70TxDataSentInterrupt               text1295     12E6
_rfm70setPowerdownMode                  text1284     1326
_sleep                                  text1292     0AEC
_sleep_count                            bssBANK1     00C6
_sleep_counter                          bssBANK0     0055
_spiInit                                text1281     127D
_timelapse_count                        bssBANK1     00C2
_tmr1Counter                            bssBANK0     0056
_tmr1Target                             dataBANK0    0059
_tx_buf                                 dataBANK1    00E2
_uartInit                               text1282     1267
_value                                  bssBANK1     00C7
_values                                 bssBANK1     00C4
adcReadTemp@value                       cstackBANK0  0037
adcReadVcap@value                       cstackBANK0  0037
adcReadVsupercap@value                  cstackBANK0  0037
btemp                                   (abs)        007E
clear_ram                               clrtext      1207
end_of_initialization                   cinit        1421
i1___lwdiv                              text1315     157E
i1___lwdiv@counter                      cstackCOMMON 0075
i1___lwdiv@dividend                     cstackCOMMON 0072
i1___lwdiv@divisor                      cstackCOMMON 0070
i1___lwdiv@quotient                     cstackCOMMON 0076
i1___lwmod                              text1316     14F6
i1___lwmod@counter                      cstackCOMMON 007D
i1___lwmod@dividend                     cstackCOMMON 007A
i1___lwmod@divisor                      cstackCOMMON 0078
i1_printf                               text1313     0C52
i1_putch                                text1314     1219
i1printf@_val                           cstackBANK0  0029
i1printf@ap                             cstackBANK0  0026
i1printf@c                              cstackBANK0  002D
i1printf@f                              cstackBANK0  0020
i1printf@flag                           cstackBANK0  0028
i1printf@idx                            cstackBANK0  0025
i1printf@prec                           cstackBANK0  0027
i1putch@c                               cstackCOMMON 0070
init_fetch                              inittext     123E
init_ram                                inittext     1242
interrupt_function                      intentry     0004
intlevel0                               functab      0000
intlevel1                               functab      0000
intlevel2                               functab      0000
intlevel3                               functab      0000
intlevel4                               functab      0000
intlevel5                               functab      0000
main@i                                  cstackBANK3  0190
main@num_sleep                          cstackBANK3  0194
printf@_val                             cstackBANK1  00CC
printf@ap                               cstackBANK1  00C9
printf@c                                cstackBANK1  00D0
printf@f                                cstackBANK0  0043
printf@flag                             cstackBANK1  00CB
printf@idx                              cstackBANK1  00C8
printf@prec                             cstackBANK1  00CA
putch@c                                 cstackBANK0  0035
reset_vec                               reset_vec    0000
rfm70setPowerdownMode@reg               cstackBANK0  003D
rfm70setPowerdownMode@value             cstackBANK0  003C
saved_w                                 (abs)        007E
sleep@new_value                         cstackBANK0  004F
start                                   init         0012
start_initialization                    cinit        13F6
wtemp0                                  (abs)        007E


FUNCTION INFORMATION:

 *************** function _main *****************
 Defined at:
		line 158 in file "main.c"
 Parameters:    Size  Location     Type
  argc            2   15[BANK1 ] int 
  argv            2   17[BANK1 ] PTR PTR unsigned char 
 Auto vars:     Size  Location     Type
  i               4    0[BANK3 ] long 
  num_sleep       1    4[BANK3 ] unsigned char 
 Return value:  Size  Location     Type
                  2   15[BANK1 ] int 
 Registers used:
		wreg, fsr0l, fsr0h, fsr1l, fsr1h, status,2, status,0, btemp+1, pclath, cstack
 Tracked objects:
		On entry : 
		On exit  : 
		Unchanged: 
 Data sizes:     COMMON   BANK0   BANK1   BANK3   BANK2
      Params:         0       0       4       0       0
      Locals:         0       0       0       5       0
      Temps:          0       0       4       0       0
      Totals:         0       0       8       5       0
Total ram usage:       13 bytes
 Hardware stack levels required when called:    7
 This function calls:
		_spiInit
		_uartInit
		_adcInit
		_rfm70setPowerdownMode
		_printf
		_adcReadVcap
		_adcReadVsupercap
		___lbtoft
		___ftge
		_RFM70_Initialize
		___fttol
		_adcReadTemp
		_Send_Packet
		_sleep
		___wmul
		___awdiv
 This function is called by:
		Startup code after reset
 This function uses a non-reentrant model


 *************** function _spiInit *****************
 Defined at:
		line 764 in file "main.c"
 Parameters:    Size  Location     Type
		None
 Auto vars:     Size  Location     Type
		None
 Return value:  Size  Location     Type
		None               void
 Registers used:
		wreg, status,2, status,0
 Tracked objects:
		On entry : 
		On exit  : 
		Unchanged: 
 Data sizes:     COMMON   BANK0   BANK1   BANK3   BANK2
      Params:         0       0       0       0       0
      Locals:         0       0       0       0       0
      Temps:          0       2       0       0       0
      Totals:         0       2       0       0       0
Total ram usage:        2 bytes
 Hardware stack levels used:    1
 Hardware stack levels required when called:    3
 This function calls:
		Nothing
 This function is called by:
		_main
 This function uses a non-reentrant model


 *************** function _uartInit *****************
 Defined at:
		line 742 in file "main.c"
 Parameters:    Size  Location     Type
		None
 Auto vars:     Size  Location     Type
		None
 Return value:  Size  Location     Type
		None               void
 Registers used:
		wreg, status,2
 Tracked objects:
		On entry : 
		On exit  : 
		Unchanged: 
 Data sizes:     COMMON   BANK0   BANK1   BANK3   BANK2
      Params:         0       0       0       0       0
      Locals:         0       0       0       0       0
      Temps:          0       0       0       0       0
      Totals:         0       0       0       0       0
Total ram usage:        0 bytes
 Hardware stack levels used:    1
 Hardware stack levels required when called:    3
 This function calls:
		Nothing
 This function is called by:
		_main
 This function uses a non-reentrant model


 *************** function _adcInit *****************
 Defined at:
		line 776 in file "main.c"
 Parameters:    Size  Location     Type
		None
 Auto vars:     Size  Location     Type
		None
 Return value:  Size  Location     Type
		None               void
 Registers used:
		wreg, status,2, status,0
 Tracked objects:
		On entry : 
		On exit  : 
		Unchanged: 
 Data sizes:     COMMON   BANK0   BANK1   BANK3   BANK2
      Params:         0       0       0       0       0
      Locals:         0       0       0       0       0
      Temps:          0       0       0       0       0
      Totals:         0       0       0       0       0
Total ram usage:        0 bytes
 Hardware stack levels used:    1
 Hardware stack levels required when called:    3
 This function calls:
		Nothing
 This function is called by:
		_main
 This function uses a non-reentrant model


 *************** function _rfm70setPowerdownMode *****************
 Defined at:
		line 400 in file "rfm70.c"
 Parameters:    Size  Location     Type
  value           1    wreg     unsigned char 
 Auto vars:     Size  Location     Type
  value           1   28[BANK0 ] unsigned char 
  reg             1   29[BANK0 ] unsigned char 
 Return value:  Size  Location     Type
		None               void
 Registers used:
		wreg, status,2, status,0, pclath, cstack
 Tracked objects:
		On entry : 
		On exit  : 
		Unchanged: 
 Data sizes:     COMMON   BANK0   BANK1   BANK3   BANK2
      Params:         0       0       0       0       0
      Locals:         0       2       0       0       0
      Temps:          0       1       0       0       0
      Totals:         0       3       0       0       0
Total ram usage:        3 bytes
 Hardware stack levels used:    1
 Hardware stack levels required when called:    5
 This function calls:
		_SPI_Read_Reg
		_SPI_Write_Reg
 This function is called by:
		_main
 This function uses a non-reentrant model


 *************** function _adcReadVsupercap *****************
 Defined at:
		line 688 in file "main.c"
 Parameters:    Size  Location     Type
		None
 Auto vars:     Size  Location     Type
  value           1   23[BANK0 ] unsigned char 
 Return value:  Size  Location     Type
                  1    wreg      unsigned char 
 Registers used:
		wreg, status,2, status,0
 Tracked objects:
		On entry : 
		On exit  : 
		Unchanged: 
 Data sizes:     COMMON   BANK0   BANK1   BANK3   BANK2
      Params:         0       0       0       0       0
      Locals:         0       1       0       0       0
      Temps:          0       2       0       0       0
      Totals:         0       3       0       0       0
Total ram usage:        3 bytes
 Hardware stack levels used:    1
 Hardware stack levels required when called:    3
 This function calls:
		Nothing
 This function is called by:
		_main
 This function uses a non-reentrant model


 *************** function _RFM70_Initialize *****************
 Defined at:
		line 252 in file "rfm70.c"
 Parameters:    Size  Location     Type
		None
 Auto vars:     Size  Location     Type
  WriteArr       12    0[BANK1 ] unsigned char [12]
  j               1   13[BANK1 ] unsigned char 
  i               1   12[BANK1 ] unsigned char 
 Return value:  Size  Location     Type
		None               void
 Registers used:
		wreg, fsr0l, fsr0h, status,2, status,0, btemp+1, pclath, cstack
 Tracked objects:
		On entry : 
		On exit  : 
		Unchanged: 
 Data sizes:     COMMON   BANK0   BANK1   BANK3   BANK2
      Params:         0       0       0       0       0
      Locals:         0       0      14       0       0
      Temps:          0       7       0       0       0
      Totals:         0       7      14       0       0
Total ram usage:       21 bytes
 Hardware stack levels used:    1
 Hardware stack levels required when called:    6
 This function calls:
		_SwitchCFG
		_SPI_Write_Reg
		_SPI_Write_Buf
		_SPI_Read_Reg
 This function is called by:
		_main
 This function uses a non-reentrant model


 *************** function _adcReadTemp *****************
 Defined at:
		line 657 in file "main.c"
 Parameters:    Size  Location     Type
		None
 Auto vars:     Size  Location     Type
  value           1   23[BANK0 ] unsigned char 
 Return value:  Size  Location     Type
                  1    wreg      unsigned char 
 Registers used:
		wreg, status,2, status,0
 Tracked objects:
		On entry : 
		On exit  : 
		Unchanged: 
 Data sizes:     COMMON   BANK0   BANK1   BANK3   BANK2
      Params:         0       0       0       0       0
      Locals:         0       1       0       0       0
      Temps:          0       2       0       0       0
      Totals:         0       3       0       0       0
Total ram usage:        3 bytes
 Hardware stack levels used:    1
 Hardware stack levels required when called:    3
 This function calls:
		Nothing
 This function is called by:
		_main
 This function uses a non-reentrant model


 *************** function _Send_Packet *****************
 Defined at:
		line 830 in file "main.c"
 Parameters:    Size  Location     Type
  type            1    wreg     unsigned char 
  pbuf            1   44[BANK0 ] PTR unsigned char 
		 -> tx_buf(10), 
  len             1   45[BANK0 ] unsigned char 
 Auto vars:     Size  Location     Type
  type            1   12[BANK1 ] unsigned char 
  i               1   14[BANK1 ] unsigned char 
  fifo_sta        1   13[BANK1 ] unsigned char 
 Return value:  Size  Location     Type
		None               void
 Registers used:
		wreg, fsr0l, fsr0h, fsr1l, fsr1h, status,2, status,0, btemp+1, pclath, cstack
 Tracked objects:
		On entry : 
		On exit  : 
		Unchanged: 
 Data sizes:     COMMON   BANK0   BANK1   BANK3   BANK2
      Params:         0       2       0       0       0
      Locals:         0       0       3       0       0
      Temps:          0       0       3       0       0
      Totals:         0       2       6       0       0
Total ram usage:        8 bytes
 Hardware stack levels used:    1
 Hardware stack levels required when called:    6
 This function calls:
		_SwitchToTxMode
		_SPI_Read_Reg
		_printf
		_SPI_Write_Buf
		_rfm70TxDataSentInterrupt
		_SwitchToRxMode
		_rfm70TxDataSentErrorInterrupt
 This function is called by:
		_main
 This function uses a non-reentrant model


 *************** function _printf *****************
 Defined at:
		line 465 in file "/Applications/microchip/xc8/v1.12/sources/doprnt.c"
 Parameters:    Size  Location     Type
  f               2   35[BANK0 ] PTR const unsigned char 
		 -> STR_15(5), STR_14(12), Receive_Packet@rx_buf(32), STR_13(5), 
		 -> STR_12(24), STR_11(17), STR_10(3), STR_9(3), 
		 -> STR_8(10), STR_7(18), STR_6(21), STR_5(26), 
		 -> STR_4(37), STR_3(23), STR_2(20), STR_1(19), 
 Auto vars:     Size  Location     Type
  idx             1    0[BANK1 ] unsigned char 
  _val            4    4[BANK1 ] struct .
  c               1    8[BANK1 ] char 
  flag            1    3[BANK1 ] unsigned char 
  prec            1    2[BANK1 ] char 
  ap              1    1[BANK1 ] PTR void [1]
		 -> ?_printf(2), 
 Return value:  Size  Location     Type
                  2   35[BANK0 ] int 
 Registers used:
		wreg, fsr0l, fsr0h, status,2, status,0, btemp+1, pclath, cstack
 Tracked objects:
		On entry : 
		On exit  : 
		Unchanged: 
 Data sizes:     COMMON   BANK0   BANK1   BANK3   BANK2
      Params:         0       6       0       0       0
      Locals:         0       0       9       0       0
      Temps:          0       3       0       0       0
      Totals:         0       9       9       0       0
Total ram usage:       18 bytes
 Hardware stack levels used:    1
 Hardware stack levels required when called:    4
 This function calls:
		_putch
		___lwdiv
		___lwmod
 This function is called by:
		_main
		_Send_Packet
		_Receive_Packet
 This function uses a non-reentrant model


 *************** function _SwitchToTxMode *****************
 Defined at:
		line 191 in file "rfm70.c"
 Parameters:    Size  Location     Type
		None
 Auto vars:     Size  Location     Type
  value           1   28[BANK0 ] unsigned char 
 Return value:  Size  Location     Type
		None               void
 Registers used:
		wreg, status,2, status,0, pclath, cstack
 Tracked objects:
		On entry : 
		On exit  : 
		Unchanged: 
 Data sizes:     COMMON   BANK0   BANK1   BANK3   BANK2
      Params:         0       0       0       0       0
      Locals:         0       1       0       0       0
      Temps:          0       1       0       0       0
      Totals:         0       2       0       0       0
Total ram usage:        2 bytes
 Hardware stack levels used:    1
 Hardware stack levels required when called:    5
 This function calls:
		_SPI_Write_Reg
		_SPI_Read_Reg
 This function is called by:
		_Send_Packet
 This function uses a non-reentrant model


 *************** function _putch *****************
 Defined at:
		line 787 in file "main.c"
 Parameters:    Size  Location     Type
  c               1    wreg     unsigned char 
 Auto vars:     Size  Location     Type
  c               1   21[BANK0 ] unsigned char 
 Return value:  Size  Location     Type
		None               void
 Registers used:
		wreg
 Tracked objects:
		On entry : 
		On exit  : 
		Unchanged: 
 Data sizes:     COMMON   BANK0   BANK1   BANK3   BANK2
      Params:         0       0       0       0       0
      Locals:         0       1       0       0       0
      Temps:          0       0       0       0       0
      Totals:         0       1       0       0       0
Total ram usage:        1 bytes
 Hardware stack levels used:    1
 Hardware stack levels required when called:    3
 This function calls:
		Nothing
 This function is called by:
		_printf
		_getche
 This function uses a non-reentrant model


 *************** function _sleep *****************
 Defined at:
		line 562 in file "main.c"
 Parameters:    Size  Location     Type
		None
 Auto vars:     Size  Location     Type
  new_value       1   47[BANK0 ] unsigned char 
 Return value:  Size  Location     Type
		None               void
 Registers used:
		wreg, status,2, status,0, btemp+1, pclath, cstack
 Tracked objects:
		On entry : 
		On exit  : 
		Unchanged: 
 Data sizes:     COMMON   BANK0   BANK1   BANK3   BANK2
      Params:         0       0       0       0       0
      Locals:         0       1       0       0       0
      Temps:          0       2       0       0       0
      Totals:         0       3       0       0       0
Total ram usage:        3 bytes
 Hardware stack levels used:    1
 Hardware stack levels required when called:    5
 This function calls:
		_adcReadVcap
		___fttol
		___ftge
		___ftmul
		___ftdiv
 This function is called by:
		_main
 This function uses a non-reentrant model


 *************** function _adcReadVcap *****************
 Defined at:
		line 673 in file "main.c"
 Parameters:    Size  Location     Type
		None
 Auto vars:     Size  Location     Type
  value           1   23[BANK0 ] unsigned char 
 Return value:  Size  Location     Type
                  1    wreg      unsigned char 
 Registers used:
		wreg, status,2, status,0
 Tracked objects:
		On entry : 
		On exit  : 
		Unchanged: 
 Data sizes:     COMMON   BANK0   BANK1   BANK3   BANK2
      Params:         0       0       0       0       0
      Locals:         0       1       0       0       0
      Temps:          0       2       0       0       0
      Totals:         0       3       0       0       0
Total ram usage:        3 bytes
 Hardware stack levels used:    1
 Hardware stack levels required when called:    3
 This function calls:
		Nothing
 This function is called by:
		_main
		_sleep
 This function uses a non-reentrant model


 *************** function _SPI_Write_Buf *****************
 Defined at:
		line 147 in file "rfm70.c"
 Parameters:    Size  Location     Type
  reg             1    wreg     unsigned char 
  pBuf            1   24[BANK0 ] PTR unsigned char 
		 -> RFM70_Initialize@WriteArr(12), tx_buf(10), 
  length          1   25[BANK0 ] unsigned char 
 Auto vars:     Size  Location     Type
  reg             1   27[BANK0 ] unsigned char 
  byte_ctr        1   28[BANK0 ] unsigned char 
 Return value:  Size  Location     Type
		None               void
 Registers used:
		wreg, fsr0l, fsr0h, status,2, status,0, pclath, cstack
 Tracked objects:
		On entry : 
		On exit  : 
		Unchanged: 
 Data sizes:     COMMON   BANK0   BANK1   BANK3   BANK2
      Params:         0       2       0       0       0
      Locals:         0       2       0       0       0
      Temps:          0       1       0       0       0
      Totals:         0       5       0       0       0
Total ram usage:        5 bytes
 Hardware stack levels used:    1
 Hardware stack levels required when called:    4
 This function calls:
		_SPI_RW
 This function is called by:
		_Send_Packet
		_RFM70_Initialize
 This function uses a non-reentrant model


 *************** function _rfm70TxDataSentInterrupt *****************
 Defined at:
		line 371 in file "rfm70.c"
 Parameters:    Size  Location     Type
		None
 Auto vars:     Size  Location     Type
		None
 Return value:  Size  Location     Type
                  1    wreg      unsigned char 
 Registers used:
		wreg, status,2, status,0, pclath, cstack
 Tracked objects:
		On entry : 
		On exit  : 
		Unchanged: 
 Data sizes:     COMMON   BANK0   BANK1   BANK3   BANK2
      Params:         0       0       0       0       0
      Locals:         0       0       0       0       0
      Temps:          0       1       0       0       0
      Totals:         0       1       0       0       0
Total ram usage:        1 bytes
 Hardware stack levels used:    1
 Hardware stack levels required when called:    5
 This function calls:
		_SPI_Read_Reg
		_SPI_Write_Reg
 This function is called by:
		_Send_Packet
 This function uses a non-reentrant model


 *************** function _SwitchToRxMode *****************
 Defined at:
		line 165 in file "rfm70.c"
 Parameters:    Size  Location     Type
		None
 Auto vars:     Size  Location     Type
  value           1   28[BANK0 ] unsigned char 
 Return value:  Size  Location     Type
		None               void
 Registers used:
		wreg, status,2, status,0, pclath, cstack
 Tracked objects:
		On entry : 
		On exit  : 
		Unchanged: 
 Data sizes:     COMMON   BANK0   BANK1   BANK3   BANK2
      Params:         0       0       0       0       0
      Locals:         0       1       0       0       0
      Temps:          0       1       0       0       0
      Totals:         0       2       0       0       0
Total ram usage:        2 bytes
 Hardware stack levels used:    1
 Hardware stack levels required when called:    5
 This function calls:
		_SPI_Write_Reg
		_SPI_Read_Reg
 This function is called by:
		_Send_Packet
		_Receive_Packet
 This function uses a non-reentrant model


 *************** function _rfm70TxDataSentErrorInterrupt *****************
 Defined at:
		line 380 in file "rfm70.c"
 Parameters:    Size  Location     Type
		None
 Auto vars:     Size  Location     Type
		None
 Return value:  Size  Location     Type
                  1    wreg      unsigned char 
 Registers used:
		wreg, status,2, status,0, pclath, cstack
 Tracked objects:
		On entry : 
		On exit  : 
		Unchanged: 
 Data sizes:     COMMON   BANK0   BANK1   BANK3   BANK2
      Params:         0       0       0       0       0
      Locals:         0       0       0       0       0
      Temps:          0       1       0       0       0
      Totals:         0       1       0       0       0
Total ram usage:        1 bytes
 Hardware stack levels used:    1
 Hardware stack levels required when called:    5
 This function calls:
		_SPI_Read_Reg
		_SPI_Write_Reg
 This function is called by:
		_Send_Packet
 This function uses a non-reentrant model


 *************** function _SwitchCFG *****************
 Defined at:
		line 218 in file "rfm70.c"
 Parameters:    Size  Location     Type
  _cfg            1    wreg     unsigned char 
 Auto vars:     Size  Location     Type
  _cfg            1   28[BANK0 ] unsigned char 
  Tmp             1   29[BANK0 ] unsigned char 
 Return value:  Size  Location     Type
		None               void
 Registers used:
		wreg, status,2, status,0, pclath, cstack
 Tracked objects:
		On entry : 
		On exit  : 
		Unchanged: 
 Data sizes:     COMMON   BANK0   BANK1   BANK3   BANK2
      Params:         0       0       0       0       0
      Locals:         0       2       0       0       0
      Temps:          0       1       0       0       0
      Totals:         0       3       0       0       0
Total ram usage:        3 bytes
 Hardware stack levels used:    1
 Hardware stack levels required when called:    5
 This function calls:
		_SPI_Read_Reg
		_SPI_Write_Reg
 This function is called by:
		_RFM70_Initialize
 This function uses a non-reentrant model


 *************** function _SPI_Read_Reg *****************
 Defined at:
		line 109 in file "rfm70.c"
 Parameters:    Size  Location     Type
  reg             1    wreg     unsigned char 
 Auto vars:     Size  Location     Type
  reg             1   25[BANK0 ] unsigned char 
  value           1   26[BANK0 ] unsigned char 
 Return value:  Size  Location     Type
                  1    wreg      unsigned char 
 Registers used:
		wreg, status,2, status,0, pclath, cstack
 Tracked objects:
		On entry : 
		On exit  : 
		Unchanged: 
 Data sizes:     COMMON   BANK0   BANK1   BANK3   BANK2
      Params:         0       0       0       0       0
      Locals:         0       2       0       0       0
      Temps:          0       1       0       0       0
      Totals:         0       3       0       0       0
Total ram usage:        3 bytes
 Hardware stack levels used:    1
 Hardware stack levels required when called:    4
 This function calls:
		_SPI_RW
 This function is called by:
		_Send_Packet
		_SwitchToRxMode
		_SwitchToTxMode
		_SwitchCFG
		_RFM70_Initialize
		_rfm70TxDataSentInterrupt
		_rfm70TxDataSentErrorInterrupt
		_rfm70setPowerdownMode
		_Receive_Packet
		_rfm70_data_sent
 This function uses a non-reentrant model


 *************** function _SPI_Write_Reg *****************
 Defined at:
		line 94 in file "rfm70.c"
 Parameters:    Size  Location     Type
  reg             1    wreg     unsigned char 
  value           1   24[BANK0 ] unsigned char 
 Auto vars:     Size  Location     Type
  reg             1   25[BANK0 ] unsigned char 
 Return value:  Size  Location     Type
		None               void
 Registers used:
		wreg, status,2, status,0, pclath, cstack
 Tracked objects:
		On entry : 
		On exit  : 
		Unchanged: 
 Data sizes:     COMMON   BANK0   BANK1   BANK3   BANK2
      Params:         0       1       0       0       0
      Locals:         0       1       0       0       0
      Temps:          0       0       0       0       0
      Totals:         0       2       0       0       0
Total ram usage:        2 bytes
 Hardware stack levels used:    1
 Hardware stack levels required when called:    4
 This function calls:
		_SPI_RW
 This function is called by:
		_SwitchToRxMode
		_SwitchToTxMode
		_SwitchCFG
		_RFM70_Initialize
		_rfm70TxDataSentInterrupt
		_rfm70TxDataSentErrorInterrupt
		_rfm70setPowerdownMode
		_Receive_Packet
		_SetChannelNum
		_rfm70_data_sent
 This function uses a non-reentrant model


 *************** function _SPI_RW *****************
 Defined at:
		line 78 in file "rfm70.c"
 Parameters:    Size  Location     Type
  value           1    wreg     unsigned char 
 Auto vars:     Size  Location     Type
  value           1   23[BANK0 ] unsigned char 
 Return value:  Size  Location     Type
                  1    wreg      unsigned char 
 Registers used:
		wreg
 Tracked objects:
		On entry : 
		On exit  : 
		Unchanged: 
 Data sizes:     COMMON   BANK0   BANK1   BANK3   BANK2
      Params:         0       0       0       0       0
      Locals:         0       1       0       0       0
      Temps:          0       2       0       0       0
      Totals:         0       3       0       0       0
Total ram usage:        3 bytes
 Hardware stack levels used:    1
 Hardware stack levels required when called:    3
 This function calls:
		Nothing
 This function is called by:
		_SPI_Write_Reg
		_SPI_Read_Reg
		_SPI_Write_Buf
		_SPI_Read_Buf
 This function uses a non-reentrant model


 *************** function ___ftmul *****************
 Defined at:
		line 52 in file "/Applications/microchip/xc8/v1.12/sources/ftmul.c"
 Parameters:    Size  Location     Type
  f1              3   29[BANK0 ] float 
  f2              3   32[BANK0 ] float 
 Auto vars:     Size  Location     Type
  f3_as_produc    3   40[BANK0 ] unsigned um
  sign            1   44[BANK0 ] unsigned char 
  cntr            1   43[BANK0 ] unsigned char 
  exp             1   39[BANK0 ] unsigned char 
 Return value:  Size  Location     Type
                  3   29[BANK0 ] float 
 Registers used:
		wreg, status,2, status,0, pclath, cstack
 Tracked objects:
		On entry : 
		On exit  : 
		Unchanged: 
 Data sizes:     COMMON   BANK0   BANK1   BANK3   BANK2
      Params:         0       6       0       0       0
      Locals:         0       6       0       0       0
      Temps:          0       4       0       0       0
      Totals:         0      16       0       0       0
Total ram usage:       16 bytes
 Hardware stack levels used:    1
 Hardware stack levels required when called:    4
 This function calls:
		___ftpack
 This function is called by:
		_sleep
 This function uses a non-reentrant model


 *************** function ___wmul *****************
 Defined at:
		line 3 in file "/Applications/microchip/xc8/v1.12/sources/wmul.c"
 Parameters:    Size  Location     Type
  multiplier      2   21[BANK0 ] unsigned int 
  multiplicand    2   23[BANK0 ] unsigned int 
 Auto vars:     Size  Location     Type
  product         2   25[BANK0 ] unsigned int 
 Return value:  Size  Location     Type
                  2   21[BANK0 ] unsigned int 
 Registers used:
		wreg, status,2, status,0
 Tracked objects:
		On entry : 
		On exit  : 
		Unchanged: 
 Data sizes:     COMMON   BANK0   BANK1   BANK3   BANK2
      Params:         0       4       0       0       0
      Locals:         0       2       0       0       0
      Temps:          0       0       0       0       0
      Totals:         0       6       0       0       0
Total ram usage:        6 bytes
 Hardware stack levels used:    1
 Hardware stack levels required when called:    3
 This function calls:
		Nothing
 This function is called by:
		_main
 This function uses a non-reentrant model


 *************** function ___lwdiv *****************
 Defined at:
		line 5 in file "/Applications/microchip/xc8/v1.12/sources/lwdiv.c"
 Parameters:    Size  Location     Type
  divisor         2   21[BANK0 ] unsigned int 
  dividend        2   23[BANK0 ] unsigned int 
 Auto vars:     Size  Location     Type
  quotient        2   27[BANK0 ] unsigned int 
  counter         1   26[BANK0 ] unsigned char 
 Return value:  Size  Location     Type
                  2   21[BANK0 ] unsigned int 
 Registers used:
		wreg, status,2, status,0
 Tracked objects:
		On entry : 
		On exit  : 
		Unchanged: 
 Data sizes:     COMMON   BANK0   BANK1   BANK3   BANK2
      Params:         0       4       0       0       0
      Locals:         0       3       0       0       0
      Temps:          0       1       0       0       0
      Totals:         0       8       0       0       0
Total ram usage:        8 bytes
 Hardware stack levels used:    1
 Hardware stack levels required when called:    3
 This function calls:
		Nothing
 This function is called by:
		_printf
 This function uses a non-reentrant model


 *************** function ___lwmod *****************
 Defined at:
		line 5 in file "/Applications/microchip/xc8/v1.12/sources/lwmod.c"
 Parameters:    Size  Location     Type
  divisor         2   29[BANK0 ] unsigned int 
  dividend        2   31[BANK0 ] unsigned int 
 Auto vars:     Size  Location     Type
  counter         1   34[BANK0 ] unsigned char 
 Return value:  Size  Location     Type
                  2   29[BANK0 ] unsigned int 
 Registers used:
		wreg, status,2, status,0
 Tracked objects:
		On entry : 
		On exit  : 
		Unchanged: 
 Data sizes:     COMMON   BANK0   BANK1   BANK3   BANK2
      Params:         0       4       0       0       0
      Locals:         0       1       0       0       0
      Temps:          0       1       0       0       0
      Totals:         0       6       0       0       0
Total ram usage:        6 bytes
 Hardware stack levels used:    1
 Hardware stack levels required when called:    3
 This function calls:
		Nothing
 This function is called by:
		_printf
 This function uses a non-reentrant model


 *************** function ___ftdiv *****************
 Defined at:
		line 50 in file "/Applications/microchip/xc8/v1.12/sources/ftdiv.c"
 Parameters:    Size  Location     Type
  f2              3   29[BANK0 ] float 
  f1              3   32[BANK0 ] float 
 Auto vars:     Size  Location     Type
  f3              3   40[BANK0 ] float 
  sign            1   44[BANK0 ] unsigned char 
  exp             1   43[BANK0 ] unsigned char 
  cntr            1   39[BANK0 ] unsigned char 
 Return value:  Size  Location     Type
                  3   29[BANK0 ] float 
 Registers used:
		wreg, status,2, status,0, pclath, cstack
 Tracked objects:
		On entry : 
		On exit  : 
		Unchanged: 
 Data sizes:     COMMON   BANK0   BANK1   BANK3   BANK2
      Params:         0       6       0       0       0
      Locals:         0       6       0       0       0
      Temps:          0       4       0       0       0
      Totals:         0      16       0       0       0
Total ram usage:       16 bytes
 Hardware stack levels used:    1
 Hardware stack levels required when called:    4
 This function calls:
		___ftpack
 This function is called by:
		_sleep
 This function uses a non-reentrant model


 *************** function ___fttol *****************
 Defined at:
		line 45 in file "/Applications/microchip/xc8/v1.12/sources/fttol.c"
 Parameters:    Size  Location     Type
  f1              3   21[BANK0 ] float 
 Auto vars:     Size  Location     Type
  lval            4   30[BANK0 ] unsigned long 
  exp1            1   34[BANK0 ] unsigned char 
  sign1           1   29[BANK0 ] unsigned char 
 Return value:  Size  Location     Type
                  4   21[BANK0 ] long 
 Registers used:
		wreg, status,2, status,0
 Tracked objects:
		On entry : 
		On exit  : 
		Unchanged: 
 Data sizes:     COMMON   BANK0   BANK1   BANK3   BANK2
      Params:         0       4       0       0       0
      Locals:         0       6       0       0       0
      Temps:          0       4       0       0       0
      Totals:         0      14       0       0       0
Total ram usage:       14 bytes
 Hardware stack levels used:    1
 Hardware stack levels required when called:    3
 This function calls:
		Nothing
 This function is called by:
		_main
		_sleep
 This function uses a non-reentrant model


 *************** function ___lbtoft *****************
 Defined at:
		line 28 in file "/Applications/microchip/xc8/v1.12/sources/lbtoft.c"
 Parameters:    Size  Location     Type
  c               1    wreg     unsigned char 
 Auto vars:     Size  Location     Type
  c               1   36[BANK0 ] unsigned char 
 Return value:  Size  Location     Type
                  3   29[BANK0 ] float 
 Registers used:
		wreg, status,2, status,0, pclath, cstack
 Tracked objects:
		On entry : 
		On exit  : 
		Unchanged: 
 Data sizes:     COMMON   BANK0   BANK1   BANK3   BANK2
      Params:         0       3       0       0       0
      Locals:         0       1       0       0       0
      Temps:          0       4       0       0       0
      Totals:         0       8       0       0       0
Total ram usage:        8 bytes
 Hardware stack levels used:    1
 Hardware stack levels required when called:    4
 This function calls:
		___ftpack
 This function is called by:
		_main
 This function uses a non-reentrant model


 *************** function ___ftpack *****************
 Defined at:
		line 63 in file "/Applications/microchip/xc8/v1.12/sources/float.c"
 Parameters:    Size  Location     Type
  arg             3   21[BANK0 ] unsigned um
  exp             1   24[BANK0 ] unsigned char 
  sign            1   25[BANK0 ] unsigned char 
 Auto vars:     Size  Location     Type
		None
 Return value:  Size  Location     Type
                  3   21[BANK0 ] float 
 Registers used:
		wreg, status,2, status,0
 Tracked objects:
		On entry : 
		On exit  : 
		Unchanged: 
 Data sizes:     COMMON   BANK0   BANK1   BANK3   BANK2
      Params:         0       5       0       0       0
      Locals:         0       0       0       0       0
      Temps:          0       3       0       0       0
      Totals:         0       8       0       0       0
Total ram usage:        8 bytes
 Hardware stack levels used:    1
 Hardware stack levels required when called:    3
 This function calls:
		Nothing
 This function is called by:
		___ftdiv
		___ftmul
		___lbtoft
 This function uses a non-reentrant model


 *************** function ___awdiv *****************
 Defined at:
		line 5 in file "/Applications/microchip/xc8/v1.12/sources/awdiv.c"
 Parameters:    Size  Location     Type
  divisor         2   27[BANK0 ] int 
  dividend        2   29[BANK0 ] int 
 Auto vars:     Size  Location     Type
  quotient        2   34[BANK0 ] int 
  sign            1   33[BANK0 ] unsigned char 
  counter         1   32[BANK0 ] unsigned char 
 Return value:  Size  Location     Type
                  2   27[BANK0 ] int 
 Registers used:
		wreg, status,2, status,0
 Tracked objects:
		On entry : 
		On exit  : 
		Unchanged: 
 Data sizes:     COMMON   BANK0   BANK1   BANK3   BANK2
      Params:         0       4       0       0       0
      Locals:         0       4       0       0       0
      Temps:          0       1       0       0       0
      Totals:         0       9       0       0       0
Total ram usage:        9 bytes
 Hardware stack levels used:    1
 Hardware stack levels required when called:    3
 This function calls:
		Nothing
 This function is called by:
		_main
 This function uses a non-reentrant model


 *************** function ___ftge *****************
 Defined at:
		line 5 in file "/Applications/microchip/xc8/v1.12/sources/ftge.c"
 Parameters:    Size  Location     Type
  ff1             3   37[BANK0 ] float 
  ff2             3   40[BANK0 ] float 
 Auto vars:     Size  Location     Type
		None
 Return value:  Size  Location     Type
		None               void
 Registers used:
		wreg, status,2, status,0
 Tracked objects:
		On entry : 
		On exit  : 
		Unchanged: 
 Data sizes:     COMMON   BANK0   BANK1   BANK3   BANK2
      Params:         0       6       0       0       0
      Locals:         0       0       0       0       0
      Temps:          0       0       6       0       0
      Totals:         0       6       6       0       0
Total ram usage:       12 bytes
 Hardware stack levels used:    1
 Hardware stack levels required when called:    3
 This function calls:
		Nothing
 This function is called by:
		_main
		_sleep
 This function uses a non-reentrant model


 *************** function _ISR *****************
 Defined at:
		line 106 in file "main.c"
 Parameters:    Size  Location     Type
		None
 Auto vars:     Size  Location     Type
		None
 Return value:  Size  Location     Type
		None               void
 Registers used:
		wreg, fsr0l, fsr0h, status,2, status,0, btemp+1, pclath, cstack
 Tracked objects:
		On entry : 
		On exit  : 
		Unchanged: 
 Data sizes:     COMMON   BANK0   BANK1   BANK3   BANK2
      Params:         0       0       0       0       0
      Locals:         0       0       0       0       0
      Temps:          0       7       0       0       0
      Totals:         0       7       0       0       0
Total ram usage:        7 bytes
 Hardware stack levels used:    1
 Hardware stack levels required when called:    2
 This function calls:
		i1_printf
 This function is called by:
		Interrupt level 1
 This function uses a non-reentrant model


 *************** function i1_printf *****************
 Defined at:
		line 465 in file "/Applications/microchip/xc8/v1.12/sources/doprnt.c"
 Parameters:    Size  Location     Type
  printf          2    0[BANK0 ] PTR const unsigned char 
		 -> STR_15(5), STR_14(12), Receive_Packet@rx_buf(32), STR_13(5), 
		 -> STR_12(24), STR_11(17), STR_10(3), STR_9(3), 
		 -> STR_8(10), STR_7(18), STR_6(21), STR_5(26), 
		 -> STR_4(37), STR_3(23), STR_2(20), STR_1(19), 
 Auto vars:     Size  Location     Type
  printf          4    9[BANK0 ] struct .
  printf          1   13[BANK0 ] char 
  printf          1    8[BANK0 ] unsigned char 
  printf          1    7[BANK0 ] char 
  printf          1    6[BANK0 ] PTR void [1]
		 -> ?_printf(2), 
  printf          1    5[BANK0 ] unsigned char 
 Return value:  Size  Location     Type
                  2    0[BANK0 ] int 
 Registers used:
		wreg, fsr0l, fsr0h, status,2, status,0, btemp+1, pclath, cstack
 Tracked objects:
		On entry : 
		On exit  : 
		Unchanged: 
 Data sizes:     COMMON   BANK0   BANK1   BANK3   BANK2
      Params:         0       2       0       0       0
      Locals:         0       9       0       0       0
      Temps:          0       3       0       0       0
      Totals:         0      14       0       0       0
Total ram usage:       14 bytes
 Hardware stack levels used:    1
 Hardware stack levels required when called:    1
 This function calls:
		i1_putch
		i1___lwdiv
		i1___lwmod
 This function is called by:
		_ISR
 This function uses a non-reentrant model


 *************** function i1_putch *****************
 Defined at:
		line 787 in file "main.c"
 Parameters:    Size  Location     Type
  putch           1    wreg     unsigned char 
 Auto vars:     Size  Location     Type
  putch           1    0[COMMON] unsigned char 
 Return value:  Size  Location     Type
		None               void
 Registers used:
		wreg
 Tracked objects:
		On entry : 
		On exit  : 
		Unchanged: 
 Data sizes:     COMMON   BANK0   BANK1   BANK3   BANK2
      Params:         0       0       0       0       0
      Locals:         1       0       0       0       0
      Temps:          0       0       0       0       0
      Totals:         1       0       0       0       0
Total ram usage:        1 bytes
 Hardware stack levels used:    1
 This function calls:
		Nothing
 This function is called by:
		i1_printf
 This function uses a non-reentrant model


 *************** function i1___lwdiv *****************
 Defined at:
		line 5 in file "/Applications/microchip/xc8/v1.12/sources/lwdiv.c"
 Parameters:    Size  Location     Type
  __lwdiv         2    0[COMMON] unsigned int 
  __lwdiv         2    2[COMMON] unsigned int 
 Auto vars:     Size  Location     Type
  __lwdiv         2    6[COMMON] unsigned int 
  __lwdiv         1    5[COMMON] unsigned char 
 Return value:  Size  Location     Type
                  2    0[COMMON] unsigned int 
 Registers used:
		wreg, status,2, status,0
 Tracked objects:
		On entry : 
		On exit  : 
		Unchanged: 
 Data sizes:     COMMON   BANK0   BANK1   BANK3   BANK2
      Params:         4       0       0       0       0
      Locals:         3       0       0       0       0
      Temps:          1       0       0       0       0
      Totals:         8       0       0       0       0
Total ram usage:        8 bytes
 Hardware stack levels used:    1
 This function calls:
		Nothing
 This function is called by:
		i1_printf
 This function uses a non-reentrant model


 *************** function i1___lwmod *****************
 Defined at:
		line 5 in file "/Applications/microchip/xc8/v1.12/sources/lwmod.c"
 Parameters:    Size  Location     Type
  __lwmod         2    8[COMMON] unsigned int 
  __lwmod         2   10[COMMON] unsigned int 
 Auto vars:     Size  Location     Type
  __lwmod         1   13[COMMON] unsigned char 
 Return value:  Size  Location     Type
                  2    8[COMMON] unsigned int 
 Registers used:
		wreg, status,2, status,0
 Tracked objects:
		On entry : 
		On exit  : 
		Unchanged: 
 Data sizes:     COMMON   BANK0   BANK1   BANK3   BANK2
      Params:         4       0       0       0       0
      Locals:         1       0       0       0       0
      Temps:          1       0       0       0       0
      Totals:         6       0       0       0       0
Total ram usage:        6 bytes
 Hardware stack levels used:    1
 This function calls:
		Nothing
 This function is called by:
		i1_printf
 This function uses a non-reentrant model



MODULE INFORMATION

Module		Function		Class		Link	Load	Size
/Applications/microchip/xc8/v1.12/sources/lbtoft.c
		___lbtoft      		CODE           	1305	0000	33

/Applications/microchip/xc8/v1.12/sources/lbtoft.c estimated size: 33

/Applications/microchip/xc8/v1.12/sources/ftdiv.c
		___ftdiv       		CODE           	0852	0000	200

/Applications/microchip/xc8/v1.12/sources/ftdiv.c estimated size: 200

shared
		i1_printf      		CODE           	0C52	0000	430
		i1_putch       		CODE           	1219	0000	12
		__stringtab    		STRCODE        	1000	0000	18
		__stringdata   		STRCODE        	10A3	0000	252
		_Bank0_Reg     		STRCODE        	104A	0000	46
		_Bank0_RegAct  		STRCODE        	0000	0000	4259
		i1___lwdiv     		CODE           	157E	0000	77
		_dpowers       		STRCODE        	1083	0000	10
		_Bank1_Reg14   		STRCODE        	1078	0000	11
		_Bank1_Reg0_13 		STRCODE        	1012	0000	56
		i1___lwmod     		CODE           	14F6	0000	67
		_RX0_Address   		STRCODE        	1095	0000	5
		__initializatio		CODE           	13F6	0000	43
		_RX1_Address   		STRCODE        	109A	0000	5
		_hexpowers     		STRCODE        	108D	0000	8

shared estimated size: 5299

/Applications/microchip/xc8/v1.12/sources/ftmul.c
		___ftmul       		CODE           	09FE	0000	238

/Applications/microchip/xc8/v1.12/sources/ftmul.c estimated size: 238

/Applications/microchip/xc8/v1.12/sources/fttol.c
		___fttol       		CODE           	175A	0000	166

/Applications/microchip/xc8/v1.12/sources/fttol.c estimated size: 166

main.c
		_Send_Packet   		CODE           	091A	0000	228
		_adcReadVcap   		CODE           	139F	0000	43
		_adcReadTemp   		CODE           	1425	0000	48
		_ISR           		CODE           	0788	0000	120
		_putch         		CODE           	1225	0000	12
		_adcReadVsuperc		CODE           	1455	0000	48
		_main          		CODE           	0015	0000	999
		_spiInit       		CODE           	127D	0000	24
		_adcInit       		CODE           	120F	0000	10
		_sleep         		CODE           	0AEC	0000	358
		_uartInit      		CODE           	1267	0000	22

main.c estimated size: 1912

/Applications/microchip/xc8/v1.12/sources/ftge.c
		___ftge        		CODE           	16BC	0000	158

/Applications/microchip/xc8/v1.12/sources/ftge.c estimated size: 158

/Applications/microchip/xc8/v1.12/sources/wmul.c
		___wmul        		CODE           	13CA	0000	44

/Applications/microchip/xc8/v1.12/sources/wmul.c estimated size: 44

/Applications/microchip/xc8/v1.12/sources/lwmod.c
		___lwmod       		CODE           	1539	0000	69

/Applications/microchip/xc8/v1.12/sources/lwmod.c estimated size: 69

/Applications/microchip/xc8/v1.12/sources/awdiv.c
		___awdiv       		CODE           	15CB	0000	116

/Applications/microchip/xc8/v1.12/sources/awdiv.c estimated size: 116

rfm70.c
		_rfm70setPowerd		CODE           	1326	0000	37
		_SPI_RW        		CODE           	1295	0000	25
		_rfm70TxDataSen		CODE           	12C7	0000	31
		_rfm70TxDataSen		CODE           	12E6	0000	31
		_SPI_Write_Reg 		CODE           	1251	0000	22
		_SPI_Write_Buf 		CODE           	134B	0000	42
		_SPI_Read_Reg  		CODE           	12AE	0000	25
		_RFM70_Initiali		CODE           	03FC	0000	908
		_SwitchToRxMode		CODE           	14B7	0000	63
		_SwitchToTxMode		CODE           	1375	0000	42
		_SwitchCFG     		CODE           	1485	0000	50

rfm70.c estimated size: 1276

/Applications/microchip/xc8/v1.12/sources/lwdiv.c
		___lwdiv       		CODE           	0803	0000	79

/Applications/microchip/xc8/v1.12/sources/lwdiv.c estimated size: 79

/Applications/microchip/xc8/v1.12/sources/doprnt.c
		_printf        		CODE           	0E00	0000	512

/Applications/microchip/xc8/v1.12/sources/doprnt.c estimated size: 512

/Applications/microchip/xc8/v1.12/sources/float.c
		___ftpack      		CODE           	163F	0000	125

/Applications/microchip/xc8/v1.12/sources/float.c estimated size: 125

